GAS LISTING /tmp/ccaH0FgF.s 			page 1


   1              		.file	"0_console.cpp"
   2              		.option pic
   3              		.option norelax
   4              		.text
   5              	.Ltext0:
   6              		.align	2
   7              		.globl	_ZN8IConsole14writeToConsoleEv
   9              	_ZN8IConsole14writeToConsoleEv:
  10              	.LFB5:
  11              		.file 1 "src/0_console.cpp"
   1:src/0_console.cpp **** #include "../h/0_console.h"
   2:src/0_console.cpp **** #include "../h/my_console.h"
   3:src/0_console.cpp **** 
   4:src/0_console.cpp **** void IConsole::writeToConsole()
   5:src/0_console.cpp **** {
  12              		.loc 1 5 1
  13              		.cfi_startproc
  14              	.LVL0:
  15 0000 130101FF 		addi	sp,sp,-16
  16              		.cfi_def_cfa_offset 16
  17 0004 23348100 		sd	s0,8(sp)
  18              		.cfi_offset 8, -8
  19 0008 13040101 		addi	s0,sp,16
  20              		.cfi_def_cfa 8, 0
   6:src/0_console.cpp **** //    int a = plic_claim();
   7:src/0_console.cpp **** //    assert(a == 10);
   8:src/0_console.cpp **** 
   9:src/0_console.cpp ****     if( ((*((char *) CONSOLE_STATUS)) & CONSOLE_TX_STATUS_BIT) != 0 )
  21              		.loc 1 9 5
  22              		.loc 1 9 11 is_stmt 0
  23 000c 97070000 		la	a5,CONSOLE_STATUS
  23      83B70700 
  24 0014 83B70700 		ld	a5,0(a5)
  25 0018 83C70700 		lbu	a5,0(a5)
  26              		.loc 1 9 5
  27 001c 93F70702 		andi	a5,a5,32
  28 0020 63840704 		beqz	a5,.L1
  10:src/0_console.cpp ****     {
  11:src/0_console.cpp ****         if(putBufferItems > 0)
  29              		.loc 1 11 9 is_stmt 1
  30              		.loc 1 11 12 is_stmt 0
  31 0024 8337853F 		ld	a5,1016(a0)
  32              		.loc 1 11 9
  33 0028 63800704 		beqz	a5,.L1
  12:src/0_console.cpp ****         {
  13:src/0_console.cpp ****             *((char *) CONSOLE_TX_DATA) = putBuffer[putBufferTail];
  34              		.loc 1 13 13 is_stmt 1
  35              		.loc 1 13 53 is_stmt 0
  36 002c 83378500 		ld	a5,8(a0)
  37              		.loc 1 13 13
  38 0030 17070000 		la	a4,CONSOLE_TX_DATA
  38      03370700 
  39 0038 03370700 		ld	a4,0(a4)
  40              		.loc 1 13 66
  41 003c B307F500 		add	a5,a0,a5
  42 0040 83C70701 		lbu	a5,16(a5)
  43              		.loc 1 13 41
GAS LISTING /tmp/ccaH0FgF.s 			page 2


  44 0044 2300F700 		sb	a5,0(a4)
  14:src/0_console.cpp **** 
  15:src/0_console.cpp ****             putBufferItems--;
  45              		.loc 1 15 13 is_stmt 1
  46 0048 8337853F 		ld	a5,1016(a0)
  47              		.loc 1 15 27 is_stmt 0
  48 004c 9387F7FF 		addi	a5,a5,-1
  49 0050 233CF53E 		sd	a5,1016(a0)
  16:src/0_console.cpp ****             putBufferTail = (putBufferTail+1) % BUFFER_SIZE;
  50              		.loc 1 16 13 is_stmt 1
  51              		.loc 1 16 30 is_stmt 0
  52 0054 83378500 		ld	a5,8(a0)
  53              		.loc 1 16 43
  54 0058 93871700 		addi	a5,a5,1
  55              		.loc 1 16 47
  56 005c 1307803E 		li	a4,1000
  57 0060 B3F7E702 		remu	a5,a5,a4
  58              		.loc 1 16 27
  59 0064 2334F500 		sd	a5,8(a0)
  60              	.L1:
  17:src/0_console.cpp ****         }
  18:src/0_console.cpp ****     }
  19:src/0_console.cpp **** //    plic_complete(10);
  20:src/0_console.cpp **** }
  61              		.loc 1 20 1
  62 0068 03348100 		ld	s0,8(sp)
  63              		.cfi_restore 8
  64              		.cfi_def_cfa 2, 16
  65 006c 13010101 		addi	sp,sp,16
  66              		.cfi_def_cfa_offset 0
  67 0070 67800000 		jr	ra
  68              		.cfi_endproc
  69              	.LFE5:
  71              		.section	.rodata.str1.8,"aMS",@progbits,1
  72              		.align	3
  73              	.LC0:
  74 0000 3D3D3D3D 		.string	"===================== ASSERT file: "
  74      3D3D3D3D 
  74      3D3D3D3D 
  74      3D3D3D3D 
  74      3D3D3D3D 
  75 0024 00000000 		.align	3
  76              	.LC1:
  77 0028 7372632F 		.string	"src/0_console.cpp"
  77      305F636F 
  77      6E736F6C 
  77      652E6370 
  77      7000
  78 003a 00000000 		.align	3
  78      0000
  79              	.LC2:
  80 0040 20202020 		.string	"    line: "
  80      6C696E65 
  80      3A2000
  81 004b 00000000 		.align	3
  81      00
  82              	.LC3:
GAS LISTING /tmp/ccaH0FgF.s 			page 3


  83 0050 2020203D 		.string	"   ==========================="
  83      3D3D3D3D 
  83      3D3D3D3D 
  83      3D3D3D3D 
  83      3D3D3D3D 
  84              		.text
  85              		.align	2
  86              		.globl	_ZN8IConsole14consoleHandlerEv
  88              	_ZN8IConsole14consoleHandlerEv:
  89              	.LFB6:
  21:src/0_console.cpp **** 
  22:src/0_console.cpp **** void IConsole::consoleHandler()
  23:src/0_console.cpp **** {
  90              		.loc 1 23 1 is_stmt 1
  91              		.cfi_startproc
  92              	.LVL1:
  93 0074 130101FE 		addi	sp,sp,-32
  94              		.cfi_def_cfa_offset 32
  95 0078 233C1100 		sd	ra,24(sp)
  96 007c 23388100 		sd	s0,16(sp)
  97 0080 23349100 		sd	s1,8(sp)
  98 0084 23302101 		sd	s2,0(sp)
  99              		.cfi_offset 1, -8
 100              		.cfi_offset 8, -16
 101              		.cfi_offset 9, -24
 102              		.cfi_offset 18, -32
 103 0088 13040102 		addi	s0,sp,32
 104              		.cfi_def_cfa 8, 0
 105 008c 93040500 		mv	s1,a0
  24:src/0_console.cpp ****     bool readyWrite = false;
 106              		.loc 1 24 5
 107              	.LVL2:
  25:src/0_console.cpp ****     bool readyRead = false;
 108              		.loc 1 25 5
  26:src/0_console.cpp **** 
  27:src/0_console.cpp ****     int a = plic_claim();
 109              		.loc 1 27 5
 110              		.loc 1 27 23 is_stmt 0
 111 0090 97000000 		call	plic_claim@plt
 111      E7800000 
 112              	.LVL3:
  28:src/0_console.cpp **** 
  29:src/0_console.cpp ****     if(a == 0)
 113              		.loc 1 29 5 is_stmt 1
 114 0098 63080504 		beqz	a0,.L12
  30:src/0_console.cpp ****     {
  31:src/0_console.cpp ****         assert(false); // greska
  32:src/0_console.cpp ****         return;
  33:src/0_console.cpp ****     }
  34:src/0_console.cpp **** 
  35:src/0_console.cpp ****     assert(a == 10);
 115              		.loc 1 35 5
 116 009c 930765FF 		addi	a5,a0,-10
 117              	.LVL4:
 118              	.LBB12:
 119              	.LBB13:
 120              		.file 2 "src/../h/my_console.h"
GAS LISTING /tmp/ccaH0FgF.s 			page 4


   1:src/../h/my_console.h **** #pragma once
   2:src/../h/my_console.h **** 
   3:src/../h/my_console.h **** #include "../h/risc.h"
   4:src/../h/my_console.h **** 
   5:src/../h/my_console.h **** #include "../lib/hw.h"
   6:src/../h/my_console.h **** 
   7:src/../h/my_console.h **** #define __DEBUG_MODE
   8:src/../h/my_console.h **** 
   9:src/../h/my_console.h **** 
  10:src/../h/my_console.h **** void putString(const char* s);
  11:src/../h/my_console.h **** void putInt(int n);
  12:src/../h/my_console.h **** void putNewline();
  13:src/../h/my_console.h **** void putU64(uint64 n);
  14:src/../h/my_console.h **** void putBinary(uint64 n);
  15:src/../h/my_console.h **** 
  16:src/../h/my_console.h **** [[noreturn]] void stopKernel();
  17:src/../h/my_console.h **** 
  18:src/../h/my_console.h **** inline void _assert(bool valid, const char* file, int line) // MUST be inline
  19:src/../h/my_console.h **** {
  20:src/../h/my_console.h ****     if(valid)
 121              		.loc 2 20 5
 122 00a0 6392070A 		bnez	a5,.L13
  21:src/../h/my_console.h ****         return;
 123              		.loc 2 21 9
 124              	.LVL5:
 125              	.LBE13:
 126              	.LBE12:
  36:src/0_console.cpp **** 
  37:src/0_console.cpp **** 
  38:src/0_console.cpp ****     if( ((*((char *) CONSOLE_STATUS)) & CONSOLE_RX_STATUS_BIT) != 0 )
 127              		.loc 1 38 5
 128              	.LBB15:
 129              		.loc 1 38 11 is_stmt 0
 130 00a4 97070000 		la	a5,CONSOLE_STATUS
 130      83B70700 
 131 00ac 83B70700 		ld	a5,0(a5)
 132 00b0 83C70700 		lbu	a5,0(a5)
 133              		.loc 1 38 5
 134 00b4 93F71700 		andi	a5,a5,1
 135 00b8 6394070E 		bnez	a5,.L14
 136              	.LBE15:
  25:src/0_console.cpp **** 
 137              		.loc 1 25 10
 138 00bc 13090000 		li	s2,0
 139              	.LVL6:
 140              	.L7:
  39:src/0_console.cpp ****     {
  40:src/0_console.cpp ****         assert(getBufferItems < BUFFER_SIZE-1);
  41:src/0_console.cpp **** 
  42:src/0_console.cpp ****         readyRead = true;
  43:src/0_console.cpp ****         char c = *((char *) CONSOLE_TX_DATA); // ovde nista ne radim zapravo, samo retriev-ujem kar
  44:src/0_console.cpp **** 
  45:src/0_console.cpp ****         getBuffer[getBufferHead] = c;
  46:src/0_console.cpp **** 
  47:src/0_console.cpp ****         getBufferHead = (getBufferHead + 1) % BUFFER_SIZE;
  48:src/0_console.cpp ****         getBufferItems++;
  49:src/0_console.cpp ****     }
GAS LISTING /tmp/ccaH0FgF.s 			page 5


  50:src/0_console.cpp **** 
  51:src/0_console.cpp ****     plic_complete(10);
 141              		.loc 1 51 5 is_stmt 1
 142              		.loc 1 51 18 is_stmt 0
 143 00c0 1305A000 		li	a0,10
 144              	.LVL7:
 145 00c4 97000000 		call	plic_complete@plt
 145      E7800000 
 146              	.LVL8:
  52:src/0_console.cpp **** 
  53:src/0_console.cpp ****     assert(readyRead || readyWrite);
 147              		.loc 1 53 5 is_stmt 1
 148              	.LBB22:
 149              	.LBB23:
  20:src/../h/my_console.h ****         return;
 150              		.loc 2 20 5
 151 00cc 630C0916 		beqz	s2,.L15
 152              	.LBE23:
 153              	.LBE22:
  54:src/0_console.cpp **** }
 154              		.loc 1 54 1 is_stmt 0
 155 00d0 83308101 		ld	ra,24(sp)
 156              		.cfi_remember_state
 157              		.cfi_restore 1
 158 00d4 03340101 		ld	s0,16(sp)
 159              		.cfi_restore 8
 160              		.cfi_def_cfa 2, 32
 161 00d8 83348100 		ld	s1,8(sp)
 162              		.cfi_restore 9
 163              	.LVL9:
 164 00dc 03390100 		ld	s2,0(sp)
 165              		.cfi_restore 18
 166              	.LVL10:
 167 00e0 13010102 		addi	sp,sp,32
 168              		.cfi_def_cfa_offset 0
 169 00e4 67800000 		jr	ra
 170              	.LVL11:
 171              	.L12:
 172              		.cfi_restore_state
  31:src/0_console.cpp ****         return;
 173              		.loc 1 31 9 is_stmt 1
 174              	.LBB25:
 175              	.LBB26:
  20:src/../h/my_console.h ****         return;
 176              		.loc 2 20 5
  22:src/../h/my_console.h **** 
  23:src/../h/my_console.h ****     putString("===================== ASSERT file: ");
 177              		.loc 2 23 5
 178              		.loc 2 23 14 is_stmt 0
 179 00e8 17050000 		lla	a0,.LC0
 179      13050500 
 180              	.LVL12:
 181 00f0 97000000 		call	_Z9putStringPKc@plt
 181      E7800000 
 182              	.LVL13:
  24:src/../h/my_console.h ****     putString(file);
 183              		.loc 2 24 5 is_stmt 1
GAS LISTING /tmp/ccaH0FgF.s 			page 6


 184              		.loc 2 24 14 is_stmt 0
 185 00f8 17050000 		lla	a0,.LC1
 185      13050500 
 186 0100 97000000 		call	_Z9putStringPKc@plt
 186      E7800000 
 187              	.LVL14:
  25:src/../h/my_console.h ****     putString("    line: ");
 188              		.loc 2 25 5 is_stmt 1
 189              		.loc 2 25 14 is_stmt 0
 190 0108 17050000 		lla	a0,.LC2
 190      13050500 
 191 0110 97000000 		call	_Z9putStringPKc@plt
 191      E7800000 
 192              	.LVL15:
  26:src/../h/my_console.h ****     putInt(line);
 193              		.loc 2 26 5 is_stmt 1
 194              		.loc 2 26 11 is_stmt 0
 195 0118 1305F001 		li	a0,31
 196 011c 97000000 		call	_Z6putInti@plt
 196      E7800000 
 197              	.LVL16:
  27:src/../h/my_console.h ****     putString("   ===========================");
 198              		.loc 2 27 5 is_stmt 1
 199              		.loc 2 27 14 is_stmt 0
 200 0124 17050000 		lla	a0,.LC3
 200      13050500 
 201 012c 97000000 		call	_Z9putStringPKc@plt
 201      E7800000 
 202              	.LVL17:
  28:src/../h/my_console.h ****     putNewline();
 203              		.loc 2 28 5 is_stmt 1
 204              		.loc 2 28 15 is_stmt 0
 205 0134 97000000 		call	_Z10putNewlinev@plt
 205      E7800000 
 206              	.LVL18:
  29:src/../h/my_console.h **** 
  30:src/../h/my_console.h ****     stopKernel();
 207              		.loc 2 30 5 is_stmt 1
 208              		.loc 2 30 15 is_stmt 0
 209 013c 97000000 		call	_Z10stopKernelv@plt
 209      E7800000 
 210              	.LVL19:
 211              	.L13:
 212              	.LBE26:
 213              	.LBE25:
 214              	.LBB27:
 215              	.LBB14:
  23:src/../h/my_console.h ****     putString(file);
 216              		.loc 2 23 5 is_stmt 1
  23:src/../h/my_console.h ****     putString(file);
 217              		.loc 2 23 14 is_stmt 0
 218 0144 17050000 		lla	a0,.LC0
 218      13050500 
 219              	.LVL20:
 220 014c 97000000 		call	_Z9putStringPKc@plt
 220      E7800000 
 221              	.LVL21:
GAS LISTING /tmp/ccaH0FgF.s 			page 7


  24:src/../h/my_console.h ****     putString("    line: ");
 222              		.loc 2 24 5 is_stmt 1
  24:src/../h/my_console.h ****     putString("    line: ");
 223              		.loc 2 24 14 is_stmt 0
 224 0154 17050000 		lla	a0,.LC1
 224      13050500 
 225 015c 97000000 		call	_Z9putStringPKc@plt
 225      E7800000 
 226              	.LVL22:
  25:src/../h/my_console.h ****     putInt(line);
 227              		.loc 2 25 5 is_stmt 1
  25:src/../h/my_console.h ****     putInt(line);
 228              		.loc 2 25 14 is_stmt 0
 229 0164 17050000 		lla	a0,.LC2
 229      13050500 
 230 016c 97000000 		call	_Z9putStringPKc@plt
 230      E7800000 
 231              	.LVL23:
  26:src/../h/my_console.h ****     putString("   ===========================");
 232              		.loc 2 26 5 is_stmt 1
  26:src/../h/my_console.h ****     putString("   ===========================");
 233              		.loc 2 26 11 is_stmt 0
 234 0174 13053002 		li	a0,35
 235 0178 97000000 		call	_Z6putInti@plt
 235      E7800000 
 236              	.LVL24:
  27:src/../h/my_console.h ****     putNewline();
 237              		.loc 2 27 5 is_stmt 1
  27:src/../h/my_console.h ****     putNewline();
 238              		.loc 2 27 14 is_stmt 0
 239 0180 17050000 		lla	a0,.LC3
 239      13050500 
 240 0188 97000000 		call	_Z9putStringPKc@plt
 240      E7800000 
 241              	.LVL25:
  28:src/../h/my_console.h **** 
 242              		.loc 2 28 5 is_stmt 1
  28:src/../h/my_console.h **** 
 243              		.loc 2 28 15 is_stmt 0
 244 0190 97000000 		call	_Z10putNewlinev@plt
 244      E7800000 
 245              	.LVL26:
 246              		.loc 2 30 5 is_stmt 1
 247              		.loc 2 30 15 is_stmt 0
 248 0198 97000000 		call	_Z10stopKernelv@plt
 248      E7800000 
 249              	.LVL27:
 250              	.L14:
 251              	.LBE14:
 252              	.LBE27:
 253              	.LBB28:
 254              	.LBB16:
  40:src/0_console.cpp **** 
 255              		.loc 1 40 9 is_stmt 1
 256 01a0 03B9847E 		ld	s2,2024(s1)
 257 01a4 1339793E 		sltiu	s2,s2,999
 258              	.LVL28:
GAS LISTING /tmp/ccaH0FgF.s 			page 8


 259              	.LBB17:
 260              	.LBB18:
  20:src/../h/my_console.h ****         return;
 261              		.loc 2 20 5
 262 01a8 63000904 		beqz	s2,.L16
  21:src/../h/my_console.h **** 
 263              		.loc 2 21 9
 264              	.LVL29:
 265              	.LBE18:
 266              	.LBE17:
  42:src/0_console.cpp ****         char c = *((char *) CONSOLE_TX_DATA); // ovde nista ne radim zapravo, samo retriev-ujem kar
 267              		.loc 1 42 9
  43:src/0_console.cpp **** 
 268              		.loc 1 43 9
  43:src/0_console.cpp **** 
 269              		.loc 1 43 18 is_stmt 0
 270 01ac 97070000 		la	a5,CONSOLE_TX_DATA
 270      83B70700 
 271 01b4 83B70700 		ld	a5,0(a5)
  43:src/0_console.cpp **** 
 272              		.loc 1 43 14
 273 01b8 83C60700 		lbu	a3,0(a5)
 274              	.LVL30:
  45:src/0_console.cpp **** 
 275              		.loc 1 45 9 is_stmt 1
  45:src/0_console.cpp **** 
 276              		.loc 1 45 19 is_stmt 0
 277 01bc 83B7047F 		ld	a5,2032(s1)
  45:src/0_console.cpp **** 
 278              		.loc 1 45 34
 279 01c0 3387F400 		add	a4,s1,a5
 280 01c4 2300D740 		sb	a3,1024(a4)
  47:src/0_console.cpp ****         getBufferItems++;
 281              		.loc 1 47 9 is_stmt 1
  47:src/0_console.cpp ****         getBufferItems++;
 282              		.loc 1 47 40 is_stmt 0
 283 01c8 93871700 		addi	a5,a5,1
  47:src/0_console.cpp ****         getBufferItems++;
 284              		.loc 1 47 45
 285 01cc 1307803E 		li	a4,1000
 286 01d0 B3F7E702 		remu	a5,a5,a4
  47:src/0_console.cpp ****         getBufferItems++;
 287              		.loc 1 47 23
 288 01d4 23B8F47E 		sd	a5,2032(s1)
  48:src/0_console.cpp ****     }
 289              		.loc 1 48 9 is_stmt 1
 290 01d8 83B7847E 		ld	a5,2024(s1)
  48:src/0_console.cpp ****     }
 291              		.loc 1 48 23 is_stmt 0
 292 01dc 93871700 		addi	a5,a5,1
 293 01e0 23B4F47E 		sd	a5,2024(s1)
 294              	.LBE16:
 295 01e4 6FF0DFED 		j	.L7
 296              	.LVL31:
 297              	.L16:
 298              	.LBB21:
 299              	.LBB20:
GAS LISTING /tmp/ccaH0FgF.s 			page 9


 300              	.LBB19:
  23:src/../h/my_console.h ****     putString(file);
 301              		.loc 2 23 5 is_stmt 1
  23:src/../h/my_console.h ****     putString(file);
 302              		.loc 2 23 14 is_stmt 0
 303 01e8 17050000 		lla	a0,.LC0
 303      13050500 
 304              	.LVL32:
 305 01f0 97000000 		call	_Z9putStringPKc@plt
 305      E7800000 
 306              	.LVL33:
  24:src/../h/my_console.h ****     putString("    line: ");
 307              		.loc 2 24 5 is_stmt 1
  24:src/../h/my_console.h ****     putString("    line: ");
 308              		.loc 2 24 14 is_stmt 0
 309 01f8 17050000 		lla	a0,.LC1
 309      13050500 
 310 0200 97000000 		call	_Z9putStringPKc@plt
 310      E7800000 
 311              	.LVL34:
  25:src/../h/my_console.h ****     putInt(line);
 312              		.loc 2 25 5 is_stmt 1
  25:src/../h/my_console.h ****     putInt(line);
 313              		.loc 2 25 14 is_stmt 0
 314 0208 17050000 		lla	a0,.LC2
 314      13050500 
 315 0210 97000000 		call	_Z9putStringPKc@plt
 315      E7800000 
 316              	.LVL35:
  26:src/../h/my_console.h ****     putString("   ===========================");
 317              		.loc 2 26 5 is_stmt 1
  26:src/../h/my_console.h ****     putString("   ===========================");
 318              		.loc 2 26 11 is_stmt 0
 319 0218 13058002 		li	a0,40
 320 021c 97000000 		call	_Z6putInti@plt
 320      E7800000 
 321              	.LVL36:
  27:src/../h/my_console.h ****     putNewline();
 322              		.loc 2 27 5 is_stmt 1
  27:src/../h/my_console.h ****     putNewline();
 323              		.loc 2 27 14 is_stmt 0
 324 0224 17050000 		lla	a0,.LC3
 324      13050500 
 325 022c 97000000 		call	_Z9putStringPKc@plt
 325      E7800000 
 326              	.LVL37:
  28:src/../h/my_console.h **** 
 327              		.loc 2 28 5 is_stmt 1
  28:src/../h/my_console.h **** 
 328              		.loc 2 28 15 is_stmt 0
 329 0234 97000000 		call	_Z10putNewlinev@plt
 329      E7800000 
 330              	.LVL38:
 331              		.loc 2 30 5 is_stmt 1
 332              		.loc 2 30 15 is_stmt 0
 333 023c 97000000 		call	_Z10stopKernelv@plt
 333      E7800000 
GAS LISTING /tmp/ccaH0FgF.s 			page 10


 334              	.LVL39:
 335              	.L15:
 336              	.LBE19:
 337              	.LBE20:
 338              	.LBE21:
 339              	.LBE28:
 340              	.LBB29:
 341              	.LBB24:
  23:src/../h/my_console.h ****     putString(file);
 342              		.loc 2 23 5 is_stmt 1
  23:src/../h/my_console.h ****     putString(file);
 343              		.loc 2 23 14 is_stmt 0
 344 0244 17050000 		lla	a0,.LC0
 344      13050500 
 345 024c 97000000 		call	_Z9putStringPKc@plt
 345      E7800000 
 346              	.LVL40:
  24:src/../h/my_console.h ****     putString("    line: ");
 347              		.loc 2 24 5 is_stmt 1
  24:src/../h/my_console.h ****     putString("    line: ");
 348              		.loc 2 24 14 is_stmt 0
 349 0254 17050000 		lla	a0,.LC1
 349      13050500 
 350 025c 97000000 		call	_Z9putStringPKc@plt
 350      E7800000 
 351              	.LVL41:
  25:src/../h/my_console.h ****     putInt(line);
 352              		.loc 2 25 5 is_stmt 1
  25:src/../h/my_console.h ****     putInt(line);
 353              		.loc 2 25 14 is_stmt 0
 354 0264 17050000 		lla	a0,.LC2
 354      13050500 
 355 026c 97000000 		call	_Z9putStringPKc@plt
 355      E7800000 
 356              	.LVL42:
  26:src/../h/my_console.h ****     putString("   ===========================");
 357              		.loc 2 26 5 is_stmt 1
  26:src/../h/my_console.h ****     putString("   ===========================");
 358              		.loc 2 26 11 is_stmt 0
 359 0274 13055003 		li	a0,53
 360 0278 97000000 		call	_Z6putInti@plt
 360      E7800000 
 361              	.LVL43:
  27:src/../h/my_console.h ****     putNewline();
 362              		.loc 2 27 5 is_stmt 1
  27:src/../h/my_console.h ****     putNewline();
 363              		.loc 2 27 14 is_stmt 0
 364 0280 17050000 		lla	a0,.LC3
 364      13050500 
 365 0288 97000000 		call	_Z9putStringPKc@plt
 365      E7800000 
 366              	.LVL44:
  28:src/../h/my_console.h **** 
 367              		.loc 2 28 5 is_stmt 1
  28:src/../h/my_console.h **** 
 368              		.loc 2 28 15 is_stmt 0
 369 0290 97000000 		call	_Z10putNewlinev@plt
GAS LISTING /tmp/ccaH0FgF.s 			page 11


 369      E7800000 
 370              	.LVL45:
 371              		.loc 2 30 5 is_stmt 1
 372              		.loc 2 30 15 is_stmt 0
 373 0298 97000000 		call	_Z10stopKernelv@plt
 373      E7800000 
 374              	.LVL46:
 375              	.LBE24:
 376              	.LBE29:
 377              		.cfi_endproc
 378              	.LFE6:
 380              		.align	2
 381              		.globl	_ZN8IConsole4putcEc
 383              	_ZN8IConsole4putcEc:
 384              	.LFB7:
  55:src/0_console.cpp **** 
  56:src/0_console.cpp **** void IConsole::putc(char c)
  57:src/0_console.cpp **** {
 385              		.loc 1 57 1 is_stmt 1
 386              		.cfi_startproc
 387              	.LVL47:
  58:src/0_console.cpp ****     assert(putBufferItems < BUFFER_SIZE);
 388              		.loc 1 58 5
 389 02a0 8337853F 		ld	a5,1016(a0)
 390 02a4 93B7873E 		sltiu	a5,a5,1000
 391              	.LVL48:
 392              	.LBB32:
 393              	.LBB33:
  20:src/../h/my_console.h ****         return;
 394              		.loc 2 20 5
 395 02a8 63880702 		beqz	a5,.L22
  21:src/../h/my_console.h **** 
 396              		.loc 2 21 9
 397              	.LVL49:
 398              	.LBE33:
 399              	.LBE32:
  59:src/0_console.cpp **** 
  60:src/0_console.cpp ****     putBuffer[putBufferHead] = c;
 400              		.loc 1 60 5
 401              		.loc 1 60 15 is_stmt 0
 402 02ac 83370500 		ld	a5,0(a0)
 403              		.loc 1 60 30
 404 02b0 3307F500 		add	a4,a0,a5
 405 02b4 2308B700 		sb	a1,16(a4)
  61:src/0_console.cpp **** 
  62:src/0_console.cpp ****     putBufferItems++;
 406              		.loc 1 62 5 is_stmt 1
 407 02b8 0337853F 		ld	a4,1016(a0)
 408              		.loc 1 62 19 is_stmt 0
 409 02bc 13071700 		addi	a4,a4,1
 410 02c0 233CE53E 		sd	a4,1016(a0)
  63:src/0_console.cpp ****     putBufferHead = (putBufferHead+1) % BUFFER_SIZE;
 411              		.loc 1 63 5 is_stmt 1
 412              		.loc 1 63 35 is_stmt 0
 413 02c4 93871700 		addi	a5,a5,1
 414              		.loc 1 63 39
 415 02c8 1307803E 		li	a4,1000
GAS LISTING /tmp/ccaH0FgF.s 			page 12


 416 02cc B3F7E702 		remu	a5,a5,a4
 417              		.loc 1 63 19
 418 02d0 2330F500 		sd	a5,0(a0)
 419 02d4 67800000 		ret
 420              	.LVL50:
 421              	.L22:
  57:src/0_console.cpp ****     assert(putBufferItems < BUFFER_SIZE);
 422              		.loc 1 57 1
 423 02d8 130101FF 		addi	sp,sp,-16
 424              		.cfi_def_cfa_offset 16
 425 02dc 23341100 		sd	ra,8(sp)
 426              	.LVL51:
 427 02e0 23308100 		sd	s0,0(sp)
 428              		.cfi_offset 1, -8
 429              		.cfi_offset 8, -16
 430 02e4 13040101 		addi	s0,sp,16
 431              		.cfi_def_cfa 8, 0
 432              	.LBB35:
 433              	.LBB34:
  23:src/../h/my_console.h ****     putString(file);
 434              		.loc 2 23 5 is_stmt 1
  23:src/../h/my_console.h ****     putString(file);
 435              		.loc 2 23 14 is_stmt 0
 436 02e8 17050000 		lla	a0,.LC0
 436      13050500 
 437              	.LVL52:
 438 02f0 97000000 		call	_Z9putStringPKc@plt
 438      E7800000 
 439              	.LVL53:
  24:src/../h/my_console.h ****     putString("    line: ");
 440              		.loc 2 24 5 is_stmt 1
  24:src/../h/my_console.h ****     putString("    line: ");
 441              		.loc 2 24 14 is_stmt 0
 442 02f8 17050000 		lla	a0,.LC1
 442      13050500 
 443 0300 97000000 		call	_Z9putStringPKc@plt
 443      E7800000 
 444              	.LVL54:
  25:src/../h/my_console.h ****     putInt(line);
 445              		.loc 2 25 5 is_stmt 1
  25:src/../h/my_console.h ****     putInt(line);
 446              		.loc 2 25 14 is_stmt 0
 447 0308 17050000 		lla	a0,.LC2
 447      13050500 
 448 0310 97000000 		call	_Z9putStringPKc@plt
 448      E7800000 
 449              	.LVL55:
  26:src/../h/my_console.h ****     putString("   ===========================");
 450              		.loc 2 26 5 is_stmt 1
  26:src/../h/my_console.h ****     putString("   ===========================");
 451              		.loc 2 26 11 is_stmt 0
 452 0318 1305A003 		li	a0,58
 453 031c 97000000 		call	_Z6putInti@plt
 453      E7800000 
 454              	.LVL56:
  27:src/../h/my_console.h ****     putNewline();
 455              		.loc 2 27 5 is_stmt 1
GAS LISTING /tmp/ccaH0FgF.s 			page 13


  27:src/../h/my_console.h ****     putNewline();
 456              		.loc 2 27 14 is_stmt 0
 457 0324 17050000 		lla	a0,.LC3
 457      13050500 
 458 032c 97000000 		call	_Z9putStringPKc@plt
 458      E7800000 
 459              	.LVL57:
  28:src/../h/my_console.h **** 
 460              		.loc 2 28 5 is_stmt 1
  28:src/../h/my_console.h **** 
 461              		.loc 2 28 15 is_stmt 0
 462 0334 97000000 		call	_Z10putNewlinev@plt
 462      E7800000 
 463              	.LVL58:
 464              		.loc 2 30 5 is_stmt 1
 465              		.loc 2 30 15 is_stmt 0
 466 033c 97000000 		call	_Z10stopKernelv@plt
 466      E7800000 
 467              	.LVL59:
 468              	.LBE34:
 469              	.LBE35:
 470              		.cfi_endproc
 471              	.LFE7:
 473              		.align	2
 474              		.globl	_ZN8IConsole4getcEv
 476              	_ZN8IConsole4getcEv:
 477              	.LFB8:
  64:src/0_console.cpp **** }
  65:src/0_console.cpp **** 
  66:src/0_console.cpp **** char IConsole::getc()
  67:src/0_console.cpp **** {
 478              		.loc 1 67 1 is_stmt 1
 479              		.cfi_startproc
 480              	.LVL60:
 481 0344 130101FE 		addi	sp,sp,-32
 482              		.cfi_def_cfa_offset 32
 483 0348 233C1100 		sd	ra,24(sp)
 484 034c 23388100 		sd	s0,16(sp)
 485 0350 23349100 		sd	s1,8(sp)
 486 0354 23302101 		sd	s2,0(sp)
 487              		.cfi_offset 1, -8
 488              		.cfi_offset 8, -16
 489              		.cfi_offset 9, -24
 490              		.cfi_offset 18, -32
 491 0358 13040102 		addi	s0,sp,32
 492              		.cfi_def_cfa 8, 0
 493 035c 93040500 		mv	s1,a0
  68:src/0_console.cpp **** //    while(getBufferItems < 0)
  69:src/0_console.cpp **** //    assert(getBufferItems > 0);
  70:src/0_console.cpp **** 
  71:src/0_console.cpp ****     disableExternalInterrupts(); // TODO: remove after making this a sys call
 494              		.loc 1 71 5
 495              		.loc 1 71 30 is_stmt 0
 496 0360 97000000 		call	_Z25disableExternalInterruptsv@plt
 496      E7800000 
 497              	.LVL61:
 498              	.L24:
GAS LISTING /tmp/ccaH0FgF.s 			page 14


  72:src/0_console.cpp ****     char ret;
 499              		.loc 1 72 5 is_stmt 1
  73:src/0_console.cpp **** 
  74:src/0_console.cpp ****     while(getBufferItems == 0)
 500              		.loc 1 74 5
 501              		.loc 1 74 26
 502              		.loc 1 74 11 is_stmt 0
 503 0368 83B7847E 		ld	a5,2024(s1)
 504              		.loc 1 74 26
 505 036c E38E07FE 		beqz	a5,.L24
  75:src/0_console.cpp ****     { }
  76:src/0_console.cpp **** 
  77:src/0_console.cpp ****     ret = getBuffer[getBufferTail];
 506              		.loc 1 77 5 is_stmt 1
 507              		.loc 1 77 21 is_stmt 0
 508 0370 03B7847F 		ld	a4,2040(s1)
 509              		.loc 1 77 9
 510 0374 B386E400 		add	a3,s1,a4
 511 0378 03C90640 		lbu	s2,1024(a3)
 512              	.LVL62:
  78:src/0_console.cpp **** 
  79:src/0_console.cpp ****     getBufferItems--;
 513              		.loc 1 79 5 is_stmt 1
 514              		.loc 1 79 19 is_stmt 0
 515 037c 9387F7FF 		addi	a5,a5,-1
 516 0380 23B4F47E 		sd	a5,2024(s1)
  80:src/0_console.cpp ****     getBufferTail = (getBufferTail + 1) % BUFFER_SIZE;
 517              		.loc 1 80 5 is_stmt 1
 518              		.loc 1 80 36 is_stmt 0
 519 0384 13071700 		addi	a4,a4,1
 520              		.loc 1 80 41
 521 0388 9307803E 		li	a5,1000
 522 038c 3377F702 		remu	a4,a4,a5
 523              		.loc 1 80 19
 524 0390 23BCE47E 		sd	a4,2040(s1)
  81:src/0_console.cpp **** 
  82:src/0_console.cpp ****     enableExternalInterrupts(); // TODO: remove this after making this a sys call
 525              		.loc 1 82 5 is_stmt 1
 526              		.loc 1 82 29 is_stmt 0
 527 0394 97000000 		call	_Z24enableExternalInterruptsv@plt
 527      E7800000 
 528              	.LVL63:
  83:src/0_console.cpp ****     return ret;
 529              		.loc 1 83 5 is_stmt 1
  84:src/0_console.cpp **** }
 530              		.loc 1 84 1 is_stmt 0
 531 039c 13050900 		mv	a0,s2
 532 03a0 83308101 		ld	ra,24(sp)
 533              		.cfi_restore 1
 534 03a4 03340101 		ld	s0,16(sp)
 535              		.cfi_restore 8
 536              		.cfi_def_cfa 2, 32
 537 03a8 83348100 		ld	s1,8(sp)
 538              		.cfi_restore 9
 539              	.LVL64:
 540 03ac 03390100 		ld	s2,0(sp)
 541              		.cfi_restore 18
GAS LISTING /tmp/ccaH0FgF.s 			page 15


 542              	.LVL65:
 543 03b0 13010102 		addi	sp,sp,32
 544              		.cfi_def_cfa_offset 0
 545 03b4 67800000 		jr	ra
 546              		.cfi_endproc
 547              	.LFE8:
 549              	.Letext0:
 550              		.file 3 "src/../h/../lib/hw.h"
 551              		.file 4 "src/../h/0_console.h"
 552              		.file 5 "src/../h/../h/risc.h"
GAS LISTING /tmp/ccaH0FgF.s 			page 16


DEFINED SYMBOLS
                            *ABS*:0000000000000000 0_console.cpp
     /tmp/ccaH0FgF.s:9      .text:0000000000000000 _ZN8IConsole14writeToConsoleEv
     /tmp/ccaH0FgF.s:13     .text:0000000000000000 .L0 
     /tmp/ccaH0FgF.s:15     .text:0000000000000000 .L0 
     /tmp/ccaH0FgF.s:16     .text:0000000000000004 .L0 
     /tmp/ccaH0FgF.s:18     .text:0000000000000008 .L0 
     /tmp/ccaH0FgF.s:20     .text:000000000000000c .L0 
     /tmp/ccaH0FgF.s:22     .text:000000000000000c .L0 
     /tmp/ccaH0FgF.s:23     .text:000000000000000c .L0 
     /tmp/ccaH0FgF.s:27     .text:000000000000001c .L0 
     /tmp/ccaH0FgF.s:30     .text:0000000000000024 .L0 
     /tmp/ccaH0FgF.s:31     .text:0000000000000024 .L0 
     /tmp/ccaH0FgF.s:33     .text:0000000000000028 .L0 
     /tmp/ccaH0FgF.s:35     .text:000000000000002c .L0 
     /tmp/ccaH0FgF.s:36     .text:000000000000002c .L0 
     /tmp/ccaH0FgF.s:38     .text:0000000000000030 .L0 
     /tmp/ccaH0FgF.s:41     .text:000000000000003c .L0 
     /tmp/ccaH0FgF.s:44     .text:0000000000000044 .L0 
     /tmp/ccaH0FgF.s:46     .text:0000000000000048 .L0 
     /tmp/ccaH0FgF.s:48     .text:000000000000004c .L0 
     /tmp/ccaH0FgF.s:51     .text:0000000000000054 .L0 
     /tmp/ccaH0FgF.s:52     .text:0000000000000054 .L0 
     /tmp/ccaH0FgF.s:54     .text:0000000000000058 .L0 
     /tmp/ccaH0FgF.s:56     .text:000000000000005c .L0 
     /tmp/ccaH0FgF.s:59     .text:0000000000000064 .L0 
     /tmp/ccaH0FgF.s:62     .text:0000000000000068 .L0 
     /tmp/ccaH0FgF.s:63     .text:000000000000006c .L0 
     /tmp/ccaH0FgF.s:64     .text:000000000000006c .L0 
     /tmp/ccaH0FgF.s:66     .text:0000000000000070 .L0 
     /tmp/ccaH0FgF.s:68     .text:0000000000000074 .L0 
     /tmp/ccaH0FgF.s:88     .text:0000000000000074 _ZN8IConsole14consoleHandlerEv
     /tmp/ccaH0FgF.s:91     .text:0000000000000074 .L0 
     /tmp/ccaH0FgF.s:93     .text:0000000000000074 .L0 
     /tmp/ccaH0FgF.s:94     .text:0000000000000078 .L0 
     /tmp/ccaH0FgF.s:99     .text:0000000000000088 .L0 
     /tmp/ccaH0FgF.s:100    .text:0000000000000088 .L0 
     /tmp/ccaH0FgF.s:101    .text:0000000000000088 .L0 
     /tmp/ccaH0FgF.s:102    .text:0000000000000088 .L0 
     /tmp/ccaH0FgF.s:104    .text:000000000000008c .L0 
     /tmp/ccaH0FgF.s:108    .text:0000000000000090 .L0 
     /tmp/ccaH0FgF.s:109    .text:0000000000000090 .L0 
     /tmp/ccaH0FgF.s:110    .text:0000000000000090 .L0 
     /tmp/ccaH0FgF.s:111    .text:0000000000000090 .L0 
     /tmp/ccaH0FgF.s:114    .text:0000000000000098 .L0 
     /tmp/ccaH0FgF.s:116    .text:000000000000009c .L0 
     /tmp/ccaH0FgF.s:122    .text:00000000000000a0 .L0 
     /tmp/ccaH0FgF.s:127    .text:00000000000000a4 .L0 
     /tmp/ccaH0FgF.s:129    .text:00000000000000a4 .L0 
     /tmp/ccaH0FgF.s:130    .text:00000000000000a4 .L0 
     /tmp/ccaH0FgF.s:134    .text:00000000000000b4 .L0 
     /tmp/ccaH0FgF.s:138    .text:00000000000000bc .L0 
     /tmp/ccaH0FgF.s:142    .text:00000000000000c0 .L0 
     /tmp/ccaH0FgF.s:143    .text:00000000000000c0 .L0 
     /tmp/ccaH0FgF.s:150    .text:00000000000000cc .L0 
     /tmp/ccaH0FgF.s:151    .text:00000000000000cc .L0 
     /tmp/ccaH0FgF.s:155    .text:00000000000000d0 .L0 
GAS LISTING /tmp/ccaH0FgF.s 			page 17


     /tmp/ccaH0FgF.s:156    .text:00000000000000d4 .L0 
     /tmp/ccaH0FgF.s:157    .text:00000000000000d4 .L0 
     /tmp/ccaH0FgF.s:159    .text:00000000000000d8 .L0 
     /tmp/ccaH0FgF.s:160    .text:00000000000000d8 .L0 
     /tmp/ccaH0FgF.s:162    .text:00000000000000dc .L0 
     /tmp/ccaH0FgF.s:165    .text:00000000000000e0 .L0 
     /tmp/ccaH0FgF.s:168    .text:00000000000000e4 .L0 
     /tmp/ccaH0FgF.s:172    .text:00000000000000e8 .L0 
     /tmp/ccaH0FgF.s:176    .text:00000000000000e8 .L0 
     /tmp/ccaH0FgF.s:177    .text:00000000000000e8 .L0 
     /tmp/ccaH0FgF.s:178    .text:00000000000000e8 .L0 
     /tmp/ccaH0FgF.s:179    .text:00000000000000e8 .L0 
     /tmp/ccaH0FgF.s:184    .text:00000000000000f8 .L0 
     /tmp/ccaH0FgF.s:185    .text:00000000000000f8 .L0 
     /tmp/ccaH0FgF.s:189    .text:0000000000000108 .L0 
     /tmp/ccaH0FgF.s:190    .text:0000000000000108 .L0 
     /tmp/ccaH0FgF.s:194    .text:0000000000000118 .L0 
     /tmp/ccaH0FgF.s:195    .text:0000000000000118 .L0 
     /tmp/ccaH0FgF.s:199    .text:0000000000000124 .L0 
     /tmp/ccaH0FgF.s:200    .text:0000000000000124 .L0 
     /tmp/ccaH0FgF.s:204    .text:0000000000000134 .L0 
     /tmp/ccaH0FgF.s:205    .text:0000000000000134 .L0 
     /tmp/ccaH0FgF.s:208    .text:000000000000013c .L0 
     /tmp/ccaH0FgF.s:209    .text:000000000000013c .L0 
     /tmp/ccaH0FgF.s:217    .text:0000000000000144 .L0 
     /tmp/ccaH0FgF.s:218    .text:0000000000000144 .L0 
     /tmp/ccaH0FgF.s:223    .text:0000000000000154 .L0 
     /tmp/ccaH0FgF.s:224    .text:0000000000000154 .L0 
     /tmp/ccaH0FgF.s:228    .text:0000000000000164 .L0 
     /tmp/ccaH0FgF.s:229    .text:0000000000000164 .L0 
     /tmp/ccaH0FgF.s:233    .text:0000000000000174 .L0 
     /tmp/ccaH0FgF.s:234    .text:0000000000000174 .L0 
     /tmp/ccaH0FgF.s:238    .text:0000000000000180 .L0 
     /tmp/ccaH0FgF.s:239    .text:0000000000000180 .L0 
     /tmp/ccaH0FgF.s:243    .text:0000000000000190 .L0 
     /tmp/ccaH0FgF.s:244    .text:0000000000000190 .L0 
     /tmp/ccaH0FgF.s:247    .text:0000000000000198 .L0 
     /tmp/ccaH0FgF.s:248    .text:0000000000000198 .L0 
     /tmp/ccaH0FgF.s:256    .text:00000000000001a0 .L0 
     /tmp/ccaH0FgF.s:262    .text:00000000000001a8 .L0 
     /tmp/ccaH0FgF.s:267    .text:00000000000001ac .L0 
     /tmp/ccaH0FgF.s:268    .text:00000000000001ac .L0 
     /tmp/ccaH0FgF.s:269    .text:00000000000001ac .L0 
     /tmp/ccaH0FgF.s:270    .text:00000000000001ac .L0 
     /tmp/ccaH0FgF.s:273    .text:00000000000001b8 .L0 
     /tmp/ccaH0FgF.s:276    .text:00000000000001bc .L0 
     /tmp/ccaH0FgF.s:277    .text:00000000000001bc .L0 
     /tmp/ccaH0FgF.s:279    .text:00000000000001c0 .L0 
     /tmp/ccaH0FgF.s:282    .text:00000000000001c8 .L0 
     /tmp/ccaH0FgF.s:283    .text:00000000000001c8 .L0 
     /tmp/ccaH0FgF.s:285    .text:00000000000001cc .L0 
     /tmp/ccaH0FgF.s:288    .text:00000000000001d4 .L0 
     /tmp/ccaH0FgF.s:290    .text:00000000000001d8 .L0 
     /tmp/ccaH0FgF.s:292    .text:00000000000001dc .L0 
     /tmp/ccaH0FgF.s:302    .text:00000000000001e8 .L0 
     /tmp/ccaH0FgF.s:303    .text:00000000000001e8 .L0 
     /tmp/ccaH0FgF.s:308    .text:00000000000001f8 .L0 
GAS LISTING /tmp/ccaH0FgF.s 			page 18


     /tmp/ccaH0FgF.s:309    .text:00000000000001f8 .L0 
     /tmp/ccaH0FgF.s:313    .text:0000000000000208 .L0 
     /tmp/ccaH0FgF.s:314    .text:0000000000000208 .L0 
     /tmp/ccaH0FgF.s:318    .text:0000000000000218 .L0 
     /tmp/ccaH0FgF.s:319    .text:0000000000000218 .L0 
     /tmp/ccaH0FgF.s:323    .text:0000000000000224 .L0 
     /tmp/ccaH0FgF.s:324    .text:0000000000000224 .L0 
     /tmp/ccaH0FgF.s:328    .text:0000000000000234 .L0 
     /tmp/ccaH0FgF.s:329    .text:0000000000000234 .L0 
     /tmp/ccaH0FgF.s:332    .text:000000000000023c .L0 
     /tmp/ccaH0FgF.s:333    .text:000000000000023c .L0 
     /tmp/ccaH0FgF.s:343    .text:0000000000000244 .L0 
     /tmp/ccaH0FgF.s:344    .text:0000000000000244 .L0 
     /tmp/ccaH0FgF.s:348    .text:0000000000000254 .L0 
     /tmp/ccaH0FgF.s:349    .text:0000000000000254 .L0 
     /tmp/ccaH0FgF.s:353    .text:0000000000000264 .L0 
     /tmp/ccaH0FgF.s:354    .text:0000000000000264 .L0 
     /tmp/ccaH0FgF.s:358    .text:0000000000000274 .L0 
     /tmp/ccaH0FgF.s:359    .text:0000000000000274 .L0 
     /tmp/ccaH0FgF.s:363    .text:0000000000000280 .L0 
     /tmp/ccaH0FgF.s:364    .text:0000000000000280 .L0 
     /tmp/ccaH0FgF.s:368    .text:0000000000000290 .L0 
     /tmp/ccaH0FgF.s:369    .text:0000000000000290 .L0 
     /tmp/ccaH0FgF.s:372    .text:0000000000000298 .L0 
     /tmp/ccaH0FgF.s:373    .text:0000000000000298 .L0 
     /tmp/ccaH0FgF.s:377    .text:00000000000002a0 .L0 
     /tmp/ccaH0FgF.s:383    .text:00000000000002a0 _ZN8IConsole4putcEc
     /tmp/ccaH0FgF.s:386    .text:00000000000002a0 .L0 
     /tmp/ccaH0FgF.s:388    .text:00000000000002a0 .L0 
     /tmp/ccaH0FgF.s:389    .text:00000000000002a0 .L0 
     /tmp/ccaH0FgF.s:395    .text:00000000000002a8 .L0 
     /tmp/ccaH0FgF.s:400    .text:00000000000002ac .L0 
     /tmp/ccaH0FgF.s:401    .text:00000000000002ac .L0 
     /tmp/ccaH0FgF.s:402    .text:00000000000002ac .L0 
     /tmp/ccaH0FgF.s:404    .text:00000000000002b0 .L0 
     /tmp/ccaH0FgF.s:407    .text:00000000000002b8 .L0 
     /tmp/ccaH0FgF.s:409    .text:00000000000002bc .L0 
     /tmp/ccaH0FgF.s:412    .text:00000000000002c4 .L0 
     /tmp/ccaH0FgF.s:413    .text:00000000000002c4 .L0 
     /tmp/ccaH0FgF.s:415    .text:00000000000002c8 .L0 
     /tmp/ccaH0FgF.s:418    .text:00000000000002d0 .L0 
     /tmp/ccaH0FgF.s:423    .text:00000000000002d8 .L0 
     /tmp/ccaH0FgF.s:424    .text:00000000000002dc .L0 
     /tmp/ccaH0FgF.s:428    .text:00000000000002e4 .L0 
     /tmp/ccaH0FgF.s:429    .text:00000000000002e4 .L0 
     /tmp/ccaH0FgF.s:431    .text:00000000000002e8 .L0 
     /tmp/ccaH0FgF.s:435    .text:00000000000002e8 .L0 
     /tmp/ccaH0FgF.s:436    .text:00000000000002e8 .L0 
     /tmp/ccaH0FgF.s:441    .text:00000000000002f8 .L0 
     /tmp/ccaH0FgF.s:442    .text:00000000000002f8 .L0 
     /tmp/ccaH0FgF.s:446    .text:0000000000000308 .L0 
     /tmp/ccaH0FgF.s:447    .text:0000000000000308 .L0 
     /tmp/ccaH0FgF.s:451    .text:0000000000000318 .L0 
     /tmp/ccaH0FgF.s:452    .text:0000000000000318 .L0 
     /tmp/ccaH0FgF.s:456    .text:0000000000000324 .L0 
     /tmp/ccaH0FgF.s:457    .text:0000000000000324 .L0 
     /tmp/ccaH0FgF.s:461    .text:0000000000000334 .L0 
GAS LISTING /tmp/ccaH0FgF.s 			page 19


     /tmp/ccaH0FgF.s:462    .text:0000000000000334 .L0 
     /tmp/ccaH0FgF.s:465    .text:000000000000033c .L0 
     /tmp/ccaH0FgF.s:466    .text:000000000000033c .L0 
     /tmp/ccaH0FgF.s:470    .text:0000000000000344 .L0 
     /tmp/ccaH0FgF.s:476    .text:0000000000000344 _ZN8IConsole4getcEv
     /tmp/ccaH0FgF.s:479    .text:0000000000000344 .L0 
     /tmp/ccaH0FgF.s:481    .text:0000000000000344 .L0 
     /tmp/ccaH0FgF.s:482    .text:0000000000000348 .L0 
     /tmp/ccaH0FgF.s:487    .text:0000000000000358 .L0 
     /tmp/ccaH0FgF.s:488    .text:0000000000000358 .L0 
     /tmp/ccaH0FgF.s:489    .text:0000000000000358 .L0 
     /tmp/ccaH0FgF.s:490    .text:0000000000000358 .L0 
     /tmp/ccaH0FgF.s:492    .text:000000000000035c .L0 
     /tmp/ccaH0FgF.s:495    .text:0000000000000360 .L0 
     /tmp/ccaH0FgF.s:496    .text:0000000000000360 .L0 
     /tmp/ccaH0FgF.s:500    .text:0000000000000368 .L0 
     /tmp/ccaH0FgF.s:501    .text:0000000000000368 .L0 
     /tmp/ccaH0FgF.s:502    .text:0000000000000368 .L0 
     /tmp/ccaH0FgF.s:503    .text:0000000000000368 .L0 
     /tmp/ccaH0FgF.s:505    .text:000000000000036c .L0 
     /tmp/ccaH0FgF.s:507    .text:0000000000000370 .L0 
     /tmp/ccaH0FgF.s:508    .text:0000000000000370 .L0 
     /tmp/ccaH0FgF.s:510    .text:0000000000000374 .L0 
     /tmp/ccaH0FgF.s:514    .text:000000000000037c .L0 
     /tmp/ccaH0FgF.s:515    .text:000000000000037c .L0 
     /tmp/ccaH0FgF.s:518    .text:0000000000000384 .L0 
     /tmp/ccaH0FgF.s:519    .text:0000000000000384 .L0 
     /tmp/ccaH0FgF.s:521    .text:0000000000000388 .L0 
     /tmp/ccaH0FgF.s:524    .text:0000000000000390 .L0 
     /tmp/ccaH0FgF.s:526    .text:0000000000000394 .L0 
     /tmp/ccaH0FgF.s:527    .text:0000000000000394 .L0 
     /tmp/ccaH0FgF.s:530    .text:000000000000039c .L0 
     /tmp/ccaH0FgF.s:531    .text:000000000000039c .L0 
     /tmp/ccaH0FgF.s:533    .text:00000000000003a4 .L0 
     /tmp/ccaH0FgF.s:535    .text:00000000000003a8 .L0 
     /tmp/ccaH0FgF.s:536    .text:00000000000003a8 .L0 
     /tmp/ccaH0FgF.s:538    .text:00000000000003ac .L0 
     /tmp/ccaH0FgF.s:541    .text:00000000000003b0 .L0 
     /tmp/ccaH0FgF.s:544    .text:00000000000003b4 .L0 
     /tmp/ccaH0FgF.s:546    .text:00000000000003b8 .L0 
     /tmp/ccaH0FgF.s:553    .text:00000000000003b8 .L0 
     /tmp/ccaH0FgF.s:23     .text:000000000000000c .L0 
     /tmp/ccaH0FgF.s:38     .text:0000000000000030 .L0 
     /tmp/ccaH0FgF.s:130    .text:00000000000000a4 .L0 
     /tmp/ccaH0FgF.s:73     .rodata.str1.8:0000000000000000 .LC0
     /tmp/ccaH0FgF.s:179    .text:00000000000000e8 .L0 
     /tmp/ccaH0FgF.s:76     .rodata.str1.8:0000000000000028 .LC1
     /tmp/ccaH0FgF.s:185    .text:00000000000000f8 .L0 
     /tmp/ccaH0FgF.s:79     .rodata.str1.8:0000000000000040 .LC2
     /tmp/ccaH0FgF.s:190    .text:0000000000000108 .L0 
     /tmp/ccaH0FgF.s:82     .rodata.str1.8:0000000000000050 .LC3
     /tmp/ccaH0FgF.s:200    .text:0000000000000124 .L0 
     /tmp/ccaH0FgF.s:218    .text:0000000000000144 .L0 
     /tmp/ccaH0FgF.s:224    .text:0000000000000154 .L0 
     /tmp/ccaH0FgF.s:229    .text:0000000000000164 .L0 
     /tmp/ccaH0FgF.s:239    .text:0000000000000180 .L0 
     /tmp/ccaH0FgF.s:270    .text:00000000000001ac .L0 
GAS LISTING /tmp/ccaH0FgF.s 			page 20


     /tmp/ccaH0FgF.s:303    .text:00000000000001e8 .L0 
     /tmp/ccaH0FgF.s:309    .text:00000000000001f8 .L0 
     /tmp/ccaH0FgF.s:314    .text:0000000000000208 .L0 
     /tmp/ccaH0FgF.s:324    .text:0000000000000224 .L0 
     /tmp/ccaH0FgF.s:344    .text:0000000000000244 .L0 
     /tmp/ccaH0FgF.s:349    .text:0000000000000254 .L0 
     /tmp/ccaH0FgF.s:354    .text:0000000000000264 .L0 
     /tmp/ccaH0FgF.s:364    .text:0000000000000280 .L0 
     /tmp/ccaH0FgF.s:436    .text:00000000000002e8 .L0 
     /tmp/ccaH0FgF.s:442    .text:00000000000002f8 .L0 
     /tmp/ccaH0FgF.s:447    .text:0000000000000308 .L0 
     /tmp/ccaH0FgF.s:457    .text:0000000000000324 .L0 
     /tmp/ccaH0FgF.s:60     .text:0000000000000068 .L1
     /tmp/ccaH0FgF.s:171    .text:00000000000000e8 .L12
     /tmp/ccaH0FgF.s:211    .text:0000000000000144 .L13
     /tmp/ccaH0FgF.s:250    .text:00000000000001a0 .L14
     /tmp/ccaH0FgF.s:335    .text:0000000000000244 .L15
     /tmp/ccaH0FgF.s:297    .text:00000000000001e8 .L16
     /tmp/ccaH0FgF.s:140    .text:00000000000000c0 .L7
     /tmp/ccaH0FgF.s:421    .text:00000000000002d8 .L22
     /tmp/ccaH0FgF.s:498    .text:0000000000000368 .L24
     /tmp/ccaH0FgF.s:1443   .debug_abbrev:0000000000000000 .Ldebug_abbrev0
     /tmp/ccaH0FgF.s:2508   .debug_str:00000000000001f0 .LASF57
     /tmp/ccaH0FgF.s:2524   .debug_str:0000000000000319 .LASF58
     /tmp/ccaH0FgF.s:2448   .debug_str:000000000000002e .LASF59
     /tmp/ccaH0FgF.s:5      .text:0000000000000000 .Ltext0
     /tmp/ccaH0FgF.s:549    .text:00000000000003b8 .Letext0
     /tmp/ccaH0FgF.s:2440   .debug_line:0000000000000000 .Ldebug_line0
     /tmp/ccaH0FgF.s:2514   .debug_str:00000000000002e1 .LASF0
     /tmp/ccaH0FgF.s:2492   .debug_str:0000000000000167 .LASF1
     /tmp/ccaH0FgF.s:2482   .debug_str:0000000000000127 .LASF2
     /tmp/ccaH0FgF.s:2452   .debug_str:0000000000000050 .LASF4
     /tmp/ccaH0FgF.s:2490   .debug_str:0000000000000155 .LASF3
     /tmp/ccaH0FgF.s:2446   .debug_str:0000000000000027 .LASF5
     /tmp/ccaH0FgF.s:2442   .debug_str:0000000000000000 .LASF6
     /tmp/ccaH0FgF.s:2470   .debug_str:00000000000000b8 .LASF7
     /tmp/ccaH0FgF.s:2522   .debug_str:0000000000000309 .LASF8
     /tmp/ccaH0FgF.s:2450   .debug_str:0000000000000042 .LASF9
     /tmp/ccaH0FgF.s:2566   .debug_str:000000000000043f .LASF10
     /tmp/ccaH0FgF.s:2476   .debug_str:00000000000000f3 .LASF11
     /tmp/ccaH0FgF.s:2556   .debug_str:00000000000003f4 .LASF12
     /tmp/ccaH0FgF.s:2532   .debug_str:0000000000000361 .LASF13
     /tmp/ccaH0FgF.s:2494   .debug_str:000000000000017a .LASF14
     /tmp/ccaH0FgF.s:2460   .debug_str:0000000000000075 .LASF15
     /tmp/ccaH0FgF.s:2526   .debug_str:000000000000032b .LASF16
     /tmp/ccaH0FgF.s:2474   .debug_str:00000000000000ea .LASF36
     /tmp/ccaH0FgF.s:2500   .debug_str:00000000000001b0 .LASF60
     /tmp/ccaH0FgF.s:2560   .debug_str:000000000000041d .LASF25
     /tmp/ccaH0FgF.s:2510   .debug_str:00000000000002b4 .LASF27
     /tmp/ccaH0FgF.s:2512   .debug_str:00000000000002d3 .LASF17
     /tmp/ccaH0FgF.s:2564   .debug_str:0000000000000431 .LASF18
     /tmp/ccaH0FgF.s:2458   .debug_str:000000000000006b .LASF19
     /tmp/ccaH0FgF.s:2454   .debug_str:0000000000000057 .LASF20
     /tmp/ccaH0FgF.s:2506   .debug_str:00000000000001e6 .LASF21
     /tmp/ccaH0FgF.s:2502   .debug_str:00000000000001c3 .LASF22
     /tmp/ccaH0FgF.s:2462   .debug_str:000000000000008b .LASF23
     /tmp/ccaH0FgF.s:2552   .debug_str:00000000000003db .LASF24
GAS LISTING /tmp/ccaH0FgF.s 			page 21


     /tmp/ccaH0FgF.s:2542   .debug_str:0000000000000396 .LASF26
     /tmp/ccaH0FgF.s:2444   .debug_str:0000000000000013 .LASF28
     /tmp/ccaH0FgF.s:2484   .debug_str:0000000000000135 .LASF61
     /tmp/ccaH0FgF.s:2504   .debug_str:00000000000001d2 .LASF62
     /tmp/ccaH0FgF.s:2534   .debug_str:0000000000000371 .LASF29
     /tmp/ccaH0FgF.s:2496   .debug_str:0000000000000186 .LASF30
     /tmp/ccaH0FgF.s:2520   .debug_str:00000000000002f8 .LASF38
     /tmp/ccaH0FgF.s:2516   .debug_str:00000000000002ee .LASF31
     /tmp/ccaH0FgF.s:477    .text:0000000000000344 .LFB8
     /tmp/ccaH0FgF.s:547    .text:00000000000003b8 .LFE8
     /tmp/ccaH0FgF.s:2562   .debug_str:000000000000042c .LASF32
     /tmp/ccaH0FgF.s:2030   .debug_loc:0000000000000000 .LLST21
     /tmp/ccaH0FgF.s:2048   .debug_loc:000000000000004c .LLST22
     /tmp/ccaH0FgF.s:497    .text:0000000000000368 .LVL61
     /tmp/ccaH0FgF.s:528    .text:000000000000039c .LVL63
     /tmp/ccaH0FgF.s:384    .text:00000000000002a0 .LFB7
     /tmp/ccaH0FgF.s:471    .text:0000000000000344 .LFE7
     /tmp/ccaH0FgF.s:2059   .debug_loc:0000000000000082 .LLST16
     /tmp/ccaH0FgF.s:2073   .debug_loc:00000000000000bb .LLST17
     /tmp/ccaH0FgF.s:392    .text:00000000000002a8 .LBB32
     /tmp/ccaH0FgF.s:2408   .debug_ranges:0000000000000000 .Ldebug_ranges0
     /tmp/ccaH0FgF.s:2087   .debug_loc:00000000000000f4 .LLST18
     /tmp/ccaH0FgF.s:2102   .debug_loc:000000000000012e .LLST19
     /tmp/ccaH0FgF.s:2117   .debug_loc:0000000000000176 .LLST20
     /tmp/ccaH0FgF.s:439    .text:00000000000002f8 .LVL53
     /tmp/ccaH0FgF.s:444    .text:0000000000000308 .LVL54
     /tmp/ccaH0FgF.s:449    .text:0000000000000318 .LVL55
     /tmp/ccaH0FgF.s:454    .text:0000000000000324 .LVL56
     /tmp/ccaH0FgF.s:459    .text:0000000000000334 .LVL57
     /tmp/ccaH0FgF.s:463    .text:000000000000033c .LVL58
     /tmp/ccaH0FgF.s:467    .text:0000000000000344 .LVL59
     /tmp/ccaH0FgF.s:89     .text:0000000000000074 .LFB6
     /tmp/ccaH0FgF.s:378    .text:00000000000002a0 .LFE6
     /tmp/ccaH0FgF.s:2144   .debug_loc:00000000000001e2 .LLST0
     /tmp/ccaH0FgF.s:2498   .debug_str:00000000000001a5 .LASF33
     /tmp/ccaH0FgF.s:2544   .debug_str:000000000000039b .LASF34
     /tmp/ccaH0FgF.s:2166   .debug_loc:0000000000000241 .LLST1
     /tmp/ccaH0FgF.s:2197   .debug_loc:00000000000002c7 .LLST2
     /tmp/ccaH0FgF.s:2216   .debug_loc:0000000000000323 .LLST6
     /tmp/ccaH0FgF.s:259    .text:00000000000001a8 .LBB17
     /tmp/ccaH0FgF.s:2223   .debug_loc:0000000000000346 .LLST7
     /tmp/ccaH0FgF.s:2238   .debug_loc:0000000000000380 .LLST8
     /tmp/ccaH0FgF.s:2253   .debug_loc:00000000000003c8 .LLST9
     /tmp/ccaH0FgF.s:306    .text:00000000000001f8 .LVL33
     /tmp/ccaH0FgF.s:311    .text:0000000000000208 .LVL34
     /tmp/ccaH0FgF.s:316    .text:0000000000000218 .LVL35
     /tmp/ccaH0FgF.s:321    .text:0000000000000224 .LVL36
     /tmp/ccaH0FgF.s:326    .text:0000000000000234 .LVL37
     /tmp/ccaH0FgF.s:330    .text:000000000000023c .LVL38
     /tmp/ccaH0FgF.s:334    .text:0000000000000244 .LVL39
     /tmp/ccaH0FgF.s:118    .text:00000000000000a0 .LBB12
     /tmp/ccaH0FgF.s:2280   .debug_loc:0000000000000434 .LLST3
     /tmp/ccaH0FgF.s:2295   .debug_loc:000000000000046e .LLST4
     /tmp/ccaH0FgF.s:2310   .debug_loc:00000000000004b6 .LLST5
     /tmp/ccaH0FgF.s:221    .text:0000000000000154 .LVL21
     /tmp/ccaH0FgF.s:226    .text:0000000000000164 .LVL22
     /tmp/ccaH0FgF.s:231    .text:0000000000000174 .LVL23
GAS LISTING /tmp/ccaH0FgF.s 			page 22


     /tmp/ccaH0FgF.s:236    .text:0000000000000180 .LVL24
     /tmp/ccaH0FgF.s:241    .text:0000000000000190 .LVL25
     /tmp/ccaH0FgF.s:245    .text:0000000000000198 .LVL26
     /tmp/ccaH0FgF.s:249    .text:00000000000001a0 .LVL27
     /tmp/ccaH0FgF.s:148    .text:00000000000000cc .LBB22
     /tmp/ccaH0FgF.s:2329   .debug_loc:00000000000004f4 .LLST10
     /tmp/ccaH0FgF.s:2344   .debug_loc:000000000000052e .LLST11
     /tmp/ccaH0FgF.s:2359   .debug_loc:0000000000000576 .LLST12
     /tmp/ccaH0FgF.s:346    .text:0000000000000254 .LVL40
     /tmp/ccaH0FgF.s:351    .text:0000000000000264 .LVL41
     /tmp/ccaH0FgF.s:356    .text:0000000000000274 .LVL42
     /tmp/ccaH0FgF.s:361    .text:0000000000000280 .LVL43
     /tmp/ccaH0FgF.s:366    .text:0000000000000290 .LVL44
     /tmp/ccaH0FgF.s:370    .text:0000000000000298 .LVL45
     /tmp/ccaH0FgF.s:374    .text:00000000000002a0 .LVL46
     /tmp/ccaH0FgF.s:174    .text:00000000000000e8 .LBB25
     /tmp/ccaH0FgF.s:213    .text:0000000000000144 .LBE25
     /tmp/ccaH0FgF.s:2370   .debug_loc:00000000000005ac .LLST13
     /tmp/ccaH0FgF.s:2378   .debug_loc:00000000000005d0 .LLST14
     /tmp/ccaH0FgF.s:2387   .debug_loc:00000000000005fc .LLST15
     /tmp/ccaH0FgF.s:182    .text:00000000000000f8 .LVL13
     /tmp/ccaH0FgF.s:187    .text:0000000000000108 .LVL14
     /tmp/ccaH0FgF.s:192    .text:0000000000000118 .LVL15
     /tmp/ccaH0FgF.s:197    .text:0000000000000124 .LVL16
     /tmp/ccaH0FgF.s:202    .text:0000000000000134 .LVL17
     /tmp/ccaH0FgF.s:206    .text:000000000000013c .LVL18
     /tmp/ccaH0FgF.s:210    .text:0000000000000144 .LVL19
     /tmp/ccaH0FgF.s:112    .text:0000000000000098 .LVL3
     /tmp/ccaH0FgF.s:146    .text:00000000000000cc .LVL8
     /tmp/ccaH0FgF.s:2456   .debug_str:0000000000000066 .LASF35
     /tmp/ccaH0FgF.s:10     .text:0000000000000000 .LFB5
     /tmp/ccaH0FgF.s:69     .text:0000000000000074 .LFE5
     /tmp/ccaH0FgF.s:2546   .debug_str:00000000000003a5 .LASF37
     /tmp/ccaH0FgF.s:2528   .debug_str:0000000000000341 .LASF39
     /tmp/ccaH0FgF.s:2540   .debug_str:0000000000000390 .LASF40
     /tmp/ccaH0FgF.s:2538   .debug_str:000000000000038b .LASF41
     /tmp/ccaH0FgF.s:2518   .debug_str:00000000000002f3 .LASF42
     /tmp/ccaH0FgF.s:2472   .debug_str:00000000000000cb .LASF43
     /tmp/ccaH0FgF.s:2478   .debug_str:0000000000000102 .LASF45
     /tmp/ccaH0FgF.s:2550   .debug_str:00000000000003bd .LASF44
     /tmp/ccaH0FgF.s:2558   .debug_str:0000000000000404 .LASF46
     /tmp/ccaH0FgF.s:2548   .debug_str:00000000000003ad .LASF47
     /tmp/ccaH0FgF.s:2464   .debug_str:0000000000000099 .LASF48
     /tmp/ccaH0FgF.s:2480   .debug_str:000000000000011c .LASF49
     /tmp/ccaH0FgF.s:2466   .debug_str:00000000000000a3 .LASF50
     /tmp/ccaH0FgF.s:2530   .debug_str:0000000000000351 .LASF51
     /tmp/ccaH0FgF.s:2486   .debug_str:000000000000013a .LASF52
     /tmp/ccaH0FgF.s:2488   .debug_str:0000000000000145 .LASF53
     /tmp/ccaH0FgF.s:2536   .debug_str:0000000000000380 .LASF54
     /tmp/ccaH0FgF.s:2554   .debug_str:00000000000003e9 .LASF55
     /tmp/ccaH0FgF.s:2468   .debug_str:00000000000000aa .LASF56
     /tmp/ccaH0FgF.s:480    .text:0000000000000344 .LVL60
     /tmp/ccaH0FgF.s:539    .text:00000000000003ac .LVL64
     /tmp/ccaH0FgF.s:512    .text:000000000000037c .LVL62
     /tmp/ccaH0FgF.s:542    .text:00000000000003b0 .LVL65
     /tmp/ccaH0FgF.s:387    .text:00000000000002a0 .LVL47
     /tmp/ccaH0FgF.s:437    .text:00000000000002f0 .LVL52
GAS LISTING /tmp/ccaH0FgF.s 			page 23


     /tmp/ccaH0FgF.s:391    .text:00000000000002a8 .LVL48
     /tmp/ccaH0FgF.s:397    .text:00000000000002ac .LVL49
     /tmp/ccaH0FgF.s:420    .text:00000000000002d8 .LVL50
     /tmp/ccaH0FgF.s:426    .text:00000000000002e0 .LVL51
     /tmp/ccaH0FgF.s:92     .text:0000000000000074 .LVL1
     /tmp/ccaH0FgF.s:163    .text:00000000000000dc .LVL9
     /tmp/ccaH0FgF.s:170    .text:00000000000000e8 .LVL11
     /tmp/ccaH0FgF.s:107    .text:0000000000000090 .LVL2
     /tmp/ccaH0FgF.s:139    .text:00000000000000c0 .LVL6
     /tmp/ccaH0FgF.s:166    .text:00000000000000e0 .LVL10
     /tmp/ccaH0FgF.s:264    .text:00000000000001ac .LVL29
     /tmp/ccaH0FgF.s:296    .text:00000000000001e8 .LVL31
     /tmp/ccaH0FgF.s:144    .text:00000000000000c4 .LVL7
     /tmp/ccaH0FgF.s:180    .text:00000000000000f0 .LVL12
     /tmp/ccaH0FgF.s:219    .text:000000000000014c .LVL20
     /tmp/ccaH0FgF.s:304    .text:00000000000001f0 .LVL32
     /tmp/ccaH0FgF.s:274    .text:00000000000001bc .LVL30
     /tmp/ccaH0FgF.s:258    .text:00000000000001a8 .LVL28
     /tmp/ccaH0FgF.s:117    .text:00000000000000a0 .LVL4
     /tmp/ccaH0FgF.s:124    .text:00000000000000a4 .LVL5
     /tmp/ccaH0FgF.s:554    .debug_info:0000000000000000 .Ldebug_info0
     /tmp/ccaH0FgF.s:126    .text:00000000000000a4 .LBE12
     /tmp/ccaH0FgF.s:214    .text:0000000000000144 .LBB27
     /tmp/ccaH0FgF.s:252    .text:00000000000001a0 .LBE27
     /tmp/ccaH0FgF.s:254    .text:00000000000001a0 .LBB16
     /tmp/ccaH0FgF.s:294    .text:00000000000001e4 .LBE16
     /tmp/ccaH0FgF.s:298    .text:00000000000001e8 .LBB21
     /tmp/ccaH0FgF.s:338    .text:0000000000000244 .LBE21
     /tmp/ccaH0FgF.s:266    .text:00000000000001ac .LBE17
     /tmp/ccaH0FgF.s:299    .text:00000000000001e8 .LBB20
     /tmp/ccaH0FgF.s:337    .text:0000000000000244 .LBE20
     /tmp/ccaH0FgF.s:153    .text:00000000000000d0 .LBE22
     /tmp/ccaH0FgF.s:340    .text:0000000000000244 .LBB29
     /tmp/ccaH0FgF.s:376    .text:00000000000002a0 .LBE29
     /tmp/ccaH0FgF.s:399    .text:00000000000002ac .LBE32
     /tmp/ccaH0FgF.s:432    .text:00000000000002e8 .LBB35
     /tmp/ccaH0FgF.s:469    .text:0000000000000344 .LBE35

UNDEFINED SYMBOLS
CONSOLE_STATUS
CONSOLE_TX_DATA
plic_claim
plic_complete
_Z9putStringPKc
_Z6putInti
_Z10putNewlinev
_Z10stopKernelv
_Z25disableExternalInterruptsv
_Z24enableExternalInterruptsv
