GAS LISTING /tmp/ccv6HJzi.s 			page 1


   1              		.file	"alloc.cpp"
   2              		.option pic
   3              		.option norelax
   4              		.text
   5              	.Ltext0:
   6              		.section	.rodata.str1.8,"aMS",@progbits,1
   7              		.align	3
   8              	.LC0:
   9 0000 3D3D3D3D 		.string	"===================== ASSERT file: "
   9      3D3D3D3D 
   9      3D3D3D3D 
   9      3D3D3D3D 
   9      3D3D3D3D 
  10 0024 00000000 		.align	3
  11              	.LC1:
  12 0028 7372632F 		.string	"src/alloc.cpp"
  12      616C6C6F 
  12      632E6370 
  12      7000
  13 0036 0000     		.align	3
  14              	.LC2:
  15 0038 20202020 		.string	"    line: "
  15      6C696E65 
  15      3A2000
  16 0043 00000000 		.align	3
  16      00
  17              	.LC3:
  18 0048 2020203D 		.string	"   ==========================="
  18      3D3D3D3D 
  18      3D3D3D3D 
  18      3D3D3D3D 
  18      3D3D3D3D 
  19              		.text
  20              		.align	2
  21              		.globl	_Z12alignForwardmm
  23              	_Z12alignForwardmm:
  24              	.LFB7:
  25              		.file 1 "src/alloc.cpp"
   1:src/alloc.cpp **** #include "../h/alloc.h"
   2:src/alloc.cpp **** #include "../h/my_console.h"
   3:src/alloc.cpp **** #include "../lib/hw.h"
   4:src/alloc.cpp **** 
   5:src/alloc.cpp **** uint64 alignForward(uint64 n, uint64 alignConst)
   6:src/alloc.cpp **** {
  26              		.loc 1 6 1
  27              		.cfi_startproc
  28              	.LVL0:
  29 0000 130101FE 		addi	sp,sp,-32
  30              		.cfi_def_cfa_offset 32
  31 0004 233C1100 		sd	ra,24(sp)
  32 0008 23388100 		sd	s0,16(sp)
  33 000c 23349100 		sd	s1,8(sp)
  34              		.cfi_offset 1, -8
  35              		.cfi_offset 8, -16
  36              		.cfi_offset 9, -24
  37 0010 13040102 		addi	s0,sp,32
  38              		.cfi_def_cfa 8, 0
GAS LISTING /tmp/ccv6HJzi.s 			page 2


  39 0014 93040500 		mv	s1,a0
   7:src/alloc.cpp ****     assert(alignConst == MEM_BLOCK_SIZE);
  40              		.loc 1 7 5
  41 0018 938505FC 		addi	a1,a1,-64
  42              	.LVL1:
  43              	.LBB4:
  44              	.LBB5:
  45              		.file 2 "src/../h/../h/my_console.h"
   1:src/../h/../h/my_console.h **** #pragma once
   2:src/../h/../h/my_console.h **** 
   3:src/../h/../h/my_console.h **** #include "../h/risc.h"
   4:src/../h/../h/my_console.h **** 
   5:src/../h/../h/my_console.h **** #include "../lib/console.h"
   6:src/../h/../h/my_console.h **** #include "../lib/hw.h"
   7:src/../h/../h/my_console.h **** 
   8:src/../h/../h/my_console.h **** #define __DEBUG_MODE
   9:src/../h/../h/my_console.h **** 
  10:src/../h/../h/my_console.h **** 
  11:src/../h/../h/my_console.h **** void putString(const char* s);
  12:src/../h/../h/my_console.h **** void putInt(int n);
  13:src/../h/../h/my_console.h **** void putNewline();
  14:src/../h/../h/my_console.h **** void putU64(uint64 n);
  15:src/../h/../h/my_console.h **** void putBinary(uint64 n);
  16:src/../h/../h/my_console.h **** void stopKernel();
  17:src/../h/../h/my_console.h **** 
  18:src/../h/../h/my_console.h **** inline void _assert(bool valid, const char* file, int line) // MUST be inline
  19:src/../h/../h/my_console.h **** {
  20:src/../h/../h/my_console.h ****     if(valid)
  46              		.loc 2 20 5
  47 001c 63960502 		bnez	a1,.L5
  48              	.LVL2:
  49              	.L2:
  50              	.LBE5:
  51              	.LBE4:
   8:src/alloc.cpp ****     if(n % MEM_BLOCK_SIZE != 0) // align size
  52              		.loc 1 8 5
  53              		.loc 1 8 10 is_stmt 0
  54 0020 93F7F403 		andi	a5,s1,63
  55              		.loc 1 8 5
  56 0024 63860700 		beqz	a5,.L3
   9:src/alloc.cpp ****     {
  10:src/alloc.cpp ****         n += MEM_BLOCK_SIZE - (n % MEM_BLOCK_SIZE);
  57              		.loc 1 10 9 is_stmt 1
  58              		.loc 1 10 11 is_stmt 0
  59 0028 93F404FC 		andi	s1,s1,-64
  60              	.LVL3:
  61 002c 93840404 		addi	s1,s1,64
  62              	.LVL4:
  63              	.L3:
  11:src/alloc.cpp ****     }
  12:src/alloc.cpp ****     return n;
  64              		.loc 1 12 5 is_stmt 1
  13:src/alloc.cpp **** }
  65              		.loc 1 13 1 is_stmt 0
  66 0030 13850400 		mv	a0,s1
  67 0034 83308101 		ld	ra,24(sp)
  68              		.cfi_remember_state
GAS LISTING /tmp/ccv6HJzi.s 			page 3


  69              		.cfi_restore 1
  70 0038 03340101 		ld	s0,16(sp)
  71              		.cfi_restore 8
  72              		.cfi_def_cfa 2, 32
  73 003c 83348100 		ld	s1,8(sp)
  74              		.cfi_restore 9
  75              	.LVL5:
  76 0040 13010102 		addi	sp,sp,32
  77              		.cfi_def_cfa_offset 0
  78 0044 67800000 		jr	ra
  79              	.LVL6:
  80              	.L5:
  81              		.cfi_restore_state
  82              	.LBB7:
  83              	.LBB6:
  21:src/../h/../h/my_console.h ****         return;
  22:src/../h/../h/my_console.h **** 
  23:src/../h/../h/my_console.h ****     putString("===================== ASSERT file: ");
  84              		.loc 2 23 5 is_stmt 1
  85              		.loc 2 23 14 is_stmt 0
  86 0048 17050000 		lla	a0,.LC0
  86      13050500 
  87 0050 97000000 		call	_Z9putStringPKc@plt
  87      E7800000 
  88              	.LVL7:
  24:src/../h/../h/my_console.h ****     putString(file);
  89              		.loc 2 24 5 is_stmt 1
  90              		.loc 2 24 14 is_stmt 0
  91 0058 17050000 		lla	a0,.LC1
  91      13050500 
  92 0060 97000000 		call	_Z9putStringPKc@plt
  92      E7800000 
  93              	.LVL8:
  25:src/../h/../h/my_console.h ****     putString("    line: ");
  94              		.loc 2 25 5 is_stmt 1
  95              		.loc 2 25 14 is_stmt 0
  96 0068 17050000 		lla	a0,.LC2
  96      13050500 
  97 0070 97000000 		call	_Z9putStringPKc@plt
  97      E7800000 
  98              	.LVL9:
  26:src/../h/../h/my_console.h ****     putInt(line);
  99              		.loc 2 26 5 is_stmt 1
 100              		.loc 2 26 11 is_stmt 0
 101 0078 13057000 		li	a0,7
 102 007c 97000000 		call	_Z6putInti@plt
 102      E7800000 
 103              	.LVL10:
  27:src/../h/../h/my_console.h ****     putString("   ===========================");
 104              		.loc 2 27 5 is_stmt 1
 105              		.loc 2 27 14 is_stmt 0
 106 0084 17050000 		lla	a0,.LC3
 106      13050500 
 107 008c 97000000 		call	_Z9putStringPKc@plt
 107      E7800000 
 108              	.LVL11:
  28:src/../h/../h/my_console.h ****     putNewline();
GAS LISTING /tmp/ccv6HJzi.s 			page 4


 109              		.loc 2 28 5 is_stmt 1
 110              		.loc 2 28 15 is_stmt 0
 111 0094 97000000 		call	_Z10putNewlinev@plt
 111      E7800000 
 112              	.LVL12:
  29:src/../h/../h/my_console.h **** 
  30:src/../h/../h/my_console.h ****     stopKernel();
 113              		.loc 2 30 5 is_stmt 1
 114              		.loc 2 30 15 is_stmt 0
 115 009c 97000000 		call	_Z10stopKernelv@plt
 115      E7800000 
 116              	.LVL13:
 117 00a4 6FF0DFF7 		j	.L2
 118              	.LBE6:
 119              	.LBE7:
 120              		.cfi_endproc
 121              	.LFE7:
 123              		.align	2
 124              		.globl	_Z13alignBackwardmm
 126              	_Z13alignBackwardmm:
 127              	.LFB8:
  14:src/alloc.cpp **** 
  15:src/alloc.cpp **** uint64 alignBackward(uint64 n, uint64 alignConst)
  16:src/alloc.cpp **** {
 128              		.loc 1 16 1 is_stmt 1
 129              		.cfi_startproc
 130              	.LVL14:
 131 00a8 130101FE 		addi	sp,sp,-32
 132              		.cfi_def_cfa_offset 32
 133 00ac 233C1100 		sd	ra,24(sp)
 134 00b0 23388100 		sd	s0,16(sp)
 135 00b4 23349100 		sd	s1,8(sp)
 136              		.cfi_offset 1, -8
 137              		.cfi_offset 8, -16
 138              		.cfi_offset 9, -24
 139 00b8 13040102 		addi	s0,sp,32
 140              		.cfi_def_cfa 8, 0
 141 00bc 93040500 		mv	s1,a0
  17:src/alloc.cpp ****     assert(alignConst == MEM_BLOCK_SIZE);
 142              		.loc 1 17 5
 143 00c0 938505FC 		addi	a1,a1,-64
 144              	.LVL15:
 145              	.LBB10:
 146              	.LBB11:
  20:src/../h/../h/my_console.h ****         return;
 147              		.loc 2 20 5
 148 00c4 639E0500 		bnez	a1,.L9
 149              	.LVL16:
 150              	.L7:
 151              	.LBE11:
 152              	.LBE10:
  18:src/alloc.cpp ****     return n - n % MEM_BLOCK_SIZE;;
 153              		.loc 1 18 5
 154              		.loc 1 18 35
  19:src/alloc.cpp **** }
 155              		.loc 1 19 1 is_stmt 0
 156 00c8 13F504FC 		andi	a0,s1,-64
GAS LISTING /tmp/ccv6HJzi.s 			page 5


 157 00cc 83308101 		ld	ra,24(sp)
 158              		.cfi_remember_state
 159              		.cfi_restore 1
 160 00d0 03340101 		ld	s0,16(sp)
 161              		.cfi_restore 8
 162              		.cfi_def_cfa 2, 32
 163 00d4 83348100 		ld	s1,8(sp)
 164              		.cfi_restore 9
 165              	.LVL17:
 166 00d8 13010102 		addi	sp,sp,32
 167              		.cfi_def_cfa_offset 0
 168 00dc 67800000 		jr	ra
 169              	.LVL18:
 170              	.L9:
 171              		.cfi_restore_state
 172              	.LBB13:
 173              	.LBB12:
  23:src/../h/../h/my_console.h ****     putString(file);
 174              		.loc 2 23 5 is_stmt 1
  23:src/../h/../h/my_console.h ****     putString(file);
 175              		.loc 2 23 14 is_stmt 0
 176 00e0 17050000 		lla	a0,.LC0
 176      13050500 
 177 00e8 97000000 		call	_Z9putStringPKc@plt
 177      E7800000 
 178              	.LVL19:
  24:src/../h/../h/my_console.h ****     putString("    line: ");
 179              		.loc 2 24 5 is_stmt 1
  24:src/../h/../h/my_console.h ****     putString("    line: ");
 180              		.loc 2 24 14 is_stmt 0
 181 00f0 17050000 		lla	a0,.LC1
 181      13050500 
 182 00f8 97000000 		call	_Z9putStringPKc@plt
 182      E7800000 
 183              	.LVL20:
  25:src/../h/../h/my_console.h ****     putInt(line);
 184              		.loc 2 25 5 is_stmt 1
  25:src/../h/../h/my_console.h ****     putInt(line);
 185              		.loc 2 25 14 is_stmt 0
 186 0100 17050000 		lla	a0,.LC2
 186      13050500 
 187 0108 97000000 		call	_Z9putStringPKc@plt
 187      E7800000 
 188              	.LVL21:
  26:src/../h/../h/my_console.h ****     putString("   ===========================");
 189              		.loc 2 26 5 is_stmt 1
  26:src/../h/../h/my_console.h ****     putString("   ===========================");
 190              		.loc 2 26 11 is_stmt 0
 191 0110 13051001 		li	a0,17
 192 0114 97000000 		call	_Z6putInti@plt
 192      E7800000 
 193              	.LVL22:
  27:src/../h/../h/my_console.h ****     putNewline();
 194              		.loc 2 27 5 is_stmt 1
  27:src/../h/../h/my_console.h ****     putNewline();
 195              		.loc 2 27 14 is_stmt 0
 196 011c 17050000 		lla	a0,.LC3
GAS LISTING /tmp/ccv6HJzi.s 			page 6


 196      13050500 
 197 0124 97000000 		call	_Z9putStringPKc@plt
 197      E7800000 
 198              	.LVL23:
  28:src/../h/../h/my_console.h **** 
 199              		.loc 2 28 5 is_stmt 1
  28:src/../h/../h/my_console.h **** 
 200              		.loc 2 28 15 is_stmt 0
 201 012c 97000000 		call	_Z10putNewlinev@plt
 201      E7800000 
 202              	.LVL24:
 203              		.loc 2 30 5 is_stmt 1
 204              		.loc 2 30 15 is_stmt 0
 205 0134 97000000 		call	_Z10stopKernelv@plt
 205      E7800000 
 206              	.LVL25:
 207 013c 6FF0DFF8 		j	.L7
 208              	.LBE12:
 209              	.LBE13:
 210              		.cfi_endproc
 211              	.LFE8:
 213              		.align	2
 214              		.globl	_ZN8MemAllocC2Ev
 216              	_ZN8MemAllocC2Ev:
 217              	.LFB11:
  20:src/alloc.cpp **** 
  21:src/alloc.cpp **** void MemAlloc::printUserlandUsage()
  22:src/alloc.cpp **** {
  23:src/alloc.cpp ****     uint64 a = getUserlandUsage();
  24:src/alloc.cpp ****     putString("Allocated ");
  25:src/alloc.cpp ****     putU64(a);
  26:src/alloc.cpp ****     putString(" bytes are allocated for userland");
  27:src/alloc.cpp ****     putNewline();
  28:src/alloc.cpp **** }
  29:src/alloc.cpp **** 
  30:src/alloc.cpp **** MemAlloc::MemAlloc()
 218              		.loc 1 30 1 is_stmt 1
 219              		.cfi_startproc
 220              	.LVL26:
 221 0140 130101FE 		addi	sp,sp,-32
 222              		.cfi_def_cfa_offset 32
 223 0144 233C1100 		sd	ra,24(sp)
 224 0148 23388100 		sd	s0,16(sp)
 225 014c 23349100 		sd	s1,8(sp)
 226 0150 23302101 		sd	s2,0(sp)
 227              		.cfi_offset 1, -8
 228              		.cfi_offset 8, -16
 229              		.cfi_offset 9, -24
 230              		.cfi_offset 18, -32
 231 0154 13040102 		addi	s0,sp,32
 232              		.cfi_def_cfa 8, 0
 233 0158 93040500 		mv	s1,a0
 234              	.LBB17:
  31:src/alloc.cpp **** : MAX_NODE_SIZE(sizeof(FreeNode) > sizeof(TakenNode) ? sizeof(FreeNode) : sizeof(TakenNode))
 235              		.loc 1 31 92 is_stmt 0
 236 015c 93078001 		li	a5,24
 237 0160 2338F500 		sd	a5,16(a0)
GAS LISTING /tmp/ccv6HJzi.s 			page 7


  32:src/alloc.cpp **** {
  33:src/alloc.cpp ****     pFreeHead = (FreeNode*)alignForward((uint64)HEAP_START_ADDR, MEM_BLOCK_SIZE);
 238              		.loc 1 33 5 is_stmt 1
 239              		.loc 1 33 40 is_stmt 0
 240 0164 93050004 		li	a1,64
 241 0168 97070000 		la	a5,HEAP_START_ADDR
 241      83B70700 
 242 0170 03B50700 		ld	a0,0(a5)
 243              	.LVL27:
 244 0174 97000000 		call	_Z12alignForwardmm
 244      E7800000 
 245              	.LVL28:
 246              		.loc 1 33 15
 247 017c 23B0A400 		sd	a0,0(s1)
  34:src/alloc.cpp ****     pFreeHead->base = (char*)alignForward((uint64)pFreeHead + MAX_NODE_SIZE, MEM_BLOCK_SIZE);
 248              		.loc 1 34 5 is_stmt 1
 249              		.loc 1 34 63 is_stmt 0
 250 0180 83B70401 		ld	a5,16(s1)
 251              		.loc 1 34 42
 252 0184 93050004 		li	a1,64
 253 0188 3385A700 		add	a0,a5,a0
 254 018c 97000000 		call	_Z12alignForwardmm
 254      E7800000 
 255              	.LVL29:
 256              		.loc 1 34 5
 257 0194 83B70400 		ld	a5,0(s1)
 258              		.loc 1 34 21
 259 0198 23B8A700 		sd	a0,16(a5)
  35:src/alloc.cpp ****     pFreeHead->size = alignBackward((uint64)HEAP_END_ADDR - (uint64)pFreeHead->base, MEM_BLOCK_SIZE
 260              		.loc 1 35 5 is_stmt 1
 261              		.loc 1 35 69 is_stmt 0
 262 019c 03B90400 		ld	s2,0(s1)
 263              		.loc 1 35 80
 264 01a0 83370901 		ld	a5,16(s2)
 265              		.loc 1 35 36
 266 01a4 17070000 		la	a4,HEAP_END_ADDR
 266      03370700 
 267 01ac 03350700 		ld	a0,0(a4)
 268 01b0 93050004 		li	a1,64
 269 01b4 3305F540 		sub	a0,a0,a5
 270 01b8 97000000 		call	_Z13alignBackwardmm
 270      E7800000 
 271              	.LVL30:
 272              		.loc 1 35 21
 273 01c0 2334A900 		sd	a0,8(s2)
  36:src/alloc.cpp **** 
  37:src/alloc.cpp ****     pTakenHead = nullptr;
 274              		.loc 1 37 5 is_stmt 1
 275              		.loc 1 37 16 is_stmt 0
 276 01c4 23B40400 		sd	zero,8(s1)
  38:src/alloc.cpp **** 
  39:src/alloc.cpp ****     assert(((uint64)pFreeHead->size) / 1024 / 1024 == 127);
 277              		.loc 1 39 5 is_stmt 1
 278 01c8 83B70400 		ld	a5,0(s1)
 279 01cc 83B78700 		ld	a5,8(a5)
 280 01d0 370710F8 		li	a4,-133169152
 281 01d4 B387E700 		add	a5,a5,a4
GAS LISTING /tmp/ccv6HJzi.s 			page 8


 282 01d8 37071000 		li	a4,1048576
 283              	.LVL31:
 284              	.LBB18:
 285              	.LBB19:
  20:src/../h/../h/my_console.h ****         return;
 286              		.loc 2 20 5
 287 01dc 63FEE700 		bgeu	a5,a4,.L13
 288              	.LVL32:
 289              	.L10:
 290              	.LBE19:
 291              	.LBE18:
 292              	.LBE17:
  40:src/alloc.cpp **** }
 293              		.loc 1 40 1 is_stmt 0
 294 01e0 83308101 		ld	ra,24(sp)
 295              		.cfi_remember_state
 296              		.cfi_restore 1
 297 01e4 03340101 		ld	s0,16(sp)
 298              		.cfi_restore 8
 299              		.cfi_def_cfa 2, 32
 300 01e8 83348100 		ld	s1,8(sp)
 301              		.cfi_restore 9
 302              	.LVL33:
 303 01ec 03390100 		ld	s2,0(sp)
 304              		.cfi_restore 18
 305 01f0 13010102 		addi	sp,sp,32
 306              		.cfi_def_cfa_offset 0
 307 01f4 67800000 		jr	ra
 308              	.LVL34:
 309              	.L13:
 310              		.cfi_restore_state
 311              	.LBB22:
 312              	.LBB21:
 313              	.LBB20:
  23:src/../h/../h/my_console.h ****     putString(file);
 314              		.loc 2 23 5 is_stmt 1
  23:src/../h/../h/my_console.h ****     putString(file);
 315              		.loc 2 23 14 is_stmt 0
 316 01f8 17050000 		lla	a0,.LC0
 316      13050500 
 317 0200 97000000 		call	_Z9putStringPKc@plt
 317      E7800000 
 318              	.LVL35:
  24:src/../h/../h/my_console.h ****     putString("    line: ");
 319              		.loc 2 24 5 is_stmt 1
  24:src/../h/../h/my_console.h ****     putString("    line: ");
 320              		.loc 2 24 14 is_stmt 0
 321 0208 17050000 		lla	a0,.LC1
 321      13050500 
 322 0210 97000000 		call	_Z9putStringPKc@plt
 322      E7800000 
 323              	.LVL36:
  25:src/../h/../h/my_console.h ****     putInt(line);
 324              		.loc 2 25 5 is_stmt 1
  25:src/../h/../h/my_console.h ****     putInt(line);
 325              		.loc 2 25 14 is_stmt 0
 326 0218 17050000 		lla	a0,.LC2
GAS LISTING /tmp/ccv6HJzi.s 			page 9


 326      13050500 
 327 0220 97000000 		call	_Z9putStringPKc@plt
 327      E7800000 
 328              	.LVL37:
  26:src/../h/../h/my_console.h ****     putString("   ===========================");
 329              		.loc 2 26 5 is_stmt 1
  26:src/../h/../h/my_console.h ****     putString("   ===========================");
 330              		.loc 2 26 11 is_stmt 0
 331 0228 13057002 		li	a0,39
 332 022c 97000000 		call	_Z6putInti@plt
 332      E7800000 
 333              	.LVL38:
  27:src/../h/../h/my_console.h ****     putNewline();
 334              		.loc 2 27 5 is_stmt 1
  27:src/../h/../h/my_console.h ****     putNewline();
 335              		.loc 2 27 14 is_stmt 0
 336 0234 17050000 		lla	a0,.LC3
 336      13050500 
 337 023c 97000000 		call	_Z9putStringPKc@plt
 337      E7800000 
 338              	.LVL39:
  28:src/../h/../h/my_console.h **** 
 339              		.loc 2 28 5 is_stmt 1
  28:src/../h/../h/my_console.h **** 
 340              		.loc 2 28 15 is_stmt 0
 341 0244 97000000 		call	_Z10putNewlinev@plt
 341      E7800000 
 342              	.LVL40:
 343              		.loc 2 30 5 is_stmt 1
 344              		.loc 2 30 15 is_stmt 0
 345 024c 97000000 		call	_Z10stopKernelv@plt
 345      E7800000 
 346              	.LVL41:
 347              	.LBE20:
 348              	.LBE21:
 349              	.LBE22:
 350              		.loc 1 40 1
 351 0254 6FF0DFF8 		j	.L10
 352              		.cfi_endproc
 353              	.LFE11:
 355              		.globl	_ZN8MemAllocC1Ev
 356              		.set	_ZN8MemAllocC1Ev,_ZN8MemAllocC2Ev
 357              		.align	2
 358              		.globl	_ZN8MemAlloc3getEv
 360              	_ZN8MemAlloc3getEv:
 361              	.LFB13:
  41:src/alloc.cpp **** 
  42:src/alloc.cpp **** 
  43:src/alloc.cpp **** MemAlloc* MemAlloc::get()
  44:src/alloc.cpp **** {
 362              		.loc 1 44 1 is_stmt 1
 363              		.cfi_startproc
  45:src/alloc.cpp ****     static MemAlloc instance;
 364              		.loc 1 45 5
 365              		.loc 1 45 21 is_stmt 0
 366 0258 97070000 		lbu	a5,.LANCHOR0
 366      83C70700 
GAS LISTING /tmp/ccv6HJzi.s 			page 10


 367 0260 63880700 		beqz	a5,.L20
  46:src/alloc.cpp ****     return &instance;
 368              		.loc 1 46 5 is_stmt 1
  47:src/alloc.cpp **** }
 369              		.loc 1 47 1 is_stmt 0
 370 0264 17050000 		lla	a0,.LANCHOR0+8
 370      13050500 
 371 026c 67800000 		ret
 372              	.L20:
  44:src/alloc.cpp ****     static MemAlloc instance;
 373              		.loc 1 44 1 discriminator 1
 374 0270 130101FF 		addi	sp,sp,-16
 375              		.cfi_def_cfa_offset 16
 376 0274 23341100 		sd	ra,8(sp)
 377 0278 23308100 		sd	s0,0(sp)
 378              		.cfi_offset 1, -8
 379              		.cfi_offset 8, -16
 380 027c 13040101 		addi	s0,sp,16
 381              		.cfi_def_cfa 8, 0
  45:src/alloc.cpp ****     return &instance;
 382              		.loc 1 45 21 discriminator 1
 383 0280 17050000 		lla	a0,.LANCHOR0+8
 383      13050500 
 384 0288 97000000 		call	_ZN8MemAllocC1Ev
 384      E7800000 
 385              	.LVL42:
 386 0290 93071000 		li	a5,1
 387 0294 17070000 		sb	a5,.LANCHOR0,a4
 387      2300F700 
  46:src/alloc.cpp **** }
 388              		.loc 1 46 5 is_stmt 1 discriminator 1
 389              		.loc 1 47 1 is_stmt 0 discriminator 1
 390 029c 17050000 		lla	a0,.LANCHOR0+8
 390      13050500 
 391 02a4 83308100 		ld	ra,8(sp)
 392              		.cfi_restore 1
 393 02a8 03340100 		ld	s0,0(sp)
 394              		.cfi_restore 8
 395              		.cfi_def_cfa 2, 16
 396 02ac 13010101 		addi	sp,sp,16
 397              		.cfi_def_cfa_offset 0
 398 02b0 67800000 		jr	ra
 399              		.cfi_endproc
 400              	.LFE13:
 402              		.align	2
 403              		.globl	_ZN8MemAlloc8allocMemEm
 405              	_ZN8MemAlloc8allocMemEm:
 406              	.LFB14:
  48:src/alloc.cpp **** 
  49:src/alloc.cpp **** void* MemAlloc::allocMem(size_t size)
  50:src/alloc.cpp **** {
 407              		.loc 1 50 1 is_stmt 1
 408              		.cfi_startproc
 409              	.LVL43:
 410 02b4 130101FC 		addi	sp,sp,-64
 411              		.cfi_def_cfa_offset 64
 412 02b8 233C1102 		sd	ra,56(sp)
GAS LISTING /tmp/ccv6HJzi.s 			page 11


 413 02bc 23388102 		sd	s0,48(sp)
 414 02c0 23349102 		sd	s1,40(sp)
 415 02c4 23302103 		sd	s2,32(sp)
 416 02c8 233C3101 		sd	s3,24(sp)
 417 02cc 23384101 		sd	s4,16(sp)
 418 02d0 23345101 		sd	s5,8(sp)
 419 02d4 23306101 		sd	s6,0(sp)
 420              		.cfi_offset 1, -8
 421              		.cfi_offset 8, -16
 422              		.cfi_offset 9, -24
 423              		.cfi_offset 18, -32
 424              		.cfi_offset 19, -40
 425              		.cfi_offset 20, -48
 426              		.cfi_offset 21, -56
 427              		.cfi_offset 22, -64
 428 02d8 13040104 		addi	s0,sp,64
 429              		.cfi_def_cfa 8, 0
 430 02dc 93090500 		mv	s3,a0
 431 02e0 13850500 		mv	a0,a1
 432              	.LVL44:
  51:src/alloc.cpp ****     // Algorithm: puts it in the first place large enough found
  52:src/alloc.cpp **** 
  53:src/alloc.cpp **** //    size_t initialSize = size;
  54:src/alloc.cpp **** //    putString("=== called: allocMem(");
  55:src/alloc.cpp **** //    putU64(initialSize);
  56:src/alloc.cpp **** //    putString(")");
  57:src/alloc.cpp **** //    putNewline();
  58:src/alloc.cpp **** 
  59:src/alloc.cpp ****     size = alignForward(size, MEM_BLOCK_SIZE);
 433              		.loc 1 59 5
 434              		.loc 1 59 24 is_stmt 0
 435 02e4 93050004 		li	a1,64
 436              	.LVL45:
 437 02e8 97000000 		call	_Z12alignForwardmm
 437      E7800000 
 438              	.LVL46:
 439 02f0 130A0500 		mv	s4,a0
 440              	.LVL47:
  60:src/alloc.cpp **** 
  61:src/alloc.cpp ****     size_t usableSize = size;
 441              		.loc 1 61 5 is_stmt 1
  62:src/alloc.cpp ****     size_t actualSize = alignForward(usableSize + MAX_NODE_SIZE, MEM_BLOCK_SIZE);
 442              		.loc 1 62 5
 443              		.loc 1 62 51 is_stmt 0
 444 02f4 03B50901 		ld	a0,16(s3)
 445              	.LVL48:
 446              		.loc 1 62 37
 447 02f8 93050004 		li	a1,64
 448 02fc 33054501 		add	a0,a0,s4
 449 0300 97000000 		call	_Z12alignForwardmm
 449      E7800000 
 450              	.LVL49:
  63:src/alloc.cpp ****     assert(usableSize % MEM_BLOCK_SIZE == 0 && actualSize % MEM_BLOCK_SIZE == 0);
 451              		.loc 1 63 5 is_stmt 1
 452 0308 9377FA03 		andi	a5,s4,63
 453 030c 639A0700 		bnez	a5,.L36
 454              		.loc 1 63 5 is_stmt 0 discriminator 1
GAS LISTING /tmp/ccv6HJzi.s 			page 12


 455 0310 1375F503 		andi	a0,a0,63
 456              	.LVL50:
 457 0314 63180500 		bnez	a0,.L22
 458              		.loc 1 63 5
 459 0318 93071000 		li	a5,1
 460 031c 6F008000 		j	.L22
 461              	.LVL51:
 462              	.L36:
 463 0320 93070000 		li	a5,0
 464              	.LVL52:
 465              	.L22:
 466              	.LBB38:
 467              	.LBB39:
  20:src/../h/../h/my_console.h ****         return;
 468              		.loc 2 20 5 is_stmt 1 discriminator 6
 469 0324 63880700 		beqz	a5,.L44
 470              	.LVL53:
 471              	.L23:
 472              	.LBE39:
 473              	.LBE38:
  64:src/alloc.cpp ****     size = 0; // WARNING: use actualSize and initialSize instead
 474              		.loc 1 64 5
  65:src/alloc.cpp **** 
  66:src/alloc.cpp ****     FreeNode* pCur = pFreeHead;
 475              		.loc 1 66 5
 476              		.loc 1 66 15 is_stmt 0
 477 0328 83B40900 		ld	s1,0(s3)
 478              	.LVL54:
  67:src/alloc.cpp ****     FreeNode* pPrev = nullptr;
 479              		.loc 1 67 5 is_stmt 1
 480              		.loc 1 67 15 is_stmt 0
 481 032c 130B0000 		li	s6,0
 482 0330 6F00000C 		j	.L35
 483              	.LVL55:
 484              	.L44:
 485              	.LBB41:
 486              	.LBB40:
  23:src/../h/../h/my_console.h ****     putString(file);
 487              		.loc 2 23 5 is_stmt 1
  23:src/../h/../h/my_console.h ****     putString(file);
 488              		.loc 2 23 14 is_stmt 0
 489 0334 17050000 		lla	a0,.LC0
 489      13050500 
 490 033c 97000000 		call	_Z9putStringPKc@plt
 490      E7800000 
 491              	.LVL56:
  24:src/../h/../h/my_console.h ****     putString("    line: ");
 492              		.loc 2 24 5 is_stmt 1
  24:src/../h/../h/my_console.h ****     putString("    line: ");
 493              		.loc 2 24 14 is_stmt 0
 494 0344 17050000 		lla	a0,.LC1
 494      13050500 
 495 034c 97000000 		call	_Z9putStringPKc@plt
 495      E7800000 
 496              	.LVL57:
  25:src/../h/../h/my_console.h ****     putInt(line);
 497              		.loc 2 25 5 is_stmt 1
GAS LISTING /tmp/ccv6HJzi.s 			page 13


  25:src/../h/../h/my_console.h ****     putInt(line);
 498              		.loc 2 25 14 is_stmt 0
 499 0354 17050000 		lla	a0,.LC2
 499      13050500 
 500 035c 97000000 		call	_Z9putStringPKc@plt
 500      E7800000 
 501              	.LVL58:
  26:src/../h/../h/my_console.h ****     putString("   ===========================");
 502              		.loc 2 26 5 is_stmt 1
  26:src/../h/../h/my_console.h ****     putString("   ===========================");
 503              		.loc 2 26 11 is_stmt 0
 504 0364 1305F003 		li	a0,63
 505 0368 97000000 		call	_Z6putInti@plt
 505      E7800000 
 506              	.LVL59:
  27:src/../h/../h/my_console.h ****     putNewline();
 507              		.loc 2 27 5 is_stmt 1
  27:src/../h/../h/my_console.h ****     putNewline();
 508              		.loc 2 27 14 is_stmt 0
 509 0370 17050000 		lla	a0,.LC3
 509      13050500 
 510 0378 97000000 		call	_Z9putStringPKc@plt
 510      E7800000 
 511              	.LVL60:
  28:src/../h/../h/my_console.h **** 
 512              		.loc 2 28 5 is_stmt 1
  28:src/../h/../h/my_console.h **** 
 513              		.loc 2 28 15 is_stmt 0
 514 0380 97000000 		call	_Z10putNewlinev@plt
 514      E7800000 
 515              	.LVL61:
 516              		.loc 2 30 5 is_stmt 1
 517              		.loc 2 30 15 is_stmt 0
 518 0388 97000000 		call	_Z10stopKernelv@plt
 518      E7800000 
 519              	.LVL62:
 520 0390 6FF09FF9 		j	.L23
 521              	.LVL63:
 522              	.L38:
 523              	.LBE40:
 524              	.LBE41:
 525              	.LBB42:
  68:src/alloc.cpp **** 
  69:src/alloc.cpp ****     while(pCur != nullptr)
  70:src/alloc.cpp ****     {
  71:src/alloc.cpp ****         assert(((uint64) pCur->base) % MEM_BLOCK_SIZE == 0 &&
 526              		.loc 1 71 9
 527 0394 93070000 		li	a5,0
 528              	.L25:
 529              	.LVL64:
 530              	.LBB43:
 531              	.LBB44:
  20:src/../h/../h/my_console.h ****         return;
 532              		.loc 2 20 5 is_stmt 1 discriminator 6
 533 0398 63820708 		beqz	a5,.L45
 534              	.LVL65:
 535              	.L26:
GAS LISTING /tmp/ccv6HJzi.s 			page 14


 536              	.LBE44:
 537              	.LBE43:
  72:src/alloc.cpp ****                pCur->size % MEM_BLOCK_SIZE == 0); // check for alignment errors
  73:src/alloc.cpp ****         assert(((uint64)pCur) % MEM_BLOCK_SIZE == 0);
 538              		.loc 1 73 9
 539 039c 93F7F403 		andi	a5,s1,63
 540              	.LVL66:
 541              	.LBB46:
 542              	.LBB47:
  20:src/../h/../h/my_console.h ****         return;
 543              		.loc 2 20 5
 544 03a0 639E070C 		bnez	a5,.L46
 545              	.LVL67:
 546              	.L27:
 547              	.LBE47:
 548              	.LBE46:
  74:src/alloc.cpp **** 
  75:src/alloc.cpp ****         FreeNode *newFree;
 549              		.loc 1 75 9
  76:src/alloc.cpp ****         newFree = (FreeNode *) alignForward((uint64) (pCur->base + usableSize), MEM_BLOCK_SIZE);
 550              		.loc 1 76 9
 551              		.loc 1 76 61 is_stmt 0
 552 03a4 03B50401 		ld	a0,16(s1)
 553              		.loc 1 76 44
 554 03a8 93050004 		li	a1,64
 555 03ac 33054501 		add	a0,a0,s4
 556 03b0 97000000 		call	_Z12alignForwardmm
 556      E7800000 
 557              	.LVL68:
 558 03b8 13090500 		mv	s2,a0
 559              		.loc 1 76 17
 560 03bc 930A0500 		mv	s5,a0
 561              	.LVL69:
  77:src/alloc.cpp ****         newFree->base = (char*)alignForward((uint64)newFree + MAX_NODE_SIZE, MEM_BLOCK_SIZE);
 562              		.loc 1 77 9 is_stmt 1
 563              		.loc 1 77 63 is_stmt 0
 564 03c0 03B50901 		ld	a0,16(s3)
 565              	.LVL70:
 566              		.loc 1 77 44
 567 03c4 93050004 		li	a1,64
 568 03c8 33052501 		add	a0,a0,s2
 569 03cc 97000000 		call	_Z12alignForwardmm
 569      E7800000 
 570              	.LVL71:
 571              		.loc 1 77 23
 572 03d4 2338A900 		sd	a0,16(s2)
  78:src/alloc.cpp ****         if (pCur->base + pCur->size > newFree->base)
 573              		.loc 1 78 9 is_stmt 1
 574              	.LBB49:
 575              		.loc 1 78 19 is_stmt 0
 576 03d8 83B70401 		ld	a5,16(s1)
 577              		.loc 1 78 32
 578 03dc 03B78400 		ld	a4,8(s1)
 579              		.loc 1 78 24
 580 03e0 B387E700 		add	a5,a5,a4
 581              		.loc 1 78 9
 582 03e4 636CF50E 		bltu	a0,a5,.L47
GAS LISTING /tmp/ccv6HJzi.s 			page 15


 583              	.LBE49:
  79:src/alloc.cpp ****         {
  80:src/alloc.cpp ****             // success: memory block found
  81:src/alloc.cpp **** 
  82:src/alloc.cpp ****             newFree->size = pCur->base + pCur->size - newFree->base;
  83:src/alloc.cpp ****             assert(newFree->size % MEM_BLOCK_SIZE == 0 && (uint64)newFree->base % MEM_BLOCK_SIZE ==
  84:src/alloc.cpp ****                    ((uint64) newFree) % MEM_BLOCK_SIZE == 0);
  85:src/alloc.cpp **** 
  86:src/alloc.cpp ****             newFree->pNext = pCur->pNext; // replace pCur with the new one
  87:src/alloc.cpp **** 
  88:src/alloc.cpp ****             if(pPrev) // ???
  89:src/alloc.cpp ****                 pPrev->pNext = newFree;
  90:src/alloc.cpp ****             else
  91:src/alloc.cpp ****             {
  92:src/alloc.cpp ****                 assert(pCur == pFreeHead);
  93:src/alloc.cpp ****                 pFreeHead = newFree;
  94:src/alloc.cpp ****             }
  95:src/alloc.cpp **** 
  96:src/alloc.cpp ****             TakenNode* newTaken = (TakenNode*)pCur;
  97:src/alloc.cpp ****             newTaken->pNext = pTakenHead;
  98:src/alloc.cpp ****             newTaken->base = pCur->base;
  99:src/alloc.cpp ****             newTaken->size = usableSize;
 100:src/alloc.cpp ****             newTaken->pNext = pTakenHead;
 101:src/alloc.cpp ****             pTakenHead = newTaken;
 102:src/alloc.cpp **** 
 103:src/alloc.cpp ****             void *ret = newTaken->base;
 104:src/alloc.cpp ****             return ret;
 105:src/alloc.cpp ****         }
 106:src/alloc.cpp **** 
 107:src/alloc.cpp ****         pPrev = pCur;
 584              		.loc 1 107 9 is_stmt 1
 585              	.LVL72:
 108:src/alloc.cpp ****         pCur = pCur->pNext;
 586              		.loc 1 108 9
 107:src/alloc.cpp ****         pCur = pCur->pNext;
 587              		.loc 1 107 15 is_stmt 0
 588 03e8 138B0400 		mv	s6,s1
 589              		.loc 1 108 14
 590 03ec 83B40400 		ld	s1,0(s1)
 591              	.LVL73:
 592              	.L35:
 593              	.LBE42:
  69:src/alloc.cpp ****     {
 594              		.loc 1 69 5 is_stmt 1
  69:src/alloc.cpp ****     {
 595              		.loc 1 69 16
 596 03f0 63820422 		beqz	s1,.L24
 597              	.LBB62:
  71:src/alloc.cpp ****                pCur->size % MEM_BLOCK_SIZE == 0); // check for alignment errors
 598              		.loc 1 71 9
 599 03f4 83B70401 		ld	a5,16(s1)
 600 03f8 93F7F703 		andi	a5,a5,63
 601 03fc E39C07F8 		bnez	a5,.L38
  71:src/alloc.cpp ****                pCur->size % MEM_BLOCK_SIZE == 0); // check for alignment errors
 602              		.loc 1 71 9 is_stmt 0 discriminator 1
 603 0400 83B78400 		ld	a5,8(s1)
 604 0404 93F7F703 		andi	a5,a5,63
GAS LISTING /tmp/ccv6HJzi.s 			page 16


 605 0408 63860700 		beqz	a5,.L39
  71:src/alloc.cpp ****                pCur->size % MEM_BLOCK_SIZE == 0); // check for alignment errors
 606              		.loc 1 71 9
 607 040c 93070000 		li	a5,0
 608 0410 6FF09FF8 		j	.L25
 609              	.L39:
 610 0414 93071000 		li	a5,1
 611 0418 6FF01FF8 		j	.L25
 612              	.LVL74:
 613              	.L45:
 614              	.LBB59:
 615              	.LBB45:
  23:src/../h/../h/my_console.h ****     putString(file);
 616              		.loc 2 23 5 is_stmt 1
  23:src/../h/../h/my_console.h ****     putString(file);
 617              		.loc 2 23 14 is_stmt 0
 618 041c 17050000 		lla	a0,.LC0
 618      13050500 
 619 0424 97000000 		call	_Z9putStringPKc@plt
 619      E7800000 
 620              	.LVL75:
  24:src/../h/../h/my_console.h ****     putString("    line: ");
 621              		.loc 2 24 5 is_stmt 1
  24:src/../h/../h/my_console.h ****     putString("    line: ");
 622              		.loc 2 24 14 is_stmt 0
 623 042c 17050000 		lla	a0,.LC1
 623      13050500 
 624 0434 97000000 		call	_Z9putStringPKc@plt
 624      E7800000 
 625              	.LVL76:
  25:src/../h/../h/my_console.h ****     putInt(line);
 626              		.loc 2 25 5 is_stmt 1
  25:src/../h/../h/my_console.h ****     putInt(line);
 627              		.loc 2 25 14 is_stmt 0
 628 043c 17050000 		lla	a0,.LC2
 628      13050500 
 629 0444 97000000 		call	_Z9putStringPKc@plt
 629      E7800000 
 630              	.LVL77:
  26:src/../h/../h/my_console.h ****     putString("   ===========================");
 631              		.loc 2 26 5 is_stmt 1
  26:src/../h/../h/my_console.h ****     putString("   ===========================");
 632              		.loc 2 26 11 is_stmt 0
 633 044c 13057004 		li	a0,71
 634 0450 97000000 		call	_Z6putInti@plt
 634      E7800000 
 635              	.LVL78:
  27:src/../h/../h/my_console.h ****     putNewline();
 636              		.loc 2 27 5 is_stmt 1
  27:src/../h/../h/my_console.h ****     putNewline();
 637              		.loc 2 27 14 is_stmt 0
 638 0458 17050000 		lla	a0,.LC3
 638      13050500 
 639 0460 97000000 		call	_Z9putStringPKc@plt
 639      E7800000 
 640              	.LVL79:
  28:src/../h/../h/my_console.h **** 
GAS LISTING /tmp/ccv6HJzi.s 			page 17


 641              		.loc 2 28 5 is_stmt 1
  28:src/../h/../h/my_console.h **** 
 642              		.loc 2 28 15 is_stmt 0
 643 0468 97000000 		call	_Z10putNewlinev@plt
 643      E7800000 
 644              	.LVL80:
 645              		.loc 2 30 5 is_stmt 1
 646              		.loc 2 30 15 is_stmt 0
 647 0470 97000000 		call	_Z10stopKernelv@plt
 647      E7800000 
 648              	.LVL81:
 649 0478 6FF05FF2 		j	.L26
 650              	.LVL82:
 651              	.L46:
 652              	.LBE45:
 653              	.LBE59:
 654              	.LBB60:
 655              	.LBB48:
  23:src/../h/../h/my_console.h ****     putString(file);
 656              		.loc 2 23 5 is_stmt 1
  23:src/../h/../h/my_console.h ****     putString(file);
 657              		.loc 2 23 14 is_stmt 0
 658 047c 17050000 		lla	a0,.LC0
 658      13050500 
 659 0484 97000000 		call	_Z9putStringPKc@plt
 659      E7800000 
 660              	.LVL83:
  24:src/../h/../h/my_console.h ****     putString("    line: ");
 661              		.loc 2 24 5 is_stmt 1
  24:src/../h/../h/my_console.h ****     putString("    line: ");
 662              		.loc 2 24 14 is_stmt 0
 663 048c 17050000 		lla	a0,.LC1
 663      13050500 
 664 0494 97000000 		call	_Z9putStringPKc@plt
 664      E7800000 
 665              	.LVL84:
  25:src/../h/../h/my_console.h ****     putInt(line);
 666              		.loc 2 25 5 is_stmt 1
  25:src/../h/../h/my_console.h ****     putInt(line);
 667              		.loc 2 25 14 is_stmt 0
 668 049c 17050000 		lla	a0,.LC2
 668      13050500 
 669 04a4 97000000 		call	_Z9putStringPKc@plt
 669      E7800000 
 670              	.LVL85:
  26:src/../h/../h/my_console.h ****     putString("   ===========================");
 671              		.loc 2 26 5 is_stmt 1
  26:src/../h/../h/my_console.h ****     putString("   ===========================");
 672              		.loc 2 26 11 is_stmt 0
 673 04ac 13059004 		li	a0,73
 674 04b0 97000000 		call	_Z6putInti@plt
 674      E7800000 
 675              	.LVL86:
  27:src/../h/../h/my_console.h ****     putNewline();
 676              		.loc 2 27 5 is_stmt 1
  27:src/../h/../h/my_console.h ****     putNewline();
 677              		.loc 2 27 14 is_stmt 0
GAS LISTING /tmp/ccv6HJzi.s 			page 18


 678 04b8 17050000 		lla	a0,.LC3
 678      13050500 
 679 04c0 97000000 		call	_Z9putStringPKc@plt
 679      E7800000 
 680              	.LVL87:
  28:src/../h/../h/my_console.h **** 
 681              		.loc 2 28 5 is_stmt 1
  28:src/../h/../h/my_console.h **** 
 682              		.loc 2 28 15 is_stmt 0
 683 04c8 97000000 		call	_Z10putNewlinev@plt
 683      E7800000 
 684              	.LVL88:
 685              		.loc 2 30 5 is_stmt 1
 686              		.loc 2 30 15 is_stmt 0
 687 04d0 97000000 		call	_Z10stopKernelv@plt
 687      E7800000 
 688              	.LVL89:
 689 04d8 6FF0DFEC 		j	.L27
 690              	.LVL90:
 691              	.L47:
 692              	.LBE48:
 693              	.LBE60:
 694              	.LBB61:
 695              	.LBB50:
  82:src/alloc.cpp ****             assert(newFree->size % MEM_BLOCK_SIZE == 0 && (uint64)newFree->base % MEM_BLOCK_SIZE ==
 696              		.loc 1 82 13 is_stmt 1
  82:src/alloc.cpp ****             assert(newFree->size % MEM_BLOCK_SIZE == 0 && (uint64)newFree->base % MEM_BLOCK_SIZE ==
 697              		.loc 1 82 53 is_stmt 0
 698 04dc B387A740 		sub	a5,a5,a0
  82:src/alloc.cpp ****             assert(newFree->size % MEM_BLOCK_SIZE == 0 && (uint64)newFree->base % MEM_BLOCK_SIZE ==
 699              		.loc 1 82 27
 700 04e0 2334F900 		sd	a5,8(s2)
  83:src/alloc.cpp ****                    ((uint64) newFree) % MEM_BLOCK_SIZE == 0);
 701              		.loc 1 83 13 is_stmt 1
 702 04e4 93F7F703 		andi	a5,a5,63
 703 04e8 639E0700 		bnez	a5,.L40
  83:src/alloc.cpp ****                    ((uint64) newFree) % MEM_BLOCK_SIZE == 0);
 704              		.loc 1 83 13 is_stmt 0 discriminator 1
 705 04ec 9377F503 		andi	a5,a0,63
 706 04f0 63960704 		bnez	a5,.L41
  83:src/alloc.cpp ****                    ((uint64) newFree) % MEM_BLOCK_SIZE == 0);
 707              		.loc 1 83 13 discriminator 3
 708 04f4 1379F903 		andi	s2,s2,63
 709              	.LVL91:
 710 04f8 63180900 		bnez	s2,.L29
  83:src/alloc.cpp ****                    ((uint64) newFree) % MEM_BLOCK_SIZE == 0);
 711              		.loc 1 83 13
 712 04fc 93071000 		li	a5,1
 713 0500 6F008000 		j	.L29
 714              	.LVL92:
 715              	.L40:
 716 0504 93070000 		li	a5,0
 717              	.LVL93:
 718              	.L29:
 719              	.LBB51:
 720              	.LBB52:
  20:src/../h/../h/my_console.h ****         return;
GAS LISTING /tmp/ccv6HJzi.s 			page 19


 721              		.loc 2 20 5 is_stmt 1 discriminator 8
 722 0508 638E0702 		beqz	a5,.L48
 723              	.LVL94:
 724              	.L30:
 725              	.LBE52:
 726              	.LBE51:
  86:src/alloc.cpp **** 
 727              		.loc 1 86 13
  86:src/alloc.cpp **** 
 728              		.loc 1 86 36 is_stmt 0
 729 050c 83B70400 		ld	a5,0(s1)
  86:src/alloc.cpp **** 
 730              		.loc 1 86 28
 731 0510 23B0FA00 		sd	a5,0(s5)
  88:src/alloc.cpp ****                 pPrev->pNext = newFree;
 732              		.loc 1 88 13 is_stmt 1
 733 0514 63080B08 		beqz	s6,.L31
  89:src/alloc.cpp ****             else
 734              		.loc 1 89 17
  89:src/alloc.cpp ****             else
 735              		.loc 1 89 30 is_stmt 0
 736 0518 23305B01 		sd	s5,0(s6)
 737              	.L32:
  96:src/alloc.cpp ****             newTaken->pNext = pTakenHead;
 738              		.loc 1 96 13 is_stmt 1
 739              	.LVL95:
  97:src/alloc.cpp ****             newTaken->base = pCur->base;
 740              		.loc 1 97 13
  97:src/alloc.cpp ****             newTaken->base = pCur->base;
 741              		.loc 1 97 31 is_stmt 0
 742 051c 83B78900 		ld	a5,8(s3)
  97:src/alloc.cpp ****             newTaken->base = pCur->base;
 743              		.loc 1 97 29
 744 0520 23B0F400 		sd	a5,0(s1)
  98:src/alloc.cpp ****             newTaken->size = usableSize;
 745              		.loc 1 98 13 is_stmt 1
  99:src/alloc.cpp ****             newTaken->pNext = pTakenHead;
 746              		.loc 1 99 13
  99:src/alloc.cpp ****             newTaken->pNext = pTakenHead;
 747              		.loc 1 99 28 is_stmt 0
 748 0524 23B44401 		sd	s4,8(s1)
 100:src/alloc.cpp ****             pTakenHead = newTaken;
 749              		.loc 1 100 13 is_stmt 1
 100:src/alloc.cpp ****             pTakenHead = newTaken;
 750              		.loc 1 100 31 is_stmt 0
 751 0528 83B78900 		ld	a5,8(s3)
 100:src/alloc.cpp ****             pTakenHead = newTaken;
 752              		.loc 1 100 29
 753 052c 23B0F400 		sd	a5,0(s1)
 101:src/alloc.cpp **** 
 754              		.loc 1 101 13 is_stmt 1
 101:src/alloc.cpp **** 
 755              		.loc 1 101 24 is_stmt 0
 756 0530 23B49900 		sd	s1,8(s3)
 103:src/alloc.cpp ****             return ret;
 757              		.loc 1 103 13 is_stmt 1
 103:src/alloc.cpp ****             return ret;
GAS LISTING /tmp/ccv6HJzi.s 			page 20


 758              		.loc 1 103 19 is_stmt 0
 759 0534 83B40401 		ld	s1,16(s1)
 760              	.LVL96:
 104:src/alloc.cpp ****         }
 761              		.loc 1 104 13 is_stmt 1
 104:src/alloc.cpp ****         }
 762              		.loc 1 104 20 is_stmt 0
 763 0538 6F008013 		j	.L21
 764              	.LVL97:
 765              	.L41:
  83:src/alloc.cpp ****                    ((uint64) newFree) % MEM_BLOCK_SIZE == 0);
 766              		.loc 1 83 13
 767 053c 93070000 		li	a5,0
 768 0540 6FF09FFC 		j	.L29
 769              	.LVL98:
 770              	.L48:
 771              	.LBB54:
 772              	.LBB53:
  23:src/../h/../h/my_console.h ****     putString(file);
 773              		.loc 2 23 5 is_stmt 1
  23:src/../h/../h/my_console.h ****     putString(file);
 774              		.loc 2 23 14 is_stmt 0
 775 0544 17050000 		lla	a0,.LC0
 775      13050500 
 776 054c 97000000 		call	_Z9putStringPKc@plt
 776      E7800000 
 777              	.LVL99:
  24:src/../h/../h/my_console.h ****     putString("    line: ");
 778              		.loc 2 24 5 is_stmt 1
  24:src/../h/../h/my_console.h ****     putString("    line: ");
 779              		.loc 2 24 14 is_stmt 0
 780 0554 17050000 		lla	a0,.LC1
 780      13050500 
 781 055c 97000000 		call	_Z9putStringPKc@plt
 781      E7800000 
 782              	.LVL100:
  25:src/../h/../h/my_console.h ****     putInt(line);
 783              		.loc 2 25 5 is_stmt 1
  25:src/../h/../h/my_console.h ****     putInt(line);
 784              		.loc 2 25 14 is_stmt 0
 785 0564 17050000 		lla	a0,.LC2
 785      13050500 
 786 056c 97000000 		call	_Z9putStringPKc@plt
 786      E7800000 
 787              	.LVL101:
  26:src/../h/../h/my_console.h ****     putString("   ===========================");
 788              		.loc 2 26 5 is_stmt 1
  26:src/../h/../h/my_console.h ****     putString("   ===========================");
 789              		.loc 2 26 11 is_stmt 0
 790 0574 13053005 		li	a0,83
 791 0578 97000000 		call	_Z6putInti@plt
 791      E7800000 
 792              	.LVL102:
  27:src/../h/../h/my_console.h ****     putNewline();
 793              		.loc 2 27 5 is_stmt 1
  27:src/../h/../h/my_console.h ****     putNewline();
 794              		.loc 2 27 14 is_stmt 0
GAS LISTING /tmp/ccv6HJzi.s 			page 21


 795 0580 17050000 		lla	a0,.LC3
 795      13050500 
 796 0588 97000000 		call	_Z9putStringPKc@plt
 796      E7800000 
 797              	.LVL103:
  28:src/../h/../h/my_console.h **** 
 798              		.loc 2 28 5 is_stmt 1
  28:src/../h/../h/my_console.h **** 
 799              		.loc 2 28 15 is_stmt 0
 800 0590 97000000 		call	_Z10putNewlinev@plt
 800      E7800000 
 801              	.LVL104:
 802              		.loc 2 30 5 is_stmt 1
 803              		.loc 2 30 15 is_stmt 0
 804 0598 97000000 		call	_Z10stopKernelv@plt
 804      E7800000 
 805              	.LVL105:
 806 05a0 6FF0DFF6 		j	.L30
 807              	.LVL106:
 808              	.L31:
 809              	.LBE53:
 810              	.LBE54:
  92:src/alloc.cpp ****                 pFreeHead = newFree;
 811              		.loc 1 92 17 is_stmt 1
 812 05a4 83B70900 		ld	a5,0(s3)
 813              	.LVL107:
 814              	.LBB55:
 815              	.LBB56:
  20:src/../h/../h/my_console.h ****         return;
 816              		.loc 2 20 5
 817 05a8 63969700 		bne	a5,s1,.L49
 818              	.LVL108:
 819              	.L33:
 820              	.LBE56:
 821              	.LBE55:
  93:src/alloc.cpp ****             }
 822              		.loc 1 93 17
  93:src/alloc.cpp ****             }
 823              		.loc 1 93 27 is_stmt 0
 824 05ac 23B05901 		sd	s5,0(s3)
 825 05b0 6FF0DFF6 		j	.L32
 826              	.LVL109:
 827              	.L49:
 828              	.LBB58:
 829              	.LBB57:
  23:src/../h/../h/my_console.h ****     putString(file);
 830              		.loc 2 23 5 is_stmt 1
  23:src/../h/../h/my_console.h ****     putString(file);
 831              		.loc 2 23 14 is_stmt 0
 832 05b4 17050000 		lla	a0,.LC0
 832      13050500 
 833 05bc 97000000 		call	_Z9putStringPKc@plt
 833      E7800000 
 834              	.LVL110:
  24:src/../h/../h/my_console.h ****     putString("    line: ");
 835              		.loc 2 24 5 is_stmt 1
  24:src/../h/../h/my_console.h ****     putString("    line: ");
GAS LISTING /tmp/ccv6HJzi.s 			page 22


 836              		.loc 2 24 14 is_stmt 0
 837 05c4 17050000 		lla	a0,.LC1
 837      13050500 
 838 05cc 97000000 		call	_Z9putStringPKc@plt
 838      E7800000 
 839              	.LVL111:
  25:src/../h/../h/my_console.h ****     putInt(line);
 840              		.loc 2 25 5 is_stmt 1
  25:src/../h/../h/my_console.h ****     putInt(line);
 841              		.loc 2 25 14 is_stmt 0
 842 05d4 17050000 		lla	a0,.LC2
 842      13050500 
 843 05dc 97000000 		call	_Z9putStringPKc@plt
 843      E7800000 
 844              	.LVL112:
  26:src/../h/../h/my_console.h ****     putString("   ===========================");
 845              		.loc 2 26 5 is_stmt 1
  26:src/../h/../h/my_console.h ****     putString("   ===========================");
 846              		.loc 2 26 11 is_stmt 0
 847 05e4 1305C005 		li	a0,92
 848 05e8 97000000 		call	_Z6putInti@plt
 848      E7800000 
 849              	.LVL113:
  27:src/../h/../h/my_console.h ****     putNewline();
 850              		.loc 2 27 5 is_stmt 1
  27:src/../h/../h/my_console.h ****     putNewline();
 851              		.loc 2 27 14 is_stmt 0
 852 05f0 17050000 		lla	a0,.LC3
 852      13050500 
 853 05f8 97000000 		call	_Z9putStringPKc@plt
 853      E7800000 
 854              	.LVL114:
  28:src/../h/../h/my_console.h **** 
 855              		.loc 2 28 5 is_stmt 1
  28:src/../h/../h/my_console.h **** 
 856              		.loc 2 28 15 is_stmt 0
 857 0600 97000000 		call	_Z10putNewlinev@plt
 857      E7800000 
 858              	.LVL115:
 859              		.loc 2 30 5 is_stmt 1
 860              		.loc 2 30 15 is_stmt 0
 861 0608 97000000 		call	_Z10stopKernelv@plt
 861      E7800000 
 862              	.LVL116:
 863 0610 6FF0DFF9 		j	.L33
 864              	.LVL117:
 865              	.L24:
 866              	.LBE57:
 867              	.LBE58:
 868              	.LBE50:
 869              	.LBE61:
 870              	.LBE62:
 109:src/alloc.cpp ****     }
 110:src/alloc.cpp **** 
 111:src/alloc.cpp ****     assert(false); // there is no slot large enough
 871              		.loc 1 111 5 is_stmt 1
 872              	.LBB63:
GAS LISTING /tmp/ccv6HJzi.s 			page 23


 873              	.LBB64:
  20:src/../h/../h/my_console.h ****         return;
 874              		.loc 2 20 5
  23:src/../h/../h/my_console.h ****     putString(file);
 875              		.loc 2 23 5
  23:src/../h/../h/my_console.h ****     putString(file);
 876              		.loc 2 23 14 is_stmt 0
 877 0614 17050000 		lla	a0,.LC0
 877      13050500 
 878 061c 97000000 		call	_Z9putStringPKc@plt
 878      E7800000 
 879              	.LVL118:
  24:src/../h/../h/my_console.h ****     putString("    line: ");
 880              		.loc 2 24 5 is_stmt 1
  24:src/../h/../h/my_console.h ****     putString("    line: ");
 881              		.loc 2 24 14 is_stmt 0
 882 0624 17050000 		lla	a0,.LC1
 882      13050500 
 883 062c 97000000 		call	_Z9putStringPKc@plt
 883      E7800000 
 884              	.LVL119:
  25:src/../h/../h/my_console.h ****     putInt(line);
 885              		.loc 2 25 5 is_stmt 1
  25:src/../h/../h/my_console.h ****     putInt(line);
 886              		.loc 2 25 14 is_stmt 0
 887 0634 17050000 		lla	a0,.LC2
 887      13050500 
 888 063c 97000000 		call	_Z9putStringPKc@plt
 888      E7800000 
 889              	.LVL120:
  26:src/../h/../h/my_console.h ****     putString("   ===========================");
 890              		.loc 2 26 5 is_stmt 1
  26:src/../h/../h/my_console.h ****     putString("   ===========================");
 891              		.loc 2 26 11 is_stmt 0
 892 0644 1305F006 		li	a0,111
 893 0648 97000000 		call	_Z6putInti@plt
 893      E7800000 
 894              	.LVL121:
  27:src/../h/../h/my_console.h ****     putNewline();
 895              		.loc 2 27 5 is_stmt 1
  27:src/../h/../h/my_console.h ****     putNewline();
 896              		.loc 2 27 14 is_stmt 0
 897 0650 17050000 		lla	a0,.LC3
 897      13050500 
 898 0658 97000000 		call	_Z9putStringPKc@plt
 898      E7800000 
 899              	.LVL122:
  28:src/../h/../h/my_console.h **** 
 900              		.loc 2 28 5 is_stmt 1
  28:src/../h/../h/my_console.h **** 
 901              		.loc 2 28 15 is_stmt 0
 902 0660 97000000 		call	_Z10putNewlinev@plt
 902      E7800000 
 903              	.LVL123:
 904              		.loc 2 30 5 is_stmt 1
 905              		.loc 2 30 15 is_stmt 0
 906 0668 97000000 		call	_Z10stopKernelv@plt
GAS LISTING /tmp/ccv6HJzi.s 			page 24


 906      E7800000 
 907              	.LVL124:
 908              	.L21:
 909              	.LBE64:
 910              	.LBE63:
 112:src/alloc.cpp ****     return nullptr;
 113:src/alloc.cpp **** }
 911              		.loc 1 113 1
 912 0670 13850400 		mv	a0,s1
 913 0674 83308103 		ld	ra,56(sp)
 914              		.cfi_restore 1
 915 0678 03340103 		ld	s0,48(sp)
 916              		.cfi_restore 8
 917              		.cfi_def_cfa 2, 64
 918 067c 83348102 		ld	s1,40(sp)
 919              		.cfi_restore 9
 920 0680 03390102 		ld	s2,32(sp)
 921              		.cfi_restore 18
 922 0684 83398101 		ld	s3,24(sp)
 923              		.cfi_restore 19
 924              	.LVL125:
 925 0688 033A0101 		ld	s4,16(sp)
 926              		.cfi_restore 20
 927              	.LVL126:
 928 068c 833A8100 		ld	s5,8(sp)
 929              		.cfi_restore 21
 930 0690 033B0100 		ld	s6,0(sp)
 931              		.cfi_restore 22
 932              	.LVL127:
 933 0694 13010104 		addi	sp,sp,64
 934              		.cfi_def_cfa_offset 0
 935 0698 67800000 		jr	ra
 936              		.cfi_endproc
 937              	.LFE14:
 939              		.section	.rodata.str1.8
 940 0067 00       		.align	3
 941              	.LC4:
 942 0068 3D3D3D20 		.string	"=== Error: mem_free was maby given an incorrect adress?"
 942      4572726F 
 942      723A206D 
 942      656D5F66 
 942      72656520 
 943              		.text
 944              		.align	2
 945              		.globl	_ZN8MemAlloc7freeMemEPv
 947              	_ZN8MemAlloc7freeMemEPv:
 948              	.LFB15:
 114:src/alloc.cpp **** 
 115:src/alloc.cpp **** int MemAlloc::freeMem(void* p)
 116:src/alloc.cpp **** {
 949              		.loc 1 116 1 is_stmt 1
 950              		.cfi_startproc
 951              	.LVL128:
 952 069c 130101FD 		addi	sp,sp,-48
 953              		.cfi_def_cfa_offset 48
 954 06a0 23341102 		sd	ra,40(sp)
 955 06a4 23308102 		sd	s0,32(sp)
GAS LISTING /tmp/ccv6HJzi.s 			page 25


 956 06a8 233C9100 		sd	s1,24(sp)
 957 06ac 23382101 		sd	s2,16(sp)
 958 06b0 23343101 		sd	s3,8(sp)
 959 06b4 23304101 		sd	s4,0(sp)
 960              		.cfi_offset 1, -8
 961              		.cfi_offset 8, -16
 962              		.cfi_offset 9, -24
 963              		.cfi_offset 18, -32
 964              		.cfi_offset 19, -40
 965              		.cfi_offset 20, -48
 966 06b8 13040103 		addi	s0,sp,48
 967              		.cfi_def_cfa 8, 0
 968 06bc 13090500 		mv	s2,a0
 969 06c0 93890500 		mv	s3,a1
 117:src/alloc.cpp ****     TakenNode* pCur = pTakenHead;
 970              		.loc 1 117 5
 971              		.loc 1 117 16 is_stmt 0
 972 06c4 83348500 		ld	s1,8(a0)
 973              	.LVL129:
 118:src/alloc.cpp ****     TakenNode* pPrev = nullptr;
 974              		.loc 1 118 5 is_stmt 1
 975              		.loc 1 118 16 is_stmt 0
 976 06c8 130A0000 		li	s4,0
 977 06cc 6F000007 		j	.L58
 978              	.LVL130:
 979              	.L61:
 980              	.LBB74:
 981              	.LBB75:
 982              	.LBB76:
  23:src/../h/../h/my_console.h ****     putString(file);
 983              		.loc 2 23 5 is_stmt 1
  23:src/../h/../h/my_console.h ****     putString(file);
 984              		.loc 2 23 14 is_stmt 0
 985 06d0 17050000 		lla	a0,.LC0
 985      13050500 
 986              	.LVL131:
 987 06d8 97000000 		call	_Z9putStringPKc@plt
 987      E7800000 
 988              	.LVL132:
  24:src/../h/../h/my_console.h ****     putString("    line: ");
 989              		.loc 2 24 5 is_stmt 1
  24:src/../h/../h/my_console.h ****     putString("    line: ");
 990              		.loc 2 24 14 is_stmt 0
 991 06e0 17050000 		lla	a0,.LC1
 991      13050500 
 992 06e8 97000000 		call	_Z9putStringPKc@plt
 992      E7800000 
 993              	.LVL133:
  25:src/../h/../h/my_console.h ****     putInt(line);
 994              		.loc 2 25 5 is_stmt 1
  25:src/../h/../h/my_console.h ****     putInt(line);
 995              		.loc 2 25 14 is_stmt 0
 996 06f0 17050000 		lla	a0,.LC2
 996      13050500 
 997 06f8 97000000 		call	_Z9putStringPKc@plt
 997      E7800000 
 998              	.LVL134:
GAS LISTING /tmp/ccv6HJzi.s 			page 26


  26:src/../h/../h/my_console.h ****     putString("   ===========================");
 999              		.loc 2 26 5 is_stmt 1
  26:src/../h/../h/my_console.h ****     putString("   ===========================");
 1000              		.loc 2 26 11 is_stmt 0
 1001 0700 1305A007 		li	a0,122
 1002 0704 97000000 		call	_Z6putInti@plt
 1002      E7800000 
 1003              	.LVL135:
  27:src/../h/../h/my_console.h ****     putNewline();
 1004              		.loc 2 27 5 is_stmt 1
  27:src/../h/../h/my_console.h ****     putNewline();
 1005              		.loc 2 27 14 is_stmt 0
 1006 070c 17050000 		lla	a0,.LC3
 1006      13050500 
 1007 0714 97000000 		call	_Z9putStringPKc@plt
 1007      E7800000 
 1008              	.LVL136:
  28:src/../h/../h/my_console.h **** 
 1009              		.loc 2 28 5 is_stmt 1
  28:src/../h/../h/my_console.h **** 
 1010              		.loc 2 28 15 is_stmt 0
 1011 071c 97000000 		call	_Z10putNewlinev@plt
 1011      E7800000 
 1012              	.LVL137:
 1013              		.loc 2 30 5 is_stmt 1
 1014              		.loc 2 30 15 is_stmt 0
 1015 0724 97000000 		call	_Z10stopKernelv@plt
 1015      E7800000 
 1016              	.LVL138:
 1017              	.L52:
 1018              	.LBE76:
 1019              	.LBE75:
 119:src/alloc.cpp **** 
 120:src/alloc.cpp ****     while(pCur != nullptr)
 121:src/alloc.cpp ****     {
 122:src/alloc.cpp ****         assert((char*)alignBackward((uint64)pCur->base - MAX_NODE_SIZE, MEM_BLOCK_SIZE) == (char*)p
 123:src/alloc.cpp ****         if(pCur->base == p)
 1020              		.loc 1 123 9 is_stmt 1
 1021              	.LBB78:
 1022              		.loc 1 123 18 is_stmt 0
 1023 072c 83B70401 		ld	a5,16(s1)
 1024              		.loc 1 123 9
 1025 0730 63883703 		beq	a5,s3,.L60
 1026              	.LBE78:
 124:src/alloc.cpp ****         {
 125:src/alloc.cpp ****             // sta ako ne postoji pPrev? sta ako ne postoji pNext->pNext?
 126:src/alloc.cpp ****             if(pPrev) // ???
 127:src/alloc.cpp ****                 pPrev->pNext = pCur->pNext; // "delete" current taken block from the linked list
 128:src/alloc.cpp ****             else
 129:src/alloc.cpp ****             {
 130:src/alloc.cpp ****                 assert(pCur == pTakenHead);
 131:src/alloc.cpp ****                 pTakenHead = pCur->pNext;
 132:src/alloc.cpp ****             }
 133:src/alloc.cpp **** 
 134:src/alloc.cpp ****             FreeNode* newFree = (FreeNode*)alignBackward(((uint64)p) - MAX_NODE_SIZE, MEM_BLOCK_SIZ
 135:src/alloc.cpp ****             newFree->size = pCur->size;
 136:src/alloc.cpp ****             newFree->base = pCur->base;
GAS LISTING /tmp/ccv6HJzi.s 			page 27


 137:src/alloc.cpp ****             newFree->pNext = pFreeHead;
 138:src/alloc.cpp ****             pFreeHead = newFree;
 139:src/alloc.cpp **** 
 140:src/alloc.cpp ****             return 0; // zero signifies sucesss
 141:src/alloc.cpp ****         }
 142:src/alloc.cpp **** 
 143:src/alloc.cpp ****         pPrev = pCur;
 1027              		.loc 1 143 9 is_stmt 1
 1028              	.LVL139:
 144:src/alloc.cpp ****         pCur = pCur->pNext;
 1029              		.loc 1 144 9
 143:src/alloc.cpp ****         pCur = pCur->pNext;
 1030              		.loc 1 143 15 is_stmt 0
 1031 0734 138A0400 		mv	s4,s1
 1032              		.loc 1 144 14
 1033 0738 83B40400 		ld	s1,0(s1)
 1034              	.LVL140:
 1035              	.L58:
 1036              	.LBE74:
 120:src/alloc.cpp ****     {
 1037              		.loc 1 120 5 is_stmt 1
 120:src/alloc.cpp ****     {
 1038              		.loc 1 120 16
 1039 073c 638E040C 		beqz	s1,.L51
 1040              	.LBB86:
 122:src/alloc.cpp ****         if(pCur->base == p)
 1041              		.loc 1 122 9
 1042 0740 03B50401 		ld	a0,16(s1)
 1043 0744 83370901 		ld	a5,16(s2)
 1044 0748 93050004 		li	a1,64
 1045 074c 3305F540 		sub	a0,a0,a5
 1046 0750 97000000 		call	_Z13alignBackwardmm
 1046      E7800000 
 1047              	.LVL141:
 1048              	.LBB84:
 1049              	.LBB77:
  20:src/../h/../h/my_console.h ****         return;
 1050              		.loc 2 20 5
 1051 0758 E38AA4FC 		beq	s1,a0,.L52
 1052 075c 6FF05FF7 		j	.L61
 1053              	.LVL142:
 1054              	.L60:
 1055              	.LBE77:
 1056              	.LBE84:
 1057              	.LBB85:
 1058              	.LBB79:
 126:src/alloc.cpp ****                 pPrev->pNext = pCur->pNext; // "delete" current taken block from the linked list
 1059              		.loc 1 126 13
 1060 0760 63020A04 		beqz	s4,.L54
 127:src/alloc.cpp ****             else
 1061              		.loc 1 127 17
 127:src/alloc.cpp ****             else
 1062              		.loc 1 127 38 is_stmt 0
 1063 0764 83B70400 		ld	a5,0(s1)
 127:src/alloc.cpp ****             else
 1064              		.loc 1 127 30
 1065 0768 2330FA00 		sd	a5,0(s4)
GAS LISTING /tmp/ccv6HJzi.s 			page 28


 1066              	.L55:
 134:src/alloc.cpp ****             newFree->size = pCur->size;
 1067              		.loc 1 134 13 is_stmt 1
 134:src/alloc.cpp ****             newFree->size = pCur->size;
 1068              		.loc 1 134 72 is_stmt 0
 1069 076c 03350901 		ld	a0,16(s2)
 134:src/alloc.cpp ****             newFree->size = pCur->size;
 1070              		.loc 1 134 57
 1071 0770 93050004 		li	a1,64
 1072 0774 3385A940 		sub	a0,s3,a0
 1073 0778 97000000 		call	_Z13alignBackwardmm
 1073      E7800000 
 1074              	.LVL143:
 135:src/alloc.cpp ****             newFree->base = pCur->base;
 1075              		.loc 1 135 13 is_stmt 1
 135:src/alloc.cpp ****             newFree->base = pCur->base;
 1076              		.loc 1 135 35 is_stmt 0
 1077 0780 83B78400 		ld	a5,8(s1)
 135:src/alloc.cpp ****             newFree->base = pCur->base;
 1078              		.loc 1 135 27
 1079 0784 2334F500 		sd	a5,8(a0)
 136:src/alloc.cpp ****             newFree->pNext = pFreeHead;
 1080              		.loc 1 136 13 is_stmt 1
 136:src/alloc.cpp ****             newFree->pNext = pFreeHead;
 1081              		.loc 1 136 35 is_stmt 0
 1082 0788 83B70401 		ld	a5,16(s1)
 136:src/alloc.cpp ****             newFree->pNext = pFreeHead;
 1083              		.loc 1 136 27
 1084 078c 2338F500 		sd	a5,16(a0)
 137:src/alloc.cpp ****             pFreeHead = newFree;
 1085              		.loc 1 137 13 is_stmt 1
 137:src/alloc.cpp ****             pFreeHead = newFree;
 1086              		.loc 1 137 30 is_stmt 0
 1087 0790 83370900 		ld	a5,0(s2)
 137:src/alloc.cpp ****             pFreeHead = newFree;
 1088              		.loc 1 137 28
 1089 0794 2330F500 		sd	a5,0(a0)
 138:src/alloc.cpp **** 
 1090              		.loc 1 138 13 is_stmt 1
 138:src/alloc.cpp **** 
 1091              		.loc 1 138 23 is_stmt 0
 1092 0798 2330A900 		sd	a0,0(s2)
 140:src/alloc.cpp ****         }
 1093              		.loc 1 140 13 is_stmt 1
 140:src/alloc.cpp ****         }
 1094              		.loc 1 140 20 is_stmt 0
 1095 079c 13050000 		li	a0,0
 1096              	.LVL144:
 1097 07a0 6F00000F 		j	.L57
 1098              	.LVL145:
 1099              	.L54:
 130:src/alloc.cpp ****                 pTakenHead = pCur->pNext;
 1100              		.loc 1 130 17 is_stmt 1
 1101 07a4 83378900 		ld	a5,8(s2)
 1102              	.LVL146:
 1103              	.LBB80:
 1104              	.LBB81:
GAS LISTING /tmp/ccv6HJzi.s 			page 29


  20:src/../h/../h/my_console.h ****         return;
 1105              		.loc 2 20 5
 1106 07a8 63989700 		bne	a5,s1,.L62
 1107              	.LVL147:
 1108              	.L56:
 1109              	.LBE81:
 1110              	.LBE80:
 131:src/alloc.cpp ****             }
 1111              		.loc 1 131 17
 131:src/alloc.cpp ****             }
 1112              		.loc 1 131 36 is_stmt 0
 1113 07ac 83B70400 		ld	a5,0(s1)
 131:src/alloc.cpp ****             }
 1114              		.loc 1 131 28
 1115 07b0 2334F900 		sd	a5,8(s2)
 1116 07b4 6FF09FFB 		j	.L55
 1117              	.LVL148:
 1118              	.L62:
 1119              	.LBB83:
 1120              	.LBB82:
  23:src/../h/../h/my_console.h ****     putString(file);
 1121              		.loc 2 23 5 is_stmt 1
  23:src/../h/../h/my_console.h ****     putString(file);
 1122              		.loc 2 23 14 is_stmt 0
 1123 07b8 17050000 		lla	a0,.LC0
 1123      13050500 
 1124 07c0 97000000 		call	_Z9putStringPKc@plt
 1124      E7800000 
 1125              	.LVL149:
  24:src/../h/../h/my_console.h ****     putString("    line: ");
 1126              		.loc 2 24 5 is_stmt 1
  24:src/../h/../h/my_console.h ****     putString("    line: ");
 1127              		.loc 2 24 14 is_stmt 0
 1128 07c8 17050000 		lla	a0,.LC1
 1128      13050500 
 1129 07d0 97000000 		call	_Z9putStringPKc@plt
 1129      E7800000 
 1130              	.LVL150:
  25:src/../h/../h/my_console.h ****     putInt(line);
 1131              		.loc 2 25 5 is_stmt 1
  25:src/../h/../h/my_console.h ****     putInt(line);
 1132              		.loc 2 25 14 is_stmt 0
 1133 07d8 17050000 		lla	a0,.LC2
 1133      13050500 
 1134 07e0 97000000 		call	_Z9putStringPKc@plt
 1134      E7800000 
 1135              	.LVL151:
  26:src/../h/../h/my_console.h ****     putString("   ===========================");
 1136              		.loc 2 26 5 is_stmt 1
  26:src/../h/../h/my_console.h ****     putString("   ===========================");
 1137              		.loc 2 26 11 is_stmt 0
 1138 07e8 13052008 		li	a0,130
 1139 07ec 97000000 		call	_Z6putInti@plt
 1139      E7800000 
 1140              	.LVL152:
  27:src/../h/../h/my_console.h ****     putNewline();
 1141              		.loc 2 27 5 is_stmt 1
GAS LISTING /tmp/ccv6HJzi.s 			page 30


  27:src/../h/../h/my_console.h ****     putNewline();
 1142              		.loc 2 27 14 is_stmt 0
 1143 07f4 17050000 		lla	a0,.LC3
 1143      13050500 
 1144 07fc 97000000 		call	_Z9putStringPKc@plt
 1144      E7800000 
 1145              	.LVL153:
  28:src/../h/../h/my_console.h **** 
 1146              		.loc 2 28 5 is_stmt 1
  28:src/../h/../h/my_console.h **** 
 1147              		.loc 2 28 15 is_stmt 0
 1148 0804 97000000 		call	_Z10putNewlinev@plt
 1148      E7800000 
 1149              	.LVL154:
 1150              		.loc 2 30 5 is_stmt 1
 1151              		.loc 2 30 15 is_stmt 0
 1152 080c 97000000 		call	_Z10stopKernelv@plt
 1152      E7800000 
 1153              	.LVL155:
 1154 0814 6FF09FF9 		j	.L56
 1155              	.LVL156:
 1156              	.L51:
 1157              	.LBE82:
 1158              	.LBE83:
 1159              	.LBE79:
 1160              	.LBE85:
 1161              	.LBE86:
 145:src/alloc.cpp ****     }
 146:src/alloc.cpp **** 
 147:src/alloc.cpp ****     putString("=== Error: mem_free was maby given an incorrect adress?");
 1162              		.loc 1 147 5 is_stmt 1
 1163              		.loc 1 147 14 is_stmt 0
 1164 0818 17050000 		lla	a0,.LC4
 1164      13050500 
 1165 0820 97000000 		call	_Z9putStringPKc@plt
 1165      E7800000 
 1166              	.LVL157:
 148:src/alloc.cpp ****     putNewline();
 1167              		.loc 1 148 5 is_stmt 1
 1168              		.loc 1 148 15 is_stmt 0
 1169 0828 97000000 		call	_Z10putNewlinev@plt
 1169      E7800000 
 1170              	.LVL158:
 149:src/alloc.cpp ****     assert(false); // temp
 1171              		.loc 1 149 5 is_stmt 1
 1172              	.LBB87:
 1173              	.LBB88:
  20:src/../h/../h/my_console.h ****         return;
 1174              		.loc 2 20 5
  23:src/../h/../h/my_console.h ****     putString(file);
 1175              		.loc 2 23 5
  23:src/../h/../h/my_console.h ****     putString(file);
 1176              		.loc 2 23 14 is_stmt 0
 1177 0830 17050000 		lla	a0,.LC0
 1177      13050500 
 1178 0838 97000000 		call	_Z9putStringPKc@plt
 1178      E7800000 
GAS LISTING /tmp/ccv6HJzi.s 			page 31


 1179              	.LVL159:
  24:src/../h/../h/my_console.h ****     putString("    line: ");
 1180              		.loc 2 24 5 is_stmt 1
  24:src/../h/../h/my_console.h ****     putString("    line: ");
 1181              		.loc 2 24 14 is_stmt 0
 1182 0840 17050000 		lla	a0,.LC1
 1182      13050500 
 1183 0848 97000000 		call	_Z9putStringPKc@plt
 1183      E7800000 
 1184              	.LVL160:
  25:src/../h/../h/my_console.h ****     putInt(line);
 1185              		.loc 2 25 5 is_stmt 1
  25:src/../h/../h/my_console.h ****     putInt(line);
 1186              		.loc 2 25 14 is_stmt 0
 1187 0850 17050000 		lla	a0,.LC2
 1187      13050500 
 1188 0858 97000000 		call	_Z9putStringPKc@plt
 1188      E7800000 
 1189              	.LVL161:
  26:src/../h/../h/my_console.h ****     putString("   ===========================");
 1190              		.loc 2 26 5 is_stmt 1
  26:src/../h/../h/my_console.h ****     putString("   ===========================");
 1191              		.loc 2 26 11 is_stmt 0
 1192 0860 13055009 		li	a0,149
 1193 0864 97000000 		call	_Z6putInti@plt
 1193      E7800000 
 1194              	.LVL162:
  27:src/../h/../h/my_console.h ****     putNewline();
 1195              		.loc 2 27 5 is_stmt 1
  27:src/../h/../h/my_console.h ****     putNewline();
 1196              		.loc 2 27 14 is_stmt 0
 1197 086c 17050000 		lla	a0,.LC3
 1197      13050500 
 1198 0874 97000000 		call	_Z9putStringPKc@plt
 1198      E7800000 
 1199              	.LVL163:
  28:src/../h/../h/my_console.h **** 
 1200              		.loc 2 28 5 is_stmt 1
  28:src/../h/../h/my_console.h **** 
 1201              		.loc 2 28 15 is_stmt 0
 1202 087c 97000000 		call	_Z10putNewlinev@plt
 1202      E7800000 
 1203              	.LVL164:
 1204              		.loc 2 30 5 is_stmt 1
 1205              		.loc 2 30 15 is_stmt 0
 1206 0884 97000000 		call	_Z10stopKernelv@plt
 1206      E7800000 
 1207              	.LVL165:
 1208              	.LBE88:
 1209              	.LBE87:
 150:src/alloc.cpp ****     return -1; // negative values signify failure
 1210              		.loc 1 150 13
 1211 088c 1305F0FF 		li	a0,-1
 1212              	.LVL166:
 1213              	.L57:
 151:src/alloc.cpp **** }
 1214              		.loc 1 151 1
GAS LISTING /tmp/ccv6HJzi.s 			page 32


 1215 0890 83308102 		ld	ra,40(sp)
 1216              		.cfi_restore 1
 1217 0894 03340102 		ld	s0,32(sp)
 1218              		.cfi_restore 8
 1219              		.cfi_def_cfa 2, 48
 1220 0898 83348101 		ld	s1,24(sp)
 1221              		.cfi_restore 9
 1222              	.LVL167:
 1223 089c 03390101 		ld	s2,16(sp)
 1224              		.cfi_restore 18
 1225              	.LVL168:
 1226 08a0 83398100 		ld	s3,8(sp)
 1227              		.cfi_restore 19
 1228              	.LVL169:
 1229 08a4 033A0100 		ld	s4,0(sp)
 1230              		.cfi_restore 20
 1231              	.LVL170:
 1232 08a8 13010103 		addi	sp,sp,48
 1233              		.cfi_def_cfa_offset 0
 1234 08ac 67800000 		jr	ra
 1235              		.cfi_endproc
 1236              	.LFE15:
 1238              		.align	2
 1239              		.globl	_ZN8MemAlloc16getUserlandUsageEv
 1241              	_ZN8MemAlloc16getUserlandUsageEv:
 1242              	.LFB16:
 152:src/alloc.cpp **** 
 153:src/alloc.cpp **** uint64 MemAlloc::getUserlandUsage()
 154:src/alloc.cpp **** {
 1243              		.loc 1 154 1 is_stmt 1
 1244              		.cfi_startproc
 1245              	.LVL171:
 1246 08b0 130101FF 		addi	sp,sp,-16
 1247              		.cfi_def_cfa_offset 16
 1248 08b4 23348100 		sd	s0,8(sp)
 1249              		.cfi_offset 8, -8
 1250 08b8 13040101 		addi	s0,sp,16
 1251              		.cfi_def_cfa 8, 0
 155:src/alloc.cpp ****     uint64 ret = 0;
 1252              		.loc 1 155 5
 1253              	.LVL172:
 156:src/alloc.cpp ****     TakenNode *pCur = pTakenHead;
 1254              		.loc 1 156 5
 1255              		.loc 1 156 16 is_stmt 0
 1256 08bc 83378500 		ld	a5,8(a0)
 1257              	.LVL173:
 155:src/alloc.cpp ****     uint64 ret = 0;
 1258              		.loc 1 155 12
 1259 08c0 13050000 		li	a0,0
 1260              	.LVL174:
 1261              	.L65:
 157:src/alloc.cpp ****     while(pCur != nullptr)
 1262              		.loc 1 157 5 is_stmt 1
 1263              		.loc 1 157 16
 1264 08c4 638A0700 		beqz	a5,.L63
 158:src/alloc.cpp ****     {
 159:src/alloc.cpp ****         ret += pCur->size;
GAS LISTING /tmp/ccv6HJzi.s 			page 33


 1265              		.loc 1 159 9
 1266              		.loc 1 159 22 is_stmt 0
 1267 08c8 03B78700 		ld	a4,8(a5)
 1268              		.loc 1 159 13
 1269 08cc 3305E500 		add	a0,a0,a4
 1270              	.LVL175:
 160:src/alloc.cpp ****         pCur = pCur->pNext;
 1271              		.loc 1 160 9 is_stmt 1
 1272              		.loc 1 160 14 is_stmt 0
 1273 08d0 83B70700 		ld	a5,0(a5)
 1274              	.LVL176:
 157:src/alloc.cpp ****     while(pCur != nullptr)
 1275              		.loc 1 157 5
 1276 08d4 6FF01FFF 		j	.L65
 1277              	.L63:
 161:src/alloc.cpp ****     }
 162:src/alloc.cpp **** 
 163:src/alloc.cpp ****     return ret;
 164:src/alloc.cpp **** }...
 1278              		.loc 1 164 1
 1279 08d8 03348100 		ld	s0,8(sp)
 1280              		.cfi_restore 8
 1281              		.cfi_def_cfa 2, 16
 1282 08dc 13010101 		addi	sp,sp,16
 1283              		.cfi_def_cfa_offset 0
 1284 08e0 67800000 		jr	ra
 1285              		.cfi_endproc
 1286              	.LFE16:
 1288              		.section	.rodata.str1.8
 1289              		.align	3
 1290              	.LC5:
 1291 00a0 416C6C6F 		.string	"Allocated "
 1291      63617465 
 1291      642000
 1292 00ab 00000000 		.align	3
 1292      00
 1293              	.LC6:
 1294 00b0 20627974 		.string	" bytes are allocated for userland"
 1294      65732061 
 1294      72652061 
 1294      6C6C6F63 
 1294      61746564 
 1295              		.text
 1296              		.align	2
 1297              		.globl	_ZN8MemAlloc18printUserlandUsageEv
 1299              	_ZN8MemAlloc18printUserlandUsageEv:
 1300              	.LFB9:
  22:src/alloc.cpp **** {
 1301              		.loc 1 22 1 is_stmt 1
 1302              		.cfi_startproc
 1303              	.LVL177:
 1304 08e4 130101FE 		addi	sp,sp,-32
 1305              		.cfi_def_cfa_offset 32
 1306 08e8 233C1100 		sd	ra,24(sp)
 1307 08ec 23388100 		sd	s0,16(sp)
 1308 08f0 23349100 		sd	s1,8(sp)
 1309              		.cfi_offset 1, -8
GAS LISTING /tmp/ccv6HJzi.s 			page 34


 1310              		.cfi_offset 8, -16
 1311              		.cfi_offset 9, -24
 1312 08f4 13040102 		addi	s0,sp,32
 1313              		.cfi_def_cfa 8, 0
  23:src/alloc.cpp ****     uint64 a = getUserlandUsage();
 1314              		.loc 1 23 5
  23:src/alloc.cpp ****     uint64 a = getUserlandUsage();
 1315              		.loc 1 23 32 is_stmt 0
 1316 08f8 97000000 		call	_ZN8MemAlloc16getUserlandUsageEv
 1316      E7800000 
 1317              	.LVL178:
 1318 0900 93040500 		mv	s1,a0
 1319              	.LVL179:
  24:src/alloc.cpp ****     putString("Allocated ");
 1320              		.loc 1 24 5 is_stmt 1
  24:src/alloc.cpp ****     putString("Allocated ");
 1321              		.loc 1 24 14 is_stmt 0
 1322 0904 17050000 		lla	a0,.LC5
 1322      13050500 
 1323 090c 97000000 		call	_Z9putStringPKc@plt
 1323      E7800000 
 1324              	.LVL180:
  25:src/alloc.cpp ****     putU64(a);
 1325              		.loc 1 25 5 is_stmt 1
  25:src/alloc.cpp ****     putU64(a);
 1326              		.loc 1 25 11 is_stmt 0
 1327 0914 13850400 		mv	a0,s1
 1328 0918 97000000 		call	_Z6putU64m@plt
 1328      E7800000 
 1329              	.LVL181:
  26:src/alloc.cpp ****     putString(" bytes are allocated for userland");
 1330              		.loc 1 26 5 is_stmt 1
  26:src/alloc.cpp ****     putString(" bytes are allocated for userland");
 1331              		.loc 1 26 14 is_stmt 0
 1332 0920 17050000 		lla	a0,.LC6
 1332      13050500 
 1333 0928 97000000 		call	_Z9putStringPKc@plt
 1333      E7800000 
 1334              	.LVL182:
  27:src/alloc.cpp ****     putNewline();
 1335              		.loc 1 27 5 is_stmt 1
  27:src/alloc.cpp ****     putNewline();
 1336              		.loc 1 27 15 is_stmt 0
 1337 0930 97000000 		call	_Z10putNewlinev@plt
 1337      E7800000 
 1338              	.LVL183:
  28:src/alloc.cpp **** }
 1339              		.loc 1 28 1
 1340 0938 83308101 		ld	ra,24(sp)
 1341              		.cfi_restore 1
 1342 093c 03340101 		ld	s0,16(sp)
 1343              		.cfi_restore 8
 1344              		.cfi_def_cfa 2, 32
 1345 0940 83348100 		ld	s1,8(sp)
 1346              		.cfi_restore 9
 1347              	.LVL184:
 1348 0944 13010102 		addi	sp,sp,32
GAS LISTING /tmp/ccv6HJzi.s 			page 35


 1349              		.cfi_def_cfa_offset 0
 1350 0948 67800000 		jr	ra
 1351              		.cfi_endproc
 1352              	.LFE9:
 1354              		.bss
 1355              		.align	3
 1356              		.set	.LANCHOR0,. + 0
 1359              	_ZGVZN8MemAlloc3getEvE8instance:
 1360 0000 00000000 		.zero	8
 1360      00000000 
 1363              	_ZZN8MemAlloc3getEvE8instance:
 1364 0008 00000000 		.zero	24
 1364      00000000 
 1364      00000000 
 1364      00000000 
 1364      00000000 
 1365              		.text
 1366              	.Letext0:
 1367              		.file 3 "src/../h/../lib/hw.h"
 1368              		.file 4 "src/../h/alloc.h"
GAS LISTING /tmp/ccv6HJzi.s 			page 36


DEFINED SYMBOLS
                            *ABS*:0000000000000000 alloc.cpp
     /tmp/ccv6HJzi.s:23     .text:0000000000000000 _Z12alignForwardmm
     /tmp/ccv6HJzi.s:27     .text:0000000000000000 .L0 
     /tmp/ccv6HJzi.s:29     .text:0000000000000000 .L0 
     /tmp/ccv6HJzi.s:30     .text:0000000000000004 .L0 
     /tmp/ccv6HJzi.s:34     .text:0000000000000010 .L0 
     /tmp/ccv6HJzi.s:35     .text:0000000000000010 .L0 
     /tmp/ccv6HJzi.s:36     .text:0000000000000010 .L0 
     /tmp/ccv6HJzi.s:38     .text:0000000000000014 .L0 
     /tmp/ccv6HJzi.s:41     .text:0000000000000018 .L0 
     /tmp/ccv6HJzi.s:47     .text:000000000000001c .L0 
     /tmp/ccv6HJzi.s:53     .text:0000000000000020 .L0 
     /tmp/ccv6HJzi.s:54     .text:0000000000000020 .L0 
     /tmp/ccv6HJzi.s:56     .text:0000000000000024 .L0 
     /tmp/ccv6HJzi.s:58     .text:0000000000000028 .L0 
     /tmp/ccv6HJzi.s:59     .text:0000000000000028 .L0 
     /tmp/ccv6HJzi.s:65     .text:0000000000000030 .L0 
     /tmp/ccv6HJzi.s:66     .text:0000000000000030 .L0 
     /tmp/ccv6HJzi.s:68     .text:0000000000000038 .L0 
     /tmp/ccv6HJzi.s:69     .text:0000000000000038 .L0 
     /tmp/ccv6HJzi.s:71     .text:000000000000003c .L0 
     /tmp/ccv6HJzi.s:72     .text:000000000000003c .L0 
     /tmp/ccv6HJzi.s:74     .text:0000000000000040 .L0 
     /tmp/ccv6HJzi.s:77     .text:0000000000000044 .L0 
     /tmp/ccv6HJzi.s:81     .text:0000000000000048 .L0 
     /tmp/ccv6HJzi.s:85     .text:0000000000000048 .L0 
     /tmp/ccv6HJzi.s:86     .text:0000000000000048 .L0 
     /tmp/ccv6HJzi.s:90     .text:0000000000000058 .L0 
     /tmp/ccv6HJzi.s:91     .text:0000000000000058 .L0 
     /tmp/ccv6HJzi.s:95     .text:0000000000000068 .L0 
     /tmp/ccv6HJzi.s:96     .text:0000000000000068 .L0 
     /tmp/ccv6HJzi.s:100    .text:0000000000000078 .L0 
     /tmp/ccv6HJzi.s:101    .text:0000000000000078 .L0 
     /tmp/ccv6HJzi.s:105    .text:0000000000000084 .L0 
     /tmp/ccv6HJzi.s:106    .text:0000000000000084 .L0 
     /tmp/ccv6HJzi.s:110    .text:0000000000000094 .L0 
     /tmp/ccv6HJzi.s:111    .text:0000000000000094 .L0 
     /tmp/ccv6HJzi.s:114    .text:000000000000009c .L0 
     /tmp/ccv6HJzi.s:115    .text:000000000000009c .L0 
     /tmp/ccv6HJzi.s:120    .text:00000000000000a8 .L0 
     /tmp/ccv6HJzi.s:126    .text:00000000000000a8 _Z13alignBackwardmm
     /tmp/ccv6HJzi.s:129    .text:00000000000000a8 .L0 
     /tmp/ccv6HJzi.s:131    .text:00000000000000a8 .L0 
     /tmp/ccv6HJzi.s:132    .text:00000000000000ac .L0 
     /tmp/ccv6HJzi.s:136    .text:00000000000000b8 .L0 
     /tmp/ccv6HJzi.s:137    .text:00000000000000b8 .L0 
     /tmp/ccv6HJzi.s:138    .text:00000000000000b8 .L0 
     /tmp/ccv6HJzi.s:140    .text:00000000000000bc .L0 
     /tmp/ccv6HJzi.s:143    .text:00000000000000c0 .L0 
     /tmp/ccv6HJzi.s:148    .text:00000000000000c4 .L0 
     /tmp/ccv6HJzi.s:154    .text:00000000000000c8 .L0 
     /tmp/ccv6HJzi.s:155    .text:00000000000000c8 .L0 
     /tmp/ccv6HJzi.s:156    .text:00000000000000c8 .L0 
     /tmp/ccv6HJzi.s:158    .text:00000000000000d0 .L0 
     /tmp/ccv6HJzi.s:159    .text:00000000000000d0 .L0 
     /tmp/ccv6HJzi.s:161    .text:00000000000000d4 .L0 
GAS LISTING /tmp/ccv6HJzi.s 			page 37


     /tmp/ccv6HJzi.s:162    .text:00000000000000d4 .L0 
     /tmp/ccv6HJzi.s:164    .text:00000000000000d8 .L0 
     /tmp/ccv6HJzi.s:167    .text:00000000000000dc .L0 
     /tmp/ccv6HJzi.s:171    .text:00000000000000e0 .L0 
     /tmp/ccv6HJzi.s:175    .text:00000000000000e0 .L0 
     /tmp/ccv6HJzi.s:176    .text:00000000000000e0 .L0 
     /tmp/ccv6HJzi.s:180    .text:00000000000000f0 .L0 
     /tmp/ccv6HJzi.s:181    .text:00000000000000f0 .L0 
     /tmp/ccv6HJzi.s:185    .text:0000000000000100 .L0 
     /tmp/ccv6HJzi.s:186    .text:0000000000000100 .L0 
     /tmp/ccv6HJzi.s:190    .text:0000000000000110 .L0 
     /tmp/ccv6HJzi.s:191    .text:0000000000000110 .L0 
     /tmp/ccv6HJzi.s:195    .text:000000000000011c .L0 
     /tmp/ccv6HJzi.s:196    .text:000000000000011c .L0 
     /tmp/ccv6HJzi.s:200    .text:000000000000012c .L0 
     /tmp/ccv6HJzi.s:201    .text:000000000000012c .L0 
     /tmp/ccv6HJzi.s:204    .text:0000000000000134 .L0 
     /tmp/ccv6HJzi.s:205    .text:0000000000000134 .L0 
     /tmp/ccv6HJzi.s:210    .text:0000000000000140 .L0 
     /tmp/ccv6HJzi.s:216    .text:0000000000000140 _ZN8MemAllocC2Ev
     /tmp/ccv6HJzi.s:219    .text:0000000000000140 .L0 
     /tmp/ccv6HJzi.s:221    .text:0000000000000140 .L0 
     /tmp/ccv6HJzi.s:222    .text:0000000000000144 .L0 
     /tmp/ccv6HJzi.s:227    .text:0000000000000154 .L0 
     /tmp/ccv6HJzi.s:228    .text:0000000000000154 .L0 
     /tmp/ccv6HJzi.s:229    .text:0000000000000154 .L0 
     /tmp/ccv6HJzi.s:230    .text:0000000000000154 .L0 
     /tmp/ccv6HJzi.s:232    .text:0000000000000158 .L0 
     /tmp/ccv6HJzi.s:236    .text:000000000000015c .L0 
     /tmp/ccv6HJzi.s:239    .text:0000000000000164 .L0 
     /tmp/ccv6HJzi.s:240    .text:0000000000000164 .L0 
     /tmp/ccv6HJzi.s:247    .text:000000000000017c .L0 
     /tmp/ccv6HJzi.s:249    .text:0000000000000180 .L0 
     /tmp/ccv6HJzi.s:250    .text:0000000000000180 .L0 
     /tmp/ccv6HJzi.s:252    .text:0000000000000184 .L0 
     /tmp/ccv6HJzi.s:257    .text:0000000000000194 .L0 
     /tmp/ccv6HJzi.s:259    .text:0000000000000198 .L0 
     /tmp/ccv6HJzi.s:261    .text:000000000000019c .L0 
     /tmp/ccv6HJzi.s:262    .text:000000000000019c .L0 
     /tmp/ccv6HJzi.s:264    .text:00000000000001a0 .L0 
     /tmp/ccv6HJzi.s:266    .text:00000000000001a4 .L0 
     /tmp/ccv6HJzi.s:273    .text:00000000000001c0 .L0 
     /tmp/ccv6HJzi.s:275    .text:00000000000001c4 .L0 
     /tmp/ccv6HJzi.s:276    .text:00000000000001c4 .L0 
     /tmp/ccv6HJzi.s:278    .text:00000000000001c8 .L0 
     /tmp/ccv6HJzi.s:287    .text:00000000000001dc .L0 
     /tmp/ccv6HJzi.s:294    .text:00000000000001e0 .L0 
     /tmp/ccv6HJzi.s:295    .text:00000000000001e4 .L0 
     /tmp/ccv6HJzi.s:296    .text:00000000000001e4 .L0 
     /tmp/ccv6HJzi.s:298    .text:00000000000001e8 .L0 
     /tmp/ccv6HJzi.s:299    .text:00000000000001e8 .L0 
     /tmp/ccv6HJzi.s:301    .text:00000000000001ec .L0 
     /tmp/ccv6HJzi.s:304    .text:00000000000001f0 .L0 
     /tmp/ccv6HJzi.s:306    .text:00000000000001f4 .L0 
     /tmp/ccv6HJzi.s:310    .text:00000000000001f8 .L0 
     /tmp/ccv6HJzi.s:315    .text:00000000000001f8 .L0 
     /tmp/ccv6HJzi.s:316    .text:00000000000001f8 .L0 
GAS LISTING /tmp/ccv6HJzi.s 			page 38


     /tmp/ccv6HJzi.s:320    .text:0000000000000208 .L0 
     /tmp/ccv6HJzi.s:321    .text:0000000000000208 .L0 
     /tmp/ccv6HJzi.s:325    .text:0000000000000218 .L0 
     /tmp/ccv6HJzi.s:326    .text:0000000000000218 .L0 
     /tmp/ccv6HJzi.s:330    .text:0000000000000228 .L0 
     /tmp/ccv6HJzi.s:331    .text:0000000000000228 .L0 
     /tmp/ccv6HJzi.s:335    .text:0000000000000234 .L0 
     /tmp/ccv6HJzi.s:336    .text:0000000000000234 .L0 
     /tmp/ccv6HJzi.s:340    .text:0000000000000244 .L0 
     /tmp/ccv6HJzi.s:341    .text:0000000000000244 .L0 
     /tmp/ccv6HJzi.s:344    .text:000000000000024c .L0 
     /tmp/ccv6HJzi.s:345    .text:000000000000024c .L0 
     /tmp/ccv6HJzi.s:351    .text:0000000000000254 .L0 
     /tmp/ccv6HJzi.s:352    .text:0000000000000258 .L0 
     /tmp/ccv6HJzi.s:216    .text:0000000000000140 _ZN8MemAllocC1Ev
     /tmp/ccv6HJzi.s:360    .text:0000000000000258 _ZN8MemAlloc3getEv
     /tmp/ccv6HJzi.s:363    .text:0000000000000258 .L0 
     /tmp/ccv6HJzi.s:364    .text:0000000000000258 .L0 
     /tmp/ccv6HJzi.s:365    .text:0000000000000258 .L0 
     /tmp/ccv6HJzi.s:366    .text:0000000000000258 .L0 
     /tmp/ccv6HJzi.s:369    .text:0000000000000264 .L0 
     /tmp/ccv6HJzi.s:370    .text:0000000000000264 .L0 
     /tmp/ccv6HJzi.s:374    .text:0000000000000270 .L0 
     /tmp/ccv6HJzi.s:375    .text:0000000000000274 .L0 
     /tmp/ccv6HJzi.s:378    .text:000000000000027c .L0 
     /tmp/ccv6HJzi.s:379    .text:000000000000027c .L0 
     /tmp/ccv6HJzi.s:381    .text:0000000000000280 .L0 
     /tmp/ccv6HJzi.s:383    .text:0000000000000280 .L0 
     /tmp/ccv6HJzi.s:389    .text:000000000000029c .L0 
     /tmp/ccv6HJzi.s:390    .text:000000000000029c .L0 
     /tmp/ccv6HJzi.s:392    .text:00000000000002a8 .L0 
     /tmp/ccv6HJzi.s:394    .text:00000000000002ac .L0 
     /tmp/ccv6HJzi.s:395    .text:00000000000002ac .L0 
     /tmp/ccv6HJzi.s:397    .text:00000000000002b0 .L0 
     /tmp/ccv6HJzi.s:399    .text:00000000000002b4 .L0 
     /tmp/ccv6HJzi.s:405    .text:00000000000002b4 _ZN8MemAlloc8allocMemEm
     /tmp/ccv6HJzi.s:408    .text:00000000000002b4 .L0 
     /tmp/ccv6HJzi.s:410    .text:00000000000002b4 .L0 
     /tmp/ccv6HJzi.s:411    .text:00000000000002b8 .L0 
     /tmp/ccv6HJzi.s:420    .text:00000000000002d8 .L0 
     /tmp/ccv6HJzi.s:421    .text:00000000000002d8 .L0 
     /tmp/ccv6HJzi.s:422    .text:00000000000002d8 .L0 
     /tmp/ccv6HJzi.s:423    .text:00000000000002d8 .L0 
     /tmp/ccv6HJzi.s:424    .text:00000000000002d8 .L0 
     /tmp/ccv6HJzi.s:425    .text:00000000000002d8 .L0 
     /tmp/ccv6HJzi.s:426    .text:00000000000002d8 .L0 
     /tmp/ccv6HJzi.s:427    .text:00000000000002d8 .L0 
     /tmp/ccv6HJzi.s:429    .text:00000000000002dc .L0 
     /tmp/ccv6HJzi.s:434    .text:00000000000002e4 .L0 
     /tmp/ccv6HJzi.s:435    .text:00000000000002e4 .L0 
     /tmp/ccv6HJzi.s:442    .text:00000000000002f4 .L0 
     /tmp/ccv6HJzi.s:443    .text:00000000000002f4 .L0 
     /tmp/ccv6HJzi.s:444    .text:00000000000002f4 .L0 
     /tmp/ccv6HJzi.s:447    .text:00000000000002f8 .L0 
     /tmp/ccv6HJzi.s:452    .text:0000000000000308 .L0 
     /tmp/ccv6HJzi.s:455    .text:0000000000000310 .L0 
     /tmp/ccv6HJzi.s:459    .text:0000000000000318 .L0 
GAS LISTING /tmp/ccv6HJzi.s 			page 39


     /tmp/ccv6HJzi.s:469    .text:0000000000000324 .L0 
     /tmp/ccv6HJzi.s:475    .text:0000000000000328 .L0 
     /tmp/ccv6HJzi.s:476    .text:0000000000000328 .L0 
     /tmp/ccv6HJzi.s:477    .text:0000000000000328 .L0 
     /tmp/ccv6HJzi.s:480    .text:000000000000032c .L0 
     /tmp/ccv6HJzi.s:481    .text:000000000000032c .L0 
     /tmp/ccv6HJzi.s:488    .text:0000000000000334 .L0 
     /tmp/ccv6HJzi.s:489    .text:0000000000000334 .L0 
     /tmp/ccv6HJzi.s:493    .text:0000000000000344 .L0 
     /tmp/ccv6HJzi.s:494    .text:0000000000000344 .L0 
     /tmp/ccv6HJzi.s:498    .text:0000000000000354 .L0 
     /tmp/ccv6HJzi.s:499    .text:0000000000000354 .L0 
     /tmp/ccv6HJzi.s:503    .text:0000000000000364 .L0 
     /tmp/ccv6HJzi.s:504    .text:0000000000000364 .L0 
     /tmp/ccv6HJzi.s:508    .text:0000000000000370 .L0 
     /tmp/ccv6HJzi.s:509    .text:0000000000000370 .L0 
     /tmp/ccv6HJzi.s:513    .text:0000000000000380 .L0 
     /tmp/ccv6HJzi.s:514    .text:0000000000000380 .L0 
     /tmp/ccv6HJzi.s:517    .text:0000000000000388 .L0 
     /tmp/ccv6HJzi.s:518    .text:0000000000000388 .L0 
     /tmp/ccv6HJzi.s:527    .text:0000000000000394 .L0 
     /tmp/ccv6HJzi.s:533    .text:0000000000000398 .L0 
     /tmp/ccv6HJzi.s:539    .text:000000000000039c .L0 
     /tmp/ccv6HJzi.s:544    .text:00000000000003a0 .L0 
     /tmp/ccv6HJzi.s:550    .text:00000000000003a4 .L0 
     /tmp/ccv6HJzi.s:551    .text:00000000000003a4 .L0 
     /tmp/ccv6HJzi.s:552    .text:00000000000003a4 .L0 
     /tmp/ccv6HJzi.s:554    .text:00000000000003a8 .L0 
     /tmp/ccv6HJzi.s:560    .text:00000000000003bc .L0 
     /tmp/ccv6HJzi.s:563    .text:00000000000003c0 .L0 
     /tmp/ccv6HJzi.s:564    .text:00000000000003c0 .L0 
     /tmp/ccv6HJzi.s:567    .text:00000000000003c4 .L0 
     /tmp/ccv6HJzi.s:572    .text:00000000000003d4 .L0 
     /tmp/ccv6HJzi.s:575    .text:00000000000003d8 .L0 
     /tmp/ccv6HJzi.s:576    .text:00000000000003d8 .L0 
     /tmp/ccv6HJzi.s:578    .text:00000000000003dc .L0 
     /tmp/ccv6HJzi.s:580    .text:00000000000003e0 .L0 
     /tmp/ccv6HJzi.s:582    .text:00000000000003e4 .L0 
     /tmp/ccv6HJzi.s:586    .text:00000000000003e8 .L0 
     /tmp/ccv6HJzi.s:587    .text:00000000000003e8 .L0 
     /tmp/ccv6HJzi.s:588    .text:00000000000003e8 .L0 
     /tmp/ccv6HJzi.s:590    .text:00000000000003ec .L0 
     /tmp/ccv6HJzi.s:595    .text:00000000000003f0 .L0 
     /tmp/ccv6HJzi.s:596    .text:00000000000003f0 .L0 
     /tmp/ccv6HJzi.s:599    .text:00000000000003f4 .L0 
     /tmp/ccv6HJzi.s:603    .text:0000000000000400 .L0 
     /tmp/ccv6HJzi.s:607    .text:000000000000040c .L0 
     /tmp/ccv6HJzi.s:617    .text:000000000000041c .L0 
     /tmp/ccv6HJzi.s:618    .text:000000000000041c .L0 
     /tmp/ccv6HJzi.s:622    .text:000000000000042c .L0 
     /tmp/ccv6HJzi.s:623    .text:000000000000042c .L0 
     /tmp/ccv6HJzi.s:627    .text:000000000000043c .L0 
     /tmp/ccv6HJzi.s:628    .text:000000000000043c .L0 
     /tmp/ccv6HJzi.s:632    .text:000000000000044c .L0 
     /tmp/ccv6HJzi.s:633    .text:000000000000044c .L0 
     /tmp/ccv6HJzi.s:637    .text:0000000000000458 .L0 
     /tmp/ccv6HJzi.s:638    .text:0000000000000458 .L0 
GAS LISTING /tmp/ccv6HJzi.s 			page 40


     /tmp/ccv6HJzi.s:642    .text:0000000000000468 .L0 
     /tmp/ccv6HJzi.s:643    .text:0000000000000468 .L0 
     /tmp/ccv6HJzi.s:646    .text:0000000000000470 .L0 
     /tmp/ccv6HJzi.s:647    .text:0000000000000470 .L0 
     /tmp/ccv6HJzi.s:657    .text:000000000000047c .L0 
     /tmp/ccv6HJzi.s:658    .text:000000000000047c .L0 
     /tmp/ccv6HJzi.s:662    .text:000000000000048c .L0 
     /tmp/ccv6HJzi.s:663    .text:000000000000048c .L0 
     /tmp/ccv6HJzi.s:667    .text:000000000000049c .L0 
     /tmp/ccv6HJzi.s:668    .text:000000000000049c .L0 
     /tmp/ccv6HJzi.s:672    .text:00000000000004ac .L0 
     /tmp/ccv6HJzi.s:673    .text:00000000000004ac .L0 
     /tmp/ccv6HJzi.s:677    .text:00000000000004b8 .L0 
     /tmp/ccv6HJzi.s:678    .text:00000000000004b8 .L0 
     /tmp/ccv6HJzi.s:682    .text:00000000000004c8 .L0 
     /tmp/ccv6HJzi.s:683    .text:00000000000004c8 .L0 
     /tmp/ccv6HJzi.s:686    .text:00000000000004d0 .L0 
     /tmp/ccv6HJzi.s:687    .text:00000000000004d0 .L0 
     /tmp/ccv6HJzi.s:697    .text:00000000000004dc .L0 
     /tmp/ccv6HJzi.s:698    .text:00000000000004dc .L0 
     /tmp/ccv6HJzi.s:700    .text:00000000000004e0 .L0 
     /tmp/ccv6HJzi.s:702    .text:00000000000004e4 .L0 
     /tmp/ccv6HJzi.s:705    .text:00000000000004ec .L0 
     /tmp/ccv6HJzi.s:708    .text:00000000000004f4 .L0 
     /tmp/ccv6HJzi.s:712    .text:00000000000004fc .L0 
     /tmp/ccv6HJzi.s:722    .text:0000000000000508 .L0 
     /tmp/ccv6HJzi.s:728    .text:000000000000050c .L0 
     /tmp/ccv6HJzi.s:729    .text:000000000000050c .L0 
     /tmp/ccv6HJzi.s:731    .text:0000000000000510 .L0 
     /tmp/ccv6HJzi.s:733    .text:0000000000000514 .L0 
     /tmp/ccv6HJzi.s:735    .text:0000000000000518 .L0 
     /tmp/ccv6HJzi.s:736    .text:0000000000000518 .L0 
     /tmp/ccv6HJzi.s:740    .text:000000000000051c .L0 
     /tmp/ccv6HJzi.s:741    .text:000000000000051c .L0 
     /tmp/ccv6HJzi.s:742    .text:000000000000051c .L0 
     /tmp/ccv6HJzi.s:744    .text:0000000000000520 .L0 
     /tmp/ccv6HJzi.s:746    .text:0000000000000524 .L0 
     /tmp/ccv6HJzi.s:747    .text:0000000000000524 .L0 
     /tmp/ccv6HJzi.s:748    .text:0000000000000524 .L0 
     /tmp/ccv6HJzi.s:750    .text:0000000000000528 .L0 
     /tmp/ccv6HJzi.s:751    .text:0000000000000528 .L0 
     /tmp/ccv6HJzi.s:753    .text:000000000000052c .L0 
     /tmp/ccv6HJzi.s:755    .text:0000000000000530 .L0 
     /tmp/ccv6HJzi.s:756    .text:0000000000000530 .L0 
     /tmp/ccv6HJzi.s:758    .text:0000000000000534 .L0 
     /tmp/ccv6HJzi.s:759    .text:0000000000000534 .L0 
     /tmp/ccv6HJzi.s:762    .text:0000000000000538 .L0 
     /tmp/ccv6HJzi.s:763    .text:0000000000000538 .L0 
     /tmp/ccv6HJzi.s:767    .text:000000000000053c .L0 
     /tmp/ccv6HJzi.s:774    .text:0000000000000544 .L0 
     /tmp/ccv6HJzi.s:775    .text:0000000000000544 .L0 
     /tmp/ccv6HJzi.s:779    .text:0000000000000554 .L0 
     /tmp/ccv6HJzi.s:780    .text:0000000000000554 .L0 
     /tmp/ccv6HJzi.s:784    .text:0000000000000564 .L0 
     /tmp/ccv6HJzi.s:785    .text:0000000000000564 .L0 
     /tmp/ccv6HJzi.s:789    .text:0000000000000574 .L0 
     /tmp/ccv6HJzi.s:790    .text:0000000000000574 .L0 
GAS LISTING /tmp/ccv6HJzi.s 			page 41


     /tmp/ccv6HJzi.s:794    .text:0000000000000580 .L0 
     /tmp/ccv6HJzi.s:795    .text:0000000000000580 .L0 
     /tmp/ccv6HJzi.s:799    .text:0000000000000590 .L0 
     /tmp/ccv6HJzi.s:800    .text:0000000000000590 .L0 
     /tmp/ccv6HJzi.s:803    .text:0000000000000598 .L0 
     /tmp/ccv6HJzi.s:804    .text:0000000000000598 .L0 
     /tmp/ccv6HJzi.s:812    .text:00000000000005a4 .L0 
     /tmp/ccv6HJzi.s:817    .text:00000000000005a8 .L0 
     /tmp/ccv6HJzi.s:823    .text:00000000000005ac .L0 
     /tmp/ccv6HJzi.s:824    .text:00000000000005ac .L0 
     /tmp/ccv6HJzi.s:831    .text:00000000000005b4 .L0 
     /tmp/ccv6HJzi.s:832    .text:00000000000005b4 .L0 
     /tmp/ccv6HJzi.s:836    .text:00000000000005c4 .L0 
     /tmp/ccv6HJzi.s:837    .text:00000000000005c4 .L0 
     /tmp/ccv6HJzi.s:841    .text:00000000000005d4 .L0 
     /tmp/ccv6HJzi.s:842    .text:00000000000005d4 .L0 
     /tmp/ccv6HJzi.s:846    .text:00000000000005e4 .L0 
     /tmp/ccv6HJzi.s:847    .text:00000000000005e4 .L0 
     /tmp/ccv6HJzi.s:851    .text:00000000000005f0 .L0 
     /tmp/ccv6HJzi.s:852    .text:00000000000005f0 .L0 
     /tmp/ccv6HJzi.s:856    .text:0000000000000600 .L0 
     /tmp/ccv6HJzi.s:857    .text:0000000000000600 .L0 
     /tmp/ccv6HJzi.s:860    .text:0000000000000608 .L0 
     /tmp/ccv6HJzi.s:861    .text:0000000000000608 .L0 
     /tmp/ccv6HJzi.s:874    .text:0000000000000614 .L0 
     /tmp/ccv6HJzi.s:875    .text:0000000000000614 .L0 
     /tmp/ccv6HJzi.s:876    .text:0000000000000614 .L0 
     /tmp/ccv6HJzi.s:877    .text:0000000000000614 .L0 
     /tmp/ccv6HJzi.s:881    .text:0000000000000624 .L0 
     /tmp/ccv6HJzi.s:882    .text:0000000000000624 .L0 
     /tmp/ccv6HJzi.s:886    .text:0000000000000634 .L0 
     /tmp/ccv6HJzi.s:887    .text:0000000000000634 .L0 
     /tmp/ccv6HJzi.s:891    .text:0000000000000644 .L0 
     /tmp/ccv6HJzi.s:892    .text:0000000000000644 .L0 
     /tmp/ccv6HJzi.s:896    .text:0000000000000650 .L0 
     /tmp/ccv6HJzi.s:897    .text:0000000000000650 .L0 
     /tmp/ccv6HJzi.s:901    .text:0000000000000660 .L0 
     /tmp/ccv6HJzi.s:902    .text:0000000000000660 .L0 
     /tmp/ccv6HJzi.s:905    .text:0000000000000668 .L0 
     /tmp/ccv6HJzi.s:906    .text:0000000000000668 .L0 
     /tmp/ccv6HJzi.s:912    .text:0000000000000670 .L0 
     /tmp/ccv6HJzi.s:914    .text:0000000000000678 .L0 
     /tmp/ccv6HJzi.s:916    .text:000000000000067c .L0 
     /tmp/ccv6HJzi.s:917    .text:000000000000067c .L0 
     /tmp/ccv6HJzi.s:919    .text:0000000000000680 .L0 
     /tmp/ccv6HJzi.s:921    .text:0000000000000684 .L0 
     /tmp/ccv6HJzi.s:923    .text:0000000000000688 .L0 
     /tmp/ccv6HJzi.s:926    .text:000000000000068c .L0 
     /tmp/ccv6HJzi.s:929    .text:0000000000000690 .L0 
     /tmp/ccv6HJzi.s:931    .text:0000000000000694 .L0 
     /tmp/ccv6HJzi.s:934    .text:0000000000000698 .L0 
     /tmp/ccv6HJzi.s:936    .text:000000000000069c .L0 
     /tmp/ccv6HJzi.s:947    .text:000000000000069c _ZN8MemAlloc7freeMemEPv
     /tmp/ccv6HJzi.s:950    .text:000000000000069c .L0 
     /tmp/ccv6HJzi.s:952    .text:000000000000069c .L0 
     /tmp/ccv6HJzi.s:953    .text:00000000000006a0 .L0 
     /tmp/ccv6HJzi.s:960    .text:00000000000006b8 .L0 
GAS LISTING /tmp/ccv6HJzi.s 			page 42


     /tmp/ccv6HJzi.s:961    .text:00000000000006b8 .L0 
     /tmp/ccv6HJzi.s:962    .text:00000000000006b8 .L0 
     /tmp/ccv6HJzi.s:963    .text:00000000000006b8 .L0 
     /tmp/ccv6HJzi.s:964    .text:00000000000006b8 .L0 
     /tmp/ccv6HJzi.s:965    .text:00000000000006b8 .L0 
     /tmp/ccv6HJzi.s:967    .text:00000000000006bc .L0 
     /tmp/ccv6HJzi.s:971    .text:00000000000006c4 .L0 
     /tmp/ccv6HJzi.s:972    .text:00000000000006c4 .L0 
     /tmp/ccv6HJzi.s:975    .text:00000000000006c8 .L0 
     /tmp/ccv6HJzi.s:976    .text:00000000000006c8 .L0 
     /tmp/ccv6HJzi.s:984    .text:00000000000006d0 .L0 
     /tmp/ccv6HJzi.s:985    .text:00000000000006d0 .L0 
     /tmp/ccv6HJzi.s:990    .text:00000000000006e0 .L0 
     /tmp/ccv6HJzi.s:991    .text:00000000000006e0 .L0 
     /tmp/ccv6HJzi.s:995    .text:00000000000006f0 .L0 
     /tmp/ccv6HJzi.s:996    .text:00000000000006f0 .L0 
     /tmp/ccv6HJzi.s:1000   .text:0000000000000700 .L0 
     /tmp/ccv6HJzi.s:1001   .text:0000000000000700 .L0 
     /tmp/ccv6HJzi.s:1005   .text:000000000000070c .L0 
     /tmp/ccv6HJzi.s:1006   .text:000000000000070c .L0 
     /tmp/ccv6HJzi.s:1010   .text:000000000000071c .L0 
     /tmp/ccv6HJzi.s:1011   .text:000000000000071c .L0 
     /tmp/ccv6HJzi.s:1014   .text:0000000000000724 .L0 
     /tmp/ccv6HJzi.s:1015   .text:0000000000000724 .L0 
     /tmp/ccv6HJzi.s:1022   .text:000000000000072c .L0 
     /tmp/ccv6HJzi.s:1023   .text:000000000000072c .L0 
     /tmp/ccv6HJzi.s:1025   .text:0000000000000730 .L0 
     /tmp/ccv6HJzi.s:1029   .text:0000000000000734 .L0 
     /tmp/ccv6HJzi.s:1030   .text:0000000000000734 .L0 
     /tmp/ccv6HJzi.s:1031   .text:0000000000000734 .L0 
     /tmp/ccv6HJzi.s:1033   .text:0000000000000738 .L0 
     /tmp/ccv6HJzi.s:1038   .text:000000000000073c .L0 
     /tmp/ccv6HJzi.s:1039   .text:000000000000073c .L0 
     /tmp/ccv6HJzi.s:1042   .text:0000000000000740 .L0 
     /tmp/ccv6HJzi.s:1051   .text:0000000000000758 .L0 
     /tmp/ccv6HJzi.s:1060   .text:0000000000000760 .L0 
     /tmp/ccv6HJzi.s:1062   .text:0000000000000764 .L0 
     /tmp/ccv6HJzi.s:1063   .text:0000000000000764 .L0 
     /tmp/ccv6HJzi.s:1065   .text:0000000000000768 .L0 
     /tmp/ccv6HJzi.s:1068   .text:000000000000076c .L0 
     /tmp/ccv6HJzi.s:1069   .text:000000000000076c .L0 
     /tmp/ccv6HJzi.s:1071   .text:0000000000000770 .L0 
     /tmp/ccv6HJzi.s:1076   .text:0000000000000780 .L0 
     /tmp/ccv6HJzi.s:1077   .text:0000000000000780 .L0 
     /tmp/ccv6HJzi.s:1079   .text:0000000000000784 .L0 
     /tmp/ccv6HJzi.s:1081   .text:0000000000000788 .L0 
     /tmp/ccv6HJzi.s:1082   .text:0000000000000788 .L0 
     /tmp/ccv6HJzi.s:1084   .text:000000000000078c .L0 
     /tmp/ccv6HJzi.s:1086   .text:0000000000000790 .L0 
     /tmp/ccv6HJzi.s:1087   .text:0000000000000790 .L0 
     /tmp/ccv6HJzi.s:1089   .text:0000000000000794 .L0 
     /tmp/ccv6HJzi.s:1091   .text:0000000000000798 .L0 
     /tmp/ccv6HJzi.s:1092   .text:0000000000000798 .L0 
     /tmp/ccv6HJzi.s:1094   .text:000000000000079c .L0 
     /tmp/ccv6HJzi.s:1095   .text:000000000000079c .L0 
     /tmp/ccv6HJzi.s:1101   .text:00000000000007a4 .L0 
     /tmp/ccv6HJzi.s:1106   .text:00000000000007a8 .L0 
GAS LISTING /tmp/ccv6HJzi.s 			page 43


     /tmp/ccv6HJzi.s:1112   .text:00000000000007ac .L0 
     /tmp/ccv6HJzi.s:1113   .text:00000000000007ac .L0 
     /tmp/ccv6HJzi.s:1115   .text:00000000000007b0 .L0 
     /tmp/ccv6HJzi.s:1122   .text:00000000000007b8 .L0 
     /tmp/ccv6HJzi.s:1123   .text:00000000000007b8 .L0 
     /tmp/ccv6HJzi.s:1127   .text:00000000000007c8 .L0 
     /tmp/ccv6HJzi.s:1128   .text:00000000000007c8 .L0 
     /tmp/ccv6HJzi.s:1132   .text:00000000000007d8 .L0 
     /tmp/ccv6HJzi.s:1133   .text:00000000000007d8 .L0 
     /tmp/ccv6HJzi.s:1137   .text:00000000000007e8 .L0 
     /tmp/ccv6HJzi.s:1138   .text:00000000000007e8 .L0 
     /tmp/ccv6HJzi.s:1142   .text:00000000000007f4 .L0 
     /tmp/ccv6HJzi.s:1143   .text:00000000000007f4 .L0 
     /tmp/ccv6HJzi.s:1147   .text:0000000000000804 .L0 
     /tmp/ccv6HJzi.s:1148   .text:0000000000000804 .L0 
     /tmp/ccv6HJzi.s:1151   .text:000000000000080c .L0 
     /tmp/ccv6HJzi.s:1152   .text:000000000000080c .L0 
     /tmp/ccv6HJzi.s:1163   .text:0000000000000818 .L0 
     /tmp/ccv6HJzi.s:1164   .text:0000000000000818 .L0 
     /tmp/ccv6HJzi.s:1168   .text:0000000000000828 .L0 
     /tmp/ccv6HJzi.s:1169   .text:0000000000000828 .L0 
     /tmp/ccv6HJzi.s:1174   .text:0000000000000830 .L0 
     /tmp/ccv6HJzi.s:1175   .text:0000000000000830 .L0 
     /tmp/ccv6HJzi.s:1176   .text:0000000000000830 .L0 
     /tmp/ccv6HJzi.s:1177   .text:0000000000000830 .L0 
     /tmp/ccv6HJzi.s:1181   .text:0000000000000840 .L0 
     /tmp/ccv6HJzi.s:1182   .text:0000000000000840 .L0 
     /tmp/ccv6HJzi.s:1186   .text:0000000000000850 .L0 
     /tmp/ccv6HJzi.s:1187   .text:0000000000000850 .L0 
     /tmp/ccv6HJzi.s:1191   .text:0000000000000860 .L0 
     /tmp/ccv6HJzi.s:1192   .text:0000000000000860 .L0 
     /tmp/ccv6HJzi.s:1196   .text:000000000000086c .L0 
     /tmp/ccv6HJzi.s:1197   .text:000000000000086c .L0 
     /tmp/ccv6HJzi.s:1201   .text:000000000000087c .L0 
     /tmp/ccv6HJzi.s:1202   .text:000000000000087c .L0 
     /tmp/ccv6HJzi.s:1205   .text:0000000000000884 .L0 
     /tmp/ccv6HJzi.s:1206   .text:0000000000000884 .L0 
     /tmp/ccv6HJzi.s:1211   .text:000000000000088c .L0 
     /tmp/ccv6HJzi.s:1215   .text:0000000000000890 .L0 
     /tmp/ccv6HJzi.s:1216   .text:0000000000000894 .L0 
     /tmp/ccv6HJzi.s:1218   .text:0000000000000898 .L0 
     /tmp/ccv6HJzi.s:1219   .text:0000000000000898 .L0 
     /tmp/ccv6HJzi.s:1221   .text:000000000000089c .L0 
     /tmp/ccv6HJzi.s:1224   .text:00000000000008a0 .L0 
     /tmp/ccv6HJzi.s:1227   .text:00000000000008a4 .L0 
     /tmp/ccv6HJzi.s:1230   .text:00000000000008a8 .L0 
     /tmp/ccv6HJzi.s:1233   .text:00000000000008ac .L0 
     /tmp/ccv6HJzi.s:1235   .text:00000000000008b0 .L0 
     /tmp/ccv6HJzi.s:1241   .text:00000000000008b0 _ZN8MemAlloc16getUserlandUsageEv
     /tmp/ccv6HJzi.s:1244   .text:00000000000008b0 .L0 
     /tmp/ccv6HJzi.s:1246   .text:00000000000008b0 .L0 
     /tmp/ccv6HJzi.s:1247   .text:00000000000008b4 .L0 
     /tmp/ccv6HJzi.s:1249   .text:00000000000008b8 .L0 
     /tmp/ccv6HJzi.s:1251   .text:00000000000008bc .L0 
     /tmp/ccv6HJzi.s:1254   .text:00000000000008bc .L0 
     /tmp/ccv6HJzi.s:1255   .text:00000000000008bc .L0 
     /tmp/ccv6HJzi.s:1256   .text:00000000000008bc .L0 
GAS LISTING /tmp/ccv6HJzi.s 			page 44


     /tmp/ccv6HJzi.s:1259   .text:00000000000008c0 .L0 
     /tmp/ccv6HJzi.s:1263   .text:00000000000008c4 .L0 
     /tmp/ccv6HJzi.s:1264   .text:00000000000008c4 .L0 
     /tmp/ccv6HJzi.s:1266   .text:00000000000008c8 .L0 
     /tmp/ccv6HJzi.s:1267   .text:00000000000008c8 .L0 
     /tmp/ccv6HJzi.s:1269   .text:00000000000008cc .L0 
     /tmp/ccv6HJzi.s:1272   .text:00000000000008d0 .L0 
     /tmp/ccv6HJzi.s:1273   .text:00000000000008d0 .L0 
     /tmp/ccv6HJzi.s:1276   .text:00000000000008d4 .L0 
     /tmp/ccv6HJzi.s:1279   .text:00000000000008d8 .L0 
     /tmp/ccv6HJzi.s:1280   .text:00000000000008dc .L0 
     /tmp/ccv6HJzi.s:1281   .text:00000000000008dc .L0 
     /tmp/ccv6HJzi.s:1283   .text:00000000000008e0 .L0 
     /tmp/ccv6HJzi.s:1285   .text:00000000000008e4 .L0 
     /tmp/ccv6HJzi.s:1299   .text:00000000000008e4 _ZN8MemAlloc18printUserlandUsageEv
     /tmp/ccv6HJzi.s:1302   .text:00000000000008e4 .L0 
     /tmp/ccv6HJzi.s:1304   .text:00000000000008e4 .L0 
     /tmp/ccv6HJzi.s:1305   .text:00000000000008e8 .L0 
     /tmp/ccv6HJzi.s:1309   .text:00000000000008f4 .L0 
     /tmp/ccv6HJzi.s:1310   .text:00000000000008f4 .L0 
     /tmp/ccv6HJzi.s:1311   .text:00000000000008f4 .L0 
     /tmp/ccv6HJzi.s:1313   .text:00000000000008f8 .L0 
     /tmp/ccv6HJzi.s:1315   .text:00000000000008f8 .L0 
     /tmp/ccv6HJzi.s:1316   .text:00000000000008f8 .L0 
     /tmp/ccv6HJzi.s:1321   .text:0000000000000904 .L0 
     /tmp/ccv6HJzi.s:1322   .text:0000000000000904 .L0 
     /tmp/ccv6HJzi.s:1326   .text:0000000000000914 .L0 
     /tmp/ccv6HJzi.s:1327   .text:0000000000000914 .L0 
     /tmp/ccv6HJzi.s:1331   .text:0000000000000920 .L0 
     /tmp/ccv6HJzi.s:1332   .text:0000000000000920 .L0 
     /tmp/ccv6HJzi.s:1336   .text:0000000000000930 .L0 
     /tmp/ccv6HJzi.s:1337   .text:0000000000000930 .L0 
     /tmp/ccv6HJzi.s:1340   .text:0000000000000938 .L0 
     /tmp/ccv6HJzi.s:1341   .text:000000000000093c .L0 
     /tmp/ccv6HJzi.s:1343   .text:0000000000000940 .L0 
     /tmp/ccv6HJzi.s:1344   .text:0000000000000940 .L0 
     /tmp/ccv6HJzi.s:1346   .text:0000000000000944 .L0 
     /tmp/ccv6HJzi.s:1349   .text:0000000000000948 .L0 
     /tmp/ccv6HJzi.s:1351   .text:000000000000094c .L0 
     /tmp/ccv6HJzi.s:1356   .bss:0000000000000000 .LANCHOR0
     /tmp/ccv6HJzi.s:1359   .bss:0000000000000000 _ZGVZN8MemAlloc3getEvE8instance
     /tmp/ccv6HJzi.s:1363   .bss:0000000000000008 _ZZN8MemAlloc3getEvE8instance
     /tmp/ccv6HJzi.s:1369   .text:000000000000094c .L0 
     /tmp/ccv6HJzi.s:8      .rodata.str1.8:0000000000000000 .LC0
     /tmp/ccv6HJzi.s:86     .text:0000000000000048 .L0 
     /tmp/ccv6HJzi.s:11     .rodata.str1.8:0000000000000028 .LC1
     /tmp/ccv6HJzi.s:91     .text:0000000000000058 .L0 
     /tmp/ccv6HJzi.s:14     .rodata.str1.8:0000000000000038 .LC2
     /tmp/ccv6HJzi.s:96     .text:0000000000000068 .L0 
     /tmp/ccv6HJzi.s:17     .rodata.str1.8:0000000000000048 .LC3
     /tmp/ccv6HJzi.s:106    .text:0000000000000084 .L0 
     /tmp/ccv6HJzi.s:176    .text:00000000000000e0 .L0 
     /tmp/ccv6HJzi.s:181    .text:00000000000000f0 .L0 
     /tmp/ccv6HJzi.s:186    .text:0000000000000100 .L0 
     /tmp/ccv6HJzi.s:196    .text:000000000000011c .L0 
     /tmp/ccv6HJzi.s:241    .text:0000000000000168 .L0 
     /tmp/ccv6HJzi.s:266    .text:00000000000001a4 .L0 
GAS LISTING /tmp/ccv6HJzi.s 			page 45


     /tmp/ccv6HJzi.s:316    .text:00000000000001f8 .L0 
     /tmp/ccv6HJzi.s:321    .text:0000000000000208 .L0 
     /tmp/ccv6HJzi.s:326    .text:0000000000000218 .L0 
     /tmp/ccv6HJzi.s:336    .text:0000000000000234 .L0 
     /tmp/ccv6HJzi.s:366    .text:0000000000000258 .L0 
     /tmp/ccv6HJzi.s:370    .text:0000000000000264 .L0 
     /tmp/ccv6HJzi.s:383    .text:0000000000000280 .L0 
     /tmp/ccv6HJzi.s:387    .text:0000000000000294 .L0 
     /tmp/ccv6HJzi.s:390    .text:000000000000029c .L0 
     /tmp/ccv6HJzi.s:489    .text:0000000000000334 .L0 
     /tmp/ccv6HJzi.s:494    .text:0000000000000344 .L0 
     /tmp/ccv6HJzi.s:499    .text:0000000000000354 .L0 
     /tmp/ccv6HJzi.s:509    .text:0000000000000370 .L0 
     /tmp/ccv6HJzi.s:618    .text:000000000000041c .L0 
     /tmp/ccv6HJzi.s:623    .text:000000000000042c .L0 
     /tmp/ccv6HJzi.s:628    .text:000000000000043c .L0 
     /tmp/ccv6HJzi.s:638    .text:0000000000000458 .L0 
     /tmp/ccv6HJzi.s:658    .text:000000000000047c .L0 
     /tmp/ccv6HJzi.s:663    .text:000000000000048c .L0 
     /tmp/ccv6HJzi.s:668    .text:000000000000049c .L0 
     /tmp/ccv6HJzi.s:678    .text:00000000000004b8 .L0 
     /tmp/ccv6HJzi.s:775    .text:0000000000000544 .L0 
     /tmp/ccv6HJzi.s:780    .text:0000000000000554 .L0 
     /tmp/ccv6HJzi.s:785    .text:0000000000000564 .L0 
     /tmp/ccv6HJzi.s:795    .text:0000000000000580 .L0 
     /tmp/ccv6HJzi.s:832    .text:00000000000005b4 .L0 
     /tmp/ccv6HJzi.s:837    .text:00000000000005c4 .L0 
     /tmp/ccv6HJzi.s:842    .text:00000000000005d4 .L0 
     /tmp/ccv6HJzi.s:852    .text:00000000000005f0 .L0 
     /tmp/ccv6HJzi.s:877    .text:0000000000000614 .L0 
     /tmp/ccv6HJzi.s:882    .text:0000000000000624 .L0 
     /tmp/ccv6HJzi.s:887    .text:0000000000000634 .L0 
     /tmp/ccv6HJzi.s:897    .text:0000000000000650 .L0 
     /tmp/ccv6HJzi.s:985    .text:00000000000006d0 .L0 
     /tmp/ccv6HJzi.s:991    .text:00000000000006e0 .L0 
     /tmp/ccv6HJzi.s:996    .text:00000000000006f0 .L0 
     /tmp/ccv6HJzi.s:1006   .text:000000000000070c .L0 
     /tmp/ccv6HJzi.s:1123   .text:00000000000007b8 .L0 
     /tmp/ccv6HJzi.s:1128   .text:00000000000007c8 .L0 
     /tmp/ccv6HJzi.s:1133   .text:00000000000007d8 .L0 
     /tmp/ccv6HJzi.s:1143   .text:00000000000007f4 .L0 
     /tmp/ccv6HJzi.s:941    .rodata.str1.8:0000000000000068 .LC4
     /tmp/ccv6HJzi.s:1164   .text:0000000000000818 .L0 
     /tmp/ccv6HJzi.s:1177   .text:0000000000000830 .L0 
     /tmp/ccv6HJzi.s:1182   .text:0000000000000840 .L0 
     /tmp/ccv6HJzi.s:1187   .text:0000000000000850 .L0 
     /tmp/ccv6HJzi.s:1197   .text:000000000000086c .L0 
     /tmp/ccv6HJzi.s:1290   .rodata.str1.8:00000000000000a0 .LC5
     /tmp/ccv6HJzi.s:1322   .text:0000000000000904 .L0 
     /tmp/ccv6HJzi.s:1293   .rodata.str1.8:00000000000000b0 .LC6
     /tmp/ccv6HJzi.s:1332   .text:0000000000000920 .L0 
     /tmp/ccv6HJzi.s:80     .text:0000000000000048 .L5
     /tmp/ccv6HJzi.s:63     .text:0000000000000030 .L3
     /tmp/ccv6HJzi.s:49     .text:0000000000000020 .L2
     /tmp/ccv6HJzi.s:170    .text:00000000000000e0 .L9
     /tmp/ccv6HJzi.s:150    .text:00000000000000c8 .L7
     /tmp/ccv6HJzi.s:309    .text:00000000000001f8 .L13
GAS LISTING /tmp/ccv6HJzi.s 			page 46


     /tmp/ccv6HJzi.s:289    .text:00000000000001e0 .L10
     /tmp/ccv6HJzi.s:372    .text:0000000000000270 .L20
     /tmp/ccv6HJzi.s:462    .text:0000000000000320 .L36
     /tmp/ccv6HJzi.s:465    .text:0000000000000324 .L22
     /tmp/ccv6HJzi.s:484    .text:0000000000000334 .L44
     /tmp/ccv6HJzi.s:592    .text:00000000000003f0 .L35
     /tmp/ccv6HJzi.s:471    .text:0000000000000328 .L23
     /tmp/ccv6HJzi.s:613    .text:000000000000041c .L45
     /tmp/ccv6HJzi.s:651    .text:000000000000047c .L46
     /tmp/ccv6HJzi.s:691    .text:00000000000004dc .L47
     /tmp/ccv6HJzi.s:865    .text:0000000000000614 .L24
     /tmp/ccv6HJzi.s:522    .text:0000000000000394 .L38
     /tmp/ccv6HJzi.s:609    .text:0000000000000414 .L39
     /tmp/ccv6HJzi.s:528    .text:0000000000000398 .L25
     /tmp/ccv6HJzi.s:535    .text:000000000000039c .L26
     /tmp/ccv6HJzi.s:546    .text:00000000000003a4 .L27
     /tmp/ccv6HJzi.s:715    .text:0000000000000504 .L40
     /tmp/ccv6HJzi.s:765    .text:000000000000053c .L41
     /tmp/ccv6HJzi.s:718    .text:0000000000000508 .L29
     /tmp/ccv6HJzi.s:770    .text:0000000000000544 .L48
     /tmp/ccv6HJzi.s:808    .text:00000000000005a4 .L31
     /tmp/ccv6HJzi.s:908    .text:0000000000000670 .L21
     /tmp/ccv6HJzi.s:724    .text:000000000000050c .L30
     /tmp/ccv6HJzi.s:827    .text:00000000000005b4 .L49
     /tmp/ccv6HJzi.s:737    .text:000000000000051c .L32
     /tmp/ccv6HJzi.s:819    .text:00000000000005ac .L33
     /tmp/ccv6HJzi.s:1035   .text:000000000000073c .L58
     /tmp/ccv6HJzi.s:1054   .text:0000000000000760 .L60
     /tmp/ccv6HJzi.s:1156   .text:0000000000000818 .L51
     /tmp/ccv6HJzi.s:1017   .text:000000000000072c .L52
     /tmp/ccv6HJzi.s:979    .text:00000000000006d0 .L61
     /tmp/ccv6HJzi.s:1099   .text:00000000000007a4 .L54
     /tmp/ccv6HJzi.s:1213   .text:0000000000000890 .L57
     /tmp/ccv6HJzi.s:1118   .text:00000000000007b8 .L62
     /tmp/ccv6HJzi.s:1066   .text:000000000000076c .L55
     /tmp/ccv6HJzi.s:1108   .text:00000000000007ac .L56
     /tmp/ccv6HJzi.s:1277   .text:00000000000008d8 .L63
     /tmp/ccv6HJzi.s:1261   .text:00000000000008c4 .L65
     /tmp/ccv6HJzi.s:3172   .debug_abbrev:0000000000000000 .Ldebug_abbrev0
     /tmp/ccv6HJzi.s:5092   .debug_str:0000000000000204 .LASF65
     /tmp/ccv6HJzi.s:5154   .debug_str:0000000000000456 .LASF66
     /tmp/ccv6HJzi.s:5030   .debug_str:0000000000000040 .LASF67
     /tmp/ccv6HJzi.s:5      .text:0000000000000000 .Ltext0
     /tmp/ccv6HJzi.s:1366   .text:000000000000094c .Letext0
     /tmp/ccv6HJzi.s:5016   .debug_line:0000000000000000 .Ldebug_line0
     /tmp/ccv6HJzi.s:5106   .debug_str:0000000000000309 .LASF0
     /tmp/ccv6HJzi.s:5074   .debug_str:0000000000000188 .LASF1
     /tmp/ccv6HJzi.s:5064   .debug_str:0000000000000137 .LASF2
     /tmp/ccv6HJzi.s:5038   .debug_str:000000000000007b .LASF4
     /tmp/ccv6HJzi.s:5072   .debug_str:0000000000000176 .LASF3
     /tmp/ccv6HJzi.s:5024   .debug_str:000000000000002d .LASF5
     /tmp/ccv6HJzi.s:5022   .debug_str:000000000000001a .LASF6
     /tmp/ccv6HJzi.s:5058   .debug_str:00000000000000f8 .LASF7
     /tmp/ccv6HJzi.s:5112   .debug_str:0000000000000326 .LASF8
     /tmp/ccv6HJzi.s:5034   .debug_str:0000000000000065 .LASF9
     /tmp/ccv6HJzi.s:5160   .debug_str:000000000000047a .LASF10
     /tmp/ccv6HJzi.s:5060   .debug_str:000000000000010b .LASF11
GAS LISTING /tmp/ccv6HJzi.s 			page 47


     /tmp/ccv6HJzi.s:5144   .debug_str:0000000000000425 .LASF12
     /tmp/ccv6HJzi.s:5120   .debug_str:0000000000000366 .LASF13
     /tmp/ccv6HJzi.s:5078   .debug_str:00000000000001ac .LASF14
     /tmp/ccv6HJzi.s:5046   .debug_str:00000000000000a5 .LASF15
     /tmp/ccv6HJzi.s:5114   .debug_str:0000000000000336 .LASF16
     /tmp/ccv6HJzi.s:5124   .debug_str:0000000000000387 .LASF33
     /tmp/ccv6HJzi.s:5130   .debug_str:00000000000003a2 .LASF68
     /tmp/ccv6HJzi.s:5082   .debug_str:00000000000001c5 .LASF20
     /tmp/ccv6HJzi.s:5018   .debug_str:0000000000000000 .LASF17
     /tmp/ccv6HJzi.s:5152   .debug_str:0000000000000451 .LASF18
     /tmp/ccv6HJzi.s:5104   .debug_str:0000000000000304 .LASF19
     /tmp/ccv6HJzi.s:5062   .debug_str:000000000000011a .LASF22
     /tmp/ccv6HJzi.s:5118   .debug_str:000000000000035c .LASF24
     /tmp/ccv6HJzi.s:5134   .debug_str:00000000000003bd .LASF21
     /tmp/ccv6HJzi.s:5084   .debug_str:00000000000001ce .LASF23
     /tmp/ccv6HJzi.s:5098   .debug_str:00000000000002e6 .LASF25
     /tmp/ccv6HJzi.s:5126   .debug_str:0000000000000390 .LASF26
     /tmp/ccv6HJzi.s:5138   .debug_str:00000000000003d7 .LASF28
     /tmp/ccv6HJzi.s:5036   .debug_str:0000000000000073 .LASF27
     /tmp/ccv6HJzi.s:5048   .debug_str:00000000000000bb .LASF29
     /tmp/ccv6HJzi.s:5032   .debug_str:0000000000000054 .LASF30
     /tmp/ccv6HJzi.s:5070   .debug_str:0000000000000155 .LASF31
     /tmp/ccv6HJzi.s:5142   .debug_str:0000000000000412 .LASF69
     /tmp/ccv6HJzi.s:5140   .debug_str:00000000000003ef .LASF70
     /tmp/ccv6HJzi.s:5094   .debug_str:00000000000002c8 .LASF32
     /tmp/ccv6HJzi.s:5076   .debug_str:000000000000019b .LASF34
     /tmp/ccv6HJzi.s:5108   .debug_str:0000000000000316 .LASF35
     /tmp/ccv6HJzi.s:1242   .text:00000000000008b0 .LFB16
     /tmp/ccv6HJzi.s:1286   .text:00000000000008e4 .LFE16
     /tmp/ccv6HJzi.s:5066   .debug_str:0000000000000145 .LASF37
     /tmp/ccv6HJzi.s:3934   .debug_loc:0000000000000000 .LLST55
     /tmp/ccv6HJzi.s:3948   .debug_loc:0000000000000039 .LLST56
     /tmp/ccv6HJzi.s:5028   .debug_str:000000000000003b .LASF36
     /tmp/ccv6HJzi.s:948    .text:000000000000069c .LFB15
     /tmp/ccv6HJzi.s:1236   .text:00000000000008b0 .LFE15
     /tmp/ccv6HJzi.s:3960   .debug_loc:0000000000000070 .LLST41
     /tmp/ccv6HJzi.s:3978   .debug_loc:00000000000000bc .LLST42
     /tmp/ccv6HJzi.s:3996   .debug_loc:0000000000000108 .LLST43
     /tmp/ccv6HJzi.s:5148   .debug_str:0000000000000440 .LASF38
     /tmp/ccv6HJzi.s:4012   .debug_loc:0000000000000152 .LLST44
     /tmp/ccv6HJzi.s:1058   .text:0000000000000760 .LBB79
     /tmp/ccv6HJzi.s:1159   .text:0000000000000818 .LBE79
     /tmp/ccv6HJzi.s:5050   .debug_str:00000000000000d3 .LASF39
     /tmp/ccv6HJzi.s:4032   .debug_loc:00000000000001af .LLST48
     /tmp/ccv6HJzi.s:1103   .text:00000000000007a8 .LBB80
     /tmp/ccv6HJzi.s:4948   .debug_ranges:0000000000000000 .Ldebug_ranges0
     /tmp/ccv6HJzi.s:4044   .debug_loc:00000000000001e6 .LLST49
     /tmp/ccv6HJzi.s:4059   .debug_loc:0000000000000220 .LLST50
     /tmp/ccv6HJzi.s:4074   .debug_loc:0000000000000268 .LLST51
     /tmp/ccv6HJzi.s:1125   .text:00000000000007c8 .LVL149
     /tmp/ccv6HJzi.s:1130   .text:00000000000007d8 .LVL150
     /tmp/ccv6HJzi.s:1135   .text:00000000000007e8 .LVL151
     /tmp/ccv6HJzi.s:1140   .text:00000000000007f4 .LVL152
     /tmp/ccv6HJzi.s:1145   .text:0000000000000804 .LVL153
     /tmp/ccv6HJzi.s:1149   .text:000000000000080c .LVL154
     /tmp/ccv6HJzi.s:1153   .text:0000000000000814 .LVL155
     /tmp/ccv6HJzi.s:1074   .text:0000000000000780 .LVL143
GAS LISTING /tmp/ccv6HJzi.s 			page 48


     /tmp/ccv6HJzi.s:981    .text:00000000000006d0 .LBB75
     /tmp/ccv6HJzi.s:4099   .debug_loc:00000000000002ac .LLST45
     /tmp/ccv6HJzi.s:4114   .debug_loc:00000000000002e6 .LLST46
     /tmp/ccv6HJzi.s:4129   .debug_loc:000000000000032e .LLST47
     /tmp/ccv6HJzi.s:988    .text:00000000000006e0 .LVL132
     /tmp/ccv6HJzi.s:993    .text:00000000000006f0 .LVL133
     /tmp/ccv6HJzi.s:998    .text:0000000000000700 .LVL134
     /tmp/ccv6HJzi.s:1003   .text:000000000000070c .LVL135
     /tmp/ccv6HJzi.s:1008   .text:000000000000071c .LVL136
     /tmp/ccv6HJzi.s:1012   .text:0000000000000724 .LVL137
     /tmp/ccv6HJzi.s:1016   .text:000000000000072c .LVL138
     /tmp/ccv6HJzi.s:1172   .text:0000000000000830 .LBB87
     /tmp/ccv6HJzi.s:1209   .text:000000000000088c .LBE87
     /tmp/ccv6HJzi.s:4154   .debug_loc:0000000000000372 .LLST52
     /tmp/ccv6HJzi.s:4163   .debug_loc:0000000000000397 .LLST53
     /tmp/ccv6HJzi.s:4172   .debug_loc:00000000000003c3 .LLST54
     /tmp/ccv6HJzi.s:1179   .text:0000000000000840 .LVL159
     /tmp/ccv6HJzi.s:1184   .text:0000000000000850 .LVL160
     /tmp/ccv6HJzi.s:1189   .text:0000000000000860 .LVL161
     /tmp/ccv6HJzi.s:1194   .text:000000000000086c .LVL162
     /tmp/ccv6HJzi.s:1199   .text:000000000000087c .LVL163
     /tmp/ccv6HJzi.s:1203   .text:0000000000000884 .LVL164
     /tmp/ccv6HJzi.s:1207   .text:000000000000088c .LVL165
     /tmp/ccv6HJzi.s:1047   .text:0000000000000758 .LVL141
     /tmp/ccv6HJzi.s:1166   .text:0000000000000828 .LVL157
     /tmp/ccv6HJzi.s:1170   .text:0000000000000830 .LVL158
     /tmp/ccv6HJzi.s:406    .text:00000000000002b4 .LFB14
     /tmp/ccv6HJzi.s:937    .text:000000000000069c .LFE14
     /tmp/ccv6HJzi.s:4180   .debug_loc:00000000000003e7 .LLST14
     /tmp/ccv6HJzi.s:4198   .debug_loc:0000000000000433 .LLST15
     /tmp/ccv6HJzi.s:5156   .debug_str:0000000000000464 .LASF40
     /tmp/ccv6HJzi.s:4238   .debug_loc:00000000000004e0 .LLST16
     /tmp/ccv6HJzi.s:5158   .debug_str:000000000000046f .LASF41
     /tmp/ccv6HJzi.s:4249   .debug_loc:0000000000000516 .LLST17
     /tmp/ccv6HJzi.s:4260   .debug_loc:000000000000054c .LLST18
     /tmp/ccv6HJzi.s:4289   .debug_loc:00000000000005d0 .LLST19
     /tmp/ccv6HJzi.s:4309   .debug_loc:000000000000062d .LLST23
     /tmp/ccv6HJzi.s:695    .text:00000000000004dc .LBB50
     /tmp/ccv6HJzi.s:868    .text:0000000000000614 .LBE50
     /tmp/ccv6HJzi.s:5102   .debug_str:00000000000002fb .LASF42
     /tmp/ccv6HJzi.s:4344   .debug_loc:00000000000006d5 .LLST30
     /tmp/ccv6HJzi.s:4356   .debug_loc:000000000000070c .LLST31
     /tmp/ccv6HJzi.s:719    .text:0000000000000508 .LBB51
     /tmp/ccv6HJzi.s:4363   .debug_loc:000000000000072f .LLST32
     /tmp/ccv6HJzi.s:4378   .debug_loc:0000000000000769 .LLST33
     /tmp/ccv6HJzi.s:4393   .debug_loc:00000000000007b1 .LLST34
     /tmp/ccv6HJzi.s:777    .text:0000000000000554 .LVL99
     /tmp/ccv6HJzi.s:782    .text:0000000000000564 .LVL100
     /tmp/ccv6HJzi.s:787    .text:0000000000000574 .LVL101
     /tmp/ccv6HJzi.s:792    .text:0000000000000580 .LVL102
     /tmp/ccv6HJzi.s:797    .text:0000000000000590 .LVL103
     /tmp/ccv6HJzi.s:801    .text:0000000000000598 .LVL104
     /tmp/ccv6HJzi.s:805    .text:00000000000005a0 .LVL105
     /tmp/ccv6HJzi.s:814    .text:00000000000005a8 .LBB55
     /tmp/ccv6HJzi.s:4404   .debug_loc:00000000000007e7 .LLST35
     /tmp/ccv6HJzi.s:4419   .debug_loc:0000000000000821 .LLST36
     /tmp/ccv6HJzi.s:4434   .debug_loc:0000000000000869 .LLST37
GAS LISTING /tmp/ccv6HJzi.s 			page 49


     /tmp/ccv6HJzi.s:834    .text:00000000000005c4 .LVL110
     /tmp/ccv6HJzi.s:839    .text:00000000000005d4 .LVL111
     /tmp/ccv6HJzi.s:844    .text:00000000000005e4 .LVL112
     /tmp/ccv6HJzi.s:849    .text:00000000000005f0 .LVL113
     /tmp/ccv6HJzi.s:854    .text:0000000000000600 .LVL114
     /tmp/ccv6HJzi.s:858    .text:0000000000000608 .LVL115
     /tmp/ccv6HJzi.s:862    .text:0000000000000610 .LVL116
     /tmp/ccv6HJzi.s:530    .text:0000000000000398 .LBB43
     /tmp/ccv6HJzi.s:4459   .debug_loc:00000000000008ad .LLST24
     /tmp/ccv6HJzi.s:4474   .debug_loc:00000000000008e7 .LLST25
     /tmp/ccv6HJzi.s:4489   .debug_loc:000000000000092f .LLST26
     /tmp/ccv6HJzi.s:620    .text:000000000000042c .LVL75
     /tmp/ccv6HJzi.s:625    .text:000000000000043c .LVL76
     /tmp/ccv6HJzi.s:630    .text:000000000000044c .LVL77
     /tmp/ccv6HJzi.s:635    .text:0000000000000458 .LVL78
     /tmp/ccv6HJzi.s:640    .text:0000000000000468 .LVL79
     /tmp/ccv6HJzi.s:644    .text:0000000000000470 .LVL80
     /tmp/ccv6HJzi.s:648    .text:0000000000000478 .LVL81
     /tmp/ccv6HJzi.s:541    .text:00000000000003a0 .LBB46
     /tmp/ccv6HJzi.s:4500   .debug_loc:0000000000000965 .LLST27
     /tmp/ccv6HJzi.s:4515   .debug_loc:000000000000099f .LLST28
     /tmp/ccv6HJzi.s:4530   .debug_loc:00000000000009e7 .LLST29
     /tmp/ccv6HJzi.s:660    .text:000000000000048c .LVL83
     /tmp/ccv6HJzi.s:665    .text:000000000000049c .LVL84
     /tmp/ccv6HJzi.s:670    .text:00000000000004ac .LVL85
     /tmp/ccv6HJzi.s:675    .text:00000000000004b8 .LVL86
     /tmp/ccv6HJzi.s:680    .text:00000000000004c8 .LVL87
     /tmp/ccv6HJzi.s:684    .text:00000000000004d0 .LVL88
     /tmp/ccv6HJzi.s:688    .text:00000000000004d8 .LVL89
     /tmp/ccv6HJzi.s:557    .text:00000000000003b8 .LVL68
     /tmp/ccv6HJzi.s:570    .text:00000000000003d4 .LVL71
     /tmp/ccv6HJzi.s:466    .text:0000000000000324 .LBB38
     /tmp/ccv6HJzi.s:4560   .debug_loc:0000000000000a3f .LLST20
     /tmp/ccv6HJzi.s:4575   .debug_loc:0000000000000a79 .LLST21
     /tmp/ccv6HJzi.s:4590   .debug_loc:0000000000000ac1 .LLST22
     /tmp/ccv6HJzi.s:491    .text:0000000000000344 .LVL56
     /tmp/ccv6HJzi.s:496    .text:0000000000000354 .LVL57
     /tmp/ccv6HJzi.s:501    .text:0000000000000364 .LVL58
     /tmp/ccv6HJzi.s:506    .text:0000000000000370 .LVL59
     /tmp/ccv6HJzi.s:511    .text:0000000000000380 .LVL60
     /tmp/ccv6HJzi.s:515    .text:0000000000000388 .LVL61
     /tmp/ccv6HJzi.s:519    .text:0000000000000390 .LVL62
     /tmp/ccv6HJzi.s:872    .text:0000000000000614 .LBB63
     /tmp/ccv6HJzi.s:910    .text:0000000000000670 .LBE63
     /tmp/ccv6HJzi.s:4601   .debug_loc:0000000000000af7 .LLST38
     /tmp/ccv6HJzi.s:4610   .debug_loc:0000000000000b1c .LLST39
     /tmp/ccv6HJzi.s:4619   .debug_loc:0000000000000b48 .LLST40
     /tmp/ccv6HJzi.s:879    .text:0000000000000624 .LVL118
     /tmp/ccv6HJzi.s:884    .text:0000000000000634 .LVL119
     /tmp/ccv6HJzi.s:889    .text:0000000000000644 .LVL120
     /tmp/ccv6HJzi.s:894    .text:0000000000000650 .LVL121
     /tmp/ccv6HJzi.s:899    .text:0000000000000660 .LVL122
     /tmp/ccv6HJzi.s:903    .text:0000000000000668 .LVL123
     /tmp/ccv6HJzi.s:907    .text:0000000000000670 .LVL124
     /tmp/ccv6HJzi.s:438    .text:00000000000002f0 .LVL46
     /tmp/ccv6HJzi.s:450    .text:0000000000000308 .LVL49
     /tmp/ccv6HJzi.s:361    .text:0000000000000258 .LFB13
GAS LISTING /tmp/ccv6HJzi.s 			page 50


     /tmp/ccv6HJzi.s:400    .text:00000000000002b4 .LFE13
     /tmp/ccv6HJzi.s:5128   .debug_str:0000000000000399 .LASF43
     /tmp/ccv6HJzi.s:385    .text:0000000000000290 .LVL42
     /tmp/ccv6HJzi.s:5122   .debug_str:0000000000000376 .LASF71
     /tmp/ccv6HJzi.s:217    .text:0000000000000140 .LFB11
     /tmp/ccv6HJzi.s:353    .text:0000000000000258 .LFE11
     /tmp/ccv6HJzi.s:4627   .debug_loc:0000000000000b6c .LLST10
     /tmp/ccv6HJzi.s:284    .text:00000000000001dc .LBB18
     /tmp/ccv6HJzi.s:4649   .debug_loc:0000000000000bcb .LLST11
     /tmp/ccv6HJzi.s:4664   .debug_loc:0000000000000c05 .LLST12
     /tmp/ccv6HJzi.s:4679   .debug_loc:0000000000000c4d .LLST13
     /tmp/ccv6HJzi.s:318    .text:0000000000000208 .LVL35
     /tmp/ccv6HJzi.s:323    .text:0000000000000218 .LVL36
     /tmp/ccv6HJzi.s:328    .text:0000000000000228 .LVL37
     /tmp/ccv6HJzi.s:333    .text:0000000000000234 .LVL38
     /tmp/ccv6HJzi.s:338    .text:0000000000000244 .LVL39
     /tmp/ccv6HJzi.s:342    .text:000000000000024c .LVL40
     /tmp/ccv6HJzi.s:346    .text:0000000000000254 .LVL41
     /tmp/ccv6HJzi.s:245    .text:000000000000017c .LVL28
     /tmp/ccv6HJzi.s:255    .text:0000000000000194 .LVL29
     /tmp/ccv6HJzi.s:271    .text:00000000000001c0 .LVL30
     /tmp/ccv6HJzi.s:1300   .text:00000000000008e4 .LFB9
     /tmp/ccv6HJzi.s:1352   .text:000000000000094c .LFE9
     /tmp/ccv6HJzi.s:4708   .debug_loc:0000000000000cb9 .LLST57
     /tmp/ccv6HJzi.s:4722   .debug_loc:0000000000000cf2 .LLST58
     /tmp/ccv6HJzi.s:1317   .text:0000000000000900 .LVL178
     /tmp/ccv6HJzi.s:1324   .text:0000000000000914 .LVL180
     /tmp/ccv6HJzi.s:1329   .text:0000000000000920 .LVL181
     /tmp/ccv6HJzi.s:1334   .text:0000000000000930 .LVL182
     /tmp/ccv6HJzi.s:1338   .text:0000000000000938 .LVL183
     /tmp/ccv6HJzi.s:5086   .debug_str:00000000000001ec .LASF45
     /tmp/ccv6HJzi.s:5020   .debug_str:0000000000000006 .LASF47
     /tmp/ccv6HJzi.s:127    .text:00000000000000a8 .LFB8
     /tmp/ccv6HJzi.s:211    .text:0000000000000140 .LFE8
     /tmp/ccv6HJzi.s:4729   .debug_loc:0000000000000d15 .LLST5
     /tmp/ccv6HJzi.s:5110   .debug_str:000000000000031b .LASF44
     /tmp/ccv6HJzi.s:4751   .debug_loc:0000000000000d74 .LLST6
     /tmp/ccv6HJzi.s:145    .text:00000000000000c4 .LBB10
     /tmp/ccv6HJzi.s:4771   .debug_loc:0000000000000dc3 .LLST7
     /tmp/ccv6HJzi.s:4784   .debug_loc:0000000000000dfb .LLST8
     /tmp/ccv6HJzi.s:4799   .debug_loc:0000000000000e43 .LLST9
     /tmp/ccv6HJzi.s:178    .text:00000000000000f0 .LVL19
     /tmp/ccv6HJzi.s:183    .text:0000000000000100 .LVL20
     /tmp/ccv6HJzi.s:188    .text:0000000000000110 .LVL21
     /tmp/ccv6HJzi.s:193    .text:000000000000011c .LVL22
     /tmp/ccv6HJzi.s:198    .text:000000000000012c .LVL23
     /tmp/ccv6HJzi.s:202    .text:0000000000000134 .LVL24
     /tmp/ccv6HJzi.s:206    .text:000000000000013c .LVL25
     /tmp/ccv6HJzi.s:5080   .debug_str:00000000000001b8 .LASF46
     /tmp/ccv6HJzi.s:5044   .debug_str:0000000000000092 .LASF48
     /tmp/ccv6HJzi.s:24     .text:0000000000000000 .LFB7
     /tmp/ccv6HJzi.s:121    .text:00000000000000a8 .LFE7
     /tmp/ccv6HJzi.s:4828   .debug_loc:0000000000000e9a .LLST0
     /tmp/ccv6HJzi.s:4858   .debug_loc:0000000000000f1f .LLST1
     /tmp/ccv6HJzi.s:43     .text:000000000000001c .LBB4
     /tmp/ccv6HJzi.s:4878   .debug_loc:0000000000000f6e .LLST2
     /tmp/ccv6HJzi.s:4891   .debug_loc:0000000000000fa6 .LLST3
GAS LISTING /tmp/ccv6HJzi.s 			page 51


     /tmp/ccv6HJzi.s:4906   .debug_loc:0000000000000fee .LLST4
     /tmp/ccv6HJzi.s:88     .text:0000000000000058 .LVL7
     /tmp/ccv6HJzi.s:93     .text:0000000000000068 .LVL8
     /tmp/ccv6HJzi.s:98     .text:0000000000000078 .LVL9
     /tmp/ccv6HJzi.s:103    .text:0000000000000084 .LVL10
     /tmp/ccv6HJzi.s:108    .text:0000000000000094 .LVL11
     /tmp/ccv6HJzi.s:112    .text:000000000000009c .LVL12
     /tmp/ccv6HJzi.s:116    .text:00000000000000a4 .LVL13
     /tmp/ccv6HJzi.s:5132   .debug_str:00000000000003b5 .LASF49
     /tmp/ccv6HJzi.s:5116   .debug_str:000000000000034c .LASF50
     /tmp/ccv6HJzi.s:5052   .debug_str:00000000000000db .LASF51
     /tmp/ccv6HJzi.s:5088   .debug_str:00000000000001fa .LASF52
     /tmp/ccv6HJzi.s:5090   .debug_str:00000000000001ff .LASF53
     /tmp/ccv6HJzi.s:5040   .debug_str:0000000000000082 .LASF54
     /tmp/ccv6HJzi.s:5096   .debug_str:00000000000002d6 .LASF55
     /tmp/ccv6HJzi.s:5100   .debug_str:00000000000002f1 .LASF57
     /tmp/ccv6HJzi.s:5146   .debug_str:0000000000000435 .LASF56
     /tmp/ccv6HJzi.s:5054   .debug_str:00000000000000e1 .LASF58
     /tmp/ccv6HJzi.s:5136   .debug_str:00000000000003c7 .LASF59
     /tmp/ccv6HJzi.s:5068   .debug_str:000000000000014a .LASF60
     /tmp/ccv6HJzi.s:5056   .debug_str:00000000000000e8 .LASF61
     /tmp/ccv6HJzi.s:5042   .debug_str:0000000000000087 .LASF62
     /tmp/ccv6HJzi.s:5150   .debug_str:0000000000000446 .LASF63
     /tmp/ccv6HJzi.s:5026   .debug_str:0000000000000034 .LASF64
     /tmp/ccv6HJzi.s:1245   .text:00000000000008b0 .LVL171
     /tmp/ccv6HJzi.s:1260   .text:00000000000008c4 .LVL174
     /tmp/ccv6HJzi.s:1253   .text:00000000000008bc .LVL172
     /tmp/ccv6HJzi.s:951    .text:000000000000069c .LVL128
     /tmp/ccv6HJzi.s:978    .text:00000000000006d0 .LVL130
     /tmp/ccv6HJzi.s:1225   .text:00000000000008a0 .LVL168
     /tmp/ccv6HJzi.s:1228   .text:00000000000008a4 .LVL169
     /tmp/ccv6HJzi.s:973    .text:00000000000006c8 .LVL129
     /tmp/ccv6HJzi.s:1028   .text:0000000000000734 .LVL139
     /tmp/ccv6HJzi.s:1034   .text:000000000000073c .LVL140
     /tmp/ccv6HJzi.s:1222   .text:000000000000089c .LVL167
     /tmp/ccv6HJzi.s:1231   .text:00000000000008a8 .LVL170
     /tmp/ccv6HJzi.s:1096   .text:00000000000007a0 .LVL144
     /tmp/ccv6HJzi.s:1098   .text:00000000000007a4 .LVL145
     /tmp/ccv6HJzi.s:1102   .text:00000000000007a8 .LVL146
     /tmp/ccv6HJzi.s:1107   .text:00000000000007ac .LVL147
     /tmp/ccv6HJzi.s:1117   .text:00000000000007b8 .LVL148
     /tmp/ccv6HJzi.s:1155   .text:0000000000000818 .LVL156
     /tmp/ccv6HJzi.s:1053   .text:0000000000000760 .LVL142
     /tmp/ccv6HJzi.s:986    .text:00000000000006d8 .LVL131
     /tmp/ccv6HJzi.s:1212   .text:0000000000000890 .LVL166
     /tmp/ccv6HJzi.s:409    .text:00000000000002b4 .LVL43
     /tmp/ccv6HJzi.s:432    .text:00000000000002e4 .LVL44
     /tmp/ccv6HJzi.s:924    .text:0000000000000688 .LVL125
     /tmp/ccv6HJzi.s:436    .text:00000000000002e8 .LVL45
     /tmp/ccv6HJzi.s:440    .text:00000000000002f4 .LVL47
     /tmp/ccv6HJzi.s:445    .text:00000000000002f8 .LVL48
     /tmp/ccv6HJzi.s:470    .text:0000000000000328 .LVL53
     /tmp/ccv6HJzi.s:483    .text:0000000000000334 .LVL55
     /tmp/ccv6HJzi.s:521    .text:0000000000000394 .LVL63
     /tmp/ccv6HJzi.s:927    .text:000000000000068c .LVL126
     /tmp/ccv6HJzi.s:456    .text:0000000000000314 .LVL50
     /tmp/ccv6HJzi.s:461    .text:0000000000000320 .LVL51
GAS LISTING /tmp/ccv6HJzi.s 			page 52


     /tmp/ccv6HJzi.s:464    .text:0000000000000324 .LVL52
     /tmp/ccv6HJzi.s:478    .text:000000000000032c .LVL54
     /tmp/ccv6HJzi.s:585    .text:00000000000003e8 .LVL72
     /tmp/ccv6HJzi.s:591    .text:00000000000003f0 .LVL73
     /tmp/ccv6HJzi.s:760    .text:0000000000000538 .LVL96
     /tmp/ccv6HJzi.s:764    .text:000000000000053c .LVL97
     /tmp/ccv6HJzi.s:932    .text:0000000000000694 .LVL127
     /tmp/ccv6HJzi.s:561    .text:00000000000003c0 .LVL69
     /tmp/ccv6HJzi.s:565    .text:00000000000003c4 .LVL70
     /tmp/ccv6HJzi.s:690    .text:00000000000004dc .LVL90
     /tmp/ccv6HJzi.s:709    .text:00000000000004f8 .LVL91
     /tmp/ccv6HJzi.s:714    .text:0000000000000504 .LVL92
     /tmp/ccv6HJzi.s:717    .text:0000000000000508 .LVL93
     /tmp/ccv6HJzi.s:769    .text:0000000000000544 .LVL98
     /tmp/ccv6HJzi.s:864    .text:0000000000000614 .LVL117
     /tmp/ccv6HJzi.s:739    .text:000000000000051c .LVL95
     /tmp/ccv6HJzi.s:723    .text:000000000000050c .LVL94
     /tmp/ccv6HJzi.s:807    .text:00000000000005a4 .LVL106
     /tmp/ccv6HJzi.s:813    .text:00000000000005a8 .LVL107
     /tmp/ccv6HJzi.s:818    .text:00000000000005ac .LVL108
     /tmp/ccv6HJzi.s:826    .text:00000000000005b4 .LVL109
     /tmp/ccv6HJzi.s:529    .text:0000000000000398 .LVL64
     /tmp/ccv6HJzi.s:534    .text:000000000000039c .LVL65
     /tmp/ccv6HJzi.s:612    .text:000000000000041c .LVL74
     /tmp/ccv6HJzi.s:650    .text:000000000000047c .LVL82
     /tmp/ccv6HJzi.s:540    .text:00000000000003a0 .LVL66
     /tmp/ccv6HJzi.s:545    .text:00000000000003a4 .LVL67
     /tmp/ccv6HJzi.s:220    .text:0000000000000140 .LVL26
     /tmp/ccv6HJzi.s:243    .text:0000000000000174 .LVL27
     /tmp/ccv6HJzi.s:302    .text:00000000000001ec .LVL33
     /tmp/ccv6HJzi.s:308    .text:00000000000001f8 .LVL34
     /tmp/ccv6HJzi.s:283    .text:00000000000001dc .LVL31
     /tmp/ccv6HJzi.s:288    .text:00000000000001e0 .LVL32
     /tmp/ccv6HJzi.s:1303   .text:00000000000008e4 .LVL177
     /tmp/ccv6HJzi.s:1319   .text:0000000000000904 .LVL179
     /tmp/ccv6HJzi.s:1347   .text:0000000000000944 .LVL184
     /tmp/ccv6HJzi.s:130    .text:00000000000000a8 .LVL14
     /tmp/ccv6HJzi.s:149    .text:00000000000000c8 .LVL16
     /tmp/ccv6HJzi.s:165    .text:00000000000000d8 .LVL17
     /tmp/ccv6HJzi.s:169    .text:00000000000000e0 .LVL18
     /tmp/ccv6HJzi.s:144    .text:00000000000000c4 .LVL15
     /tmp/ccv6HJzi.s:28     .text:0000000000000000 .LVL0
     /tmp/ccv6HJzi.s:48     .text:0000000000000020 .LVL2
     /tmp/ccv6HJzi.s:60     .text:000000000000002c .LVL3
     /tmp/ccv6HJzi.s:62     .text:0000000000000030 .LVL4
     /tmp/ccv6HJzi.s:75     .text:0000000000000040 .LVL5
     /tmp/ccv6HJzi.s:79     .text:0000000000000048 .LVL6
     /tmp/ccv6HJzi.s:42     .text:000000000000001c .LVL1
     /tmp/ccv6HJzi.s:1370   .debug_info:0000000000000000 .Ldebug_info0
     /tmp/ccv6HJzi.s:51     .text:0000000000000020 .LBE4
     /tmp/ccv6HJzi.s:82     .text:0000000000000048 .LBB7
     /tmp/ccv6HJzi.s:119    .text:00000000000000a8 .LBE7
     /tmp/ccv6HJzi.s:152    .text:00000000000000c8 .LBE10
     /tmp/ccv6HJzi.s:172    .text:00000000000000e0 .LBB13
     /tmp/ccv6HJzi.s:209    .text:0000000000000140 .LBE13
     /tmp/ccv6HJzi.s:291    .text:00000000000001e0 .LBE18
     /tmp/ccv6HJzi.s:312    .text:00000000000001f8 .LBB21
GAS LISTING /tmp/ccv6HJzi.s 			page 53


     /tmp/ccv6HJzi.s:348    .text:0000000000000254 .LBE21
     /tmp/ccv6HJzi.s:473    .text:0000000000000328 .LBE38
     /tmp/ccv6HJzi.s:485    .text:0000000000000334 .LBB41
     /tmp/ccv6HJzi.s:524    .text:0000000000000394 .LBE41
     /tmp/ccv6HJzi.s:525    .text:0000000000000394 .LBB42
     /tmp/ccv6HJzi.s:593    .text:00000000000003f0 .LBE42
     /tmp/ccv6HJzi.s:597    .text:00000000000003f4 .LBB62
     /tmp/ccv6HJzi.s:870    .text:0000000000000614 .LBE62
     /tmp/ccv6HJzi.s:537    .text:000000000000039c .LBE43
     /tmp/ccv6HJzi.s:614    .text:000000000000041c .LBB59
     /tmp/ccv6HJzi.s:653    .text:000000000000047c .LBE59
     /tmp/ccv6HJzi.s:548    .text:00000000000003a4 .LBE46
     /tmp/ccv6HJzi.s:654    .text:000000000000047c .LBB60
     /tmp/ccv6HJzi.s:693    .text:00000000000004dc .LBE60
     /tmp/ccv6HJzi.s:726    .text:000000000000050c .LBE51
     /tmp/ccv6HJzi.s:771    .text:0000000000000544 .LBB54
     /tmp/ccv6HJzi.s:810    .text:00000000000005a4 .LBE54
     /tmp/ccv6HJzi.s:821    .text:00000000000005ac .LBE55
     /tmp/ccv6HJzi.s:828    .text:00000000000005b4 .LBB58
     /tmp/ccv6HJzi.s:867    .text:0000000000000614 .LBE58
     /tmp/ccv6HJzi.s:1019   .text:000000000000072c .LBE75
     /tmp/ccv6HJzi.s:1048   .text:0000000000000758 .LBB84
     /tmp/ccv6HJzi.s:1056   .text:0000000000000760 .LBE84
     /tmp/ccv6HJzi.s:1110   .text:00000000000007ac .LBE80
     /tmp/ccv6HJzi.s:1119   .text:00000000000007b8 .LBB83
     /tmp/ccv6HJzi.s:1158   .text:0000000000000818 .LBE83

UNDEFINED SYMBOLS
_Z9putStringPKc
_Z6putInti
_Z10putNewlinev
_Z10stopKernelv
HEAP_START_ADDR
HEAP_END_ADDR
_Z6putU64m
