GAS LISTING /tmp/cccQUxeo.s 			page 1


   1              		.file	"alloc.cpp"
   2              		.option pic
   3              		.option norelax
   4              		.text
   5              	.Ltext0:
   6              		.section	.rodata.str1.8,"aMS",@progbits,1
   7              		.align	3
   8              	.LC0:
   9 0000 3D3D3D3D 		.string	"===================== ASSERT file: "
   9      3D3D3D3D 
   9      3D3D3D3D 
   9      3D3D3D3D 
   9      3D3D3D3D 
  10 0024 00000000 		.align	3
  11              	.LC1:
  12 0028 7372632F 		.string	"src/alloc.cpp"
  12      616C6C6F 
  12      632E6370 
  12      7000
  13 0036 0000     		.align	3
  14              	.LC2:
  15 0038 20202020 		.string	"    line: "
  15      6C696E65 
  15      3A2000
  16 0043 00000000 		.align	3
  16      00
  17              	.LC3:
  18 0048 2020203D 		.string	"   ==========================="
  18      3D3D3D3D 
  18      3D3D3D3D 
  18      3D3D3D3D 
  18      3D3D3D3D 
  19              		.text
  20              		.align	2
  21              		.globl	_Z12alignForwardmm
  23              	_Z12alignForwardmm:
  24              	.LFB11:
  25              		.file 1 "src/alloc.cpp"
   1:src/alloc.cpp **** #include "../h/alloc.h"
   2:src/alloc.cpp **** #include "../h/my_console.h"
   3:src/alloc.cpp **** #include "../lib/hw.h"
   4:src/alloc.cpp **** 
   5:src/alloc.cpp **** uint64 alignForward(uint64 n, uint64 alignConst)
   6:src/alloc.cpp **** {
  26              		.loc 1 6 1
  27              		.cfi_startproc
  28              	.LVL0:
   7:src/alloc.cpp ****     assert(alignConst == MEM_BLOCK_SIZE);
  29              		.loc 1 7 5
  30 0000 938505FC 		addi	a1,a1,-64
  31              	.LVL1:
  32              	.LBB17:
  33              	.LBB18:
  34              		.file 2 "src/../h/../h/my_console.h"
   1:src/../h/../h/my_console.h **** #pragma once
   2:src/../h/../h/my_console.h **** 
   3:src/../h/../h/my_console.h **** #include "../h/risc.h"
GAS LISTING /tmp/cccQUxeo.s 			page 2


   4:src/../h/../h/my_console.h **** #include "../lib/hw.h"
   5:src/../h/../h/my_console.h **** 
   6:src/../h/../h/my_console.h **** #include "../h/0_console.h"
   7:src/../h/../h/my_console.h **** 
   8:src/../h/../h/my_console.h **** #define __DEBUG_MODE
   9:src/../h/../h/my_console.h **** 
  10:src/../h/../h/my_console.h **** 
  11:src/../h/../h/my_console.h **** void putString(const char* s);
  12:src/../h/../h/my_console.h **** void putInt(int n);
  13:src/../h/../h/my_console.h **** void putNewline();
  14:src/../h/../h/my_console.h **** void putU64(uint64 n);
  15:src/../h/../h/my_console.h **** void putBinary(uint64 n);
  16:src/../h/../h/my_console.h **** 
  17:src/../h/../h/my_console.h **** [[noreturn]] void stopKernel();
  18:src/../h/../h/my_console.h **** 
  19:src/../h/../h/my_console.h **** inline void _assert(bool valid, const char* file, int line) // MUST be inline
  20:src/../h/../h/my_console.h **** {
  21:src/../h/../h/my_console.h ****     if(valid)
  35              		.loc 2 21 5
  36 0004 639C0500 		bnez	a1,.L8
  22:src/../h/../h/my_console.h ****         return;
  37              		.loc 2 22 9
  38              	.LVL2:
  39              	.LBE18:
  40              	.LBE17:
   8:src/alloc.cpp ****     if(n % MEM_BLOCK_SIZE != 0) // align size
  41              		.loc 1 8 5
  42              		.loc 1 8 10 is_stmt 0
  43 0008 9377F503 		andi	a5,a0,63
  44              		.loc 1 8 5
  45 000c 63860700 		beqz	a5,.L4
   9:src/alloc.cpp ****     {
  10:src/alloc.cpp ****         n += MEM_BLOCK_SIZE - (n % MEM_BLOCK_SIZE);
  46              		.loc 1 10 9 is_stmt 1
  47              		.loc 1 10 11 is_stmt 0
  48 0010 137505FC 		andi	a0,a0,-64
  49              	.LVL3:
  50 0014 13050504 		addi	a0,a0,64
  51              	.LVL4:
  52              	.L4:
  11:src/alloc.cpp ****     }
  12:src/alloc.cpp ****     return n;
  53              		.loc 1 12 5 is_stmt 1
  13:src/alloc.cpp **** }
  54              		.loc 1 13 1 is_stmt 0
  55 0018 67800000 		ret
  56              	.LVL5:
  57              	.L8:
   6:src/alloc.cpp ****     assert(alignConst == MEM_BLOCK_SIZE);
  58              		.loc 1 6 1
  59 001c 130101FF 		addi	sp,sp,-16
  60              		.cfi_def_cfa_offset 16
  61 0020 23341100 		sd	ra,8(sp)
  62 0024 23308100 		sd	s0,0(sp)
  63              		.cfi_offset 1, -8
  64              		.cfi_offset 8, -16
  65 0028 13040101 		addi	s0,sp,16
GAS LISTING /tmp/cccQUxeo.s 			page 3


  66              		.cfi_def_cfa 8, 0
  67              	.LBB25:
  68              	.LBB24:
  23:src/../h/../h/my_console.h **** 
  24:src/../h/../h/my_console.h ****     putString("===================== ASSERT file: ");
  69              		.loc 2 24 5 is_stmt 1
  70              		.loc 2 24 14 is_stmt 0
  71 002c 17050000 		lla	a0,.LC0
  71      13050500 
  72              	.LVL6:
  73 0034 97000000 		call	_Z9putStringPKc@plt
  73      E7800000 
  74              	.LVL7:
  25:src/../h/../h/my_console.h ****     putString(file);
  75              		.loc 2 25 5 is_stmt 1
  76              		.loc 2 25 14 is_stmt 0
  77 003c 17050000 		lla	a0,.LC1
  77      13050500 
  78 0044 97000000 		call	_Z9putStringPKc@plt
  78      E7800000 
  79              	.LVL8:
  26:src/../h/../h/my_console.h ****     putString("    line: ");
  80              		.loc 2 26 5 is_stmt 1
  81              		.loc 2 26 14 is_stmt 0
  82 004c 17050000 		lla	a0,.LC2
  82      13050500 
  83 0054 97000000 		call	_Z9putStringPKc@plt
  83      E7800000 
  84              	.LVL9:
  27:src/../h/../h/my_console.h ****     putInt(line);
  85              		.loc 2 27 5 is_stmt 1
  86              		.loc 2 27 11 is_stmt 0
  87 005c 13057000 		li	a0,7
  88 0060 97000000 		call	_Z6putInti@plt
  88      E7800000 
  89              	.LVL10:
  28:src/../h/../h/my_console.h ****     putString("   ===========================");
  90              		.loc 2 28 5 is_stmt 1
  91              		.loc 2 28 14 is_stmt 0
  92 0068 17050000 		lla	a0,.LC3
  92      13050500 
  93 0070 97000000 		call	_Z9putStringPKc@plt
  93      E7800000 
  94              	.LVL11:
  29:src/../h/../h/my_console.h ****     putNewline();
  95              		.loc 2 29 5 is_stmt 1
  96              		.loc 2 29 15 is_stmt 0
  97 0078 97000000 		call	_Z10putNewlinev@plt
  97      E7800000 
  98              	.LVL12:
  30:src/../h/../h/my_console.h **** 
  31:src/../h/../h/my_console.h ****     IConsole::get()->writeToConsole();
  99              		.loc 2 31 5 is_stmt 1
 100              	.LBB19:
 101              	.LBB20:
 102              		.file 3 "src/../h/../h/../h/0_console.h"
   1:src/../h/../h/../h/0_console.h **** #pragma once
GAS LISTING /tmp/cccQUxeo.s 			page 4


   2:src/../h/../h/../h/0_console.h **** 
   3:src/../h/../h/../h/0_console.h **** #include "../lib/hw.h"
   4:src/../h/../h/../h/0_console.h **** 
   5:src/../h/../h/../h/0_console.h **** #define BUFFER_SIZE 1000
   6:src/../h/../h/../h/0_console.h **** 
   7:src/../h/../h/../h/0_console.h **** class IConsole // singleton class
   8:src/../h/../h/../h/0_console.h **** {
   9:src/../h/../h/../h/0_console.h **** public:
  10:src/../h/../h/../h/0_console.h ****     static IConsole* get()
  11:src/../h/../h/../h/0_console.h ****     {
  12:src/../h/../h/../h/0_console.h ****         static IConsole instance;
 103              		.loc 3 12 9
 104              		.loc 3 12 25 is_stmt 0
 105 0080 97070000 		lbu	a5,_ZGVZN8IConsole3getEvE8instance
 105      83C70700 
 106 0088 63920702 		bnez	a5,.L3
 107              	.LVL13:
 108              	.LBB21:
 109              	.LBB22:
 110              	.LBB23:
  13:src/../h/../h/../h/0_console.h ****         return &instance;
  14:src/../h/../h/../h/0_console.h ****     }
  15:src/../h/../h/../h/0_console.h **** 
  16:src/../h/../h/../h/0_console.h ****     void writeToConsole();
  17:src/../h/../h/../h/0_console.h ****     uint64 putBufferHead, putBufferTail;
  18:src/../h/../h/../h/0_console.h ****     char putBuffer[BUFFER_SIZE];
  19:src/../h/../h/../h/0_console.h ****     uint64 putBufferItems;
  20:src/../h/../h/../h/0_console.h **** 
  21:src/../h/../h/../h/0_console.h ****     char getBuffer[BUFFER_SIZE];
  22:src/../h/../h/../h/0_console.h ****     uint64 getBufferItems;
  23:src/../h/../h/../h/0_console.h ****     uint64 getBufferHead, getBufferTail;
  24:src/../h/../h/../h/0_console.h **** 
  25:src/../h/../h/../h/0_console.h ****     void putc(char c);
  26:src/../h/../h/../h/0_console.h ****     char getc();
  27:src/../h/../h/../h/0_console.h ****     void consoleHandler();
  28:src/../h/../h/../h/0_console.h ****     void actualWriteToConsole();
  29:src/../h/../h/../h/0_console.h **** 
  30:src/../h/../h/../h/0_console.h **** private:
  31:src/../h/../h/../h/0_console.h ****     IConsole()
  32:src/../h/../h/../h/0_console.h ****         : putBufferHead(0), putBufferTail(0), putBufferItems(0)
 111              		.loc 3 32 63
 112 008c 97070000 		lla	a5,_ZZN8IConsole3getEvE8instance
 112      93870700 
 113 0094 23B00700 		sd	zero,0(a5)
 114 0098 23B40700 		sd	zero,8(a5)
 115 009c 23BC073E 		sd	zero,1016(a5)
 116              	.LVL14:
 117              	.LBE23:
 118              	.LBE22:
 119              	.LBE21:
  12:src/../h/../h/../h/0_console.h ****         return &instance;
 120              		.loc 3 12 25
 121 00a0 93071000 		li	a5,1
 122 00a4 17070000 		sb	a5,_ZGVZN8IConsole3getEvE8instance,a4
 122      2300F700 
 123              	.L3:
  13:src/../h/../h/../h/0_console.h ****         return &instance;
GAS LISTING /tmp/cccQUxeo.s 			page 5


 124              		.loc 3 13 9 is_stmt 1
 125              	.LBE20:
 126              	.LBE19:
 127              		.loc 2 31 36 is_stmt 0
 128 00ac 17050000 		lla	a0,_ZZN8IConsole3getEvE8instance
 128      13050500 
 129 00b4 97000000 		call	_ZN8IConsole14writeToConsoleEv@plt
 129      E7800000 
 130              	.LVL15:
  32:src/../h/../h/my_console.h **** 
  33:src/../h/../h/my_console.h **** 
  34:src/../h/../h/my_console.h ****     stopKernel();
 131              		.loc 2 34 5 is_stmt 1
 132              		.loc 2 34 15 is_stmt 0
 133 00bc 97000000 		call	_Z10stopKernelv@plt
 133      E7800000 
 134              	.LVL16:
 135              	.LBE24:
 136              	.LBE25:
 137              		.cfi_endproc
 138              	.LFE11:
 140              		.align	2
 141              		.globl	_Z13alignBackwardmm
 143              	_Z13alignBackwardmm:
 144              	.LFB12:
  14:src/alloc.cpp **** 
  15:src/alloc.cpp **** uint64 alignBackward(uint64 n, uint64 alignConst)
  16:src/alloc.cpp **** {
 145              		.loc 1 16 1 is_stmt 1
 146              		.cfi_startproc
 147              	.LVL17:
  17:src/alloc.cpp ****     assert(alignConst == MEM_BLOCK_SIZE);
 148              		.loc 1 17 5
 149 00c4 938505FC 		addi	a1,a1,-64
 150              	.LVL18:
 151              	.LBB33:
 152              	.LBB34:
  21:src/../h/../h/my_console.h ****         return;
 153              		.loc 2 21 5
 154 00c8 63960500 		bnez	a1,.L15
  22:src/../h/../h/my_console.h **** 
 155              		.loc 2 22 9
 156              	.LVL19:
 157              	.LBE34:
 158              	.LBE33:
  18:src/alloc.cpp ****     return n - n % MEM_BLOCK_SIZE;;
 159              		.loc 1 18 5
 160              		.loc 1 18 35
  19:src/alloc.cpp **** }
 161              		.loc 1 19 1 is_stmt 0
 162 00cc 137505FC 		andi	a0,a0,-64
 163              	.LVL20:
 164 00d0 67800000 		ret
 165              	.LVL21:
 166              	.L15:
  16:src/alloc.cpp ****     assert(alignConst == MEM_BLOCK_SIZE);
 167              		.loc 1 16 1
GAS LISTING /tmp/cccQUxeo.s 			page 6


 168 00d4 130101FF 		addi	sp,sp,-16
 169              		.cfi_def_cfa_offset 16
 170 00d8 23341100 		sd	ra,8(sp)
 171 00dc 23308100 		sd	s0,0(sp)
 172              		.cfi_offset 1, -8
 173              		.cfi_offset 8, -16
 174 00e0 13040101 		addi	s0,sp,16
 175              		.cfi_def_cfa 8, 0
 176              	.LBB41:
 177              	.LBB40:
  24:src/../h/../h/my_console.h ****     putString(file);
 178              		.loc 2 24 5 is_stmt 1
  24:src/../h/../h/my_console.h ****     putString(file);
 179              		.loc 2 24 14 is_stmt 0
 180 00e4 17050000 		lla	a0,.LC0
 180      13050500 
 181              	.LVL22:
 182 00ec 97000000 		call	_Z9putStringPKc@plt
 182      E7800000 
 183              	.LVL23:
  25:src/../h/../h/my_console.h ****     putString("    line: ");
 184              		.loc 2 25 5 is_stmt 1
  25:src/../h/../h/my_console.h ****     putString("    line: ");
 185              		.loc 2 25 14 is_stmt 0
 186 00f4 17050000 		lla	a0,.LC1
 186      13050500 
 187 00fc 97000000 		call	_Z9putStringPKc@plt
 187      E7800000 
 188              	.LVL24:
  26:src/../h/../h/my_console.h ****     putInt(line);
 189              		.loc 2 26 5 is_stmt 1
  26:src/../h/../h/my_console.h ****     putInt(line);
 190              		.loc 2 26 14 is_stmt 0
 191 0104 17050000 		lla	a0,.LC2
 191      13050500 
 192 010c 97000000 		call	_Z9putStringPKc@plt
 192      E7800000 
 193              	.LVL25:
  27:src/../h/../h/my_console.h ****     putString("   ===========================");
 194              		.loc 2 27 5 is_stmt 1
  27:src/../h/../h/my_console.h ****     putString("   ===========================");
 195              		.loc 2 27 11 is_stmt 0
 196 0114 13051001 		li	a0,17
 197 0118 97000000 		call	_Z6putInti@plt
 197      E7800000 
 198              	.LVL26:
  28:src/../h/../h/my_console.h ****     putNewline();
 199              		.loc 2 28 5 is_stmt 1
  28:src/../h/../h/my_console.h ****     putNewline();
 200              		.loc 2 28 14 is_stmt 0
 201 0120 17050000 		lla	a0,.LC3
 201      13050500 
 202 0128 97000000 		call	_Z9putStringPKc@plt
 202      E7800000 
 203              	.LVL27:
  29:src/../h/../h/my_console.h **** 
 204              		.loc 2 29 5 is_stmt 1
GAS LISTING /tmp/cccQUxeo.s 			page 7


  29:src/../h/../h/my_console.h **** 
 205              		.loc 2 29 15 is_stmt 0
 206 0130 97000000 		call	_Z10putNewlinev@plt
 206      E7800000 
 207              	.LVL28:
  31:src/../h/../h/my_console.h **** 
 208              		.loc 2 31 5 is_stmt 1
 209              	.LBB35:
 210              	.LBB36:
  12:src/../h/../h/../h/0_console.h ****         return &instance;
 211              		.loc 3 12 9
  12:src/../h/../h/../h/0_console.h ****         return &instance;
 212              		.loc 3 12 25 is_stmt 0
 213 0138 97070000 		lbu	a5,_ZGVZN8IConsole3getEvE8instance
 213      83C70700 
 214 0140 63920702 		bnez	a5,.L11
 215              	.LVL29:
 216              	.LBB37:
 217              	.LBB38:
 218              	.LBB39:
 219              		.loc 3 32 63
 220 0144 97070000 		lla	a5,_ZZN8IConsole3getEvE8instance
 220      93870700 
 221 014c 23B00700 		sd	zero,0(a5)
 222 0150 23B40700 		sd	zero,8(a5)
 223 0154 23BC073E 		sd	zero,1016(a5)
 224              	.LVL30:
 225              	.LBE39:
 226              	.LBE38:
 227              	.LBE37:
  12:src/../h/../h/../h/0_console.h ****         return &instance;
 228              		.loc 3 12 25
 229 0158 93071000 		li	a5,1
 230 015c 17070000 		sb	a5,_ZGVZN8IConsole3getEvE8instance,a4
 230      2300F700 
 231              	.L11:
  13:src/../h/../h/../h/0_console.h ****     }
 232              		.loc 3 13 9 is_stmt 1
 233              	.LBE36:
 234              	.LBE35:
  31:src/../h/../h/my_console.h **** 
 235              		.loc 2 31 36 is_stmt 0
 236 0164 17050000 		lla	a0,_ZZN8IConsole3getEvE8instance
 236      13050500 
 237 016c 97000000 		call	_ZN8IConsole14writeToConsoleEv@plt
 237      E7800000 
 238              	.LVL31:
 239              		.loc 2 34 5 is_stmt 1
 240              		.loc 2 34 15 is_stmt 0
 241 0174 97000000 		call	_Z10stopKernelv@plt
 241      E7800000 
 242              	.LVL32:
 243              	.LBE40:
 244              	.LBE41:
 245              		.cfi_endproc
 246              	.LFE12:
 248              		.align	2
GAS LISTING /tmp/cccQUxeo.s 			page 8


 249              		.globl	_ZN8MemAllocC2Ev
 251              	_ZN8MemAllocC2Ev:
 252              	.LFB15:
  20:src/alloc.cpp **** 
  21:src/alloc.cpp **** void MemAlloc::printUserlandUsage()
  22:src/alloc.cpp **** {
  23:src/alloc.cpp ****     uint64 a = getUserlandUsage();
  24:src/alloc.cpp ****     putString("Allocated ");
  25:src/alloc.cpp ****     putU64(a);
  26:src/alloc.cpp ****     putString(" bytes are allocated for userland");
  27:src/alloc.cpp ****     putNewline();
  28:src/alloc.cpp **** }
  29:src/alloc.cpp **** 
  30:src/alloc.cpp **** MemAlloc::MemAlloc()
 253              		.loc 1 30 1 is_stmt 1
 254              		.cfi_startproc
 255              	.LVL33:
 256 017c 130101FE 		addi	sp,sp,-32
 257              		.cfi_def_cfa_offset 32
 258 0180 233C1100 		sd	ra,24(sp)
 259 0184 23388100 		sd	s0,16(sp)
 260 0188 23349100 		sd	s1,8(sp)
 261 018c 23302101 		sd	s2,0(sp)
 262              		.cfi_offset 1, -8
 263              		.cfi_offset 8, -16
 264              		.cfi_offset 9, -24
 265              		.cfi_offset 18, -32
 266 0190 13040102 		addi	s0,sp,32
 267              		.cfi_def_cfa 8, 0
 268 0194 93040500 		mv	s1,a0
 269              	.LBB50:
  31:src/alloc.cpp **** : MAX_NODE_SIZE(sizeof(FreeNode) > sizeof(TakenNode) ? sizeof(FreeNode) : sizeof(TakenNode))
 270              		.loc 1 31 92 is_stmt 0
 271 0198 93078001 		li	a5,24
 272 019c 2338F500 		sd	a5,16(a0)
  32:src/alloc.cpp **** {
  33:src/alloc.cpp ****     pFreeHead = (FreeNode*)alignForward((uint64)HEAP_START_ADDR, MEM_BLOCK_SIZE);
 273              		.loc 1 33 5 is_stmt 1
 274              		.loc 1 33 40 is_stmt 0
 275 01a0 93050004 		li	a1,64
 276 01a4 97070000 		la	a5,HEAP_START_ADDR
 276      83B70700 
 277 01ac 03B50700 		ld	a0,0(a5)
 278              	.LVL34:
 279 01b0 97000000 		call	_Z12alignForwardmm
 279      E7800000 
 280              	.LVL35:
 281              		.loc 1 33 15
 282 01b8 23B0A400 		sd	a0,0(s1)
  34:src/alloc.cpp ****     pFreeHead->base = (char*)alignForward((uint64)pFreeHead + MAX_NODE_SIZE, MEM_BLOCK_SIZE);
 283              		.loc 1 34 5 is_stmt 1
 284              		.loc 1 34 63 is_stmt 0
 285 01bc 83B70401 		ld	a5,16(s1)
 286              		.loc 1 34 42
 287 01c0 93050004 		li	a1,64
 288 01c4 3385A700 		add	a0,a5,a0
 289 01c8 97000000 		call	_Z12alignForwardmm
GAS LISTING /tmp/cccQUxeo.s 			page 9


 289      E7800000 
 290              	.LVL36:
 291              		.loc 1 34 5
 292 01d0 83B70400 		ld	a5,0(s1)
 293              		.loc 1 34 21
 294 01d4 23B8A700 		sd	a0,16(a5)
  35:src/alloc.cpp ****     pFreeHead->size = alignBackward((uint64)HEAP_END_ADDR - (uint64)pFreeHead->base, MEM_BLOCK_SIZE
 295              		.loc 1 35 5 is_stmt 1
 296              		.loc 1 35 69 is_stmt 0
 297 01d8 03B90400 		ld	s2,0(s1)
 298              		.loc 1 35 80
 299 01dc 83370901 		ld	a5,16(s2)
 300              		.loc 1 35 36
 301 01e0 17070000 		la	a4,HEAP_END_ADDR
 301      03370700 
 302 01e8 03350700 		ld	a0,0(a4)
 303 01ec 93050004 		li	a1,64
 304 01f0 3305F540 		sub	a0,a0,a5
 305 01f4 97000000 		call	_Z13alignBackwardmm
 305      E7800000 
 306              	.LVL37:
 307              		.loc 1 35 21
 308 01fc 2334A900 		sd	a0,8(s2)
  36:src/alloc.cpp **** 
  37:src/alloc.cpp ****     pTakenHead = nullptr;
 309              		.loc 1 37 5 is_stmt 1
 310              		.loc 1 37 16 is_stmt 0
 311 0200 23B40400 		sd	zero,8(s1)
  38:src/alloc.cpp **** 
  39:src/alloc.cpp ****     assert(((uint64)pFreeHead->size) / 1024 / 1024 == 127);
 312              		.loc 1 39 5 is_stmt 1
 313 0204 83B70400 		ld	a5,0(s1)
 314 0208 83B78700 		ld	a5,8(a5)
 315 020c 370710F8 		li	a4,-133169152
 316 0210 B387E700 		add	a5,a5,a4
 317 0214 37071000 		li	a4,1048576
 318              	.LVL38:
 319              	.LBB51:
 320              	.LBB52:
  21:src/../h/../h/my_console.h ****         return;
 321              		.loc 2 21 5
 322 0218 63FEE700 		bgeu	a5,a4,.L20
 323              	.LBE52:
 324              	.LBE51:
 325              	.LBE50:
  40:src/alloc.cpp **** }
 326              		.loc 1 40 1 is_stmt 0
 327 021c 83308101 		ld	ra,24(sp)
 328              		.cfi_remember_state
 329              		.cfi_restore 1
 330 0220 03340101 		ld	s0,16(sp)
 331              		.cfi_restore 8
 332              		.cfi_def_cfa 2, 32
 333 0224 83348100 		ld	s1,8(sp)
 334              		.cfi_restore 9
 335              	.LVL39:
 336 0228 03390100 		ld	s2,0(sp)
GAS LISTING /tmp/cccQUxeo.s 			page 10


 337              		.cfi_restore 18
 338 022c 13010102 		addi	sp,sp,32
 339              		.cfi_def_cfa_offset 0
 340 0230 67800000 		jr	ra
 341              	.LVL40:
 342              	.L20:
 343              		.cfi_restore_state
 344              	.LBB60:
 345              	.LBB59:
 346              	.LBB58:
  24:src/../h/../h/my_console.h ****     putString(file);
 347              		.loc 2 24 5 is_stmt 1
  24:src/../h/../h/my_console.h ****     putString(file);
 348              		.loc 2 24 14 is_stmt 0
 349 0234 17050000 		lla	a0,.LC0
 349      13050500 
 350 023c 97000000 		call	_Z9putStringPKc@plt
 350      E7800000 
 351              	.LVL41:
  25:src/../h/../h/my_console.h ****     putString("    line: ");
 352              		.loc 2 25 5 is_stmt 1
  25:src/../h/../h/my_console.h ****     putString("    line: ");
 353              		.loc 2 25 14 is_stmt 0
 354 0244 17050000 		lla	a0,.LC1
 354      13050500 
 355 024c 97000000 		call	_Z9putStringPKc@plt
 355      E7800000 
 356              	.LVL42:
  26:src/../h/../h/my_console.h ****     putInt(line);
 357              		.loc 2 26 5 is_stmt 1
  26:src/../h/../h/my_console.h ****     putInt(line);
 358              		.loc 2 26 14 is_stmt 0
 359 0254 17050000 		lla	a0,.LC2
 359      13050500 
 360 025c 97000000 		call	_Z9putStringPKc@plt
 360      E7800000 
 361              	.LVL43:
  27:src/../h/../h/my_console.h ****     putString("   ===========================");
 362              		.loc 2 27 5 is_stmt 1
  27:src/../h/../h/my_console.h ****     putString("   ===========================");
 363              		.loc 2 27 11 is_stmt 0
 364 0264 13057002 		li	a0,39
 365 0268 97000000 		call	_Z6putInti@plt
 365      E7800000 
 366              	.LVL44:
  28:src/../h/../h/my_console.h ****     putNewline();
 367              		.loc 2 28 5 is_stmt 1
  28:src/../h/../h/my_console.h ****     putNewline();
 368              		.loc 2 28 14 is_stmt 0
 369 0270 17050000 		lla	a0,.LC3
 369      13050500 
 370 0278 97000000 		call	_Z9putStringPKc@plt
 370      E7800000 
 371              	.LVL45:
  29:src/../h/../h/my_console.h **** 
 372              		.loc 2 29 5 is_stmt 1
  29:src/../h/../h/my_console.h **** 
GAS LISTING /tmp/cccQUxeo.s 			page 11


 373              		.loc 2 29 15 is_stmt 0
 374 0280 97000000 		call	_Z10putNewlinev@plt
 374      E7800000 
 375              	.LVL46:
  31:src/../h/../h/my_console.h **** 
 376              		.loc 2 31 5 is_stmt 1
 377              	.LBB53:
 378              	.LBB54:
  12:src/../h/../h/../h/0_console.h ****         return &instance;
 379              		.loc 3 12 9
  12:src/../h/../h/../h/0_console.h ****         return &instance;
 380              		.loc 3 12 25 is_stmt 0
 381 0288 97070000 		lbu	a5,_ZGVZN8IConsole3getEvE8instance
 381      83C70700 
 382 0290 63920702 		bnez	a5,.L18
 383              	.LVL47:
 384              	.LBB55:
 385              	.LBB56:
 386              	.LBB57:
 387              		.loc 3 32 63
 388 0294 97070000 		lla	a5,_ZZN8IConsole3getEvE8instance
 388      93870700 
 389 029c 23B00700 		sd	zero,0(a5)
 390 02a0 23B40700 		sd	zero,8(a5)
 391 02a4 23BC073E 		sd	zero,1016(a5)
 392              	.LVL48:
 393              	.LBE57:
 394              	.LBE56:
 395              	.LBE55:
  12:src/../h/../h/../h/0_console.h ****         return &instance;
 396              		.loc 3 12 25
 397 02a8 93071000 		li	a5,1
 398 02ac 17070000 		sb	a5,_ZGVZN8IConsole3getEvE8instance,a4
 398      2300F700 
 399              	.L18:
  13:src/../h/../h/../h/0_console.h ****     }
 400              		.loc 3 13 9 is_stmt 1
 401              	.LBE54:
 402              	.LBE53:
  31:src/../h/../h/my_console.h **** 
 403              		.loc 2 31 36 is_stmt 0
 404 02b4 17050000 		lla	a0,_ZZN8IConsole3getEvE8instance
 404      13050500 
 405 02bc 97000000 		call	_ZN8IConsole14writeToConsoleEv@plt
 405      E7800000 
 406              	.LVL49:
 407              		.loc 2 34 5 is_stmt 1
 408              		.loc 2 34 15 is_stmt 0
 409 02c4 97000000 		call	_Z10stopKernelv@plt
 409      E7800000 
 410              	.LVL50:
 411              	.LBE58:
 412              	.LBE59:
 413              	.LBE60:
 414              		.cfi_endproc
 415              	.LFE15:
 417              		.globl	_ZN8MemAllocC1Ev
GAS LISTING /tmp/cccQUxeo.s 			page 12


 418              		.set	_ZN8MemAllocC1Ev,_ZN8MemAllocC2Ev
 419              		.align	2
 420              		.globl	_ZN8MemAlloc3getEv
 422              	_ZN8MemAlloc3getEv:
 423              	.LFB17:
  41:src/alloc.cpp **** 
  42:src/alloc.cpp **** 
  43:src/alloc.cpp **** MemAlloc* MemAlloc::get()
  44:src/alloc.cpp **** {
 424              		.loc 1 44 1 is_stmt 1
 425              		.cfi_startproc
  45:src/alloc.cpp ****     static MemAlloc instance;
 426              		.loc 1 45 5
 427              		.loc 1 45 21 is_stmt 0
 428 02cc 97070000 		lbu	a5,.LANCHOR0
 428      83C70700 
 429 02d4 63880700 		beqz	a5,.L27
  46:src/alloc.cpp ****     return &instance;
 430              		.loc 1 46 5 is_stmt 1
  47:src/alloc.cpp **** }
 431              		.loc 1 47 1 is_stmt 0
 432 02d8 17050000 		lla	a0,.LANCHOR0+8
 432      13050500 
 433 02e0 67800000 		ret
 434              	.L27:
  44:src/alloc.cpp ****     static MemAlloc instance;
 435              		.loc 1 44 1 discriminator 1
 436 02e4 130101FF 		addi	sp,sp,-16
 437              		.cfi_def_cfa_offset 16
 438 02e8 23341100 		sd	ra,8(sp)
 439 02ec 23308100 		sd	s0,0(sp)
 440              		.cfi_offset 1, -8
 441              		.cfi_offset 8, -16
 442 02f0 13040101 		addi	s0,sp,16
 443              		.cfi_def_cfa 8, 0
  45:src/alloc.cpp ****     return &instance;
 444              		.loc 1 45 21 discriminator 1
 445 02f4 17050000 		lla	a0,.LANCHOR0+8
 445      13050500 
 446 02fc 97000000 		call	_ZN8MemAllocC1Ev
 446      E7800000 
 447              	.LVL51:
 448 0304 93071000 		li	a5,1
 449 0308 17070000 		sb	a5,.LANCHOR0,a4
 449      2300F700 
  46:src/alloc.cpp **** }
 450              		.loc 1 46 5 is_stmt 1 discriminator 1
 451              		.loc 1 47 1 is_stmt 0 discriminator 1
 452 0310 17050000 		lla	a0,.LANCHOR0+8
 452      13050500 
 453 0318 83308100 		ld	ra,8(sp)
 454              		.cfi_restore 1
 455 031c 03340100 		ld	s0,0(sp)
 456              		.cfi_restore 8
 457              		.cfi_def_cfa 2, 16
 458 0320 13010101 		addi	sp,sp,16
 459              		.cfi_def_cfa_offset 0
GAS LISTING /tmp/cccQUxeo.s 			page 13


 460 0324 67800000 		jr	ra
 461              		.cfi_endproc
 462              	.LFE17:
 464              		.align	2
 465              		.globl	_ZN8MemAlloc8allocMemEm
 467              	_ZN8MemAlloc8allocMemEm:
 468              	.LFB18:
  48:src/alloc.cpp **** 
  49:src/alloc.cpp **** void* MemAlloc::allocMem(size_t size)
  50:src/alloc.cpp **** {
 469              		.loc 1 50 1 is_stmt 1
 470              		.cfi_startproc
 471              	.LVL52:
 472 0328 130101FB 		addi	sp,sp,-80
 473              		.cfi_def_cfa_offset 80
 474 032c 23341104 		sd	ra,72(sp)
 475 0330 23308104 		sd	s0,64(sp)
 476 0334 233C9102 		sd	s1,56(sp)
 477 0338 23382103 		sd	s2,48(sp)
 478 033c 23343103 		sd	s3,40(sp)
 479 0340 23304103 		sd	s4,32(sp)
 480 0344 233C5101 		sd	s5,24(sp)
 481 0348 23386101 		sd	s6,16(sp)
 482 034c 23347101 		sd	s7,8(sp)
 483 0350 23308101 		sd	s8,0(sp)
 484              		.cfi_offset 1, -8
 485              		.cfi_offset 8, -16
 486              		.cfi_offset 9, -24
 487              		.cfi_offset 18, -32
 488              		.cfi_offset 19, -40
 489              		.cfi_offset 20, -48
 490              		.cfi_offset 21, -56
 491              		.cfi_offset 22, -64
 492              		.cfi_offset 23, -72
 493              		.cfi_offset 24, -80
 494 0354 13040105 		addi	s0,sp,80
 495              		.cfi_def_cfa 8, 0
 496 0358 93090500 		mv	s3,a0
 497 035c 13850500 		mv	a0,a1
 498              	.LVL53:
  51:src/alloc.cpp ****     // Algorithm: puts it in the first place large enough found
  52:src/alloc.cpp **** 
  53:src/alloc.cpp **** //    size_t initialSize = size;
  54:src/alloc.cpp **** //    putString("=== called: allocMem(");
  55:src/alloc.cpp **** //    putU64(initialSize);
  56:src/alloc.cpp **** //    putString(")");
  57:src/alloc.cpp **** //    putNewline();
  58:src/alloc.cpp **** 
  59:src/alloc.cpp ****     size = alignForward(size, MEM_BLOCK_SIZE);
 499              		.loc 1 59 5
 500              		.loc 1 59 24 is_stmt 0
 501 0360 93050004 		li	a1,64
 502              	.LVL54:
 503 0364 97000000 		call	_Z12alignForwardmm
 503      E7800000 
 504              	.LVL55:
 505 036c 130A0500 		mv	s4,a0
GAS LISTING /tmp/cccQUxeo.s 			page 14


 506              	.LVL56:
  60:src/alloc.cpp **** 
  61:src/alloc.cpp ****     size_t usableSize = size;
 507              		.loc 1 61 5 is_stmt 1
  62:src/alloc.cpp ****     size_t actualSize = alignForward(usableSize + MAX_NODE_SIZE, MEM_BLOCK_SIZE);
 508              		.loc 1 62 5
 509              		.loc 1 62 51 is_stmt 0
 510 0370 03B50901 		ld	a0,16(s3)
 511              	.LVL57:
 512              		.loc 1 62 37
 513 0374 93050004 		li	a1,64
 514 0378 33054501 		add	a0,a0,s4
 515 037c 97000000 		call	_Z12alignForwardmm
 515      E7800000 
 516              	.LVL58:
  63:src/alloc.cpp ****     assert(usableSize % MEM_BLOCK_SIZE == 0 && actualSize % MEM_BLOCK_SIZE == 0);
 517              		.loc 1 63 5 is_stmt 1
 518 0384 9377FA03 		andi	a5,s4,63
 519 0388 639A0700 		bnez	a5,.L48
 520              		.loc 1 63 5 is_stmt 0 discriminator 1
 521 038c 1375F503 		andi	a0,a0,63
 522              	.LVL59:
 523 0390 63000502 		beqz	a0,.L49
 524              		.loc 1 63 5
 525 0394 130C0000 		li	s8,0
 526 0398 6F008000 		j	.L29
 527              	.LVL60:
 528              	.L48:
 529 039c 130C0000 		li	s8,0
 530              	.LVL61:
 531              	.L29:
 532              	.LBB106:
 533              	.LBB107:
  21:src/../h/../h/my_console.h ****         return;
 534              		.loc 2 21 5 is_stmt 1 discriminator 6
 535 03a0 630C0C00 		beqz	s8,.L56
  22:src/../h/../h/my_console.h **** 
 536              		.loc 2 22 9 discriminator 6
 537              	.LVL62:
 538              	.LBE107:
 539              	.LBE106:
  64:src/alloc.cpp ****     size = 0; // WARNING: use actualSize and initialSize instead
 540              		.loc 1 64 5 discriminator 6
  65:src/alloc.cpp **** 
  66:src/alloc.cpp ****     FreeNode* pCur = pFreeHead;
 541              		.loc 1 66 5 discriminator 6
 542              		.loc 1 66 15 is_stmt 0 discriminator 6
 543 03a4 83B40900 		ld	s1,0(s3)
 544              	.LVL63:
  67:src/alloc.cpp ****     FreeNode* pPrev = nullptr;
 545              		.loc 1 67 5 is_stmt 1 discriminator 6
 546              		.loc 1 67 15 is_stmt 0 discriminator 6
 547 03a8 130B0000 		li	s6,0
 548 03ac 6F004010 		j	.L46
 549              	.LVL64:
 550              	.L49:
  63:src/alloc.cpp ****     size = 0; // WARNING: use actualSize and initialSize instead
GAS LISTING /tmp/cccQUxeo.s 			page 15


 551              		.loc 1 63 5
 552 03b0 130C1000 		li	s8,1
 553 03b4 6FF0DFFE 		j	.L29
 554              	.LVL65:
 555              	.L56:
 556              	.LBB114:
 557              	.LBB113:
  24:src/../h/../h/my_console.h ****     putString(file);
 558              		.loc 2 24 5 is_stmt 1
  24:src/../h/../h/my_console.h ****     putString(file);
 559              		.loc 2 24 14 is_stmt 0
 560 03b8 17050000 		lla	a0,.LC0
 560      13050500 
 561 03c0 97000000 		call	_Z9putStringPKc@plt
 561      E7800000 
 562              	.LVL66:
  25:src/../h/../h/my_console.h ****     putString("    line: ");
 563              		.loc 2 25 5 is_stmt 1
  25:src/../h/../h/my_console.h ****     putString("    line: ");
 564              		.loc 2 25 14 is_stmt 0
 565 03c8 17050000 		lla	a0,.LC1
 565      13050500 
 566 03d0 97000000 		call	_Z9putStringPKc@plt
 566      E7800000 
 567              	.LVL67:
  26:src/../h/../h/my_console.h ****     putInt(line);
 568              		.loc 2 26 5 is_stmt 1
  26:src/../h/../h/my_console.h ****     putInt(line);
 569              		.loc 2 26 14 is_stmt 0
 570 03d8 17050000 		lla	a0,.LC2
 570      13050500 
 571 03e0 97000000 		call	_Z9putStringPKc@plt
 571      E7800000 
 572              	.LVL68:
  27:src/../h/../h/my_console.h ****     putString("   ===========================");
 573              		.loc 2 27 5 is_stmt 1
  27:src/../h/../h/my_console.h ****     putString("   ===========================");
 574              		.loc 2 27 11 is_stmt 0
 575 03e8 1305F003 		li	a0,63
 576 03ec 97000000 		call	_Z6putInti@plt
 576      E7800000 
 577              	.LVL69:
  28:src/../h/../h/my_console.h ****     putNewline();
 578              		.loc 2 28 5 is_stmt 1
  28:src/../h/../h/my_console.h ****     putNewline();
 579              		.loc 2 28 14 is_stmt 0
 580 03f4 17050000 		lla	a0,.LC3
 580      13050500 
 581 03fc 97000000 		call	_Z9putStringPKc@plt
 581      E7800000 
 582              	.LVL70:
  29:src/../h/../h/my_console.h **** 
 583              		.loc 2 29 5 is_stmt 1
  29:src/../h/../h/my_console.h **** 
 584              		.loc 2 29 15 is_stmt 0
 585 0404 97000000 		call	_Z10putNewlinev@plt
 585      E7800000 
GAS LISTING /tmp/cccQUxeo.s 			page 16


 586              	.LVL71:
  31:src/../h/../h/my_console.h **** 
 587              		.loc 2 31 5 is_stmt 1
 588              	.LBB108:
 589              	.LBB109:
  12:src/../h/../h/../h/0_console.h ****         return &instance;
 590              		.loc 3 12 9
  12:src/../h/../h/../h/0_console.h ****         return &instance;
 591              		.loc 3 12 25 is_stmt 0
 592 040c 97070000 		lbu	a5,_ZGVZN8IConsole3getEvE8instance
 592      83C70700 
 593 0414 63920702 		bnez	a5,.L31
 594              	.LVL72:
 595              	.LBB110:
 596              	.LBB111:
 597              	.LBB112:
 598              		.loc 3 32 63
 599 0418 97070000 		lla	a5,_ZZN8IConsole3getEvE8instance
 599      93870700 
 600 0420 23B00700 		sd	zero,0(a5)
 601 0424 23B40700 		sd	zero,8(a5)
 602 0428 23BC073E 		sd	zero,1016(a5)
 603              	.LVL73:
 604              	.LBE112:
 605              	.LBE111:
 606              	.LBE110:
  12:src/../h/../h/../h/0_console.h ****         return &instance;
 607              		.loc 3 12 25
 608 042c 93071000 		li	a5,1
 609 0430 17070000 		sb	a5,_ZGVZN8IConsole3getEvE8instance,a4
 609      2300F700 
 610              	.L31:
  13:src/../h/../h/../h/0_console.h ****     }
 611              		.loc 3 13 9 is_stmt 1
 612              	.LBE109:
 613              	.LBE108:
  31:src/../h/../h/my_console.h **** 
 614              		.loc 2 31 36 is_stmt 0
 615 0438 17050000 		lla	a0,_ZZN8IConsole3getEvE8instance
 615      13050500 
 616 0440 97000000 		call	_ZN8IConsole14writeToConsoleEv@plt
 616      E7800000 
 617              	.LVL74:
 618              		.loc 2 34 5 is_stmt 1
 619              		.loc 2 34 15 is_stmt 0
 620 0448 97000000 		call	_Z10stopKernelv@plt
 620      E7800000 
 621              	.LVL75:
 622              	.L50:
 623              	.LBE113:
 624              	.LBE114:
 625              	.LBB115:
  68:src/alloc.cpp **** 
  69:src/alloc.cpp ****     while(pCur != nullptr)
  70:src/alloc.cpp ****     {
  71:src/alloc.cpp ****         assert(((uint64) pCur->base) % MEM_BLOCK_SIZE == 0 &&
 626              		.loc 1 71 9
GAS LISTING /tmp/cccQUxeo.s 			page 17


 627 0450 93070000 		li	a5,0
 628              	.L33:
 629              	.LVL76:
 630              	.LBB116:
 631              	.LBB117:
  21:src/../h/../h/my_console.h ****         return;
 632              		.loc 2 21 5 is_stmt 1 discriminator 6
 633 0454 63840708 		beqz	a5,.L57
  22:src/../h/../h/my_console.h **** 
 634              		.loc 2 22 9 discriminator 6
 635              	.LVL77:
 636              	.LBE117:
 637              	.LBE116:
  72:src/alloc.cpp ****                pCur->size % MEM_BLOCK_SIZE == 0); // check for alignment errors
  73:src/alloc.cpp ****         assert(((uint64)pCur) % MEM_BLOCK_SIZE == 0);
 638              		.loc 1 73 9 discriminator 6
 639 0458 93F7F403 		andi	a5,s1,63
 640 045c 93BB1700 		seqz	s7,a5
 641              	.LVL78:
 642              	.LBB124:
 643              	.LBB125:
  21:src/../h/../h/my_console.h ****         return;
 644              		.loc 2 21 5 discriminator 6
 645 0460 639A0710 		bnez	a5,.L58
  22:src/../h/../h/my_console.h **** 
 646              		.loc 2 22 9 discriminator 6
 647              	.LVL79:
 648              	.LBE125:
 649              	.LBE124:
  74:src/alloc.cpp **** 
  75:src/alloc.cpp ****         FreeNode *newFree;
 650              		.loc 1 75 9 discriminator 6
  76:src/alloc.cpp ****         newFree = (FreeNode *) alignForward((uint64) (pCur->base + usableSize), MEM_BLOCK_SIZE);
 651              		.loc 1 76 9 discriminator 6
 652              		.loc 1 76 61 is_stmt 0 discriminator 6
 653 0464 03B50401 		ld	a0,16(s1)
 654              		.loc 1 76 44 discriminator 6
 655 0468 93050004 		li	a1,64
 656 046c 33054501 		add	a0,a0,s4
 657 0470 97000000 		call	_Z12alignForwardmm
 657      E7800000 
 658              	.LVL80:
 659 0478 13090500 		mv	s2,a0
 660              		.loc 1 76 17 discriminator 6
 661 047c 930A0500 		mv	s5,a0
 662              	.LVL81:
  77:src/alloc.cpp ****         newFree->base = (char*)alignForward((uint64)newFree + MAX_NODE_SIZE, MEM_BLOCK_SIZE);
 663              		.loc 1 77 9 is_stmt 1 discriminator 6
 664              		.loc 1 77 63 is_stmt 0 discriminator 6
 665 0480 03B50901 		ld	a0,16(s3)
 666              	.LVL82:
 667              		.loc 1 77 44 discriminator 6
 668 0484 93050004 		li	a1,64
 669 0488 33052501 		add	a0,a0,s2
 670 048c 97000000 		call	_Z12alignForwardmm
 670      E7800000 
 671              	.LVL83:
GAS LISTING /tmp/cccQUxeo.s 			page 18


 672              		.loc 1 77 23 discriminator 6
 673 0494 2338A900 		sd	a0,16(s2)
  78:src/alloc.cpp ****         if (pCur->base + pCur->size > newFree->base)
 674              		.loc 1 78 9 is_stmt 1 discriminator 6
 675              	.LBB132:
 676              		.loc 1 78 19 is_stmt 0 discriminator 6
 677 0498 83B70401 		ld	a5,16(s1)
 678              		.loc 1 78 32 discriminator 6
 679 049c 03B78400 		ld	a4,8(s1)
 680              		.loc 1 78 24 discriminator 6
 681 04a0 B387E700 		add	a5,a5,a4
 682              		.loc 1 78 9 discriminator 6
 683 04a4 6364F516 		bltu	a0,a5,.L59
 684              	.LBE132:
  79:src/alloc.cpp ****         {
  80:src/alloc.cpp ****             // success: memory block found
  81:src/alloc.cpp **** 
  82:src/alloc.cpp ****             newFree->size = pCur->base + pCur->size - newFree->base;
  83:src/alloc.cpp ****             assert(newFree->size % MEM_BLOCK_SIZE == 0 && (uint64)newFree->base % MEM_BLOCK_SIZE ==
  84:src/alloc.cpp ****                    ((uint64) newFree) % MEM_BLOCK_SIZE == 0);
  85:src/alloc.cpp **** 
  86:src/alloc.cpp ****             newFree->pNext = pCur->pNext; // replace pCur with the new one
  87:src/alloc.cpp **** 
  88:src/alloc.cpp ****             if(pPrev) // ???
  89:src/alloc.cpp ****                 pPrev->pNext = newFree;
  90:src/alloc.cpp ****             else
  91:src/alloc.cpp ****             {
  92:src/alloc.cpp ****                 assert(pCur == pFreeHead);
  93:src/alloc.cpp ****                 pFreeHead = newFree;
  94:src/alloc.cpp ****             }
  95:src/alloc.cpp **** 
  96:src/alloc.cpp ****             TakenNode* newTaken = (TakenNode*)pCur;
  97:src/alloc.cpp ****             newTaken->pNext = pTakenHead;
  98:src/alloc.cpp ****             newTaken->base = pCur->base;
  99:src/alloc.cpp ****             newTaken->size = usableSize;
 100:src/alloc.cpp ****             newTaken->pNext = pTakenHead;
 101:src/alloc.cpp ****             pTakenHead = newTaken;
 102:src/alloc.cpp **** 
 103:src/alloc.cpp ****             void *ret = newTaken->base;
 104:src/alloc.cpp ****             return ret;
 105:src/alloc.cpp ****         }
 106:src/alloc.cpp **** 
 107:src/alloc.cpp ****         pPrev = pCur;
 685              		.loc 1 107 9 is_stmt 1
 686              	.LVL84:
 108:src/alloc.cpp ****         pCur = pCur->pNext;
 687              		.loc 1 108 9
 107:src/alloc.cpp ****         pCur = pCur->pNext;
 688              		.loc 1 107 15 is_stmt 0
 689 04a8 138B0400 		mv	s6,s1
 690              		.loc 1 108 14
 691 04ac 83B40400 		ld	s1,0(s1)
 692              	.LVL85:
 693              	.L46:
 694              	.LBE115:
  69:src/alloc.cpp ****     {
 695              		.loc 1 69 5 is_stmt 1
GAS LISTING /tmp/cccQUxeo.s 			page 19


  69:src/alloc.cpp ****     {
 696              		.loc 1 69 16
 697 04b0 63880432 		beqz	s1,.L32
 698              	.LBB157:
  71:src/alloc.cpp ****                pCur->size % MEM_BLOCK_SIZE == 0); // check for alignment errors
 699              		.loc 1 71 9
 700 04b4 83B70401 		ld	a5,16(s1)
 701 04b8 93F7F703 		andi	a5,a5,63
 702 04bc E39A07F8 		bnez	a5,.L50
  71:src/alloc.cpp ****                pCur->size % MEM_BLOCK_SIZE == 0); // check for alignment errors
 703              		.loc 1 71 9 is_stmt 0 discriminator 1
 704 04c0 83B78400 		ld	a5,8(s1)
 705 04c4 93F7F703 		andi	a5,a5,63
 706 04c8 63860700 		beqz	a5,.L51
  71:src/alloc.cpp ****                pCur->size % MEM_BLOCK_SIZE == 0); // check for alignment errors
 707              		.loc 1 71 9
 708 04cc 93070000 		li	a5,0
 709 04d0 6FF05FF8 		j	.L33
 710              	.L51:
 711 04d4 93070C00 		mv	a5,s8
 712 04d8 6FF0DFF7 		j	.L33
 713              	.LVL86:
 714              	.L57:
 715              	.LBB153:
 716              	.LBB123:
  24:src/../h/../h/my_console.h ****     putString(file);
 717              		.loc 2 24 5 is_stmt 1
  24:src/../h/../h/my_console.h ****     putString(file);
 718              		.loc 2 24 14 is_stmt 0
 719 04dc 17050000 		lla	a0,.LC0
 719      13050500 
 720 04e4 97000000 		call	_Z9putStringPKc@plt
 720      E7800000 
 721              	.LVL87:
  25:src/../h/../h/my_console.h ****     putString("    line: ");
 722              		.loc 2 25 5 is_stmt 1
  25:src/../h/../h/my_console.h ****     putString("    line: ");
 723              		.loc 2 25 14 is_stmt 0
 724 04ec 17050000 		lla	a0,.LC1
 724      13050500 
 725 04f4 97000000 		call	_Z9putStringPKc@plt
 725      E7800000 
 726              	.LVL88:
  26:src/../h/../h/my_console.h ****     putInt(line);
 727              		.loc 2 26 5 is_stmt 1
  26:src/../h/../h/my_console.h ****     putInt(line);
 728              		.loc 2 26 14 is_stmt 0
 729 04fc 17050000 		lla	a0,.LC2
 729      13050500 
 730 0504 97000000 		call	_Z9putStringPKc@plt
 730      E7800000 
 731              	.LVL89:
  27:src/../h/../h/my_console.h ****     putString("   ===========================");
 732              		.loc 2 27 5 is_stmt 1
  27:src/../h/../h/my_console.h ****     putString("   ===========================");
 733              		.loc 2 27 11 is_stmt 0
 734 050c 13057004 		li	a0,71
GAS LISTING /tmp/cccQUxeo.s 			page 20


 735 0510 97000000 		call	_Z6putInti@plt
 735      E7800000 
 736              	.LVL90:
  28:src/../h/../h/my_console.h ****     putNewline();
 737              		.loc 2 28 5 is_stmt 1
  28:src/../h/../h/my_console.h ****     putNewline();
 738              		.loc 2 28 14 is_stmt 0
 739 0518 17050000 		lla	a0,.LC3
 739      13050500 
 740 0520 97000000 		call	_Z9putStringPKc@plt
 740      E7800000 
 741              	.LVL91:
  29:src/../h/../h/my_console.h **** 
 742              		.loc 2 29 5 is_stmt 1
  29:src/../h/../h/my_console.h **** 
 743              		.loc 2 29 15 is_stmt 0
 744 0528 97000000 		call	_Z10putNewlinev@plt
 744      E7800000 
 745              	.LVL92:
  31:src/../h/../h/my_console.h **** 
 746              		.loc 2 31 5 is_stmt 1
 747              	.LBB118:
 748              	.LBB119:
  12:src/../h/../h/../h/0_console.h ****         return &instance;
 749              		.loc 3 12 9
  12:src/../h/../h/../h/0_console.h ****         return &instance;
 750              		.loc 3 12 25 is_stmt 0
 751 0530 97070000 		lbu	a5,_ZGVZN8IConsole3getEvE8instance
 751      83C70700 
 752 0538 63920702 		bnez	a5,.L35
 753              	.LVL93:
 754              	.LBB120:
 755              	.LBB121:
 756              	.LBB122:
 757              		.loc 3 32 63
 758 053c 97070000 		lla	a5,_ZZN8IConsole3getEvE8instance
 758      93870700 
 759 0544 23B00700 		sd	zero,0(a5)
 760 0548 23B40700 		sd	zero,8(a5)
 761 054c 23BC073E 		sd	zero,1016(a5)
 762              	.LVL94:
 763              	.LBE122:
 764              	.LBE121:
 765              	.LBE120:
  12:src/../h/../h/../h/0_console.h ****         return &instance;
 766              		.loc 3 12 25
 767 0550 93071000 		li	a5,1
 768 0554 17070000 		sb	a5,_ZGVZN8IConsole3getEvE8instance,a4
 768      2300F700 
 769              	.L35:
  13:src/../h/../h/../h/0_console.h ****     }
 770              		.loc 3 13 9 is_stmt 1
 771              	.LBE119:
 772              	.LBE118:
  31:src/../h/../h/my_console.h **** 
 773              		.loc 2 31 36 is_stmt 0
 774 055c 17050000 		lla	a0,_ZZN8IConsole3getEvE8instance
GAS LISTING /tmp/cccQUxeo.s 			page 21


 774      13050500 
 775 0564 97000000 		call	_ZN8IConsole14writeToConsoleEv@plt
 775      E7800000 
 776              	.LVL95:
 777              		.loc 2 34 5 is_stmt 1
 778              		.loc 2 34 15 is_stmt 0
 779 056c 97000000 		call	_Z10stopKernelv@plt
 779      E7800000 
 780              	.LVL96:
 781              	.L58:
 782              	.LBE123:
 783              	.LBE153:
 784              	.LBB154:
 785              	.LBB131:
  24:src/../h/../h/my_console.h ****     putString(file);
 786              		.loc 2 24 5 is_stmt 1
  24:src/../h/../h/my_console.h ****     putString(file);
 787              		.loc 2 24 14 is_stmt 0
 788 0574 17050000 		lla	a0,.LC0
 788      13050500 
 789 057c 97000000 		call	_Z9putStringPKc@plt
 789      E7800000 
 790              	.LVL97:
  25:src/../h/../h/my_console.h ****     putString("    line: ");
 791              		.loc 2 25 5 is_stmt 1
  25:src/../h/../h/my_console.h ****     putString("    line: ");
 792              		.loc 2 25 14 is_stmt 0
 793 0584 17050000 		lla	a0,.LC1
 793      13050500 
 794 058c 97000000 		call	_Z9putStringPKc@plt
 794      E7800000 
 795              	.LVL98:
  26:src/../h/../h/my_console.h ****     putInt(line);
 796              		.loc 2 26 5 is_stmt 1
  26:src/../h/../h/my_console.h ****     putInt(line);
 797              		.loc 2 26 14 is_stmt 0
 798 0594 17050000 		lla	a0,.LC2
 798      13050500 
 799 059c 97000000 		call	_Z9putStringPKc@plt
 799      E7800000 
 800              	.LVL99:
  27:src/../h/../h/my_console.h ****     putString("   ===========================");
 801              		.loc 2 27 5 is_stmt 1
  27:src/../h/../h/my_console.h ****     putString("   ===========================");
 802              		.loc 2 27 11 is_stmt 0
 803 05a4 13059004 		li	a0,73
 804 05a8 97000000 		call	_Z6putInti@plt
 804      E7800000 
 805              	.LVL100:
  28:src/../h/../h/my_console.h ****     putNewline();
 806              		.loc 2 28 5 is_stmt 1
  28:src/../h/../h/my_console.h ****     putNewline();
 807              		.loc 2 28 14 is_stmt 0
 808 05b0 17050000 		lla	a0,.LC3
 808      13050500 
 809 05b8 97000000 		call	_Z9putStringPKc@plt
 809      E7800000 
GAS LISTING /tmp/cccQUxeo.s 			page 22


 810              	.LVL101:
  29:src/../h/../h/my_console.h **** 
 811              		.loc 2 29 5 is_stmt 1
  29:src/../h/../h/my_console.h **** 
 812              		.loc 2 29 15 is_stmt 0
 813 05c0 97000000 		call	_Z10putNewlinev@plt
 813      E7800000 
 814              	.LVL102:
  31:src/../h/../h/my_console.h **** 
 815              		.loc 2 31 5 is_stmt 1
 816              	.LBB126:
 817              	.LBB127:
  12:src/../h/../h/../h/0_console.h ****         return &instance;
 818              		.loc 3 12 9
  12:src/../h/../h/../h/0_console.h ****         return &instance;
 819              		.loc 3 12 25 is_stmt 0
 820 05c8 97070000 		lbu	a5,_ZGVZN8IConsole3getEvE8instance
 820      83C70700 
 821 05d0 63920702 		bnez	a5,.L37
 822              	.LVL103:
 823              	.LBB128:
 824              	.LBB129:
 825              	.LBB130:
 826              		.loc 3 32 63
 827 05d4 97070000 		lla	a5,_ZZN8IConsole3getEvE8instance
 827      93870700 
 828 05dc 23B00700 		sd	zero,0(a5)
 829 05e0 23B40700 		sd	zero,8(a5)
 830 05e4 23BC073E 		sd	zero,1016(a5)
 831              	.LVL104:
 832              	.LBE130:
 833              	.LBE129:
 834              	.LBE128:
  12:src/../h/../h/../h/0_console.h ****         return &instance;
 835              		.loc 3 12 25
 836 05e8 93071000 		li	a5,1
 837 05ec 17070000 		sb	a5,_ZGVZN8IConsole3getEvE8instance,a4
 837      2300F700 
 838              	.L37:
  13:src/../h/../h/../h/0_console.h ****     }
 839              		.loc 3 13 9 is_stmt 1
 840              	.LBE127:
 841              	.LBE126:
  31:src/../h/../h/my_console.h **** 
 842              		.loc 2 31 36 is_stmt 0
 843 05f4 17050000 		lla	a0,_ZZN8IConsole3getEvE8instance
 843      13050500 
 844 05fc 97000000 		call	_ZN8IConsole14writeToConsoleEv@plt
 844      E7800000 
 845              	.LVL105:
 846              		.loc 2 34 5 is_stmt 1
 847              		.loc 2 34 15 is_stmt 0
 848 0604 97000000 		call	_Z10stopKernelv@plt
 848      E7800000 
 849              	.LVL106:
 850              	.L59:
 851              	.LBE131:
GAS LISTING /tmp/cccQUxeo.s 			page 23


 852              	.LBE154:
 853              	.LBB155:
 854              	.LBB133:
  82:src/alloc.cpp ****             assert(newFree->size % MEM_BLOCK_SIZE == 0 && (uint64)newFree->base % MEM_BLOCK_SIZE ==
 855              		.loc 1 82 13 is_stmt 1
  82:src/alloc.cpp ****             assert(newFree->size % MEM_BLOCK_SIZE == 0 && (uint64)newFree->base % MEM_BLOCK_SIZE ==
 856              		.loc 1 82 53 is_stmt 0
 857 060c B387A740 		sub	a5,a5,a0
  82:src/alloc.cpp ****             assert(newFree->size % MEM_BLOCK_SIZE == 0 && (uint64)newFree->base % MEM_BLOCK_SIZE ==
 858              		.loc 1 82 27
 859 0610 2334F900 		sd	a5,8(s2)
  83:src/alloc.cpp ****                    ((uint64) newFree) % MEM_BLOCK_SIZE == 0);
 860              		.loc 1 83 13 is_stmt 1
 861 0614 93F7F703 		andi	a5,a5,63
 862 0618 639E0700 		bnez	a5,.L52
  83:src/alloc.cpp ****                    ((uint64) newFree) % MEM_BLOCK_SIZE == 0);
 863              		.loc 1 83 13 is_stmt 0 discriminator 1
 864 061c 9377F503 		andi	a5,a0,63
 865 0620 639C0706 		bnez	a5,.L53
  83:src/alloc.cpp ****                    ((uint64) newFree) % MEM_BLOCK_SIZE == 0);
 866              		.loc 1 83 13 discriminator 3
 867 0624 1379F903 		andi	s2,s2,63
 868              	.LVL107:
 869 0628 63080900 		beqz	s2,.L39
  83:src/alloc.cpp ****                    ((uint64) newFree) % MEM_BLOCK_SIZE == 0);
 870              		.loc 1 83 13
 871 062c 930B0000 		li	s7,0
 872 0630 6F008000 		j	.L39
 873              	.LVL108:
 874              	.L52:
 875 0634 930B0000 		li	s7,0
 876              	.LVL109:
 877              	.L39:
 878              	.LBB134:
 879              	.LBB135:
  21:src/../h/../h/my_console.h ****         return;
 880              		.loc 2 21 5 is_stmt 1 discriminator 8
 881 0638 63840B06 		beqz	s7,.L60
  22:src/../h/../h/my_console.h **** 
 882              		.loc 2 22 9 discriminator 8
 883              	.LVL110:
 884              	.LBE135:
 885              	.LBE134:
  86:src/alloc.cpp **** 
 886              		.loc 1 86 13 discriminator 8
  86:src/alloc.cpp **** 
 887              		.loc 1 86 36 is_stmt 0 discriminator 8
 888 063c 83B70400 		ld	a5,0(s1)
  86:src/alloc.cpp **** 
 889              		.loc 1 86 28 discriminator 8
 890 0640 23B0FA00 		sd	a5,0(s5)
  88:src/alloc.cpp ****                 pPrev->pNext = newFree;
 891              		.loc 1 88 13 is_stmt 1 discriminator 8
 892 0644 630A0B0E 		beqz	s6,.L42
  89:src/alloc.cpp ****             else
 893              		.loc 1 89 17
  89:src/alloc.cpp ****             else
GAS LISTING /tmp/cccQUxeo.s 			page 24


 894              		.loc 1 89 30 is_stmt 0
 895 0648 23305B01 		sd	s5,0(s6)
 896              	.L43:
  96:src/alloc.cpp ****             newTaken->pNext = pTakenHead;
 897              		.loc 1 96 13 is_stmt 1
 898              	.LVL111:
  97:src/alloc.cpp ****             newTaken->base = pCur->base;
 899              		.loc 1 97 13
  97:src/alloc.cpp ****             newTaken->base = pCur->base;
 900              		.loc 1 97 31 is_stmt 0
 901 064c 83B78900 		ld	a5,8(s3)
  97:src/alloc.cpp ****             newTaken->base = pCur->base;
 902              		.loc 1 97 29
 903 0650 23B0F400 		sd	a5,0(s1)
  98:src/alloc.cpp ****             newTaken->size = usableSize;
 904              		.loc 1 98 13 is_stmt 1
  99:src/alloc.cpp ****             newTaken->pNext = pTakenHead;
 905              		.loc 1 99 13
  99:src/alloc.cpp ****             newTaken->pNext = pTakenHead;
 906              		.loc 1 99 28 is_stmt 0
 907 0654 23B44401 		sd	s4,8(s1)
 100:src/alloc.cpp ****             pTakenHead = newTaken;
 908              		.loc 1 100 13 is_stmt 1
 100:src/alloc.cpp ****             pTakenHead = newTaken;
 909              		.loc 1 100 31 is_stmt 0
 910 0658 83B78900 		ld	a5,8(s3)
 100:src/alloc.cpp ****             pTakenHead = newTaken;
 911              		.loc 1 100 29
 912 065c 23B0F400 		sd	a5,0(s1)
 101:src/alloc.cpp **** 
 913              		.loc 1 101 13 is_stmt 1
 101:src/alloc.cpp **** 
 914              		.loc 1 101 24 is_stmt 0
 915 0660 23B49900 		sd	s1,8(s3)
 103:src/alloc.cpp ****             return ret;
 916              		.loc 1 103 13 is_stmt 1
 103:src/alloc.cpp ****             return ret;
 917              		.loc 1 103 19 is_stmt 0
 918 0664 03B50401 		ld	a0,16(s1)
 919              	.LVL112:
 104:src/alloc.cpp ****         }
 920              		.loc 1 104 13 is_stmt 1
 921              	.LBE133:
 922              	.LBE155:
 923              	.LBE157:
 109:src/alloc.cpp ****     }
 110:src/alloc.cpp **** 
 111:src/alloc.cpp ****     assert(false); // there is no slot large enough
 112:src/alloc.cpp ****     return nullptr;
 113:src/alloc.cpp **** }
 924              		.loc 1 113 1 is_stmt 0
 925 0668 83308104 		ld	ra,72(sp)
 926              		.cfi_remember_state
 927              		.cfi_restore 1
 928 066c 03340104 		ld	s0,64(sp)
 929              		.cfi_restore 8
 930              		.cfi_def_cfa 2, 80
GAS LISTING /tmp/cccQUxeo.s 			page 25


 931 0670 83348103 		ld	s1,56(sp)
 932              		.cfi_restore 9
 933              	.LVL113:
 934 0674 03390103 		ld	s2,48(sp)
 935              		.cfi_restore 18
 936 0678 83398102 		ld	s3,40(sp)
 937              		.cfi_restore 19
 938              	.LVL114:
 939 067c 033A0102 		ld	s4,32(sp)
 940              		.cfi_restore 20
 941              	.LVL115:
 942 0680 833A8101 		ld	s5,24(sp)
 943              		.cfi_restore 21
 944              	.LVL116:
 945 0684 033B0101 		ld	s6,16(sp)
 946              		.cfi_restore 22
 947              	.LVL117:
 948 0688 833B8100 		ld	s7,8(sp)
 949              		.cfi_restore 23
 950 068c 033C0100 		ld	s8,0(sp)
 951              		.cfi_restore 24
 952 0690 13010105 		addi	sp,sp,80
 953              		.cfi_def_cfa_offset 0
 954 0694 67800000 		jr	ra
 955              	.LVL118:
 956              	.L53:
 957              		.cfi_restore_state
 958              	.LBB158:
 959              	.LBB156:
 960              	.LBB152:
  83:src/alloc.cpp ****                    ((uint64) newFree) % MEM_BLOCK_SIZE == 0);
 961              		.loc 1 83 13
 962 0698 930B0000 		li	s7,0
 963 069c 6FF0DFF9 		j	.L39
 964              	.LVL119:
 965              	.L60:
 966              	.LBB142:
 967              	.LBB141:
  24:src/../h/../h/my_console.h ****     putString(file);
 968              		.loc 2 24 5 is_stmt 1
  24:src/../h/../h/my_console.h ****     putString(file);
 969              		.loc 2 24 14 is_stmt 0
 970 06a0 17050000 		lla	a0,.LC0
 970      13050500 
 971 06a8 97000000 		call	_Z9putStringPKc@plt
 971      E7800000 
 972              	.LVL120:
  25:src/../h/../h/my_console.h ****     putString("    line: ");
 973              		.loc 2 25 5 is_stmt 1
  25:src/../h/../h/my_console.h ****     putString("    line: ");
 974              		.loc 2 25 14 is_stmt 0
 975 06b0 17050000 		lla	a0,.LC1
 975      13050500 
 976 06b8 97000000 		call	_Z9putStringPKc@plt
 976      E7800000 
 977              	.LVL121:
  26:src/../h/../h/my_console.h ****     putInt(line);
GAS LISTING /tmp/cccQUxeo.s 			page 26


 978              		.loc 2 26 5 is_stmt 1
  26:src/../h/../h/my_console.h ****     putInt(line);
 979              		.loc 2 26 14 is_stmt 0
 980 06c0 17050000 		lla	a0,.LC2
 980      13050500 
 981 06c8 97000000 		call	_Z9putStringPKc@plt
 981      E7800000 
 982              	.LVL122:
  27:src/../h/../h/my_console.h ****     putString("   ===========================");
 983              		.loc 2 27 5 is_stmt 1
  27:src/../h/../h/my_console.h ****     putString("   ===========================");
 984              		.loc 2 27 11 is_stmt 0
 985 06d0 13053005 		li	a0,83
 986 06d4 97000000 		call	_Z6putInti@plt
 986      E7800000 
 987              	.LVL123:
  28:src/../h/../h/my_console.h ****     putNewline();
 988              		.loc 2 28 5 is_stmt 1
  28:src/../h/../h/my_console.h ****     putNewline();
 989              		.loc 2 28 14 is_stmt 0
 990 06dc 17050000 		lla	a0,.LC3
 990      13050500 
 991 06e4 97000000 		call	_Z9putStringPKc@plt
 991      E7800000 
 992              	.LVL124:
  29:src/../h/../h/my_console.h **** 
 993              		.loc 2 29 5 is_stmt 1
  29:src/../h/../h/my_console.h **** 
 994              		.loc 2 29 15 is_stmt 0
 995 06ec 97000000 		call	_Z10putNewlinev@plt
 995      E7800000 
 996              	.LVL125:
  31:src/../h/../h/my_console.h **** 
 997              		.loc 2 31 5 is_stmt 1
 998              	.LBB136:
 999              	.LBB137:
  12:src/../h/../h/../h/0_console.h ****         return &instance;
 1000              		.loc 3 12 9
  12:src/../h/../h/../h/0_console.h ****         return &instance;
 1001              		.loc 3 12 25 is_stmt 0
 1002 06f4 97070000 		lbu	a5,_ZGVZN8IConsole3getEvE8instance
 1002      83C70700 
 1003 06fc 63920702 		bnez	a5,.L41
 1004              	.LVL126:
 1005              	.LBB138:
 1006              	.LBB139:
 1007              	.LBB140:
 1008              		.loc 3 32 63
 1009 0700 97070000 		lla	a5,_ZZN8IConsole3getEvE8instance
 1009      93870700 
 1010 0708 23B00700 		sd	zero,0(a5)
 1011 070c 23B40700 		sd	zero,8(a5)
 1012 0710 23BC073E 		sd	zero,1016(a5)
 1013              	.LVL127:
 1014              	.LBE140:
 1015              	.LBE139:
 1016              	.LBE138:
GAS LISTING /tmp/cccQUxeo.s 			page 27


  12:src/../h/../h/../h/0_console.h ****         return &instance;
 1017              		.loc 3 12 25
 1018 0714 93071000 		li	a5,1
 1019 0718 17070000 		sb	a5,_ZGVZN8IConsole3getEvE8instance,a4
 1019      2300F700 
 1020              	.L41:
  13:src/../h/../h/../h/0_console.h ****     }
 1021              		.loc 3 13 9 is_stmt 1
 1022              	.LBE137:
 1023              	.LBE136:
  31:src/../h/../h/my_console.h **** 
 1024              		.loc 2 31 36 is_stmt 0
 1025 0720 17050000 		lla	a0,_ZZN8IConsole3getEvE8instance
 1025      13050500 
 1026 0728 97000000 		call	_ZN8IConsole14writeToConsoleEv@plt
 1026      E7800000 
 1027              	.LVL128:
 1028              		.loc 2 34 5 is_stmt 1
 1029              		.loc 2 34 15 is_stmt 0
 1030 0730 97000000 		call	_Z10stopKernelv@plt
 1030      E7800000 
 1031              	.LVL129:
 1032              	.L42:
 1033              	.LBE141:
 1034              	.LBE142:
  92:src/alloc.cpp ****                 pFreeHead = newFree;
 1035              		.loc 1 92 17 is_stmt 1
 1036 0738 83B70900 		ld	a5,0(s3)
 1037              	.LVL130:
 1038              	.LBB143:
 1039              	.LBB144:
  21:src/../h/../h/my_console.h ****         return;
 1040              		.loc 2 21 5
 1041 073c 63969700 		bne	a5,s1,.L61
  22:src/../h/../h/my_console.h **** 
 1042              		.loc 2 22 9
 1043              	.LVL131:
 1044              	.LBE144:
 1045              	.LBE143:
  93:src/alloc.cpp ****             }
 1046              		.loc 1 93 17
  93:src/alloc.cpp ****             }
 1047              		.loc 1 93 27 is_stmt 0
 1048 0740 23B05901 		sd	s5,0(s3)
 1049 0744 6FF09FF0 		j	.L43
 1050              	.LVL132:
 1051              	.L61:
 1052              	.LBB151:
 1053              	.LBB150:
  24:src/../h/../h/my_console.h ****     putString(file);
 1054              		.loc 2 24 5 is_stmt 1
  24:src/../h/../h/my_console.h ****     putString(file);
 1055              		.loc 2 24 14 is_stmt 0
 1056 0748 17050000 		lla	a0,.LC0
 1056      13050500 
 1057 0750 97000000 		call	_Z9putStringPKc@plt
 1057      E7800000 
GAS LISTING /tmp/cccQUxeo.s 			page 28


 1058              	.LVL133:
  25:src/../h/../h/my_console.h ****     putString("    line: ");
 1059              		.loc 2 25 5 is_stmt 1
  25:src/../h/../h/my_console.h ****     putString("    line: ");
 1060              		.loc 2 25 14 is_stmt 0
 1061 0758 17050000 		lla	a0,.LC1
 1061      13050500 
 1062 0760 97000000 		call	_Z9putStringPKc@plt
 1062      E7800000 
 1063              	.LVL134:
  26:src/../h/../h/my_console.h ****     putInt(line);
 1064              		.loc 2 26 5 is_stmt 1
  26:src/../h/../h/my_console.h ****     putInt(line);
 1065              		.loc 2 26 14 is_stmt 0
 1066 0768 17050000 		lla	a0,.LC2
 1066      13050500 
 1067 0770 97000000 		call	_Z9putStringPKc@plt
 1067      E7800000 
 1068              	.LVL135:
  27:src/../h/../h/my_console.h ****     putString("   ===========================");
 1069              		.loc 2 27 5 is_stmt 1
  27:src/../h/../h/my_console.h ****     putString("   ===========================");
 1070              		.loc 2 27 11 is_stmt 0
 1071 0778 1305C005 		li	a0,92
 1072 077c 97000000 		call	_Z6putInti@plt
 1072      E7800000 
 1073              	.LVL136:
  28:src/../h/../h/my_console.h ****     putNewline();
 1074              		.loc 2 28 5 is_stmt 1
  28:src/../h/../h/my_console.h ****     putNewline();
 1075              		.loc 2 28 14 is_stmt 0
 1076 0784 17050000 		lla	a0,.LC3
 1076      13050500 
 1077 078c 97000000 		call	_Z9putStringPKc@plt
 1077      E7800000 
 1078              	.LVL137:
  29:src/../h/../h/my_console.h **** 
 1079              		.loc 2 29 5 is_stmt 1
  29:src/../h/../h/my_console.h **** 
 1080              		.loc 2 29 15 is_stmt 0
 1081 0794 97000000 		call	_Z10putNewlinev@plt
 1081      E7800000 
 1082              	.LVL138:
  31:src/../h/../h/my_console.h **** 
 1083              		.loc 2 31 5 is_stmt 1
 1084              	.LBB145:
 1085              	.LBB146:
  12:src/../h/../h/../h/0_console.h ****         return &instance;
 1086              		.loc 3 12 9
  12:src/../h/../h/../h/0_console.h ****         return &instance;
 1087              		.loc 3 12 25 is_stmt 0
 1088 079c 97070000 		lbu	a5,_ZGVZN8IConsole3getEvE8instance
 1088      83C70700 
 1089 07a4 63920702 		bnez	a5,.L45
 1090              	.LVL139:
 1091              	.LBB147:
 1092              	.LBB148:
GAS LISTING /tmp/cccQUxeo.s 			page 29


 1093              	.LBB149:
 1094              		.loc 3 32 63
 1095 07a8 97070000 		lla	a5,_ZZN8IConsole3getEvE8instance
 1095      93870700 
 1096 07b0 23B00700 		sd	zero,0(a5)
 1097 07b4 23B40700 		sd	zero,8(a5)
 1098 07b8 23BC073E 		sd	zero,1016(a5)
 1099              	.LVL140:
 1100              	.LBE149:
 1101              	.LBE148:
 1102              	.LBE147:
  12:src/../h/../h/../h/0_console.h ****         return &instance;
 1103              		.loc 3 12 25
 1104 07bc 93071000 		li	a5,1
 1105 07c0 17070000 		sb	a5,_ZGVZN8IConsole3getEvE8instance,a4
 1105      2300F700 
 1106              	.L45:
  13:src/../h/../h/../h/0_console.h ****     }
 1107              		.loc 3 13 9 is_stmt 1
 1108              	.LBE146:
 1109              	.LBE145:
  31:src/../h/../h/my_console.h **** 
 1110              		.loc 2 31 36 is_stmt 0
 1111 07c8 17050000 		lla	a0,_ZZN8IConsole3getEvE8instance
 1111      13050500 
 1112 07d0 97000000 		call	_ZN8IConsole14writeToConsoleEv@plt
 1112      E7800000 
 1113              	.LVL141:
 1114              		.loc 2 34 5 is_stmt 1
 1115              		.loc 2 34 15 is_stmt 0
 1116 07d8 97000000 		call	_Z10stopKernelv@plt
 1116      E7800000 
 1117              	.LVL142:
 1118              	.L32:
 1119              	.LBE150:
 1120              	.LBE151:
 1121              	.LBE152:
 1122              	.LBE156:
 1123              	.LBE158:
 111:src/alloc.cpp ****     return nullptr;
 1124              		.loc 1 111 5 is_stmt 1
 1125              	.LBB159:
 1126              	.LBB160:
  21:src/../h/../h/my_console.h ****         return;
 1127              		.loc 2 21 5
  24:src/../h/../h/my_console.h ****     putString(file);
 1128              		.loc 2 24 5
  24:src/../h/../h/my_console.h ****     putString(file);
 1129              		.loc 2 24 14 is_stmt 0
 1130 07e0 17050000 		lla	a0,.LC0
 1130      13050500 
 1131 07e8 97000000 		call	_Z9putStringPKc@plt
 1131      E7800000 
 1132              	.LVL143:
  25:src/../h/../h/my_console.h ****     putString("    line: ");
 1133              		.loc 2 25 5 is_stmt 1
  25:src/../h/../h/my_console.h ****     putString("    line: ");
GAS LISTING /tmp/cccQUxeo.s 			page 30


 1134              		.loc 2 25 14 is_stmt 0
 1135 07f0 17050000 		lla	a0,.LC1
 1135      13050500 
 1136 07f8 97000000 		call	_Z9putStringPKc@plt
 1136      E7800000 
 1137              	.LVL144:
  26:src/../h/../h/my_console.h ****     putInt(line);
 1138              		.loc 2 26 5 is_stmt 1
  26:src/../h/../h/my_console.h ****     putInt(line);
 1139              		.loc 2 26 14 is_stmt 0
 1140 0800 17050000 		lla	a0,.LC2
 1140      13050500 
 1141 0808 97000000 		call	_Z9putStringPKc@plt
 1141      E7800000 
 1142              	.LVL145:
  27:src/../h/../h/my_console.h ****     putString("   ===========================");
 1143              		.loc 2 27 5 is_stmt 1
  27:src/../h/../h/my_console.h ****     putString("   ===========================");
 1144              		.loc 2 27 11 is_stmt 0
 1145 0810 1305F006 		li	a0,111
 1146 0814 97000000 		call	_Z6putInti@plt
 1146      E7800000 
 1147              	.LVL146:
  28:src/../h/../h/my_console.h ****     putNewline();
 1148              		.loc 2 28 5 is_stmt 1
  28:src/../h/../h/my_console.h ****     putNewline();
 1149              		.loc 2 28 14 is_stmt 0
 1150 081c 17050000 		lla	a0,.LC3
 1150      13050500 
 1151 0824 97000000 		call	_Z9putStringPKc@plt
 1151      E7800000 
 1152              	.LVL147:
  29:src/../h/../h/my_console.h **** 
 1153              		.loc 2 29 5 is_stmt 1
  29:src/../h/../h/my_console.h **** 
 1154              		.loc 2 29 15 is_stmt 0
 1155 082c 97000000 		call	_Z10putNewlinev@plt
 1155      E7800000 
 1156              	.LVL148:
  31:src/../h/../h/my_console.h **** 
 1157              		.loc 2 31 5 is_stmt 1
 1158              	.LBB161:
 1159              	.LBB162:
  12:src/../h/../h/../h/0_console.h ****         return &instance;
 1160              		.loc 3 12 9
  12:src/../h/../h/../h/0_console.h ****         return &instance;
 1161              		.loc 3 12 25 is_stmt 0
 1162 0834 97070000 		lbu	a5,_ZGVZN8IConsole3getEvE8instance
 1162      83C70700 
 1163 083c 63920702 		bnez	a5,.L47
 1164              	.LVL149:
 1165              	.LBB163:
 1166              	.LBB164:
 1167              	.LBB165:
 1168              		.loc 3 32 63
 1169 0840 97070000 		lla	a5,_ZZN8IConsole3getEvE8instance
 1169      93870700 
GAS LISTING /tmp/cccQUxeo.s 			page 31


 1170 0848 23B00700 		sd	zero,0(a5)
 1171 084c 23B40700 		sd	zero,8(a5)
 1172 0850 23BC073E 		sd	zero,1016(a5)
 1173              	.LVL150:
 1174              	.LBE165:
 1175              	.LBE164:
 1176              	.LBE163:
  12:src/../h/../h/../h/0_console.h ****         return &instance;
 1177              		.loc 3 12 25
 1178 0854 93071000 		li	a5,1
 1179 0858 17070000 		sb	a5,_ZGVZN8IConsole3getEvE8instance,a4
 1179      2300F700 
 1180              	.L47:
  13:src/../h/../h/../h/0_console.h ****     }
 1181              		.loc 3 13 9 is_stmt 1
 1182              	.LBE162:
 1183              	.LBE161:
  31:src/../h/../h/my_console.h **** 
 1184              		.loc 2 31 36 is_stmt 0
 1185 0860 17050000 		lla	a0,_ZZN8IConsole3getEvE8instance
 1185      13050500 
 1186 0868 97000000 		call	_ZN8IConsole14writeToConsoleEv@plt
 1186      E7800000 
 1187              	.LVL151:
 1188              		.loc 2 34 5 is_stmt 1
 1189              		.loc 2 34 15 is_stmt 0
 1190 0870 97000000 		call	_Z10stopKernelv@plt
 1190      E7800000 
 1191              	.LVL152:
 1192              	.LBE160:
 1193              	.LBE159:
 1194              		.cfi_endproc
 1195              	.LFE18:
 1197              		.section	.rodata.str1.8
 1198 0067 00       		.align	3
 1199              	.LC4:
 1200 0068 3D3D3D20 		.string	"=== Error: mem_free was maby given an incorrect adress?"
 1200      4572726F 
 1200      723A206D 
 1200      656D5F66 
 1200      72656520 
 1201              		.text
 1202              		.align	2
 1203              		.globl	_ZN8MemAlloc7freeMemEPv
 1205              	_ZN8MemAlloc7freeMemEPv:
 1206              	.LFB19:
 114:src/alloc.cpp **** 
 115:src/alloc.cpp **** int MemAlloc::freeMem(void* p)
 116:src/alloc.cpp **** {
 1207              		.loc 1 116 1 is_stmt 1
 1208              		.cfi_startproc
 1209              	.LVL153:
 1210 0878 130101FD 		addi	sp,sp,-48
 1211              		.cfi_def_cfa_offset 48
 1212 087c 23341102 		sd	ra,40(sp)
 1213 0880 23308102 		sd	s0,32(sp)
 1214 0884 233C9100 		sd	s1,24(sp)
GAS LISTING /tmp/cccQUxeo.s 			page 32


 1215 0888 23382101 		sd	s2,16(sp)
 1216 088c 23343101 		sd	s3,8(sp)
 1217 0890 23304101 		sd	s4,0(sp)
 1218              		.cfi_offset 1, -8
 1219              		.cfi_offset 8, -16
 1220              		.cfi_offset 9, -24
 1221              		.cfi_offset 18, -32
 1222              		.cfi_offset 19, -40
 1223              		.cfi_offset 20, -48
 1224 0894 13040103 		addi	s0,sp,48
 1225              		.cfi_def_cfa 8, 0
 1226 0898 13090500 		mv	s2,a0
 1227 089c 93890500 		mv	s3,a1
 117:src/alloc.cpp ****     TakenNode* pCur = pTakenHead;
 1228              		.loc 1 117 5
 1229              		.loc 1 117 16 is_stmt 0
 1230 08a0 83348500 		ld	s1,8(a0)
 1231              	.LVL154:
 118:src/alloc.cpp ****     TakenNode* pPrev = nullptr;
 1232              		.loc 1 118 5 is_stmt 1
 1233              		.loc 1 118 16 is_stmt 0
 1234 08a4 130A0000 		li	s4,0
 1235              	.LVL155:
 1236              	.L71:
 119:src/alloc.cpp **** 
 120:src/alloc.cpp ****     while(pCur != nullptr)
 1237              		.loc 1 120 5 is_stmt 1
 1238              		.loc 1 120 16
 1239 08a8 638C041C 		beqz	s1,.L63
 1240              	.LBB190:
 121:src/alloc.cpp ****     {
 122:src/alloc.cpp ****         assert((char*)alignBackward((uint64)pCur->base - MAX_NODE_SIZE, MEM_BLOCK_SIZE) == (char*)p
 1241              		.loc 1 122 9
 1242 08ac 03B50401 		ld	a0,16(s1)
 1243 08b0 83370901 		ld	a5,16(s2)
 1244 08b4 93050004 		li	a1,64
 1245 08b8 3305F540 		sub	a0,a0,a5
 1246 08bc 97000000 		call	_Z13alignBackwardmm
 1246      E7800000 
 1247              	.LVL156:
 1248              	.LBB191:
 1249              	.LBB192:
  21:src/../h/../h/my_console.h ****         return;
 1250              		.loc 2 21 5
 1251 08c4 639CA400 		bne	s1,a0,.L75
  22:src/../h/../h/my_console.h **** 
 1252              		.loc 2 22 9
 1253              	.LVL157:
 1254              	.LBE192:
 1255              	.LBE191:
 123:src/alloc.cpp ****         if(pCur->base == p)
 1256              		.loc 1 123 9
 1257              	.LBB199:
 1258              		.loc 1 123 18 is_stmt 0
 1259 08c8 83B70401 		ld	a5,16(s1)
 1260              		.loc 1 123 9
 1261 08cc 6384370B 		beq	a5,s3,.L76
GAS LISTING /tmp/cccQUxeo.s 			page 33


 1262              	.LBE199:
 124:src/alloc.cpp ****         {
 125:src/alloc.cpp ****             // sta ako ne postoji pPrev? sta ako ne postoji pNext->pNext?
 126:src/alloc.cpp ****             if(pPrev) // ???
 127:src/alloc.cpp ****                 pPrev->pNext = pCur->pNext; // "delete" current taken block from the linked list
 128:src/alloc.cpp ****             else
 129:src/alloc.cpp ****             {
 130:src/alloc.cpp ****                 assert(pCur == pTakenHead);
 131:src/alloc.cpp ****                 pTakenHead = pCur->pNext;
 132:src/alloc.cpp ****             }
 133:src/alloc.cpp **** 
 134:src/alloc.cpp ****             FreeNode* newFree = (FreeNode*)alignBackward(((uint64)p) - MAX_NODE_SIZE, MEM_BLOCK_SIZ
 135:src/alloc.cpp ****             newFree->size = pCur->size;
 136:src/alloc.cpp ****             newFree->base = pCur->base;
 137:src/alloc.cpp ****             newFree->pNext = pFreeHead;
 138:src/alloc.cpp ****             pFreeHead = newFree;
 139:src/alloc.cpp **** 
 140:src/alloc.cpp ****             return 0; // zero signifies sucesss
 141:src/alloc.cpp ****         }
 142:src/alloc.cpp **** 
 143:src/alloc.cpp ****         pPrev = pCur;
 1263              		.loc 1 143 9 is_stmt 1
 1264              	.LVL158:
 144:src/alloc.cpp ****         pCur = pCur->pNext;
 1265              		.loc 1 144 9
 143:src/alloc.cpp ****         pCur = pCur->pNext;
 1266              		.loc 1 143 15 is_stmt 0
 1267 08d0 138A0400 		mv	s4,s1
 1268              		.loc 1 144 14
 1269 08d4 83B40400 		ld	s1,0(s1)
 1270              	.LVL159:
 1271              	.LBE190:
 120:src/alloc.cpp ****     {
 1272              		.loc 1 120 5
 1273 08d8 6FF01FFD 		j	.L71
 1274              	.LVL160:
 1275              	.L75:
 1276              	.LBB214:
 1277              	.LBB211:
 1278              	.LBB198:
  24:src/../h/../h/my_console.h ****     putString(file);
 1279              		.loc 2 24 5 is_stmt 1
  24:src/../h/../h/my_console.h ****     putString(file);
 1280              		.loc 2 24 14 is_stmt 0
 1281 08dc 17050000 		lla	a0,.LC0
 1281      13050500 
 1282              	.LVL161:
 1283 08e4 97000000 		call	_Z9putStringPKc@plt
 1283      E7800000 
 1284              	.LVL162:
  25:src/../h/../h/my_console.h ****     putString("    line: ");
 1285              		.loc 2 25 5 is_stmt 1
  25:src/../h/../h/my_console.h ****     putString("    line: ");
 1286              		.loc 2 25 14 is_stmt 0
 1287 08ec 17050000 		lla	a0,.LC1
 1287      13050500 
 1288 08f4 97000000 		call	_Z9putStringPKc@plt
GAS LISTING /tmp/cccQUxeo.s 			page 34


 1288      E7800000 
 1289              	.LVL163:
  26:src/../h/../h/my_console.h ****     putInt(line);
 1290              		.loc 2 26 5 is_stmt 1
  26:src/../h/../h/my_console.h ****     putInt(line);
 1291              		.loc 2 26 14 is_stmt 0
 1292 08fc 17050000 		lla	a0,.LC2
 1292      13050500 
 1293 0904 97000000 		call	_Z9putStringPKc@plt
 1293      E7800000 
 1294              	.LVL164:
  27:src/../h/../h/my_console.h ****     putString("   ===========================");
 1295              		.loc 2 27 5 is_stmt 1
  27:src/../h/../h/my_console.h ****     putString("   ===========================");
 1296              		.loc 2 27 11 is_stmt 0
 1297 090c 1305A007 		li	a0,122
 1298 0910 97000000 		call	_Z6putInti@plt
 1298      E7800000 
 1299              	.LVL165:
  28:src/../h/../h/my_console.h ****     putNewline();
 1300              		.loc 2 28 5 is_stmt 1
  28:src/../h/../h/my_console.h ****     putNewline();
 1301              		.loc 2 28 14 is_stmt 0
 1302 0918 17050000 		lla	a0,.LC3
 1302      13050500 
 1303 0920 97000000 		call	_Z9putStringPKc@plt
 1303      E7800000 
 1304              	.LVL166:
  29:src/../h/../h/my_console.h **** 
 1305              		.loc 2 29 5 is_stmt 1
  29:src/../h/../h/my_console.h **** 
 1306              		.loc 2 29 15 is_stmt 0
 1307 0928 97000000 		call	_Z10putNewlinev@plt
 1307      E7800000 
 1308              	.LVL167:
  31:src/../h/../h/my_console.h **** 
 1309              		.loc 2 31 5 is_stmt 1
 1310              	.LBB193:
 1311              	.LBB194:
  12:src/../h/../h/../h/0_console.h ****         return &instance;
 1312              		.loc 3 12 9
  12:src/../h/../h/../h/0_console.h ****         return &instance;
 1313              		.loc 3 12 25 is_stmt 0
 1314 0930 97070000 		lbu	a5,_ZGVZN8IConsole3getEvE8instance
 1314      83C70700 
 1315 0938 63920702 		bnez	a5,.L65
 1316              	.LVL168:
 1317              	.LBB195:
 1318              	.LBB196:
 1319              	.LBB197:
 1320              		.loc 3 32 63
 1321 093c 97070000 		lla	a5,_ZZN8IConsole3getEvE8instance
 1321      93870700 
 1322 0944 23B00700 		sd	zero,0(a5)
 1323 0948 23B40700 		sd	zero,8(a5)
 1324 094c 23BC073E 		sd	zero,1016(a5)
 1325              	.LVL169:
GAS LISTING /tmp/cccQUxeo.s 			page 35


 1326              	.LBE197:
 1327              	.LBE196:
 1328              	.LBE195:
  12:src/../h/../h/../h/0_console.h ****         return &instance;
 1329              		.loc 3 12 25
 1330 0950 93071000 		li	a5,1
 1331 0954 17070000 		sb	a5,_ZGVZN8IConsole3getEvE8instance,a4
 1331      2300F700 
 1332              	.L65:
  13:src/../h/../h/../h/0_console.h ****     }
 1333              		.loc 3 13 9 is_stmt 1
 1334              	.LBE194:
 1335              	.LBE193:
  31:src/../h/../h/my_console.h **** 
 1336              		.loc 2 31 36 is_stmt 0
 1337 095c 17050000 		lla	a0,_ZZN8IConsole3getEvE8instance
 1337      13050500 
 1338 0964 97000000 		call	_ZN8IConsole14writeToConsoleEv@plt
 1338      E7800000 
 1339              	.LVL170:
 1340              		.loc 2 34 5 is_stmt 1
 1341              		.loc 2 34 15 is_stmt 0
 1342 096c 97000000 		call	_Z10stopKernelv@plt
 1342      E7800000 
 1343              	.LVL171:
 1344              	.L76:
 1345              	.LBE198:
 1346              	.LBE211:
 1347              	.LBB212:
 1348              	.LBB200:
 126:src/alloc.cpp ****                 pPrev->pNext = pCur->pNext; // "delete" current taken block from the linked list
 1349              		.loc 1 126 13 is_stmt 1
 1350 0974 63000A06 		beqz	s4,.L67
 127:src/alloc.cpp ****             else
 1351              		.loc 1 127 17
 127:src/alloc.cpp ****             else
 1352              		.loc 1 127 38 is_stmt 0
 1353 0978 83B70400 		ld	a5,0(s1)
 127:src/alloc.cpp ****             else
 1354              		.loc 1 127 30
 1355 097c 2330FA00 		sd	a5,0(s4)
 1356              	.L68:
 134:src/alloc.cpp ****             newFree->size = pCur->size;
 1357              		.loc 1 134 13 is_stmt 1
 134:src/alloc.cpp ****             newFree->size = pCur->size;
 1358              		.loc 1 134 72 is_stmt 0
 1359 0980 03350901 		ld	a0,16(s2)
 134:src/alloc.cpp ****             newFree->size = pCur->size;
 1360              		.loc 1 134 57
 1361 0984 93050004 		li	a1,64
 1362 0988 3385A940 		sub	a0,s3,a0
 1363 098c 97000000 		call	_Z13alignBackwardmm
 1363      E7800000 
 1364              	.LVL172:
 135:src/alloc.cpp ****             newFree->base = pCur->base;
 1365              		.loc 1 135 13 is_stmt 1
 135:src/alloc.cpp ****             newFree->base = pCur->base;
GAS LISTING /tmp/cccQUxeo.s 			page 36


 1366              		.loc 1 135 35 is_stmt 0
 1367 0994 83B78400 		ld	a5,8(s1)
 135:src/alloc.cpp ****             newFree->base = pCur->base;
 1368              		.loc 1 135 27
 1369 0998 2334F500 		sd	a5,8(a0)
 136:src/alloc.cpp ****             newFree->pNext = pFreeHead;
 1370              		.loc 1 136 13 is_stmt 1
 136:src/alloc.cpp ****             newFree->pNext = pFreeHead;
 1371              		.loc 1 136 35 is_stmt 0
 1372 099c 83B70401 		ld	a5,16(s1)
 136:src/alloc.cpp ****             newFree->pNext = pFreeHead;
 1373              		.loc 1 136 27
 1374 09a0 2338F500 		sd	a5,16(a0)
 137:src/alloc.cpp ****             pFreeHead = newFree;
 1375              		.loc 1 137 13 is_stmt 1
 137:src/alloc.cpp ****             pFreeHead = newFree;
 1376              		.loc 1 137 30 is_stmt 0
 1377 09a4 83370900 		ld	a5,0(s2)
 137:src/alloc.cpp ****             pFreeHead = newFree;
 1378              		.loc 1 137 28
 1379 09a8 2330F500 		sd	a5,0(a0)
 138:src/alloc.cpp **** 
 1380              		.loc 1 138 13 is_stmt 1
 138:src/alloc.cpp **** 
 1381              		.loc 1 138 23 is_stmt 0
 1382 09ac 2330A900 		sd	a0,0(s2)
 140:src/alloc.cpp ****         }
 1383              		.loc 1 140 13 is_stmt 1
 1384              	.LBE200:
 1385              	.LBE212:
 1386              	.LBE214:
 145:src/alloc.cpp ****     }
 146:src/alloc.cpp **** 
 147:src/alloc.cpp ****     putString("=== Error: mem_free was maby given an incorrect adress?");
 148:src/alloc.cpp ****     putNewline();
 149:src/alloc.cpp ****     assert(false); // temp
 150:src/alloc.cpp ****     return -1; // negative values signify failure
 151:src/alloc.cpp **** }
 1387              		.loc 1 151 1 is_stmt 0
 1388 09b0 13050000 		li	a0,0
 1389              	.LVL173:
 1390 09b4 83308102 		ld	ra,40(sp)
 1391              		.cfi_remember_state
 1392              		.cfi_restore 1
 1393 09b8 03340102 		ld	s0,32(sp)
 1394              		.cfi_restore 8
 1395              		.cfi_def_cfa 2, 48
 1396 09bc 83348101 		ld	s1,24(sp)
 1397              		.cfi_restore 9
 1398              	.LVL174:
 1399 09c0 03390101 		ld	s2,16(sp)
 1400              		.cfi_restore 18
 1401              	.LVL175:
 1402 09c4 83398100 		ld	s3,8(sp)
 1403              		.cfi_restore 19
 1404              	.LVL176:
 1405 09c8 033A0100 		ld	s4,0(sp)
GAS LISTING /tmp/cccQUxeo.s 			page 37


 1406              		.cfi_restore 20
 1407              	.LVL177:
 1408 09cc 13010103 		addi	sp,sp,48
 1409              		.cfi_def_cfa_offset 0
 1410 09d0 67800000 		jr	ra
 1411              	.LVL178:
 1412              	.L67:
 1413              		.cfi_restore_state
 1414              	.LBB215:
 1415              	.LBB213:
 1416              	.LBB210:
 130:src/alloc.cpp ****                 pTakenHead = pCur->pNext;
 1417              		.loc 1 130 17 is_stmt 1
 1418 09d4 83378900 		ld	a5,8(s2)
 1419              	.LVL179:
 1420              	.LBB201:
 1421              	.LBB202:
  21:src/../h/../h/my_console.h ****         return;
 1422              		.loc 2 21 5
 1423 09d8 63989700 		bne	a5,s1,.L77
  22:src/../h/../h/my_console.h **** 
 1424              		.loc 2 22 9
 1425              	.LVL180:
 1426              	.LBE202:
 1427              	.LBE201:
 131:src/alloc.cpp ****             }
 1428              		.loc 1 131 17
 131:src/alloc.cpp ****             }
 1429              		.loc 1 131 36 is_stmt 0
 1430 09dc 83B70400 		ld	a5,0(s1)
 131:src/alloc.cpp ****             }
 1431              		.loc 1 131 28
 1432 09e0 2334F900 		sd	a5,8(s2)
 1433 09e4 6FF0DFF9 		j	.L68
 1434              	.LVL181:
 1435              	.L77:
 1436              	.LBB209:
 1437              	.LBB208:
  24:src/../h/../h/my_console.h ****     putString(file);
 1438              		.loc 2 24 5 is_stmt 1
  24:src/../h/../h/my_console.h ****     putString(file);
 1439              		.loc 2 24 14 is_stmt 0
 1440 09e8 17050000 		lla	a0,.LC0
 1440      13050500 
 1441 09f0 97000000 		call	_Z9putStringPKc@plt
 1441      E7800000 
 1442              	.LVL182:
  25:src/../h/../h/my_console.h ****     putString("    line: ");
 1443              		.loc 2 25 5 is_stmt 1
  25:src/../h/../h/my_console.h ****     putString("    line: ");
 1444              		.loc 2 25 14 is_stmt 0
 1445 09f8 17050000 		lla	a0,.LC1
 1445      13050500 
 1446 0a00 97000000 		call	_Z9putStringPKc@plt
 1446      E7800000 
 1447              	.LVL183:
  26:src/../h/../h/my_console.h ****     putInt(line);
GAS LISTING /tmp/cccQUxeo.s 			page 38


 1448              		.loc 2 26 5 is_stmt 1
  26:src/../h/../h/my_console.h ****     putInt(line);
 1449              		.loc 2 26 14 is_stmt 0
 1450 0a08 17050000 		lla	a0,.LC2
 1450      13050500 
 1451 0a10 97000000 		call	_Z9putStringPKc@plt
 1451      E7800000 
 1452              	.LVL184:
  27:src/../h/../h/my_console.h ****     putString("   ===========================");
 1453              		.loc 2 27 5 is_stmt 1
  27:src/../h/../h/my_console.h ****     putString("   ===========================");
 1454              		.loc 2 27 11 is_stmt 0
 1455 0a18 13052008 		li	a0,130
 1456 0a1c 97000000 		call	_Z6putInti@plt
 1456      E7800000 
 1457              	.LVL185:
  28:src/../h/../h/my_console.h ****     putNewline();
 1458              		.loc 2 28 5 is_stmt 1
  28:src/../h/../h/my_console.h ****     putNewline();
 1459              		.loc 2 28 14 is_stmt 0
 1460 0a24 17050000 		lla	a0,.LC3
 1460      13050500 
 1461 0a2c 97000000 		call	_Z9putStringPKc@plt
 1461      E7800000 
 1462              	.LVL186:
  29:src/../h/../h/my_console.h **** 
 1463              		.loc 2 29 5 is_stmt 1
  29:src/../h/../h/my_console.h **** 
 1464              		.loc 2 29 15 is_stmt 0
 1465 0a34 97000000 		call	_Z10putNewlinev@plt
 1465      E7800000 
 1466              	.LVL187:
  31:src/../h/../h/my_console.h **** 
 1467              		.loc 2 31 5 is_stmt 1
 1468              	.LBB203:
 1469              	.LBB204:
  12:src/../h/../h/../h/0_console.h ****         return &instance;
 1470              		.loc 3 12 9
  12:src/../h/../h/../h/0_console.h ****         return &instance;
 1471              		.loc 3 12 25 is_stmt 0
 1472 0a3c 97070000 		lbu	a5,_ZGVZN8IConsole3getEvE8instance
 1472      83C70700 
 1473 0a44 63920702 		bnez	a5,.L70
 1474              	.LVL188:
 1475              	.LBB205:
 1476              	.LBB206:
 1477              	.LBB207:
 1478              		.loc 3 32 63
 1479 0a48 97070000 		lla	a5,_ZZN8IConsole3getEvE8instance
 1479      93870700 
 1480 0a50 23B00700 		sd	zero,0(a5)
 1481 0a54 23B40700 		sd	zero,8(a5)
 1482 0a58 23BC073E 		sd	zero,1016(a5)
 1483              	.LVL189:
 1484              	.LBE207:
 1485              	.LBE206:
 1486              	.LBE205:
GAS LISTING /tmp/cccQUxeo.s 			page 39


  12:src/../h/../h/../h/0_console.h ****         return &instance;
 1487              		.loc 3 12 25
 1488 0a5c 93071000 		li	a5,1
 1489 0a60 17070000 		sb	a5,_ZGVZN8IConsole3getEvE8instance,a4
 1489      2300F700 
 1490              	.L70:
  13:src/../h/../h/../h/0_console.h ****     }
 1491              		.loc 3 13 9 is_stmt 1
 1492              	.LBE204:
 1493              	.LBE203:
  31:src/../h/../h/my_console.h **** 
 1494              		.loc 2 31 36 is_stmt 0
 1495 0a68 17050000 		lla	a0,_ZZN8IConsole3getEvE8instance
 1495      13050500 
 1496 0a70 97000000 		call	_ZN8IConsole14writeToConsoleEv@plt
 1496      E7800000 
 1497              	.LVL190:
 1498              		.loc 2 34 5 is_stmt 1
 1499              		.loc 2 34 15 is_stmt 0
 1500 0a78 97000000 		call	_Z10stopKernelv@plt
 1500      E7800000 
 1501              	.LVL191:
 1502              	.L63:
 1503              	.LBE208:
 1504              	.LBE209:
 1505              	.LBE210:
 1506              	.LBE213:
 1507              	.LBE215:
 147:src/alloc.cpp ****     putNewline();
 1508              		.loc 1 147 5 is_stmt 1
 147:src/alloc.cpp ****     putNewline();
 1509              		.loc 1 147 14 is_stmt 0
 1510 0a80 17050000 		lla	a0,.LC4
 1510      13050500 
 1511 0a88 97000000 		call	_Z9putStringPKc@plt
 1511      E7800000 
 1512              	.LVL192:
 148:src/alloc.cpp ****     assert(false); // temp
 1513              		.loc 1 148 5 is_stmt 1
 148:src/alloc.cpp ****     assert(false); // temp
 1514              		.loc 1 148 15 is_stmt 0
 1515 0a90 97000000 		call	_Z10putNewlinev@plt
 1515      E7800000 
 1516              	.LVL193:
 149:src/alloc.cpp ****     return -1; // negative values signify failure
 1517              		.loc 1 149 5 is_stmt 1
 1518              	.LBB216:
 1519              	.LBB217:
  21:src/../h/../h/my_console.h ****         return;
 1520              		.loc 2 21 5
  24:src/../h/../h/my_console.h ****     putString(file);
 1521              		.loc 2 24 5
  24:src/../h/../h/my_console.h ****     putString(file);
 1522              		.loc 2 24 14 is_stmt 0
 1523 0a98 17050000 		lla	a0,.LC0
 1523      13050500 
 1524 0aa0 97000000 		call	_Z9putStringPKc@plt
GAS LISTING /tmp/cccQUxeo.s 			page 40


 1524      E7800000 
 1525              	.LVL194:
  25:src/../h/../h/my_console.h ****     putString("    line: ");
 1526              		.loc 2 25 5 is_stmt 1
  25:src/../h/../h/my_console.h ****     putString("    line: ");
 1527              		.loc 2 25 14 is_stmt 0
 1528 0aa8 17050000 		lla	a0,.LC1
 1528      13050500 
 1529 0ab0 97000000 		call	_Z9putStringPKc@plt
 1529      E7800000 
 1530              	.LVL195:
  26:src/../h/../h/my_console.h ****     putInt(line);
 1531              		.loc 2 26 5 is_stmt 1
  26:src/../h/../h/my_console.h ****     putInt(line);
 1532              		.loc 2 26 14 is_stmt 0
 1533 0ab8 17050000 		lla	a0,.LC2
 1533      13050500 
 1534 0ac0 97000000 		call	_Z9putStringPKc@plt
 1534      E7800000 
 1535              	.LVL196:
  27:src/../h/../h/my_console.h ****     putString("   ===========================");
 1536              		.loc 2 27 5 is_stmt 1
  27:src/../h/../h/my_console.h ****     putString("   ===========================");
 1537              		.loc 2 27 11 is_stmt 0
 1538 0ac8 13055009 		li	a0,149
 1539 0acc 97000000 		call	_Z6putInti@plt
 1539      E7800000 
 1540              	.LVL197:
  28:src/../h/../h/my_console.h ****     putNewline();
 1541              		.loc 2 28 5 is_stmt 1
  28:src/../h/../h/my_console.h ****     putNewline();
 1542              		.loc 2 28 14 is_stmt 0
 1543 0ad4 17050000 		lla	a0,.LC3
 1543      13050500 
 1544 0adc 97000000 		call	_Z9putStringPKc@plt
 1544      E7800000 
 1545              	.LVL198:
  29:src/../h/../h/my_console.h **** 
 1546              		.loc 2 29 5 is_stmt 1
  29:src/../h/../h/my_console.h **** 
 1547              		.loc 2 29 15 is_stmt 0
 1548 0ae4 97000000 		call	_Z10putNewlinev@plt
 1548      E7800000 
 1549              	.LVL199:
  31:src/../h/../h/my_console.h **** 
 1550              		.loc 2 31 5 is_stmt 1
 1551              	.LBB218:
 1552              	.LBB219:
  12:src/../h/../h/../h/0_console.h ****         return &instance;
 1553              		.loc 3 12 9
  12:src/../h/../h/../h/0_console.h ****         return &instance;
 1554              		.loc 3 12 25 is_stmt 0
 1555 0aec 97070000 		lbu	a5,_ZGVZN8IConsole3getEvE8instance
 1555      83C70700 
 1556 0af4 63920702 		bnez	a5,.L72
 1557              	.LVL200:
 1558              	.LBB220:
GAS LISTING /tmp/cccQUxeo.s 			page 41


 1559              	.LBB221:
 1560              	.LBB222:
 1561              		.loc 3 32 63
 1562 0af8 97070000 		lla	a5,_ZZN8IConsole3getEvE8instance
 1562      93870700 
 1563 0b00 23B00700 		sd	zero,0(a5)
 1564 0b04 23B40700 		sd	zero,8(a5)
 1565 0b08 23BC073E 		sd	zero,1016(a5)
 1566              	.LVL201:
 1567              	.LBE222:
 1568              	.LBE221:
 1569              	.LBE220:
  12:src/../h/../h/../h/0_console.h ****         return &instance;
 1570              		.loc 3 12 25
 1571 0b0c 93071000 		li	a5,1
 1572 0b10 17070000 		sb	a5,_ZGVZN8IConsole3getEvE8instance,a4
 1572      2300F700 
 1573              	.L72:
  13:src/../h/../h/../h/0_console.h ****     }
 1574              		.loc 3 13 9 is_stmt 1
 1575              	.LBE219:
 1576              	.LBE218:
  31:src/../h/../h/my_console.h **** 
 1577              		.loc 2 31 36 is_stmt 0
 1578 0b18 17050000 		lla	a0,_ZZN8IConsole3getEvE8instance
 1578      13050500 
 1579 0b20 97000000 		call	_ZN8IConsole14writeToConsoleEv@plt
 1579      E7800000 
 1580              	.LVL202:
 1581              		.loc 2 34 5 is_stmt 1
 1582              		.loc 2 34 15 is_stmt 0
 1583 0b28 97000000 		call	_Z10stopKernelv@plt
 1583      E7800000 
 1584              	.LVL203:
 1585              	.LBE217:
 1586              	.LBE216:
 1587              		.cfi_endproc
 1588              	.LFE19:
 1590              		.align	2
 1591              		.globl	_ZN8MemAlloc16getUserlandUsageEv
 1593              	_ZN8MemAlloc16getUserlandUsageEv:
 1594              	.LFB20:
 152:src/alloc.cpp **** 
 153:src/alloc.cpp **** uint64 MemAlloc::getUserlandUsage()
 154:src/alloc.cpp **** {
 1595              		.loc 1 154 1 is_stmt 1
 1596              		.cfi_startproc
 1597              	.LVL204:
 1598 0b30 130101FF 		addi	sp,sp,-16
 1599              		.cfi_def_cfa_offset 16
 1600 0b34 23348100 		sd	s0,8(sp)
 1601              		.cfi_offset 8, -8
 1602 0b38 13040101 		addi	s0,sp,16
 1603              		.cfi_def_cfa 8, 0
 155:src/alloc.cpp ****     uint64 ret = 0;
 1604              		.loc 1 155 5
 1605              	.LVL205:
GAS LISTING /tmp/cccQUxeo.s 			page 42


 156:src/alloc.cpp ****     TakenNode *pCur = pTakenHead;
 1606              		.loc 1 156 5
 1607              		.loc 1 156 16 is_stmt 0
 1608 0b3c 83378500 		ld	a5,8(a0)
 1609              	.LVL206:
 155:src/alloc.cpp ****     uint64 ret = 0;
 1610              		.loc 1 155 12
 1611 0b40 13050000 		li	a0,0
 1612              	.LVL207:
 1613              	.L80:
 157:src/alloc.cpp ****     while(pCur != nullptr)
 1614              		.loc 1 157 5 is_stmt 1
 1615              		.loc 1 157 16
 1616 0b44 638A0700 		beqz	a5,.L78
 158:src/alloc.cpp ****     {
 159:src/alloc.cpp ****         ret += pCur->size;
 1617              		.loc 1 159 9
 1618              		.loc 1 159 22 is_stmt 0
 1619 0b48 03B78700 		ld	a4,8(a5)
 1620              		.loc 1 159 13
 1621 0b4c 3305E500 		add	a0,a0,a4
 1622              	.LVL208:
 160:src/alloc.cpp ****         pCur = pCur->pNext;
 1623              		.loc 1 160 9 is_stmt 1
 1624              		.loc 1 160 14 is_stmt 0
 1625 0b50 83B70700 		ld	a5,0(a5)
 1626              	.LVL209:
 157:src/alloc.cpp ****     while(pCur != nullptr)
 1627              		.loc 1 157 5
 1628 0b54 6FF01FFF 		j	.L80
 1629              	.L78:
 161:src/alloc.cpp ****     }
 162:src/alloc.cpp **** 
 163:src/alloc.cpp ****     return ret;
 164:src/alloc.cpp **** }...
 1630              		.loc 1 164 1
 1631 0b58 03348100 		ld	s0,8(sp)
 1632              		.cfi_restore 8
 1633              		.cfi_def_cfa 2, 16
 1634 0b5c 13010101 		addi	sp,sp,16
 1635              		.cfi_def_cfa_offset 0
 1636 0b60 67800000 		jr	ra
 1637              		.cfi_endproc
 1638              	.LFE20:
 1640              		.section	.rodata.str1.8
 1641              		.align	3
 1642              	.LC5:
 1643 00a0 416C6C6F 		.string	"Allocated "
 1643      63617465 
 1643      642000
 1644 00ab 00000000 		.align	3
 1644      00
 1645              	.LC6:
 1646 00b0 20627974 		.string	" bytes are allocated for userland"
 1646      65732061 
 1646      72652061 
 1646      6C6C6F63 
GAS LISTING /tmp/cccQUxeo.s 			page 43


 1646      61746564 
 1647              		.text
 1648              		.align	2
 1649              		.globl	_ZN8MemAlloc18printUserlandUsageEv
 1651              	_ZN8MemAlloc18printUserlandUsageEv:
 1652              	.LFB13:
  22:src/alloc.cpp **** {
 1653              		.loc 1 22 1 is_stmt 1
 1654              		.cfi_startproc
 1655              	.LVL210:
 1656 0b64 130101FE 		addi	sp,sp,-32
 1657              		.cfi_def_cfa_offset 32
 1658 0b68 233C1100 		sd	ra,24(sp)
 1659 0b6c 23388100 		sd	s0,16(sp)
 1660 0b70 23349100 		sd	s1,8(sp)
 1661              		.cfi_offset 1, -8
 1662              		.cfi_offset 8, -16
 1663              		.cfi_offset 9, -24
 1664 0b74 13040102 		addi	s0,sp,32
 1665              		.cfi_def_cfa 8, 0
  23:src/alloc.cpp ****     uint64 a = getUserlandUsage();
 1666              		.loc 1 23 5
  23:src/alloc.cpp ****     uint64 a = getUserlandUsage();
 1667              		.loc 1 23 32 is_stmt 0
 1668 0b78 97000000 		call	_ZN8MemAlloc16getUserlandUsageEv
 1668      E7800000 
 1669              	.LVL211:
 1670 0b80 93040500 		mv	s1,a0
 1671              	.LVL212:
  24:src/alloc.cpp ****     putString("Allocated ");
 1672              		.loc 1 24 5 is_stmt 1
  24:src/alloc.cpp ****     putString("Allocated ");
 1673              		.loc 1 24 14 is_stmt 0
 1674 0b84 17050000 		lla	a0,.LC5
 1674      13050500 
 1675 0b8c 97000000 		call	_Z9putStringPKc@plt
 1675      E7800000 
 1676              	.LVL213:
  25:src/alloc.cpp ****     putU64(a);
 1677              		.loc 1 25 5 is_stmt 1
  25:src/alloc.cpp ****     putU64(a);
 1678              		.loc 1 25 11 is_stmt 0
 1679 0b94 13850400 		mv	a0,s1
 1680 0b98 97000000 		call	_Z6putU64m@plt
 1680      E7800000 
 1681              	.LVL214:
  26:src/alloc.cpp ****     putString(" bytes are allocated for userland");
 1682              		.loc 1 26 5 is_stmt 1
  26:src/alloc.cpp ****     putString(" bytes are allocated for userland");
 1683              		.loc 1 26 14 is_stmt 0
 1684 0ba0 17050000 		lla	a0,.LC6
 1684      13050500 
 1685 0ba8 97000000 		call	_Z9putStringPKc@plt
 1685      E7800000 
 1686              	.LVL215:
  27:src/alloc.cpp ****     putNewline();
 1687              		.loc 1 27 5 is_stmt 1
GAS LISTING /tmp/cccQUxeo.s 			page 44


  27:src/alloc.cpp ****     putNewline();
 1688              		.loc 1 27 15 is_stmt 0
 1689 0bb0 97000000 		call	_Z10putNewlinev@plt
 1689      E7800000 
 1690              	.LVL216:
  28:src/alloc.cpp **** }
 1691              		.loc 1 28 1
 1692 0bb8 83308101 		ld	ra,24(sp)
 1693              		.cfi_restore 1
 1694 0bbc 03340101 		ld	s0,16(sp)
 1695              		.cfi_restore 8
 1696              		.cfi_def_cfa 2, 32
 1697 0bc0 83348100 		ld	s1,8(sp)
 1698              		.cfi_restore 9
 1699              	.LVL217:
 1700 0bc4 13010102 		addi	sp,sp,32
 1701              		.cfi_def_cfa_offset 0
 1702 0bc8 67800000 		jr	ra
 1703              		.cfi_endproc
 1704              	.LFE13:
 1706              		.weak	_ZGVZN8IConsole3getEvE8instance
 1707              		.section	.bss._ZGVZN8IConsole3getEvE8instance,"awG",@nobits,_ZGVZN8IConsole3getEvE8instance,comdat
 1708              		.align	3
 1711              	_ZGVZN8IConsole3getEvE8instance:
 1712 0000 00000000 		.zero	8
 1712      00000000 
 1713              		.weak	_ZZN8IConsole3getEvE8instance
 1714              		.section	.bss._ZZN8IConsole3getEvE8instance,"awG",@nobits,_ZZN8IConsole3getEvE8instance,comdat
 1715              		.align	3
 1718              	_ZZN8IConsole3getEvE8instance:
 1719 0000 00000000 		.zero	2048
 1719      00000000 
 1719      00000000 
 1719      00000000 
 1719      00000000 
 1720              		.bss
 1721              		.align	3
 1722              		.set	.LANCHOR0,. + 0
 1725              	_ZGVZN8MemAlloc3getEvE8instance:
 1726 0000 00000000 		.zero	8
 1726      00000000 
 1729              	_ZZN8MemAlloc3getEvE8instance:
 1730 0008 00000000 		.zero	24
 1730      00000000 
 1730      00000000 
 1730      00000000 
 1730      00000000 
 1731              		.text
 1732              	.Letext0:
 1733              		.file 4 "src/../h/../lib/hw.h"
 1734              		.file 5 "src/../h/alloc.h"
GAS LISTING /tmp/cccQUxeo.s 			page 45

