GAS LISTING /tmp/ccINVHKA.s 			page 1


   1              		.file	"alloc.cpp"
   2              		.option pic
   3              		.option norelax
   4              		.text
   5              	.Ltext0:
   6              		.section	.rodata.str1.8,"aMS",@progbits,1
   7              		.align	3
   8              	.LC0:
   9 0000 3D3D3D3D 		.string	"===================== ASSERT file: "
   9      3D3D3D3D 
   9      3D3D3D3D 
   9      3D3D3D3D 
   9      3D3D3D3D 
  10 0024 00000000 		.align	3
  11              	.LC1:
  12 0028 7372632F 		.string	"src/alloc.cpp"
  12      616C6C6F 
  12      632E6370 
  12      7000
  13 0036 0000     		.align	3
  14              	.LC2:
  15 0038 20202020 		.string	"    line: "
  15      6C696E65 
  15      3A2000
  16 0043 00000000 		.align	3
  16      00
  17              	.LC3:
  18 0048 2020203D 		.string	"   ==========================="
  18      3D3D3D3D 
  18      3D3D3D3D 
  18      3D3D3D3D 
  18      3D3D3D3D 
  19              		.text
  20              		.align	2
  21              		.globl	_Z12alignForwardmm
  23              	_Z12alignForwardmm:
  24              	.LFB7:
  25              		.file 1 "src/alloc.cpp"
   1:src/alloc.cpp **** #include "../h/alloc.h"
   2:src/alloc.cpp **** #include "../h/my_console.h"
   3:src/alloc.cpp **** #include "../lib/hw.h"
   4:src/alloc.cpp **** 
   5:src/alloc.cpp **** uint64 alignForward(uint64 n, uint64 alignConst)
   6:src/alloc.cpp **** {
  26              		.loc 1 6 1
  27              		.cfi_startproc
  28              	.LVL0:
   7:src/alloc.cpp ****     assert(alignConst == MEM_BLOCK_SIZE);
  29              		.loc 1 7 5
  30 0000 938505FC 		addi	a1,a1,-64
  31              	.LVL1:
  32              	.LBB4:
  33              	.LBB5:
  34              		.file 2 "src/../h/../h/my_console.h"
   1:src/../h/../h/my_console.h **** #pragma once
   2:src/../h/../h/my_console.h **** 
   3:src/../h/../h/my_console.h **** #include "../h/risc.h"
GAS LISTING /tmp/ccINVHKA.s 			page 2


   4:src/../h/../h/my_console.h **** 
   5:src/../h/../h/my_console.h **** #include "../lib/hw.h"
   6:src/../h/../h/my_console.h **** 
   7:src/../h/../h/my_console.h **** #define __DEBUG_MODE
   8:src/../h/../h/my_console.h **** 
   9:src/../h/../h/my_console.h **** 
  10:src/../h/../h/my_console.h **** void putString(const char* s);
  11:src/../h/../h/my_console.h **** void putInt(int n);
  12:src/../h/../h/my_console.h **** void putNewline();
  13:src/../h/../h/my_console.h **** void putU64(uint64 n);
  14:src/../h/../h/my_console.h **** void putBinary(uint64 n);
  15:src/../h/../h/my_console.h **** 
  16:src/../h/../h/my_console.h **** [[noreturn]] void stopKernel();
  17:src/../h/../h/my_console.h **** 
  18:src/../h/../h/my_console.h **** inline void _assert(bool valid, const char* file, int line) // MUST be inline
  19:src/../h/../h/my_console.h **** {
  20:src/../h/../h/my_console.h ****     if(valid)
  35              		.loc 2 20 5
  36 0004 639C0500 		bnez	a1,.L7
  21:src/../h/../h/my_console.h ****         return;
  37              		.loc 2 21 9
  38              	.LVL2:
  39              	.LBE5:
  40              	.LBE4:
   8:src/alloc.cpp ****     if(n % MEM_BLOCK_SIZE != 0) // align size
  41              		.loc 1 8 5
  42              		.loc 1 8 10 is_stmt 0
  43 0008 9377F503 		andi	a5,a0,63
  44              		.loc 1 8 5
  45 000c 63860700 		beqz	a5,.L3
   9:src/alloc.cpp ****     {
  10:src/alloc.cpp ****         n += MEM_BLOCK_SIZE - (n % MEM_BLOCK_SIZE);
  46              		.loc 1 10 9 is_stmt 1
  47              		.loc 1 10 11 is_stmt 0
  48 0010 137505FC 		andi	a0,a0,-64
  49              	.LVL3:
  50 0014 13050504 		addi	a0,a0,64
  51              	.LVL4:
  52              	.L3:
  11:src/alloc.cpp ****     }
  12:src/alloc.cpp ****     return n;
  53              		.loc 1 12 5 is_stmt 1
  13:src/alloc.cpp **** }
  54              		.loc 1 13 1 is_stmt 0
  55 0018 67800000 		ret
  56              	.LVL5:
  57              	.L7:
   6:src/alloc.cpp ****     assert(alignConst == MEM_BLOCK_SIZE);
  58              		.loc 1 6 1
  59 001c 130101FF 		addi	sp,sp,-16
  60              		.cfi_def_cfa_offset 16
  61 0020 23341100 		sd	ra,8(sp)
  62 0024 23308100 		sd	s0,0(sp)
  63              		.cfi_offset 1, -8
  64              		.cfi_offset 8, -16
  65 0028 13040101 		addi	s0,sp,16
  66              		.cfi_def_cfa 8, 0
GAS LISTING /tmp/ccINVHKA.s 			page 3


  67              	.LBB7:
  68              	.LBB6:
  22:src/../h/../h/my_console.h **** 
  23:src/../h/../h/my_console.h ****     putString("===================== ASSERT file: ");
  69              		.loc 2 23 5 is_stmt 1
  70              		.loc 2 23 14 is_stmt 0
  71 002c 17050000 		lla	a0,.LC0
  71      13050500 
  72              	.LVL6:
  73 0034 97000000 		call	_Z9putStringPKc@plt
  73      E7800000 
  74              	.LVL7:
  24:src/../h/../h/my_console.h ****     putString(file);
  75              		.loc 2 24 5 is_stmt 1
  76              		.loc 2 24 14 is_stmt 0
  77 003c 17050000 		lla	a0,.LC1
  77      13050500 
  78 0044 97000000 		call	_Z9putStringPKc@plt
  78      E7800000 
  79              	.LVL8:
  25:src/../h/../h/my_console.h ****     putString("    line: ");
  80              		.loc 2 25 5 is_stmt 1
  81              		.loc 2 25 14 is_stmt 0
  82 004c 17050000 		lla	a0,.LC2
  82      13050500 
  83 0054 97000000 		call	_Z9putStringPKc@plt
  83      E7800000 
  84              	.LVL9:
  26:src/../h/../h/my_console.h ****     putInt(line);
  85              		.loc 2 26 5 is_stmt 1
  86              		.loc 2 26 11 is_stmt 0
  87 005c 13057000 		li	a0,7
  88 0060 97000000 		call	_Z6putInti@plt
  88      E7800000 
  89              	.LVL10:
  27:src/../h/../h/my_console.h ****     putString("   ===========================");
  90              		.loc 2 27 5 is_stmt 1
  91              		.loc 2 27 14 is_stmt 0
  92 0068 17050000 		lla	a0,.LC3
  92      13050500 
  93 0070 97000000 		call	_Z9putStringPKc@plt
  93      E7800000 
  94              	.LVL11:
  28:src/../h/../h/my_console.h ****     putNewline();
  95              		.loc 2 28 5 is_stmt 1
  96              		.loc 2 28 15 is_stmt 0
  97 0078 97000000 		call	_Z10putNewlinev@plt
  97      E7800000 
  98              	.LVL12:
  29:src/../h/../h/my_console.h **** 
  30:src/../h/../h/my_console.h ****     stopKernel();
  99              		.loc 2 30 5 is_stmt 1
 100              		.loc 2 30 15 is_stmt 0
 101 0080 97000000 		call	_Z10stopKernelv@plt
 101      E7800000 
 102              	.LVL13:
 103              	.LBE6:
GAS LISTING /tmp/ccINVHKA.s 			page 4


 104              	.LBE7:
 105              		.cfi_endproc
 106              	.LFE7:
 108              		.align	2
 109              		.globl	_Z13alignBackwardmm
 111              	_Z13alignBackwardmm:
 112              	.LFB8:
  14:src/alloc.cpp **** 
  15:src/alloc.cpp **** uint64 alignBackward(uint64 n, uint64 alignConst)
  16:src/alloc.cpp **** {
 113              		.loc 1 16 1 is_stmt 1
 114              		.cfi_startproc
 115              	.LVL14:
  17:src/alloc.cpp ****     assert(alignConst == MEM_BLOCK_SIZE);
 116              		.loc 1 17 5
 117 0088 938505FC 		addi	a1,a1,-64
 118              	.LVL15:
 119              	.LBB10:
 120              	.LBB11:
  20:src/../h/../h/my_console.h ****         return;
 121              		.loc 2 20 5
 122 008c 63960500 		bnez	a1,.L13
  21:src/../h/../h/my_console.h **** 
 123              		.loc 2 21 9
 124              	.LVL16:
 125              	.LBE11:
 126              	.LBE10:
  18:src/alloc.cpp ****     return n - n % MEM_BLOCK_SIZE;;
 127              		.loc 1 18 5
 128              		.loc 1 18 35
  19:src/alloc.cpp **** }
 129              		.loc 1 19 1 is_stmt 0
 130 0090 137505FC 		andi	a0,a0,-64
 131              	.LVL17:
 132 0094 67800000 		ret
 133              	.LVL18:
 134              	.L13:
  16:src/alloc.cpp ****     assert(alignConst == MEM_BLOCK_SIZE);
 135              		.loc 1 16 1
 136 0098 130101FF 		addi	sp,sp,-16
 137              		.cfi_def_cfa_offset 16
 138 009c 23341100 		sd	ra,8(sp)
 139 00a0 23308100 		sd	s0,0(sp)
 140              		.cfi_offset 1, -8
 141              		.cfi_offset 8, -16
 142 00a4 13040101 		addi	s0,sp,16
 143              		.cfi_def_cfa 8, 0
 144              	.LBB13:
 145              	.LBB12:
  23:src/../h/../h/my_console.h ****     putString(file);
 146              		.loc 2 23 5 is_stmt 1
  23:src/../h/../h/my_console.h ****     putString(file);
 147              		.loc 2 23 14 is_stmt 0
 148 00a8 17050000 		lla	a0,.LC0
 148      13050500 
 149              	.LVL19:
 150 00b0 97000000 		call	_Z9putStringPKc@plt
GAS LISTING /tmp/ccINVHKA.s 			page 5


 150      E7800000 
 151              	.LVL20:
  24:src/../h/../h/my_console.h ****     putString("    line: ");
 152              		.loc 2 24 5 is_stmt 1
  24:src/../h/../h/my_console.h ****     putString("    line: ");
 153              		.loc 2 24 14 is_stmt 0
 154 00b8 17050000 		lla	a0,.LC1
 154      13050500 
 155 00c0 97000000 		call	_Z9putStringPKc@plt
 155      E7800000 
 156              	.LVL21:
  25:src/../h/../h/my_console.h ****     putInt(line);
 157              		.loc 2 25 5 is_stmt 1
  25:src/../h/../h/my_console.h ****     putInt(line);
 158              		.loc 2 25 14 is_stmt 0
 159 00c8 17050000 		lla	a0,.LC2
 159      13050500 
 160 00d0 97000000 		call	_Z9putStringPKc@plt
 160      E7800000 
 161              	.LVL22:
  26:src/../h/../h/my_console.h ****     putString("   ===========================");
 162              		.loc 2 26 5 is_stmt 1
  26:src/../h/../h/my_console.h ****     putString("   ===========================");
 163              		.loc 2 26 11 is_stmt 0
 164 00d8 13051001 		li	a0,17
 165 00dc 97000000 		call	_Z6putInti@plt
 165      E7800000 
 166              	.LVL23:
  27:src/../h/../h/my_console.h ****     putNewline();
 167              		.loc 2 27 5 is_stmt 1
  27:src/../h/../h/my_console.h ****     putNewline();
 168              		.loc 2 27 14 is_stmt 0
 169 00e4 17050000 		lla	a0,.LC3
 169      13050500 
 170 00ec 97000000 		call	_Z9putStringPKc@plt
 170      E7800000 
 171              	.LVL24:
  28:src/../h/../h/my_console.h **** 
 172              		.loc 2 28 5 is_stmt 1
  28:src/../h/../h/my_console.h **** 
 173              		.loc 2 28 15 is_stmt 0
 174 00f4 97000000 		call	_Z10putNewlinev@plt
 174      E7800000 
 175              	.LVL25:
 176              		.loc 2 30 5 is_stmt 1
 177              		.loc 2 30 15 is_stmt 0
 178 00fc 97000000 		call	_Z10stopKernelv@plt
 178      E7800000 
 179              	.LVL26:
 180              	.LBE12:
 181              	.LBE13:
 182              		.cfi_endproc
 183              	.LFE8:
 185              		.align	2
 186              		.globl	_ZN8MemAllocC2Ev
 188              	_ZN8MemAllocC2Ev:
 189              	.LFB11:
GAS LISTING /tmp/ccINVHKA.s 			page 6


  20:src/alloc.cpp **** 
  21:src/alloc.cpp **** void MemAlloc::printUserlandUsage()
  22:src/alloc.cpp **** {
  23:src/alloc.cpp ****     uint64 a = getUserlandUsage();
  24:src/alloc.cpp ****     putString("Allocated ");
  25:src/alloc.cpp ****     putU64(a);
  26:src/alloc.cpp ****     putString(" bytes are allocated for userland");
  27:src/alloc.cpp ****     putNewline();
  28:src/alloc.cpp **** }
  29:src/alloc.cpp **** 
  30:src/alloc.cpp **** MemAlloc::MemAlloc()
 190              		.loc 1 30 1 is_stmt 1
 191              		.cfi_startproc
 192              	.LVL27:
 193 0104 130101FE 		addi	sp,sp,-32
 194              		.cfi_def_cfa_offset 32
 195 0108 233C1100 		sd	ra,24(sp)
 196 010c 23388100 		sd	s0,16(sp)
 197 0110 23349100 		sd	s1,8(sp)
 198 0114 23302101 		sd	s2,0(sp)
 199              		.cfi_offset 1, -8
 200              		.cfi_offset 8, -16
 201              		.cfi_offset 9, -24
 202              		.cfi_offset 18, -32
 203 0118 13040102 		addi	s0,sp,32
 204              		.cfi_def_cfa 8, 0
 205 011c 93040500 		mv	s1,a0
 206              	.LBB17:
  31:src/alloc.cpp **** : MAX_NODE_SIZE(sizeof(FreeNode) > sizeof(TakenNode) ? sizeof(FreeNode) : sizeof(TakenNode))
 207              		.loc 1 31 92 is_stmt 0
 208 0120 93078001 		li	a5,24
 209 0124 2338F500 		sd	a5,16(a0)
  32:src/alloc.cpp **** {
  33:src/alloc.cpp ****     pFreeHead = (FreeNode*)alignForward((uint64)HEAP_START_ADDR, MEM_BLOCK_SIZE);
 210              		.loc 1 33 5 is_stmt 1
 211              		.loc 1 33 40 is_stmt 0
 212 0128 93050004 		li	a1,64
 213 012c 97070000 		la	a5,HEAP_START_ADDR
 213      83B70700 
 214 0134 03B50700 		ld	a0,0(a5)
 215              	.LVL28:
 216 0138 97000000 		call	_Z12alignForwardmm
 216      E7800000 
 217              	.LVL29:
 218              		.loc 1 33 15
 219 0140 23B0A400 		sd	a0,0(s1)
  34:src/alloc.cpp ****     pFreeHead->base = (char*)alignForward((uint64)pFreeHead + MAX_NODE_SIZE, MEM_BLOCK_SIZE);
 220              		.loc 1 34 5 is_stmt 1
 221              		.loc 1 34 63 is_stmt 0
 222 0144 83B70401 		ld	a5,16(s1)
 223              		.loc 1 34 42
 224 0148 93050004 		li	a1,64
 225 014c 3385A700 		add	a0,a5,a0
 226 0150 97000000 		call	_Z12alignForwardmm
 226      E7800000 
 227              	.LVL30:
 228              		.loc 1 34 5
GAS LISTING /tmp/ccINVHKA.s 			page 7


 229 0158 83B70400 		ld	a5,0(s1)
 230              		.loc 1 34 21
 231 015c 23B8A700 		sd	a0,16(a5)
  35:src/alloc.cpp ****     pFreeHead->size = alignBackward((uint64)HEAP_END_ADDR - (uint64)pFreeHead->base, MEM_BLOCK_SIZE
 232              		.loc 1 35 5 is_stmt 1
 233              		.loc 1 35 69 is_stmt 0
 234 0160 03B90400 		ld	s2,0(s1)
 235              		.loc 1 35 80
 236 0164 83370901 		ld	a5,16(s2)
 237              		.loc 1 35 36
 238 0168 17070000 		la	a4,HEAP_END_ADDR
 238      03370700 
 239 0170 03350700 		ld	a0,0(a4)
 240 0174 93050004 		li	a1,64
 241 0178 3305F540 		sub	a0,a0,a5
 242 017c 97000000 		call	_Z13alignBackwardmm
 242      E7800000 
 243              	.LVL31:
 244              		.loc 1 35 21
 245 0184 2334A900 		sd	a0,8(s2)
  36:src/alloc.cpp **** 
  37:src/alloc.cpp ****     pTakenHead = nullptr;
 246              		.loc 1 37 5 is_stmt 1
 247              		.loc 1 37 16 is_stmt 0
 248 0188 23B40400 		sd	zero,8(s1)
  38:src/alloc.cpp **** 
  39:src/alloc.cpp ****     assert(((uint64)pFreeHead->size) / 1024 / 1024 == 127);
 249              		.loc 1 39 5 is_stmt 1
 250 018c 83B70400 		ld	a5,0(s1)
 251 0190 83B78700 		ld	a5,8(a5)
 252 0194 370710F8 		li	a4,-133169152
 253 0198 B387E700 		add	a5,a5,a4
 254 019c 37071000 		li	a4,1048576
 255              	.LVL32:
 256              	.LBB18:
 257              	.LBB19:
  20:src/../h/../h/my_console.h ****         return;
 258              		.loc 2 20 5
 259 01a0 63FEE700 		bgeu	a5,a4,.L17
 260              	.LBE19:
 261              	.LBE18:
 262              	.LBE17:
  40:src/alloc.cpp **** }
 263              		.loc 1 40 1 is_stmt 0
 264 01a4 83308101 		ld	ra,24(sp)
 265              		.cfi_remember_state
 266              		.cfi_restore 1
 267 01a8 03340101 		ld	s0,16(sp)
 268              		.cfi_restore 8
 269              		.cfi_def_cfa 2, 32
 270 01ac 83348100 		ld	s1,8(sp)
 271              		.cfi_restore 9
 272              	.LVL33:
 273 01b0 03390100 		ld	s2,0(sp)
 274              		.cfi_restore 18
 275 01b4 13010102 		addi	sp,sp,32
 276              		.cfi_def_cfa_offset 0
GAS LISTING /tmp/ccINVHKA.s 			page 8


 277 01b8 67800000 		jr	ra
 278              	.LVL34:
 279              	.L17:
 280              		.cfi_restore_state
 281              	.LBB22:
 282              	.LBB21:
 283              	.LBB20:
  23:src/../h/../h/my_console.h ****     putString(file);
 284              		.loc 2 23 5 is_stmt 1
  23:src/../h/../h/my_console.h ****     putString(file);
 285              		.loc 2 23 14 is_stmt 0
 286 01bc 17050000 		lla	a0,.LC0
 286      13050500 
 287 01c4 97000000 		call	_Z9putStringPKc@plt
 287      E7800000 
 288              	.LVL35:
  24:src/../h/../h/my_console.h ****     putString("    line: ");
 289              		.loc 2 24 5 is_stmt 1
  24:src/../h/../h/my_console.h ****     putString("    line: ");
 290              		.loc 2 24 14 is_stmt 0
 291 01cc 17050000 		lla	a0,.LC1
 291      13050500 
 292 01d4 97000000 		call	_Z9putStringPKc@plt
 292      E7800000 
 293              	.LVL36:
  25:src/../h/../h/my_console.h ****     putInt(line);
 294              		.loc 2 25 5 is_stmt 1
  25:src/../h/../h/my_console.h ****     putInt(line);
 295              		.loc 2 25 14 is_stmt 0
 296 01dc 17050000 		lla	a0,.LC2
 296      13050500 
 297 01e4 97000000 		call	_Z9putStringPKc@plt
 297      E7800000 
 298              	.LVL37:
  26:src/../h/../h/my_console.h ****     putString("   ===========================");
 299              		.loc 2 26 5 is_stmt 1
  26:src/../h/../h/my_console.h ****     putString("   ===========================");
 300              		.loc 2 26 11 is_stmt 0
 301 01ec 13057002 		li	a0,39
 302 01f0 97000000 		call	_Z6putInti@plt
 302      E7800000 
 303              	.LVL38:
  27:src/../h/../h/my_console.h ****     putNewline();
 304              		.loc 2 27 5 is_stmt 1
  27:src/../h/../h/my_console.h ****     putNewline();
 305              		.loc 2 27 14 is_stmt 0
 306 01f8 17050000 		lla	a0,.LC3
 306      13050500 
 307 0200 97000000 		call	_Z9putStringPKc@plt
 307      E7800000 
 308              	.LVL39:
  28:src/../h/../h/my_console.h **** 
 309              		.loc 2 28 5 is_stmt 1
  28:src/../h/../h/my_console.h **** 
 310              		.loc 2 28 15 is_stmt 0
 311 0208 97000000 		call	_Z10putNewlinev@plt
 311      E7800000 
GAS LISTING /tmp/ccINVHKA.s 			page 9


 312              	.LVL40:
 313              		.loc 2 30 5 is_stmt 1
 314              		.loc 2 30 15 is_stmt 0
 315 0210 97000000 		call	_Z10stopKernelv@plt
 315      E7800000 
 316              	.LVL41:
 317              	.LBE20:
 318              	.LBE21:
 319              	.LBE22:
 320              		.cfi_endproc
 321              	.LFE11:
 323              		.globl	_ZN8MemAllocC1Ev
 324              		.set	_ZN8MemAllocC1Ev,_ZN8MemAllocC2Ev
 325              		.align	2
 326              		.globl	_ZN8MemAlloc3getEv
 328              	_ZN8MemAlloc3getEv:
 329              	.LFB13:
  41:src/alloc.cpp **** 
  42:src/alloc.cpp **** 
  43:src/alloc.cpp **** MemAlloc* MemAlloc::get()
  44:src/alloc.cpp **** {
 330              		.loc 1 44 1 is_stmt 1
 331              		.cfi_startproc
  45:src/alloc.cpp ****     static MemAlloc instance;
 332              		.loc 1 45 5
 333              		.loc 1 45 21 is_stmt 0
 334 0218 97070000 		lbu	a5,.LANCHOR0
 334      83C70700 
 335 0220 63880700 		beqz	a5,.L24
  46:src/alloc.cpp ****     return &instance;
 336              		.loc 1 46 5 is_stmt 1
  47:src/alloc.cpp **** }
 337              		.loc 1 47 1 is_stmt 0
 338 0224 17050000 		lla	a0,.LANCHOR0+8
 338      13050500 
 339 022c 67800000 		ret
 340              	.L24:
  44:src/alloc.cpp ****     static MemAlloc instance;
 341              		.loc 1 44 1 discriminator 1
 342 0230 130101FF 		addi	sp,sp,-16
 343              		.cfi_def_cfa_offset 16
 344 0234 23341100 		sd	ra,8(sp)
 345 0238 23308100 		sd	s0,0(sp)
 346              		.cfi_offset 1, -8
 347              		.cfi_offset 8, -16
 348 023c 13040101 		addi	s0,sp,16
 349              		.cfi_def_cfa 8, 0
  45:src/alloc.cpp ****     return &instance;
 350              		.loc 1 45 21 discriminator 1
 351 0240 17050000 		lla	a0,.LANCHOR0+8
 351      13050500 
 352 0248 97000000 		call	_ZN8MemAllocC1Ev
 352      E7800000 
 353              	.LVL42:
 354 0250 93071000 		li	a5,1
 355 0254 17070000 		sb	a5,.LANCHOR0,a4
 355      2300F700 
GAS LISTING /tmp/ccINVHKA.s 			page 10


  46:src/alloc.cpp **** }
 356              		.loc 1 46 5 is_stmt 1 discriminator 1
 357              		.loc 1 47 1 is_stmt 0 discriminator 1
 358 025c 17050000 		lla	a0,.LANCHOR0+8
 358      13050500 
 359 0264 83308100 		ld	ra,8(sp)
 360              		.cfi_restore 1
 361 0268 03340100 		ld	s0,0(sp)
 362              		.cfi_restore 8
 363              		.cfi_def_cfa 2, 16
 364 026c 13010101 		addi	sp,sp,16
 365              		.cfi_def_cfa_offset 0
 366 0270 67800000 		jr	ra
 367              		.cfi_endproc
 368              	.LFE13:
 370              		.align	2
 371              		.globl	_ZN8MemAlloc8allocMemEm
 373              	_ZN8MemAlloc8allocMemEm:
 374              	.LFB14:
  48:src/alloc.cpp **** 
  49:src/alloc.cpp **** void* MemAlloc::allocMem(size_t size)
  50:src/alloc.cpp **** {
 375              		.loc 1 50 1 is_stmt 1
 376              		.cfi_startproc
 377              	.LVL43:
 378 0274 130101FB 		addi	sp,sp,-80
 379              		.cfi_def_cfa_offset 80
 380 0278 23341104 		sd	ra,72(sp)
 381 027c 23308104 		sd	s0,64(sp)
 382 0280 233C9102 		sd	s1,56(sp)
 383 0284 23382103 		sd	s2,48(sp)
 384 0288 23343103 		sd	s3,40(sp)
 385 028c 23304103 		sd	s4,32(sp)
 386 0290 233C5101 		sd	s5,24(sp)
 387 0294 23386101 		sd	s6,16(sp)
 388 0298 23347101 		sd	s7,8(sp)
 389 029c 23308101 		sd	s8,0(sp)
 390              		.cfi_offset 1, -8
 391              		.cfi_offset 8, -16
 392              		.cfi_offset 9, -24
 393              		.cfi_offset 18, -32
 394              		.cfi_offset 19, -40
 395              		.cfi_offset 20, -48
 396              		.cfi_offset 21, -56
 397              		.cfi_offset 22, -64
 398              		.cfi_offset 23, -72
 399              		.cfi_offset 24, -80
 400 02a0 13040105 		addi	s0,sp,80
 401              		.cfi_def_cfa 8, 0
 402 02a4 93090500 		mv	s3,a0
 403 02a8 13850500 		mv	a0,a1
 404              	.LVL44:
  51:src/alloc.cpp ****     // Algorithm: puts it in the first place large enough found
  52:src/alloc.cpp **** 
  53:src/alloc.cpp **** //    size_t initialSize = size;
  54:src/alloc.cpp **** //    putString("=== called: allocMem(");
  55:src/alloc.cpp **** //    putU64(initialSize);
GAS LISTING /tmp/ccINVHKA.s 			page 11


  56:src/alloc.cpp **** //    putString(")");
  57:src/alloc.cpp **** //    putNewline();
  58:src/alloc.cpp **** 
  59:src/alloc.cpp ****     size = alignForward(size, MEM_BLOCK_SIZE);
 405              		.loc 1 59 5
 406              		.loc 1 59 24 is_stmt 0
 407 02ac 93050004 		li	a1,64
 408              	.LVL45:
 409 02b0 97000000 		call	_Z12alignForwardmm
 409      E7800000 
 410              	.LVL46:
 411 02b8 130A0500 		mv	s4,a0
 412              	.LVL47:
  60:src/alloc.cpp **** 
  61:src/alloc.cpp ****     size_t usableSize = size;
 413              		.loc 1 61 5 is_stmt 1
  62:src/alloc.cpp ****     size_t actualSize = alignForward(usableSize + MAX_NODE_SIZE, MEM_BLOCK_SIZE);
 414              		.loc 1 62 5
 415              		.loc 1 62 51 is_stmt 0
 416 02bc 03B50901 		ld	a0,16(s3)
 417              	.LVL48:
 418              		.loc 1 62 37
 419 02c0 93050004 		li	a1,64
 420 02c4 33054501 		add	a0,a0,s4
 421 02c8 97000000 		call	_Z12alignForwardmm
 421      E7800000 
 422              	.LVL49:
  63:src/alloc.cpp ****     assert(usableSize % MEM_BLOCK_SIZE == 0 && actualSize % MEM_BLOCK_SIZE == 0);
 423              		.loc 1 63 5 is_stmt 1
 424 02d0 9377FA03 		andi	a5,s4,63
 425 02d4 639A0700 		bnez	a5,.L39
 426              		.loc 1 63 5 is_stmt 0 discriminator 1
 427 02d8 1375F503 		andi	a0,a0,63
 428              	.LVL50:
 429 02dc 63000502 		beqz	a0,.L40
 430              		.loc 1 63 5
 431 02e0 130C0000 		li	s8,0
 432 02e4 6F008000 		j	.L26
 433              	.LVL51:
 434              	.L39:
 435 02e8 130C0000 		li	s8,0
 436              	.LVL52:
 437              	.L26:
 438              	.LBB38:
 439              	.LBB39:
  20:src/../h/../h/my_console.h ****         return;
 440              		.loc 2 20 5 is_stmt 1 discriminator 6
 441 02ec 630C0C00 		beqz	s8,.L47
  21:src/../h/../h/my_console.h **** 
 442              		.loc 2 21 9 discriminator 6
 443              	.LVL53:
 444              	.LBE39:
 445              	.LBE38:
  64:src/alloc.cpp ****     size = 0; // WARNING: use actualSize and initialSize instead
 446              		.loc 1 64 5 discriminator 6
  65:src/alloc.cpp **** 
  66:src/alloc.cpp ****     FreeNode* pCur = pFreeHead;
GAS LISTING /tmp/ccINVHKA.s 			page 12


 447              		.loc 1 66 5 discriminator 6
 448              		.loc 1 66 15 is_stmt 0 discriminator 6
 449 02f0 83B40900 		ld	s1,0(s3)
 450              	.LVL54:
  67:src/alloc.cpp ****     FreeNode* pPrev = nullptr;
 451              		.loc 1 67 5 is_stmt 1 discriminator 6
 452              		.loc 1 67 15 is_stmt 0 discriminator 6
 453 02f4 130B0000 		li	s6,0
 454 02f8 6F00800C 		j	.L38
 455              	.LVL55:
 456              	.L40:
  63:src/alloc.cpp ****     size = 0; // WARNING: use actualSize and initialSize instead
 457              		.loc 1 63 5
 458 02fc 130C1000 		li	s8,1
 459 0300 6FF0DFFE 		j	.L26
 460              	.LVL56:
 461              	.L47:
 462              	.LBB41:
 463              	.LBB40:
  23:src/../h/../h/my_console.h ****     putString(file);
 464              		.loc 2 23 5 is_stmt 1
  23:src/../h/../h/my_console.h ****     putString(file);
 465              		.loc 2 23 14 is_stmt 0
 466 0304 17050000 		lla	a0,.LC0
 466      13050500 
 467 030c 97000000 		call	_Z9putStringPKc@plt
 467      E7800000 
 468              	.LVL57:
  24:src/../h/../h/my_console.h ****     putString("    line: ");
 469              		.loc 2 24 5 is_stmt 1
  24:src/../h/../h/my_console.h ****     putString("    line: ");
 470              		.loc 2 24 14 is_stmt 0
 471 0314 17050000 		lla	a0,.LC1
 471      13050500 
 472 031c 97000000 		call	_Z9putStringPKc@plt
 472      E7800000 
 473              	.LVL58:
  25:src/../h/../h/my_console.h ****     putInt(line);
 474              		.loc 2 25 5 is_stmt 1
  25:src/../h/../h/my_console.h ****     putInt(line);
 475              		.loc 2 25 14 is_stmt 0
 476 0324 17050000 		lla	a0,.LC2
 476      13050500 
 477 032c 97000000 		call	_Z9putStringPKc@plt
 477      E7800000 
 478              	.LVL59:
  26:src/../h/../h/my_console.h ****     putString("   ===========================");
 479              		.loc 2 26 5 is_stmt 1
  26:src/../h/../h/my_console.h ****     putString("   ===========================");
 480              		.loc 2 26 11 is_stmt 0
 481 0334 1305F003 		li	a0,63
 482 0338 97000000 		call	_Z6putInti@plt
 482      E7800000 
 483              	.LVL60:
  27:src/../h/../h/my_console.h ****     putNewline();
 484              		.loc 2 27 5 is_stmt 1
  27:src/../h/../h/my_console.h ****     putNewline();
GAS LISTING /tmp/ccINVHKA.s 			page 13


 485              		.loc 2 27 14 is_stmt 0
 486 0340 17050000 		lla	a0,.LC3
 486      13050500 
 487 0348 97000000 		call	_Z9putStringPKc@plt
 487      E7800000 
 488              	.LVL61:
  28:src/../h/../h/my_console.h **** 
 489              		.loc 2 28 5 is_stmt 1
  28:src/../h/../h/my_console.h **** 
 490              		.loc 2 28 15 is_stmt 0
 491 0350 97000000 		call	_Z10putNewlinev@plt
 491      E7800000 
 492              	.LVL62:
 493              		.loc 2 30 5 is_stmt 1
 494              		.loc 2 30 15 is_stmt 0
 495 0358 97000000 		call	_Z10stopKernelv@plt
 495      E7800000 
 496              	.LVL63:
 497              	.L41:
 498              	.LBE40:
 499              	.LBE41:
 500              	.LBB42:
  68:src/alloc.cpp **** 
  69:src/alloc.cpp ****     while(pCur != nullptr)
  70:src/alloc.cpp ****     {
  71:src/alloc.cpp ****         assert(((uint64) pCur->base) % MEM_BLOCK_SIZE == 0 &&
 501              		.loc 1 71 9
 502 0360 93070000 		li	a5,0
 503              	.L29:
 504              	.LVL64:
 505              	.LBB43:
 506              	.LBB44:
  20:src/../h/../h/my_console.h ****         return;
 507              		.loc 2 20 5 is_stmt 1 discriminator 6
 508 0364 63840708 		beqz	a5,.L48
  21:src/../h/../h/my_console.h **** 
 509              		.loc 2 21 9 discriminator 6
 510              	.LVL65:
 511              	.LBE44:
 512              	.LBE43:
  72:src/alloc.cpp ****                pCur->size % MEM_BLOCK_SIZE == 0); // check for alignment errors
  73:src/alloc.cpp ****         assert(((uint64)pCur) % MEM_BLOCK_SIZE == 0);
 513              		.loc 1 73 9 discriminator 6
 514 0368 93F7F403 		andi	a5,s1,63
 515 036c 93BB1700 		seqz	s7,a5
 516              	.LVL66:
 517              	.LBB46:
 518              	.LBB47:
  20:src/../h/../h/my_console.h ****         return;
 519              		.loc 2 20 5 discriminator 6
 520 0370 639C070C 		bnez	a5,.L49
  21:src/../h/../h/my_console.h **** 
 521              		.loc 2 21 9 discriminator 6
 522              	.LVL67:
 523              	.LBE47:
 524              	.LBE46:
  74:src/alloc.cpp **** 
GAS LISTING /tmp/ccINVHKA.s 			page 14


  75:src/alloc.cpp ****         FreeNode *newFree;
 525              		.loc 1 75 9 discriminator 6
  76:src/alloc.cpp ****         newFree = (FreeNode *) alignForward((uint64) (pCur->base + usableSize), MEM_BLOCK_SIZE);
 526              		.loc 1 76 9 discriminator 6
 527              		.loc 1 76 61 is_stmt 0 discriminator 6
 528 0374 03B50401 		ld	a0,16(s1)
 529              		.loc 1 76 44 discriminator 6
 530 0378 93050004 		li	a1,64
 531 037c 33054501 		add	a0,a0,s4
 532 0380 97000000 		call	_Z12alignForwardmm
 532      E7800000 
 533              	.LVL68:
 534 0388 13090500 		mv	s2,a0
 535              		.loc 1 76 17 discriminator 6
 536 038c 930A0500 		mv	s5,a0
 537              	.LVL69:
  77:src/alloc.cpp ****         newFree->base = (char*)alignForward((uint64)newFree + MAX_NODE_SIZE, MEM_BLOCK_SIZE);
 538              		.loc 1 77 9 is_stmt 1 discriminator 6
 539              		.loc 1 77 63 is_stmt 0 discriminator 6
 540 0390 03B50901 		ld	a0,16(s3)
 541              	.LVL70:
 542              		.loc 1 77 44 discriminator 6
 543 0394 93050004 		li	a1,64
 544 0398 33052501 		add	a0,a0,s2
 545 039c 97000000 		call	_Z12alignForwardmm
 545      E7800000 
 546              	.LVL71:
 547              		.loc 1 77 23 discriminator 6
 548 03a4 2338A900 		sd	a0,16(s2)
  78:src/alloc.cpp ****         if (pCur->base + pCur->size > newFree->base)
 549              		.loc 1 78 9 is_stmt 1 discriminator 6
 550              	.LBB49:
 551              		.loc 1 78 19 is_stmt 0 discriminator 6
 552 03a8 83B70401 		ld	a5,16(s1)
 553              		.loc 1 78 32 discriminator 6
 554 03ac 03B78400 		ld	a4,8(s1)
 555              		.loc 1 78 24 discriminator 6
 556 03b0 B387E700 		add	a5,a5,a4
 557              		.loc 1 78 9 discriminator 6
 558 03b4 6368F50E 		bltu	a0,a5,.L50
 559              	.LBE49:
  79:src/alloc.cpp ****         {
  80:src/alloc.cpp ****             // success: memory block found
  81:src/alloc.cpp **** 
  82:src/alloc.cpp ****             newFree->size = pCur->base + pCur->size - newFree->base;
  83:src/alloc.cpp ****             assert(newFree->size % MEM_BLOCK_SIZE == 0 && (uint64)newFree->base % MEM_BLOCK_SIZE ==
  84:src/alloc.cpp ****                    ((uint64) newFree) % MEM_BLOCK_SIZE == 0);
  85:src/alloc.cpp **** 
  86:src/alloc.cpp ****             newFree->pNext = pCur->pNext; // replace pCur with the new one
  87:src/alloc.cpp **** 
  88:src/alloc.cpp ****             if(pPrev) // ???
  89:src/alloc.cpp ****                 pPrev->pNext = newFree;
  90:src/alloc.cpp ****             else
  91:src/alloc.cpp ****             {
  92:src/alloc.cpp ****                 assert(pCur == pFreeHead);
  93:src/alloc.cpp ****                 pFreeHead = newFree;
  94:src/alloc.cpp ****             }
GAS LISTING /tmp/ccINVHKA.s 			page 15


  95:src/alloc.cpp **** 
  96:src/alloc.cpp ****             TakenNode* newTaken = (TakenNode*)pCur;
  97:src/alloc.cpp ****             newTaken->pNext = pTakenHead;
  98:src/alloc.cpp ****             newTaken->base = pCur->base;
  99:src/alloc.cpp ****             newTaken->size = usableSize;
 100:src/alloc.cpp ****             newTaken->pNext = pTakenHead;
 101:src/alloc.cpp ****             pTakenHead = newTaken;
 102:src/alloc.cpp **** 
 103:src/alloc.cpp ****             void *ret = newTaken->base;
 104:src/alloc.cpp ****             return ret;
 105:src/alloc.cpp ****         }
 106:src/alloc.cpp **** 
 107:src/alloc.cpp ****         pPrev = pCur;
 560              		.loc 1 107 9 is_stmt 1
 561              	.LVL72:
 108:src/alloc.cpp ****         pCur = pCur->pNext;
 562              		.loc 1 108 9
 107:src/alloc.cpp ****         pCur = pCur->pNext;
 563              		.loc 1 107 15 is_stmt 0
 564 03b8 138B0400 		mv	s6,s1
 565              		.loc 1 108 14
 566 03bc 83B40400 		ld	s1,0(s1)
 567              	.LVL73:
 568              	.L38:
 569              	.LBE42:
  69:src/alloc.cpp ****     {
 570              		.loc 1 69 5 is_stmt 1
  69:src/alloc.cpp ****     {
 571              		.loc 1 69 16
 572 03c0 63800424 		beqz	s1,.L28
 573              	.LBB64:
  71:src/alloc.cpp ****                pCur->size % MEM_BLOCK_SIZE == 0); // check for alignment errors
 574              		.loc 1 71 9
 575 03c4 83B70401 		ld	a5,16(s1)
 576 03c8 93F7F703 		andi	a5,a5,63
 577 03cc E39A07F8 		bnez	a5,.L41
  71:src/alloc.cpp ****                pCur->size % MEM_BLOCK_SIZE == 0); // check for alignment errors
 578              		.loc 1 71 9 is_stmt 0 discriminator 1
 579 03d0 83B78400 		ld	a5,8(s1)
 580 03d4 93F7F703 		andi	a5,a5,63
 581 03d8 63860700 		beqz	a5,.L42
  71:src/alloc.cpp ****                pCur->size % MEM_BLOCK_SIZE == 0); // check for alignment errors
 582              		.loc 1 71 9
 583 03dc 93070000 		li	a5,0
 584 03e0 6FF05FF8 		j	.L29
 585              	.L42:
 586 03e4 93070C00 		mv	a5,s8
 587 03e8 6FF0DFF7 		j	.L29
 588              	.LVL74:
 589              	.L48:
 590              	.LBB60:
 591              	.LBB45:
  23:src/../h/../h/my_console.h ****     putString(file);
 592              		.loc 2 23 5 is_stmt 1
  23:src/../h/../h/my_console.h ****     putString(file);
 593              		.loc 2 23 14 is_stmt 0
 594 03ec 17050000 		lla	a0,.LC0
GAS LISTING /tmp/ccINVHKA.s 			page 16


 594      13050500 
 595 03f4 97000000 		call	_Z9putStringPKc@plt
 595      E7800000 
 596              	.LVL75:
  24:src/../h/../h/my_console.h ****     putString("    line: ");
 597              		.loc 2 24 5 is_stmt 1
  24:src/../h/../h/my_console.h ****     putString("    line: ");
 598              		.loc 2 24 14 is_stmt 0
 599 03fc 17050000 		lla	a0,.LC1
 599      13050500 
 600 0404 97000000 		call	_Z9putStringPKc@plt
 600      E7800000 
 601              	.LVL76:
  25:src/../h/../h/my_console.h ****     putInt(line);
 602              		.loc 2 25 5 is_stmt 1
  25:src/../h/../h/my_console.h ****     putInt(line);
 603              		.loc 2 25 14 is_stmt 0
 604 040c 17050000 		lla	a0,.LC2
 604      13050500 
 605 0414 97000000 		call	_Z9putStringPKc@plt
 605      E7800000 
 606              	.LVL77:
  26:src/../h/../h/my_console.h ****     putString("   ===========================");
 607              		.loc 2 26 5 is_stmt 1
  26:src/../h/../h/my_console.h ****     putString("   ===========================");
 608              		.loc 2 26 11 is_stmt 0
 609 041c 13057004 		li	a0,71
 610 0420 97000000 		call	_Z6putInti@plt
 610      E7800000 
 611              	.LVL78:
  27:src/../h/../h/my_console.h ****     putNewline();
 612              		.loc 2 27 5 is_stmt 1
  27:src/../h/../h/my_console.h ****     putNewline();
 613              		.loc 2 27 14 is_stmt 0
 614 0428 17050000 		lla	a0,.LC3
 614      13050500 
 615 0430 97000000 		call	_Z9putStringPKc@plt
 615      E7800000 
 616              	.LVL79:
  28:src/../h/../h/my_console.h **** 
 617              		.loc 2 28 5 is_stmt 1
  28:src/../h/../h/my_console.h **** 
 618              		.loc 2 28 15 is_stmt 0
 619 0438 97000000 		call	_Z10putNewlinev@plt
 619      E7800000 
 620              	.LVL80:
 621              		.loc 2 30 5 is_stmt 1
 622              		.loc 2 30 15 is_stmt 0
 623 0440 97000000 		call	_Z10stopKernelv@plt
 623      E7800000 
 624              	.LVL81:
 625              	.L49:
 626              	.LBE45:
 627              	.LBE60:
 628              	.LBB61:
 629              	.LBB48:
  23:src/../h/../h/my_console.h ****     putString(file);
GAS LISTING /tmp/ccINVHKA.s 			page 17


 630              		.loc 2 23 5 is_stmt 1
  23:src/../h/../h/my_console.h ****     putString(file);
 631              		.loc 2 23 14 is_stmt 0
 632 0448 17050000 		lla	a0,.LC0
 632      13050500 
 633 0450 97000000 		call	_Z9putStringPKc@plt
 633      E7800000 
 634              	.LVL82:
  24:src/../h/../h/my_console.h ****     putString("    line: ");
 635              		.loc 2 24 5 is_stmt 1
  24:src/../h/../h/my_console.h ****     putString("    line: ");
 636              		.loc 2 24 14 is_stmt 0
 637 0458 17050000 		lla	a0,.LC1
 637      13050500 
 638 0460 97000000 		call	_Z9putStringPKc@plt
 638      E7800000 
 639              	.LVL83:
  25:src/../h/../h/my_console.h ****     putInt(line);
 640              		.loc 2 25 5 is_stmt 1
  25:src/../h/../h/my_console.h ****     putInt(line);
 641              		.loc 2 25 14 is_stmt 0
 642 0468 17050000 		lla	a0,.LC2
 642      13050500 
 643 0470 97000000 		call	_Z9putStringPKc@plt
 643      E7800000 
 644              	.LVL84:
  26:src/../h/../h/my_console.h ****     putString("   ===========================");
 645              		.loc 2 26 5 is_stmt 1
  26:src/../h/../h/my_console.h ****     putString("   ===========================");
 646              		.loc 2 26 11 is_stmt 0
 647 0478 13059004 		li	a0,73
 648 047c 97000000 		call	_Z6putInti@plt
 648      E7800000 
 649              	.LVL85:
  27:src/../h/../h/my_console.h ****     putNewline();
 650              		.loc 2 27 5 is_stmt 1
  27:src/../h/../h/my_console.h ****     putNewline();
 651              		.loc 2 27 14 is_stmt 0
 652 0484 17050000 		lla	a0,.LC3
 652      13050500 
 653 048c 97000000 		call	_Z9putStringPKc@plt
 653      E7800000 
 654              	.LVL86:
  28:src/../h/../h/my_console.h **** 
 655              		.loc 2 28 5 is_stmt 1
  28:src/../h/../h/my_console.h **** 
 656              		.loc 2 28 15 is_stmt 0
 657 0494 97000000 		call	_Z10putNewlinev@plt
 657      E7800000 
 658              	.LVL87:
 659              		.loc 2 30 5 is_stmt 1
 660              		.loc 2 30 15 is_stmt 0
 661 049c 97000000 		call	_Z10stopKernelv@plt
 661      E7800000 
 662              	.LVL88:
 663              	.L50:
 664              	.LBE48:
GAS LISTING /tmp/ccINVHKA.s 			page 18


 665              	.LBE61:
 666              	.LBB62:
 667              	.LBB50:
  82:src/alloc.cpp ****             assert(newFree->size % MEM_BLOCK_SIZE == 0 && (uint64)newFree->base % MEM_BLOCK_SIZE ==
 668              		.loc 1 82 13 is_stmt 1
  82:src/alloc.cpp ****             assert(newFree->size % MEM_BLOCK_SIZE == 0 && (uint64)newFree->base % MEM_BLOCK_SIZE ==
 669              		.loc 1 82 53 is_stmt 0
 670 04a4 B387A740 		sub	a5,a5,a0
  82:src/alloc.cpp ****             assert(newFree->size % MEM_BLOCK_SIZE == 0 && (uint64)newFree->base % MEM_BLOCK_SIZE ==
 671              		.loc 1 82 27
 672 04a8 2334F900 		sd	a5,8(s2)
  83:src/alloc.cpp ****                    ((uint64) newFree) % MEM_BLOCK_SIZE == 0);
 673              		.loc 1 83 13 is_stmt 1
 674 04ac 93F7F703 		andi	a5,a5,63
 675 04b0 639E0700 		bnez	a5,.L43
  83:src/alloc.cpp ****                    ((uint64) newFree) % MEM_BLOCK_SIZE == 0);
 676              		.loc 1 83 13 is_stmt 0 discriminator 1
 677 04b4 9377F503 		andi	a5,a0,63
 678 04b8 639C0706 		bnez	a5,.L44
  83:src/alloc.cpp ****                    ((uint64) newFree) % MEM_BLOCK_SIZE == 0);
 679              		.loc 1 83 13 discriminator 3
 680 04bc 1379F903 		andi	s2,s2,63
 681              	.LVL89:
 682 04c0 63080900 		beqz	s2,.L33
  83:src/alloc.cpp ****                    ((uint64) newFree) % MEM_BLOCK_SIZE == 0);
 683              		.loc 1 83 13
 684 04c4 930B0000 		li	s7,0
 685 04c8 6F008000 		j	.L33
 686              	.LVL90:
 687              	.L43:
 688 04cc 930B0000 		li	s7,0
 689              	.LVL91:
 690              	.L33:
 691              	.LBB51:
 692              	.LBB52:
  20:src/../h/../h/my_console.h ****         return;
 693              		.loc 2 20 5 is_stmt 1 discriminator 8
 694 04d0 63840B06 		beqz	s7,.L51
  21:src/../h/../h/my_console.h **** 
 695              		.loc 2 21 9 discriminator 8
 696              	.LVL92:
 697              	.LBE52:
 698              	.LBE51:
  86:src/alloc.cpp **** 
 699              		.loc 1 86 13 discriminator 8
  86:src/alloc.cpp **** 
 700              		.loc 1 86 36 is_stmt 0 discriminator 8
 701 04d4 83B70400 		ld	a5,0(s1)
  86:src/alloc.cpp **** 
 702              		.loc 1 86 28 discriminator 8
 703 04d8 23B0FA00 		sd	a5,0(s5)
  88:src/alloc.cpp ****                 pPrev->pNext = newFree;
 704              		.loc 1 88 13 is_stmt 1 discriminator 8
 705 04dc 630C0B0A 		beqz	s6,.L35
  89:src/alloc.cpp ****             else
 706              		.loc 1 89 17
  89:src/alloc.cpp ****             else
GAS LISTING /tmp/ccINVHKA.s 			page 19


 707              		.loc 1 89 30 is_stmt 0
 708 04e0 23305B01 		sd	s5,0(s6)
 709              	.L36:
  96:src/alloc.cpp ****             newTaken->pNext = pTakenHead;
 710              		.loc 1 96 13 is_stmt 1
 711              	.LVL93:
  97:src/alloc.cpp ****             newTaken->base = pCur->base;
 712              		.loc 1 97 13
  97:src/alloc.cpp ****             newTaken->base = pCur->base;
 713              		.loc 1 97 31 is_stmt 0
 714 04e4 83B78900 		ld	a5,8(s3)
  97:src/alloc.cpp ****             newTaken->base = pCur->base;
 715              		.loc 1 97 29
 716 04e8 23B0F400 		sd	a5,0(s1)
  98:src/alloc.cpp ****             newTaken->size = usableSize;
 717              		.loc 1 98 13 is_stmt 1
  99:src/alloc.cpp ****             newTaken->pNext = pTakenHead;
 718              		.loc 1 99 13
  99:src/alloc.cpp ****             newTaken->pNext = pTakenHead;
 719              		.loc 1 99 28 is_stmt 0
 720 04ec 23B44401 		sd	s4,8(s1)
 100:src/alloc.cpp ****             pTakenHead = newTaken;
 721              		.loc 1 100 13 is_stmt 1
 100:src/alloc.cpp ****             pTakenHead = newTaken;
 722              		.loc 1 100 31 is_stmt 0
 723 04f0 83B78900 		ld	a5,8(s3)
 100:src/alloc.cpp ****             pTakenHead = newTaken;
 724              		.loc 1 100 29
 725 04f4 23B0F400 		sd	a5,0(s1)
 101:src/alloc.cpp **** 
 726              		.loc 1 101 13 is_stmt 1
 101:src/alloc.cpp **** 
 727              		.loc 1 101 24 is_stmt 0
 728 04f8 23B49900 		sd	s1,8(s3)
 103:src/alloc.cpp ****             return ret;
 729              		.loc 1 103 13 is_stmt 1
 103:src/alloc.cpp ****             return ret;
 730              		.loc 1 103 19 is_stmt 0
 731 04fc 03B50401 		ld	a0,16(s1)
 732              	.LVL94:
 104:src/alloc.cpp ****         }
 733              		.loc 1 104 13 is_stmt 1
 734              	.LBE50:
 735              	.LBE62:
 736              	.LBE64:
 109:src/alloc.cpp ****     }
 110:src/alloc.cpp **** 
 111:src/alloc.cpp ****     assert(false); // there is no slot large enough
 112:src/alloc.cpp ****     return nullptr;
 113:src/alloc.cpp **** }
 737              		.loc 1 113 1 is_stmt 0
 738 0500 83308104 		ld	ra,72(sp)
 739              		.cfi_remember_state
 740              		.cfi_restore 1
 741 0504 03340104 		ld	s0,64(sp)
 742              		.cfi_restore 8
 743              		.cfi_def_cfa 2, 80
GAS LISTING /tmp/ccINVHKA.s 			page 20


 744 0508 83348103 		ld	s1,56(sp)
 745              		.cfi_restore 9
 746              	.LVL95:
 747 050c 03390103 		ld	s2,48(sp)
 748              		.cfi_restore 18
 749 0510 83398102 		ld	s3,40(sp)
 750              		.cfi_restore 19
 751              	.LVL96:
 752 0514 033A0102 		ld	s4,32(sp)
 753              		.cfi_restore 20
 754              	.LVL97:
 755 0518 833A8101 		ld	s5,24(sp)
 756              		.cfi_restore 21
 757              	.LVL98:
 758 051c 033B0101 		ld	s6,16(sp)
 759              		.cfi_restore 22
 760              	.LVL99:
 761 0520 833B8100 		ld	s7,8(sp)
 762              		.cfi_restore 23
 763 0524 033C0100 		ld	s8,0(sp)
 764              		.cfi_restore 24
 765 0528 13010105 		addi	sp,sp,80
 766              		.cfi_def_cfa_offset 0
 767 052c 67800000 		jr	ra
 768              	.LVL100:
 769              	.L44:
 770              		.cfi_restore_state
 771              	.LBB65:
 772              	.LBB63:
 773              	.LBB59:
  83:src/alloc.cpp ****                    ((uint64) newFree) % MEM_BLOCK_SIZE == 0);
 774              		.loc 1 83 13
 775 0530 930B0000 		li	s7,0
 776 0534 6FF0DFF9 		j	.L33
 777              	.LVL101:
 778              	.L51:
 779              	.LBB54:
 780              	.LBB53:
  23:src/../h/../h/my_console.h ****     putString(file);
 781              		.loc 2 23 5 is_stmt 1
  23:src/../h/../h/my_console.h ****     putString(file);
 782              		.loc 2 23 14 is_stmt 0
 783 0538 17050000 		lla	a0,.LC0
 783      13050500 
 784 0540 97000000 		call	_Z9putStringPKc@plt
 784      E7800000 
 785              	.LVL102:
  24:src/../h/../h/my_console.h ****     putString("    line: ");
 786              		.loc 2 24 5 is_stmt 1
  24:src/../h/../h/my_console.h ****     putString("    line: ");
 787              		.loc 2 24 14 is_stmt 0
 788 0548 17050000 		lla	a0,.LC1
 788      13050500 
 789 0550 97000000 		call	_Z9putStringPKc@plt
 789      E7800000 
 790              	.LVL103:
  25:src/../h/../h/my_console.h ****     putInt(line);
GAS LISTING /tmp/ccINVHKA.s 			page 21


 791              		.loc 2 25 5 is_stmt 1
  25:src/../h/../h/my_console.h ****     putInt(line);
 792              		.loc 2 25 14 is_stmt 0
 793 0558 17050000 		lla	a0,.LC2
 793      13050500 
 794 0560 97000000 		call	_Z9putStringPKc@plt
 794      E7800000 
 795              	.LVL104:
  26:src/../h/../h/my_console.h ****     putString("   ===========================");
 796              		.loc 2 26 5 is_stmt 1
  26:src/../h/../h/my_console.h ****     putString("   ===========================");
 797              		.loc 2 26 11 is_stmt 0
 798 0568 13053005 		li	a0,83
 799 056c 97000000 		call	_Z6putInti@plt
 799      E7800000 
 800              	.LVL105:
  27:src/../h/../h/my_console.h ****     putNewline();
 801              		.loc 2 27 5 is_stmt 1
  27:src/../h/../h/my_console.h ****     putNewline();
 802              		.loc 2 27 14 is_stmt 0
 803 0574 17050000 		lla	a0,.LC3
 803      13050500 
 804 057c 97000000 		call	_Z9putStringPKc@plt
 804      E7800000 
 805              	.LVL106:
  28:src/../h/../h/my_console.h **** 
 806              		.loc 2 28 5 is_stmt 1
  28:src/../h/../h/my_console.h **** 
 807              		.loc 2 28 15 is_stmt 0
 808 0584 97000000 		call	_Z10putNewlinev@plt
 808      E7800000 
 809              	.LVL107:
 810              		.loc 2 30 5 is_stmt 1
 811              		.loc 2 30 15 is_stmt 0
 812 058c 97000000 		call	_Z10stopKernelv@plt
 812      E7800000 
 813              	.LVL108:
 814              	.L35:
 815              	.LBE53:
 816              	.LBE54:
  92:src/alloc.cpp ****                 pFreeHead = newFree;
 817              		.loc 1 92 17 is_stmt 1
 818 0594 83B70900 		ld	a5,0(s3)
 819              	.LVL109:
 820              	.LBB55:
 821              	.LBB56:
  20:src/../h/../h/my_console.h ****         return;
 822              		.loc 2 20 5
 823 0598 63969700 		bne	a5,s1,.L52
  21:src/../h/../h/my_console.h **** 
 824              		.loc 2 21 9
 825              	.LVL110:
 826              	.LBE56:
 827              	.LBE55:
  93:src/alloc.cpp ****             }
 828              		.loc 1 93 17
  93:src/alloc.cpp ****             }
GAS LISTING /tmp/ccINVHKA.s 			page 22


 829              		.loc 1 93 27 is_stmt 0
 830 059c 23B05901 		sd	s5,0(s3)
 831 05a0 6FF05FF4 		j	.L36
 832              	.LVL111:
 833              	.L52:
 834              	.LBB58:
 835              	.LBB57:
  23:src/../h/../h/my_console.h ****     putString(file);
 836              		.loc 2 23 5 is_stmt 1
  23:src/../h/../h/my_console.h ****     putString(file);
 837              		.loc 2 23 14 is_stmt 0
 838 05a4 17050000 		lla	a0,.LC0
 838      13050500 
 839 05ac 97000000 		call	_Z9putStringPKc@plt
 839      E7800000 
 840              	.LVL112:
  24:src/../h/../h/my_console.h ****     putString("    line: ");
 841              		.loc 2 24 5 is_stmt 1
  24:src/../h/../h/my_console.h ****     putString("    line: ");
 842              		.loc 2 24 14 is_stmt 0
 843 05b4 17050000 		lla	a0,.LC1
 843      13050500 
 844 05bc 97000000 		call	_Z9putStringPKc@plt
 844      E7800000 
 845              	.LVL113:
  25:src/../h/../h/my_console.h ****     putInt(line);
 846              		.loc 2 25 5 is_stmt 1
  25:src/../h/../h/my_console.h ****     putInt(line);
 847              		.loc 2 25 14 is_stmt 0
 848 05c4 17050000 		lla	a0,.LC2
 848      13050500 
 849 05cc 97000000 		call	_Z9putStringPKc@plt
 849      E7800000 
 850              	.LVL114:
  26:src/../h/../h/my_console.h ****     putString("   ===========================");
 851              		.loc 2 26 5 is_stmt 1
  26:src/../h/../h/my_console.h ****     putString("   ===========================");
 852              		.loc 2 26 11 is_stmt 0
 853 05d4 1305C005 		li	a0,92
 854 05d8 97000000 		call	_Z6putInti@plt
 854      E7800000 
 855              	.LVL115:
  27:src/../h/../h/my_console.h ****     putNewline();
 856              		.loc 2 27 5 is_stmt 1
  27:src/../h/../h/my_console.h ****     putNewline();
 857              		.loc 2 27 14 is_stmt 0
 858 05e0 17050000 		lla	a0,.LC3
 858      13050500 
 859 05e8 97000000 		call	_Z9putStringPKc@plt
 859      E7800000 
 860              	.LVL116:
  28:src/../h/../h/my_console.h **** 
 861              		.loc 2 28 5 is_stmt 1
  28:src/../h/../h/my_console.h **** 
 862              		.loc 2 28 15 is_stmt 0
 863 05f0 97000000 		call	_Z10putNewlinev@plt
 863      E7800000 
GAS LISTING /tmp/ccINVHKA.s 			page 23


 864              	.LVL117:
 865              		.loc 2 30 5 is_stmt 1
 866              		.loc 2 30 15 is_stmt 0
 867 05f8 97000000 		call	_Z10stopKernelv@plt
 867      E7800000 
 868              	.LVL118:
 869              	.L28:
 870              	.LBE57:
 871              	.LBE58:
 872              	.LBE59:
 873              	.LBE63:
 874              	.LBE65:
 111:src/alloc.cpp ****     return nullptr;
 875              		.loc 1 111 5 is_stmt 1
 876              	.LBB66:
 877              	.LBB67:
  20:src/../h/../h/my_console.h ****         return;
 878              		.loc 2 20 5
  23:src/../h/../h/my_console.h ****     putString(file);
 879              		.loc 2 23 5
  23:src/../h/../h/my_console.h ****     putString(file);
 880              		.loc 2 23 14 is_stmt 0
 881 0600 17050000 		lla	a0,.LC0
 881      13050500 
 882 0608 97000000 		call	_Z9putStringPKc@plt
 882      E7800000 
 883              	.LVL119:
  24:src/../h/../h/my_console.h ****     putString("    line: ");
 884              		.loc 2 24 5 is_stmt 1
  24:src/../h/../h/my_console.h ****     putString("    line: ");
 885              		.loc 2 24 14 is_stmt 0
 886 0610 17050000 		lla	a0,.LC1
 886      13050500 
 887 0618 97000000 		call	_Z9putStringPKc@plt
 887      E7800000 
 888              	.LVL120:
  25:src/../h/../h/my_console.h ****     putInt(line);
 889              		.loc 2 25 5 is_stmt 1
  25:src/../h/../h/my_console.h ****     putInt(line);
 890              		.loc 2 25 14 is_stmt 0
 891 0620 17050000 		lla	a0,.LC2
 891      13050500 
 892 0628 97000000 		call	_Z9putStringPKc@plt
 892      E7800000 
 893              	.LVL121:
  26:src/../h/../h/my_console.h ****     putString("   ===========================");
 894              		.loc 2 26 5 is_stmt 1
  26:src/../h/../h/my_console.h ****     putString("   ===========================");
 895              		.loc 2 26 11 is_stmt 0
 896 0630 1305F006 		li	a0,111
 897 0634 97000000 		call	_Z6putInti@plt
 897      E7800000 
 898              	.LVL122:
  27:src/../h/../h/my_console.h ****     putNewline();
 899              		.loc 2 27 5 is_stmt 1
  27:src/../h/../h/my_console.h ****     putNewline();
 900              		.loc 2 27 14 is_stmt 0
GAS LISTING /tmp/ccINVHKA.s 			page 24


 901 063c 17050000 		lla	a0,.LC3
 901      13050500 
 902 0644 97000000 		call	_Z9putStringPKc@plt
 902      E7800000 
 903              	.LVL123:
  28:src/../h/../h/my_console.h **** 
 904              		.loc 2 28 5 is_stmt 1
  28:src/../h/../h/my_console.h **** 
 905              		.loc 2 28 15 is_stmt 0
 906 064c 97000000 		call	_Z10putNewlinev@plt
 906      E7800000 
 907              	.LVL124:
 908              		.loc 2 30 5 is_stmt 1
 909              		.loc 2 30 15 is_stmt 0
 910 0654 97000000 		call	_Z10stopKernelv@plt
 910      E7800000 
 911              	.LVL125:
 912              	.LBE67:
 913              	.LBE66:
 914              		.cfi_endproc
 915              	.LFE14:
 917              		.section	.rodata.str1.8
 918 0067 00       		.align	3
 919              	.LC4:
 920 0068 3D3D3D20 		.string	"=== Error: mem_free was maby given an incorrect adress?"
 920      4572726F 
 920      723A206D 
 920      656D5F66 
 920      72656520 
 921              		.text
 922              		.align	2
 923              		.globl	_ZN8MemAlloc7freeMemEPv
 925              	_ZN8MemAlloc7freeMemEPv:
 926              	.LFB15:
 114:src/alloc.cpp **** 
 115:src/alloc.cpp **** int MemAlloc::freeMem(void* p)
 116:src/alloc.cpp **** {
 927              		.loc 1 116 1 is_stmt 1
 928              		.cfi_startproc
 929              	.LVL126:
 930 065c 130101FD 		addi	sp,sp,-48
 931              		.cfi_def_cfa_offset 48
 932 0660 23341102 		sd	ra,40(sp)
 933 0664 23308102 		sd	s0,32(sp)
 934 0668 233C9100 		sd	s1,24(sp)
 935 066c 23382101 		sd	s2,16(sp)
 936 0670 23343101 		sd	s3,8(sp)
 937 0674 23304101 		sd	s4,0(sp)
 938              		.cfi_offset 1, -8
 939              		.cfi_offset 8, -16
 940              		.cfi_offset 9, -24
 941              		.cfi_offset 18, -32
 942              		.cfi_offset 19, -40
 943              		.cfi_offset 20, -48
 944 0678 13040103 		addi	s0,sp,48
 945              		.cfi_def_cfa 8, 0
 946 067c 13090500 		mv	s2,a0
GAS LISTING /tmp/ccINVHKA.s 			page 25


 947 0680 93890500 		mv	s3,a1
 117:src/alloc.cpp ****     TakenNode* pCur = pTakenHead;
 948              		.loc 1 117 5
 949              		.loc 1 117 16 is_stmt 0
 950 0684 83348500 		ld	s1,8(a0)
 951              	.LVL127:
 118:src/alloc.cpp ****     TakenNode* pPrev = nullptr;
 952              		.loc 1 118 5 is_stmt 1
 953              		.loc 1 118 16 is_stmt 0
 954 0688 130A0000 		li	s4,0
 955              	.LVL128:
 956              	.L60:
 119:src/alloc.cpp **** 
 120:src/alloc.cpp ****     while(pCur != nullptr)
 957              		.loc 1 120 5 is_stmt 1
 958              		.loc 1 120 16
 959 068c 63800416 		beqz	s1,.L54
 960              	.LBB77:
 121:src/alloc.cpp ****     {
 122:src/alloc.cpp ****         assert((char*)alignBackward((uint64)pCur->base - MAX_NODE_SIZE, MEM_BLOCK_SIZE) == (char*)p
 961              		.loc 1 122 9
 962 0690 03B50401 		ld	a0,16(s1)
 963 0694 83370901 		ld	a5,16(s2)
 964 0698 93050004 		li	a1,64
 965 069c 3305F540 		sub	a0,a0,a5
 966 06a0 97000000 		call	_Z13alignBackwardmm
 966      E7800000 
 967              	.LVL129:
 968              	.LBB78:
 969              	.LBB79:
  20:src/../h/../h/my_console.h ****         return;
 970              		.loc 2 20 5
 971 06a8 639CA400 		bne	s1,a0,.L63
  21:src/../h/../h/my_console.h **** 
 972              		.loc 2 21 9
 973              	.LVL130:
 974              	.LBE79:
 975              	.LBE78:
 123:src/alloc.cpp ****         if(pCur->base == p)
 976              		.loc 1 123 9
 977              	.LBB81:
 978              		.loc 1 123 18 is_stmt 0
 979 06ac 83B70401 		ld	a5,16(s1)
 980              		.loc 1 123 9
 981 06b0 63863707 		beq	a5,s3,.L64
 982              	.LBE81:
 124:src/alloc.cpp ****         {
 125:src/alloc.cpp ****             // sta ako ne postoji pPrev? sta ako ne postoji pNext->pNext?
 126:src/alloc.cpp ****             if(pPrev) // ???
 127:src/alloc.cpp ****                 pPrev->pNext = pCur->pNext; // "delete" current taken block from the linked list
 128:src/alloc.cpp ****             else
 129:src/alloc.cpp ****             {
 130:src/alloc.cpp ****                 assert(pCur == pTakenHead);
 131:src/alloc.cpp ****                 pTakenHead = pCur->pNext;
 132:src/alloc.cpp ****             }
 133:src/alloc.cpp **** 
 134:src/alloc.cpp ****             FreeNode* newFree = (FreeNode*)alignBackward(((uint64)p) - MAX_NODE_SIZE, MEM_BLOCK_SIZ
GAS LISTING /tmp/ccINVHKA.s 			page 26


 135:src/alloc.cpp ****             newFree->size = pCur->size;
 136:src/alloc.cpp ****             newFree->base = pCur->base;
 137:src/alloc.cpp ****             newFree->pNext = pFreeHead;
 138:src/alloc.cpp ****             pFreeHead = newFree;
 139:src/alloc.cpp **** 
 140:src/alloc.cpp ****             return 0; // zero signifies sucesss
 141:src/alloc.cpp ****         }
 142:src/alloc.cpp **** 
 143:src/alloc.cpp ****         pPrev = pCur;
 983              		.loc 1 143 9 is_stmt 1
 984              	.LVL131:
 144:src/alloc.cpp ****         pCur = pCur->pNext;
 985              		.loc 1 144 9
 143:src/alloc.cpp ****         pCur = pCur->pNext;
 986              		.loc 1 143 15 is_stmt 0
 987 06b4 138A0400 		mv	s4,s1
 988              		.loc 1 144 14
 989 06b8 83B40400 		ld	s1,0(s1)
 990              	.LVL132:
 991              	.LBE77:
 120:src/alloc.cpp ****     {
 992              		.loc 1 120 5
 993 06bc 6FF01FFD 		j	.L60
 994              	.LVL133:
 995              	.L63:
 996              	.LBB91:
 997              	.LBB88:
 998              	.LBB80:
  23:src/../h/../h/my_console.h ****     putString(file);
 999              		.loc 2 23 5 is_stmt 1
  23:src/../h/../h/my_console.h ****     putString(file);
 1000              		.loc 2 23 14 is_stmt 0
 1001 06c0 17050000 		lla	a0,.LC0
 1001      13050500 
 1002              	.LVL134:
 1003 06c8 97000000 		call	_Z9putStringPKc@plt
 1003      E7800000 
 1004              	.LVL135:
  24:src/../h/../h/my_console.h ****     putString("    line: ");
 1005              		.loc 2 24 5 is_stmt 1
  24:src/../h/../h/my_console.h ****     putString("    line: ");
 1006              		.loc 2 24 14 is_stmt 0
 1007 06d0 17050000 		lla	a0,.LC1
 1007      13050500 
 1008 06d8 97000000 		call	_Z9putStringPKc@plt
 1008      E7800000 
 1009              	.LVL136:
  25:src/../h/../h/my_console.h ****     putInt(line);
 1010              		.loc 2 25 5 is_stmt 1
  25:src/../h/../h/my_console.h ****     putInt(line);
 1011              		.loc 2 25 14 is_stmt 0
 1012 06e0 17050000 		lla	a0,.LC2
 1012      13050500 
 1013 06e8 97000000 		call	_Z9putStringPKc@plt
 1013      E7800000 
 1014              	.LVL137:
  26:src/../h/../h/my_console.h ****     putString("   ===========================");
GAS LISTING /tmp/ccINVHKA.s 			page 27


 1015              		.loc 2 26 5 is_stmt 1
  26:src/../h/../h/my_console.h ****     putString("   ===========================");
 1016              		.loc 2 26 11 is_stmt 0
 1017 06f0 1305A007 		li	a0,122
 1018 06f4 97000000 		call	_Z6putInti@plt
 1018      E7800000 
 1019              	.LVL138:
  27:src/../h/../h/my_console.h ****     putNewline();
 1020              		.loc 2 27 5 is_stmt 1
  27:src/../h/../h/my_console.h ****     putNewline();
 1021              		.loc 2 27 14 is_stmt 0
 1022 06fc 17050000 		lla	a0,.LC3
 1022      13050500 
 1023 0704 97000000 		call	_Z9putStringPKc@plt
 1023      E7800000 
 1024              	.LVL139:
  28:src/../h/../h/my_console.h **** 
 1025              		.loc 2 28 5 is_stmt 1
  28:src/../h/../h/my_console.h **** 
 1026              		.loc 2 28 15 is_stmt 0
 1027 070c 97000000 		call	_Z10putNewlinev@plt
 1027      E7800000 
 1028              	.LVL140:
 1029              		.loc 2 30 5 is_stmt 1
 1030              		.loc 2 30 15 is_stmt 0
 1031 0714 97000000 		call	_Z10stopKernelv@plt
 1031      E7800000 
 1032              	.LVL141:
 1033              	.L64:
 1034              	.LBE80:
 1035              	.LBE88:
 1036              	.LBB89:
 1037              	.LBB82:
 126:src/alloc.cpp ****                 pPrev->pNext = pCur->pNext; // "delete" current taken block from the linked list
 1038              		.loc 1 126 13 is_stmt 1
 1039 071c 63000A06 		beqz	s4,.L57
 127:src/alloc.cpp ****             else
 1040              		.loc 1 127 17
 127:src/alloc.cpp ****             else
 1041              		.loc 1 127 38 is_stmt 0
 1042 0720 83B70400 		ld	a5,0(s1)
 127:src/alloc.cpp ****             else
 1043              		.loc 1 127 30
 1044 0724 2330FA00 		sd	a5,0(s4)
 1045              	.L58:
 134:src/alloc.cpp ****             newFree->size = pCur->size;
 1046              		.loc 1 134 13 is_stmt 1
 134:src/alloc.cpp ****             newFree->size = pCur->size;
 1047              		.loc 1 134 72 is_stmt 0
 1048 0728 03350901 		ld	a0,16(s2)
 134:src/alloc.cpp ****             newFree->size = pCur->size;
 1049              		.loc 1 134 57
 1050 072c 93050004 		li	a1,64
 1051 0730 3385A940 		sub	a0,s3,a0
 1052 0734 97000000 		call	_Z13alignBackwardmm
 1052      E7800000 
 1053              	.LVL142:
GAS LISTING /tmp/ccINVHKA.s 			page 28


 135:src/alloc.cpp ****             newFree->base = pCur->base;
 1054              		.loc 1 135 13 is_stmt 1
 135:src/alloc.cpp ****             newFree->base = pCur->base;
 1055              		.loc 1 135 35 is_stmt 0
 1056 073c 83B78400 		ld	a5,8(s1)
 135:src/alloc.cpp ****             newFree->base = pCur->base;
 1057              		.loc 1 135 27
 1058 0740 2334F500 		sd	a5,8(a0)
 136:src/alloc.cpp ****             newFree->pNext = pFreeHead;
 1059              		.loc 1 136 13 is_stmt 1
 136:src/alloc.cpp ****             newFree->pNext = pFreeHead;
 1060              		.loc 1 136 35 is_stmt 0
 1061 0744 83B70401 		ld	a5,16(s1)
 136:src/alloc.cpp ****             newFree->pNext = pFreeHead;
 1062              		.loc 1 136 27
 1063 0748 2338F500 		sd	a5,16(a0)
 137:src/alloc.cpp ****             pFreeHead = newFree;
 1064              		.loc 1 137 13 is_stmt 1
 137:src/alloc.cpp ****             pFreeHead = newFree;
 1065              		.loc 1 137 30 is_stmt 0
 1066 074c 83370900 		ld	a5,0(s2)
 137:src/alloc.cpp ****             pFreeHead = newFree;
 1067              		.loc 1 137 28
 1068 0750 2330F500 		sd	a5,0(a0)
 138:src/alloc.cpp **** 
 1069              		.loc 1 138 13 is_stmt 1
 138:src/alloc.cpp **** 
 1070              		.loc 1 138 23 is_stmt 0
 1071 0754 2330A900 		sd	a0,0(s2)
 140:src/alloc.cpp ****         }
 1072              		.loc 1 140 13 is_stmt 1
 1073              	.LBE82:
 1074              	.LBE89:
 1075              	.LBE91:
 145:src/alloc.cpp ****     }
 146:src/alloc.cpp **** 
 147:src/alloc.cpp ****     putString("=== Error: mem_free was maby given an incorrect adress?");
 148:src/alloc.cpp ****     putNewline();
 149:src/alloc.cpp ****     assert(false); // temp
 150:src/alloc.cpp ****     return -1; // negative values signify failure
 151:src/alloc.cpp **** }
 1076              		.loc 1 151 1 is_stmt 0
 1077 0758 13050000 		li	a0,0
 1078              	.LVL143:
 1079 075c 83308102 		ld	ra,40(sp)
 1080              		.cfi_remember_state
 1081              		.cfi_restore 1
 1082 0760 03340102 		ld	s0,32(sp)
 1083              		.cfi_restore 8
 1084              		.cfi_def_cfa 2, 48
 1085 0764 83348101 		ld	s1,24(sp)
 1086              		.cfi_restore 9
 1087              	.LVL144:
 1088 0768 03390101 		ld	s2,16(sp)
 1089              		.cfi_restore 18
 1090              	.LVL145:
 1091 076c 83398100 		ld	s3,8(sp)
GAS LISTING /tmp/ccINVHKA.s 			page 29


 1092              		.cfi_restore 19
 1093              	.LVL146:
 1094 0770 033A0100 		ld	s4,0(sp)
 1095              		.cfi_restore 20
 1096              	.LVL147:
 1097 0774 13010103 		addi	sp,sp,48
 1098              		.cfi_def_cfa_offset 0
 1099 0778 67800000 		jr	ra
 1100              	.LVL148:
 1101              	.L57:
 1102              		.cfi_restore_state
 1103              	.LBB92:
 1104              	.LBB90:
 1105              	.LBB87:
 130:src/alloc.cpp ****                 pTakenHead = pCur->pNext;
 1106              		.loc 1 130 17 is_stmt 1
 1107 077c 83378900 		ld	a5,8(s2)
 1108              	.LVL149:
 1109              	.LBB83:
 1110              	.LBB84:
  20:src/../h/../h/my_console.h ****         return;
 1111              		.loc 2 20 5
 1112 0780 63989700 		bne	a5,s1,.L65
  21:src/../h/../h/my_console.h **** 
 1113              		.loc 2 21 9
 1114              	.LVL150:
 1115              	.LBE84:
 1116              	.LBE83:
 131:src/alloc.cpp ****             }
 1117              		.loc 1 131 17
 131:src/alloc.cpp ****             }
 1118              		.loc 1 131 36 is_stmt 0
 1119 0784 83B70400 		ld	a5,0(s1)
 131:src/alloc.cpp ****             }
 1120              		.loc 1 131 28
 1121 0788 2334F900 		sd	a5,8(s2)
 1122 078c 6FF0DFF9 		j	.L58
 1123              	.LVL151:
 1124              	.L65:
 1125              	.LBB86:
 1126              	.LBB85:
  23:src/../h/../h/my_console.h ****     putString(file);
 1127              		.loc 2 23 5 is_stmt 1
  23:src/../h/../h/my_console.h ****     putString(file);
 1128              		.loc 2 23 14 is_stmt 0
 1129 0790 17050000 		lla	a0,.LC0
 1129      13050500 
 1130 0798 97000000 		call	_Z9putStringPKc@plt
 1130      E7800000 
 1131              	.LVL152:
  24:src/../h/../h/my_console.h ****     putString("    line: ");
 1132              		.loc 2 24 5 is_stmt 1
  24:src/../h/../h/my_console.h ****     putString("    line: ");
 1133              		.loc 2 24 14 is_stmt 0
 1134 07a0 17050000 		lla	a0,.LC1
 1134      13050500 
 1135 07a8 97000000 		call	_Z9putStringPKc@plt
GAS LISTING /tmp/ccINVHKA.s 			page 30


 1135      E7800000 
 1136              	.LVL153:
  25:src/../h/../h/my_console.h ****     putInt(line);
 1137              		.loc 2 25 5 is_stmt 1
  25:src/../h/../h/my_console.h ****     putInt(line);
 1138              		.loc 2 25 14 is_stmt 0
 1139 07b0 17050000 		lla	a0,.LC2
 1139      13050500 
 1140 07b8 97000000 		call	_Z9putStringPKc@plt
 1140      E7800000 
 1141              	.LVL154:
  26:src/../h/../h/my_console.h ****     putString("   ===========================");
 1142              		.loc 2 26 5 is_stmt 1
  26:src/../h/../h/my_console.h ****     putString("   ===========================");
 1143              		.loc 2 26 11 is_stmt 0
 1144 07c0 13052008 		li	a0,130
 1145 07c4 97000000 		call	_Z6putInti@plt
 1145      E7800000 
 1146              	.LVL155:
  27:src/../h/../h/my_console.h ****     putNewline();
 1147              		.loc 2 27 5 is_stmt 1
  27:src/../h/../h/my_console.h ****     putNewline();
 1148              		.loc 2 27 14 is_stmt 0
 1149 07cc 17050000 		lla	a0,.LC3
 1149      13050500 
 1150 07d4 97000000 		call	_Z9putStringPKc@plt
 1150      E7800000 
 1151              	.LVL156:
  28:src/../h/../h/my_console.h **** 
 1152              		.loc 2 28 5 is_stmt 1
  28:src/../h/../h/my_console.h **** 
 1153              		.loc 2 28 15 is_stmt 0
 1154 07dc 97000000 		call	_Z10putNewlinev@plt
 1154      E7800000 
 1155              	.LVL157:
 1156              		.loc 2 30 5 is_stmt 1
 1157              		.loc 2 30 15 is_stmt 0
 1158 07e4 97000000 		call	_Z10stopKernelv@plt
 1158      E7800000 
 1159              	.LVL158:
 1160              	.L54:
 1161              	.LBE85:
 1162              	.LBE86:
 1163              	.LBE87:
 1164              	.LBE90:
 1165              	.LBE92:
 147:src/alloc.cpp ****     putNewline();
 1166              		.loc 1 147 5 is_stmt 1
 147:src/alloc.cpp ****     putNewline();
 1167              		.loc 1 147 14 is_stmt 0
 1168 07ec 17050000 		lla	a0,.LC4
 1168      13050500 
 1169 07f4 97000000 		call	_Z9putStringPKc@plt
 1169      E7800000 
 1170              	.LVL159:
 148:src/alloc.cpp ****     assert(false); // temp
 1171              		.loc 1 148 5 is_stmt 1
GAS LISTING /tmp/ccINVHKA.s 			page 31


 148:src/alloc.cpp ****     assert(false); // temp
 1172              		.loc 1 148 15 is_stmt 0
 1173 07fc 97000000 		call	_Z10putNewlinev@plt
 1173      E7800000 
 1174              	.LVL160:
 149:src/alloc.cpp ****     return -1; // negative values signify failure
 1175              		.loc 1 149 5 is_stmt 1
 1176              	.LBB93:
 1177              	.LBB94:
  20:src/../h/../h/my_console.h ****         return;
 1178              		.loc 2 20 5
  23:src/../h/../h/my_console.h ****     putString(file);
 1179              		.loc 2 23 5
  23:src/../h/../h/my_console.h ****     putString(file);
 1180              		.loc 2 23 14 is_stmt 0
 1181 0804 17050000 		lla	a0,.LC0
 1181      13050500 
 1182 080c 97000000 		call	_Z9putStringPKc@plt
 1182      E7800000 
 1183              	.LVL161:
  24:src/../h/../h/my_console.h ****     putString("    line: ");
 1184              		.loc 2 24 5 is_stmt 1
  24:src/../h/../h/my_console.h ****     putString("    line: ");
 1185              		.loc 2 24 14 is_stmt 0
 1186 0814 17050000 		lla	a0,.LC1
 1186      13050500 
 1187 081c 97000000 		call	_Z9putStringPKc@plt
 1187      E7800000 
 1188              	.LVL162:
  25:src/../h/../h/my_console.h ****     putInt(line);
 1189              		.loc 2 25 5 is_stmt 1
  25:src/../h/../h/my_console.h ****     putInt(line);
 1190              		.loc 2 25 14 is_stmt 0
 1191 0824 17050000 		lla	a0,.LC2
 1191      13050500 
 1192 082c 97000000 		call	_Z9putStringPKc@plt
 1192      E7800000 
 1193              	.LVL163:
  26:src/../h/../h/my_console.h ****     putString("   ===========================");
 1194              		.loc 2 26 5 is_stmt 1
  26:src/../h/../h/my_console.h ****     putString("   ===========================");
 1195              		.loc 2 26 11 is_stmt 0
 1196 0834 13055009 		li	a0,149
 1197 0838 97000000 		call	_Z6putInti@plt
 1197      E7800000 
 1198              	.LVL164:
  27:src/../h/../h/my_console.h ****     putNewline();
 1199              		.loc 2 27 5 is_stmt 1
  27:src/../h/../h/my_console.h ****     putNewline();
 1200              		.loc 2 27 14 is_stmt 0
 1201 0840 17050000 		lla	a0,.LC3
 1201      13050500 
 1202 0848 97000000 		call	_Z9putStringPKc@plt
 1202      E7800000 
 1203              	.LVL165:
  28:src/../h/../h/my_console.h **** 
 1204              		.loc 2 28 5 is_stmt 1
GAS LISTING /tmp/ccINVHKA.s 			page 32


  28:src/../h/../h/my_console.h **** 
 1205              		.loc 2 28 15 is_stmt 0
 1206 0850 97000000 		call	_Z10putNewlinev@plt
 1206      E7800000 
 1207              	.LVL166:
 1208              		.loc 2 30 5 is_stmt 1
 1209              		.loc 2 30 15 is_stmt 0
 1210 0858 97000000 		call	_Z10stopKernelv@plt
 1210      E7800000 
 1211              	.LVL167:
 1212              	.LBE94:
 1213              	.LBE93:
 1214              		.cfi_endproc
 1215              	.LFE15:
 1217              		.align	2
 1218              		.globl	_ZN8MemAlloc16getUserlandUsageEv
 1220              	_ZN8MemAlloc16getUserlandUsageEv:
 1221              	.LFB16:
 152:src/alloc.cpp **** 
 153:src/alloc.cpp **** uint64 MemAlloc::getUserlandUsage()
 154:src/alloc.cpp **** {
 1222              		.loc 1 154 1 is_stmt 1
 1223              		.cfi_startproc
 1224              	.LVL168:
 1225 0860 130101FF 		addi	sp,sp,-16
 1226              		.cfi_def_cfa_offset 16
 1227 0864 23348100 		sd	s0,8(sp)
 1228              		.cfi_offset 8, -8
 1229 0868 13040101 		addi	s0,sp,16
 1230              		.cfi_def_cfa 8, 0
 155:src/alloc.cpp ****     uint64 ret = 0;
 1231              		.loc 1 155 5
 1232              	.LVL169:
 156:src/alloc.cpp ****     TakenNode *pCur = pTakenHead;
 1233              		.loc 1 156 5
 1234              		.loc 1 156 16 is_stmt 0
 1235 086c 83378500 		ld	a5,8(a0)
 1236              	.LVL170:
 155:src/alloc.cpp ****     uint64 ret = 0;
 1237              		.loc 1 155 12
 1238 0870 13050000 		li	a0,0
 1239              	.LVL171:
 1240              	.L68:
 157:src/alloc.cpp ****     while(pCur != nullptr)
 1241              		.loc 1 157 5 is_stmt 1
 1242              		.loc 1 157 16
 1243 0874 638A0700 		beqz	a5,.L66
 158:src/alloc.cpp ****     {
 159:src/alloc.cpp ****         ret += pCur->size;
 1244              		.loc 1 159 9
 1245              		.loc 1 159 22 is_stmt 0
 1246 0878 03B78700 		ld	a4,8(a5)
 1247              		.loc 1 159 13
 1248 087c 3305E500 		add	a0,a0,a4
 1249              	.LVL172:
 160:src/alloc.cpp ****         pCur = pCur->pNext;
 1250              		.loc 1 160 9 is_stmt 1
GAS LISTING /tmp/ccINVHKA.s 			page 33


 1251              		.loc 1 160 14 is_stmt 0
 1252 0880 83B70700 		ld	a5,0(a5)
 1253              	.LVL173:
 157:src/alloc.cpp ****     while(pCur != nullptr)
 1254              		.loc 1 157 5
 1255 0884 6FF01FFF 		j	.L68
 1256              	.L66:
 161:src/alloc.cpp ****     }
 162:src/alloc.cpp **** 
 163:src/alloc.cpp ****     return ret;
 164:src/alloc.cpp **** }...
 1257              		.loc 1 164 1
 1258 0888 03348100 		ld	s0,8(sp)
 1259              		.cfi_restore 8
 1260              		.cfi_def_cfa 2, 16
 1261 088c 13010101 		addi	sp,sp,16
 1262              		.cfi_def_cfa_offset 0
 1263 0890 67800000 		jr	ra
 1264              		.cfi_endproc
 1265              	.LFE16:
 1267              		.section	.rodata.str1.8
 1268              		.align	3
 1269              	.LC5:
 1270 00a0 416C6C6F 		.string	"Allocated "
 1270      63617465 
 1270      642000
 1271 00ab 00000000 		.align	3
 1271      00
 1272              	.LC6:
 1273 00b0 20627974 		.string	" bytes are allocated for userland"
 1273      65732061 
 1273      72652061 
 1273      6C6C6F63 
 1273      61746564 
 1274              		.text
 1275              		.align	2
 1276              		.globl	_ZN8MemAlloc18printUserlandUsageEv
 1278              	_ZN8MemAlloc18printUserlandUsageEv:
 1279              	.LFB9:
  22:src/alloc.cpp **** {
 1280              		.loc 1 22 1 is_stmt 1
 1281              		.cfi_startproc
 1282              	.LVL174:
 1283 0894 130101FE 		addi	sp,sp,-32
 1284              		.cfi_def_cfa_offset 32
 1285 0898 233C1100 		sd	ra,24(sp)
 1286 089c 23388100 		sd	s0,16(sp)
 1287 08a0 23349100 		sd	s1,8(sp)
 1288              		.cfi_offset 1, -8
 1289              		.cfi_offset 8, -16
 1290              		.cfi_offset 9, -24
 1291 08a4 13040102 		addi	s0,sp,32
 1292              		.cfi_def_cfa 8, 0
  23:src/alloc.cpp ****     uint64 a = getUserlandUsage();
 1293              		.loc 1 23 5
  23:src/alloc.cpp ****     uint64 a = getUserlandUsage();
 1294              		.loc 1 23 32 is_stmt 0
GAS LISTING /tmp/ccINVHKA.s 			page 34


 1295 08a8 97000000 		call	_ZN8MemAlloc16getUserlandUsageEv
 1295      E7800000 
 1296              	.LVL175:
 1297 08b0 93040500 		mv	s1,a0
 1298              	.LVL176:
  24:src/alloc.cpp ****     putString("Allocated ");
 1299              		.loc 1 24 5 is_stmt 1
  24:src/alloc.cpp ****     putString("Allocated ");
 1300              		.loc 1 24 14 is_stmt 0
 1301 08b4 17050000 		lla	a0,.LC5
 1301      13050500 
 1302 08bc 97000000 		call	_Z9putStringPKc@plt
 1302      E7800000 
 1303              	.LVL177:
  25:src/alloc.cpp ****     putU64(a);
 1304              		.loc 1 25 5 is_stmt 1
  25:src/alloc.cpp ****     putU64(a);
 1305              		.loc 1 25 11 is_stmt 0
 1306 08c4 13850400 		mv	a0,s1
 1307 08c8 97000000 		call	_Z6putU64m@plt
 1307      E7800000 
 1308              	.LVL178:
  26:src/alloc.cpp ****     putString(" bytes are allocated for userland");
 1309              		.loc 1 26 5 is_stmt 1
  26:src/alloc.cpp ****     putString(" bytes are allocated for userland");
 1310              		.loc 1 26 14 is_stmt 0
 1311 08d0 17050000 		lla	a0,.LC6
 1311      13050500 
 1312 08d8 97000000 		call	_Z9putStringPKc@plt
 1312      E7800000 
 1313              	.LVL179:
  27:src/alloc.cpp ****     putNewline();
 1314              		.loc 1 27 5 is_stmt 1
  27:src/alloc.cpp ****     putNewline();
 1315              		.loc 1 27 15 is_stmt 0
 1316 08e0 97000000 		call	_Z10putNewlinev@plt
 1316      E7800000 
 1317              	.LVL180:
  28:src/alloc.cpp **** }
 1318              		.loc 1 28 1
 1319 08e8 83308101 		ld	ra,24(sp)
 1320              		.cfi_restore 1
 1321 08ec 03340101 		ld	s0,16(sp)
 1322              		.cfi_restore 8
 1323              		.cfi_def_cfa 2, 32
 1324 08f0 83348100 		ld	s1,8(sp)
 1325              		.cfi_restore 9
 1326              	.LVL181:
 1327 08f4 13010102 		addi	sp,sp,32
 1328              		.cfi_def_cfa_offset 0
 1329 08f8 67800000 		jr	ra
 1330              		.cfi_endproc
 1331              	.LFE9:
 1333              		.bss
 1334              		.align	3
 1335              		.set	.LANCHOR0,. + 0
 1338              	_ZGVZN8MemAlloc3getEvE8instance:
GAS LISTING /tmp/ccINVHKA.s 			page 35


 1339 0000 00000000 		.zero	8
 1339      00000000 
 1342              	_ZZN8MemAlloc3getEvE8instance:
 1343 0008 00000000 		.zero	24
 1343      00000000 
 1343      00000000 
 1343      00000000 
 1343      00000000 
 1344              		.text
 1345              	.Letext0:
 1346              		.file 3 "src/../h/../lib/hw.h"
 1347              		.file 4 "src/../h/alloc.h"
GAS LISTING /tmp/ccINVHKA.s 			page 36


DEFINED SYMBOLS
                            *ABS*:0000000000000000 alloc.cpp
     /tmp/ccINVHKA.s:23     .text:0000000000000000 _Z12alignForwardmm
     /tmp/ccINVHKA.s:27     .text:0000000000000000 .L0 
     /tmp/ccINVHKA.s:29     .text:0000000000000000 .L0 
     /tmp/ccINVHKA.s:30     .text:0000000000000000 .L0 
     /tmp/ccINVHKA.s:36     .text:0000000000000004 .L0 
     /tmp/ccINVHKA.s:41     .text:0000000000000008 .L0 
     /tmp/ccINVHKA.s:42     .text:0000000000000008 .L0 
     /tmp/ccINVHKA.s:43     .text:0000000000000008 .L0 
     /tmp/ccINVHKA.s:45     .text:000000000000000c .L0 
     /tmp/ccINVHKA.s:47     .text:0000000000000010 .L0 
     /tmp/ccINVHKA.s:48     .text:0000000000000010 .L0 
     /tmp/ccINVHKA.s:54     .text:0000000000000018 .L0 
     /tmp/ccINVHKA.s:55     .text:0000000000000018 .L0 
     /tmp/ccINVHKA.s:59     .text:000000000000001c .L0 
     /tmp/ccINVHKA.s:60     .text:0000000000000020 .L0 
     /tmp/ccINVHKA.s:63     .text:0000000000000028 .L0 
     /tmp/ccINVHKA.s:64     .text:0000000000000028 .L0 
     /tmp/ccINVHKA.s:66     .text:000000000000002c .L0 
     /tmp/ccINVHKA.s:70     .text:000000000000002c .L0 
     /tmp/ccINVHKA.s:71     .text:000000000000002c .L0 
     /tmp/ccINVHKA.s:76     .text:000000000000003c .L0 
     /tmp/ccINVHKA.s:77     .text:000000000000003c .L0 
     /tmp/ccINVHKA.s:81     .text:000000000000004c .L0 
     /tmp/ccINVHKA.s:82     .text:000000000000004c .L0 
     /tmp/ccINVHKA.s:86     .text:000000000000005c .L0 
     /tmp/ccINVHKA.s:87     .text:000000000000005c .L0 
     /tmp/ccINVHKA.s:91     .text:0000000000000068 .L0 
     /tmp/ccINVHKA.s:92     .text:0000000000000068 .L0 
     /tmp/ccINVHKA.s:96     .text:0000000000000078 .L0 
     /tmp/ccINVHKA.s:97     .text:0000000000000078 .L0 
     /tmp/ccINVHKA.s:100    .text:0000000000000080 .L0 
     /tmp/ccINVHKA.s:101    .text:0000000000000080 .L0 
     /tmp/ccINVHKA.s:105    .text:0000000000000088 .L0 
     /tmp/ccINVHKA.s:111    .text:0000000000000088 _Z13alignBackwardmm
     /tmp/ccINVHKA.s:114    .text:0000000000000088 .L0 
     /tmp/ccINVHKA.s:116    .text:0000000000000088 .L0 
     /tmp/ccINVHKA.s:117    .text:0000000000000088 .L0 
     /tmp/ccINVHKA.s:122    .text:000000000000008c .L0 
     /tmp/ccINVHKA.s:127    .text:0000000000000090 .L0 
     /tmp/ccINVHKA.s:128    .text:0000000000000090 .L0 
     /tmp/ccINVHKA.s:129    .text:0000000000000090 .L0 
     /tmp/ccINVHKA.s:130    .text:0000000000000090 .L0 
     /tmp/ccINVHKA.s:136    .text:0000000000000098 .L0 
     /tmp/ccINVHKA.s:137    .text:000000000000009c .L0 
     /tmp/ccINVHKA.s:140    .text:00000000000000a4 .L0 
     /tmp/ccINVHKA.s:141    .text:00000000000000a4 .L0 
     /tmp/ccINVHKA.s:143    .text:00000000000000a8 .L0 
     /tmp/ccINVHKA.s:147    .text:00000000000000a8 .L0 
     /tmp/ccINVHKA.s:148    .text:00000000000000a8 .L0 
     /tmp/ccINVHKA.s:153    .text:00000000000000b8 .L0 
     /tmp/ccINVHKA.s:154    .text:00000000000000b8 .L0 
     /tmp/ccINVHKA.s:158    .text:00000000000000c8 .L0 
     /tmp/ccINVHKA.s:159    .text:00000000000000c8 .L0 
     /tmp/ccINVHKA.s:163    .text:00000000000000d8 .L0 
     /tmp/ccINVHKA.s:164    .text:00000000000000d8 .L0 
GAS LISTING /tmp/ccINVHKA.s 			page 37


     /tmp/ccINVHKA.s:168    .text:00000000000000e4 .L0 
     /tmp/ccINVHKA.s:169    .text:00000000000000e4 .L0 
     /tmp/ccINVHKA.s:173    .text:00000000000000f4 .L0 
     /tmp/ccINVHKA.s:174    .text:00000000000000f4 .L0 
     /tmp/ccINVHKA.s:177    .text:00000000000000fc .L0 
     /tmp/ccINVHKA.s:178    .text:00000000000000fc .L0 
     /tmp/ccINVHKA.s:182    .text:0000000000000104 .L0 
     /tmp/ccINVHKA.s:188    .text:0000000000000104 _ZN8MemAllocC2Ev
     /tmp/ccINVHKA.s:191    .text:0000000000000104 .L0 
     /tmp/ccINVHKA.s:193    .text:0000000000000104 .L0 
     /tmp/ccINVHKA.s:194    .text:0000000000000108 .L0 
     /tmp/ccINVHKA.s:199    .text:0000000000000118 .L0 
     /tmp/ccINVHKA.s:200    .text:0000000000000118 .L0 
     /tmp/ccINVHKA.s:201    .text:0000000000000118 .L0 
     /tmp/ccINVHKA.s:202    .text:0000000000000118 .L0 
     /tmp/ccINVHKA.s:204    .text:000000000000011c .L0 
     /tmp/ccINVHKA.s:208    .text:0000000000000120 .L0 
     /tmp/ccINVHKA.s:211    .text:0000000000000128 .L0 
     /tmp/ccINVHKA.s:212    .text:0000000000000128 .L0 
     /tmp/ccINVHKA.s:219    .text:0000000000000140 .L0 
     /tmp/ccINVHKA.s:221    .text:0000000000000144 .L0 
     /tmp/ccINVHKA.s:222    .text:0000000000000144 .L0 
     /tmp/ccINVHKA.s:224    .text:0000000000000148 .L0 
     /tmp/ccINVHKA.s:229    .text:0000000000000158 .L0 
     /tmp/ccINVHKA.s:231    .text:000000000000015c .L0 
     /tmp/ccINVHKA.s:233    .text:0000000000000160 .L0 
     /tmp/ccINVHKA.s:234    .text:0000000000000160 .L0 
     /tmp/ccINVHKA.s:236    .text:0000000000000164 .L0 
     /tmp/ccINVHKA.s:238    .text:0000000000000168 .L0 
     /tmp/ccINVHKA.s:245    .text:0000000000000184 .L0 
     /tmp/ccINVHKA.s:247    .text:0000000000000188 .L0 
     /tmp/ccINVHKA.s:248    .text:0000000000000188 .L0 
     /tmp/ccINVHKA.s:250    .text:000000000000018c .L0 
     /tmp/ccINVHKA.s:259    .text:00000000000001a0 .L0 
     /tmp/ccINVHKA.s:264    .text:00000000000001a4 .L0 
     /tmp/ccINVHKA.s:265    .text:00000000000001a8 .L0 
     /tmp/ccINVHKA.s:266    .text:00000000000001a8 .L0 
     /tmp/ccINVHKA.s:268    .text:00000000000001ac .L0 
     /tmp/ccINVHKA.s:269    .text:00000000000001ac .L0 
     /tmp/ccINVHKA.s:271    .text:00000000000001b0 .L0 
     /tmp/ccINVHKA.s:274    .text:00000000000001b4 .L0 
     /tmp/ccINVHKA.s:276    .text:00000000000001b8 .L0 
     /tmp/ccINVHKA.s:280    .text:00000000000001bc .L0 
     /tmp/ccINVHKA.s:285    .text:00000000000001bc .L0 
     /tmp/ccINVHKA.s:286    .text:00000000000001bc .L0 
     /tmp/ccINVHKA.s:290    .text:00000000000001cc .L0 
     /tmp/ccINVHKA.s:291    .text:00000000000001cc .L0 
     /tmp/ccINVHKA.s:295    .text:00000000000001dc .L0 
     /tmp/ccINVHKA.s:296    .text:00000000000001dc .L0 
     /tmp/ccINVHKA.s:300    .text:00000000000001ec .L0 
     /tmp/ccINVHKA.s:301    .text:00000000000001ec .L0 
     /tmp/ccINVHKA.s:305    .text:00000000000001f8 .L0 
     /tmp/ccINVHKA.s:306    .text:00000000000001f8 .L0 
     /tmp/ccINVHKA.s:310    .text:0000000000000208 .L0 
     /tmp/ccINVHKA.s:311    .text:0000000000000208 .L0 
     /tmp/ccINVHKA.s:314    .text:0000000000000210 .L0 
     /tmp/ccINVHKA.s:315    .text:0000000000000210 .L0 
GAS LISTING /tmp/ccINVHKA.s 			page 38


     /tmp/ccINVHKA.s:320    .text:0000000000000218 .L0 
     /tmp/ccINVHKA.s:188    .text:0000000000000104 _ZN8MemAllocC1Ev
     /tmp/ccINVHKA.s:328    .text:0000000000000218 _ZN8MemAlloc3getEv
     /tmp/ccINVHKA.s:331    .text:0000000000000218 .L0 
     /tmp/ccINVHKA.s:332    .text:0000000000000218 .L0 
     /tmp/ccINVHKA.s:333    .text:0000000000000218 .L0 
     /tmp/ccINVHKA.s:334    .text:0000000000000218 .L0 
     /tmp/ccINVHKA.s:337    .text:0000000000000224 .L0 
     /tmp/ccINVHKA.s:338    .text:0000000000000224 .L0 
     /tmp/ccINVHKA.s:342    .text:0000000000000230 .L0 
     /tmp/ccINVHKA.s:343    .text:0000000000000234 .L0 
     /tmp/ccINVHKA.s:346    .text:000000000000023c .L0 
     /tmp/ccINVHKA.s:347    .text:000000000000023c .L0 
     /tmp/ccINVHKA.s:349    .text:0000000000000240 .L0 
     /tmp/ccINVHKA.s:351    .text:0000000000000240 .L0 
     /tmp/ccINVHKA.s:357    .text:000000000000025c .L0 
     /tmp/ccINVHKA.s:358    .text:000000000000025c .L0 
     /tmp/ccINVHKA.s:360    .text:0000000000000268 .L0 
     /tmp/ccINVHKA.s:362    .text:000000000000026c .L0 
     /tmp/ccINVHKA.s:363    .text:000000000000026c .L0 
     /tmp/ccINVHKA.s:365    .text:0000000000000270 .L0 
     /tmp/ccINVHKA.s:367    .text:0000000000000274 .L0 
     /tmp/ccINVHKA.s:373    .text:0000000000000274 _ZN8MemAlloc8allocMemEm
     /tmp/ccINVHKA.s:376    .text:0000000000000274 .L0 
     /tmp/ccINVHKA.s:378    .text:0000000000000274 .L0 
     /tmp/ccINVHKA.s:379    .text:0000000000000278 .L0 
     /tmp/ccINVHKA.s:390    .text:00000000000002a0 .L0 
     /tmp/ccINVHKA.s:391    .text:00000000000002a0 .L0 
     /tmp/ccINVHKA.s:392    .text:00000000000002a0 .L0 
     /tmp/ccINVHKA.s:393    .text:00000000000002a0 .L0 
     /tmp/ccINVHKA.s:394    .text:00000000000002a0 .L0 
     /tmp/ccINVHKA.s:395    .text:00000000000002a0 .L0 
     /tmp/ccINVHKA.s:396    .text:00000000000002a0 .L0 
     /tmp/ccINVHKA.s:397    .text:00000000000002a0 .L0 
     /tmp/ccINVHKA.s:398    .text:00000000000002a0 .L0 
     /tmp/ccINVHKA.s:399    .text:00000000000002a0 .L0 
     /tmp/ccINVHKA.s:401    .text:00000000000002a4 .L0 
     /tmp/ccINVHKA.s:406    .text:00000000000002ac .L0 
     /tmp/ccINVHKA.s:407    .text:00000000000002ac .L0 
     /tmp/ccINVHKA.s:414    .text:00000000000002bc .L0 
     /tmp/ccINVHKA.s:415    .text:00000000000002bc .L0 
     /tmp/ccINVHKA.s:416    .text:00000000000002bc .L0 
     /tmp/ccINVHKA.s:419    .text:00000000000002c0 .L0 
     /tmp/ccINVHKA.s:424    .text:00000000000002d0 .L0 
     /tmp/ccINVHKA.s:427    .text:00000000000002d8 .L0 
     /tmp/ccINVHKA.s:431    .text:00000000000002e0 .L0 
     /tmp/ccINVHKA.s:441    .text:00000000000002ec .L0 
     /tmp/ccINVHKA.s:446    .text:00000000000002f0 .L0 
     /tmp/ccINVHKA.s:447    .text:00000000000002f0 .L0 
     /tmp/ccINVHKA.s:448    .text:00000000000002f0 .L0 
     /tmp/ccINVHKA.s:449    .text:00000000000002f0 .L0 
     /tmp/ccINVHKA.s:452    .text:00000000000002f4 .L0 
     /tmp/ccINVHKA.s:453    .text:00000000000002f4 .L0 
     /tmp/ccINVHKA.s:458    .text:00000000000002fc .L0 
     /tmp/ccINVHKA.s:465    .text:0000000000000304 .L0 
     /tmp/ccINVHKA.s:466    .text:0000000000000304 .L0 
     /tmp/ccINVHKA.s:470    .text:0000000000000314 .L0 
GAS LISTING /tmp/ccINVHKA.s 			page 39


     /tmp/ccINVHKA.s:471    .text:0000000000000314 .L0 
     /tmp/ccINVHKA.s:475    .text:0000000000000324 .L0 
     /tmp/ccINVHKA.s:476    .text:0000000000000324 .L0 
     /tmp/ccINVHKA.s:480    .text:0000000000000334 .L0 
     /tmp/ccINVHKA.s:481    .text:0000000000000334 .L0 
     /tmp/ccINVHKA.s:485    .text:0000000000000340 .L0 
     /tmp/ccINVHKA.s:486    .text:0000000000000340 .L0 
     /tmp/ccINVHKA.s:490    .text:0000000000000350 .L0 
     /tmp/ccINVHKA.s:491    .text:0000000000000350 .L0 
     /tmp/ccINVHKA.s:494    .text:0000000000000358 .L0 
     /tmp/ccINVHKA.s:495    .text:0000000000000358 .L0 
     /tmp/ccINVHKA.s:502    .text:0000000000000360 .L0 
     /tmp/ccINVHKA.s:508    .text:0000000000000364 .L0 
     /tmp/ccINVHKA.s:513    .text:0000000000000368 .L0 
     /tmp/ccINVHKA.s:514    .text:0000000000000368 .L0 
     /tmp/ccINVHKA.s:520    .text:0000000000000370 .L0 
     /tmp/ccINVHKA.s:525    .text:0000000000000374 .L0 
     /tmp/ccINVHKA.s:526    .text:0000000000000374 .L0 
     /tmp/ccINVHKA.s:527    .text:0000000000000374 .L0 
     /tmp/ccINVHKA.s:528    .text:0000000000000374 .L0 
     /tmp/ccINVHKA.s:530    .text:0000000000000378 .L0 
     /tmp/ccINVHKA.s:536    .text:000000000000038c .L0 
     /tmp/ccINVHKA.s:539    .text:0000000000000390 .L0 
     /tmp/ccINVHKA.s:540    .text:0000000000000390 .L0 
     /tmp/ccINVHKA.s:543    .text:0000000000000394 .L0 
     /tmp/ccINVHKA.s:548    .text:00000000000003a4 .L0 
     /tmp/ccINVHKA.s:551    .text:00000000000003a8 .L0 
     /tmp/ccINVHKA.s:552    .text:00000000000003a8 .L0 
     /tmp/ccINVHKA.s:554    .text:00000000000003ac .L0 
     /tmp/ccINVHKA.s:556    .text:00000000000003b0 .L0 
     /tmp/ccINVHKA.s:558    .text:00000000000003b4 .L0 
     /tmp/ccINVHKA.s:562    .text:00000000000003b8 .L0 
     /tmp/ccINVHKA.s:563    .text:00000000000003b8 .L0 
     /tmp/ccINVHKA.s:564    .text:00000000000003b8 .L0 
     /tmp/ccINVHKA.s:566    .text:00000000000003bc .L0 
     /tmp/ccINVHKA.s:571    .text:00000000000003c0 .L0 
     /tmp/ccINVHKA.s:572    .text:00000000000003c0 .L0 
     /tmp/ccINVHKA.s:575    .text:00000000000003c4 .L0 
     /tmp/ccINVHKA.s:579    .text:00000000000003d0 .L0 
     /tmp/ccINVHKA.s:583    .text:00000000000003dc .L0 
     /tmp/ccINVHKA.s:593    .text:00000000000003ec .L0 
     /tmp/ccINVHKA.s:594    .text:00000000000003ec .L0 
     /tmp/ccINVHKA.s:598    .text:00000000000003fc .L0 
     /tmp/ccINVHKA.s:599    .text:00000000000003fc .L0 
     /tmp/ccINVHKA.s:603    .text:000000000000040c .L0 
     /tmp/ccINVHKA.s:604    .text:000000000000040c .L0 
     /tmp/ccINVHKA.s:608    .text:000000000000041c .L0 
     /tmp/ccINVHKA.s:609    .text:000000000000041c .L0 
     /tmp/ccINVHKA.s:613    .text:0000000000000428 .L0 
     /tmp/ccINVHKA.s:614    .text:0000000000000428 .L0 
     /tmp/ccINVHKA.s:618    .text:0000000000000438 .L0 
     /tmp/ccINVHKA.s:619    .text:0000000000000438 .L0 
     /tmp/ccINVHKA.s:622    .text:0000000000000440 .L0 
     /tmp/ccINVHKA.s:623    .text:0000000000000440 .L0 
     /tmp/ccINVHKA.s:631    .text:0000000000000448 .L0 
     /tmp/ccINVHKA.s:632    .text:0000000000000448 .L0 
     /tmp/ccINVHKA.s:636    .text:0000000000000458 .L0 
GAS LISTING /tmp/ccINVHKA.s 			page 40


     /tmp/ccINVHKA.s:637    .text:0000000000000458 .L0 
     /tmp/ccINVHKA.s:641    .text:0000000000000468 .L0 
     /tmp/ccINVHKA.s:642    .text:0000000000000468 .L0 
     /tmp/ccINVHKA.s:646    .text:0000000000000478 .L0 
     /tmp/ccINVHKA.s:647    .text:0000000000000478 .L0 
     /tmp/ccINVHKA.s:651    .text:0000000000000484 .L0 
     /tmp/ccINVHKA.s:652    .text:0000000000000484 .L0 
     /tmp/ccINVHKA.s:656    .text:0000000000000494 .L0 
     /tmp/ccINVHKA.s:657    .text:0000000000000494 .L0 
     /tmp/ccINVHKA.s:660    .text:000000000000049c .L0 
     /tmp/ccINVHKA.s:661    .text:000000000000049c .L0 
     /tmp/ccINVHKA.s:669    .text:00000000000004a4 .L0 
     /tmp/ccINVHKA.s:670    .text:00000000000004a4 .L0 
     /tmp/ccINVHKA.s:672    .text:00000000000004a8 .L0 
     /tmp/ccINVHKA.s:674    .text:00000000000004ac .L0 
     /tmp/ccINVHKA.s:677    .text:00000000000004b4 .L0 
     /tmp/ccINVHKA.s:680    .text:00000000000004bc .L0 
     /tmp/ccINVHKA.s:684    .text:00000000000004c4 .L0 
     /tmp/ccINVHKA.s:694    .text:00000000000004d0 .L0 
     /tmp/ccINVHKA.s:699    .text:00000000000004d4 .L0 
     /tmp/ccINVHKA.s:700    .text:00000000000004d4 .L0 
     /tmp/ccINVHKA.s:701    .text:00000000000004d4 .L0 
     /tmp/ccINVHKA.s:703    .text:00000000000004d8 .L0 
     /tmp/ccINVHKA.s:705    .text:00000000000004dc .L0 
     /tmp/ccINVHKA.s:707    .text:00000000000004e0 .L0 
     /tmp/ccINVHKA.s:708    .text:00000000000004e0 .L0 
     /tmp/ccINVHKA.s:712    .text:00000000000004e4 .L0 
     /tmp/ccINVHKA.s:713    .text:00000000000004e4 .L0 
     /tmp/ccINVHKA.s:714    .text:00000000000004e4 .L0 
     /tmp/ccINVHKA.s:716    .text:00000000000004e8 .L0 
     /tmp/ccINVHKA.s:718    .text:00000000000004ec .L0 
     /tmp/ccINVHKA.s:719    .text:00000000000004ec .L0 
     /tmp/ccINVHKA.s:720    .text:00000000000004ec .L0 
     /tmp/ccINVHKA.s:722    .text:00000000000004f0 .L0 
     /tmp/ccINVHKA.s:723    .text:00000000000004f0 .L0 
     /tmp/ccINVHKA.s:725    .text:00000000000004f4 .L0 
     /tmp/ccINVHKA.s:727    .text:00000000000004f8 .L0 
     /tmp/ccINVHKA.s:728    .text:00000000000004f8 .L0 
     /tmp/ccINVHKA.s:730    .text:00000000000004fc .L0 
     /tmp/ccINVHKA.s:731    .text:00000000000004fc .L0 
     /tmp/ccINVHKA.s:737    .text:0000000000000500 .L0 
     /tmp/ccINVHKA.s:738    .text:0000000000000500 .L0 
     /tmp/ccINVHKA.s:739    .text:0000000000000504 .L0 
     /tmp/ccINVHKA.s:740    .text:0000000000000504 .L0 
     /tmp/ccINVHKA.s:742    .text:0000000000000508 .L0 
     /tmp/ccINVHKA.s:743    .text:0000000000000508 .L0 
     /tmp/ccINVHKA.s:745    .text:000000000000050c .L0 
     /tmp/ccINVHKA.s:748    .text:0000000000000510 .L0 
     /tmp/ccINVHKA.s:750    .text:0000000000000514 .L0 
     /tmp/ccINVHKA.s:753    .text:0000000000000518 .L0 
     /tmp/ccINVHKA.s:756    .text:000000000000051c .L0 
     /tmp/ccINVHKA.s:759    .text:0000000000000520 .L0 
     /tmp/ccINVHKA.s:762    .text:0000000000000524 .L0 
     /tmp/ccINVHKA.s:764    .text:0000000000000528 .L0 
     /tmp/ccINVHKA.s:766    .text:000000000000052c .L0 
     /tmp/ccINVHKA.s:770    .text:0000000000000530 .L0 
     /tmp/ccINVHKA.s:775    .text:0000000000000530 .L0 
GAS LISTING /tmp/ccINVHKA.s 			page 41


     /tmp/ccINVHKA.s:782    .text:0000000000000538 .L0 
     /tmp/ccINVHKA.s:783    .text:0000000000000538 .L0 
     /tmp/ccINVHKA.s:787    .text:0000000000000548 .L0 
     /tmp/ccINVHKA.s:788    .text:0000000000000548 .L0 
     /tmp/ccINVHKA.s:792    .text:0000000000000558 .L0 
     /tmp/ccINVHKA.s:793    .text:0000000000000558 .L0 
     /tmp/ccINVHKA.s:797    .text:0000000000000568 .L0 
     /tmp/ccINVHKA.s:798    .text:0000000000000568 .L0 
     /tmp/ccINVHKA.s:802    .text:0000000000000574 .L0 
     /tmp/ccINVHKA.s:803    .text:0000000000000574 .L0 
     /tmp/ccINVHKA.s:807    .text:0000000000000584 .L0 
     /tmp/ccINVHKA.s:808    .text:0000000000000584 .L0 
     /tmp/ccINVHKA.s:811    .text:000000000000058c .L0 
     /tmp/ccINVHKA.s:812    .text:000000000000058c .L0 
     /tmp/ccINVHKA.s:818    .text:0000000000000594 .L0 
     /tmp/ccINVHKA.s:823    .text:0000000000000598 .L0 
     /tmp/ccINVHKA.s:828    .text:000000000000059c .L0 
     /tmp/ccINVHKA.s:829    .text:000000000000059c .L0 
     /tmp/ccINVHKA.s:830    .text:000000000000059c .L0 
     /tmp/ccINVHKA.s:837    .text:00000000000005a4 .L0 
     /tmp/ccINVHKA.s:838    .text:00000000000005a4 .L0 
     /tmp/ccINVHKA.s:842    .text:00000000000005b4 .L0 
     /tmp/ccINVHKA.s:843    .text:00000000000005b4 .L0 
     /tmp/ccINVHKA.s:847    .text:00000000000005c4 .L0 
     /tmp/ccINVHKA.s:848    .text:00000000000005c4 .L0 
     /tmp/ccINVHKA.s:852    .text:00000000000005d4 .L0 
     /tmp/ccINVHKA.s:853    .text:00000000000005d4 .L0 
     /tmp/ccINVHKA.s:857    .text:00000000000005e0 .L0 
     /tmp/ccINVHKA.s:858    .text:00000000000005e0 .L0 
     /tmp/ccINVHKA.s:862    .text:00000000000005f0 .L0 
     /tmp/ccINVHKA.s:863    .text:00000000000005f0 .L0 
     /tmp/ccINVHKA.s:866    .text:00000000000005f8 .L0 
     /tmp/ccINVHKA.s:867    .text:00000000000005f8 .L0 
     /tmp/ccINVHKA.s:878    .text:0000000000000600 .L0 
     /tmp/ccINVHKA.s:879    .text:0000000000000600 .L0 
     /tmp/ccINVHKA.s:880    .text:0000000000000600 .L0 
     /tmp/ccINVHKA.s:881    .text:0000000000000600 .L0 
     /tmp/ccINVHKA.s:885    .text:0000000000000610 .L0 
     /tmp/ccINVHKA.s:886    .text:0000000000000610 .L0 
     /tmp/ccINVHKA.s:890    .text:0000000000000620 .L0 
     /tmp/ccINVHKA.s:891    .text:0000000000000620 .L0 
     /tmp/ccINVHKA.s:895    .text:0000000000000630 .L0 
     /tmp/ccINVHKA.s:896    .text:0000000000000630 .L0 
     /tmp/ccINVHKA.s:900    .text:000000000000063c .L0 
     /tmp/ccINVHKA.s:901    .text:000000000000063c .L0 
     /tmp/ccINVHKA.s:905    .text:000000000000064c .L0 
     /tmp/ccINVHKA.s:906    .text:000000000000064c .L0 
     /tmp/ccINVHKA.s:909    .text:0000000000000654 .L0 
     /tmp/ccINVHKA.s:910    .text:0000000000000654 .L0 
     /tmp/ccINVHKA.s:914    .text:000000000000065c .L0 
     /tmp/ccINVHKA.s:925    .text:000000000000065c _ZN8MemAlloc7freeMemEPv
     /tmp/ccINVHKA.s:928    .text:000000000000065c .L0 
     /tmp/ccINVHKA.s:930    .text:000000000000065c .L0 
     /tmp/ccINVHKA.s:931    .text:0000000000000660 .L0 
     /tmp/ccINVHKA.s:938    .text:0000000000000678 .L0 
     /tmp/ccINVHKA.s:939    .text:0000000000000678 .L0 
     /tmp/ccINVHKA.s:940    .text:0000000000000678 .L0 
GAS LISTING /tmp/ccINVHKA.s 			page 42


     /tmp/ccINVHKA.s:941    .text:0000000000000678 .L0 
     /tmp/ccINVHKA.s:942    .text:0000000000000678 .L0 
     /tmp/ccINVHKA.s:943    .text:0000000000000678 .L0 
     /tmp/ccINVHKA.s:945    .text:000000000000067c .L0 
     /tmp/ccINVHKA.s:949    .text:0000000000000684 .L0 
     /tmp/ccINVHKA.s:950    .text:0000000000000684 .L0 
     /tmp/ccINVHKA.s:953    .text:0000000000000688 .L0 
     /tmp/ccINVHKA.s:954    .text:0000000000000688 .L0 
     /tmp/ccINVHKA.s:958    .text:000000000000068c .L0 
     /tmp/ccINVHKA.s:959    .text:000000000000068c .L0 
     /tmp/ccINVHKA.s:962    .text:0000000000000690 .L0 
     /tmp/ccINVHKA.s:971    .text:00000000000006a8 .L0 
     /tmp/ccINVHKA.s:976    .text:00000000000006ac .L0 
     /tmp/ccINVHKA.s:978    .text:00000000000006ac .L0 
     /tmp/ccINVHKA.s:979    .text:00000000000006ac .L0 
     /tmp/ccINVHKA.s:981    .text:00000000000006b0 .L0 
     /tmp/ccINVHKA.s:985    .text:00000000000006b4 .L0 
     /tmp/ccINVHKA.s:986    .text:00000000000006b4 .L0 
     /tmp/ccINVHKA.s:987    .text:00000000000006b4 .L0 
     /tmp/ccINVHKA.s:989    .text:00000000000006b8 .L0 
     /tmp/ccINVHKA.s:993    .text:00000000000006bc .L0 
     /tmp/ccINVHKA.s:1000   .text:00000000000006c0 .L0 
     /tmp/ccINVHKA.s:1001   .text:00000000000006c0 .L0 
     /tmp/ccINVHKA.s:1006   .text:00000000000006d0 .L0 
     /tmp/ccINVHKA.s:1007   .text:00000000000006d0 .L0 
     /tmp/ccINVHKA.s:1011   .text:00000000000006e0 .L0 
     /tmp/ccINVHKA.s:1012   .text:00000000000006e0 .L0 
     /tmp/ccINVHKA.s:1016   .text:00000000000006f0 .L0 
     /tmp/ccINVHKA.s:1017   .text:00000000000006f0 .L0 
     /tmp/ccINVHKA.s:1021   .text:00000000000006fc .L0 
     /tmp/ccINVHKA.s:1022   .text:00000000000006fc .L0 
     /tmp/ccINVHKA.s:1026   .text:000000000000070c .L0 
     /tmp/ccINVHKA.s:1027   .text:000000000000070c .L0 
     /tmp/ccINVHKA.s:1030   .text:0000000000000714 .L0 
     /tmp/ccINVHKA.s:1031   .text:0000000000000714 .L0 
     /tmp/ccINVHKA.s:1039   .text:000000000000071c .L0 
     /tmp/ccINVHKA.s:1041   .text:0000000000000720 .L0 
     /tmp/ccINVHKA.s:1042   .text:0000000000000720 .L0 
     /tmp/ccINVHKA.s:1044   .text:0000000000000724 .L0 
     /tmp/ccINVHKA.s:1047   .text:0000000000000728 .L0 
     /tmp/ccINVHKA.s:1048   .text:0000000000000728 .L0 
     /tmp/ccINVHKA.s:1050   .text:000000000000072c .L0 
     /tmp/ccINVHKA.s:1055   .text:000000000000073c .L0 
     /tmp/ccINVHKA.s:1056   .text:000000000000073c .L0 
     /tmp/ccINVHKA.s:1058   .text:0000000000000740 .L0 
     /tmp/ccINVHKA.s:1060   .text:0000000000000744 .L0 
     /tmp/ccINVHKA.s:1061   .text:0000000000000744 .L0 
     /tmp/ccINVHKA.s:1063   .text:0000000000000748 .L0 
     /tmp/ccINVHKA.s:1065   .text:000000000000074c .L0 
     /tmp/ccINVHKA.s:1066   .text:000000000000074c .L0 
     /tmp/ccINVHKA.s:1068   .text:0000000000000750 .L0 
     /tmp/ccINVHKA.s:1070   .text:0000000000000754 .L0 
     /tmp/ccINVHKA.s:1071   .text:0000000000000754 .L0 
     /tmp/ccINVHKA.s:1076   .text:0000000000000758 .L0 
     /tmp/ccINVHKA.s:1077   .text:0000000000000758 .L0 
     /tmp/ccINVHKA.s:1080   .text:0000000000000760 .L0 
     /tmp/ccINVHKA.s:1081   .text:0000000000000760 .L0 
GAS LISTING /tmp/ccINVHKA.s 			page 43


     /tmp/ccINVHKA.s:1083   .text:0000000000000764 .L0 
     /tmp/ccINVHKA.s:1084   .text:0000000000000764 .L0 
     /tmp/ccINVHKA.s:1086   .text:0000000000000768 .L0 
     /tmp/ccINVHKA.s:1089   .text:000000000000076c .L0 
     /tmp/ccINVHKA.s:1092   .text:0000000000000770 .L0 
     /tmp/ccINVHKA.s:1095   .text:0000000000000774 .L0 
     /tmp/ccINVHKA.s:1098   .text:0000000000000778 .L0 
     /tmp/ccINVHKA.s:1102   .text:000000000000077c .L0 
     /tmp/ccINVHKA.s:1107   .text:000000000000077c .L0 
     /tmp/ccINVHKA.s:1112   .text:0000000000000780 .L0 
     /tmp/ccINVHKA.s:1117   .text:0000000000000784 .L0 
     /tmp/ccINVHKA.s:1118   .text:0000000000000784 .L0 
     /tmp/ccINVHKA.s:1119   .text:0000000000000784 .L0 
     /tmp/ccINVHKA.s:1121   .text:0000000000000788 .L0 
     /tmp/ccINVHKA.s:1128   .text:0000000000000790 .L0 
     /tmp/ccINVHKA.s:1129   .text:0000000000000790 .L0 
     /tmp/ccINVHKA.s:1133   .text:00000000000007a0 .L0 
     /tmp/ccINVHKA.s:1134   .text:00000000000007a0 .L0 
     /tmp/ccINVHKA.s:1138   .text:00000000000007b0 .L0 
     /tmp/ccINVHKA.s:1139   .text:00000000000007b0 .L0 
     /tmp/ccINVHKA.s:1143   .text:00000000000007c0 .L0 
     /tmp/ccINVHKA.s:1144   .text:00000000000007c0 .L0 
     /tmp/ccINVHKA.s:1148   .text:00000000000007cc .L0 
     /tmp/ccINVHKA.s:1149   .text:00000000000007cc .L0 
     /tmp/ccINVHKA.s:1153   .text:00000000000007dc .L0 
     /tmp/ccINVHKA.s:1154   .text:00000000000007dc .L0 
     /tmp/ccINVHKA.s:1157   .text:00000000000007e4 .L0 
     /tmp/ccINVHKA.s:1158   .text:00000000000007e4 .L0 
     /tmp/ccINVHKA.s:1167   .text:00000000000007ec .L0 
     /tmp/ccINVHKA.s:1168   .text:00000000000007ec .L0 
     /tmp/ccINVHKA.s:1172   .text:00000000000007fc .L0 
     /tmp/ccINVHKA.s:1173   .text:00000000000007fc .L0 
     /tmp/ccINVHKA.s:1178   .text:0000000000000804 .L0 
     /tmp/ccINVHKA.s:1179   .text:0000000000000804 .L0 
     /tmp/ccINVHKA.s:1180   .text:0000000000000804 .L0 
     /tmp/ccINVHKA.s:1181   .text:0000000000000804 .L0 
     /tmp/ccINVHKA.s:1185   .text:0000000000000814 .L0 
     /tmp/ccINVHKA.s:1186   .text:0000000000000814 .L0 
     /tmp/ccINVHKA.s:1190   .text:0000000000000824 .L0 
     /tmp/ccINVHKA.s:1191   .text:0000000000000824 .L0 
     /tmp/ccINVHKA.s:1195   .text:0000000000000834 .L0 
     /tmp/ccINVHKA.s:1196   .text:0000000000000834 .L0 
     /tmp/ccINVHKA.s:1200   .text:0000000000000840 .L0 
     /tmp/ccINVHKA.s:1201   .text:0000000000000840 .L0 
     /tmp/ccINVHKA.s:1205   .text:0000000000000850 .L0 
     /tmp/ccINVHKA.s:1206   .text:0000000000000850 .L0 
     /tmp/ccINVHKA.s:1209   .text:0000000000000858 .L0 
     /tmp/ccINVHKA.s:1210   .text:0000000000000858 .L0 
     /tmp/ccINVHKA.s:1214   .text:0000000000000860 .L0 
     /tmp/ccINVHKA.s:1220   .text:0000000000000860 _ZN8MemAlloc16getUserlandUsageEv
     /tmp/ccINVHKA.s:1223   .text:0000000000000860 .L0 
     /tmp/ccINVHKA.s:1225   .text:0000000000000860 .L0 
     /tmp/ccINVHKA.s:1226   .text:0000000000000864 .L0 
     /tmp/ccINVHKA.s:1228   .text:0000000000000868 .L0 
     /tmp/ccINVHKA.s:1230   .text:000000000000086c .L0 
     /tmp/ccINVHKA.s:1233   .text:000000000000086c .L0 
     /tmp/ccINVHKA.s:1234   .text:000000000000086c .L0 
GAS LISTING /tmp/ccINVHKA.s 			page 44


     /tmp/ccINVHKA.s:1235   .text:000000000000086c .L0 
     /tmp/ccINVHKA.s:1238   .text:0000000000000870 .L0 
     /tmp/ccINVHKA.s:1242   .text:0000000000000874 .L0 
     /tmp/ccINVHKA.s:1243   .text:0000000000000874 .L0 
     /tmp/ccINVHKA.s:1245   .text:0000000000000878 .L0 
     /tmp/ccINVHKA.s:1246   .text:0000000000000878 .L0 
     /tmp/ccINVHKA.s:1248   .text:000000000000087c .L0 
     /tmp/ccINVHKA.s:1251   .text:0000000000000880 .L0 
     /tmp/ccINVHKA.s:1252   .text:0000000000000880 .L0 
     /tmp/ccINVHKA.s:1255   .text:0000000000000884 .L0 
     /tmp/ccINVHKA.s:1258   .text:0000000000000888 .L0 
     /tmp/ccINVHKA.s:1259   .text:000000000000088c .L0 
     /tmp/ccINVHKA.s:1260   .text:000000000000088c .L0 
     /tmp/ccINVHKA.s:1262   .text:0000000000000890 .L0 
     /tmp/ccINVHKA.s:1264   .text:0000000000000894 .L0 
     /tmp/ccINVHKA.s:1278   .text:0000000000000894 _ZN8MemAlloc18printUserlandUsageEv
     /tmp/ccINVHKA.s:1281   .text:0000000000000894 .L0 
     /tmp/ccINVHKA.s:1283   .text:0000000000000894 .L0 
     /tmp/ccINVHKA.s:1284   .text:0000000000000898 .L0 
     /tmp/ccINVHKA.s:1288   .text:00000000000008a4 .L0 
     /tmp/ccINVHKA.s:1289   .text:00000000000008a4 .L0 
     /tmp/ccINVHKA.s:1290   .text:00000000000008a4 .L0 
     /tmp/ccINVHKA.s:1292   .text:00000000000008a8 .L0 
     /tmp/ccINVHKA.s:1294   .text:00000000000008a8 .L0 
     /tmp/ccINVHKA.s:1295   .text:00000000000008a8 .L0 
     /tmp/ccINVHKA.s:1300   .text:00000000000008b4 .L0 
     /tmp/ccINVHKA.s:1301   .text:00000000000008b4 .L0 
     /tmp/ccINVHKA.s:1305   .text:00000000000008c4 .L0 
     /tmp/ccINVHKA.s:1306   .text:00000000000008c4 .L0 
     /tmp/ccINVHKA.s:1310   .text:00000000000008d0 .L0 
     /tmp/ccINVHKA.s:1311   .text:00000000000008d0 .L0 
     /tmp/ccINVHKA.s:1315   .text:00000000000008e0 .L0 
     /tmp/ccINVHKA.s:1316   .text:00000000000008e0 .L0 
     /tmp/ccINVHKA.s:1319   .text:00000000000008e8 .L0 
     /tmp/ccINVHKA.s:1320   .text:00000000000008ec .L0 
     /tmp/ccINVHKA.s:1322   .text:00000000000008f0 .L0 
     /tmp/ccINVHKA.s:1323   .text:00000000000008f0 .L0 
     /tmp/ccINVHKA.s:1325   .text:00000000000008f4 .L0 
     /tmp/ccINVHKA.s:1328   .text:00000000000008f8 .L0 
     /tmp/ccINVHKA.s:1330   .text:00000000000008fc .L0 
     /tmp/ccINVHKA.s:1335   .bss:0000000000000000 .LANCHOR0
     /tmp/ccINVHKA.s:1338   .bss:0000000000000000 _ZGVZN8MemAlloc3getEvE8instance
     /tmp/ccINVHKA.s:1342   .bss:0000000000000008 _ZZN8MemAlloc3getEvE8instance
     /tmp/ccINVHKA.s:1348   .text:00000000000008fc .L0 
     /tmp/ccINVHKA.s:8      .rodata.str1.8:0000000000000000 .LC0
     /tmp/ccINVHKA.s:71     .text:000000000000002c .L0 
     /tmp/ccINVHKA.s:11     .rodata.str1.8:0000000000000028 .LC1
     /tmp/ccINVHKA.s:77     .text:000000000000003c .L0 
     /tmp/ccINVHKA.s:14     .rodata.str1.8:0000000000000038 .LC2
     /tmp/ccINVHKA.s:82     .text:000000000000004c .L0 
     /tmp/ccINVHKA.s:17     .rodata.str1.8:0000000000000048 .LC3
     /tmp/ccINVHKA.s:92     .text:0000000000000068 .L0 
     /tmp/ccINVHKA.s:148    .text:00000000000000a8 .L0 
     /tmp/ccINVHKA.s:154    .text:00000000000000b8 .L0 
     /tmp/ccINVHKA.s:159    .text:00000000000000c8 .L0 
     /tmp/ccINVHKA.s:169    .text:00000000000000e4 .L0 
     /tmp/ccINVHKA.s:213    .text:000000000000012c .L0 
GAS LISTING /tmp/ccINVHKA.s 			page 45


     /tmp/ccINVHKA.s:238    .text:0000000000000168 .L0 
     /tmp/ccINVHKA.s:286    .text:00000000000001bc .L0 
     /tmp/ccINVHKA.s:291    .text:00000000000001cc .L0 
     /tmp/ccINVHKA.s:296    .text:00000000000001dc .L0 
     /tmp/ccINVHKA.s:306    .text:00000000000001f8 .L0 
     /tmp/ccINVHKA.s:334    .text:0000000000000218 .L0 
     /tmp/ccINVHKA.s:338    .text:0000000000000224 .L0 
     /tmp/ccINVHKA.s:351    .text:0000000000000240 .L0 
     /tmp/ccINVHKA.s:355    .text:0000000000000254 .L0 
     /tmp/ccINVHKA.s:358    .text:000000000000025c .L0 
     /tmp/ccINVHKA.s:466    .text:0000000000000304 .L0 
     /tmp/ccINVHKA.s:471    .text:0000000000000314 .L0 
     /tmp/ccINVHKA.s:476    .text:0000000000000324 .L0 
     /tmp/ccINVHKA.s:486    .text:0000000000000340 .L0 
     /tmp/ccINVHKA.s:594    .text:00000000000003ec .L0 
     /tmp/ccINVHKA.s:599    .text:00000000000003fc .L0 
     /tmp/ccINVHKA.s:604    .text:000000000000040c .L0 
     /tmp/ccINVHKA.s:614    .text:0000000000000428 .L0 
     /tmp/ccINVHKA.s:632    .text:0000000000000448 .L0 
     /tmp/ccINVHKA.s:637    .text:0000000000000458 .L0 
     /tmp/ccINVHKA.s:642    .text:0000000000000468 .L0 
     /tmp/ccINVHKA.s:652    .text:0000000000000484 .L0 
     /tmp/ccINVHKA.s:783    .text:0000000000000538 .L0 
     /tmp/ccINVHKA.s:788    .text:0000000000000548 .L0 
     /tmp/ccINVHKA.s:793    .text:0000000000000558 .L0 
     /tmp/ccINVHKA.s:803    .text:0000000000000574 .L0 
     /tmp/ccINVHKA.s:838    .text:00000000000005a4 .L0 
     /tmp/ccINVHKA.s:843    .text:00000000000005b4 .L0 
     /tmp/ccINVHKA.s:848    .text:00000000000005c4 .L0 
     /tmp/ccINVHKA.s:858    .text:00000000000005e0 .L0 
     /tmp/ccINVHKA.s:881    .text:0000000000000600 .L0 
     /tmp/ccINVHKA.s:886    .text:0000000000000610 .L0 
     /tmp/ccINVHKA.s:891    .text:0000000000000620 .L0 
     /tmp/ccINVHKA.s:901    .text:000000000000063c .L0 
     /tmp/ccINVHKA.s:1001   .text:00000000000006c0 .L0 
     /tmp/ccINVHKA.s:1007   .text:00000000000006d0 .L0 
     /tmp/ccINVHKA.s:1012   .text:00000000000006e0 .L0 
     /tmp/ccINVHKA.s:1022   .text:00000000000006fc .L0 
     /tmp/ccINVHKA.s:1129   .text:0000000000000790 .L0 
     /tmp/ccINVHKA.s:1134   .text:00000000000007a0 .L0 
     /tmp/ccINVHKA.s:1139   .text:00000000000007b0 .L0 
     /tmp/ccINVHKA.s:1149   .text:00000000000007cc .L0 
     /tmp/ccINVHKA.s:919    .rodata.str1.8:0000000000000068 .LC4
     /tmp/ccINVHKA.s:1168   .text:00000000000007ec .L0 
     /tmp/ccINVHKA.s:1181   .text:0000000000000804 .L0 
     /tmp/ccINVHKA.s:1186   .text:0000000000000814 .L0 
     /tmp/ccINVHKA.s:1191   .text:0000000000000824 .L0 
     /tmp/ccINVHKA.s:1201   .text:0000000000000840 .L0 
     /tmp/ccINVHKA.s:1269   .rodata.str1.8:00000000000000a0 .LC5
     /tmp/ccINVHKA.s:1301   .text:00000000000008b4 .L0 
     /tmp/ccINVHKA.s:1272   .rodata.str1.8:00000000000000b0 .LC6
     /tmp/ccINVHKA.s:1311   .text:00000000000008d0 .L0 
     /tmp/ccINVHKA.s:57     .text:000000000000001c .L7
     /tmp/ccINVHKA.s:52     .text:0000000000000018 .L3
     /tmp/ccINVHKA.s:134    .text:0000000000000098 .L13
     /tmp/ccINVHKA.s:279    .text:00000000000001bc .L17
     /tmp/ccINVHKA.s:340    .text:0000000000000230 .L24
GAS LISTING /tmp/ccINVHKA.s 			page 46


     /tmp/ccINVHKA.s:434    .text:00000000000002e8 .L39
     /tmp/ccINVHKA.s:456    .text:00000000000002fc .L40
     /tmp/ccINVHKA.s:437    .text:00000000000002ec .L26
     /tmp/ccINVHKA.s:461    .text:0000000000000304 .L47
     /tmp/ccINVHKA.s:568    .text:00000000000003c0 .L38
     /tmp/ccINVHKA.s:589    .text:00000000000003ec .L48
     /tmp/ccINVHKA.s:625    .text:0000000000000448 .L49
     /tmp/ccINVHKA.s:663    .text:00000000000004a4 .L50
     /tmp/ccINVHKA.s:869    .text:0000000000000600 .L28
     /tmp/ccINVHKA.s:497    .text:0000000000000360 .L41
     /tmp/ccINVHKA.s:585    .text:00000000000003e4 .L42
     /tmp/ccINVHKA.s:503    .text:0000000000000364 .L29
     /tmp/ccINVHKA.s:687    .text:00000000000004cc .L43
     /tmp/ccINVHKA.s:769    .text:0000000000000530 .L44
     /tmp/ccINVHKA.s:690    .text:00000000000004d0 .L33
     /tmp/ccINVHKA.s:778    .text:0000000000000538 .L51
     /tmp/ccINVHKA.s:814    .text:0000000000000594 .L35
     /tmp/ccINVHKA.s:833    .text:00000000000005a4 .L52
     /tmp/ccINVHKA.s:709    .text:00000000000004e4 .L36
     /tmp/ccINVHKA.s:1160   .text:00000000000007ec .L54
     /tmp/ccINVHKA.s:995    .text:00000000000006c0 .L63
     /tmp/ccINVHKA.s:1033   .text:000000000000071c .L64
     /tmp/ccINVHKA.s:956    .text:000000000000068c .L60
     /tmp/ccINVHKA.s:1101   .text:000000000000077c .L57
     /tmp/ccINVHKA.s:1124   .text:0000000000000790 .L65
     /tmp/ccINVHKA.s:1045   .text:0000000000000728 .L58
     /tmp/ccINVHKA.s:1256   .text:0000000000000888 .L66
     /tmp/ccINVHKA.s:1240   .text:0000000000000874 .L68
     /tmp/ccINVHKA.s:3158   .debug_abbrev:0000000000000000 .Ldebug_abbrev0
     /tmp/ccINVHKA.s:5052   .debug_str:0000000000000204 .LASF65
     /tmp/ccINVHKA.s:5114   .debug_str:0000000000000456 .LASF66
     /tmp/ccINVHKA.s:4990   .debug_str:0000000000000040 .LASF67
     /tmp/ccINVHKA.s:5      .text:0000000000000000 .Ltext0
     /tmp/ccINVHKA.s:1345   .text:00000000000008fc .Letext0
     /tmp/ccINVHKA.s:4976   .debug_line:0000000000000000 .Ldebug_line0
     /tmp/ccINVHKA.s:5066   .debug_str:0000000000000309 .LASF0
     /tmp/ccINVHKA.s:5034   .debug_str:0000000000000188 .LASF1
     /tmp/ccINVHKA.s:5024   .debug_str:0000000000000137 .LASF2
     /tmp/ccINVHKA.s:4998   .debug_str:000000000000007b .LASF4
     /tmp/ccINVHKA.s:5032   .debug_str:0000000000000176 .LASF3
     /tmp/ccINVHKA.s:4984   .debug_str:000000000000002d .LASF5
     /tmp/ccINVHKA.s:4982   .debug_str:000000000000001a .LASF6
     /tmp/ccINVHKA.s:5018   .debug_str:00000000000000f8 .LASF7
     /tmp/ccINVHKA.s:5072   .debug_str:0000000000000326 .LASF8
     /tmp/ccINVHKA.s:4994   .debug_str:0000000000000065 .LASF9
     /tmp/ccINVHKA.s:5120   .debug_str:000000000000047a .LASF10
     /tmp/ccINVHKA.s:5020   .debug_str:000000000000010b .LASF11
     /tmp/ccINVHKA.s:5104   .debug_str:0000000000000425 .LASF12
     /tmp/ccINVHKA.s:5080   .debug_str:0000000000000366 .LASF13
     /tmp/ccINVHKA.s:5038   .debug_str:00000000000001ac .LASF14
     /tmp/ccINVHKA.s:5006   .debug_str:00000000000000a5 .LASF15
     /tmp/ccINVHKA.s:5074   .debug_str:0000000000000336 .LASF16
     /tmp/ccINVHKA.s:5084   .debug_str:0000000000000387 .LASF33
     /tmp/ccINVHKA.s:5090   .debug_str:00000000000003a2 .LASF68
     /tmp/ccINVHKA.s:5042   .debug_str:00000000000001c5 .LASF20
     /tmp/ccINVHKA.s:4978   .debug_str:0000000000000000 .LASF17
     /tmp/ccINVHKA.s:5112   .debug_str:0000000000000451 .LASF18
GAS LISTING /tmp/ccINVHKA.s 			page 47


     /tmp/ccINVHKA.s:5064   .debug_str:0000000000000304 .LASF19
     /tmp/ccINVHKA.s:5022   .debug_str:000000000000011a .LASF22
     /tmp/ccINVHKA.s:5078   .debug_str:000000000000035c .LASF24
     /tmp/ccINVHKA.s:5094   .debug_str:00000000000003bd .LASF21
     /tmp/ccINVHKA.s:5044   .debug_str:00000000000001ce .LASF23
     /tmp/ccINVHKA.s:5058   .debug_str:00000000000002e6 .LASF25
     /tmp/ccINVHKA.s:5086   .debug_str:0000000000000390 .LASF26
     /tmp/ccINVHKA.s:5098   .debug_str:00000000000003d7 .LASF28
     /tmp/ccINVHKA.s:4996   .debug_str:0000000000000073 .LASF27
     /tmp/ccINVHKA.s:5008   .debug_str:00000000000000bb .LASF29
     /tmp/ccINVHKA.s:4992   .debug_str:0000000000000054 .LASF30
     /tmp/ccINVHKA.s:5030   .debug_str:0000000000000155 .LASF31
     /tmp/ccINVHKA.s:5102   .debug_str:0000000000000412 .LASF69
     /tmp/ccINVHKA.s:5100   .debug_str:00000000000003ef .LASF70
     /tmp/ccINVHKA.s:5054   .debug_str:00000000000002c8 .LASF32
     /tmp/ccINVHKA.s:5036   .debug_str:000000000000019b .LASF34
     /tmp/ccINVHKA.s:5068   .debug_str:0000000000000316 .LASF35
     /tmp/ccINVHKA.s:1221   .text:0000000000000860 .LFB16
     /tmp/ccINVHKA.s:1265   .text:0000000000000894 .LFE16
     /tmp/ccINVHKA.s:5026   .debug_str:0000000000000145 .LASF37
     /tmp/ccINVHKA.s:3927   .debug_loc:0000000000000000 .LLST47
     /tmp/ccINVHKA.s:3941   .debug_loc:0000000000000039 .LLST48
     /tmp/ccINVHKA.s:4988   .debug_str:000000000000003b .LASF36
     /tmp/ccINVHKA.s:926    .text:000000000000065c .LFB15
     /tmp/ccINVHKA.s:1215   .text:0000000000000860 .LFE15
     /tmp/ccINVHKA.s:3953   .debug_loc:0000000000000070 .LLST36
     /tmp/ccINVHKA.s:3975   .debug_loc:00000000000000cf .LLST37
     /tmp/ccINVHKA.s:3997   .debug_loc:000000000000012e .LLST38
     /tmp/ccINVHKA.s:5108   .debug_str:0000000000000440 .LASF38
     /tmp/ccINVHKA.s:4017   .debug_loc:000000000000018b .LLST39
     /tmp/ccINVHKA.s:4894   .debug_ranges:0000000000000000 .Ldebug_ranges0
     /tmp/ccINVHKA.s:5010   .debug_str:00000000000000d3 .LASF39
     /tmp/ccINVHKA.s:4041   .debug_loc:00000000000001fb .LLST43
     /tmp/ccINVHKA.s:1109   .text:0000000000000780 .LBB83
     /tmp/ccINVHKA.s:4059   .debug_loc:0000000000000247 .LLST44
     /tmp/ccINVHKA.s:4074   .debug_loc:0000000000000281 .LLST45
     /tmp/ccINVHKA.s:4089   .debug_loc:00000000000002c9 .LLST46
     /tmp/ccINVHKA.s:1131   .text:00000000000007a0 .LVL152
     /tmp/ccINVHKA.s:1136   .text:00000000000007b0 .LVL153
     /tmp/ccINVHKA.s:1141   .text:00000000000007c0 .LVL154
     /tmp/ccINVHKA.s:1146   .text:00000000000007cc .LVL155
     /tmp/ccINVHKA.s:1151   .text:00000000000007dc .LVL156
     /tmp/ccINVHKA.s:1155   .text:00000000000007e4 .LVL157
     /tmp/ccINVHKA.s:1159   .text:00000000000007ec .LVL158
     /tmp/ccINVHKA.s:1053   .text:000000000000073c .LVL142
     /tmp/ccINVHKA.s:968    .text:00000000000006a8 .LBB78
     /tmp/ccINVHKA.s:4114   .debug_loc:000000000000030d .LLST40
     /tmp/ccINVHKA.s:4129   .debug_loc:0000000000000347 .LLST41
     /tmp/ccINVHKA.s:4144   .debug_loc:000000000000038f .LLST42
     /tmp/ccINVHKA.s:1004   .text:00000000000006d0 .LVL135
     /tmp/ccINVHKA.s:1009   .text:00000000000006e0 .LVL136
     /tmp/ccINVHKA.s:1014   .text:00000000000006f0 .LVL137
     /tmp/ccINVHKA.s:1019   .text:00000000000006fc .LVL138
     /tmp/ccINVHKA.s:1024   .text:000000000000070c .LVL139
     /tmp/ccINVHKA.s:1028   .text:0000000000000714 .LVL140
     /tmp/ccINVHKA.s:1032   .text:000000000000071c .LVL141
     /tmp/ccINVHKA.s:1176   .text:0000000000000804 .LBB93
GAS LISTING /tmp/ccINVHKA.s 			page 48


     /tmp/ccINVHKA.s:1213   .text:0000000000000860 .LBE93
     /tmp/ccINVHKA.s:1183   .text:0000000000000814 .LVL161
     /tmp/ccINVHKA.s:1188   .text:0000000000000824 .LVL162
     /tmp/ccINVHKA.s:1193   .text:0000000000000834 .LVL163
     /tmp/ccINVHKA.s:1198   .text:0000000000000840 .LVL164
     /tmp/ccINVHKA.s:1203   .text:0000000000000850 .LVL165
     /tmp/ccINVHKA.s:1207   .text:0000000000000858 .LVL166
     /tmp/ccINVHKA.s:1211   .text:0000000000000860 .LVL167
     /tmp/ccINVHKA.s:967    .text:00000000000006a8 .LVL129
     /tmp/ccINVHKA.s:1170   .text:00000000000007fc .LVL159
     /tmp/ccINVHKA.s:1174   .text:0000000000000804 .LVL160
     /tmp/ccINVHKA.s:374    .text:0000000000000274 .LFB14
     /tmp/ccINVHKA.s:915    .text:000000000000065c .LFE14
     /tmp/ccINVHKA.s:4169   .debug_loc:00000000000003d3 .LLST12
     /tmp/ccINVHKA.s:4191   .debug_loc:0000000000000432 .LLST13
     /tmp/ccINVHKA.s:5116   .debug_str:0000000000000464 .LASF40
     /tmp/ccINVHKA.s:4231   .debug_loc:00000000000004df .LLST14
     /tmp/ccINVHKA.s:5118   .debug_str:000000000000046f .LASF41
     /tmp/ccINVHKA.s:4246   .debug_loc:0000000000000528 .LLST15
     /tmp/ccINVHKA.s:4257   .debug_loc:000000000000055e .LLST16
     /tmp/ccINVHKA.s:4294   .debug_loc:00000000000005f9 .LLST17
     /tmp/ccINVHKA.s:4318   .debug_loc:0000000000000669 .LLST21
     /tmp/ccINVHKA.s:5062   .debug_str:00000000000002fb .LASF42
     /tmp/ccINVHKA.s:4353   .debug_loc:0000000000000711 .LLST28
     /tmp/ccINVHKA.s:4373   .debug_loc:000000000000075f .LLST29
     /tmp/ccINVHKA.s:691    .text:00000000000004d0 .LBB51
     /tmp/ccINVHKA.s:4380   .debug_loc:0000000000000782 .LLST30
     /tmp/ccINVHKA.s:4395   .debug_loc:00000000000007bc .LLST31
     /tmp/ccINVHKA.s:4410   .debug_loc:0000000000000804 .LLST32
     /tmp/ccINVHKA.s:785    .text:0000000000000548 .LVL102
     /tmp/ccINVHKA.s:790    .text:0000000000000558 .LVL103
     /tmp/ccINVHKA.s:795    .text:0000000000000568 .LVL104
     /tmp/ccINVHKA.s:800    .text:0000000000000574 .LVL105
     /tmp/ccINVHKA.s:805    .text:0000000000000584 .LVL106
     /tmp/ccINVHKA.s:809    .text:000000000000058c .LVL107
     /tmp/ccINVHKA.s:813    .text:0000000000000594 .LVL108
     /tmp/ccINVHKA.s:820    .text:0000000000000598 .LBB55
     /tmp/ccINVHKA.s:4421   .debug_loc:000000000000083a .LLST33
     /tmp/ccINVHKA.s:4436   .debug_loc:0000000000000874 .LLST34
     /tmp/ccINVHKA.s:4451   .debug_loc:00000000000008bc .LLST35
     /tmp/ccINVHKA.s:840    .text:00000000000005b4 .LVL112
     /tmp/ccINVHKA.s:845    .text:00000000000005c4 .LVL113
     /tmp/ccINVHKA.s:850    .text:00000000000005d4 .LVL114
     /tmp/ccINVHKA.s:855    .text:00000000000005e0 .LVL115
     /tmp/ccINVHKA.s:860    .text:00000000000005f0 .LVL116
     /tmp/ccINVHKA.s:864    .text:00000000000005f8 .LVL117
     /tmp/ccINVHKA.s:868    .text:0000000000000600 .LVL118
     /tmp/ccINVHKA.s:505    .text:0000000000000364 .LBB43
     /tmp/ccINVHKA.s:4476   .debug_loc:0000000000000900 .LLST22
     /tmp/ccINVHKA.s:4491   .debug_loc:000000000000093a .LLST23
     /tmp/ccINVHKA.s:4506   .debug_loc:0000000000000982 .LLST24
     /tmp/ccINVHKA.s:596    .text:00000000000003fc .LVL75
     /tmp/ccINVHKA.s:601    .text:000000000000040c .LVL76
     /tmp/ccINVHKA.s:606    .text:000000000000041c .LVL77
     /tmp/ccINVHKA.s:611    .text:0000000000000428 .LVL78
     /tmp/ccINVHKA.s:616    .text:0000000000000438 .LVL79
     /tmp/ccINVHKA.s:620    .text:0000000000000440 .LVL80
GAS LISTING /tmp/ccINVHKA.s 			page 49


     /tmp/ccINVHKA.s:624    .text:0000000000000448 .LVL81
     /tmp/ccINVHKA.s:517    .text:0000000000000370 .LBB46
     /tmp/ccINVHKA.s:4517   .debug_loc:00000000000009b8 .LLST25
     /tmp/ccINVHKA.s:4532   .debug_loc:00000000000009f2 .LLST26
     /tmp/ccINVHKA.s:4547   .debug_loc:0000000000000a3a .LLST27
     /tmp/ccINVHKA.s:634    .text:0000000000000458 .LVL82
     /tmp/ccINVHKA.s:639    .text:0000000000000468 .LVL83
     /tmp/ccINVHKA.s:644    .text:0000000000000478 .LVL84
     /tmp/ccINVHKA.s:649    .text:0000000000000484 .LVL85
     /tmp/ccINVHKA.s:654    .text:0000000000000494 .LVL86
     /tmp/ccINVHKA.s:658    .text:000000000000049c .LVL87
     /tmp/ccINVHKA.s:662    .text:00000000000004a4 .LVL88
     /tmp/ccINVHKA.s:533    .text:0000000000000388 .LVL68
     /tmp/ccINVHKA.s:546    .text:00000000000003a4 .LVL71
     /tmp/ccINVHKA.s:438    .text:00000000000002ec .LBB38
     /tmp/ccINVHKA.s:4577   .debug_loc:0000000000000a92 .LLST18
     /tmp/ccINVHKA.s:4592   .debug_loc:0000000000000acc .LLST19
     /tmp/ccINVHKA.s:4607   .debug_loc:0000000000000b14 .LLST20
     /tmp/ccINVHKA.s:468    .text:0000000000000314 .LVL57
     /tmp/ccINVHKA.s:473    .text:0000000000000324 .LVL58
     /tmp/ccINVHKA.s:478    .text:0000000000000334 .LVL59
     /tmp/ccINVHKA.s:483    .text:0000000000000340 .LVL60
     /tmp/ccINVHKA.s:488    .text:0000000000000350 .LVL61
     /tmp/ccINVHKA.s:492    .text:0000000000000358 .LVL62
     /tmp/ccINVHKA.s:496    .text:0000000000000360 .LVL63
     /tmp/ccINVHKA.s:876    .text:0000000000000600 .LBB66
     /tmp/ccINVHKA.s:913    .text:000000000000065c .LBE66
     /tmp/ccINVHKA.s:883    .text:0000000000000610 .LVL119
     /tmp/ccINVHKA.s:888    .text:0000000000000620 .LVL120
     /tmp/ccINVHKA.s:893    .text:0000000000000630 .LVL121
     /tmp/ccINVHKA.s:898    .text:000000000000063c .LVL122
     /tmp/ccINVHKA.s:903    .text:000000000000064c .LVL123
     /tmp/ccINVHKA.s:907    .text:0000000000000654 .LVL124
     /tmp/ccINVHKA.s:911    .text:000000000000065c .LVL125
     /tmp/ccINVHKA.s:410    .text:00000000000002b8 .LVL46
     /tmp/ccINVHKA.s:422    .text:00000000000002d0 .LVL49
     /tmp/ccINVHKA.s:329    .text:0000000000000218 .LFB13
     /tmp/ccINVHKA.s:368    .text:0000000000000274 .LFE13
     /tmp/ccINVHKA.s:5088   .debug_str:0000000000000399 .LASF43
     /tmp/ccINVHKA.s:353    .text:0000000000000250 .LVL42
     /tmp/ccINVHKA.s:5082   .debug_str:0000000000000376 .LASF71
     /tmp/ccINVHKA.s:189    .text:0000000000000104 .LFB11
     /tmp/ccINVHKA.s:321    .text:0000000000000218 .LFE11
     /tmp/ccINVHKA.s:4618   .debug_loc:0000000000000b4a .LLST10
     /tmp/ccINVHKA.s:256    .text:00000000000001a0 .LBB18
     /tmp/ccINVHKA.s:4640   .debug_loc:0000000000000ba9 .LLST11
     /tmp/ccINVHKA.s:288    .text:00000000000001cc .LVL35
     /tmp/ccINVHKA.s:293    .text:00000000000001dc .LVL36
     /tmp/ccINVHKA.s:298    .text:00000000000001ec .LVL37
     /tmp/ccINVHKA.s:303    .text:00000000000001f8 .LVL38
     /tmp/ccINVHKA.s:308    .text:0000000000000208 .LVL39
     /tmp/ccINVHKA.s:312    .text:0000000000000210 .LVL40
     /tmp/ccINVHKA.s:316    .text:0000000000000218 .LVL41
     /tmp/ccINVHKA.s:217    .text:0000000000000140 .LVL29
     /tmp/ccINVHKA.s:227    .text:0000000000000158 .LVL30
     /tmp/ccINVHKA.s:243    .text:0000000000000184 .LVL31
     /tmp/ccINVHKA.s:1279   .text:0000000000000894 .LFB9
GAS LISTING /tmp/ccINVHKA.s 			page 50


     /tmp/ccINVHKA.s:1331   .text:00000000000008fc .LFE9
     /tmp/ccINVHKA.s:4656   .debug_loc:0000000000000be7 .LLST49
     /tmp/ccINVHKA.s:4670   .debug_loc:0000000000000c20 .LLST50
     /tmp/ccINVHKA.s:1296   .text:00000000000008b0 .LVL175
     /tmp/ccINVHKA.s:1303   .text:00000000000008c4 .LVL177
     /tmp/ccINVHKA.s:1308   .text:00000000000008d0 .LVL178
     /tmp/ccINVHKA.s:1313   .text:00000000000008e0 .LVL179
     /tmp/ccINVHKA.s:1317   .text:00000000000008e8 .LVL180
     /tmp/ccINVHKA.s:5046   .debug_str:00000000000001ec .LASF45
     /tmp/ccINVHKA.s:4980   .debug_str:0000000000000006 .LASF47
     /tmp/ccINVHKA.s:112    .text:0000000000000088 .LFB8
     /tmp/ccINVHKA.s:183    .text:0000000000000104 .LFE8
     /tmp/ccINVHKA.s:4677   .debug_loc:0000000000000c43 .LLST5
     /tmp/ccINVHKA.s:5070   .debug_str:000000000000031b .LASF44
     /tmp/ccINVHKA.s:4702   .debug_loc:0000000000000ca5 .LLST6
     /tmp/ccINVHKA.s:119    .text:000000000000008c .LBB10
     /tmp/ccINVHKA.s:4722   .debug_loc:0000000000000cf4 .LLST7
     /tmp/ccINVHKA.s:4735   .debug_loc:0000000000000d2c .LLST8
     /tmp/ccINVHKA.s:4750   .debug_loc:0000000000000d74 .LLST9
     /tmp/ccINVHKA.s:151    .text:00000000000000b8 .LVL20
     /tmp/ccINVHKA.s:156    .text:00000000000000c8 .LVL21
     /tmp/ccINVHKA.s:161    .text:00000000000000d8 .LVL22
     /tmp/ccINVHKA.s:166    .text:00000000000000e4 .LVL23
     /tmp/ccINVHKA.s:171    .text:00000000000000f4 .LVL24
     /tmp/ccINVHKA.s:175    .text:00000000000000fc .LVL25
     /tmp/ccINVHKA.s:179    .text:0000000000000104 .LVL26
     /tmp/ccINVHKA.s:5040   .debug_str:00000000000001b8 .LASF46
     /tmp/ccINVHKA.s:5004   .debug_str:0000000000000092 .LASF48
     /tmp/ccINVHKA.s:24     .text:0000000000000000 .LFB7
     /tmp/ccINVHKA.s:106    .text:0000000000000088 .LFE7
     /tmp/ccINVHKA.s:4779   .debug_loc:0000000000000dcb .LLST0
     /tmp/ccINVHKA.s:4804   .debug_loc:0000000000000e2d .LLST1
     /tmp/ccINVHKA.s:32     .text:0000000000000004 .LBB4
     /tmp/ccINVHKA.s:4824   .debug_loc:0000000000000e7c .LLST2
     /tmp/ccINVHKA.s:4837   .debug_loc:0000000000000eb4 .LLST3
     /tmp/ccINVHKA.s:4852   .debug_loc:0000000000000efc .LLST4
     /tmp/ccINVHKA.s:74     .text:000000000000003c .LVL7
     /tmp/ccINVHKA.s:79     .text:000000000000004c .LVL8
     /tmp/ccINVHKA.s:84     .text:000000000000005c .LVL9
     /tmp/ccINVHKA.s:89     .text:0000000000000068 .LVL10
     /tmp/ccINVHKA.s:94     .text:0000000000000078 .LVL11
     /tmp/ccINVHKA.s:98     .text:0000000000000080 .LVL12
     /tmp/ccINVHKA.s:102    .text:0000000000000088 .LVL13
     /tmp/ccINVHKA.s:5092   .debug_str:00000000000003b5 .LASF49
     /tmp/ccINVHKA.s:5076   .debug_str:000000000000034c .LASF50
     /tmp/ccINVHKA.s:5012   .debug_str:00000000000000db .LASF51
     /tmp/ccINVHKA.s:5048   .debug_str:00000000000001fa .LASF52
     /tmp/ccINVHKA.s:5050   .debug_str:00000000000001ff .LASF53
     /tmp/ccINVHKA.s:5000   .debug_str:0000000000000082 .LASF54
     /tmp/ccINVHKA.s:5056   .debug_str:00000000000002d6 .LASF55
     /tmp/ccINVHKA.s:5060   .debug_str:00000000000002f1 .LASF57
     /tmp/ccINVHKA.s:5106   .debug_str:0000000000000435 .LASF56
     /tmp/ccINVHKA.s:5014   .debug_str:00000000000000e1 .LASF58
     /tmp/ccINVHKA.s:5096   .debug_str:00000000000003c7 .LASF59
     /tmp/ccINVHKA.s:5028   .debug_str:000000000000014a .LASF60
     /tmp/ccINVHKA.s:5016   .debug_str:00000000000000e8 .LASF61
     /tmp/ccINVHKA.s:5002   .debug_str:0000000000000087 .LASF62
GAS LISTING /tmp/ccINVHKA.s 			page 51


     /tmp/ccINVHKA.s:5110   .debug_str:0000000000000446 .LASF63
     /tmp/ccINVHKA.s:4986   .debug_str:0000000000000034 .LASF64
     /tmp/ccINVHKA.s:1224   .text:0000000000000860 .LVL168
     /tmp/ccINVHKA.s:1239   .text:0000000000000874 .LVL171
     /tmp/ccINVHKA.s:1232   .text:000000000000086c .LVL169
     /tmp/ccINVHKA.s:929    .text:000000000000065c .LVL126
     /tmp/ccINVHKA.s:955    .text:000000000000068c .LVL128
     /tmp/ccINVHKA.s:1090   .text:000000000000076c .LVL145
     /tmp/ccINVHKA.s:1100   .text:000000000000077c .LVL148
     /tmp/ccINVHKA.s:1093   .text:0000000000000770 .LVL146
     /tmp/ccINVHKA.s:951    .text:0000000000000688 .LVL127
     /tmp/ccINVHKA.s:984    .text:00000000000006b4 .LVL131
     /tmp/ccINVHKA.s:990    .text:00000000000006bc .LVL132
     /tmp/ccINVHKA.s:1087   .text:0000000000000768 .LVL144
     /tmp/ccINVHKA.s:1096   .text:0000000000000774 .LVL147
     /tmp/ccINVHKA.s:1078   .text:000000000000075c .LVL143
     /tmp/ccINVHKA.s:1108   .text:0000000000000780 .LVL149
     /tmp/ccINVHKA.s:1114   .text:0000000000000784 .LVL150
     /tmp/ccINVHKA.s:1123   .text:0000000000000790 .LVL151
     /tmp/ccINVHKA.s:973    .text:00000000000006ac .LVL130
     /tmp/ccINVHKA.s:994    .text:00000000000006c0 .LVL133
     /tmp/ccINVHKA.s:1002   .text:00000000000006c8 .LVL134
     /tmp/ccINVHKA.s:377    .text:0000000000000274 .LVL43
     /tmp/ccINVHKA.s:404    .text:00000000000002ac .LVL44
     /tmp/ccINVHKA.s:751    .text:0000000000000514 .LVL96
     /tmp/ccINVHKA.s:768    .text:0000000000000530 .LVL100
     /tmp/ccINVHKA.s:408    .text:00000000000002b0 .LVL45
     /tmp/ccINVHKA.s:412    .text:00000000000002bc .LVL47
     /tmp/ccINVHKA.s:417    .text:00000000000002c0 .LVL48
     /tmp/ccINVHKA.s:443    .text:00000000000002f0 .LVL53
     /tmp/ccINVHKA.s:455    .text:00000000000002fc .LVL55
     /tmp/ccINVHKA.s:754    .text:0000000000000518 .LVL97
     /tmp/ccINVHKA.s:428    .text:00000000000002dc .LVL50
     /tmp/ccINVHKA.s:433    .text:00000000000002e8 .LVL51
     /tmp/ccINVHKA.s:436    .text:00000000000002ec .LVL52
     /tmp/ccINVHKA.s:450    .text:00000000000002f4 .LVL54
     /tmp/ccINVHKA.s:561    .text:00000000000003b8 .LVL72
     /tmp/ccINVHKA.s:567    .text:00000000000003c0 .LVL73
     /tmp/ccINVHKA.s:746    .text:000000000000050c .LVL95
     /tmp/ccINVHKA.s:760    .text:0000000000000520 .LVL99
     /tmp/ccINVHKA.s:537    .text:0000000000000390 .LVL69
     /tmp/ccINVHKA.s:541    .text:0000000000000394 .LVL70
     /tmp/ccINVHKA.s:681    .text:00000000000004c0 .LVL89
     /tmp/ccINVHKA.s:686    .text:00000000000004cc .LVL90
     /tmp/ccINVHKA.s:689    .text:00000000000004d0 .LVL91
     /tmp/ccINVHKA.s:757    .text:000000000000051c .LVL98
     /tmp/ccINVHKA.s:777    .text:0000000000000538 .LVL101
     /tmp/ccINVHKA.s:711    .text:00000000000004e4 .LVL93
     /tmp/ccINVHKA.s:732    .text:0000000000000500 .LVL94
     /tmp/ccINVHKA.s:696    .text:00000000000004d4 .LVL92
     /tmp/ccINVHKA.s:819    .text:0000000000000598 .LVL109
     /tmp/ccINVHKA.s:825    .text:000000000000059c .LVL110
     /tmp/ccINVHKA.s:832    .text:00000000000005a4 .LVL111
     /tmp/ccINVHKA.s:504    .text:0000000000000364 .LVL64
     /tmp/ccINVHKA.s:510    .text:0000000000000368 .LVL65
     /tmp/ccINVHKA.s:588    .text:00000000000003ec .LVL74
     /tmp/ccINVHKA.s:516    .text:0000000000000370 .LVL66
GAS LISTING /tmp/ccINVHKA.s 			page 52


     /tmp/ccINVHKA.s:522    .text:0000000000000374 .LVL67
     /tmp/ccINVHKA.s:460    .text:0000000000000304 .LVL56
     /tmp/ccINVHKA.s:192    .text:0000000000000104 .LVL27
     /tmp/ccINVHKA.s:215    .text:0000000000000138 .LVL28
     /tmp/ccINVHKA.s:272    .text:00000000000001b0 .LVL33
     /tmp/ccINVHKA.s:278    .text:00000000000001bc .LVL34
     /tmp/ccINVHKA.s:255    .text:00000000000001a0 .LVL32
     /tmp/ccINVHKA.s:1282   .text:0000000000000894 .LVL174
     /tmp/ccINVHKA.s:1298   .text:00000000000008b4 .LVL176
     /tmp/ccINVHKA.s:1326   .text:00000000000008f4 .LVL181
     /tmp/ccINVHKA.s:115    .text:0000000000000088 .LVL14
     /tmp/ccINVHKA.s:131    .text:0000000000000094 .LVL17
     /tmp/ccINVHKA.s:133    .text:0000000000000098 .LVL18
     /tmp/ccINVHKA.s:149    .text:00000000000000b0 .LVL19
     /tmp/ccINVHKA.s:118    .text:000000000000008c .LVL15
     /tmp/ccINVHKA.s:124    .text:0000000000000090 .LVL16
     /tmp/ccINVHKA.s:28     .text:0000000000000000 .LVL0
     /tmp/ccINVHKA.s:49     .text:0000000000000014 .LVL3
     /tmp/ccINVHKA.s:51     .text:0000000000000018 .LVL4
     /tmp/ccINVHKA.s:72     .text:0000000000000034 .LVL6
     /tmp/ccINVHKA.s:31     .text:0000000000000004 .LVL1
     /tmp/ccINVHKA.s:38     .text:0000000000000008 .LVL2
     /tmp/ccINVHKA.s:56     .text:000000000000001c .LVL5
     /tmp/ccINVHKA.s:1349   .debug_info:0000000000000000 .Ldebug_info0
     /tmp/ccINVHKA.s:40     .text:0000000000000008 .LBE4
     /tmp/ccINVHKA.s:67     .text:000000000000002c .LBB7
     /tmp/ccINVHKA.s:104    .text:0000000000000088 .LBE7
     /tmp/ccINVHKA.s:126    .text:0000000000000090 .LBE10
     /tmp/ccINVHKA.s:144    .text:00000000000000a8 .LBB13
     /tmp/ccINVHKA.s:181    .text:0000000000000104 .LBE13
     /tmp/ccINVHKA.s:261    .text:00000000000001a4 .LBE18
     /tmp/ccINVHKA.s:282    .text:00000000000001bc .LBB21
     /tmp/ccINVHKA.s:318    .text:0000000000000218 .LBE21
     /tmp/ccINVHKA.s:445    .text:00000000000002f0 .LBE38
     /tmp/ccINVHKA.s:462    .text:0000000000000304 .LBB41
     /tmp/ccINVHKA.s:499    .text:0000000000000360 .LBE41
     /tmp/ccINVHKA.s:500    .text:0000000000000360 .LBB42
     /tmp/ccINVHKA.s:569    .text:00000000000003c0 .LBE42
     /tmp/ccINVHKA.s:573    .text:00000000000003c4 .LBB64
     /tmp/ccINVHKA.s:736    .text:0000000000000500 .LBE64
     /tmp/ccINVHKA.s:771    .text:0000000000000530 .LBB65
     /tmp/ccINVHKA.s:874    .text:0000000000000600 .LBE65
     /tmp/ccINVHKA.s:512    .text:0000000000000368 .LBE43
     /tmp/ccINVHKA.s:590    .text:00000000000003ec .LBB60
     /tmp/ccINVHKA.s:627    .text:0000000000000448 .LBE60
     /tmp/ccINVHKA.s:524    .text:0000000000000374 .LBE46
     /tmp/ccINVHKA.s:628    .text:0000000000000448 .LBB61
     /tmp/ccINVHKA.s:665    .text:00000000000004a4 .LBE61
     /tmp/ccINVHKA.s:667    .text:00000000000004a4 .LBB50
     /tmp/ccINVHKA.s:734    .text:0000000000000500 .LBE50
     /tmp/ccINVHKA.s:773    .text:0000000000000530 .LBB59
     /tmp/ccINVHKA.s:872    .text:0000000000000600 .LBE59
     /tmp/ccINVHKA.s:698    .text:00000000000004d4 .LBE51
     /tmp/ccINVHKA.s:779    .text:0000000000000538 .LBB54
     /tmp/ccINVHKA.s:816    .text:0000000000000594 .LBE54
     /tmp/ccINVHKA.s:827    .text:000000000000059c .LBE55
     /tmp/ccINVHKA.s:834    .text:00000000000005a4 .LBB58
GAS LISTING /tmp/ccINVHKA.s 			page 53


     /tmp/ccINVHKA.s:871    .text:0000000000000600 .LBE58
     /tmp/ccINVHKA.s:975    .text:00000000000006ac .LBE78
     /tmp/ccINVHKA.s:997    .text:00000000000006c0 .LBB88
     /tmp/ccINVHKA.s:1035   .text:000000000000071c .LBE88
     /tmp/ccINVHKA.s:1037   .text:000000000000071c .LBB82
     /tmp/ccINVHKA.s:1073   .text:0000000000000758 .LBE82
     /tmp/ccINVHKA.s:1105   .text:000000000000077c .LBB87
     /tmp/ccINVHKA.s:1163   .text:00000000000007ec .LBE87
     /tmp/ccINVHKA.s:1116   .text:0000000000000784 .LBE83
     /tmp/ccINVHKA.s:1125   .text:0000000000000790 .LBB86
     /tmp/ccINVHKA.s:1162   .text:00000000000007ec .LBE86

UNDEFINED SYMBOLS
_Z9putStringPKc
_Z6putInti
_Z10putNewlinev
_Z10stopKernelv
HEAP_START_ADDR
HEAP_END_ADDR
_Z6putU64m
