GAS LISTING /tmp/ccjEvyGJ.s 			page 1


   1              		.file	"app.cpp"
   2              		.option pic
   3              		.option norelax
   4              		.text
   5              	.Ltext0:
   6              		.align	2
   7              		.globl	_Z3fibi
   9              	_Z3fibi:
  10              	.LFB1:
  11              		.file 1 "src/app.cpp"
   1:src/app.cpp   **** #include "../h/my_console.h"
   2:src/app.cpp   **** #include "../h/c_api.h"
   3:src/app.cpp   **** 
   4:src/app.cpp   **** int fib(int n)
   5:src/app.cpp   **** {
  12              		.loc 1 5 1
  13              		.cfi_startproc
  14              	.LVL0:
  15 0000 130101FE 		addi	sp,sp,-32
  16              		.cfi_def_cfa_offset 32
  17 0004 233C1100 		sd	ra,24(sp)
  18 0008 23388100 		sd	s0,16(sp)
  19 000c 23349100 		sd	s1,8(sp)
  20 0010 23302101 		sd	s2,0(sp)
  21              		.cfi_offset 1, -8
  22              		.cfi_offset 8, -16
  23              		.cfi_offset 9, -24
  24              		.cfi_offset 18, -32
  25 0014 13040102 		addi	s0,sp,32
  26              		.cfi_def_cfa 8, 0
  27 0018 93040500 		mv	s1,a0
   6:src/app.cpp   ****     if(n == 1)
  28              		.loc 1 6 5
  29 001c 93071000 		li	a5,1
  30 0020 6304F500 		beq	a0,a5,.L2
   7:src/app.cpp   ****         return 1;
   8:src/app.cpp   ****     else if (n == 0)
  31              		.loc 1 8 10
  32 0024 63100502 		bnez	a0,.L4
  33              	.LVL1:
  34              	.L2:
   9:src/app.cpp   ****         return 0;
  10:src/app.cpp   ****     else return fib(n-1) + fib(n-2);
  11:src/app.cpp   **** }
  35              		.loc 1 11 1 is_stmt 0
  36 0028 13850400 		mv	a0,s1
  37 002c 83308101 		ld	ra,24(sp)
  38              		.cfi_remember_state
  39              		.cfi_restore 1
  40 0030 03340101 		ld	s0,16(sp)
  41              		.cfi_restore 8
  42              		.cfi_def_cfa 2, 32
  43 0034 83348100 		ld	s1,8(sp)
  44              		.cfi_restore 9
  45 0038 03390100 		ld	s2,0(sp)
  46              		.cfi_restore 18
  47 003c 13010102 		addi	sp,sp,32
GAS LISTING /tmp/ccjEvyGJ.s 			page 2


  48              		.cfi_def_cfa_offset 0
  49 0040 67800000 		jr	ra
  50              	.LVL2:
  51              	.L4:
  52              		.cfi_restore_state
  10:src/app.cpp   **** }
  53              		.loc 1 10 10 is_stmt 1
  10:src/app.cpp   **** }
  54              		.loc 1 10 20 is_stmt 0
  55 0044 1B05F5FF 		addiw	a0,a0,-1
  56              	.LVL3:
  57 0048 97000000 		call	_Z3fibi
  57      E7800000 
  58              	.LVL4:
  59 0050 13090500 		mv	s2,a0
  10:src/app.cpp   **** }
  60              		.loc 1 10 31
  61 0054 1B85E4FF 		addiw	a0,s1,-2
  62 0058 97000000 		call	_Z3fibi
  62      E7800000 
  63              	.LVL5:
  10:src/app.cpp   **** }
  64              		.loc 1 10 35
  65 0060 BB04A900 		addw	s1,s2,a0
  66 0064 6FF05FFC 		j	.L2
  67              		.cfi_endproc
  68              	.LFE1:
  70              		.section	.rodata.str1.8,"aMS",@progbits,1
  71              		.align	3
  72              	.LC0:
  73 0000 4170706C 		.string	"Application started"
  73      69636174 
  73      696F6E20 
  73      73746172 
  73      74656400 
  74 0014 00000000 		.align	3
  75              	.LC1:
  76 0018 3D3D3D3D 		.string	"===================== ASSERT file: "
  76      3D3D3D3D 
  76      3D3D3D3D 
  76      3D3D3D3D 
  76      3D3D3D3D 
  77 003c 00000000 		.align	3
  78              	.LC2:
  79 0040 7372632F 		.string	"src/app.cpp"
  79      6170702E 
  79      63707000 
  80 004c 00000000 		.align	3
  81              	.LC3:
  82 0050 20202020 		.string	"    line: "
  82      6C696E65 
  82      3A2000
  83 005b 00000000 		.align	3
  83      00
  84              	.LC4:
  85 0060 2020203D 		.string	"   ==========================="
  85      3D3D3D3D 
GAS LISTING /tmp/ccjEvyGJ.s 			page 3


  85      3D3D3D3D 
  85      3D3D3D3D 
  85      3D3D3D3D 
  86 007f 00       		.align	3
  87              	.LC5:
  88 0080 66696228 		.string	"fib("
  88      00
  89 0085 000000   		.align	3
  90              	.LC6:
  91 0088 29203D20 		.string	") = "
  91      00
  92 008d 000000   		.align	3
  93              	.LC7:
  94 0090 7265743D 		.string	"ret= "
  94      2000
  95              		.text
  96              		.align	2
  97              		.globl	_Z8userMainv
  99              	_Z8userMainv:
 100              	.LFB2:
  12:src/app.cpp   **** 
  13:src/app.cpp   **** void userMain()
  14:src/app.cpp   **** {
 101              		.loc 1 14 1 is_stmt 1
 102              		.cfi_startproc
 103 0068 130101FC 		addi	sp,sp,-64
 104              		.cfi_def_cfa_offset 64
 105 006c 233C1102 		sd	ra,56(sp)
 106 0070 23388102 		sd	s0,48(sp)
 107 0074 23349102 		sd	s1,40(sp)
 108 0078 23302103 		sd	s2,32(sp)
 109 007c 233C3101 		sd	s3,24(sp)
 110 0080 23384101 		sd	s4,16(sp)
 111 0084 23345101 		sd	s5,8(sp)
 112 0088 23306101 		sd	s6,0(sp)
 113              		.cfi_offset 1, -8
 114              		.cfi_offset 8, -16
 115              		.cfi_offset 9, -24
 116              		.cfi_offset 18, -32
 117              		.cfi_offset 19, -40
 118              		.cfi_offset 20, -48
 119              		.cfi_offset 21, -56
 120              		.cfi_offset 22, -64
 121 008c 13040104 		addi	s0,sp,64
 122              		.cfi_def_cfa 8, 0
  15:src/app.cpp   ****     putString("Application started");
 123              		.loc 1 15 5
 124              		.loc 1 15 14 is_stmt 0
 125 0090 17050000 		lla	a0,.LC0
 125      13050500 
 126 0098 97000000 		call	_Z9putStringPKc@plt
 126      E7800000 
 127              	.LVL6:
  16:src/app.cpp   ****     putNewline();
 128              		.loc 1 16 5 is_stmt 1
 129              		.loc 1 16 15 is_stmt 0
 130 00a0 97000000 		call	_Z10putNewlinev@plt
GAS LISTING /tmp/ccjEvyGJ.s 			page 4


 130      E7800000 
 131              	.LVL7:
  17:src/app.cpp   **** 
  18:src/app.cpp   ****     mem_alloc(6969);
 132              		.loc 1 18 5 is_stmt 1
 133              		.loc 1 18 14 is_stmt 0
 134 00a8 37250000 		li	a0,8192
 135 00ac 130595B3 		addi	a0,a0,-1223
 136 00b0 97000000 		call	_Z9mem_allocm@plt
 136      E7800000 
 137              	.LVL8:
  19:src/app.cpp   **** 
  20:src/app.cpp   ****     const int n = 1000000;
 138              		.loc 1 20 5 is_stmt 1
  21:src/app.cpp   ****     int a, b;
 139              		.loc 1 21 5
  22:src/app.cpp   ****     a = b = n*37;
 140              		.loc 1 22 5
 141              		.loc 1 22 11 is_stmt 0
 142 00b8 B7973402 		li	a5,36999168
 143 00bc 93870734 		addi	a5,a5,832
 144              		.loc 1 22 7
 145 00c0 138A0700 		mv	s4,a5
 146 00c4 6F00C010 		j	.L6
 147              	.LVL9:
 148              	.L14:
 149              	.LBB11:
 150              	.LBB12:
 151              	.LBB13:
 152              		.file 2 "src/../h/my_console.h"
   1:src/../h/my_console.h **** #pragma once
   2:src/../h/my_console.h **** 
   3:src/../h/my_console.h **** #define __DEBUG_MODE
   4:src/../h/my_console.h **** 
   5:src/../h/my_console.h **** #include "../lib/console.h"
   6:src/../h/my_console.h **** #include "../lib/hw.h"
   7:src/../h/my_console.h **** #include "../h/risc.h"
   8:src/../h/my_console.h **** 
   9:src/../h/my_console.h **** void putString(const char* s);
  10:src/../h/my_console.h **** void putInt(int n);
  11:src/../h/my_console.h **** void putNewline();
  12:src/../h/my_console.h **** void putU64(uint64 n);
  13:src/../h/my_console.h **** void putBinary(uint64 n);
  14:src/../h/my_console.h **** void stopKernel();
  15:src/../h/my_console.h **** 
  16:src/../h/my_console.h **** inline void _assert(bool valid, const char* file, int line) // MUST be inline
  17:src/../h/my_console.h **** {
  18:src/../h/my_console.h ****     if(valid)
  19:src/../h/my_console.h ****         return;
  20:src/../h/my_console.h **** 
  21:src/../h/my_console.h ****     putString("===================== ASSERT file: ");
 153              		.loc 2 21 5 is_stmt 1
 154              		.loc 2 21 14 is_stmt 0
 155 00c8 17050000 		lla	a0,.LC1
 155      13050500 
 156 00d0 97000000 		call	_Z9putStringPKc@plt
 156      E7800000 
GAS LISTING /tmp/ccjEvyGJ.s 			page 5


 157              	.LVL10:
  22:src/../h/my_console.h ****     putString(file);
 158              		.loc 2 22 5 is_stmt 1
 159              		.loc 2 22 14 is_stmt 0
 160 00d8 17050000 		lla	a0,.LC2
 160      13050500 
 161 00e0 97000000 		call	_Z9putStringPKc@plt
 161      E7800000 
 162              	.LVL11:
  23:src/../h/my_console.h ****     putString("    line: ");
 163              		.loc 2 23 5 is_stmt 1
 164              		.loc 2 23 14 is_stmt 0
 165 00e8 17050000 		lla	a0,.LC3
 165      13050500 
 166 00f0 97000000 		call	_Z9putStringPKc@plt
 166      E7800000 
 167              	.LVL12:
  24:src/../h/my_console.h ****     putInt(line);
 168              		.loc 2 24 5 is_stmt 1
 169              		.loc 2 24 11 is_stmt 0
 170 00f8 1305B001 		li	a0,27
 171 00fc 97000000 		call	_Z6putInti@plt
 171      E7800000 
 172              	.LVL13:
  25:src/../h/my_console.h ****     putString("   ===========================");
 173              		.loc 2 25 5 is_stmt 1
 174              		.loc 2 25 14 is_stmt 0
 175 0104 17050000 		lla	a0,.LC4
 175      13050500 
 176 010c 97000000 		call	_Z9putStringPKc@plt
 176      E7800000 
 177              	.LVL14:
  26:src/../h/my_console.h ****     putNewline();
 178              		.loc 2 26 5 is_stmt 1
 179              		.loc 2 26 15 is_stmt 0
 180 0114 97000000 		call	_Z10putNewlinev@plt
 180      E7800000 
 181              	.LVL15:
  27:src/../h/my_console.h **** 
  28:src/../h/my_console.h ****     stopKernel();
 182              		.loc 2 28 5 is_stmt 1
 183              		.loc 2 28 15 is_stmt 0
 184 011c 97000000 		call	_Z10stopKernelv@plt
 184      E7800000 
 185              	.LVL16:
 186 0124 6F00C00B 		j	.L7
 187              	.LVL17:
 188              	.L15:
 189              	.LBE13:
 190              	.LBE12:
 191              	.LBB15:
 192              	.LBB16:
 193              	.LBB17:
 194              	.LBB18:
  21:src/../h/my_console.h ****     putString(file);
 195              		.loc 2 21 5 is_stmt 1
  21:src/../h/my_console.h ****     putString(file);
GAS LISTING /tmp/ccjEvyGJ.s 			page 6


 196              		.loc 2 21 14 is_stmt 0
 197 0128 17050000 		lla	a0,.LC1
 197      13050500 
 198 0130 97000000 		call	_Z9putStringPKc@plt
 198      E7800000 
 199              	.LVL18:
  22:src/../h/my_console.h ****     putString("    line: ");
 200              		.loc 2 22 5 is_stmt 1
  22:src/../h/my_console.h ****     putString("    line: ");
 201              		.loc 2 22 14 is_stmt 0
 202 0138 17050000 		lla	a0,.LC2
 202      13050500 
 203 0140 97000000 		call	_Z9putStringPKc@plt
 203      E7800000 
 204              	.LVL19:
  23:src/../h/my_console.h ****     putInt(line);
 205              		.loc 2 23 5 is_stmt 1
  23:src/../h/my_console.h ****     putInt(line);
 206              		.loc 2 23 14 is_stmt 0
 207 0148 17050000 		lla	a0,.LC3
 207      13050500 
 208 0150 97000000 		call	_Z9putStringPKc@plt
 208      E7800000 
 209              	.LVL20:
  24:src/../h/my_console.h ****     putString("   ===========================");
 210              		.loc 2 24 5 is_stmt 1
  24:src/../h/my_console.h ****     putString("   ===========================");
 211              		.loc 2 24 11 is_stmt 0
 212 0158 13057002 		li	a0,39
 213 015c 97000000 		call	_Z6putInti@plt
 213      E7800000 
 214              	.LVL21:
  25:src/../h/my_console.h ****     putNewline();
 215              		.loc 2 25 5 is_stmt 1
  25:src/../h/my_console.h ****     putNewline();
 216              		.loc 2 25 14 is_stmt 0
 217 0164 17050000 		lla	a0,.LC4
 217      13050500 
 218 016c 97000000 		call	_Z9putStringPKc@plt
 218      E7800000 
 219              	.LVL22:
  26:src/../h/my_console.h **** 
 220              		.loc 2 26 5 is_stmt 1
  26:src/../h/my_console.h **** 
 221              		.loc 2 26 15 is_stmt 0
 222 0174 97000000 		call	_Z10putNewlinev@plt
 222      E7800000 
 223              	.LVL23:
 224              		.loc 2 28 5 is_stmt 1
 225              		.loc 2 28 15 is_stmt 0
 226 017c 97000000 		call	_Z10stopKernelv@plt
 226      E7800000 
 227              	.LVL24:
 228              	.L9:
 229              	.LBE18:
 230              	.LBE17:
  23:src/app.cpp   ****     while(true)
GAS LISTING /tmp/ccjEvyGJ.s 			page 7


  24:src/app.cpp   ****     {
  25:src/app.cpp   ****         a++;
  26:src/app.cpp   ****         b++;
  27:src/app.cpp   ****         assert(a == b);
  28:src/app.cpp   **** 
  29:src/app.cpp   ****         if(a % n == 0) {
  30:src/app.cpp   ****             int out = fib(a/n);
  31:src/app.cpp   ****             putString("fib(");
  32:src/app.cpp   ****             putInt(a/n);
  33:src/app.cpp   ****             putString(") = ");
  34:src/app.cpp   ****             putInt(out);
  35:src/app.cpp   ****             putNewline();
  36:src/app.cpp   **** 
  37:src/app.cpp   ****             if(a/n == 38)
  38:src/app.cpp   ****             {
  39:src/app.cpp   ****                 assert(out == 39088169);
  40:src/app.cpp   ****             }
  41:src/app.cpp   **** 
  42:src/app.cpp   ****             uint64 ret = (uint64)test_call(a / n);
 231              		.loc 1 42 13 is_stmt 1
 232              		.loc 1 42 43 is_stmt 0
 233 0184 13050B00 		mv	a0,s6
 234 0188 97000000 		call	_Z9test_callm@plt
 234      E7800000 
 235              	.LVL25:
 236 0190 130A0500 		mv	s4,a0
 237              	.LVL26:
  43:src/app.cpp   ****             putString("ret= ");
 238              		.loc 1 43 13 is_stmt 1
 239              		.loc 1 43 22 is_stmt 0
 240 0194 17050000 		lla	a0,.LC7
 240      13050500 
 241              	.LVL27:
 242 019c 97000000 		call	_Z9putStringPKc@plt
 242      E7800000 
 243              	.LVL28:
  44:src/app.cpp   ****             putU64(ret);
 244              		.loc 1 44 13 is_stmt 1
 245              		.loc 1 44 19 is_stmt 0
 246 01a4 13050A00 		mv	a0,s4
 247 01a8 97000000 		call	_Z6putU64m@plt
 247      E7800000 
 248              	.LVL29:
  45:src/app.cpp   ****             putNewline();
 249              		.loc 1 45 13 is_stmt 1
 250              		.loc 1 45 23 is_stmt 0
 251 01b0 97000000 		call	_Z10putNewlinev@plt
 251      E7800000 
 252              	.LVL30:
  46:src/app.cpp   ****             putNewline();
 253              		.loc 1 46 13 is_stmt 1
 254              		.loc 1 46 23 is_stmt 0
 255 01b8 97000000 		call	_Z10putNewlinev@plt
 255      E7800000 
 256              	.LVL31:
  47:src/app.cpp   **** 
  48:src/app.cpp   ****             assert(ret == (uint64)(a/n * 2));
GAS LISTING /tmp/ccjEvyGJ.s 			page 8


 257              		.loc 1 48 13 is_stmt 1
 258 01c0 9B941400 		slliw	s1,s1,1
 259              	.LVL32:
 260              	.LBB20:
 261              	.LBB21:
  18:src/../h/my_console.h ****         return;
 262              		.loc 2 18 5
 263 01c4 639A440B 		bne	s1,s4,.L13
 264              	.LVL33:
 265              	.L8:
 266              	.LBE21:
 267              	.LBE20:
 268              	.LBE16:
 269              	.LBE15:
 270              	.LBE11:
  14:src/app.cpp   ****     putString("Application started");
 271              		.loc 1 14 1 is_stmt 0
 272 01c8 93870900 		mv	a5,s3
 273 01cc 130A0900 		mv	s4,s2
 274              	.LVL34:
 275              	.L6:
  23:src/app.cpp   ****     {
 276              		.loc 1 23 5 is_stmt 1
 277              	.LBB28:
  25:src/app.cpp   ****         b++;
 278              		.loc 1 25 9
  25:src/app.cpp   ****         b++;
 279              		.loc 1 25 10 is_stmt 0
 280 01d0 9B041A00 		addiw	s1,s4,1
 281 01d4 1B890400 		sext.w	s2,s1
 282              	.LVL35:
  26:src/app.cpp   ****         assert(a == b);
 283              		.loc 1 26 9 is_stmt 1
  26:src/app.cpp   ****         assert(a == b);
 284              		.loc 1 26 10 is_stmt 0
 285 01d8 9B891700 		addiw	s3,a5,1
 286              	.LVL36:
  27:src/app.cpp   **** 
 287              		.loc 1 27 9 is_stmt 1
 288              	.LBB26:
 289              	.LBB14:
  18:src/../h/my_console.h ****         return;
 290              		.loc 2 18 5
 291 01dc E316FAEE 		bne	s4,a5,.L14
 292              	.LVL37:
 293              	.L7:
 294              	.LBE14:
 295              	.LBE26:
  29:src/app.cpp   ****             int out = fib(a/n);
 296              		.loc 1 29 9
 297              	.LBB27:
  29:src/app.cpp   ****             int out = fib(a/n);
 298              		.loc 1 29 14 is_stmt 0
 299 01e0 B7470F00 		li	a5,999424
 300 01e4 9B870724 		addiw	a5,a5,576
 301 01e8 BBE7F402 		remw	a5,s1,a5
  29:src/app.cpp   ****             int out = fib(a/n);
GAS LISTING /tmp/ccjEvyGJ.s 			page 9


 302              		.loc 1 29 9
 303 01ec E39E07FC 		bnez	a5,.L8
 304              	.LBB25:
  30:src/app.cpp   ****             putString("fib(");
 305              		.loc 1 30 13 is_stmt 1
  30:src/app.cpp   ****             putString("fib(");
 306              		.loc 1 30 26 is_stmt 0
 307 01f0 B7470F00 		li	a5,999424
 308 01f4 9B870724 		addiw	a5,a5,576
 309 01f8 BBC4F402 		divw	s1,s1,a5
 310              	.LVL38:
 311 01fc 1B8B0400 		sext.w	s6,s1
 312 0200 13050B00 		mv	a0,s6
 313 0204 97000000 		call	_Z3fibi
 313      E7800000 
 314              	.LVL39:
 315 020c 930A0500 		mv	s5,a0
 316              	.LVL40:
  31:src/app.cpp   ****             putInt(a/n);
 317              		.loc 1 31 13 is_stmt 1
  31:src/app.cpp   ****             putInt(a/n);
 318              		.loc 1 31 22 is_stmt 0
 319 0210 17050000 		lla	a0,.LC5
 319      13050500 
 320 0218 97000000 		call	_Z9putStringPKc@plt
 320      E7800000 
 321              	.LVL41:
  32:src/app.cpp   ****             putString(") = ");
 322              		.loc 1 32 13 is_stmt 1
  32:src/app.cpp   ****             putString(") = ");
 323              		.loc 1 32 19 is_stmt 0
 324 0220 13050B00 		mv	a0,s6
 325 0224 97000000 		call	_Z6putInti@plt
 325      E7800000 
 326              	.LVL42:
  33:src/app.cpp   ****             putInt(out);
 327              		.loc 1 33 13 is_stmt 1
  33:src/app.cpp   ****             putInt(out);
 328              		.loc 1 33 22 is_stmt 0
 329 022c 17050000 		lla	a0,.LC6
 329      13050500 
 330 0234 97000000 		call	_Z9putStringPKc@plt
 330      E7800000 
 331              	.LVL43:
  34:src/app.cpp   ****             putNewline();
 332              		.loc 1 34 13 is_stmt 1
  34:src/app.cpp   ****             putNewline();
 333              		.loc 1 34 19 is_stmt 0
 334 023c 13850A00 		mv	a0,s5
 335 0240 97000000 		call	_Z6putInti@plt
 335      E7800000 
 336              	.LVL44:
  35:src/app.cpp   **** 
 337              		.loc 1 35 13 is_stmt 1
  35:src/app.cpp   **** 
 338              		.loc 1 35 23 is_stmt 0
 339 0248 97000000 		call	_Z10putNewlinev@plt
GAS LISTING /tmp/ccjEvyGJ.s 			page 10


 339      E7800000 
 340              	.LVL45:
  37:src/app.cpp   ****             {
 341              		.loc 1 37 13 is_stmt 1
 342 0250 B737BCFD 		li	a5,-37998592
 343 0254 9B8717A8 		addiw	a5,a5,-1407
 344 0258 BB874701 		addw	a5,a5,s4
 345 025c 37470F00 		li	a4,999424
 346 0260 1307F723 		addi	a4,a4,575
 347 0264 E360F7F2 		bgtu	a5,a4,.L9
  39:src/app.cpp   ****             }
 348              		.loc 1 39 17
 349 0268 B7775402 		li	a5,39088128
 350 026c 93879702 		addi	a5,a5,41
 351              	.LVL46:
 352              	.LBB23:
 353              	.LBB19:
  18:src/../h/my_console.h ****         return;
 354              		.loc 2 18 5
 355 0270 E38AFAF0 		beq	s5,a5,.L9
 356 0274 6FF05FEB 		j	.L15
 357              	.LVL47:
 358              	.L13:
 359              	.LBE19:
 360              	.LBE23:
 361              	.LBB24:
 362              	.LBB22:
  21:src/../h/my_console.h ****     putString(file);
 363              		.loc 2 21 5
  21:src/../h/my_console.h ****     putString(file);
 364              		.loc 2 21 14 is_stmt 0
 365 0278 17050000 		lla	a0,.LC1
 365      13050500 
 366 0280 97000000 		call	_Z9putStringPKc@plt
 366      E7800000 
 367              	.LVL48:
  22:src/../h/my_console.h ****     putString("    line: ");
 368              		.loc 2 22 5 is_stmt 1
  22:src/../h/my_console.h ****     putString("    line: ");
 369              		.loc 2 22 14 is_stmt 0
 370 0288 17050000 		lla	a0,.LC2
 370      13050500 
 371 0290 97000000 		call	_Z9putStringPKc@plt
 371      E7800000 
 372              	.LVL49:
  23:src/../h/my_console.h ****     putInt(line);
 373              		.loc 2 23 5 is_stmt 1
  23:src/../h/my_console.h ****     putInt(line);
 374              		.loc 2 23 14 is_stmt 0
 375 0298 17050000 		lla	a0,.LC3
 375      13050500 
 376 02a0 97000000 		call	_Z9putStringPKc@plt
 376      E7800000 
 377              	.LVL50:
  24:src/../h/my_console.h ****     putString("   ===========================");
 378              		.loc 2 24 5 is_stmt 1
  24:src/../h/my_console.h ****     putString("   ===========================");
GAS LISTING /tmp/ccjEvyGJ.s 			page 11


 379              		.loc 2 24 11 is_stmt 0
 380 02a8 13050003 		li	a0,48
 381 02ac 97000000 		call	_Z6putInti@plt
 381      E7800000 
 382              	.LVL51:
  25:src/../h/my_console.h ****     putNewline();
 383              		.loc 2 25 5 is_stmt 1
  25:src/../h/my_console.h ****     putNewline();
 384              		.loc 2 25 14 is_stmt 0
 385 02b4 17050000 		lla	a0,.LC4
 385      13050500 
 386 02bc 97000000 		call	_Z9putStringPKc@plt
 386      E7800000 
 387              	.LVL52:
  26:src/../h/my_console.h **** 
 388              		.loc 2 26 5 is_stmt 1
  26:src/../h/my_console.h **** 
 389              		.loc 2 26 15 is_stmt 0
 390 02c4 97000000 		call	_Z10putNewlinev@plt
 390      E7800000 
 391              	.LVL53:
 392              		.loc 2 28 5 is_stmt 1
 393              		.loc 2 28 15 is_stmt 0
 394 02cc 97000000 		call	_Z10stopKernelv@plt
 394      E7800000 
 395              	.LVL54:
 396 02d4 6FF05FEF 		j	.L8
 397              	.LBE22:
 398              	.LBE24:
 399              	.LBE25:
 400              	.LBE27:
 401              	.LBE28:
 402              		.cfi_endproc
 403              	.LFE2:
 405              	.Letext0:
 406              		.file 3 "src/../h/../lib/hw.h"
 407              		.file 4 "src/../h/c_api.h"
GAS LISTING /tmp/ccjEvyGJ.s 			page 12


DEFINED SYMBOLS
                            *ABS*:0000000000000000 app.cpp
     /tmp/ccjEvyGJ.s:9      .text:0000000000000000 _Z3fibi
     /tmp/ccjEvyGJ.s:13     .text:0000000000000000 .L0 
     /tmp/ccjEvyGJ.s:15     .text:0000000000000000 .L0 
     /tmp/ccjEvyGJ.s:16     .text:0000000000000004 .L0 
     /tmp/ccjEvyGJ.s:21     .text:0000000000000014 .L0 
     /tmp/ccjEvyGJ.s:22     .text:0000000000000014 .L0 
     /tmp/ccjEvyGJ.s:23     .text:0000000000000014 .L0 
     /tmp/ccjEvyGJ.s:24     .text:0000000000000014 .L0 
     /tmp/ccjEvyGJ.s:26     .text:0000000000000018 .L0 
     /tmp/ccjEvyGJ.s:29     .text:000000000000001c .L0 
     /tmp/ccjEvyGJ.s:32     .text:0000000000000024 .L0 
     /tmp/ccjEvyGJ.s:36     .text:0000000000000028 .L0 
     /tmp/ccjEvyGJ.s:38     .text:0000000000000030 .L0 
     /tmp/ccjEvyGJ.s:39     .text:0000000000000030 .L0 
     /tmp/ccjEvyGJ.s:41     .text:0000000000000034 .L0 
     /tmp/ccjEvyGJ.s:42     .text:0000000000000034 .L0 
     /tmp/ccjEvyGJ.s:44     .text:0000000000000038 .L0 
     /tmp/ccjEvyGJ.s:46     .text:000000000000003c .L0 
     /tmp/ccjEvyGJ.s:48     .text:0000000000000040 .L0 
     /tmp/ccjEvyGJ.s:52     .text:0000000000000044 .L0 
     /tmp/ccjEvyGJ.s:54     .text:0000000000000044 .L0 
     /tmp/ccjEvyGJ.s:55     .text:0000000000000044 .L0 
     /tmp/ccjEvyGJ.s:61     .text:0000000000000054 .L0 
     /tmp/ccjEvyGJ.s:65     .text:0000000000000060 .L0 
     /tmp/ccjEvyGJ.s:67     .text:0000000000000068 .L0 
     /tmp/ccjEvyGJ.s:99     .text:0000000000000068 _Z8userMainv
     /tmp/ccjEvyGJ.s:102    .text:0000000000000068 .L0 
     /tmp/ccjEvyGJ.s:103    .text:0000000000000068 .L0 
     /tmp/ccjEvyGJ.s:104    .text:000000000000006c .L0 
     /tmp/ccjEvyGJ.s:113    .text:000000000000008c .L0 
     /tmp/ccjEvyGJ.s:114    .text:000000000000008c .L0 
     /tmp/ccjEvyGJ.s:115    .text:000000000000008c .L0 
     /tmp/ccjEvyGJ.s:116    .text:000000000000008c .L0 
     /tmp/ccjEvyGJ.s:117    .text:000000000000008c .L0 
     /tmp/ccjEvyGJ.s:118    .text:000000000000008c .L0 
     /tmp/ccjEvyGJ.s:119    .text:000000000000008c .L0 
     /tmp/ccjEvyGJ.s:120    .text:000000000000008c .L0 
     /tmp/ccjEvyGJ.s:122    .text:0000000000000090 .L0 
     /tmp/ccjEvyGJ.s:124    .text:0000000000000090 .L0 
     /tmp/ccjEvyGJ.s:125    .text:0000000000000090 .L0 
     /tmp/ccjEvyGJ.s:129    .text:00000000000000a0 .L0 
     /tmp/ccjEvyGJ.s:130    .text:00000000000000a0 .L0 
     /tmp/ccjEvyGJ.s:133    .text:00000000000000a8 .L0 
     /tmp/ccjEvyGJ.s:134    .text:00000000000000a8 .L0 
     /tmp/ccjEvyGJ.s:139    .text:00000000000000b8 .L0 
     /tmp/ccjEvyGJ.s:140    .text:00000000000000b8 .L0 
     /tmp/ccjEvyGJ.s:141    .text:00000000000000b8 .L0 
     /tmp/ccjEvyGJ.s:142    .text:00000000000000b8 .L0 
     /tmp/ccjEvyGJ.s:145    .text:00000000000000c0 .L0 
     /tmp/ccjEvyGJ.s:154    .text:00000000000000c8 .L0 
     /tmp/ccjEvyGJ.s:155    .text:00000000000000c8 .L0 
     /tmp/ccjEvyGJ.s:159    .text:00000000000000d8 .L0 
     /tmp/ccjEvyGJ.s:160    .text:00000000000000d8 .L0 
     /tmp/ccjEvyGJ.s:164    .text:00000000000000e8 .L0 
     /tmp/ccjEvyGJ.s:165    .text:00000000000000e8 .L0 
GAS LISTING /tmp/ccjEvyGJ.s 			page 13


     /tmp/ccjEvyGJ.s:169    .text:00000000000000f8 .L0 
     /tmp/ccjEvyGJ.s:170    .text:00000000000000f8 .L0 
     /tmp/ccjEvyGJ.s:174    .text:0000000000000104 .L0 
     /tmp/ccjEvyGJ.s:175    .text:0000000000000104 .L0 
     /tmp/ccjEvyGJ.s:179    .text:0000000000000114 .L0 
     /tmp/ccjEvyGJ.s:180    .text:0000000000000114 .L0 
     /tmp/ccjEvyGJ.s:183    .text:000000000000011c .L0 
     /tmp/ccjEvyGJ.s:184    .text:000000000000011c .L0 
     /tmp/ccjEvyGJ.s:196    .text:0000000000000128 .L0 
     /tmp/ccjEvyGJ.s:197    .text:0000000000000128 .L0 
     /tmp/ccjEvyGJ.s:201    .text:0000000000000138 .L0 
     /tmp/ccjEvyGJ.s:202    .text:0000000000000138 .L0 
     /tmp/ccjEvyGJ.s:206    .text:0000000000000148 .L0 
     /tmp/ccjEvyGJ.s:207    .text:0000000000000148 .L0 
     /tmp/ccjEvyGJ.s:211    .text:0000000000000158 .L0 
     /tmp/ccjEvyGJ.s:212    .text:0000000000000158 .L0 
     /tmp/ccjEvyGJ.s:216    .text:0000000000000164 .L0 
     /tmp/ccjEvyGJ.s:217    .text:0000000000000164 .L0 
     /tmp/ccjEvyGJ.s:221    .text:0000000000000174 .L0 
     /tmp/ccjEvyGJ.s:222    .text:0000000000000174 .L0 
     /tmp/ccjEvyGJ.s:225    .text:000000000000017c .L0 
     /tmp/ccjEvyGJ.s:226    .text:000000000000017c .L0 
     /tmp/ccjEvyGJ.s:232    .text:0000000000000184 .L0 
     /tmp/ccjEvyGJ.s:233    .text:0000000000000184 .L0 
     /tmp/ccjEvyGJ.s:239    .text:0000000000000194 .L0 
     /tmp/ccjEvyGJ.s:240    .text:0000000000000194 .L0 
     /tmp/ccjEvyGJ.s:245    .text:00000000000001a4 .L0 
     /tmp/ccjEvyGJ.s:246    .text:00000000000001a4 .L0 
     /tmp/ccjEvyGJ.s:250    .text:00000000000001b0 .L0 
     /tmp/ccjEvyGJ.s:251    .text:00000000000001b0 .L0 
     /tmp/ccjEvyGJ.s:254    .text:00000000000001b8 .L0 
     /tmp/ccjEvyGJ.s:255    .text:00000000000001b8 .L0 
     /tmp/ccjEvyGJ.s:258    .text:00000000000001c0 .L0 
     /tmp/ccjEvyGJ.s:263    .text:00000000000001c4 .L0 
     /tmp/ccjEvyGJ.s:272    .text:00000000000001c8 .L0 
     /tmp/ccjEvyGJ.s:278    .text:00000000000001d0 .L0 
     /tmp/ccjEvyGJ.s:279    .text:00000000000001d0 .L0 
     /tmp/ccjEvyGJ.s:280    .text:00000000000001d0 .L0 
     /tmp/ccjEvyGJ.s:284    .text:00000000000001d8 .L0 
     /tmp/ccjEvyGJ.s:285    .text:00000000000001d8 .L0 
     /tmp/ccjEvyGJ.s:290    .text:00000000000001dc .L0 
     /tmp/ccjEvyGJ.s:291    .text:00000000000001dc .L0 
     /tmp/ccjEvyGJ.s:298    .text:00000000000001e0 .L0 
     /tmp/ccjEvyGJ.s:299    .text:00000000000001e0 .L0 
     /tmp/ccjEvyGJ.s:303    .text:00000000000001ec .L0 
     /tmp/ccjEvyGJ.s:306    .text:00000000000001f0 .L0 
     /tmp/ccjEvyGJ.s:307    .text:00000000000001f0 .L0 
     /tmp/ccjEvyGJ.s:318    .text:0000000000000210 .L0 
     /tmp/ccjEvyGJ.s:319    .text:0000000000000210 .L0 
     /tmp/ccjEvyGJ.s:323    .text:0000000000000220 .L0 
     /tmp/ccjEvyGJ.s:324    .text:0000000000000220 .L0 
     /tmp/ccjEvyGJ.s:328    .text:000000000000022c .L0 
     /tmp/ccjEvyGJ.s:329    .text:000000000000022c .L0 
     /tmp/ccjEvyGJ.s:333    .text:000000000000023c .L0 
     /tmp/ccjEvyGJ.s:334    .text:000000000000023c .L0 
     /tmp/ccjEvyGJ.s:338    .text:0000000000000248 .L0 
     /tmp/ccjEvyGJ.s:339    .text:0000000000000248 .L0 
GAS LISTING /tmp/ccjEvyGJ.s 			page 14


     /tmp/ccjEvyGJ.s:342    .text:0000000000000250 .L0 
     /tmp/ccjEvyGJ.s:349    .text:0000000000000268 .L0 
     /tmp/ccjEvyGJ.s:355    .text:0000000000000270 .L0 
     /tmp/ccjEvyGJ.s:364    .text:0000000000000278 .L0 
     /tmp/ccjEvyGJ.s:365    .text:0000000000000278 .L0 
     /tmp/ccjEvyGJ.s:369    .text:0000000000000288 .L0 
     /tmp/ccjEvyGJ.s:370    .text:0000000000000288 .L0 
     /tmp/ccjEvyGJ.s:374    .text:0000000000000298 .L0 
     /tmp/ccjEvyGJ.s:375    .text:0000000000000298 .L0 
     /tmp/ccjEvyGJ.s:379    .text:00000000000002a8 .L0 
     /tmp/ccjEvyGJ.s:380    .text:00000000000002a8 .L0 
     /tmp/ccjEvyGJ.s:384    .text:00000000000002b4 .L0 
     /tmp/ccjEvyGJ.s:385    .text:00000000000002b4 .L0 
     /tmp/ccjEvyGJ.s:389    .text:00000000000002c4 .L0 
     /tmp/ccjEvyGJ.s:390    .text:00000000000002c4 .L0 
     /tmp/ccjEvyGJ.s:393    .text:00000000000002cc .L0 
     /tmp/ccjEvyGJ.s:394    .text:00000000000002cc .L0 
     /tmp/ccjEvyGJ.s:402    .text:00000000000002d8 .L0 
     /tmp/ccjEvyGJ.s:408    .text:00000000000002d8 .L0 
     /tmp/ccjEvyGJ.s:72     .rodata.str1.8:0000000000000000 .LC0
     /tmp/ccjEvyGJ.s:125    .text:0000000000000090 .L0 
     /tmp/ccjEvyGJ.s:75     .rodata.str1.8:0000000000000018 .LC1
     /tmp/ccjEvyGJ.s:155    .text:00000000000000c8 .L0 
     /tmp/ccjEvyGJ.s:78     .rodata.str1.8:0000000000000040 .LC2
     /tmp/ccjEvyGJ.s:160    .text:00000000000000d8 .L0 
     /tmp/ccjEvyGJ.s:81     .rodata.str1.8:0000000000000050 .LC3
     /tmp/ccjEvyGJ.s:165    .text:00000000000000e8 .L0 
     /tmp/ccjEvyGJ.s:84     .rodata.str1.8:0000000000000060 .LC4
     /tmp/ccjEvyGJ.s:175    .text:0000000000000104 .L0 
     /tmp/ccjEvyGJ.s:197    .text:0000000000000128 .L0 
     /tmp/ccjEvyGJ.s:202    .text:0000000000000138 .L0 
     /tmp/ccjEvyGJ.s:207    .text:0000000000000148 .L0 
     /tmp/ccjEvyGJ.s:217    .text:0000000000000164 .L0 
     /tmp/ccjEvyGJ.s:93     .rodata.str1.8:0000000000000090 .LC7
     /tmp/ccjEvyGJ.s:240    .text:0000000000000194 .L0 
     /tmp/ccjEvyGJ.s:87     .rodata.str1.8:0000000000000080 .LC5
     /tmp/ccjEvyGJ.s:319    .text:0000000000000210 .L0 
     /tmp/ccjEvyGJ.s:90     .rodata.str1.8:0000000000000088 .LC6
     /tmp/ccjEvyGJ.s:329    .text:000000000000022c .L0 
     /tmp/ccjEvyGJ.s:365    .text:0000000000000278 .L0 
     /tmp/ccjEvyGJ.s:370    .text:0000000000000288 .L0 
     /tmp/ccjEvyGJ.s:375    .text:0000000000000298 .L0 
     /tmp/ccjEvyGJ.s:385    .text:00000000000002b4 .L0 
     /tmp/ccjEvyGJ.s:34     .text:0000000000000028 .L2
     /tmp/ccjEvyGJ.s:51     .text:0000000000000044 .L4
     /tmp/ccjEvyGJ.s:275    .text:00000000000001d0 .L6
     /tmp/ccjEvyGJ.s:293    .text:00000000000001e0 .L7
     /tmp/ccjEvyGJ.s:358    .text:0000000000000278 .L13
     /tmp/ccjEvyGJ.s:148    .text:00000000000000c8 .L14
     /tmp/ccjEvyGJ.s:265    .text:00000000000001c8 .L8
     /tmp/ccjEvyGJ.s:228    .text:0000000000000184 .L9
     /tmp/ccjEvyGJ.s:188    .text:0000000000000128 .L15
     /tmp/ccjEvyGJ.s:1072   .debug_abbrev:0000000000000000 .Ldebug_abbrev0
     /tmp/ccjEvyGJ.s:1821   .debug_str:0000000000000176 .LASF36
     /tmp/ccjEvyGJ.s:1827   .debug_str:000000000000025a .LASF37
     /tmp/ccjEvyGJ.s:1771   .debug_str:000000000000002e .LASF38
     /tmp/ccjEvyGJ.s:5      .text:0000000000000000 .Ltext0
GAS LISTING /tmp/ccjEvyGJ.s 			page 15


     /tmp/ccjEvyGJ.s:405    .text:00000000000002d8 .Letext0
     /tmp/ccjEvyGJ.s:1759   .debug_line:0000000000000000 .Ldebug_line0
     /tmp/ccjEvyGJ.s:1809   .debug_str:000000000000012a .LASF0
     /tmp/ccjEvyGJ.s:1797   .debug_str:00000000000000d3 .LASF1
     /tmp/ccjEvyGJ.s:1789   .debug_str:000000000000009c .LASF2
     /tmp/ccjEvyGJ.s:1775   .debug_str:0000000000000058 .LASF4
     /tmp/ccjEvyGJ.s:1795   .debug_str:00000000000000c1 .LASF3
     /tmp/ccjEvyGJ.s:1765   .debug_str:0000000000000018 .LASF5
     /tmp/ccjEvyGJ.s:1839   .debug_str:000000000000029c .LASF6
     /tmp/ccjEvyGJ.s:1783   .debug_str:0000000000000079 .LASF7
     /tmp/ccjEvyGJ.s:1817   .debug_str:0000000000000150 .LASF8
     /tmp/ccjEvyGJ.s:1761   .debug_str:0000000000000000 .LASF9
     /tmp/ccjEvyGJ.s:1847   .debug_str:00000000000002d1 .LASF10
     /tmp/ccjEvyGJ.s:1815   .debug_str:0000000000000141 .LASF11
     /tmp/ccjEvyGJ.s:1833   .debug_str:0000000000000274 .LASF12
     /tmp/ccjEvyGJ.s:1825   .debug_str:000000000000024a .LASF13
     /tmp/ccjEvyGJ.s:1793   .debug_str:00000000000000b5 .LASF14
     /tmp/ccjEvyGJ.s:1773   .debug_str:0000000000000042 .LASF15
     /tmp/ccjEvyGJ.s:1819   .debug_str:0000000000000160 .LASF16
     /tmp/ccjEvyGJ.s:1807   .debug_str:0000000000000121 .LASF39
     /tmp/ccjEvyGJ.s:1843   .debug_str:00000000000002bd .LASF40
     /tmp/ccjEvyGJ.s:100    .text:0000000000000068 .LFB2
     /tmp/ccjEvyGJ.s:403    .text:00000000000002d8 .LFE2
     /tmp/ccjEvyGJ.s:1443   .debug_loc:0000000000000000 .LLST1
     /tmp/ccjEvyGJ.s:1472   .debug_loc:0000000000000087 .LLST2
     /tmp/ccjEvyGJ.s:1733   .debug_ranges:0000000000000000 .Ldebug_ranges0
     /tmp/ccjEvyGJ.s:1497   .debug_loc:00000000000000ec .LLST6
     /tmp/ccjEvyGJ.s:1508   .debug_loc:0000000000000122 .LLST7
     /tmp/ccjEvyGJ.s:193    .text:0000000000000128 .LBB17
     /tmp/ccjEvyGJ.s:1523   .debug_loc:000000000000016b .LLST8
     /tmp/ccjEvyGJ.s:1538   .debug_loc:00000000000001a5 .LLST9
     /tmp/ccjEvyGJ.s:1553   .debug_loc:00000000000001ed .LLST10
     /tmp/ccjEvyGJ.s:199    .text:0000000000000138 .LVL18
     /tmp/ccjEvyGJ.s:204    .text:0000000000000148 .LVL19
     /tmp/ccjEvyGJ.s:209    .text:0000000000000158 .LVL20
     /tmp/ccjEvyGJ.s:214    .text:0000000000000164 .LVL21
     /tmp/ccjEvyGJ.s:219    .text:0000000000000174 .LVL22
     /tmp/ccjEvyGJ.s:223    .text:000000000000017c .LVL23
     /tmp/ccjEvyGJ.s:227    .text:0000000000000184 .LVL24
     /tmp/ccjEvyGJ.s:260    .text:00000000000001c4 .LBB20
     /tmp/ccjEvyGJ.s:1587   .debug_loc:000000000000024c .LLST11
     /tmp/ccjEvyGJ.s:1602   .debug_loc:0000000000000286 .LLST12
     /tmp/ccjEvyGJ.s:1617   .debug_loc:00000000000002ce .LLST13
     /tmp/ccjEvyGJ.s:367    .text:0000000000000288 .LVL48
     /tmp/ccjEvyGJ.s:372    .text:0000000000000298 .LVL49
     /tmp/ccjEvyGJ.s:377    .text:00000000000002a8 .LVL50
     /tmp/ccjEvyGJ.s:382    .text:00000000000002b4 .LVL51
     /tmp/ccjEvyGJ.s:387    .text:00000000000002c4 .LVL52
     /tmp/ccjEvyGJ.s:391    .text:00000000000002cc .LVL53
     /tmp/ccjEvyGJ.s:395    .text:00000000000002d4 .LVL54
     /tmp/ccjEvyGJ.s:235    .text:0000000000000190 .LVL25
     /tmp/ccjEvyGJ.s:243    .text:00000000000001a4 .LVL28
     /tmp/ccjEvyGJ.s:248    .text:00000000000001b0 .LVL29
     /tmp/ccjEvyGJ.s:252    .text:00000000000001b8 .LVL30
     /tmp/ccjEvyGJ.s:256    .text:00000000000001c0 .LVL31
     /tmp/ccjEvyGJ.s:314    .text:000000000000020c .LVL39
     /tmp/ccjEvyGJ.s:321    .text:0000000000000220 .LVL41
GAS LISTING /tmp/ccjEvyGJ.s 			page 16


     /tmp/ccjEvyGJ.s:326    .text:000000000000022c .LVL42
     /tmp/ccjEvyGJ.s:331    .text:000000000000023c .LVL43
     /tmp/ccjEvyGJ.s:336    .text:0000000000000248 .LVL44
     /tmp/ccjEvyGJ.s:340    .text:0000000000000250 .LVL45
     /tmp/ccjEvyGJ.s:150    .text:00000000000000c8 .LBB12
     /tmp/ccjEvyGJ.s:1642   .debug_loc:0000000000000312 .LLST3
     /tmp/ccjEvyGJ.s:1655   .debug_loc:000000000000034a .LLST4
     /tmp/ccjEvyGJ.s:1670   .debug_loc:0000000000000392 .LLST5
     /tmp/ccjEvyGJ.s:157    .text:00000000000000d8 .LVL10
     /tmp/ccjEvyGJ.s:162    .text:00000000000000e8 .LVL11
     /tmp/ccjEvyGJ.s:167    .text:00000000000000f8 .LVL12
     /tmp/ccjEvyGJ.s:172    .text:0000000000000104 .LVL13
     /tmp/ccjEvyGJ.s:177    .text:0000000000000114 .LVL14
     /tmp/ccjEvyGJ.s:181    .text:000000000000011c .LVL15
     /tmp/ccjEvyGJ.s:185    .text:0000000000000124 .LVL16
     /tmp/ccjEvyGJ.s:127    .text:00000000000000a0 .LVL6
     /tmp/ccjEvyGJ.s:131    .text:00000000000000a8 .LVL7
     /tmp/ccjEvyGJ.s:137    .text:00000000000000b8 .LVL8
     /tmp/ccjEvyGJ.s:1767   .debug_str:000000000000001f .LASF41
     /tmp/ccjEvyGJ.s:10     .text:0000000000000000 .LFB1
     /tmp/ccjEvyGJ.s:68     .text:0000000000000068 .LFE1
     /tmp/ccjEvyGJ.s:1695   .debug_loc:00000000000003d6 .LLST0
     /tmp/ccjEvyGJ.s:58     .text:0000000000000050 .LVL4
     /tmp/ccjEvyGJ.s:63     .text:0000000000000060 .LVL5
     /tmp/ccjEvyGJ.s:1831   .debug_str:000000000000026c .LASF42
     /tmp/ccjEvyGJ.s:1823   .debug_str:000000000000023a .LASF43
     /tmp/ccjEvyGJ.s:1829   .debug_str:0000000000000266 .LASF17
     /tmp/ccjEvyGJ.s:1785   .debug_str:000000000000008c .LASF18
     /tmp/ccjEvyGJ.s:1813   .debug_str:000000000000013c .LASF19
     /tmp/ccjEvyGJ.s:1777   .debug_str:000000000000005f .LASF20
     /tmp/ccjEvyGJ.s:1811   .debug_str:0000000000000137 .LASF21
     /tmp/ccjEvyGJ.s:1803   .debug_str:0000000000000106 .LASF22
     /tmp/ccjEvyGJ.s:1781   .debug_str:000000000000006f .LASF24
     /tmp/ccjEvyGJ.s:1787   .debug_str:0000000000000091 .LASF23
     /tmp/ccjEvyGJ.s:1845   .debug_str:00000000000002ca .LASF25
     /tmp/ccjEvyGJ.s:1799   .debug_str:00000000000000e6 .LASF26
     /tmp/ccjEvyGJ.s:1791   .debug_str:00000000000000aa .LASF27
     /tmp/ccjEvyGJ.s:1801   .debug_str:00000000000000f6 .LASF28
     /tmp/ccjEvyGJ.s:1779   .debug_str:0000000000000064 .LASF29
     /tmp/ccjEvyGJ.s:1835   .debug_str:0000000000000284 .LASF30
     /tmp/ccjEvyGJ.s:1763   .debug_str:000000000000000e .LASF31
     /tmp/ccjEvyGJ.s:1805   .debug_str:0000000000000116 .LASF32
     /tmp/ccjEvyGJ.s:1769   .debug_str:0000000000000027 .LASF33
     /tmp/ccjEvyGJ.s:1841   .debug_str:00000000000002af .LASF34
     /tmp/ccjEvyGJ.s:1837   .debug_str:0000000000000292 .LASF35
     /tmp/ccjEvyGJ.s:147    .text:00000000000000c8 .LVL9
     /tmp/ccjEvyGJ.s:187    .text:0000000000000128 .LVL17
     /tmp/ccjEvyGJ.s:274    .text:00000000000001d0 .LVL34
     /tmp/ccjEvyGJ.s:282    .text:00000000000001d8 .LVL35
     /tmp/ccjEvyGJ.s:310    .text:00000000000001fc .LVL38
     /tmp/ccjEvyGJ.s:286    .text:00000000000001dc .LVL36
     /tmp/ccjEvyGJ.s:292    .text:00000000000001e0 .LVL37
     /tmp/ccjEvyGJ.s:264    .text:00000000000001c8 .LVL33
     /tmp/ccjEvyGJ.s:316    .text:0000000000000210 .LVL40
     /tmp/ccjEvyGJ.s:237    .text:0000000000000194 .LVL26
     /tmp/ccjEvyGJ.s:241    .text:000000000000019c .LVL27
     /tmp/ccjEvyGJ.s:357    .text:0000000000000278 .LVL47
GAS LISTING /tmp/ccjEvyGJ.s 			page 17


     /tmp/ccjEvyGJ.s:351    .text:0000000000000270 .LVL46
     /tmp/ccjEvyGJ.s:259    .text:00000000000001c4 .LVL32
     /tmp/ccjEvyGJ.s:14     .text:0000000000000000 .LVL0
     /tmp/ccjEvyGJ.s:33     .text:0000000000000028 .LVL1
     /tmp/ccjEvyGJ.s:50     .text:0000000000000044 .LVL2
     /tmp/ccjEvyGJ.s:56     .text:0000000000000048 .LVL3
     /tmp/ccjEvyGJ.s:409    .debug_info:0000000000000000 .Ldebug_info0
     /tmp/ccjEvyGJ.s:190    .text:0000000000000128 .LBE12
     /tmp/ccjEvyGJ.s:288    .text:00000000000001dc .LBB26
     /tmp/ccjEvyGJ.s:295    .text:00000000000001e0 .LBE26
     /tmp/ccjEvyGJ.s:192    .text:0000000000000128 .LBB16
     /tmp/ccjEvyGJ.s:268    .text:00000000000001c8 .LBE16
     /tmp/ccjEvyGJ.s:304    .text:00000000000001f0 .LBB25
     /tmp/ccjEvyGJ.s:399    .text:00000000000002d8 .LBE25
     /tmp/ccjEvyGJ.s:230    .text:0000000000000184 .LBE17
     /tmp/ccjEvyGJ.s:352    .text:0000000000000270 .LBB23
     /tmp/ccjEvyGJ.s:360    .text:0000000000000278 .LBE23
     /tmp/ccjEvyGJ.s:267    .text:00000000000001c8 .LBE20
     /tmp/ccjEvyGJ.s:361    .text:0000000000000278 .LBB24
     /tmp/ccjEvyGJ.s:398    .text:00000000000002d8 .LBE24

UNDEFINED SYMBOLS
_Z9putStringPKc
_Z10putNewlinev
_Z9mem_allocm
_Z6putInti
_Z10stopKernelv
_Z9test_callm
_Z6putU64m
