GAS LISTING /tmp/ccZv3MCA.s 			page 1


   1              		.file	"APP.cpp"
   2              		.option pic
   3              		.option norelax
   4              		.text
   5              	.Ltext0:
   6              		.section	.rodata.str1.8,"aMS",@progbits,1
   7              		.align	3
   8              	.LC0:
   9 0000 3D3D3D20 		.string	"=== Testing \"testTimeSleep\""
   9      54657374 
   9      696E6720 
   9      22746573 
   9      7454696D 
  10 001c 00000000 		.align	3
  11              	.LC1:
  12 0020 3D3D3D20 		.string	"=== PASS in \"testTimeSleep\""
  12      50415353 
  12      20696E20 
  12      22746573 
  12      7454696D 
  13              		.text
  14              		.align	2
  15              		.globl	_Z13testTimeSleepv
  17              	_Z13testTimeSleepv:
  18              	.LFB15:
  19              		.file 1 "src/APP.cpp"
   1:src/APP.cpp   **** #include "../h/my_console.h"
   2:src/APP.cpp   **** #include "../h/syscall_c.hpp"
   3:src/APP.cpp   **** #include "../h/alloc.h"
   4:src/APP.cpp   **** #include "../h/thread.h"
   5:src/APP.cpp   **** 
   6:src/APP.cpp   **** void testSystemCalls();
   7:src/APP.cpp   **** void testMemoryAllocator();
   8:src/APP.cpp   **** void testSyncCall();
   9:src/APP.cpp   **** void testTimeSlice();
  10:src/APP.cpp   **** void testTimeSleep();
  11:src/APP.cpp   **** 
  12:src/APP.cpp   **** uint64 fib(uint64);
  13:src/APP.cpp   **** extern uint64 gTimer;
  14:src/APP.cpp   **** 
  15:src/APP.cpp   **** void myUserMain()
  16:src/APP.cpp   **** {
  17:src/APP.cpp   **** //    __asm__ volatile ("csrw sscratch, x1"); // set spie bit to 1. spie signifies that we dont wan
  18:src/APP.cpp   **** 
  19:src/APP.cpp   ****     __asm__ volatile ("mv x10, x10");
  20:src/APP.cpp   **** 
  21:src/APP.cpp   ****     putString("=== App started");
  22:src/APP.cpp   ****     putNewline();
  23:src/APP.cpp   **** 
  24:src/APP.cpp   ****     testSystemCalls();
  25:src/APP.cpp   ****     testMemoryAllocator();
  26:src/APP.cpp   ****     testSyncCall();
  27:src/APP.cpp   **** //    testTimeSlice();
  28:src/APP.cpp   **** //    testTimeSleep();
  29:src/APP.cpp   **** 
  30:src/APP.cpp   ****     putString("=== App ended");
  31:src/APP.cpp   ****     putNewline();
GAS LISTING /tmp/ccZv3MCA.s 			page 2


  32:src/APP.cpp   **** }
  33:src/APP.cpp   **** 
  34:src/APP.cpp   **** 
  35:src/APP.cpp   **** void testTimeSleep()
  36:src/APP.cpp   **** {
  20              		.loc 1 36 1
  21              		.cfi_startproc
  22 0000 130101FD 		addi	sp,sp,-48
  23              		.cfi_def_cfa_offset 48
  24 0004 23341102 		sd	ra,40(sp)
  25 0008 23308102 		sd	s0,32(sp)
  26              		.cfi_offset 1, -8
  27              		.cfi_offset 8, -16
  28 000c 13040103 		addi	s0,sp,48
  29              		.cfi_def_cfa 8, 0
  37:src/APP.cpp   ****     putString("=== Testing \"testTimeSleep\"");
  30              		.loc 1 37 5
  31              		.loc 1 37 14 is_stmt 0
  32 0010 17050000 		lla	a0,.LC0
  32      13050500 
  33 0018 97000000 		call	_Z9putStringPKc@plt
  33      E7800000 
  34              	.LVL0:
  38:src/APP.cpp   ****     putNewline();
  35              		.loc 1 38 5 is_stmt 1
  36              		.loc 1 38 15 is_stmt 0
  37 0020 97000000 		call	_Z10putNewlinev@plt
  37      E7800000 
  38              	.LVL1:
  39:src/APP.cpp   **** 
  40:src/APP.cpp   ****     thread_t a, b;
  39              		.loc 1 40 5 is_stmt 1
  41:src/APP.cpp   **** 
  42:src/APP.cpp   ****     uint64 argA = 4;
  40              		.loc 1 42 5
  41              		.loc 1 42 12 is_stmt 0
  42 0028 93074000 		li	a5,4
  43 002c 233CF4FC 		sd	a5,-40(s0)
  43:src/APP.cpp   ****     uint64 argB = 1;
  44              		.loc 1 43 5 is_stmt 1
  45              		.loc 1 43 12 is_stmt 0
  46 0030 93071000 		li	a5,1
  47 0034 2338F4FC 		sd	a5,-48(s0)
  44:src/APP.cpp   **** 
  45:src/APP.cpp   ****     void doSleepA(void*);
  48              		.loc 1 45 5 is_stmt 1
  46:src/APP.cpp   **** 
  47:src/APP.cpp   ****     thread_create(&a, doSleepA, &argA);
  49              		.loc 1 47 5
  50              		.loc 1 47 18 is_stmt 0
  51 0038 130684FD 		addi	a2,s0,-40
  52 003c 97050000 		la	a1,_Z8doSleepAPv
  52      83B50500 
  53 0044 130584FE 		addi	a0,s0,-24
  54 0048 97000000 		call	_Z13thread_createPmPFvPvES0_@plt
  54      E7800000 
  55              	.LVL2:
GAS LISTING /tmp/ccZv3MCA.s 			page 3


  48:src/APP.cpp   ****     thread_create(&b, doSleepA, &argB);
  56              		.loc 1 48 5 is_stmt 1
  57              		.loc 1 48 18 is_stmt 0
  58 0050 130604FD 		addi	a2,s0,-48
  59 0054 97050000 		la	a1,_Z8doSleepAPv
  59      83B50500 
  60 005c 130504FE 		addi	a0,s0,-32
  61 0060 97000000 		call	_Z13thread_createPmPFvPvES0_@plt
  61      E7800000 
  62              	.LVL3:
  49:src/APP.cpp   **** 
  50:src/APP.cpp   ****     thread_join(a);
  63              		.loc 1 50 5 is_stmt 1
  64              		.loc 1 50 16 is_stmt 0
  65 0068 033584FE 		ld	a0,-24(s0)
  66 006c 97000000 		call	_Z11thread_joinm@plt
  66      E7800000 
  67              	.LVL4:
  51:src/APP.cpp   ****     thread_join(b);
  68              		.loc 1 51 5 is_stmt 1
  69              		.loc 1 51 16 is_stmt 0
  70 0074 033504FE 		ld	a0,-32(s0)
  71 0078 97000000 		call	_Z11thread_joinm@plt
  71      E7800000 
  72              	.LVL5:
  52:src/APP.cpp   **** 
  53:src/APP.cpp   ****     putString("=== PASS in \"testTimeSleep\"");
  73              		.loc 1 53 5 is_stmt 1
  74              		.loc 1 53 14 is_stmt 0
  75 0080 17050000 		lla	a0,.LC1
  75      13050500 
  76 0088 97000000 		call	_Z9putStringPKc@plt
  76      E7800000 
  77              	.LVL6:
  54:src/APP.cpp   ****     putNewline();
  78              		.loc 1 54 5 is_stmt 1
  79              		.loc 1 54 15 is_stmt 0
  80 0090 97000000 		call	_Z10putNewlinev@plt
  80      E7800000 
  81              	.LVL7:
  55:src/APP.cpp   **** }
  82              		.loc 1 55 1
  83 0098 83308102 		ld	ra,40(sp)
  84              		.cfi_restore 1
  85 009c 03340102 		ld	s0,32(sp)
  86              		.cfi_restore 8
  87              		.cfi_def_cfa 2, 48
  88 00a0 13010103 		addi	sp,sp,48
  89              		.cfi_def_cfa_offset 0
  90 00a4 67800000 		jr	ra
  91              		.cfi_endproc
  92              	.LFE15:
  94              		.section	.rodata.str1.8
  95 003c 00000000 		.align	3
  96              	.LC2:
  97 0040 3D3D3D20 		.string	"=== Testing \"testTimeSlice\""
  97      54657374 
GAS LISTING /tmp/ccZv3MCA.s 			page 4


  97      696E6720 
  97      22746573 
  97      7454696D 
  98 005c 00000000 		.align	3
  99              	.LC3:
 100 0060 3D3D3D3D 		.string	"===================== ASSERT file: "
 100      3D3D3D3D 
 100      3D3D3D3D 
 100      3D3D3D3D 
 100      3D3D3D3D 
 101 0084 00000000 		.align	3
 102              	.LC4:
 103 0088 7372632F 		.string	"src/APP.cpp"
 103      4150502E 
 103      63707000 
 104 0094 00000000 		.align	3
 105              	.LC5:
 106 0098 20202020 		.string	"    line: "
 106      6C696E65 
 106      3A2000
 107 00a3 00000000 		.align	3
 107      00
 108              	.LC6:
 109 00a8 2020203D 		.string	"   ==========================="
 109      3D3D3D3D 
 109      3D3D3D3D 
 109      3D3D3D3D 
 109      3D3D3D3D 
 110 00c7 00       		.align	3
 111              	.LC7:
 112 00c8 3D3D3D20 		.string	"=== PASS in testing \"testTimeSlice\""
 112      50415353 
 112      20696E20 
 112      74657374 
 112      696E6720 
 113              		.text
 114              		.align	2
 115              		.globl	_Z13testTimeSlicev
 117              	_Z13testTimeSlicev:
 118              	.LFB17:
  56:src/APP.cpp   **** 
  57:src/APP.cpp   **** void doSleepA(void* p)
  58:src/APP.cpp   **** {
  59:src/APP.cpp   ****     uint64 *n = (uint64*)p;
  60:src/APP.cpp   **** 
  61:src/APP.cpp   ****     uint64 i = *n;
  62:src/APP.cpp   ****     while(i <= 8)
  63:src/APP.cpp   ****     {
  64:src/APP.cpp   ****         int a = fib(i);
  65:src/APP.cpp   **** 
  66:src/APP.cpp   ****         uint64 oldTimer = gTimer;
  67:src/APP.cpp   ****         int b = time_sleep(a);
  68:src/APP.cpp   **** 
  69:src/APP.cpp   ****         assert(b == 0);
  70:src/APP.cpp   ****         assert((oldTimer - gTimer) <= (((uint64)a) + 2));
  71:src/APP.cpp   ****         assert((oldTimer - gTimer) >= ((uint64)a));
  72:src/APP.cpp   **** 
GAS LISTING /tmp/ccZv3MCA.s 			page 5


  73:src/APP.cpp   ****         i++;
  74:src/APP.cpp   ****     }
  75:src/APP.cpp   **** }
  76:src/APP.cpp   **** 
  77:src/APP.cpp   **** int sliceFirstCounter = 0;
  78:src/APP.cpp   **** int sliceSecondCounter = 0;
  79:src/APP.cpp   **** 
  80:src/APP.cpp   **** void testTimeSlice()
  81:src/APP.cpp   **** {
 119              		.loc 1 81 1 is_stmt 1
 120              		.cfi_startproc
 121 00a8 130101FC 		addi	sp,sp,-64
 122              		.cfi_def_cfa_offset 64
 123 00ac 233C1102 		sd	ra,56(sp)
 124 00b0 23388102 		sd	s0,48(sp)
 125 00b4 23349102 		sd	s1,40(sp)
 126              		.cfi_offset 1, -8
 127              		.cfi_offset 8, -16
 128              		.cfi_offset 9, -24
 129 00b8 13040104 		addi	s0,sp,64
 130              		.cfi_def_cfa 8, 0
  82:src/APP.cpp   ****     putString("=== Testing \"testTimeSlice\"");
 131              		.loc 1 82 5
 132              		.loc 1 82 14 is_stmt 0
 133 00bc 17050000 		lla	a0,.LC2
 133      13050500 
 134 00c4 97000000 		call	_Z9putStringPKc@plt
 134      E7800000 
 135              	.LVL8:
  83:src/APP.cpp   ****     putNewline();
 136              		.loc 1 83 5 is_stmt 1
 137              		.loc 1 83 15 is_stmt 0
 138 00cc 97000000 		call	_Z10putNewlinev@plt
 138      E7800000 
 139              	.LVL9:
  84:src/APP.cpp   **** 
  85:src/APP.cpp   ****     void doP(void*);
 140              		.loc 1 85 5 is_stmt 1
  86:src/APP.cpp   ****     void doQ(void*);
 141              		.loc 1 86 5
  87:src/APP.cpp   **** 
  88:src/APP.cpp   ****     uint64 n = 150000000;
 142              		.loc 1 88 5
 143              		.loc 1 88 12 is_stmt 0
 144 00d4 B7D7F008 		li	a5,149999616
 145 00d8 93870718 		addi	a5,a5,384
 146 00dc 233CF4FC 		sd	a5,-40(s0)
  89:src/APP.cpp   **** 
  90:src/APP.cpp   ****     void doSliceFirst(void*);
 147              		.loc 1 90 5 is_stmt 1
  91:src/APP.cpp   ****     void doSliceSecond(void*);
 148              		.loc 1 91 5
  92:src/APP.cpp   **** 
  93:src/APP.cpp   ****     thread_t sliceFirst;
 149              		.loc 1 93 5
  94:src/APP.cpp   ****     thread_create(&sliceFirst, &doSliceFirst, &n);
 150              		.loc 1 94 5
GAS LISTING /tmp/ccZv3MCA.s 			page 6


 151              		.loc 1 94 18 is_stmt 0
 152 00e0 930484FD 		addi	s1,s0,-40
 153 00e4 13860400 		mv	a2,s1
 154 00e8 97050000 		la	a1,_Z12doSliceFirstPv
 154      83B50500 
 155 00f0 130504FD 		addi	a0,s0,-48
 156 00f4 97000000 		call	_Z13thread_createPmPFvPvES0_@plt
 156      E7800000 
 157              	.LVL10:
  95:src/APP.cpp   **** 
  96:src/APP.cpp   ****     thread_t sliceSecond;
 158              		.loc 1 96 5 is_stmt 1
  97:src/APP.cpp   ****     thread_create(&sliceSecond, &doSliceSecond, &n);
 159              		.loc 1 97 5
 160              		.loc 1 97 18 is_stmt 0
 161 00fc 13860400 		mv	a2,s1
 162 0100 97050000 		la	a1,_Z13doSliceSecondPv
 162      83B50500 
 163 0108 130584FC 		addi	a0,s0,-56
 164 010c 97000000 		call	_Z13thread_createPmPFvPvES0_@plt
 164      E7800000 
 165              	.LVL11:
  98:src/APP.cpp   **** 
  99:src/APP.cpp   ****     thread_join(sliceFirst);
 166              		.loc 1 99 5 is_stmt 1
 167              		.loc 1 99 16 is_stmt 0
 168 0114 033504FD 		ld	a0,-48(s0)
 169 0118 97000000 		call	_Z11thread_joinm@plt
 169      E7800000 
 170              	.LVL12:
 100:src/APP.cpp   ****     thread_join(sliceSecond);
 171              		.loc 1 100 5 is_stmt 1
 172              		.loc 1 100 16 is_stmt 0
 173 0120 033584FC 		ld	a0,-56(s0)
 174 0124 97000000 		call	_Z11thread_joinm@plt
 174      E7800000 
 175              	.LVL13:
 101:src/APP.cpp   **** 
 102:src/APP.cpp   ****     int dif = (sliceFirstCounter - sliceSecondCounter);
 176              		.loc 1 102 5 is_stmt 1
 177              		.loc 1 102 34 is_stmt 0
 178 012c 17070000 		lla	a4,.LANCHOR0
 178      13070700 
 179 0134 83270700 		lw	a5,0(a4)
 180 0138 83264700 		lw	a3,4(a4)
 181              		.loc 1 102 9
 182 013c 3B87D740 		subw	a4,a5,a3
 183              	.LVL14:
 103:src/APP.cpp   ****     if(dif < 0) // dif = abs(dif);
 184              		.loc 1 103 5 is_stmt 1
 185 0140 63400704 		bltz	a4,.L8
 186              	.LVL15:
 187              	.L4:
 104:src/APP.cpp   ****         dif = -dif;
 105:src/APP.cpp   **** 
 106:src/APP.cpp   ****     assert(dif < sliceFirstCounter * 8/10); // WARNING: not 100% check, depends on "n" and many oth
 188              		.loc 1 106 5
GAS LISTING /tmp/ccZv3MCA.s 			page 7


 189 0144 9B973700 		slliw	a5,a5,3
 190 0148 9306A000 		li	a3,10
 191 014c BBC7D702 		divw	a5,a5,a3
 192              	.LVL16:
 193              	.LBB17:
 194              	.LBB18:
 195              		.file 2 "src/../h/my_console.h"
   1:src/../h/my_console.h **** #pragma once
   2:src/../h/my_console.h **** 
   3:src/../h/my_console.h **** #include "../h/risc.h"
   4:src/../h/my_console.h **** #include "../lib/hw.h"
   5:src/../h/my_console.h **** 
   6:src/../h/my_console.h **** #include "../h/0_console.h"
   7:src/../h/my_console.h **** 
   8:src/../h/my_console.h **** #define __DEBUG_MODE
   9:src/../h/my_console.h **** 
  10:src/../h/my_console.h **** 
  11:src/../h/my_console.h **** void putString(const char* s);
  12:src/../h/my_console.h **** void putInt(int n);
  13:src/../h/my_console.h **** void putNewline();
  14:src/../h/my_console.h **** void putU64(uint64 n);
  15:src/../h/my_console.h **** void putBinary(uint64 n);
  16:src/../h/my_console.h **** 
  17:src/../h/my_console.h **** [[noreturn]] void stopKernel();
  18:src/../h/my_console.h **** 
  19:src/../h/my_console.h **** inline void _assert(bool valid, const char* file, int line) // MUST be inline
  20:src/../h/my_console.h **** {
  21:src/../h/my_console.h ****     if(valid)
 196              		.loc 2 21 5
 197 0150 635CF702 		ble	a5,a4,.L9
  22:src/../h/my_console.h ****         return;
 198              		.loc 2 22 9
 199              	.LVL17:
 200              	.LBE18:
 201              	.LBE17:
 107:src/APP.cpp   **** 
 108:src/APP.cpp   ****     putString("=== PASS in testing \"testTimeSlice\"");
 202              		.loc 1 108 5
 203              		.loc 1 108 14 is_stmt 0
 204 0154 17050000 		lla	a0,.LC7
 204      13050500 
 205 015c 97000000 		call	_Z9putStringPKc@plt
 205      E7800000 
 206              	.LVL18:
 109:src/APP.cpp   ****     putNewline();
 207              		.loc 1 109 5 is_stmt 1
 208              		.loc 1 109 15 is_stmt 0
 209 0164 97000000 		call	_Z10putNewlinev@plt
 209      E7800000 
 210              	.LVL19:
 110:src/APP.cpp   **** }
 211              		.loc 1 110 1
 212 016c 83308103 		ld	ra,56(sp)
 213              		.cfi_remember_state
 214              		.cfi_restore 1
 215 0170 03340103 		ld	s0,48(sp)
 216              		.cfi_restore 8
GAS LISTING /tmp/ccZv3MCA.s 			page 8


 217              		.cfi_def_cfa 2, 64
 218 0174 83348102 		ld	s1,40(sp)
 219              		.cfi_restore 9
 220 0178 13010104 		addi	sp,sp,64
 221              		.cfi_def_cfa_offset 0
 222 017c 67800000 		jr	ra
 223              	.LVL20:
 224              	.L8:
 225              		.cfi_restore_state
 104:src/APP.cpp   **** 
 226              		.loc 1 104 9 is_stmt 1
 104:src/APP.cpp   **** 
 227              		.loc 1 104 13 is_stmt 0
 228 0180 3B87F640 		subw	a4,a3,a5
 229              	.LVL21:
 230 0184 6FF01FFC 		j	.L4
 231              	.LVL22:
 232              	.L9:
 233              	.LBB25:
 234              	.LBB24:
  23:src/../h/my_console.h **** 
  24:src/../h/my_console.h ****     putString("===================== ASSERT file: ");
 235              		.loc 2 24 5 is_stmt 1
 236              		.loc 2 24 14 is_stmt 0
 237 0188 17050000 		lla	a0,.LC3
 237      13050500 
 238 0190 97000000 		call	_Z9putStringPKc@plt
 238      E7800000 
 239              	.LVL23:
  25:src/../h/my_console.h ****     putString(file);
 240              		.loc 2 25 5 is_stmt 1
 241              		.loc 2 25 14 is_stmt 0
 242 0198 17050000 		lla	a0,.LC4
 242      13050500 
 243 01a0 97000000 		call	_Z9putStringPKc@plt
 243      E7800000 
 244              	.LVL24:
  26:src/../h/my_console.h ****     putString("    line: ");
 245              		.loc 2 26 5 is_stmt 1
 246              		.loc 2 26 14 is_stmt 0
 247 01a8 17050000 		lla	a0,.LC5
 247      13050500 
 248 01b0 97000000 		call	_Z9putStringPKc@plt
 248      E7800000 
 249              	.LVL25:
  27:src/../h/my_console.h ****     putInt(line);
 250              		.loc 2 27 5 is_stmt 1
 251              		.loc 2 27 11 is_stmt 0
 252 01b8 1305A006 		li	a0,106
 253 01bc 97000000 		call	_Z6putInti@plt
 253      E7800000 
 254              	.LVL26:
  28:src/../h/my_console.h ****     putString("   ===========================");
 255              		.loc 2 28 5 is_stmt 1
 256              		.loc 2 28 14 is_stmt 0
 257 01c4 17050000 		lla	a0,.LC6
 257      13050500 
GAS LISTING /tmp/ccZv3MCA.s 			page 9


 258 01cc 97000000 		call	_Z9putStringPKc@plt
 258      E7800000 
 259              	.LVL27:
  29:src/../h/my_console.h ****     putNewline();
 260              		.loc 2 29 5 is_stmt 1
 261              		.loc 2 29 15 is_stmt 0
 262 01d4 97000000 		call	_Z10putNewlinev@plt
 262      E7800000 
 263              	.LVL28:
  30:src/../h/my_console.h **** 
  31:src/../h/my_console.h ****     IConsole::get()->writeToConsole();
 264              		.loc 2 31 5 is_stmt 1
 265              	.LBB19:
 266              	.LBB20:
 267              		.file 3 "src/../h/../h/0_console.h"
   1:src/../h/../h/0_console.h **** #pragma once
   2:src/../h/../h/0_console.h **** 
   3:src/../h/../h/0_console.h **** #include "../lib/hw.h"
   4:src/../h/../h/0_console.h **** 
   5:src/../h/../h/0_console.h **** #define BUFFER_SIZE 1000
   6:src/../h/../h/0_console.h **** 
   7:src/../h/../h/0_console.h **** class IConsole // singleton class
   8:src/../h/../h/0_console.h **** {
   9:src/../h/../h/0_console.h **** public:
  10:src/../h/../h/0_console.h ****     static IConsole* get()
  11:src/../h/../h/0_console.h ****     {
  12:src/../h/../h/0_console.h ****         static IConsole instance;
 268              		.loc 3 12 9
 269              		.loc 3 12 25 is_stmt 0
 270 01dc 97070000 		lbu	a5,_ZGVZN8IConsole3getEvE8instance
 270      83C70700 
 271 01e4 63920702 		bnez	a5,.L6
 272              	.LVL29:
 273              	.LBB21:
 274              	.LBB22:
 275              	.LBB23:
  13:src/../h/../h/0_console.h ****         return &instance;
  14:src/../h/../h/0_console.h ****     }
  15:src/../h/../h/0_console.h **** 
  16:src/../h/../h/0_console.h ****     void writeToConsole();
  17:src/../h/../h/0_console.h ****     uint64 putBufferHead, putBufferTail;
  18:src/../h/../h/0_console.h ****     char putBuffer[BUFFER_SIZE];
  19:src/../h/../h/0_console.h ****     uint64 putBufferItems;
  20:src/../h/../h/0_console.h **** 
  21:src/../h/../h/0_console.h ****     char getBuffer[BUFFER_SIZE];
  22:src/../h/../h/0_console.h ****     uint64 getBufferItems;
  23:src/../h/../h/0_console.h ****     uint64 getBufferHead, getBufferTail;
  24:src/../h/../h/0_console.h **** 
  25:src/../h/../h/0_console.h ****     void putc(char c);
  26:src/../h/../h/0_console.h ****     char getc();
  27:src/../h/../h/0_console.h ****     void consoleHandler();
  28:src/../h/../h/0_console.h ****     void actualWriteToConsole();
  29:src/../h/../h/0_console.h **** 
  30:src/../h/../h/0_console.h **** private:
  31:src/../h/../h/0_console.h ****     IConsole()
  32:src/../h/../h/0_console.h ****         : putBufferHead(0), putBufferTail(0), putBufferItems(0)
 276              		.loc 3 32 63
GAS LISTING /tmp/ccZv3MCA.s 			page 10


 277 01e8 97070000 		lla	a5,_ZZN8IConsole3getEvE8instance
 277      93870700 
 278 01f0 23B00700 		sd	zero,0(a5)
 279 01f4 23B40700 		sd	zero,8(a5)
 280 01f8 23BC073E 		sd	zero,1016(a5)
 281              	.LVL30:
 282              	.LBE23:
 283              	.LBE22:
 284              	.LBE21:
  12:src/../h/../h/0_console.h ****         return &instance;
 285              		.loc 3 12 25
 286 01fc 93071000 		li	a5,1
 287 0200 17070000 		sb	a5,_ZGVZN8IConsole3getEvE8instance,a4
 287      2300F700 
 288              	.L6:
  13:src/../h/../h/0_console.h ****         return &instance;
 289              		.loc 3 13 9 is_stmt 1
 290              	.LBE20:
 291              	.LBE19:
 292              		.loc 2 31 36 is_stmt 0
 293 0208 17050000 		lla	a0,_ZZN8IConsole3getEvE8instance
 293      13050500 
 294 0210 97000000 		call	_ZN8IConsole14writeToConsoleEv@plt
 294      E7800000 
 295              	.LVL31:
  32:src/../h/my_console.h **** 
  33:src/../h/my_console.h **** 
  34:src/../h/my_console.h ****     stopKernel();
 296              		.loc 2 34 5 is_stmt 1
 297              		.loc 2 34 15 is_stmt 0
 298 0218 97000000 		call	_Z10stopKernelv@plt
 298      E7800000 
 299              	.LVL32:
 300              	.LBE24:
 301              	.LBE25:
 302              		.cfi_endproc
 303              	.LFE17:
 305              		.align	2
 306              		.globl	_Z12doSliceFirstPv
 308              	_Z12doSliceFirstPv:
 309              	.LFB18:
 111:src/APP.cpp   **** 
 112:src/APP.cpp   **** 
 113:src/APP.cpp   **** void doSliceFirst(void* n)
 114:src/APP.cpp   **** {
 310              		.loc 1 114 1 is_stmt 1
 311              		.cfi_startproc
 312              	.LVL33:
 115:src/APP.cpp   ****     uint64 oldTimer = gTimer;
 313              		.loc 1 115 5
 314              		.loc 1 115 12 is_stmt 0
 315 0220 97070000 		la	a5,gTimer
 315      83B70700 
 316 0228 83B60700 		ld	a3,0(a5)
 317              	.LVL34:
 116:src/APP.cpp   ****     for(uint64 i=0; i<(*((uint64*)n)); i++)
 318              		.loc 1 116 5 is_stmt 1
GAS LISTING /tmp/ccZv3MCA.s 			page 11


 319              	.LBB34:
 320              		.loc 1 116 16 is_stmt 0
 321 022c 93070000 		li	a5,0
 322 0230 6F00C002 		j	.L13
 323              	.LVL35:
 324              	.L19:
 117:src/APP.cpp   ****     {
 118:src/APP.cpp   ****         if(oldTimer != gTimer)
 119:src/APP.cpp   ****         {
 120:src/APP.cpp   ****             __asm__ volatile("mv x10, x10");
 325              		.loc 1 120 13 is_stmt 1
 326              		.loc 1 120 44 is_stmt 0
 327              	#APP
 328              	# 120 "src/APP.cpp" 1
 121              	
 122:src/APP.cpp   ****             sliceFirstCounter++;
 329              		mv x10, x10
 330              	# 0 "" 2
 331              		.loc 1 122 13 is_stmt 1
 332              		.loc 1 122 30 is_stmt 0
 333              	#NO_APP
 334 0238 97060000 		lla	a3,.LANCHOR0
 334      93860600 
 335              	.LVL36:
 336 0240 03A70600 		lw	a4,0(a3)
 337 0244 1B071700 		addiw	a4,a4,1
 338 0248 23A0E600 		sw	a4,0(a3)
 123:src/APP.cpp   ****             oldTimer = gTimer;
 339              		.loc 1 123 13 is_stmt 1
 340              		.loc 1 123 22 is_stmt 0
 341 024c 17070000 		la	a4,gTimer
 341      03370700 
 342              	.LVL37:
 343 0254 83360700 		ld	a3,0(a4)
 344              	.LVL38:
 345              	.L12:
 116:src/APP.cpp   ****     {
 346              		.loc 1 116 5 is_stmt 1 discriminator 2
 347 0258 93871700 		addi	a5,a5,1
 348              	.LVL39:
 349              	.L13:
 116:src/APP.cpp   ****     {
 350              		.loc 1 116 22 discriminator 1
 116:src/APP.cpp   ****     {
 351              		.loc 1 116 24 is_stmt 0 discriminator 1
 352 025c 03370500 		ld	a4,0(a0)
 116:src/APP.cpp   ****     {
 353              		.loc 1 116 22 discriminator 1
 354 0260 63FCE700 		bleu	a4,a5,.L11
 118:src/APP.cpp   ****         {
 355              		.loc 1 118 9 is_stmt 1
 118:src/APP.cpp   ****         {
 356              		.loc 1 118 21 is_stmt 0
 357 0264 17070000 		la	a4,gTimer
 357      03370700 
 358 026c 03370700 		ld	a4,0(a4)
 118:src/APP.cpp   ****         {
GAS LISTING /tmp/ccZv3MCA.s 			page 12


 359              		.loc 1 118 9
 360 0270 E312D7FC 		bne	a4,a3,.L19
 361 0274 6FF05FFE 		j	.L12
 362              	.L11:
 363              	.LBE34:
 124:src/APP.cpp   ****         }
 125:src/APP.cpp   ****     }
 126:src/APP.cpp   ****     assert(sliceFirstCounter > 0); // "n" in test too small probably
 364              		.loc 1 126 5 is_stmt 1
 365 0278 97070000 		lw	a5,.LANCHOR0
 365      83A70700 
 366              	.LVL40:
 367              	.LBB35:
 368              	.LBB36:
  21:src/../h/my_console.h ****         return;
 369              		.loc 2 21 5
 370 0280 6354F000 		blez	a5,.L20
 371 0284 67800000 		ret
 372              	.L20:
 373              	.LBE36:
 374              	.LBE35:
 114:src/APP.cpp   ****     uint64 oldTimer = gTimer;
 375              		.loc 1 114 1 is_stmt 0
 376 0288 130101FF 		addi	sp,sp,-16
 377              		.cfi_def_cfa_offset 16
 378 028c 23341100 		sd	ra,8(sp)
 379 0290 23308100 		sd	s0,0(sp)
 380              		.cfi_offset 1, -8
 381              		.cfi_offset 8, -16
 382 0294 13040101 		addi	s0,sp,16
 383              		.cfi_def_cfa 8, 0
 384              	.LBB43:
 385              	.LBB42:
  24:src/../h/my_console.h ****     putString(file);
 386              		.loc 2 24 5 is_stmt 1
  24:src/../h/my_console.h ****     putString(file);
 387              		.loc 2 24 14 is_stmt 0
 388 0298 17050000 		lla	a0,.LC3
 388      13050500 
 389              	.LVL41:
 390 02a0 97000000 		call	_Z9putStringPKc@plt
 390      E7800000 
 391              	.LVL42:
  25:src/../h/my_console.h ****     putString("    line: ");
 392              		.loc 2 25 5 is_stmt 1
  25:src/../h/my_console.h ****     putString("    line: ");
 393              		.loc 2 25 14 is_stmt 0
 394 02a8 17050000 		lla	a0,.LC4
 394      13050500 
 395 02b0 97000000 		call	_Z9putStringPKc@plt
 395      E7800000 
 396              	.LVL43:
  26:src/../h/my_console.h ****     putInt(line);
 397              		.loc 2 26 5 is_stmt 1
  26:src/../h/my_console.h ****     putInt(line);
 398              		.loc 2 26 14 is_stmt 0
 399 02b8 17050000 		lla	a0,.LC5
GAS LISTING /tmp/ccZv3MCA.s 			page 13


 399      13050500 
 400 02c0 97000000 		call	_Z9putStringPKc@plt
 400      E7800000 
 401              	.LVL44:
  27:src/../h/my_console.h ****     putString("   ===========================");
 402              		.loc 2 27 5 is_stmt 1
  27:src/../h/my_console.h ****     putString("   ===========================");
 403              		.loc 2 27 11 is_stmt 0
 404 02c8 1305E007 		li	a0,126
 405 02cc 97000000 		call	_Z6putInti@plt
 405      E7800000 
 406              	.LVL45:
  28:src/../h/my_console.h ****     putNewline();
 407              		.loc 2 28 5 is_stmt 1
  28:src/../h/my_console.h ****     putNewline();
 408              		.loc 2 28 14 is_stmt 0
 409 02d4 17050000 		lla	a0,.LC6
 409      13050500 
 410 02dc 97000000 		call	_Z9putStringPKc@plt
 410      E7800000 
 411              	.LVL46:
  29:src/../h/my_console.h **** 
 412              		.loc 2 29 5 is_stmt 1
  29:src/../h/my_console.h **** 
 413              		.loc 2 29 15 is_stmt 0
 414 02e4 97000000 		call	_Z10putNewlinev@plt
 414      E7800000 
 415              	.LVL47:
  31:src/../h/my_console.h **** 
 416              		.loc 2 31 5 is_stmt 1
 417              	.LBB37:
 418              	.LBB38:
  12:src/../h/../h/0_console.h ****         return &instance;
 419              		.loc 3 12 9
  12:src/../h/../h/0_console.h ****         return &instance;
 420              		.loc 3 12 25 is_stmt 0
 421 02ec 97070000 		lbu	a5,_ZGVZN8IConsole3getEvE8instance
 421      83C70700 
 422 02f4 63920702 		bnez	a5,.L15
 423              	.LVL48:
 424              	.LBB39:
 425              	.LBB40:
 426              	.LBB41:
 427              		.loc 3 32 63
 428 02f8 97070000 		lla	a5,_ZZN8IConsole3getEvE8instance
 428      93870700 
 429 0300 23B00700 		sd	zero,0(a5)
 430 0304 23B40700 		sd	zero,8(a5)
 431 0308 23BC073E 		sd	zero,1016(a5)
 432              	.LVL49:
 433              	.LBE41:
 434              	.LBE40:
 435              	.LBE39:
  12:src/../h/../h/0_console.h ****         return &instance;
 436              		.loc 3 12 25
 437 030c 93071000 		li	a5,1
 438 0310 17070000 		sb	a5,_ZGVZN8IConsole3getEvE8instance,a4
GAS LISTING /tmp/ccZv3MCA.s 			page 14


 438      2300F700 
 439              	.L15:
  13:src/../h/../h/0_console.h ****     }
 440              		.loc 3 13 9 is_stmt 1
 441              	.LBE38:
 442              	.LBE37:
  31:src/../h/my_console.h **** 
 443              		.loc 2 31 36 is_stmt 0
 444 0318 17050000 		lla	a0,_ZZN8IConsole3getEvE8instance
 444      13050500 
 445 0320 97000000 		call	_ZN8IConsole14writeToConsoleEv@plt
 445      E7800000 
 446              	.LVL50:
 447              		.loc 2 34 5 is_stmt 1
 448              		.loc 2 34 15 is_stmt 0
 449 0328 97000000 		call	_Z10stopKernelv@plt
 449      E7800000 
 450              	.LVL51:
 451              	.LBE42:
 452              	.LBE43:
 453              		.cfi_endproc
 454              	.LFE18:
 456              		.align	2
 457              		.globl	_Z13doSliceSecondPv
 459              	_Z13doSliceSecondPv:
 460              	.LFB19:
 127:src/APP.cpp   **** }
 128:src/APP.cpp   **** 
 129:src/APP.cpp   **** void doSliceSecond(void* n)
 130:src/APP.cpp   **** {
 461              		.loc 1 130 1 is_stmt 1
 462              		.cfi_startproc
 463              	.LVL52:
 464 0330 130101FF 		addi	sp,sp,-16
 465              		.cfi_def_cfa_offset 16
 466 0334 23341100 		sd	ra,8(sp)
 467 0338 23308100 		sd	s0,0(sp)
 468              		.cfi_offset 1, -8
 469              		.cfi_offset 8, -16
 470 033c 13040101 		addi	s0,sp,16
 471              		.cfi_def_cfa 8, 0
 131:src/APP.cpp   ****     uint64 newN = *(uint64*)n;
 472              		.loc 1 131 5
 473              		.loc 1 131 12 is_stmt 0
 474 0340 03360500 		ld	a2,0(a0)
 475              	.LVL53:
 132:src/APP.cpp   **** 
 133:src/APP.cpp   ****     uint64 oldTimer = gTimer;
 476              		.loc 1 133 5 is_stmt 1
 477              		.loc 1 133 12 is_stmt 0
 478 0344 97070000 		la	a5,gTimer
 478      83B70700 
 479 034c 83B60700 		ld	a3,0(a5)
 480              	.LVL54:
 134:src/APP.cpp   ****     for(uint64 i=0; i<newN; i++)
 481              		.loc 1 134 5 is_stmt 1
 482              	.LBB66:
GAS LISTING /tmp/ccZv3MCA.s 			page 15


 483              		.loc 1 134 16 is_stmt 0
 484 0350 93070000 		li	a5,0
 485 0354 6F00C013 		j	.L28
 486              	.LVL55:
 487              	.L32:
 488              	.LBB67:
 489              	.LBB68:
  24:src/../h/my_console.h ****     putString(file);
 490              		.loc 2 24 5 is_stmt 1
  24:src/../h/my_console.h ****     putString(file);
 491              		.loc 2 24 14 is_stmt 0
 492 0358 17050000 		lla	a0,.LC3
 492      13050500 
 493              	.LVL56:
 494 0360 97000000 		call	_Z9putStringPKc@plt
 494      E7800000 
 495              	.LVL57:
  25:src/../h/my_console.h ****     putString("    line: ");
 496              		.loc 2 25 5 is_stmt 1
  25:src/../h/my_console.h ****     putString("    line: ");
 497              		.loc 2 25 14 is_stmt 0
 498 0368 17050000 		lla	a0,.LC4
 498      13050500 
 499 0370 97000000 		call	_Z9putStringPKc@plt
 499      E7800000 
 500              	.LVL58:
  26:src/../h/my_console.h ****     putInt(line);
 501              		.loc 2 26 5 is_stmt 1
  26:src/../h/my_console.h ****     putInt(line);
 502              		.loc 2 26 14 is_stmt 0
 503 0378 17050000 		lla	a0,.LC5
 503      13050500 
 504 0380 97000000 		call	_Z9putStringPKc@plt
 504      E7800000 
 505              	.LVL59:
  27:src/../h/my_console.h ****     putString("   ===========================");
 506              		.loc 2 27 5 is_stmt 1
  27:src/../h/my_console.h ****     putString("   ===========================");
 507              		.loc 2 27 11 is_stmt 0
 508 0388 13059008 		li	a0,137
 509 038c 97000000 		call	_Z6putInti@plt
 509      E7800000 
 510              	.LVL60:
  28:src/../h/my_console.h ****     putNewline();
 511              		.loc 2 28 5 is_stmt 1
  28:src/../h/my_console.h ****     putNewline();
 512              		.loc 2 28 14 is_stmt 0
 513 0394 17050000 		lla	a0,.LC6
 513      13050500 
 514 039c 97000000 		call	_Z9putStringPKc@plt
 514      E7800000 
 515              	.LVL61:
  29:src/../h/my_console.h **** 
 516              		.loc 2 29 5 is_stmt 1
  29:src/../h/my_console.h **** 
 517              		.loc 2 29 15 is_stmt 0
 518 03a4 97000000 		call	_Z10putNewlinev@plt
GAS LISTING /tmp/ccZv3MCA.s 			page 16


 518      E7800000 
 519              	.LVL62:
  31:src/../h/my_console.h **** 
 520              		.loc 2 31 5 is_stmt 1
 521              	.LBB69:
 522              	.LBB70:
  12:src/../h/../h/0_console.h ****         return &instance;
 523              		.loc 3 12 9
  12:src/../h/../h/0_console.h ****         return &instance;
 524              		.loc 3 12 25 is_stmt 0
 525 03ac 97070000 		lbu	a5,_ZGVZN8IConsole3getEvE8instance
 525      83C70700 
 526 03b4 63920702 		bnez	a5,.L24
 527              	.LVL63:
 528              	.LBB71:
 529              	.LBB72:
 530              	.LBB73:
 531              		.loc 3 32 63
 532 03b8 97070000 		lla	a5,_ZZN8IConsole3getEvE8instance
 532      93870700 
 533 03c0 23B00700 		sd	zero,0(a5)
 534 03c4 23B40700 		sd	zero,8(a5)
 535 03c8 23BC073E 		sd	zero,1016(a5)
 536              	.LVL64:
 537              	.LBE73:
 538              	.LBE72:
 539              	.LBE71:
  12:src/../h/../h/0_console.h ****         return &instance;
 540              		.loc 3 12 25
 541 03cc 93071000 		li	a5,1
 542 03d0 17070000 		sb	a5,_ZGVZN8IConsole3getEvE8instance,a4
 542      2300F700 
 543              	.L24:
  13:src/../h/../h/0_console.h ****     }
 544              		.loc 3 13 9 is_stmt 1
 545              	.LBE70:
 546              	.LBE69:
  31:src/../h/my_console.h **** 
 547              		.loc 2 31 36 is_stmt 0
 548 03d8 17050000 		lla	a0,_ZZN8IConsole3getEvE8instance
 548      13050500 
 549 03e0 97000000 		call	_ZN8IConsole14writeToConsoleEv@plt
 549      E7800000 
 550              	.LVL65:
 551              		.loc 2 34 5 is_stmt 1
 552              		.loc 2 34 15 is_stmt 0
 553 03e8 97000000 		call	_Z10stopKernelv@plt
 553      E7800000 
 554              	.LVL66:
 555              	.L33:
 556              	.LBE68:
 557              	.LBE67:
 558              	.LBB75:
 559              	.LBB76:
  24:src/../h/my_console.h ****     putString(file);
 560              		.loc 2 24 5 is_stmt 1
  24:src/../h/my_console.h ****     putString(file);
GAS LISTING /tmp/ccZv3MCA.s 			page 17


 561              		.loc 2 24 14 is_stmt 0
 562 03f0 17050000 		lla	a0,.LC3
 562      13050500 
 563              	.LVL67:
 564 03f8 97000000 		call	_Z9putStringPKc@plt
 564      E7800000 
 565              	.LVL68:
  25:src/../h/my_console.h ****     putString("    line: ");
 566              		.loc 2 25 5 is_stmt 1
  25:src/../h/my_console.h ****     putString("    line: ");
 567              		.loc 2 25 14 is_stmt 0
 568 0400 17050000 		lla	a0,.LC4
 568      13050500 
 569 0408 97000000 		call	_Z9putStringPKc@plt
 569      E7800000 
 570              	.LVL69:
  26:src/../h/my_console.h ****     putInt(line);
 571              		.loc 2 26 5 is_stmt 1
  26:src/../h/my_console.h ****     putInt(line);
 572              		.loc 2 26 14 is_stmt 0
 573 0410 17050000 		lla	a0,.LC5
 573      13050500 
 574 0418 97000000 		call	_Z9putStringPKc@plt
 574      E7800000 
 575              	.LVL70:
  27:src/../h/my_console.h ****     putString("   ===========================");
 576              		.loc 2 27 5 is_stmt 1
  27:src/../h/my_console.h ****     putString("   ===========================");
 577              		.loc 2 27 11 is_stmt 0
 578 0420 13050009 		li	a0,144
 579 0424 97000000 		call	_Z6putInti@plt
 579      E7800000 
 580              	.LVL71:
  28:src/../h/my_console.h ****     putNewline();
 581              		.loc 2 28 5 is_stmt 1
  28:src/../h/my_console.h ****     putNewline();
 582              		.loc 2 28 14 is_stmt 0
 583 042c 17050000 		lla	a0,.LC6
 583      13050500 
 584 0434 97000000 		call	_Z9putStringPKc@plt
 584      E7800000 
 585              	.LVL72:
  29:src/../h/my_console.h **** 
 586              		.loc 2 29 5 is_stmt 1
  29:src/../h/my_console.h **** 
 587              		.loc 2 29 15 is_stmt 0
 588 043c 97000000 		call	_Z10putNewlinev@plt
 588      E7800000 
 589              	.LVL73:
  31:src/../h/my_console.h **** 
 590              		.loc 2 31 5 is_stmt 1
 591              	.LBB77:
 592              	.LBB78:
  12:src/../h/../h/0_console.h ****         return &instance;
 593              		.loc 3 12 9
  12:src/../h/../h/0_console.h ****         return &instance;
 594              		.loc 3 12 25 is_stmt 0
GAS LISTING /tmp/ccZv3MCA.s 			page 18


 595 0444 97070000 		lbu	a5,_ZGVZN8IConsole3getEvE8instance
 595      83C70700 
 596 044c 63920702 		bnez	a5,.L27
 597              	.LVL74:
 598              	.LBB79:
 599              	.LBB80:
 600              	.LBB81:
 601              		.loc 3 32 63
 602 0450 97070000 		lla	a5,_ZZN8IConsole3getEvE8instance
 602      93870700 
 603 0458 23B00700 		sd	zero,0(a5)
 604 045c 23B40700 		sd	zero,8(a5)
 605 0460 23BC073E 		sd	zero,1016(a5)
 606              	.LVL75:
 607              	.LBE81:
 608              	.LBE80:
 609              	.LBE79:
  12:src/../h/../h/0_console.h ****         return &instance;
 610              		.loc 3 12 25
 611 0464 93071000 		li	a5,1
 612 0468 17070000 		sb	a5,_ZGVZN8IConsole3getEvE8instance,a4
 612      2300F700 
 613              	.L27:
  13:src/../h/../h/0_console.h ****     }
 614              		.loc 3 13 9 is_stmt 1
 615              	.LBE78:
 616              	.LBE77:
  31:src/../h/my_console.h **** 
 617              		.loc 2 31 36 is_stmt 0
 618 0470 17050000 		lla	a0,_ZZN8IConsole3getEvE8instance
 618      13050500 
 619 0478 97000000 		call	_ZN8IConsole14writeToConsoleEv@plt
 619      E7800000 
 620              	.LVL76:
 621              		.loc 2 34 5 is_stmt 1
 622              		.loc 2 34 15 is_stmt 0
 623 0480 97000000 		call	_Z10stopKernelv@plt
 623      E7800000 
 624              	.LVL77:
 625              	.L25:
 626              	.LBE76:
 627              	.LBE75:
 135:src/APP.cpp   ****     {
 136:src/APP.cpp   ****         __asm__ volatile("mv x10, x10");
 137:src/APP.cpp   ****         assert((*((uint64*)n)) == newN);
 138:src/APP.cpp   **** 
 139:src/APP.cpp   ****         if(oldTimer != gTimer)
 140:src/APP.cpp   ****         {
 141:src/APP.cpp   ****             __asm__ volatile("mv x10, x10");
 142:src/APP.cpp   **** 
 143:src/APP.cpp   ****             sliceSecondCounter++;
 144:src/APP.cpp   ****             assert((((int)sliceFirstCounter) - ((int)sliceSecondCounter)) <= 1);
 145:src/APP.cpp   ****             oldTimer = gTimer;
 146:src/APP.cpp   ****         }
 147:src/APP.cpp   **** 
 148:src/APP.cpp   ****         __asm__ volatile("mv x10, x10");
 628              		.loc 1 148 9 is_stmt 1 discriminator 2
GAS LISTING /tmp/ccZv3MCA.s 			page 19


 629              		.loc 1 148 40 is_stmt 0 discriminator 2
 630              	#APP
 631              	# 148 "src/APP.cpp" 1
 149              	    }
 134:src/APP.cpp   ****     {
 632              		mv x10, x10
 633              	# 0 "" 2
 634              		.loc 1 134 5 is_stmt 1 discriminator 2
 635              	#NO_APP
 636 048c 93871700 		addi	a5,a5,1
 637              	.LVL78:
 638              	.L28:
 134:src/APP.cpp   ****     {
 639              		.loc 1 134 22 discriminator 1
 640 0490 63FCC704 		bgeu	a5,a2,.L22
 136:src/APP.cpp   ****         assert((*((uint64*)n)) == newN);
 641              		.loc 1 136 9
 136:src/APP.cpp   ****         assert((*((uint64*)n)) == newN);
 642              		.loc 1 136 40 is_stmt 0
 643              	#APP
 644              	# 136 "src/APP.cpp" 1
 137:src/APP.cpp   **** 
 645              		mv x10, x10
 646              	# 0 "" 2
 647              		.loc 1 137 9 is_stmt 1
 648              	#NO_APP
 649 0498 03370500 		ld	a4,0(a0)
 650              	.LVL79:
 651              	.LBB83:
 652              	.LBB74:
  21:src/../h/my_console.h ****         return;
 653              		.loc 2 21 5
 654 049c E31EC7EA 		bne	a4,a2,.L32
  22:src/../h/my_console.h **** 
 655              		.loc 2 22 9
 656              	.LVL80:
 657              	.LBE74:
 658              	.LBE83:
 139:src/APP.cpp   ****         {
 659              		.loc 1 139 9
 139:src/APP.cpp   ****         {
 660              		.loc 1 139 21 is_stmt 0
 661 04a0 17070000 		la	a4,gTimer
 661      03370700 
 662 04a8 03370700 		ld	a4,0(a4)
 139:src/APP.cpp   ****         {
 663              		.loc 1 139 9
 664 04ac E30ED7FC 		beq	a4,a3,.L25
 141:src/APP.cpp   **** 
 665              		.loc 1 141 13 is_stmt 1
 141:src/APP.cpp   **** 
 666              		.loc 1 141 44 is_stmt 0
 667              	#APP
 668              	# 141 "src/APP.cpp" 1
 143:src/APP.cpp   ****             assert((((int)sliceFirstCounter) - ((int)sliceSecondCounter)) <= 1);
 669              		mv x10, x10
 670              	# 0 "" 2
GAS LISTING /tmp/ccZv3MCA.s 			page 20


 671              		.loc 1 143 13 is_stmt 1
 143:src/APP.cpp   ****             assert((((int)sliceFirstCounter) - ((int)sliceSecondCounter)) <= 1);
 672              		.loc 1 143 31 is_stmt 0
 673              	#NO_APP
 674 04b4 97050000 		lla	a1,.LANCHOR0
 674      93850500 
 675 04bc 03A74500 		lw	a4,4(a1)
 676 04c0 9B061700 		addiw	a3,a4,1
 677              	.LVL81:
 678 04c4 23A2D500 		sw	a3,4(a1)
 144:src/APP.cpp   ****             oldTimer = gTimer;
 679              		.loc 1 144 13 is_stmt 1
 680 04c8 03A70500 		lw	a4,0(a1)
 681 04cc 3B07D740 		subw	a4,a4,a3
 682 04d0 13272700 		slti	a4,a4,2
 683              	.LVL82:
 684              	.LBB84:
 685              	.LBB82:
  21:src/../h/my_console.h ****         return;
 686              		.loc 2 21 5
 687 04d4 E30E07F0 		beqz	a4,.L33
  22:src/../h/my_console.h **** 
 688              		.loc 2 22 9
 689              	.LVL83:
 690              	.LBE82:
 691              	.LBE84:
 145:src/APP.cpp   ****         }
 692              		.loc 1 145 13
 145:src/APP.cpp   ****         }
 693              		.loc 1 145 22 is_stmt 0
 694 04d8 17070000 		la	a4,gTimer
 694      03370700 
 695              	.LVL84:
 696 04e0 83360700 		ld	a3,0(a4)
 697              	.LVL85:
 698 04e4 6FF05FFA 		j	.L25
 699              	.L22:
 700              	.LBE66:
 150:src/APP.cpp   **** 
 151:src/APP.cpp   ****     assert(sliceSecondCounter > 0); // "n" in test too small probably
 701              		.loc 1 151 5 is_stmt 1
 702 04e8 97070000 		lw	a5,.LANCHOR0+4
 702      83A70700 
 703              	.LVL86:
 704              	.LBB85:
 705              	.LBB86:
  21:src/../h/my_console.h ****         return;
 706              		.loc 2 21 5
 707 04f0 635AF000 		blez	a5,.L34
 708              	.LBE86:
 709              	.LBE85:
 152:src/APP.cpp   **** }
 710              		.loc 1 152 1 is_stmt 0
 711 04f4 83308100 		ld	ra,8(sp)
 712              		.cfi_remember_state
 713              		.cfi_restore 1
 714 04f8 03340100 		ld	s0,0(sp)
GAS LISTING /tmp/ccZv3MCA.s 			page 21


 715              		.cfi_restore 8
 716              		.cfi_def_cfa 2, 16
 717 04fc 13010101 		addi	sp,sp,16
 718              		.cfi_def_cfa_offset 0
 719 0500 67800000 		jr	ra
 720              	.L34:
 721              		.cfi_restore_state
 722              	.LBB93:
 723              	.LBB92:
  24:src/../h/my_console.h ****     putString(file);
 724              		.loc 2 24 5 is_stmt 1
  24:src/../h/my_console.h ****     putString(file);
 725              		.loc 2 24 14 is_stmt 0
 726 0504 17050000 		lla	a0,.LC3
 726      13050500 
 727              	.LVL87:
 728 050c 97000000 		call	_Z9putStringPKc@plt
 728      E7800000 
 729              	.LVL88:
  25:src/../h/my_console.h ****     putString("    line: ");
 730              		.loc 2 25 5 is_stmt 1
  25:src/../h/my_console.h ****     putString("    line: ");
 731              		.loc 2 25 14 is_stmt 0
 732 0514 17050000 		lla	a0,.LC4
 732      13050500 
 733 051c 97000000 		call	_Z9putStringPKc@plt
 733      E7800000 
 734              	.LVL89:
  26:src/../h/my_console.h ****     putInt(line);
 735              		.loc 2 26 5 is_stmt 1
  26:src/../h/my_console.h ****     putInt(line);
 736              		.loc 2 26 14 is_stmt 0
 737 0524 17050000 		lla	a0,.LC5
 737      13050500 
 738 052c 97000000 		call	_Z9putStringPKc@plt
 738      E7800000 
 739              	.LVL90:
  27:src/../h/my_console.h ****     putString("   ===========================");
 740              		.loc 2 27 5 is_stmt 1
  27:src/../h/my_console.h ****     putString("   ===========================");
 741              		.loc 2 27 11 is_stmt 0
 742 0534 13057009 		li	a0,151
 743 0538 97000000 		call	_Z6putInti@plt
 743      E7800000 
 744              	.LVL91:
  28:src/../h/my_console.h ****     putNewline();
 745              		.loc 2 28 5 is_stmt 1
  28:src/../h/my_console.h ****     putNewline();
 746              		.loc 2 28 14 is_stmt 0
 747 0540 17050000 		lla	a0,.LC6
 747      13050500 
 748 0548 97000000 		call	_Z9putStringPKc@plt
 748      E7800000 
 749              	.LVL92:
  29:src/../h/my_console.h **** 
 750              		.loc 2 29 5 is_stmt 1
  29:src/../h/my_console.h **** 
GAS LISTING /tmp/ccZv3MCA.s 			page 22


 751              		.loc 2 29 15 is_stmt 0
 752 0550 97000000 		call	_Z10putNewlinev@plt
 752      E7800000 
 753              	.LVL93:
  31:src/../h/my_console.h **** 
 754              		.loc 2 31 5 is_stmt 1
 755              	.LBB87:
 756              	.LBB88:
  12:src/../h/../h/0_console.h ****         return &instance;
 757              		.loc 3 12 9
  12:src/../h/../h/0_console.h ****         return &instance;
 758              		.loc 3 12 25 is_stmt 0
 759 0558 97070000 		lbu	a5,_ZGVZN8IConsole3getEvE8instance
 759      83C70700 
 760 0560 63920702 		bnez	a5,.L30
 761              	.LVL94:
 762              	.LBB89:
 763              	.LBB90:
 764              	.LBB91:
 765              		.loc 3 32 63
 766 0564 97070000 		lla	a5,_ZZN8IConsole3getEvE8instance
 766      93870700 
 767 056c 23B00700 		sd	zero,0(a5)
 768 0570 23B40700 		sd	zero,8(a5)
 769 0574 23BC073E 		sd	zero,1016(a5)
 770              	.LVL95:
 771              	.LBE91:
 772              	.LBE90:
 773              	.LBE89:
  12:src/../h/../h/0_console.h ****         return &instance;
 774              		.loc 3 12 25
 775 0578 93071000 		li	a5,1
 776 057c 17070000 		sb	a5,_ZGVZN8IConsole3getEvE8instance,a4
 776      2300F700 
 777              	.L30:
  13:src/../h/../h/0_console.h ****     }
 778              		.loc 3 13 9 is_stmt 1
 779              	.LBE88:
 780              	.LBE87:
  31:src/../h/my_console.h **** 
 781              		.loc 2 31 36 is_stmt 0
 782 0584 17050000 		lla	a0,_ZZN8IConsole3getEvE8instance
 782      13050500 
 783 058c 97000000 		call	_ZN8IConsole14writeToConsoleEv@plt
 783      E7800000 
 784              	.LVL96:
 785              		.loc 2 34 5 is_stmt 1
 786              		.loc 2 34 15 is_stmt 0
 787 0594 97000000 		call	_Z10stopKernelv@plt
 787      E7800000 
 788              	.LVL97:
 789              	.LBE92:
 790              	.LBE93:
 791              		.cfi_endproc
 792              	.LFE19:
 794              		.section	.rodata.str1.8
 795 00ec 00000000 		.align	3
GAS LISTING /tmp/ccZv3MCA.s 			page 23


 796              	.LC8:
 797 00f0 3D3D3D20 		.string	"=== Testing \"testSyncCall\""
 797      54657374 
 797      696E6720 
 797      22746573 
 797      7453796E 
 798 010b 00000000 		.align	3
 798      00
 799              	.LC9:
 800 0110 3D3D3D20 		.string	"=== PASS in testing \"testSyncCall\""
 800      50415353 
 800      20696E20 
 800      74657374 
 800      696E6720 
 801              		.text
 802              		.align	2
 803              		.globl	_Z12testSyncCallv
 805              	_Z12testSyncCallv:
 806              	.LFB20:
 153:src/APP.cpp   **** 
 154:src/APP.cpp   **** void testSyncCall()
 155:src/APP.cpp   **** {
 807              		.loc 1 155 1 is_stmt 1
 808              		.cfi_startproc
 809 059c 130101FD 		addi	sp,sp,-48
 810              		.cfi_def_cfa_offset 48
 811 05a0 23341102 		sd	ra,40(sp)
 812 05a4 23308102 		sd	s0,32(sp)
 813              		.cfi_offset 1, -8
 814              		.cfi_offset 8, -16
 815 05a8 13040103 		addi	s0,sp,48
 816              		.cfi_def_cfa 8, 0
 156:src/APP.cpp   **** //    disableExternalInterrupts();
 157:src/APP.cpp   **** 
 158:src/APP.cpp   **** //    assert(MemAlloc::get()->getUserlandUsage() == IThread::initialUserMemoryUsage);
 159:src/APP.cpp   **** 
 160:src/APP.cpp   ****     putString("=== Testing \"testSyncCall\"");
 817              		.loc 1 160 5
 818              		.loc 1 160 14 is_stmt 0
 819 05ac 17050000 		lla	a0,.LC8
 819      13050500 
 820 05b4 97000000 		call	_Z9putStringPKc@plt
 820      E7800000 
 821              	.LVL98:
 161:src/APP.cpp   ****     putNewline();
 822              		.loc 1 161 5 is_stmt 1
 823              		.loc 1 161 15 is_stmt 0
 824 05bc 97000000 		call	_Z10putNewlinev@plt
 824      E7800000 
 825              	.LVL99:
 162:src/APP.cpp   **** 
 163:src/APP.cpp   ****     void doA(void*);
 826              		.loc 1 163 5 is_stmt 1
 164:src/APP.cpp   ****     void doB(void*);
 827              		.loc 1 164 5
 165:src/APP.cpp   **** 
 166:src/APP.cpp   ****     int argA = 69;
GAS LISTING /tmp/ccZv3MCA.s 			page 24


 828              		.loc 1 166 5
 829              		.loc 1 166 9 is_stmt 0
 830 05c4 93075004 		li	a5,69
 831 05c8 2326F4FE 		sw	a5,-20(s0)
 167:src/APP.cpp   ****     int argB = 420;
 832              		.loc 1 167 5 is_stmt 1
 833              		.loc 1 167 9 is_stmt 0
 834 05cc 9307401A 		li	a5,420
 835 05d0 2324F4FE 		sw	a5,-24(s0)
 168:src/APP.cpp   ****     thread_t a;
 836              		.loc 1 168 5 is_stmt 1
 169:src/APP.cpp   ****     thread_t b;
 837              		.loc 1 169 5
 170:src/APP.cpp   ****     thread_create(&a, doA, &argA);
 838              		.loc 1 170 5
 839              		.loc 1 170 18 is_stmt 0
 840 05d4 1306C4FE 		addi	a2,s0,-20
 841 05d8 97050000 		la	a1,_Z3doAPv
 841      83B50500 
 842 05e0 130504FE 		addi	a0,s0,-32
 843 05e4 97000000 		call	_Z13thread_createPmPFvPvES0_@plt
 843      E7800000 
 844              	.LVL100:
 171:src/APP.cpp   ****     thread_create(&b, doB, &argB);
 845              		.loc 1 171 5 is_stmt 1
 846              		.loc 1 171 18 is_stmt 0
 847 05ec 130684FE 		addi	a2,s0,-24
 848 05f0 97050000 		la	a1,_Z3doBPv
 848      83B50500 
 849 05f8 130584FD 		addi	a0,s0,-40
 850 05fc 97000000 		call	_Z13thread_createPmPFvPvES0_@plt
 850      E7800000 
 851              	.LVL101:
 172:src/APP.cpp   ****     thread_dispatch();
 852              		.loc 1 172 5 is_stmt 1
 853              		.loc 1 172 20 is_stmt 0
 854 0604 97000000 		call	_Z15thread_dispatchv@plt
 854      E7800000 
 855              	.LVL102:
 173:src/APP.cpp   **** 
 174:src/APP.cpp   ****     thread_join(b);
 856              		.loc 1 174 5 is_stmt 1
 857              		.loc 1 174 16 is_stmt 0
 858 060c 033584FD 		ld	a0,-40(s0)
 859 0610 97000000 		call	_Z11thread_joinm@plt
 859      E7800000 
 860              	.LVL103:
 175:src/APP.cpp   ****     thread_join(a);
 861              		.loc 1 175 5 is_stmt 1
 862              		.loc 1 175 16 is_stmt 0
 863 0618 033504FE 		ld	a0,-32(s0)
 864 061c 97000000 		call	_Z11thread_joinm@plt
 864      E7800000 
 865              	.LVL104:
 176:src/APP.cpp   **** 
 177:src/APP.cpp   ****     putString("=== PASS in testing \"testSyncCall\"");
 866              		.loc 1 177 5 is_stmt 1
GAS LISTING /tmp/ccZv3MCA.s 			page 25


 867              		.loc 1 177 14 is_stmt 0
 868 0624 17050000 		lla	a0,.LC9
 868      13050500 
 869 062c 97000000 		call	_Z9putStringPKc@plt
 869      E7800000 
 870              	.LVL105:
 178:src/APP.cpp   ****     putNewline();
 871              		.loc 1 178 5 is_stmt 1
 872              		.loc 1 178 15 is_stmt 0
 873 0634 97000000 		call	_Z10putNewlinev@plt
 873      E7800000 
 874              	.LVL106:
 179:src/APP.cpp   **** 
 180:src/APP.cpp   **** //    enableExternalInterrupts();
 181:src/APP.cpp   **** }
 875              		.loc 1 181 1
 876 063c 83308102 		ld	ra,40(sp)
 877              		.cfi_restore 1
 878 0640 03340102 		ld	s0,32(sp)
 879              		.cfi_restore 8
 880              		.cfi_def_cfa 2, 48
 881 0644 13010103 		addi	sp,sp,48
 882              		.cfi_def_cfa_offset 0
 883 0648 67800000 		jr	ra
 884              		.cfi_endproc
 885              	.LFE20:
 887              		.align	2
 888              		.globl	_Z3fibm
 890              	_Z3fibm:
 891              	.LFB23:
 182:src/APP.cpp   **** 
 183:src/APP.cpp   **** void doA(void* p)
 184:src/APP.cpp   **** {
 185:src/APP.cpp   ****     assert(*((int*)p) == 69);
 186:src/APP.cpp   **** 
 187:src/APP.cpp   ****     for(int i=0; i<=5; i++)
 188:src/APP.cpp   ****     {
 189:src/APP.cpp   ****         assert(fib(i) == test_call(i));
 190:src/APP.cpp   ****         thread_dispatch();
 191:src/APP.cpp   ****     }
 192:src/APP.cpp   **** 
 193:src/APP.cpp   ****     __asm__ volatile("mv x10, x10");
 194:src/APP.cpp   ****     thread_exit();
 195:src/APP.cpp   ****     assert(false);
 196:src/APP.cpp   **** }
 197:src/APP.cpp   **** 
 198:src/APP.cpp   **** void doB(void* p)
 199:src/APP.cpp   **** {
 200:src/APP.cpp   ****     assert(*((int*)p) == 420);
 201:src/APP.cpp   **** 
 202:src/APP.cpp   ****     for(int i=0; i<=10; i++)
 203:src/APP.cpp   ****     {
 204:src/APP.cpp   ****         assert(fib(i) == test_call(i));
 205:src/APP.cpp   ****         thread_dispatch();
 206:src/APP.cpp   ****     }
 207:src/APP.cpp   **** 
 208:src/APP.cpp   ****     thread_exit();
GAS LISTING /tmp/ccZv3MCA.s 			page 26


 209:src/APP.cpp   ****     assert(false);
 210:src/APP.cpp   **** }
 211:src/APP.cpp   **** 
 212:src/APP.cpp   **** 
 213:src/APP.cpp   **** uint64 fib(uint64 n)
 214:src/APP.cpp   **** {
 892              		.loc 1 214 1 is_stmt 1
 893              		.cfi_startproc
 894              	.LVL107:
 895 064c 130101FE 		addi	sp,sp,-32
 896              		.cfi_def_cfa_offset 32
 897 0650 233C1100 		sd	ra,24(sp)
 898 0654 23388100 		sd	s0,16(sp)
 899 0658 23349100 		sd	s1,8(sp)
 900 065c 23302101 		sd	s2,0(sp)
 901              		.cfi_offset 1, -8
 902              		.cfi_offset 8, -16
 903              		.cfi_offset 9, -24
 904              		.cfi_offset 18, -32
 905 0660 13040102 		addi	s0,sp,32
 906              		.cfi_def_cfa 8, 0
 907 0664 93040500 		mv	s1,a0
 215:src/APP.cpp   ****     if(n == 1)
 908              		.loc 1 215 5
 909 0668 93071000 		li	a5,1
 910 066c 6304F500 		beq	a0,a5,.L38
 216:src/APP.cpp   ****         return 1;
 217:src/APP.cpp   ****     else if (n == 0)
 911              		.loc 1 217 10
 912 0670 63100502 		bnez	a0,.L40
 913              	.LVL108:
 914              	.L38:
 218:src/APP.cpp   ****         return 0;
 219:src/APP.cpp   ****     else return fib(n-1) + fib(n-2);
 220:src/APP.cpp   **** }
 915              		.loc 1 220 1 is_stmt 0
 916 0674 13850400 		mv	a0,s1
 917 0678 83308101 		ld	ra,24(sp)
 918              		.cfi_remember_state
 919              		.cfi_restore 1
 920 067c 03340101 		ld	s0,16(sp)
 921              		.cfi_restore 8
 922              		.cfi_def_cfa 2, 32
 923 0680 83348100 		ld	s1,8(sp)
 924              		.cfi_restore 9
 925 0684 03390100 		ld	s2,0(sp)
 926              		.cfi_restore 18
 927 0688 13010102 		addi	sp,sp,32
 928              		.cfi_def_cfa_offset 0
 929 068c 67800000 		jr	ra
 930              	.LVL109:
 931              	.L40:
 932              		.cfi_restore_state
 219:src/APP.cpp   **** }
 933              		.loc 1 219 10 is_stmt 1
 219:src/APP.cpp   **** }
 934              		.loc 1 219 20 is_stmt 0
GAS LISTING /tmp/ccZv3MCA.s 			page 27


 935 0690 1305F5FF 		addi	a0,a0,-1
 936 0694 97000000 		call	_Z3fibm
 936      E7800000 
 937              	.LVL110:
 938 069c 13090500 		mv	s2,a0
 219:src/APP.cpp   **** }
 939              		.loc 1 219 31
 940 06a0 1385E4FF 		addi	a0,s1,-2
 941 06a4 97000000 		call	_Z3fibm
 941      E7800000 
 942              	.LVL111:
 219:src/APP.cpp   **** }
 943              		.loc 1 219 35
 944 06ac B304A900 		add	s1,s2,a0
 945              	.LVL112:
 946 06b0 6FF05FFC 		j	.L38
 947              		.cfi_endproc
 948              	.LFE23:
 950              		.align	2
 951              		.globl	_Z8doSleepAPv
 953              	_Z8doSleepAPv:
 954              	.LFB16:
  58:src/APP.cpp   ****     uint64 *n = (uint64*)p;
 955              		.loc 1 58 1 is_stmt 1
 956              		.cfi_startproc
 957              	.LVL113:
 958 06b4 130101FD 		addi	sp,sp,-48
 959              		.cfi_def_cfa_offset 48
 960 06b8 23341102 		sd	ra,40(sp)
 961 06bc 23308102 		sd	s0,32(sp)
 962 06c0 233C9100 		sd	s1,24(sp)
 963 06c4 23382101 		sd	s2,16(sp)
 964 06c8 23343101 		sd	s3,8(sp)
 965              		.cfi_offset 1, -8
 966              		.cfi_offset 8, -16
 967              		.cfi_offset 9, -24
 968              		.cfi_offset 18, -32
 969              		.cfi_offset 19, -40
 970 06cc 13040103 		addi	s0,sp,48
 971              		.cfi_def_cfa 8, 0
  59:src/APP.cpp   **** 
 972              		.loc 1 59 5
 973              	.LVL114:
  61:src/APP.cpp   ****     while(i <= 8)
 974              		.loc 1 61 5
  61:src/APP.cpp   ****     while(i <= 8)
 975              		.loc 1 61 12 is_stmt 0
 976 06d0 83390500 		ld	s3,0(a0)
 977              	.LVL115:
 978              	.L49:
  62:src/APP.cpp   ****     {
 979              		.loc 1 62 5 is_stmt 1
  62:src/APP.cpp   ****     {
 980              		.loc 1 62 13
 981 06d4 93078000 		li	a5,8
 982 06d8 63E23725 		bgtu	s3,a5,.L41
 983              	.LBB116:
GAS LISTING /tmp/ccZv3MCA.s 			page 28


  64:src/APP.cpp   **** 
 984              		.loc 1 64 9
  64:src/APP.cpp   **** 
 985              		.loc 1 64 20 is_stmt 0
 986 06dc 13850900 		mv	a0,s3
 987 06e0 97000000 		call	_Z3fibm
 987      E7800000 
 988              	.LVL116:
  64:src/APP.cpp   **** 
 989              		.loc 1 64 22
 990 06e8 9B040500 		sext.w	s1,a0
 991              	.LVL117:
  66:src/APP.cpp   ****         int b = time_sleep(a);
 992              		.loc 1 66 9 is_stmt 1
  66:src/APP.cpp   ****         int b = time_sleep(a);
 993              		.loc 1 66 16 is_stmt 0
 994 06ec 97070000 		la	a5,gTimer
 994      83B70700 
 995 06f4 03B90700 		ld	s2,0(a5)
 996              	.LVL118:
  67:src/APP.cpp   **** 
 997              		.loc 1 67 9 is_stmt 1
  67:src/APP.cpp   **** 
 998              		.loc 1 67 27 is_stmt 0
 999 06f8 13850400 		mv	a0,s1
 1000 06fc 97000000 		call	_Z10time_sleepm@plt
 1000      E7800000 
 1001              	.LVL119:
  69:src/APP.cpp   ****         assert((oldTimer - gTimer) <= (((uint64)a) + 2));
 1002              		.loc 1 69 9 is_stmt 1
 1003              	.LBB117:
 1004              	.LBB118:
  21:src/../h/my_console.h ****         return;
 1005              		.loc 2 21 5
 1006 0704 63180504 		bnez	a0,.L51
  22:src/../h/my_console.h **** 
 1007              		.loc 2 22 9
 1008              	.LVL120:
 1009              	.LBE118:
 1010              	.LBE117:
  70:src/APP.cpp   ****         assert((oldTimer - gTimer) >= ((uint64)a));
 1011              		.loc 1 70 9
 1012 0708 97070000 		la	a5,gTimer
 1012      83B70700 
 1013 0710 83B70700 		ld	a5,0(a5)
 1014 0714 B307F940 		sub	a5,s2,a5
 1015 0718 13872400 		addi	a4,s1,2
 1016 071c B337F700 		sgtu	a5,a5,a4
 1017 0720 93C71700 		xori	a5,a5,1
 1018 0724 93F7F70F 		andi	a5,a5,0xff
 1019              	.LVL121:
 1020              	.LBB125:
 1021              	.LBB126:
  21:src/../h/my_console.h ****         return;
 1022              		.loc 2 21 5
 1023 0728 6382070C 		beqz	a5,.L52
  22:src/../h/my_console.h **** 
GAS LISTING /tmp/ccZv3MCA.s 			page 29


 1024              		.loc 2 22 9
 1025              	.LVL122:
 1026              	.LBE126:
 1027              	.LBE125:
  71:src/APP.cpp   **** 
 1028              		.loc 1 71 9
 1029 072c 97070000 		la	a5,gTimer
 1029      83B70700 
 1030 0734 03B50700 		ld	a0,0(a5)
 1031              	.LVL123:
 1032 0738 3309A940 		sub	s2,s2,a0
 1033              	.LVL124:
 1034 073c B3349900 		sgtu	s1,s1,s2
 1035              	.LVL125:
 1036 0740 93C41400 		xori	s1,s1,1
 1037 0744 93F4F40F 		andi	s1,s1,0xff
 1038              	.LVL126:
 1039              	.LBB133:
 1040              	.LBB134:
  21:src/../h/my_console.h ****         return;
 1041              		.loc 2 21 5
 1042 0748 638E0412 		beqz	s1,.L53
  22:src/../h/my_console.h **** 
 1043              		.loc 2 22 9
 1044              	.LVL127:
 1045              	.LBE134:
 1046              	.LBE133:
  73:src/APP.cpp   ****     }
 1047              		.loc 1 73 9
  73:src/APP.cpp   ****     }
 1048              		.loc 1 73 10 is_stmt 0
 1049 074c 93891900 		addi	s3,s3,1
 1050              	.LVL128:
 1051              	.LBE116:
  62:src/APP.cpp   ****     {
 1052              		.loc 1 62 5
 1053 0750 6FF05FF8 		j	.L49
 1054              	.LVL129:
 1055              	.L51:
 1056              	.LBB144:
 1057              	.LBB141:
 1058              	.LBB124:
  24:src/../h/my_console.h ****     putString(file);
 1059              		.loc 2 24 5 is_stmt 1
  24:src/../h/my_console.h ****     putString(file);
 1060              		.loc 2 24 14 is_stmt 0
 1061 0754 17050000 		lla	a0,.LC3
 1061      13050500 
 1062              	.LVL130:
 1063 075c 97000000 		call	_Z9putStringPKc@plt
 1063      E7800000 
 1064              	.LVL131:
  25:src/../h/my_console.h ****     putString("    line: ");
 1065              		.loc 2 25 5 is_stmt 1
  25:src/../h/my_console.h ****     putString("    line: ");
 1066              		.loc 2 25 14 is_stmt 0
 1067 0764 17050000 		lla	a0,.LC4
GAS LISTING /tmp/ccZv3MCA.s 			page 30


 1067      13050500 
 1068 076c 97000000 		call	_Z9putStringPKc@plt
 1068      E7800000 
 1069              	.LVL132:
  26:src/../h/my_console.h ****     putInt(line);
 1070              		.loc 2 26 5 is_stmt 1
  26:src/../h/my_console.h ****     putInt(line);
 1071              		.loc 2 26 14 is_stmt 0
 1072 0774 17050000 		lla	a0,.LC5
 1072      13050500 
 1073 077c 97000000 		call	_Z9putStringPKc@plt
 1073      E7800000 
 1074              	.LVL133:
  27:src/../h/my_console.h ****     putString("   ===========================");
 1075              		.loc 2 27 5 is_stmt 1
  27:src/../h/my_console.h ****     putString("   ===========================");
 1076              		.loc 2 27 11 is_stmt 0
 1077 0784 13055004 		li	a0,69
 1078 0788 97000000 		call	_Z6putInti@plt
 1078      E7800000 
 1079              	.LVL134:
  28:src/../h/my_console.h ****     putNewline();
 1080              		.loc 2 28 5 is_stmt 1
  28:src/../h/my_console.h ****     putNewline();
 1081              		.loc 2 28 14 is_stmt 0
 1082 0790 17050000 		lla	a0,.LC6
 1082      13050500 
 1083 0798 97000000 		call	_Z9putStringPKc@plt
 1083      E7800000 
 1084              	.LVL135:
  29:src/../h/my_console.h **** 
 1085              		.loc 2 29 5 is_stmt 1
  29:src/../h/my_console.h **** 
 1086              		.loc 2 29 15 is_stmt 0
 1087 07a0 97000000 		call	_Z10putNewlinev@plt
 1087      E7800000 
 1088              	.LVL136:
  31:src/../h/my_console.h **** 
 1089              		.loc 2 31 5 is_stmt 1
 1090              	.LBB119:
 1091              	.LBB120:
  12:src/../h/../h/0_console.h ****         return &instance;
 1092              		.loc 3 12 9
  12:src/../h/../h/0_console.h ****         return &instance;
 1093              		.loc 3 12 25 is_stmt 0
 1094 07a8 97070000 		lbu	a5,_ZGVZN8IConsole3getEvE8instance
 1094      83C70700 
 1095 07b0 63920702 		bnez	a5,.L44
 1096              	.LVL137:
 1097              	.LBB121:
 1098              	.LBB122:
 1099              	.LBB123:
 1100              		.loc 3 32 63
 1101 07b4 97070000 		lla	a5,_ZZN8IConsole3getEvE8instance
 1101      93870700 
 1102 07bc 23B00700 		sd	zero,0(a5)
 1103 07c0 23B40700 		sd	zero,8(a5)
GAS LISTING /tmp/ccZv3MCA.s 			page 31


 1104 07c4 23BC073E 		sd	zero,1016(a5)
 1105              	.LVL138:
 1106              	.LBE123:
 1107              	.LBE122:
 1108              	.LBE121:
  12:src/../h/../h/0_console.h ****         return &instance;
 1109              		.loc 3 12 25
 1110 07c8 93071000 		li	a5,1
 1111 07cc 17070000 		sb	a5,_ZGVZN8IConsole3getEvE8instance,a4
 1111      2300F700 
 1112              	.L44:
  13:src/../h/../h/0_console.h ****     }
 1113              		.loc 3 13 9 is_stmt 1
 1114              	.LBE120:
 1115              	.LBE119:
  31:src/../h/my_console.h **** 
 1116              		.loc 2 31 36 is_stmt 0
 1117 07d4 17050000 		lla	a0,_ZZN8IConsole3getEvE8instance
 1117      13050500 
 1118 07dc 97000000 		call	_ZN8IConsole14writeToConsoleEv@plt
 1118      E7800000 
 1119              	.LVL139:
 1120              		.loc 2 34 5 is_stmt 1
 1121              		.loc 2 34 15 is_stmt 0
 1122 07e4 97000000 		call	_Z10stopKernelv@plt
 1122      E7800000 
 1123              	.LVL140:
 1124              	.L52:
 1125              	.LBE124:
 1126              	.LBE141:
 1127              	.LBB142:
 1128              	.LBB132:
  24:src/../h/my_console.h ****     putString(file);
 1129              		.loc 2 24 5 is_stmt 1
  24:src/../h/my_console.h ****     putString(file);
 1130              		.loc 2 24 14 is_stmt 0
 1131 07ec 17050000 		lla	a0,.LC3
 1131      13050500 
 1132              	.LVL141:
 1133 07f4 97000000 		call	_Z9putStringPKc@plt
 1133      E7800000 
 1134              	.LVL142:
  25:src/../h/my_console.h ****     putString("    line: ");
 1135              		.loc 2 25 5 is_stmt 1
  25:src/../h/my_console.h ****     putString("    line: ");
 1136              		.loc 2 25 14 is_stmt 0
 1137 07fc 17050000 		lla	a0,.LC4
 1137      13050500 
 1138 0804 97000000 		call	_Z9putStringPKc@plt
 1138      E7800000 
 1139              	.LVL143:
  26:src/../h/my_console.h ****     putInt(line);
 1140              		.loc 2 26 5 is_stmt 1
  26:src/../h/my_console.h ****     putInt(line);
 1141              		.loc 2 26 14 is_stmt 0
 1142 080c 17050000 		lla	a0,.LC5
 1142      13050500 
GAS LISTING /tmp/ccZv3MCA.s 			page 32


 1143 0814 97000000 		call	_Z9putStringPKc@plt
 1143      E7800000 
 1144              	.LVL144:
  27:src/../h/my_console.h ****     putString("   ===========================");
 1145              		.loc 2 27 5 is_stmt 1
  27:src/../h/my_console.h ****     putString("   ===========================");
 1146              		.loc 2 27 11 is_stmt 0
 1147 081c 13056004 		li	a0,70
 1148 0820 97000000 		call	_Z6putInti@plt
 1148      E7800000 
 1149              	.LVL145:
  28:src/../h/my_console.h ****     putNewline();
 1150              		.loc 2 28 5 is_stmt 1
  28:src/../h/my_console.h ****     putNewline();
 1151              		.loc 2 28 14 is_stmt 0
 1152 0828 17050000 		lla	a0,.LC6
 1152      13050500 
 1153 0830 97000000 		call	_Z9putStringPKc@plt
 1153      E7800000 
 1154              	.LVL146:
  29:src/../h/my_console.h **** 
 1155              		.loc 2 29 5 is_stmt 1
  29:src/../h/my_console.h **** 
 1156              		.loc 2 29 15 is_stmt 0
 1157 0838 97000000 		call	_Z10putNewlinev@plt
 1157      E7800000 
 1158              	.LVL147:
  31:src/../h/my_console.h **** 
 1159              		.loc 2 31 5 is_stmt 1
 1160              	.LBB127:
 1161              	.LBB128:
  12:src/../h/../h/0_console.h ****         return &instance;
 1162              		.loc 3 12 9
  12:src/../h/../h/0_console.h ****         return &instance;
 1163              		.loc 3 12 25 is_stmt 0
 1164 0840 97070000 		lbu	a5,_ZGVZN8IConsole3getEvE8instance
 1164      83C70700 
 1165 0848 63920702 		bnez	a5,.L46
 1166              	.LVL148:
 1167              	.LBB129:
 1168              	.LBB130:
 1169              	.LBB131:
 1170              		.loc 3 32 63
 1171 084c 97070000 		lla	a5,_ZZN8IConsole3getEvE8instance
 1171      93870700 
 1172 0854 23B00700 		sd	zero,0(a5)
 1173 0858 23B40700 		sd	zero,8(a5)
 1174 085c 23BC073E 		sd	zero,1016(a5)
 1175              	.LVL149:
 1176              	.LBE131:
 1177              	.LBE130:
 1178              	.LBE129:
  12:src/../h/../h/0_console.h ****         return &instance;
 1179              		.loc 3 12 25
 1180 0860 93071000 		li	a5,1
 1181 0864 17070000 		sb	a5,_ZGVZN8IConsole3getEvE8instance,a4
 1181      2300F700 
GAS LISTING /tmp/ccZv3MCA.s 			page 33


 1182              	.L46:
  13:src/../h/../h/0_console.h ****     }
 1183              		.loc 3 13 9 is_stmt 1
 1184              	.LBE128:
 1185              	.LBE127:
  31:src/../h/my_console.h **** 
 1186              		.loc 2 31 36 is_stmt 0
 1187 086c 17050000 		lla	a0,_ZZN8IConsole3getEvE8instance
 1187      13050500 
 1188 0874 97000000 		call	_ZN8IConsole14writeToConsoleEv@plt
 1188      E7800000 
 1189              	.LVL150:
 1190              		.loc 2 34 5 is_stmt 1
 1191              		.loc 2 34 15 is_stmt 0
 1192 087c 97000000 		call	_Z10stopKernelv@plt
 1192      E7800000 
 1193              	.LVL151:
 1194              	.L53:
 1195              	.LBE132:
 1196              	.LBE142:
 1197              	.LBB143:
 1198              	.LBB140:
  24:src/../h/my_console.h ****     putString(file);
 1199              		.loc 2 24 5 is_stmt 1
  24:src/../h/my_console.h ****     putString(file);
 1200              		.loc 2 24 14 is_stmt 0
 1201 0884 17050000 		lla	a0,.LC3
 1201      13050500 
 1202 088c 97000000 		call	_Z9putStringPKc@plt
 1202      E7800000 
 1203              	.LVL152:
  25:src/../h/my_console.h ****     putString("    line: ");
 1204              		.loc 2 25 5 is_stmt 1
  25:src/../h/my_console.h ****     putString("    line: ");
 1205              		.loc 2 25 14 is_stmt 0
 1206 0894 17050000 		lla	a0,.LC4
 1206      13050500 
 1207 089c 97000000 		call	_Z9putStringPKc@plt
 1207      E7800000 
 1208              	.LVL153:
  26:src/../h/my_console.h ****     putInt(line);
 1209              		.loc 2 26 5 is_stmt 1
  26:src/../h/my_console.h ****     putInt(line);
 1210              		.loc 2 26 14 is_stmt 0
 1211 08a4 17050000 		lla	a0,.LC5
 1211      13050500 
 1212 08ac 97000000 		call	_Z9putStringPKc@plt
 1212      E7800000 
 1213              	.LVL154:
  27:src/../h/my_console.h ****     putString("   ===========================");
 1214              		.loc 2 27 5 is_stmt 1
  27:src/../h/my_console.h ****     putString("   ===========================");
 1215              		.loc 2 27 11 is_stmt 0
 1216 08b4 13057004 		li	a0,71
 1217 08b8 97000000 		call	_Z6putInti@plt
 1217      E7800000 
 1218              	.LVL155:
GAS LISTING /tmp/ccZv3MCA.s 			page 34


  28:src/../h/my_console.h ****     putNewline();
 1219              		.loc 2 28 5 is_stmt 1
  28:src/../h/my_console.h ****     putNewline();
 1220              		.loc 2 28 14 is_stmt 0
 1221 08c0 17050000 		lla	a0,.LC6
 1221      13050500 
 1222 08c8 97000000 		call	_Z9putStringPKc@plt
 1222      E7800000 
 1223              	.LVL156:
  29:src/../h/my_console.h **** 
 1224              		.loc 2 29 5 is_stmt 1
  29:src/../h/my_console.h **** 
 1225              		.loc 2 29 15 is_stmt 0
 1226 08d0 97000000 		call	_Z10putNewlinev@plt
 1226      E7800000 
 1227              	.LVL157:
  31:src/../h/my_console.h **** 
 1228              		.loc 2 31 5 is_stmt 1
 1229              	.LBB135:
 1230              	.LBB136:
  12:src/../h/../h/0_console.h ****         return &instance;
 1231              		.loc 3 12 9
  12:src/../h/../h/0_console.h ****         return &instance;
 1232              		.loc 3 12 25 is_stmt 0
 1233 08d8 97070000 		lbu	a5,_ZGVZN8IConsole3getEvE8instance
 1233      83C70700 
 1234 08e0 63920702 		bnez	a5,.L48
 1235              	.LVL158:
 1236              	.LBB137:
 1237              	.LBB138:
 1238              	.LBB139:
 1239              		.loc 3 32 63
 1240 08e4 97070000 		lla	a5,_ZZN8IConsole3getEvE8instance
 1240      93870700 
 1241 08ec 23B00700 		sd	zero,0(a5)
 1242 08f0 23B40700 		sd	zero,8(a5)
 1243 08f4 23BC073E 		sd	zero,1016(a5)
 1244              	.LVL159:
 1245              	.LBE139:
 1246              	.LBE138:
 1247              	.LBE137:
  12:src/../h/../h/0_console.h ****         return &instance;
 1248              		.loc 3 12 25
 1249 08f8 93071000 		li	a5,1
 1250 08fc 17070000 		sb	a5,_ZGVZN8IConsole3getEvE8instance,a4
 1250      2300F700 
 1251              	.L48:
  13:src/../h/../h/0_console.h ****     }
 1252              		.loc 3 13 9 is_stmt 1
 1253              	.LBE136:
 1254              	.LBE135:
  31:src/../h/my_console.h **** 
 1255              		.loc 2 31 36 is_stmt 0
 1256 0904 17050000 		lla	a0,_ZZN8IConsole3getEvE8instance
 1256      13050500 
 1257 090c 97000000 		call	_ZN8IConsole14writeToConsoleEv@plt
 1257      E7800000 
GAS LISTING /tmp/ccZv3MCA.s 			page 35


 1258              	.LVL160:
 1259              		.loc 2 34 5 is_stmt 1
 1260              		.loc 2 34 15 is_stmt 0
 1261 0914 97000000 		call	_Z10stopKernelv@plt
 1261      E7800000 
 1262              	.LVL161:
 1263              	.L41:
 1264              	.LBE140:
 1265              	.LBE143:
 1266              	.LBE144:
  75:src/APP.cpp   **** 
 1267              		.loc 1 75 1
 1268 091c 83308102 		ld	ra,40(sp)
 1269              		.cfi_restore 1
 1270 0920 03340102 		ld	s0,32(sp)
 1271              		.cfi_restore 8
 1272              		.cfi_def_cfa 2, 48
 1273 0924 83348101 		ld	s1,24(sp)
 1274              		.cfi_restore 9
 1275 0928 03390101 		ld	s2,16(sp)
 1276              		.cfi_restore 18
 1277 092c 83398100 		ld	s3,8(sp)
 1278              		.cfi_restore 19
 1279              	.LVL162:
 1280 0930 13010103 		addi	sp,sp,48
 1281              		.cfi_def_cfa_offset 0
 1282 0934 67800000 		jr	ra
 1283              		.cfi_endproc
 1284              	.LFE16:
 1286              		.align	2
 1287              		.globl	_Z3doAPv
 1289              	_Z3doAPv:
 1290              	.LFB21:
 184:src/APP.cpp   ****     assert(*((int*)p) == 69);
 1291              		.loc 1 184 1 is_stmt 1
 1292              		.cfi_startproc
 1293              	.LVL163:
 1294 0938 130101FE 		addi	sp,sp,-32
 1295              		.cfi_def_cfa_offset 32
 1296 093c 233C1100 		sd	ra,24(sp)
 1297 0940 23388100 		sd	s0,16(sp)
 1298 0944 23349100 		sd	s1,8(sp)
 1299 0948 23302101 		sd	s2,0(sp)
 1300              		.cfi_offset 1, -8
 1301              		.cfi_offset 8, -16
 1302              		.cfi_offset 9, -24
 1303              		.cfi_offset 18, -32
 1304 094c 13040102 		addi	s0,sp,32
 1305              		.cfi_def_cfa 8, 0
 185:src/APP.cpp   **** 
 1306              		.loc 1 185 5
 1307 0950 83270500 		lw	a5,0(a0)
 1308 0954 9387B7FB 		addi	a5,a5,-69
 1309              	.LVL164:
 1310              	.LBB167:
 1311              	.LBB168:
  21:src/../h/my_console.h ****         return;
GAS LISTING /tmp/ccZv3MCA.s 			page 36


 1312              		.loc 2 21 5
 1313 0958 63900704 		bnez	a5,.L63
 1314              	.LBE168:
 1315              	.LBE167:
 1316              	.LBB175:
 187:src/APP.cpp   ****     {
 1317              		.loc 1 187 13 is_stmt 0
 1318 095c 93040000 		li	s1,0
 1319              	.LVL165:
 1320              	.L55:
 187:src/APP.cpp   ****     {
 1321              		.loc 1 187 19 is_stmt 1 discriminator 3
 1322 0960 93075000 		li	a5,5
 1323 0964 63C29716 		bgt	s1,a5,.L57
 189:src/APP.cpp   ****         thread_dispatch();
 1324              		.loc 1 189 9 discriminator 2
 1325 0968 13850400 		mv	a0,s1
 1326 096c 97000000 		call	_Z3fibm
 1326      E7800000 
 1327              	.LVL166:
 1328 0974 13090500 		mv	s2,a0
 1329 0978 13850400 		mv	a0,s1
 1330 097c 97000000 		call	_Z9test_callm@plt
 1330      E7800000 
 1331              	.LVL167:
 1332              	.LBB176:
 1333              	.LBB177:
  21:src/../h/my_console.h ****         return;
 1334              		.loc 2 21 5 discriminator 2
 1335 0984 6316A90A 		bne	s2,a0,.L64
  22:src/../h/my_console.h **** 
 1336              		.loc 2 22 9 discriminator 2
 1337              	.LVL168:
 1338              	.LBE177:
 1339              	.LBE176:
 190:src/APP.cpp   ****     }
 1340              		.loc 1 190 9 discriminator 2
 190:src/APP.cpp   ****     }
 1341              		.loc 1 190 24 is_stmt 0 discriminator 2
 1342 0988 97000000 		call	_Z15thread_dispatchv@plt
 1342      E7800000 
 1343              	.LVL169:
 187:src/APP.cpp   ****     {
 1344              		.loc 1 187 5 is_stmt 1 discriminator 2
 1345 0990 9B841400 		addiw	s1,s1,1
 1346              	.LVL170:
 1347 0994 6FF0DFFC 		j	.L55
 1348              	.LVL171:
 1349              	.L63:
 1350              	.LBE175:
 1351              	.LBB185:
 1352              	.LBB174:
  24:src/../h/my_console.h ****     putString(file);
 1353              		.loc 2 24 5
  24:src/../h/my_console.h ****     putString(file);
 1354              		.loc 2 24 14 is_stmt 0
 1355 0998 17050000 		lla	a0,.LC3
GAS LISTING /tmp/ccZv3MCA.s 			page 37


 1355      13050500 
 1356              	.LVL172:
 1357 09a0 97000000 		call	_Z9putStringPKc@plt
 1357      E7800000 
 1358              	.LVL173:
  25:src/../h/my_console.h ****     putString("    line: ");
 1359              		.loc 2 25 5 is_stmt 1
  25:src/../h/my_console.h ****     putString("    line: ");
 1360              		.loc 2 25 14 is_stmt 0
 1361 09a8 17050000 		lla	a0,.LC4
 1361      13050500 
 1362 09b0 97000000 		call	_Z9putStringPKc@plt
 1362      E7800000 
 1363              	.LVL174:
  26:src/../h/my_console.h ****     putInt(line);
 1364              		.loc 2 26 5 is_stmt 1
  26:src/../h/my_console.h ****     putInt(line);
 1365              		.loc 2 26 14 is_stmt 0
 1366 09b8 17050000 		lla	a0,.LC5
 1366      13050500 
 1367 09c0 97000000 		call	_Z9putStringPKc@plt
 1367      E7800000 
 1368              	.LVL175:
  27:src/../h/my_console.h ****     putString("   ===========================");
 1369              		.loc 2 27 5 is_stmt 1
  27:src/../h/my_console.h ****     putString("   ===========================");
 1370              		.loc 2 27 11 is_stmt 0
 1371 09c8 1305900B 		li	a0,185
 1372 09cc 97000000 		call	_Z6putInti@plt
 1372      E7800000 
 1373              	.LVL176:
  28:src/../h/my_console.h ****     putNewline();
 1374              		.loc 2 28 5 is_stmt 1
  28:src/../h/my_console.h ****     putNewline();
 1375              		.loc 2 28 14 is_stmt 0
 1376 09d4 17050000 		lla	a0,.LC6
 1376      13050500 
 1377 09dc 97000000 		call	_Z9putStringPKc@plt
 1377      E7800000 
 1378              	.LVL177:
  29:src/../h/my_console.h **** 
 1379              		.loc 2 29 5 is_stmt 1
  29:src/../h/my_console.h **** 
 1380              		.loc 2 29 15 is_stmt 0
 1381 09e4 97000000 		call	_Z10putNewlinev@plt
 1381      E7800000 
 1382              	.LVL178:
  31:src/../h/my_console.h **** 
 1383              		.loc 2 31 5 is_stmt 1
 1384              	.LBB169:
 1385              	.LBB170:
  12:src/../h/../h/0_console.h ****         return &instance;
 1386              		.loc 3 12 9
  12:src/../h/../h/0_console.h ****         return &instance;
 1387              		.loc 3 12 25 is_stmt 0
 1388 09ec 97070000 		lbu	a5,_ZGVZN8IConsole3getEvE8instance
 1388      83C70700 
GAS LISTING /tmp/ccZv3MCA.s 			page 38


 1389 09f4 63920702 		bnez	a5,.L56
 1390              	.LVL179:
 1391              	.LBB171:
 1392              	.LBB172:
 1393              	.LBB173:
 1394              		.loc 3 32 63
 1395 09f8 97070000 		lla	a5,_ZZN8IConsole3getEvE8instance
 1395      93870700 
 1396 0a00 23B00700 		sd	zero,0(a5)
 1397 0a04 23B40700 		sd	zero,8(a5)
 1398 0a08 23BC073E 		sd	zero,1016(a5)
 1399              	.LVL180:
 1400              	.LBE173:
 1401              	.LBE172:
 1402              	.LBE171:
  12:src/../h/../h/0_console.h ****         return &instance;
 1403              		.loc 3 12 25
 1404 0a0c 93071000 		li	a5,1
 1405 0a10 17070000 		sb	a5,_ZGVZN8IConsole3getEvE8instance,a4
 1405      2300F700 
 1406              	.L56:
  13:src/../h/../h/0_console.h ****     }
 1407              		.loc 3 13 9 is_stmt 1
 1408              	.LBE170:
 1409              	.LBE169:
  31:src/../h/my_console.h **** 
 1410              		.loc 2 31 36 is_stmt 0
 1411 0a18 17050000 		lla	a0,_ZZN8IConsole3getEvE8instance
 1411      13050500 
 1412 0a20 97000000 		call	_ZN8IConsole14writeToConsoleEv@plt
 1412      E7800000 
 1413              	.LVL181:
 1414              		.loc 2 34 5 is_stmt 1
 1415              		.loc 2 34 15 is_stmt 0
 1416 0a28 97000000 		call	_Z10stopKernelv@plt
 1416      E7800000 
 1417              	.LVL182:
 1418              	.L64:
 1419              	.LBE174:
 1420              	.LBE185:
 1421              	.LBB186:
 1422              	.LBB184:
 1423              	.LBB183:
  24:src/../h/my_console.h ****     putString(file);
 1424              		.loc 2 24 5 is_stmt 1
  24:src/../h/my_console.h ****     putString(file);
 1425              		.loc 2 24 14 is_stmt 0
 1426 0a30 17050000 		lla	a0,.LC3
 1426      13050500 
 1427              	.LVL183:
 1428 0a38 97000000 		call	_Z9putStringPKc@plt
 1428      E7800000 
 1429              	.LVL184:
  25:src/../h/my_console.h ****     putString("    line: ");
 1430              		.loc 2 25 5 is_stmt 1
  25:src/../h/my_console.h ****     putString("    line: ");
 1431              		.loc 2 25 14 is_stmt 0
GAS LISTING /tmp/ccZv3MCA.s 			page 39


 1432 0a40 17050000 		lla	a0,.LC4
 1432      13050500 
 1433 0a48 97000000 		call	_Z9putStringPKc@plt
 1433      E7800000 
 1434              	.LVL185:
  26:src/../h/my_console.h ****     putInt(line);
 1435              		.loc 2 26 5 is_stmt 1
  26:src/../h/my_console.h ****     putInt(line);
 1436              		.loc 2 26 14 is_stmt 0
 1437 0a50 17050000 		lla	a0,.LC5
 1437      13050500 
 1438 0a58 97000000 		call	_Z9putStringPKc@plt
 1438      E7800000 
 1439              	.LVL186:
  27:src/../h/my_console.h ****     putString("   ===========================");
 1440              		.loc 2 27 5 is_stmt 1
  27:src/../h/my_console.h ****     putString("   ===========================");
 1441              		.loc 2 27 11 is_stmt 0
 1442 0a60 1305D00B 		li	a0,189
 1443 0a64 97000000 		call	_Z6putInti@plt
 1443      E7800000 
 1444              	.LVL187:
  28:src/../h/my_console.h ****     putNewline();
 1445              		.loc 2 28 5 is_stmt 1
  28:src/../h/my_console.h ****     putNewline();
 1446              		.loc 2 28 14 is_stmt 0
 1447 0a6c 17050000 		lla	a0,.LC6
 1447      13050500 
 1448 0a74 97000000 		call	_Z9putStringPKc@plt
 1448      E7800000 
 1449              	.LVL188:
  29:src/../h/my_console.h **** 
 1450              		.loc 2 29 5 is_stmt 1
  29:src/../h/my_console.h **** 
 1451              		.loc 2 29 15 is_stmt 0
 1452 0a7c 97000000 		call	_Z10putNewlinev@plt
 1452      E7800000 
 1453              	.LVL189:
  31:src/../h/my_console.h **** 
 1454              		.loc 2 31 5 is_stmt 1
 1455              	.LBB178:
 1456              	.LBB179:
  12:src/../h/../h/0_console.h ****         return &instance;
 1457              		.loc 3 12 9
  12:src/../h/../h/0_console.h ****         return &instance;
 1458              		.loc 3 12 25 is_stmt 0
 1459 0a84 97070000 		lbu	a5,_ZGVZN8IConsole3getEvE8instance
 1459      83C70700 
 1460 0a8c 63920702 		bnez	a5,.L59
 1461              	.LVL190:
 1462              	.LBB180:
 1463              	.LBB181:
 1464              	.LBB182:
 1465              		.loc 3 32 63
 1466 0a90 97070000 		lla	a5,_ZZN8IConsole3getEvE8instance
 1466      93870700 
 1467 0a98 23B00700 		sd	zero,0(a5)
GAS LISTING /tmp/ccZv3MCA.s 			page 40


 1468 0a9c 23B40700 		sd	zero,8(a5)
 1469 0aa0 23BC073E 		sd	zero,1016(a5)
 1470              	.LVL191:
 1471              	.LBE182:
 1472              	.LBE181:
 1473              	.LBE180:
  12:src/../h/../h/0_console.h ****         return &instance;
 1474              		.loc 3 12 25
 1475 0aa4 93071000 		li	a5,1
 1476 0aa8 17070000 		sb	a5,_ZGVZN8IConsole3getEvE8instance,a4
 1476      2300F700 
 1477              	.L59:
  13:src/../h/../h/0_console.h ****     }
 1478              		.loc 3 13 9 is_stmt 1
 1479              	.LBE179:
 1480              	.LBE178:
  31:src/../h/my_console.h **** 
 1481              		.loc 2 31 36 is_stmt 0
 1482 0ab0 17050000 		lla	a0,_ZZN8IConsole3getEvE8instance
 1482      13050500 
 1483 0ab8 97000000 		call	_ZN8IConsole14writeToConsoleEv@plt
 1483      E7800000 
 1484              	.LVL192:
 1485              		.loc 2 34 5 is_stmt 1
 1486              		.loc 2 34 15 is_stmt 0
 1487 0ac0 97000000 		call	_Z10stopKernelv@plt
 1487      E7800000 
 1488              	.LVL193:
 1489              	.L57:
 1490              	.LBE183:
 1491              	.LBE184:
 1492              	.LBE186:
 193:src/APP.cpp   ****     thread_exit();
 1493              		.loc 1 193 5 is_stmt 1
 193:src/APP.cpp   ****     thread_exit();
 1494              		.loc 1 193 36 is_stmt 0
 1495              	#APP
 1496              	# 193 "src/APP.cpp" 1
 194:src/APP.cpp   ****     assert(false);
 1497              		mv x10, x10
 1498              	# 0 "" 2
 1499              		.loc 1 194 5 is_stmt 1
 194:src/APP.cpp   ****     assert(false);
 1500              		.loc 1 194 16 is_stmt 0
 1501              	#NO_APP
 1502 0acc 97000000 		call	_Z11thread_exitv@plt
 1502      E7800000 
 1503              	.LVL194:
 195:src/APP.cpp   **** }
 1504              		.loc 1 195 5 is_stmt 1
 1505              	.LBB187:
 1506              	.LBB188:
  21:src/../h/my_console.h ****         return;
 1507              		.loc 2 21 5
  24:src/../h/my_console.h ****     putString(file);
 1508              		.loc 2 24 5
  24:src/../h/my_console.h ****     putString(file);
GAS LISTING /tmp/ccZv3MCA.s 			page 41


 1509              		.loc 2 24 14 is_stmt 0
 1510 0ad4 17050000 		lla	a0,.LC3
 1510      13050500 
 1511 0adc 97000000 		call	_Z9putStringPKc@plt
 1511      E7800000 
 1512              	.LVL195:
  25:src/../h/my_console.h ****     putString("    line: ");
 1513              		.loc 2 25 5 is_stmt 1
  25:src/../h/my_console.h ****     putString("    line: ");
 1514              		.loc 2 25 14 is_stmt 0
 1515 0ae4 17050000 		lla	a0,.LC4
 1515      13050500 
 1516 0aec 97000000 		call	_Z9putStringPKc@plt
 1516      E7800000 
 1517              	.LVL196:
  26:src/../h/my_console.h ****     putInt(line);
 1518              		.loc 2 26 5 is_stmt 1
  26:src/../h/my_console.h ****     putInt(line);
 1519              		.loc 2 26 14 is_stmt 0
 1520 0af4 17050000 		lla	a0,.LC5
 1520      13050500 
 1521 0afc 97000000 		call	_Z9putStringPKc@plt
 1521      E7800000 
 1522              	.LVL197:
  27:src/../h/my_console.h ****     putString("   ===========================");
 1523              		.loc 2 27 5 is_stmt 1
  27:src/../h/my_console.h ****     putString("   ===========================");
 1524              		.loc 2 27 11 is_stmt 0
 1525 0b04 1305300C 		li	a0,195
 1526 0b08 97000000 		call	_Z6putInti@plt
 1526      E7800000 
 1527              	.LVL198:
  28:src/../h/my_console.h ****     putNewline();
 1528              		.loc 2 28 5 is_stmt 1
  28:src/../h/my_console.h ****     putNewline();
 1529              		.loc 2 28 14 is_stmt 0
 1530 0b10 17050000 		lla	a0,.LC6
 1530      13050500 
 1531 0b18 97000000 		call	_Z9putStringPKc@plt
 1531      E7800000 
 1532              	.LVL199:
  29:src/../h/my_console.h **** 
 1533              		.loc 2 29 5 is_stmt 1
  29:src/../h/my_console.h **** 
 1534              		.loc 2 29 15 is_stmt 0
 1535 0b20 97000000 		call	_Z10putNewlinev@plt
 1535      E7800000 
 1536              	.LVL200:
  31:src/../h/my_console.h **** 
 1537              		.loc 2 31 5 is_stmt 1
 1538              	.LBB189:
 1539              	.LBB190:
  12:src/../h/../h/0_console.h ****         return &instance;
 1540              		.loc 3 12 9
  12:src/../h/../h/0_console.h ****         return &instance;
 1541              		.loc 3 12 25 is_stmt 0
 1542 0b28 97070000 		lbu	a5,_ZGVZN8IConsole3getEvE8instance
GAS LISTING /tmp/ccZv3MCA.s 			page 42


 1542      83C70700 
 1543 0b30 63920702 		bnez	a5,.L60
 1544              	.LVL201:
 1545              	.LBB191:
 1546              	.LBB192:
 1547              	.LBB193:
 1548              		.loc 3 32 63
 1549 0b34 97070000 		lla	a5,_ZZN8IConsole3getEvE8instance
 1549      93870700 
 1550 0b3c 23B00700 		sd	zero,0(a5)
 1551 0b40 23B40700 		sd	zero,8(a5)
 1552 0b44 23BC073E 		sd	zero,1016(a5)
 1553              	.LVL202:
 1554              	.LBE193:
 1555              	.LBE192:
 1556              	.LBE191:
  12:src/../h/../h/0_console.h ****         return &instance;
 1557              		.loc 3 12 25
 1558 0b48 93071000 		li	a5,1
 1559 0b4c 17070000 		sb	a5,_ZGVZN8IConsole3getEvE8instance,a4
 1559      2300F700 
 1560              	.L60:
  13:src/../h/../h/0_console.h ****     }
 1561              		.loc 3 13 9 is_stmt 1
 1562              	.LBE190:
 1563              	.LBE189:
  31:src/../h/my_console.h **** 
 1564              		.loc 2 31 36 is_stmt 0
 1565 0b54 17050000 		lla	a0,_ZZN8IConsole3getEvE8instance
 1565      13050500 
 1566 0b5c 97000000 		call	_ZN8IConsole14writeToConsoleEv@plt
 1566      E7800000 
 1567              	.LVL203:
 1568              		.loc 2 34 5 is_stmt 1
 1569              		.loc 2 34 15 is_stmt 0
 1570 0b64 97000000 		call	_Z10stopKernelv@plt
 1570      E7800000 
 1571              	.LVL204:
 1572              	.LBE188:
 1573              	.LBE187:
 1574              		.cfi_endproc
 1575              	.LFE21:
 1577              		.align	2
 1578              		.globl	_Z3doBPv
 1580              	_Z3doBPv:
 1581              	.LFB22:
 199:src/APP.cpp   ****     assert(*((int*)p) == 420);
 1582              		.loc 1 199 1 is_stmt 1
 1583              		.cfi_startproc
 1584              	.LVL205:
 1585 0b6c 130101FE 		addi	sp,sp,-32
 1586              		.cfi_def_cfa_offset 32
 1587 0b70 233C1100 		sd	ra,24(sp)
 1588 0b74 23388100 		sd	s0,16(sp)
 1589 0b78 23349100 		sd	s1,8(sp)
 1590 0b7c 23302101 		sd	s2,0(sp)
 1591              		.cfi_offset 1, -8
GAS LISTING /tmp/ccZv3MCA.s 			page 43


 1592              		.cfi_offset 8, -16
 1593              		.cfi_offset 9, -24
 1594              		.cfi_offset 18, -32
 1595 0b80 13040102 		addi	s0,sp,32
 1596              		.cfi_def_cfa 8, 0
 200:src/APP.cpp   **** 
 1597              		.loc 1 200 5
 1598 0b84 83270500 		lw	a5,0(a0)
 1599 0b88 9387C7E5 		addi	a5,a5,-420
 1600              	.LVL206:
 1601              	.LBB216:
 1602              	.LBB217:
  21:src/../h/my_console.h ****         return;
 1603              		.loc 2 21 5
 1604 0b8c 63900704 		bnez	a5,.L74
 1605              	.LBE217:
 1606              	.LBE216:
 1607              	.LBB224:
 202:src/APP.cpp   ****     {
 1608              		.loc 1 202 13 is_stmt 0
 1609 0b90 93040000 		li	s1,0
 1610              	.LVL207:
 1611              	.L66:
 202:src/APP.cpp   ****     {
 1612              		.loc 1 202 19 is_stmt 1 discriminator 3
 1613 0b94 9307A000 		li	a5,10
 1614 0b98 63C29716 		bgt	s1,a5,.L68
 204:src/APP.cpp   ****         thread_dispatch();
 1615              		.loc 1 204 9 discriminator 2
 1616 0b9c 13850400 		mv	a0,s1
 1617 0ba0 97000000 		call	_Z3fibm
 1617      E7800000 
 1618              	.LVL208:
 1619 0ba8 13090500 		mv	s2,a0
 1620 0bac 13850400 		mv	a0,s1
 1621 0bb0 97000000 		call	_Z9test_callm@plt
 1621      E7800000 
 1622              	.LVL209:
 1623              	.LBB225:
 1624              	.LBB226:
  21:src/../h/my_console.h ****         return;
 1625              		.loc 2 21 5 discriminator 2
 1626 0bb8 6316A90A 		bne	s2,a0,.L75
  22:src/../h/my_console.h **** 
 1627              		.loc 2 22 9 discriminator 2
 1628              	.LVL210:
 1629              	.LBE226:
 1630              	.LBE225:
 205:src/APP.cpp   ****     }
 1631              		.loc 1 205 9 discriminator 2
 205:src/APP.cpp   ****     }
 1632              		.loc 1 205 24 is_stmt 0 discriminator 2
 1633 0bbc 97000000 		call	_Z15thread_dispatchv@plt
 1633      E7800000 
 1634              	.LVL211:
 202:src/APP.cpp   ****     {
 1635              		.loc 1 202 5 is_stmt 1 discriminator 2
GAS LISTING /tmp/ccZv3MCA.s 			page 44


 1636 0bc4 9B841400 		addiw	s1,s1,1
 1637              	.LVL212:
 1638 0bc8 6FF0DFFC 		j	.L66
 1639              	.LVL213:
 1640              	.L74:
 1641              	.LBE224:
 1642              	.LBB234:
 1643              	.LBB223:
  24:src/../h/my_console.h ****     putString(file);
 1644              		.loc 2 24 5
  24:src/../h/my_console.h ****     putString(file);
 1645              		.loc 2 24 14 is_stmt 0
 1646 0bcc 17050000 		lla	a0,.LC3
 1646      13050500 
 1647              	.LVL214:
 1648 0bd4 97000000 		call	_Z9putStringPKc@plt
 1648      E7800000 
 1649              	.LVL215:
  25:src/../h/my_console.h ****     putString("    line: ");
 1650              		.loc 2 25 5 is_stmt 1
  25:src/../h/my_console.h ****     putString("    line: ");
 1651              		.loc 2 25 14 is_stmt 0
 1652 0bdc 17050000 		lla	a0,.LC4
 1652      13050500 
 1653 0be4 97000000 		call	_Z9putStringPKc@plt
 1653      E7800000 
 1654              	.LVL216:
  26:src/../h/my_console.h ****     putInt(line);
 1655              		.loc 2 26 5 is_stmt 1
  26:src/../h/my_console.h ****     putInt(line);
 1656              		.loc 2 26 14 is_stmt 0
 1657 0bec 17050000 		lla	a0,.LC5
 1657      13050500 
 1658 0bf4 97000000 		call	_Z9putStringPKc@plt
 1658      E7800000 
 1659              	.LVL217:
  27:src/../h/my_console.h ****     putString("   ===========================");
 1660              		.loc 2 27 5 is_stmt 1
  27:src/../h/my_console.h ****     putString("   ===========================");
 1661              		.loc 2 27 11 is_stmt 0
 1662 0bfc 1305800C 		li	a0,200
 1663 0c00 97000000 		call	_Z6putInti@plt
 1663      E7800000 
 1664              	.LVL218:
  28:src/../h/my_console.h ****     putNewline();
 1665              		.loc 2 28 5 is_stmt 1
  28:src/../h/my_console.h ****     putNewline();
 1666              		.loc 2 28 14 is_stmt 0
 1667 0c08 17050000 		lla	a0,.LC6
 1667      13050500 
 1668 0c10 97000000 		call	_Z9putStringPKc@plt
 1668      E7800000 
 1669              	.LVL219:
  29:src/../h/my_console.h **** 
 1670              		.loc 2 29 5 is_stmt 1
  29:src/../h/my_console.h **** 
 1671              		.loc 2 29 15 is_stmt 0
GAS LISTING /tmp/ccZv3MCA.s 			page 45


 1672 0c18 97000000 		call	_Z10putNewlinev@plt
 1672      E7800000 
 1673              	.LVL220:
  31:src/../h/my_console.h **** 
 1674              		.loc 2 31 5 is_stmt 1
 1675              	.LBB218:
 1676              	.LBB219:
  12:src/../h/../h/0_console.h ****         return &instance;
 1677              		.loc 3 12 9
  12:src/../h/../h/0_console.h ****         return &instance;
 1678              		.loc 3 12 25 is_stmt 0
 1679 0c20 97070000 		lbu	a5,_ZGVZN8IConsole3getEvE8instance
 1679      83C70700 
 1680 0c28 63920702 		bnez	a5,.L67
 1681              	.LVL221:
 1682              	.LBB220:
 1683              	.LBB221:
 1684              	.LBB222:
 1685              		.loc 3 32 63
 1686 0c2c 97070000 		lla	a5,_ZZN8IConsole3getEvE8instance
 1686      93870700 
 1687 0c34 23B00700 		sd	zero,0(a5)
 1688 0c38 23B40700 		sd	zero,8(a5)
 1689 0c3c 23BC073E 		sd	zero,1016(a5)
 1690              	.LVL222:
 1691              	.LBE222:
 1692              	.LBE221:
 1693              	.LBE220:
  12:src/../h/../h/0_console.h ****         return &instance;
 1694              		.loc 3 12 25
 1695 0c40 93071000 		li	a5,1
 1696 0c44 17070000 		sb	a5,_ZGVZN8IConsole3getEvE8instance,a4
 1696      2300F700 
 1697              	.L67:
  13:src/../h/../h/0_console.h ****     }
 1698              		.loc 3 13 9 is_stmt 1
 1699              	.LBE219:
 1700              	.LBE218:
  31:src/../h/my_console.h **** 
 1701              		.loc 2 31 36 is_stmt 0
 1702 0c4c 17050000 		lla	a0,_ZZN8IConsole3getEvE8instance
 1702      13050500 
 1703 0c54 97000000 		call	_ZN8IConsole14writeToConsoleEv@plt
 1703      E7800000 
 1704              	.LVL223:
 1705              		.loc 2 34 5 is_stmt 1
 1706              		.loc 2 34 15 is_stmt 0
 1707 0c5c 97000000 		call	_Z10stopKernelv@plt
 1707      E7800000 
 1708              	.LVL224:
 1709              	.L75:
 1710              	.LBE223:
 1711              	.LBE234:
 1712              	.LBB235:
 1713              	.LBB233:
 1714              	.LBB232:
  24:src/../h/my_console.h ****     putString(file);
GAS LISTING /tmp/ccZv3MCA.s 			page 46


 1715              		.loc 2 24 5 is_stmt 1
  24:src/../h/my_console.h ****     putString(file);
 1716              		.loc 2 24 14 is_stmt 0
 1717 0c64 17050000 		lla	a0,.LC3
 1717      13050500 
 1718              	.LVL225:
 1719 0c6c 97000000 		call	_Z9putStringPKc@plt
 1719      E7800000 
 1720              	.LVL226:
  25:src/../h/my_console.h ****     putString("    line: ");
 1721              		.loc 2 25 5 is_stmt 1
  25:src/../h/my_console.h ****     putString("    line: ");
 1722              		.loc 2 25 14 is_stmt 0
 1723 0c74 17050000 		lla	a0,.LC4
 1723      13050500 
 1724 0c7c 97000000 		call	_Z9putStringPKc@plt
 1724      E7800000 
 1725              	.LVL227:
  26:src/../h/my_console.h ****     putInt(line);
 1726              		.loc 2 26 5 is_stmt 1
  26:src/../h/my_console.h ****     putInt(line);
 1727              		.loc 2 26 14 is_stmt 0
 1728 0c84 17050000 		lla	a0,.LC5
 1728      13050500 
 1729 0c8c 97000000 		call	_Z9putStringPKc@plt
 1729      E7800000 
 1730              	.LVL228:
  27:src/../h/my_console.h ****     putString("   ===========================");
 1731              		.loc 2 27 5 is_stmt 1
  27:src/../h/my_console.h ****     putString("   ===========================");
 1732              		.loc 2 27 11 is_stmt 0
 1733 0c94 1305C00C 		li	a0,204
 1734 0c98 97000000 		call	_Z6putInti@plt
 1734      E7800000 
 1735              	.LVL229:
  28:src/../h/my_console.h ****     putNewline();
 1736              		.loc 2 28 5 is_stmt 1
  28:src/../h/my_console.h ****     putNewline();
 1737              		.loc 2 28 14 is_stmt 0
 1738 0ca0 17050000 		lla	a0,.LC6
 1738      13050500 
 1739 0ca8 97000000 		call	_Z9putStringPKc@plt
 1739      E7800000 
 1740              	.LVL230:
  29:src/../h/my_console.h **** 
 1741              		.loc 2 29 5 is_stmt 1
  29:src/../h/my_console.h **** 
 1742              		.loc 2 29 15 is_stmt 0
 1743 0cb0 97000000 		call	_Z10putNewlinev@plt
 1743      E7800000 
 1744              	.LVL231:
  31:src/../h/my_console.h **** 
 1745              		.loc 2 31 5 is_stmt 1
 1746              	.LBB227:
 1747              	.LBB228:
  12:src/../h/../h/0_console.h ****         return &instance;
 1748              		.loc 3 12 9
GAS LISTING /tmp/ccZv3MCA.s 			page 47


  12:src/../h/../h/0_console.h ****         return &instance;
 1749              		.loc 3 12 25 is_stmt 0
 1750 0cb8 97070000 		lbu	a5,_ZGVZN8IConsole3getEvE8instance
 1750      83C70700 
 1751 0cc0 63920702 		bnez	a5,.L70
 1752              	.LVL232:
 1753              	.LBB229:
 1754              	.LBB230:
 1755              	.LBB231:
 1756              		.loc 3 32 63
 1757 0cc4 97070000 		lla	a5,_ZZN8IConsole3getEvE8instance
 1757      93870700 
 1758 0ccc 23B00700 		sd	zero,0(a5)
 1759 0cd0 23B40700 		sd	zero,8(a5)
 1760 0cd4 23BC073E 		sd	zero,1016(a5)
 1761              	.LVL233:
 1762              	.LBE231:
 1763              	.LBE230:
 1764              	.LBE229:
  12:src/../h/../h/0_console.h ****         return &instance;
 1765              		.loc 3 12 25
 1766 0cd8 93071000 		li	a5,1
 1767 0cdc 17070000 		sb	a5,_ZGVZN8IConsole3getEvE8instance,a4
 1767      2300F700 
 1768              	.L70:
  13:src/../h/../h/0_console.h ****     }
 1769              		.loc 3 13 9 is_stmt 1
 1770              	.LBE228:
 1771              	.LBE227:
  31:src/../h/my_console.h **** 
 1772              		.loc 2 31 36 is_stmt 0
 1773 0ce4 17050000 		lla	a0,_ZZN8IConsole3getEvE8instance
 1773      13050500 
 1774 0cec 97000000 		call	_ZN8IConsole14writeToConsoleEv@plt
 1774      E7800000 
 1775              	.LVL234:
 1776              		.loc 2 34 5 is_stmt 1
 1777              		.loc 2 34 15 is_stmt 0
 1778 0cf4 97000000 		call	_Z10stopKernelv@plt
 1778      E7800000 
 1779              	.LVL235:
 1780              	.L68:
 1781              	.LBE232:
 1782              	.LBE233:
 1783              	.LBE235:
 208:src/APP.cpp   ****     assert(false);
 1784              		.loc 1 208 5 is_stmt 1
 208:src/APP.cpp   ****     assert(false);
 1785              		.loc 1 208 16 is_stmt 0
 1786 0cfc 97000000 		call	_Z11thread_exitv@plt
 1786      E7800000 
 1787              	.LVL236:
 209:src/APP.cpp   **** }
 1788              		.loc 1 209 5 is_stmt 1
 1789              	.LBB236:
 1790              	.LBB237:
  21:src/../h/my_console.h ****         return;
GAS LISTING /tmp/ccZv3MCA.s 			page 48


 1791              		.loc 2 21 5
  24:src/../h/my_console.h ****     putString(file);
 1792              		.loc 2 24 5
  24:src/../h/my_console.h ****     putString(file);
 1793              		.loc 2 24 14 is_stmt 0
 1794 0d04 17050000 		lla	a0,.LC3
 1794      13050500 
 1795 0d0c 97000000 		call	_Z9putStringPKc@plt
 1795      E7800000 
 1796              	.LVL237:
  25:src/../h/my_console.h ****     putString("    line: ");
 1797              		.loc 2 25 5 is_stmt 1
  25:src/../h/my_console.h ****     putString("    line: ");
 1798              		.loc 2 25 14 is_stmt 0
 1799 0d14 17050000 		lla	a0,.LC4
 1799      13050500 
 1800 0d1c 97000000 		call	_Z9putStringPKc@plt
 1800      E7800000 
 1801              	.LVL238:
  26:src/../h/my_console.h ****     putInt(line);
 1802              		.loc 2 26 5 is_stmt 1
  26:src/../h/my_console.h ****     putInt(line);
 1803              		.loc 2 26 14 is_stmt 0
 1804 0d24 17050000 		lla	a0,.LC5
 1804      13050500 
 1805 0d2c 97000000 		call	_Z9putStringPKc@plt
 1805      E7800000 
 1806              	.LVL239:
  27:src/../h/my_console.h ****     putString("   ===========================");
 1807              		.loc 2 27 5 is_stmt 1
  27:src/../h/my_console.h ****     putString("   ===========================");
 1808              		.loc 2 27 11 is_stmt 0
 1809 0d34 1305100D 		li	a0,209
 1810 0d38 97000000 		call	_Z6putInti@plt
 1810      E7800000 
 1811              	.LVL240:
  28:src/../h/my_console.h ****     putNewline();
 1812              		.loc 2 28 5 is_stmt 1
  28:src/../h/my_console.h ****     putNewline();
 1813              		.loc 2 28 14 is_stmt 0
 1814 0d40 17050000 		lla	a0,.LC6
 1814      13050500 
 1815 0d48 97000000 		call	_Z9putStringPKc@plt
 1815      E7800000 
 1816              	.LVL241:
  29:src/../h/my_console.h **** 
 1817              		.loc 2 29 5 is_stmt 1
  29:src/../h/my_console.h **** 
 1818              		.loc 2 29 15 is_stmt 0
 1819 0d50 97000000 		call	_Z10putNewlinev@plt
 1819      E7800000 
 1820              	.LVL242:
  31:src/../h/my_console.h **** 
 1821              		.loc 2 31 5 is_stmt 1
 1822              	.LBB238:
 1823              	.LBB239:
  12:src/../h/../h/0_console.h ****         return &instance;
GAS LISTING /tmp/ccZv3MCA.s 			page 49


 1824              		.loc 3 12 9
  12:src/../h/../h/0_console.h ****         return &instance;
 1825              		.loc 3 12 25 is_stmt 0
 1826 0d58 97070000 		lbu	a5,_ZGVZN8IConsole3getEvE8instance
 1826      83C70700 
 1827 0d60 63920702 		bnez	a5,.L71
 1828              	.LVL243:
 1829              	.LBB240:
 1830              	.LBB241:
 1831              	.LBB242:
 1832              		.loc 3 32 63
 1833 0d64 97070000 		lla	a5,_ZZN8IConsole3getEvE8instance
 1833      93870700 
 1834 0d6c 23B00700 		sd	zero,0(a5)
 1835 0d70 23B40700 		sd	zero,8(a5)
 1836 0d74 23BC073E 		sd	zero,1016(a5)
 1837              	.LVL244:
 1838              	.LBE242:
 1839              	.LBE241:
 1840              	.LBE240:
  12:src/../h/../h/0_console.h ****         return &instance;
 1841              		.loc 3 12 25
 1842 0d78 93071000 		li	a5,1
 1843 0d7c 17070000 		sb	a5,_ZGVZN8IConsole3getEvE8instance,a4
 1843      2300F700 
 1844              	.L71:
  13:src/../h/../h/0_console.h ****     }
 1845              		.loc 3 13 9 is_stmt 1
 1846              	.LBE239:
 1847              	.LBE238:
  31:src/../h/my_console.h **** 
 1848              		.loc 2 31 36 is_stmt 0
 1849 0d84 17050000 		lla	a0,_ZZN8IConsole3getEvE8instance
 1849      13050500 
 1850 0d8c 97000000 		call	_ZN8IConsole14writeToConsoleEv@plt
 1850      E7800000 
 1851              	.LVL245:
 1852              		.loc 2 34 5 is_stmt 1
 1853              		.loc 2 34 15 is_stmt 0
 1854 0d94 97000000 		call	_Z10stopKernelv@plt
 1854      E7800000 
 1855              	.LVL246:
 1856              	.LBE237:
 1857              	.LBE236:
 1858              		.cfi_endproc
 1859              	.LFE22:
 1861              		.section	.rodata.str1.8
 1862 0133 00000000 		.align	3
 1862      00
 1863              	.LC10:
 1864 0138 3D3D3D20 		.string	"=== Testing \"testSystemCalls\""
 1864      54657374 
 1864      696E6720 
 1864      22746573 
 1864      74537973 
 1865 0156 0000     		.align	3
 1866              	.LC11:
GAS LISTING /tmp/ccZv3MCA.s 			page 50


 1867 0158 74657374 		.string	"test_call() error. i="
 1867      5F63616C 
 1867      6C282920 
 1867      6572726F 
 1867      722E2069 
 1868 016e 0000     		.align	3
 1869              	.LC12:
 1870 0170 20666962 		.string	" fib(i)="
 1870      2869293D 
 1870      00
 1871 0179 00000000 		.align	3
 1871      000000
 1872              	.LC13:
 1873 0180 20746573 		.string	" test_call(i)="
 1873      745F6361 
 1873      6C6C2869 
 1873      293D00
 1874 018f 00       		.align	3
 1875              	.LC14:
 1876 0190 3D3D3D20 		.string	"=== PASS in testing system calls"
 1876      50415353 
 1876      20696E20 
 1876      74657374 
 1876      696E6720 
 1877              		.text
 1878              		.align	2
 1879              		.globl	_Z15testSystemCallsv
 1881              	_Z15testSystemCallsv:
 1882              	.LFB24:
 221:src/APP.cpp   **** 
 222:src/APP.cpp   **** void testSystemCalls()
 223:src/APP.cpp   **** {
 1883              		.loc 1 223 1 is_stmt 1
 1884              		.cfi_startproc
 1885 0d9c 130101FB 		addi	sp,sp,-80
 1886              		.cfi_def_cfa_offset 80
 1887 0da0 23341104 		sd	ra,72(sp)
 1888 0da4 23308104 		sd	s0,64(sp)
 1889 0da8 233C9102 		sd	s1,56(sp)
 1890 0dac 23382103 		sd	s2,48(sp)
 1891 0db0 23343103 		sd	s3,40(sp)
 1892 0db4 23304103 		sd	s4,32(sp)
 1893 0db8 233C5101 		sd	s5,24(sp)
 1894 0dbc 23386101 		sd	s6,16(sp)
 1895 0dc0 23347101 		sd	s7,8(sp)
 1896              		.cfi_offset 1, -8
 1897              		.cfi_offset 8, -16
 1898              		.cfi_offset 9, -24
 1899              		.cfi_offset 18, -32
 1900              		.cfi_offset 19, -40
 1901              		.cfi_offset 20, -48
 1902              		.cfi_offset 21, -56
 1903              		.cfi_offset 22, -64
 1904              		.cfi_offset 23, -72
 1905 0dc4 13040105 		addi	s0,sp,80
 1906              		.cfi_def_cfa 8, 0
 224:src/APP.cpp   ****     putString("=== Testing \"testSystemCalls\"");
GAS LISTING /tmp/ccZv3MCA.s 			page 51


 1907              		.loc 1 224 5
 1908              		.loc 1 224 14 is_stmt 0
 1909 0dc8 17050000 		lla	a0,.LC10
 1909      13050500 
 1910 0dd0 97000000 		call	_Z9putStringPKc@plt
 1910      E7800000 
 1911              	.LVL247:
 225:src/APP.cpp   ****     putNewline();
 1912              		.loc 1 225 5 is_stmt 1
 1913              		.loc 1 225 15 is_stmt 0
 1914 0dd8 97000000 		call	_Z10putNewlinev@plt
 1914      E7800000 
 1915              	.LVL248:
 226:src/APP.cpp   **** 
 227:src/APP.cpp   ****     int a = 0;
 1916              		.loc 1 227 5 is_stmt 1
 228:src/APP.cpp   ****     int b = 0;
 1917              		.loc 1 228 5
 229:src/APP.cpp   **** 
 230:src/APP.cpp   ****     for(int i=1; i<10; i++)
 1918              		.loc 1 230 5
 1919              	.LBB259:
 1920              		.loc 1 230 13 is_stmt 0
 1921 0de0 93041000 		li	s1,1
 1922              	.LBE259:
 228:src/APP.cpp   ****     int b = 0;
 1923              		.loc 1 228 9
 1924 0de4 930A0000 		li	s5,0
 227:src/APP.cpp   ****     int b = 0;
 1925              		.loc 1 227 9
 1926 0de8 130A0000 		li	s4,0
 1927              	.LVL249:
 1928              	.L82:
 1929              	.LBB279:
 1930              		.loc 1 230 19 is_stmt 1 discriminator 1
 1931 0dec 93079000 		li	a5,9
 1932 0df0 63C8971C 		bgt	s1,a5,.L77
 1933              	.LBB260:
 231:src/APP.cpp   ****     {
 232:src/APP.cpp   ****         a++;
 1934              		.loc 1 232 9
 1935              		.loc 1 232 10 is_stmt 0
 1936 0df4 1B0B1A00 		addiw	s6,s4,1
 1937              	.LVL250:
 233:src/APP.cpp   ****         b++;
 1938              		.loc 1 233 9 is_stmt 1
 1939              		.loc 1 233 10 is_stmt 0
 1940 0df8 9B8B1A00 		addiw	s7,s5,1
 1941              	.LVL251:
 234:src/APP.cpp   **** 
 235:src/APP.cpp   ****         uint64 called = test_call(i);
 1942              		.loc 1 235 9 is_stmt 1
 1943              		.loc 1 235 34 is_stmt 0
 1944 0dfc 13850400 		mv	a0,s1
 1945 0e00 97000000 		call	_Z9test_callm@plt
 1945      E7800000 
 1946              	.LVL252:
GAS LISTING /tmp/ccZv3MCA.s 			page 52


 1947 0e08 13090500 		mv	s2,a0
 1948              	.LVL253:
 236:src/APP.cpp   ****         uint64 actual = fib(i);
 1949              		.loc 1 236 9 is_stmt 1
 1950              		.loc 1 236 28 is_stmt 0
 1951 0e0c 13850400 		mv	a0,s1
 1952              	.LVL254:
 1953 0e10 97000000 		call	_Z3fibm
 1953      E7800000 
 1954              	.LVL255:
 1955 0e18 93090500 		mv	s3,a0
 1956              	.LVL256:
 237:src/APP.cpp   **** 
 238:src/APP.cpp   ****         if(called != actual)
 1957              		.loc 1 238 9 is_stmt 1
 1958 0e1c 631CA900 		bne	s2,a0,.L84
 239:src/APP.cpp   ****         {
 240:src/APP.cpp   ****             putString("test_call() error. i=");
 241:src/APP.cpp   ****             putInt(i);
 242:src/APP.cpp   ****             putString(" fib(i)=");
 243:src/APP.cpp   ****             putU64(actual);
 244:src/APP.cpp   ****             putString(" test_call(i)=");
 245:src/APP.cpp   ****             putU64(called);
 246:src/APP.cpp   ****             putNewline();
 247:src/APP.cpp   ****             assert(false);
 248:src/APP.cpp   ****         }
 249:src/APP.cpp   **** 
 250:src/APP.cpp   ****         assert(a == b);
 1959              		.loc 1 250 9 discriminator 2
 1960              	.LVL257:
 1961              	.LBB261:
 1962              	.LBB262:
  21:src/../h/my_console.h ****         return;
 1963              		.loc 2 21 5 discriminator 2
 1964 0e20 63145A11 		bne	s4,s5,.L85
  22:src/../h/my_console.h **** 
 1965              		.loc 2 22 9 discriminator 2
 1966              	.LVL258:
 1967              	.LBE262:
 1968              	.LBE261:
 1969              	.LBE260:
 230:src/APP.cpp   ****     {
 1970              		.loc 1 230 5 discriminator 2
 1971 0e24 9B841400 		addiw	s1,s1,1
 1972              	.LVL259:
 1973              	.LBB277:
 233:src/APP.cpp   **** 
 1974              		.loc 1 233 10 is_stmt 0 discriminator 2
 1975 0e28 938A0B00 		mv	s5,s7
 1976              	.LVL260:
 232:src/APP.cpp   ****         b++;
 1977              		.loc 1 232 10 discriminator 2
 1978 0e2c 130A0B00 		mv	s4,s6
 1979              	.LVL261:
 1980              	.LBE277:
 230:src/APP.cpp   ****     {
 1981              		.loc 1 230 5 discriminator 2
GAS LISTING /tmp/ccZv3MCA.s 			page 53


 1982 0e30 6FF0DFFB 		j	.L82
 1983              	.LVL262:
 1984              	.L84:
 1985              	.LBB278:
 240:src/APP.cpp   ****             putInt(i);
 1986              		.loc 1 240 13 is_stmt 1
 240:src/APP.cpp   ****             putInt(i);
 1987              		.loc 1 240 22 is_stmt 0
 1988 0e34 17050000 		lla	a0,.LC11
 1988      13050500 
 1989              	.LVL263:
 1990 0e3c 97000000 		call	_Z9putStringPKc@plt
 1990      E7800000 
 1991              	.LVL264:
 241:src/APP.cpp   ****             putString(" fib(i)=");
 1992              		.loc 1 241 13 is_stmt 1
 241:src/APP.cpp   ****             putString(" fib(i)=");
 1993              		.loc 1 241 19 is_stmt 0
 1994 0e44 13850400 		mv	a0,s1
 1995 0e48 97000000 		call	_Z6putInti@plt
 1995      E7800000 
 1996              	.LVL265:
 242:src/APP.cpp   ****             putU64(actual);
 1997              		.loc 1 242 13 is_stmt 1
 242:src/APP.cpp   ****             putU64(actual);
 1998              		.loc 1 242 22 is_stmt 0
 1999 0e50 17050000 		lla	a0,.LC12
 1999      13050500 
 2000 0e58 97000000 		call	_Z9putStringPKc@plt
 2000      E7800000 
 2001              	.LVL266:
 243:src/APP.cpp   ****             putString(" test_call(i)=");
 2002              		.loc 1 243 13 is_stmt 1
 243:src/APP.cpp   ****             putString(" test_call(i)=");
 2003              		.loc 1 243 19 is_stmt 0
 2004 0e60 13850900 		mv	a0,s3
 2005 0e64 97000000 		call	_Z6putU64m@plt
 2005      E7800000 
 2006              	.LVL267:
 244:src/APP.cpp   ****             putU64(called);
 2007              		.loc 1 244 13 is_stmt 1
 244:src/APP.cpp   ****             putU64(called);
 2008              		.loc 1 244 22 is_stmt 0
 2009 0e6c 17050000 		lla	a0,.LC13
 2009      13050500 
 2010 0e74 97000000 		call	_Z9putStringPKc@plt
 2010      E7800000 
 2011              	.LVL268:
 245:src/APP.cpp   ****             putNewline();
 2012              		.loc 1 245 13 is_stmt 1
 245:src/APP.cpp   ****             putNewline();
 2013              		.loc 1 245 19 is_stmt 0
 2014 0e7c 13050900 		mv	a0,s2
 2015 0e80 97000000 		call	_Z6putU64m@plt
 2015      E7800000 
 2016              	.LVL269:
 246:src/APP.cpp   ****             assert(false);
GAS LISTING /tmp/ccZv3MCA.s 			page 54


 2017              		.loc 1 246 13 is_stmt 1
 246:src/APP.cpp   ****             assert(false);
 2018              		.loc 1 246 23 is_stmt 0
 2019 0e88 97000000 		call	_Z10putNewlinev@plt
 2019      E7800000 
 2020              	.LVL270:
 247:src/APP.cpp   ****         }
 2021              		.loc 1 247 13 is_stmt 1
 2022              	.LBB269:
 2023              	.LBB270:
  21:src/../h/my_console.h ****         return;
 2024              		.loc 2 21 5
  24:src/../h/my_console.h ****     putString(file);
 2025              		.loc 2 24 5
  24:src/../h/my_console.h ****     putString(file);
 2026              		.loc 2 24 14 is_stmt 0
 2027 0e90 17050000 		lla	a0,.LC3
 2027      13050500 
 2028 0e98 97000000 		call	_Z9putStringPKc@plt
 2028      E7800000 
 2029              	.LVL271:
  25:src/../h/my_console.h ****     putString("    line: ");
 2030              		.loc 2 25 5 is_stmt 1
  25:src/../h/my_console.h ****     putString("    line: ");
 2031              		.loc 2 25 14 is_stmt 0
 2032 0ea0 17050000 		lla	a0,.LC4
 2032      13050500 
 2033 0ea8 97000000 		call	_Z9putStringPKc@plt
 2033      E7800000 
 2034              	.LVL272:
  26:src/../h/my_console.h ****     putInt(line);
 2035              		.loc 2 26 5 is_stmt 1
  26:src/../h/my_console.h ****     putInt(line);
 2036              		.loc 2 26 14 is_stmt 0
 2037 0eb0 17050000 		lla	a0,.LC5
 2037      13050500 
 2038 0eb8 97000000 		call	_Z9putStringPKc@plt
 2038      E7800000 
 2039              	.LVL273:
  27:src/../h/my_console.h ****     putString("   ===========================");
 2040              		.loc 2 27 5 is_stmt 1
  27:src/../h/my_console.h ****     putString("   ===========================");
 2041              		.loc 2 27 11 is_stmt 0
 2042 0ec0 1305700F 		li	a0,247
 2043 0ec4 97000000 		call	_Z6putInti@plt
 2043      E7800000 
 2044              	.LVL274:
  28:src/../h/my_console.h ****     putNewline();
 2045              		.loc 2 28 5 is_stmt 1
  28:src/../h/my_console.h ****     putNewline();
 2046              		.loc 2 28 14 is_stmt 0
 2047 0ecc 17050000 		lla	a0,.LC6
 2047      13050500 
 2048 0ed4 97000000 		call	_Z9putStringPKc@plt
 2048      E7800000 
 2049              	.LVL275:
  29:src/../h/my_console.h **** 
GAS LISTING /tmp/ccZv3MCA.s 			page 55


 2050              		.loc 2 29 5 is_stmt 1
  29:src/../h/my_console.h **** 
 2051              		.loc 2 29 15 is_stmt 0
 2052 0edc 97000000 		call	_Z10putNewlinev@plt
 2052      E7800000 
 2053              	.LVL276:
  31:src/../h/my_console.h **** 
 2054              		.loc 2 31 5 is_stmt 1
 2055              	.LBB271:
 2056              	.LBB272:
  12:src/../h/../h/0_console.h ****         return &instance;
 2057              		.loc 3 12 9
  12:src/../h/../h/0_console.h ****         return &instance;
 2058              		.loc 3 12 25 is_stmt 0
 2059 0ee4 97070000 		lbu	a5,_ZGVZN8IConsole3getEvE8instance
 2059      83C70700 
 2060 0eec 63920702 		bnez	a5,.L79
 2061              	.LVL277:
 2062              	.LBB273:
 2063              	.LBB274:
 2064              	.LBB275:
 2065              		.loc 3 32 63
 2066 0ef0 97070000 		lla	a5,_ZZN8IConsole3getEvE8instance
 2066      93870700 
 2067 0ef8 23B00700 		sd	zero,0(a5)
 2068 0efc 23B40700 		sd	zero,8(a5)
 2069 0f00 23BC073E 		sd	zero,1016(a5)
 2070              	.LVL278:
 2071              	.LBE275:
 2072              	.LBE274:
 2073              	.LBE273:
  12:src/../h/../h/0_console.h ****         return &instance;
 2074              		.loc 3 12 25
 2075 0f04 93071000 		li	a5,1
 2076 0f08 17070000 		sb	a5,_ZGVZN8IConsole3getEvE8instance,a4
 2076      2300F700 
 2077              	.L79:
  13:src/../h/../h/0_console.h ****     }
 2078              		.loc 3 13 9 is_stmt 1
 2079              	.LBE272:
 2080              	.LBE271:
  31:src/../h/my_console.h **** 
 2081              		.loc 2 31 36 is_stmt 0
 2082 0f10 17050000 		lla	a0,_ZZN8IConsole3getEvE8instance
 2082      13050500 
 2083 0f18 97000000 		call	_ZN8IConsole14writeToConsoleEv@plt
 2083      E7800000 
 2084              	.LVL279:
 2085              		.loc 2 34 5 is_stmt 1
 2086              		.loc 2 34 15 is_stmt 0
 2087 0f20 97000000 		call	_Z10stopKernelv@plt
 2087      E7800000 
 2088              	.LVL280:
 2089              	.L85:
 2090              	.LBE270:
 2091              	.LBE269:
 2092              	.LBB276:
GAS LISTING /tmp/ccZv3MCA.s 			page 56


 2093              	.LBB268:
  24:src/../h/my_console.h ****     putString(file);
 2094              		.loc 2 24 5 is_stmt 1
  24:src/../h/my_console.h ****     putString(file);
 2095              		.loc 2 24 14 is_stmt 0
 2096 0f28 17050000 		lla	a0,.LC3
 2096      13050500 
 2097              	.LVL281:
 2098 0f30 97000000 		call	_Z9putStringPKc@plt
 2098      E7800000 
 2099              	.LVL282:
  25:src/../h/my_console.h ****     putString("    line: ");
 2100              		.loc 2 25 5 is_stmt 1
  25:src/../h/my_console.h ****     putString("    line: ");
 2101              		.loc 2 25 14 is_stmt 0
 2102 0f38 17050000 		lla	a0,.LC4
 2102      13050500 
 2103 0f40 97000000 		call	_Z9putStringPKc@plt
 2103      E7800000 
 2104              	.LVL283:
  26:src/../h/my_console.h ****     putInt(line);
 2105              		.loc 2 26 5 is_stmt 1
  26:src/../h/my_console.h ****     putInt(line);
 2106              		.loc 2 26 14 is_stmt 0
 2107 0f48 17050000 		lla	a0,.LC5
 2107      13050500 
 2108 0f50 97000000 		call	_Z9putStringPKc@plt
 2108      E7800000 
 2109              	.LVL284:
  27:src/../h/my_console.h ****     putString("   ===========================");
 2110              		.loc 2 27 5 is_stmt 1
  27:src/../h/my_console.h ****     putString("   ===========================");
 2111              		.loc 2 27 11 is_stmt 0
 2112 0f58 1305A00F 		li	a0,250
 2113 0f5c 97000000 		call	_Z6putInti@plt
 2113      E7800000 
 2114              	.LVL285:
  28:src/../h/my_console.h ****     putNewline();
 2115              		.loc 2 28 5 is_stmt 1
  28:src/../h/my_console.h ****     putNewline();
 2116              		.loc 2 28 14 is_stmt 0
 2117 0f64 17050000 		lla	a0,.LC6
 2117      13050500 
 2118 0f6c 97000000 		call	_Z9putStringPKc@plt
 2118      E7800000 
 2119              	.LVL286:
  29:src/../h/my_console.h **** 
 2120              		.loc 2 29 5 is_stmt 1
  29:src/../h/my_console.h **** 
 2121              		.loc 2 29 15 is_stmt 0
 2122 0f74 97000000 		call	_Z10putNewlinev@plt
 2122      E7800000 
 2123              	.LVL287:
  31:src/../h/my_console.h **** 
 2124              		.loc 2 31 5 is_stmt 1
 2125              	.LBB263:
 2126              	.LBB264:
GAS LISTING /tmp/ccZv3MCA.s 			page 57


  12:src/../h/../h/0_console.h ****         return &instance;
 2127              		.loc 3 12 9
  12:src/../h/../h/0_console.h ****         return &instance;
 2128              		.loc 3 12 25 is_stmt 0
 2129 0f7c 97070000 		lbu	a5,_ZGVZN8IConsole3getEvE8instance
 2129      83C70700 
 2130 0f84 63920702 		bnez	a5,.L81
 2131              	.LVL288:
 2132              	.LBB265:
 2133              	.LBB266:
 2134              	.LBB267:
 2135              		.loc 3 32 63
 2136 0f88 97070000 		lla	a5,_ZZN8IConsole3getEvE8instance
 2136      93870700 
 2137 0f90 23B00700 		sd	zero,0(a5)
 2138 0f94 23B40700 		sd	zero,8(a5)
 2139 0f98 23BC073E 		sd	zero,1016(a5)
 2140              	.LVL289:
 2141              	.LBE267:
 2142              	.LBE266:
 2143              	.LBE265:
  12:src/../h/../h/0_console.h ****         return &instance;
 2144              		.loc 3 12 25
 2145 0f9c 93071000 		li	a5,1
 2146 0fa0 17070000 		sb	a5,_ZGVZN8IConsole3getEvE8instance,a4
 2146      2300F700 
 2147              	.L81:
  13:src/../h/../h/0_console.h ****     }
 2148              		.loc 3 13 9 is_stmt 1
 2149              	.LBE264:
 2150              	.LBE263:
  31:src/../h/my_console.h **** 
 2151              		.loc 2 31 36 is_stmt 0
 2152 0fa8 17050000 		lla	a0,_ZZN8IConsole3getEvE8instance
 2152      13050500 
 2153 0fb0 97000000 		call	_ZN8IConsole14writeToConsoleEv@plt
 2153      E7800000 
 2154              	.LVL290:
 2155              		.loc 2 34 5 is_stmt 1
 2156              		.loc 2 34 15 is_stmt 0
 2157 0fb8 97000000 		call	_Z10stopKernelv@plt
 2157      E7800000 
 2158              	.LVL291:
 2159              	.L77:
 2160              	.LBE268:
 2161              	.LBE276:
 2162              	.LBE278:
 2163              	.LBE279:
 251:src/APP.cpp   ****     }
 252:src/APP.cpp   **** 
 253:src/APP.cpp   **** //    assert(MemAlloc::get()->getUserlandUsage() == IThread::initialUserMemoryUsage);
 254:src/APP.cpp   ****     putString("=== PASS in testing system calls");
 2164              		.loc 1 254 5 is_stmt 1
 2165              		.loc 1 254 14 is_stmt 0
 2166 0fc0 17050000 		lla	a0,.LC14
 2166      13050500 
 2167 0fc8 97000000 		call	_Z9putStringPKc@plt
GAS LISTING /tmp/ccZv3MCA.s 			page 58


 2167      E7800000 
 2168              	.LVL292:
 255:src/APP.cpp   ****     putNewline();
 2169              		.loc 1 255 5 is_stmt 1
 2170              		.loc 1 255 15 is_stmt 0
 2171 0fd0 97000000 		call	_Z10putNewlinev@plt
 2171      E7800000 
 2172              	.LVL293:
 256:src/APP.cpp   **** }
 2173              		.loc 1 256 1
 2174 0fd8 83308104 		ld	ra,72(sp)
 2175              		.cfi_restore 1
 2176 0fdc 03340104 		ld	s0,64(sp)
 2177              		.cfi_restore 8
 2178              		.cfi_def_cfa 2, 80
 2179 0fe0 83348103 		ld	s1,56(sp)
 2180              		.cfi_restore 9
 2181              	.LVL294:
 2182 0fe4 03390103 		ld	s2,48(sp)
 2183              		.cfi_restore 18
 2184 0fe8 83398102 		ld	s3,40(sp)
 2185              		.cfi_restore 19
 2186 0fec 033A0102 		ld	s4,32(sp)
 2187              		.cfi_restore 20
 2188              	.LVL295:
 2189 0ff0 833A8101 		ld	s5,24(sp)
 2190              		.cfi_restore 21
 2191              	.LVL296:
 2192 0ff4 033B0101 		ld	s6,16(sp)
 2193              		.cfi_restore 22
 2194 0ff8 833B8100 		ld	s7,8(sp)
 2195              		.cfi_restore 23
 2196 0ffc 13010105 		addi	sp,sp,80
 2197              		.cfi_def_cfa_offset 0
 2198 1000 67800000 		jr	ra
 2199              		.cfi_endproc
 2200              	.LFE24:
 2202              		.section	.rodata.str1.8
 2203 01b1 00000000 		.align	3
 2203      000000
 2204              	.LC15:
 2205 01b8 3D3D3D20 		.string	"=== Testing \"testMemoryAllocator\""
 2205      54657374 
 2205      696E6720 
 2205      22746573 
 2205      744D656D 
 2206 01da 00000000 		.align	3
 2206      0000
 2207              	.LC16:
 2208 01e0 3D3D3D20 		.string	"=== PASS in testing memory allocator"
 2208      50415353 
 2208      20696E20 
 2208      74657374 
 2208      696E6720 
 2209              		.text
 2210              		.align	2
 2211              		.globl	_Z19testMemoryAllocatorv
GAS LISTING /tmp/ccZv3MCA.s 			page 59


 2213              	_Z19testMemoryAllocatorv:
 2214              	.LFB25:
 257:src/APP.cpp   **** 
 258:src/APP.cpp   **** void testMemoryAllocator()
 259:src/APP.cpp   **** {
 2215              		.loc 1 259 1 is_stmt 1
 2216              		.cfi_startproc
 2217 1004 130101FD 		addi	sp,sp,-48
 2218              		.cfi_def_cfa_offset 48
 2219 1008 23341102 		sd	ra,40(sp)
 2220 100c 23308102 		sd	s0,32(sp)
 2221 1010 233C9100 		sd	s1,24(sp)
 2222 1014 23382101 		sd	s2,16(sp)
 2223 1018 23343101 		sd	s3,8(sp)
 2224              		.cfi_offset 1, -8
 2225              		.cfi_offset 8, -16
 2226              		.cfi_offset 9, -24
 2227              		.cfi_offset 18, -32
 2228              		.cfi_offset 19, -40
 2229 101c 13040103 		addi	s0,sp,48
 2230              		.cfi_def_cfa 8, 0
 260:src/APP.cpp   ****     putString("=== Testing \"testMemoryAllocator\"");
 2231              		.loc 1 260 5
 2232              		.loc 1 260 14 is_stmt 0
 2233 1020 17050000 		lla	a0,.LC15
 2233      13050500 
 2234 1028 97000000 		call	_Z9putStringPKc@plt
 2234      E7800000 
 2235              	.LVL297:
 261:src/APP.cpp   ****     putNewline();
 2236              		.loc 1 261 5 is_stmt 1
 2237              		.loc 1 261 15 is_stmt 0
 2238 1030 97000000 		call	_Z10putNewlinev@plt
 2238      E7800000 
 2239              	.LVL298:
 262:src/APP.cpp   ****     int n = 1000;
 2240              		.loc 1 262 5 is_stmt 1
 263:src/APP.cpp   ****     int **a;
 2241              		.loc 1 263 5
 264:src/APP.cpp   ****     a = (int**)mem_alloc(n * sizeof(void*));
 2242              		.loc 1 264 5
 2243              		.loc 1 264 25 is_stmt 0
 2244 1038 37250000 		li	a0,8192
 2245 103c 130505F4 		addi	a0,a0,-192
 2246 1040 97000000 		call	_Z9mem_allocm@plt
 2246      E7800000 
 2247              	.LVL299:
 2248 1048 93090500 		mv	s3,a0
 2249              	.LVL300:
 265:src/APP.cpp   ****     for(int i=0; i<n; i++)
 2250              		.loc 1 265 5 is_stmt 1
 2251              	.LBB304:
 2252              		.loc 1 265 13 is_stmt 0
 2253 104c 93040000 		li	s1,0
 2254              	.LVL301:
 2255              	.L88:
 2256              		.loc 1 265 19 is_stmt 1 discriminator 3
GAS LISTING /tmp/ccZv3MCA.s 			page 60


 2257 1050 9307703E 		li	a5,999
 2258 1054 63C49702 		bgt	s1,a5,.L97
 266:src/APP.cpp   ****     {
 267:src/APP.cpp   ****         a[i] = (int*)mem_alloc(sizeof(int));
 2259              		.loc 1 267 9 discriminator 2
 2260              		.loc 1 267 12 is_stmt 0 discriminator 2
 2261 1058 13993400 		slli	s2,s1,3
 2262 105c 33892901 		add	s2,s3,s2
 2263              		.loc 1 267 31 discriminator 2
 2264 1060 13054000 		li	a0,4
 2265 1064 97000000 		call	_Z9mem_allocm@plt
 2265      E7800000 
 2266              	.LVL302:
 2267              		.loc 1 267 14 discriminator 2
 2268 106c 2330A900 		sd	a0,0(s2)
 268:src/APP.cpp   ****         *a[i] = i;
 2269              		.loc 1 268 9 is_stmt 1 discriminator 2
 2270              		.loc 1 268 15 is_stmt 0 discriminator 2
 2271 1070 23209500 		sw	s1,0(a0)
 265:src/APP.cpp   ****     for(int i=0; i<n; i++)
 2272              		.loc 1 265 5 is_stmt 1 discriminator 2
 2273 1074 9B841400 		addiw	s1,s1,1
 2274              	.LVL303:
 2275 1078 6FF09FFD 		j	.L88
 2276              	.LVL304:
 2277              	.L97:
 2278              	.LBE304:
 2279              	.LBB305:
 269:src/APP.cpp   ****     }
 270:src/APP.cpp   **** 
 271:src/APP.cpp   ****     int result = 0;
 272:src/APP.cpp   ****     for(int i=0; i<n; i++)
 2280              		.loc 1 272 13 is_stmt 0
 2281 107c 93070000 		li	a5,0
 2282              	.LBE305:
 271:src/APP.cpp   ****     for(int i=0; i<n; i++)
 2283              		.loc 1 271 9
 2284 1080 93060000 		li	a3,0
 2285              	.L87:
 2286              	.LVL305:
 2287              	.LBB306:
 2288              		.loc 1 272 19 is_stmt 1 discriminator 3
 2289 1084 1307703E 		li	a4,999
 2290 1088 6340F702 		bgt	a5,a4,.L89
 273:src/APP.cpp   ****     {
 274:src/APP.cpp   ****         result += *a[i];
 2291              		.loc 1 274 9 discriminator 2
 2292              		.loc 1 274 23 is_stmt 0 discriminator 2
 2293 108c 13973700 		slli	a4,a5,3
 2294 1090 3387E900 		add	a4,s3,a4
 2295 1094 03370700 		ld	a4,0(a4)
 2296              		.loc 1 274 19 discriminator 2
 2297 1098 03270700 		lw	a4,0(a4)
 2298              		.loc 1 274 16 discriminator 2
 2299 109c BB06D700 		addw	a3,a4,a3
 2300              	.LVL306:
 272:src/APP.cpp   ****     {
GAS LISTING /tmp/ccZv3MCA.s 			page 61


 2301              		.loc 1 272 5 is_stmt 1 discriminator 2
 2302 10a0 9B871700 		addiw	a5,a5,1
 2303              	.LVL307:
 2304 10a4 6FF01FFE 		j	.L87
 2305              	.LVL308:
 2306              	.L89:
 2307              	.LBE306:
 275:src/APP.cpp   ****     }
 276:src/APP.cpp   **** 
 277:src/APP.cpp   **** //    uint64 vau = n * sizeof(void*);
 278:src/APP.cpp   **** //    if(n % MEM_BLOCK_SIZE != 0)
 279:src/APP.cpp   **** //        vau +=  MEM_BLOCK_SIZE - ((sizeof(int)* n) % MEM_BLOCK_SIZE);
 280:src/APP.cpp   **** //    vau += MEM_BLOCK_SIZE * n;
 281:src/APP.cpp   **** //    assert(MemAlloc::get()->getUserlandUsage() == vau);
 282:src/APP.cpp   **** 
 283:src/APP.cpp   **** //    putInt(result);
 284:src/APP.cpp   **** //    putNewline();
 285:src/APP.cpp   **** 
 286:src/APP.cpp   ****     assert(result == (n-1) * n / 2);
 2308              		.loc 1 286 5
 2309 10a8 B7A70700 		li	a5,499712
 2310              	.LVL309:
 2311 10ac 9387C7F2 		addi	a5,a5,-212
 2312              	.LVL310:
 2313              	.LBB307:
 2314              	.LBB308:
  21:src/../h/my_console.h ****         return;
 2315              		.loc 2 21 5
 2316 10b0 6398F602 		bne	a3,a5,.L100
 2317              	.LBE308:
 2318              	.LBE307:
 2319              	.LBB315:
 287:src/APP.cpp   **** 
 288:src/APP.cpp   **** //    uint64 oldTaken = MemAlloc::get()->getUserlandUsage();
 289:src/APP.cpp   **** //    uint64 newTaken;
 290:src/APP.cpp   **** 
 291:src/APP.cpp   ****     int t;
 292:src/APP.cpp   ****     for(int i=0; i<n; i++)
 2320              		.loc 1 292 13 is_stmt 0
 2321 10b4 93040000 		li	s1,0
 2322              	.LVL311:
 2323              	.L90:
 2324              		.loc 1 292 19 is_stmt 1 discriminator 3
 2325 10b8 9307703E 		li	a5,999
 2326 10bc 63CA9714 		bgt	s1,a5,.L92
 293:src/APP.cpp   ****     {
 294:src/APP.cpp   ****         t = mem_free(a[i]);
 2327              		.loc 1 294 9 discriminator 2
 2328              		.loc 1 294 25 is_stmt 0 discriminator 2
 2329 10c0 93973400 		slli	a5,s1,3
 2330 10c4 B387F900 		add	a5,s3,a5
 2331              		.loc 1 294 21 discriminator 2
 2332 10c8 03B50700 		ld	a0,0(a5)
 2333 10cc 97000000 		call	_Z8mem_freePv@plt
 2333      E7800000 
 2334              	.LVL312:
 295:src/APP.cpp   ****         assert(t == 0);
GAS LISTING /tmp/ccZv3MCA.s 			page 62


 2335              		.loc 1 295 9 is_stmt 1 discriminator 2
 2336              	.LBB316:
 2337              	.LBB317:
  21:src/../h/my_console.h ****         return;
 2338              		.loc 2 21 5 discriminator 2
 2339 10d4 6312050A 		bnez	a0,.L101
  22:src/../h/my_console.h **** 
 2340              		.loc 2 22 9 discriminator 2
 2341              	.LVL313:
 2342              	.LBE317:
 2343              	.LBE316:
 292:src/APP.cpp   ****     {
 2344              		.loc 1 292 5 discriminator 2
 2345 10d8 9B841400 		addiw	s1,s1,1
 2346              	.LVL314:
 2347 10dc 6FF0DFFD 		j	.L90
 2348              	.LVL315:
 2349              	.L100:
 2350              	.LBE315:
 2351              	.LBB325:
 2352              	.LBB314:
  24:src/../h/my_console.h ****     putString(file);
 2353              		.loc 2 24 5
  24:src/../h/my_console.h ****     putString(file);
 2354              		.loc 2 24 14 is_stmt 0
 2355 10e0 17050000 		lla	a0,.LC3
 2355      13050500 
 2356 10e8 97000000 		call	_Z9putStringPKc@plt
 2356      E7800000 
 2357              	.LVL316:
  25:src/../h/my_console.h ****     putString("    line: ");
 2358              		.loc 2 25 5 is_stmt 1
  25:src/../h/my_console.h ****     putString("    line: ");
 2359              		.loc 2 25 14 is_stmt 0
 2360 10f0 17050000 		lla	a0,.LC4
 2360      13050500 
 2361 10f8 97000000 		call	_Z9putStringPKc@plt
 2361      E7800000 
 2362              	.LVL317:
  26:src/../h/my_console.h ****     putInt(line);
 2363              		.loc 2 26 5 is_stmt 1
  26:src/../h/my_console.h ****     putInt(line);
 2364              		.loc 2 26 14 is_stmt 0
 2365 1100 17050000 		lla	a0,.LC5
 2365      13050500 
 2366 1108 97000000 		call	_Z9putStringPKc@plt
 2366      E7800000 
 2367              	.LVL318:
  27:src/../h/my_console.h ****     putString("   ===========================");
 2368              		.loc 2 27 5 is_stmt 1
  27:src/../h/my_console.h ****     putString("   ===========================");
 2369              		.loc 2 27 11 is_stmt 0
 2370 1110 1305E011 		li	a0,286
 2371 1114 97000000 		call	_Z6putInti@plt
 2371      E7800000 
 2372              	.LVL319:
  28:src/../h/my_console.h ****     putNewline();
GAS LISTING /tmp/ccZv3MCA.s 			page 63


 2373              		.loc 2 28 5 is_stmt 1
  28:src/../h/my_console.h ****     putNewline();
 2374              		.loc 2 28 14 is_stmt 0
 2375 111c 17050000 		lla	a0,.LC6
 2375      13050500 
 2376 1124 97000000 		call	_Z9putStringPKc@plt
 2376      E7800000 
 2377              	.LVL320:
  29:src/../h/my_console.h **** 
 2378              		.loc 2 29 5 is_stmt 1
  29:src/../h/my_console.h **** 
 2379              		.loc 2 29 15 is_stmt 0
 2380 112c 97000000 		call	_Z10putNewlinev@plt
 2380      E7800000 
 2381              	.LVL321:
  31:src/../h/my_console.h **** 
 2382              		.loc 2 31 5 is_stmt 1
 2383              	.LBB309:
 2384              	.LBB310:
  12:src/../h/../h/0_console.h ****         return &instance;
 2385              		.loc 3 12 9
  12:src/../h/../h/0_console.h ****         return &instance;
 2386              		.loc 3 12 25 is_stmt 0
 2387 1134 97070000 		lbu	a5,_ZGVZN8IConsole3getEvE8instance
 2387      83C70700 
 2388 113c 63920702 		bnez	a5,.L91
 2389              	.LVL322:
 2390              	.LBB311:
 2391              	.LBB312:
 2392              	.LBB313:
 2393              		.loc 3 32 63
 2394 1140 97070000 		lla	a5,_ZZN8IConsole3getEvE8instance
 2394      93870700 
 2395 1148 23B00700 		sd	zero,0(a5)
 2396 114c 23B40700 		sd	zero,8(a5)
 2397 1150 23BC073E 		sd	zero,1016(a5)
 2398              	.LVL323:
 2399              	.LBE313:
 2400              	.LBE312:
 2401              	.LBE311:
  12:src/../h/../h/0_console.h ****         return &instance;
 2402              		.loc 3 12 25
 2403 1154 93071000 		li	a5,1
 2404 1158 17070000 		sb	a5,_ZGVZN8IConsole3getEvE8instance,a4
 2404      2300F700 
 2405              	.L91:
  13:src/../h/../h/0_console.h ****     }
 2406              		.loc 3 13 9 is_stmt 1
 2407              	.LBE310:
 2408              	.LBE309:
  31:src/../h/my_console.h **** 
 2409              		.loc 2 31 36 is_stmt 0
 2410 1160 17050000 		lla	a0,_ZZN8IConsole3getEvE8instance
 2410      13050500 
 2411 1168 97000000 		call	_ZN8IConsole14writeToConsoleEv@plt
 2411      E7800000 
 2412              	.LVL324:
GAS LISTING /tmp/ccZv3MCA.s 			page 64


 2413              		.loc 2 34 5 is_stmt 1
 2414              		.loc 2 34 15 is_stmt 0
 2415 1170 97000000 		call	_Z10stopKernelv@plt
 2415      E7800000 
 2416              	.LVL325:
 2417              	.L101:
 2418              	.LBE314:
 2419              	.LBE325:
 2420              	.LBB326:
 2421              	.LBB324:
 2422              	.LBB323:
  24:src/../h/my_console.h ****     putString(file);
 2423              		.loc 2 24 5 is_stmt 1
  24:src/../h/my_console.h ****     putString(file);
 2424              		.loc 2 24 14 is_stmt 0
 2425 1178 17050000 		lla	a0,.LC3
 2425      13050500 
 2426              	.LVL326:
 2427 1180 97000000 		call	_Z9putStringPKc@plt
 2427      E7800000 
 2428              	.LVL327:
  25:src/../h/my_console.h ****     putString("    line: ");
 2429              		.loc 2 25 5 is_stmt 1
  25:src/../h/my_console.h ****     putString("    line: ");
 2430              		.loc 2 25 14 is_stmt 0
 2431 1188 17050000 		lla	a0,.LC4
 2431      13050500 
 2432 1190 97000000 		call	_Z9putStringPKc@plt
 2432      E7800000 
 2433              	.LVL328:
  26:src/../h/my_console.h ****     putInt(line);
 2434              		.loc 2 26 5 is_stmt 1
  26:src/../h/my_console.h ****     putInt(line);
 2435              		.loc 2 26 14 is_stmt 0
 2436 1198 17050000 		lla	a0,.LC5
 2436      13050500 
 2437 11a0 97000000 		call	_Z9putStringPKc@plt
 2437      E7800000 
 2438              	.LVL329:
  27:src/../h/my_console.h ****     putString("   ===========================");
 2439              		.loc 2 27 5 is_stmt 1
  27:src/../h/my_console.h ****     putString("   ===========================");
 2440              		.loc 2 27 11 is_stmt 0
 2441 11a8 13057012 		li	a0,295
 2442 11ac 97000000 		call	_Z6putInti@plt
 2442      E7800000 
 2443              	.LVL330:
  28:src/../h/my_console.h ****     putNewline();
 2444              		.loc 2 28 5 is_stmt 1
  28:src/../h/my_console.h ****     putNewline();
 2445              		.loc 2 28 14 is_stmt 0
 2446 11b4 17050000 		lla	a0,.LC6
 2446      13050500 
 2447 11bc 97000000 		call	_Z9putStringPKc@plt
 2447      E7800000 
 2448              	.LVL331:
  29:src/../h/my_console.h **** 
GAS LISTING /tmp/ccZv3MCA.s 			page 65


 2449              		.loc 2 29 5 is_stmt 1
  29:src/../h/my_console.h **** 
 2450              		.loc 2 29 15 is_stmt 0
 2451 11c4 97000000 		call	_Z10putNewlinev@plt
 2451      E7800000 
 2452              	.LVL332:
  31:src/../h/my_console.h **** 
 2453              		.loc 2 31 5 is_stmt 1
 2454              	.LBB318:
 2455              	.LBB319:
  12:src/../h/../h/0_console.h ****         return &instance;
 2456              		.loc 3 12 9
  12:src/../h/../h/0_console.h ****         return &instance;
 2457              		.loc 3 12 25 is_stmt 0
 2458 11cc 97070000 		lbu	a5,_ZGVZN8IConsole3getEvE8instance
 2458      83C70700 
 2459 11d4 63920702 		bnez	a5,.L94
 2460              	.LVL333:
 2461              	.LBB320:
 2462              	.LBB321:
 2463              	.LBB322:
 2464              		.loc 3 32 63
 2465 11d8 97070000 		lla	a5,_ZZN8IConsole3getEvE8instance
 2465      93870700 
 2466 11e0 23B00700 		sd	zero,0(a5)
 2467 11e4 23B40700 		sd	zero,8(a5)
 2468 11e8 23BC073E 		sd	zero,1016(a5)
 2469              	.LVL334:
 2470              	.LBE322:
 2471              	.LBE321:
 2472              	.LBE320:
  12:src/../h/../h/0_console.h ****         return &instance;
 2473              		.loc 3 12 25
 2474 11ec 93071000 		li	a5,1
 2475 11f0 17070000 		sb	a5,_ZGVZN8IConsole3getEvE8instance,a4
 2475      2300F700 
 2476              	.L94:
  13:src/../h/../h/0_console.h ****     }
 2477              		.loc 3 13 9 is_stmt 1
 2478              	.LBE319:
 2479              	.LBE318:
  31:src/../h/my_console.h **** 
 2480              		.loc 2 31 36 is_stmt 0
 2481 11f8 17050000 		lla	a0,_ZZN8IConsole3getEvE8instance
 2481      13050500 
 2482 1200 97000000 		call	_ZN8IConsole14writeToConsoleEv@plt
 2482      E7800000 
 2483              	.LVL335:
 2484              		.loc 2 34 5 is_stmt 1
 2485              		.loc 2 34 15 is_stmt 0
 2486 1208 97000000 		call	_Z10stopKernelv@plt
 2486      E7800000 
 2487              	.LVL336:
 2488              	.L92:
 2489              	.LBE323:
 2490              	.LBE324:
 2491              	.LBE326:
GAS LISTING /tmp/ccZv3MCA.s 			page 66


 296:src/APP.cpp   **** 
 297:src/APP.cpp   **** //        newTaken = MemAlloc::get()->getUserlandUsage();
 298:src/APP.cpp   **** //        assert(oldTaken - newTaken == MEM_BLOCK_SIZE);
 299:src/APP.cpp   ****     }
 300:src/APP.cpp   **** 
 301:src/APP.cpp   **** //    assert(MemAlloc::get()->getUserlandUsage() == MEM_BLOCK_SIZE);
 302:src/APP.cpp   **** 
 303:src/APP.cpp   ****     t = mem_free(a);
 2492              		.loc 1 303 5 is_stmt 1
 2493              		.loc 1 303 17 is_stmt 0
 2494 1210 13850900 		mv	a0,s3
 2495 1214 97000000 		call	_Z8mem_freePv@plt
 2495      E7800000 
 2496              	.LVL337:
 304:src/APP.cpp   ****     assert(t == 0);
 2497              		.loc 1 304 5 is_stmt 1
 2498              	.LBB327:
 2499              	.LBB328:
  21:src/../h/my_console.h ****         return;
 2500              		.loc 2 21 5
 2501 121c 631C0502 		bnez	a0,.L102
  22:src/../h/my_console.h **** 
 2502              		.loc 2 22 9
 2503              	.LVL338:
 2504              	.LBE328:
 2505              	.LBE327:
 305:src/APP.cpp   **** 
 306:src/APP.cpp   **** //    assert(MemAlloc::get()->getUserlandUsage() == IThread::initialUserMemoryUsage);
 307:src/APP.cpp   ****     putString("=== PASS in testing memory allocator");
 2506              		.loc 1 307 5
 2507              		.loc 1 307 14 is_stmt 0
 2508 1220 17050000 		lla	a0,.LC16
 2508      13050500 
 2509              	.LVL339:
 2510 1228 97000000 		call	_Z9putStringPKc@plt
 2510      E7800000 
 2511              	.LVL340:
 308:src/APP.cpp   ****     putNewline();
 2512              		.loc 1 308 5 is_stmt 1
 2513              		.loc 1 308 15 is_stmt 0
 2514 1230 97000000 		call	_Z10putNewlinev@plt
 2514      E7800000 
 2515              	.LVL341:
 309:src/APP.cpp   **** }
 2516              		.loc 1 309 1
 2517 1238 83308102 		ld	ra,40(sp)
 2518              		.cfi_remember_state
 2519              		.cfi_restore 1
 2520 123c 03340102 		ld	s0,32(sp)
 2521              		.cfi_restore 8
 2522              		.cfi_def_cfa 2, 48
 2523 1240 83348101 		ld	s1,24(sp)
 2524              		.cfi_restore 9
 2525              	.LVL342:
 2526 1244 03390101 		ld	s2,16(sp)
 2527              		.cfi_restore 18
 2528 1248 83398100 		ld	s3,8(sp)
GAS LISTING /tmp/ccZv3MCA.s 			page 67


 2529              		.cfi_restore 19
 2530              	.LVL343:
 2531 124c 13010103 		addi	sp,sp,48
 2532              		.cfi_def_cfa_offset 0
 2533 1250 67800000 		jr	ra
 2534              	.LVL344:
 2535              	.L102:
 2536              		.cfi_restore_state
 2537              	.LBB335:
 2538              	.LBB334:
  24:src/../h/my_console.h ****     putString(file);
 2539              		.loc 2 24 5 is_stmt 1
  24:src/../h/my_console.h ****     putString(file);
 2540              		.loc 2 24 14 is_stmt 0
 2541 1254 17050000 		lla	a0,.LC3
 2541      13050500 
 2542              	.LVL345:
 2543 125c 97000000 		call	_Z9putStringPKc@plt
 2543      E7800000 
 2544              	.LVL346:
  25:src/../h/my_console.h ****     putString("    line: ");
 2545              		.loc 2 25 5 is_stmt 1
  25:src/../h/my_console.h ****     putString("    line: ");
 2546              		.loc 2 25 14 is_stmt 0
 2547 1264 17050000 		lla	a0,.LC4
 2547      13050500 
 2548 126c 97000000 		call	_Z9putStringPKc@plt
 2548      E7800000 
 2549              	.LVL347:
  26:src/../h/my_console.h ****     putInt(line);
 2550              		.loc 2 26 5 is_stmt 1
  26:src/../h/my_console.h ****     putInt(line);
 2551              		.loc 2 26 14 is_stmt 0
 2552 1274 17050000 		lla	a0,.LC5
 2552      13050500 
 2553 127c 97000000 		call	_Z9putStringPKc@plt
 2553      E7800000 
 2554              	.LVL348:
  27:src/../h/my_console.h ****     putString("   ===========================");
 2555              		.loc 2 27 5 is_stmt 1
  27:src/../h/my_console.h ****     putString("   ===========================");
 2556              		.loc 2 27 11 is_stmt 0
 2557 1284 13050013 		li	a0,304
 2558 1288 97000000 		call	_Z6putInti@plt
 2558      E7800000 
 2559              	.LVL349:
  28:src/../h/my_console.h ****     putNewline();
 2560              		.loc 2 28 5 is_stmt 1
  28:src/../h/my_console.h ****     putNewline();
 2561              		.loc 2 28 14 is_stmt 0
 2562 1290 17050000 		lla	a0,.LC6
 2562      13050500 
 2563 1298 97000000 		call	_Z9putStringPKc@plt
 2563      E7800000 
 2564              	.LVL350:
  29:src/../h/my_console.h **** 
 2565              		.loc 2 29 5 is_stmt 1
GAS LISTING /tmp/ccZv3MCA.s 			page 68


  29:src/../h/my_console.h **** 
 2566              		.loc 2 29 15 is_stmt 0
 2567 12a0 97000000 		call	_Z10putNewlinev@plt
 2567      E7800000 
 2568              	.LVL351:
  31:src/../h/my_console.h **** 
 2569              		.loc 2 31 5 is_stmt 1
 2570              	.LBB329:
 2571              	.LBB330:
  12:src/../h/../h/0_console.h ****         return &instance;
 2572              		.loc 3 12 9
  12:src/../h/../h/0_console.h ****         return &instance;
 2573              		.loc 3 12 25 is_stmt 0
 2574 12a8 97070000 		lbu	a5,_ZGVZN8IConsole3getEvE8instance
 2574      83C70700 
 2575 12b0 63920702 		bnez	a5,.L96
 2576              	.LVL352:
 2577              	.LBB331:
 2578              	.LBB332:
 2579              	.LBB333:
 2580              		.loc 3 32 63
 2581 12b4 97070000 		lla	a5,_ZZN8IConsole3getEvE8instance
 2581      93870700 
 2582 12bc 23B00700 		sd	zero,0(a5)
 2583 12c0 23B40700 		sd	zero,8(a5)
 2584 12c4 23BC073E 		sd	zero,1016(a5)
 2585              	.LVL353:
 2586              	.LBE333:
 2587              	.LBE332:
 2588              	.LBE331:
  12:src/../h/../h/0_console.h ****         return &instance;
 2589              		.loc 3 12 25
 2590 12c8 93071000 		li	a5,1
 2591 12cc 17070000 		sb	a5,_ZGVZN8IConsole3getEvE8instance,a4
 2591      2300F700 
 2592              	.L96:
  13:src/../h/../h/0_console.h ****     }
 2593              		.loc 3 13 9 is_stmt 1
 2594              	.LBE330:
 2595              	.LBE329:
  31:src/../h/my_console.h **** 
 2596              		.loc 2 31 36 is_stmt 0
 2597 12d4 17050000 		lla	a0,_ZZN8IConsole3getEvE8instance
 2597      13050500 
 2598 12dc 97000000 		call	_ZN8IConsole14writeToConsoleEv@plt
 2598      E7800000 
 2599              	.LVL354:
 2600              		.loc 2 34 5 is_stmt 1
 2601              		.loc 2 34 15 is_stmt 0
 2602 12e4 97000000 		call	_Z10stopKernelv@plt
 2602      E7800000 
 2603              	.LVL355:
 2604              	.LBE334:
 2605              	.LBE335:
 2606              		.cfi_endproc
 2607              	.LFE25:
 2609              		.section	.rodata.str1.8
GAS LISTING /tmp/ccZv3MCA.s 			page 69


 2610 0205 000000   		.align	3
 2611              	.LC17:
 2612 0208 3D3D3D20 		.string	"=== App started"
 2612      41707020 
 2612      73746172 
 2612      74656400 
 2613              		.align	3
 2614              	.LC18:
 2615 0218 3D3D3D20 		.string	"=== App ended"
 2615      41707020 
 2615      656E6465 
 2615      6400
 2616              		.text
 2617              		.align	2
 2618              		.globl	_Z10myUserMainv
 2620              	_Z10myUserMainv:
 2621              	.LFB14:
  16:src/APP.cpp   **** //    __asm__ volatile ("csrw sscratch, x1"); // set spie bit to 1. spie signifies that we dont wan
 2622              		.loc 1 16 1 is_stmt 1
 2623              		.cfi_startproc
 2624 12ec 130101FF 		addi	sp,sp,-16
 2625              		.cfi_def_cfa_offset 16
 2626 12f0 23341100 		sd	ra,8(sp)
 2627 12f4 23308100 		sd	s0,0(sp)
 2628              		.cfi_offset 1, -8
 2629              		.cfi_offset 8, -16
 2630 12f8 13040101 		addi	s0,sp,16
 2631              		.cfi_def_cfa 8, 0
  19:src/APP.cpp   **** 
 2632              		.loc 1 19 5
  19:src/APP.cpp   **** 
 2633              		.loc 1 19 37 is_stmt 0
 2634              	#APP
 2635              	# 19 "src/APP.cpp" 1
  21:src/APP.cpp   ****     putNewline();
 2636              		mv x10, x10
 2637              	# 0 "" 2
 2638              		.loc 1 21 5 is_stmt 1
  21:src/APP.cpp   ****     putNewline();
 2639              		.loc 1 21 14 is_stmt 0
 2640              	#NO_APP
 2641 1300 17050000 		lla	a0,.LC17
 2641      13050500 
 2642 1308 97000000 		call	_Z9putStringPKc@plt
 2642      E7800000 
 2643              	.LVL356:
  22:src/APP.cpp   **** 
 2644              		.loc 1 22 5 is_stmt 1
  22:src/APP.cpp   **** 
 2645              		.loc 1 22 15 is_stmt 0
 2646 1310 97000000 		call	_Z10putNewlinev@plt
 2646      E7800000 
 2647              	.LVL357:
  24:src/APP.cpp   ****     testMemoryAllocator();
 2648              		.loc 1 24 5 is_stmt 1
  24:src/APP.cpp   ****     testMemoryAllocator();
 2649              		.loc 1 24 20 is_stmt 0
GAS LISTING /tmp/ccZv3MCA.s 			page 70


 2650 1318 97000000 		call	_Z15testSystemCallsv
 2650      E7800000 
 2651              	.LVL358:
  25:src/APP.cpp   ****     testSyncCall();
 2652              		.loc 1 25 5 is_stmt 1
  25:src/APP.cpp   ****     testSyncCall();
 2653              		.loc 1 25 24 is_stmt 0
 2654 1320 97000000 		call	_Z19testMemoryAllocatorv
 2654      E7800000 
 2655              	.LVL359:
  26:src/APP.cpp   **** //    testTimeSlice();
 2656              		.loc 1 26 5 is_stmt 1
  26:src/APP.cpp   **** //    testTimeSlice();
 2657              		.loc 1 26 17 is_stmt 0
 2658 1328 97000000 		call	_Z12testSyncCallv
 2658      E7800000 
 2659              	.LVL360:
  30:src/APP.cpp   ****     putNewline();
 2660              		.loc 1 30 5 is_stmt 1
  30:src/APP.cpp   ****     putNewline();
 2661              		.loc 1 30 14 is_stmt 0
 2662 1330 17050000 		lla	a0,.LC18
 2662      13050500 
 2663 1338 97000000 		call	_Z9putStringPKc@plt
 2663      E7800000 
 2664              	.LVL361:
  31:src/APP.cpp   **** }
 2665              		.loc 1 31 5 is_stmt 1
  31:src/APP.cpp   **** }
 2666              		.loc 1 31 15 is_stmt 0
 2667 1340 97000000 		call	_Z10putNewlinev@plt
 2667      E7800000 
 2668              	.LVL362:
  32:src/APP.cpp   **** 
 2669              		.loc 1 32 1
 2670 1348 83308100 		ld	ra,8(sp)
 2671              		.cfi_restore 1
 2672 134c 03340100 		ld	s0,0(sp)
 2673              		.cfi_restore 8
 2674              		.cfi_def_cfa 2, 16
 2675 1350 13010101 		addi	sp,sp,16
 2676              		.cfi_def_cfa_offset 0
 2677 1354 67800000 		jr	ra
 2678              		.cfi_endproc
 2679              	.LFE14:
 2681              		.globl	sliceSecondCounter
 2682              		.globl	sliceFirstCounter
 2683              		.weak	_ZGVZN8IConsole3getEvE8instance
 2684              		.section	.bss._ZGVZN8IConsole3getEvE8instance,"awG",@nobits,_ZGVZN8IConsole3getEvE8instance,comdat
 2685              		.align	3
 2688              	_ZGVZN8IConsole3getEvE8instance:
 2689 0000 00000000 		.zero	8
 2689      00000000 
 2690              		.weak	_ZZN8IConsole3getEvE8instance
 2691              		.section	.bss._ZZN8IConsole3getEvE8instance,"awG",@nobits,_ZZN8IConsole3getEvE8instance,comdat
 2692              		.align	3
 2695              	_ZZN8IConsole3getEvE8instance:
GAS LISTING /tmp/ccZv3MCA.s 			page 71


 2696 0000 00000000 		.zero	2048
 2696      00000000 
 2696      00000000 
 2696      00000000 
 2696      00000000 
 2697              		.bss
 2698              		.align	2
 2699              		.set	.LANCHOR0,. + 0
 2702              	sliceFirstCounter:
 2703 0000 00000000 		.zero	4
 2706              	sliceSecondCounter:
 2707 0004 00000000 		.zero	4
 2708              		.text
 2709              	.Letext0:
 2710              		.file 4 "src/../h/../lib/hw.h"
 2711              		.file 5 "src/../h/syscall_c.hpp"
GAS LISTING /tmp/ccZv3MCA.s 			page 72


DEFINED SYMBOLS
                            *ABS*:0000000000000000 APP.cpp
     /tmp/ccZv3MCA.s:17     .text:0000000000000000 _Z13testTimeSleepv
     /tmp/ccZv3MCA.s:21     .text:0000000000000000 .L0 
     /tmp/ccZv3MCA.s:22     .text:0000000000000000 .L0 
     /tmp/ccZv3MCA.s:23     .text:0000000000000004 .L0 
     /tmp/ccZv3MCA.s:26     .text:000000000000000c .L0 
     /tmp/ccZv3MCA.s:27     .text:000000000000000c .L0 
     /tmp/ccZv3MCA.s:29     .text:0000000000000010 .L0 
     /tmp/ccZv3MCA.s:31     .text:0000000000000010 .L0 
     /tmp/ccZv3MCA.s:32     .text:0000000000000010 .L0 
     /tmp/ccZv3MCA.s:36     .text:0000000000000020 .L0 
     /tmp/ccZv3MCA.s:37     .text:0000000000000020 .L0 
     /tmp/ccZv3MCA.s:40     .text:0000000000000028 .L0 
     /tmp/ccZv3MCA.s:41     .text:0000000000000028 .L0 
     /tmp/ccZv3MCA.s:42     .text:0000000000000028 .L0 
     /tmp/ccZv3MCA.s:45     .text:0000000000000030 .L0 
     /tmp/ccZv3MCA.s:46     .text:0000000000000030 .L0 
     /tmp/ccZv3MCA.s:49     .text:0000000000000038 .L0 
     /tmp/ccZv3MCA.s:50     .text:0000000000000038 .L0 
     /tmp/ccZv3MCA.s:51     .text:0000000000000038 .L0 
     /tmp/ccZv3MCA.s:953    .text:00000000000006b4 _Z8doSleepAPv
     /tmp/ccZv3MCA.s:57     .text:0000000000000050 .L0 
     /tmp/ccZv3MCA.s:58     .text:0000000000000050 .L0 
     /tmp/ccZv3MCA.s:64     .text:0000000000000068 .L0 
     /tmp/ccZv3MCA.s:65     .text:0000000000000068 .L0 
     /tmp/ccZv3MCA.s:69     .text:0000000000000074 .L0 
     /tmp/ccZv3MCA.s:70     .text:0000000000000074 .L0 
     /tmp/ccZv3MCA.s:74     .text:0000000000000080 .L0 
     /tmp/ccZv3MCA.s:75     .text:0000000000000080 .L0 
     /tmp/ccZv3MCA.s:79     .text:0000000000000090 .L0 
     /tmp/ccZv3MCA.s:80     .text:0000000000000090 .L0 
     /tmp/ccZv3MCA.s:83     .text:0000000000000098 .L0 
     /tmp/ccZv3MCA.s:84     .text:000000000000009c .L0 
     /tmp/ccZv3MCA.s:86     .text:00000000000000a0 .L0 
     /tmp/ccZv3MCA.s:87     .text:00000000000000a0 .L0 
     /tmp/ccZv3MCA.s:89     .text:00000000000000a4 .L0 
     /tmp/ccZv3MCA.s:91     .text:00000000000000a8 .L0 
     /tmp/ccZv3MCA.s:117    .text:00000000000000a8 _Z13testTimeSlicev
     /tmp/ccZv3MCA.s:120    .text:00000000000000a8 .L0 
     /tmp/ccZv3MCA.s:121    .text:00000000000000a8 .L0 
     /tmp/ccZv3MCA.s:122    .text:00000000000000ac .L0 
     /tmp/ccZv3MCA.s:126    .text:00000000000000b8 .L0 
     /tmp/ccZv3MCA.s:127    .text:00000000000000b8 .L0 
     /tmp/ccZv3MCA.s:128    .text:00000000000000b8 .L0 
     /tmp/ccZv3MCA.s:130    .text:00000000000000bc .L0 
     /tmp/ccZv3MCA.s:132    .text:00000000000000bc .L0 
     /tmp/ccZv3MCA.s:133    .text:00000000000000bc .L0 
     /tmp/ccZv3MCA.s:137    .text:00000000000000cc .L0 
     /tmp/ccZv3MCA.s:138    .text:00000000000000cc .L0 
     /tmp/ccZv3MCA.s:141    .text:00000000000000d4 .L0 
     /tmp/ccZv3MCA.s:142    .text:00000000000000d4 .L0 
     /tmp/ccZv3MCA.s:143    .text:00000000000000d4 .L0 
     /tmp/ccZv3MCA.s:144    .text:00000000000000d4 .L0 
     /tmp/ccZv3MCA.s:148    .text:00000000000000e0 .L0 
     /tmp/ccZv3MCA.s:149    .text:00000000000000e0 .L0 
     /tmp/ccZv3MCA.s:150    .text:00000000000000e0 .L0 
GAS LISTING /tmp/ccZv3MCA.s 			page 73


     /tmp/ccZv3MCA.s:151    .text:00000000000000e0 .L0 
     /tmp/ccZv3MCA.s:152    .text:00000000000000e0 .L0 
     /tmp/ccZv3MCA.s:308    .text:0000000000000220 _Z12doSliceFirstPv
     /tmp/ccZv3MCA.s:159    .text:00000000000000fc .L0 
     /tmp/ccZv3MCA.s:160    .text:00000000000000fc .L0 
     /tmp/ccZv3MCA.s:161    .text:00000000000000fc .L0 
     /tmp/ccZv3MCA.s:459    .text:0000000000000330 _Z13doSliceSecondPv
     /tmp/ccZv3MCA.s:167    .text:0000000000000114 .L0 
     /tmp/ccZv3MCA.s:168    .text:0000000000000114 .L0 
     /tmp/ccZv3MCA.s:172    .text:0000000000000120 .L0 
     /tmp/ccZv3MCA.s:173    .text:0000000000000120 .L0 
     /tmp/ccZv3MCA.s:177    .text:000000000000012c .L0 
     /tmp/ccZv3MCA.s:178    .text:000000000000012c .L0 
     /tmp/ccZv3MCA.s:182    .text:000000000000013c .L0 
     /tmp/ccZv3MCA.s:185    .text:0000000000000140 .L0 
     /tmp/ccZv3MCA.s:189    .text:0000000000000144 .L0 
     /tmp/ccZv3MCA.s:197    .text:0000000000000150 .L0 
     /tmp/ccZv3MCA.s:202    .text:0000000000000154 .L0 
     /tmp/ccZv3MCA.s:203    .text:0000000000000154 .L0 
     /tmp/ccZv3MCA.s:204    .text:0000000000000154 .L0 
     /tmp/ccZv3MCA.s:208    .text:0000000000000164 .L0 
     /tmp/ccZv3MCA.s:209    .text:0000000000000164 .L0 
     /tmp/ccZv3MCA.s:212    .text:000000000000016c .L0 
     /tmp/ccZv3MCA.s:213    .text:0000000000000170 .L0 
     /tmp/ccZv3MCA.s:214    .text:0000000000000170 .L0 
     /tmp/ccZv3MCA.s:216    .text:0000000000000174 .L0 
     /tmp/ccZv3MCA.s:217    .text:0000000000000174 .L0 
     /tmp/ccZv3MCA.s:219    .text:0000000000000178 .L0 
     /tmp/ccZv3MCA.s:221    .text:000000000000017c .L0 
     /tmp/ccZv3MCA.s:225    .text:0000000000000180 .L0 
     /tmp/ccZv3MCA.s:227    .text:0000000000000180 .L0 
     /tmp/ccZv3MCA.s:228    .text:0000000000000180 .L0 
     /tmp/ccZv3MCA.s:236    .text:0000000000000188 .L0 
     /tmp/ccZv3MCA.s:237    .text:0000000000000188 .L0 
     /tmp/ccZv3MCA.s:241    .text:0000000000000198 .L0 
     /tmp/ccZv3MCA.s:242    .text:0000000000000198 .L0 
     /tmp/ccZv3MCA.s:246    .text:00000000000001a8 .L0 
     /tmp/ccZv3MCA.s:247    .text:00000000000001a8 .L0 
     /tmp/ccZv3MCA.s:251    .text:00000000000001b8 .L0 
     /tmp/ccZv3MCA.s:252    .text:00000000000001b8 .L0 
     /tmp/ccZv3MCA.s:256    .text:00000000000001c4 .L0 
     /tmp/ccZv3MCA.s:257    .text:00000000000001c4 .L0 
     /tmp/ccZv3MCA.s:261    .text:00000000000001d4 .L0 
     /tmp/ccZv3MCA.s:262    .text:00000000000001d4 .L0 
     /tmp/ccZv3MCA.s:268    .text:00000000000001dc .L0 
     /tmp/ccZv3MCA.s:269    .text:00000000000001dc .L0 
     /tmp/ccZv3MCA.s:2688   .bss._ZGVZN8IConsole3getEvE8instance:0000000000000000 _ZGVZN8IConsole3getEvE8instance
     /tmp/ccZv3MCA.s:270    .text:00000000000001dc .L0 
     /tmp/ccZv3MCA.s:2695   .bss._ZZN8IConsole3getEvE8instance:0000000000000000 _ZZN8IConsole3getEvE8instance
     /tmp/ccZv3MCA.s:277    .text:00000000000001e8 .L0 
     /tmp/ccZv3MCA.s:286    .text:00000000000001fc .L0 
     /tmp/ccZv3MCA.s:292    .text:0000000000000208 .L0 
     /tmp/ccZv3MCA.s:293    .text:0000000000000208 .L0 
     /tmp/ccZv3MCA.s:297    .text:0000000000000218 .L0 
     /tmp/ccZv3MCA.s:298    .text:0000000000000218 .L0 
     /tmp/ccZv3MCA.s:302    .text:0000000000000220 .L0 
     /tmp/ccZv3MCA.s:311    .text:0000000000000220 .L0 
GAS LISTING /tmp/ccZv3MCA.s 			page 74


     /tmp/ccZv3MCA.s:313    .text:0000000000000220 .L0 
     /tmp/ccZv3MCA.s:314    .text:0000000000000220 .L0 
     /tmp/ccZv3MCA.s:315    .text:0000000000000220 .L0 
     /tmp/ccZv3MCA.s:320    .text:000000000000022c .L0 
     /tmp/ccZv3MCA.s:321    .text:000000000000022c .L0 
     /tmp/ccZv3MCA.s:326    .text:0000000000000234 .L0 
         src/APP.cpp:120    .text:0000000000000234 .L0 
     /tmp/ccZv3MCA.s:332    .text:0000000000000238 .L0 
     /tmp/ccZv3MCA.s:334    .text:0000000000000238 .L0 
     /tmp/ccZv3MCA.s:340    .text:000000000000024c .L0 
     /tmp/ccZv3MCA.s:341    .text:000000000000024c .L0 
     /tmp/ccZv3MCA.s:347    .text:0000000000000258 .L0 
     /tmp/ccZv3MCA.s:351    .text:000000000000025c .L0 
     /tmp/ccZv3MCA.s:352    .text:000000000000025c .L0 
     /tmp/ccZv3MCA.s:354    .text:0000000000000260 .L0 
     /tmp/ccZv3MCA.s:356    .text:0000000000000264 .L0 
     /tmp/ccZv3MCA.s:357    .text:0000000000000264 .L0 
     /tmp/ccZv3MCA.s:360    .text:0000000000000270 .L0 
     /tmp/ccZv3MCA.s:365    .text:0000000000000278 .L0 
     /tmp/ccZv3MCA.s:370    .text:0000000000000280 .L0 
     /tmp/ccZv3MCA.s:376    .text:0000000000000288 .L0 
     /tmp/ccZv3MCA.s:377    .text:000000000000028c .L0 
     /tmp/ccZv3MCA.s:380    .text:0000000000000294 .L0 
     /tmp/ccZv3MCA.s:381    .text:0000000000000294 .L0 
     /tmp/ccZv3MCA.s:383    .text:0000000000000298 .L0 
     /tmp/ccZv3MCA.s:387    .text:0000000000000298 .L0 
     /tmp/ccZv3MCA.s:388    .text:0000000000000298 .L0 
     /tmp/ccZv3MCA.s:393    .text:00000000000002a8 .L0 
     /tmp/ccZv3MCA.s:394    .text:00000000000002a8 .L0 
     /tmp/ccZv3MCA.s:398    .text:00000000000002b8 .L0 
     /tmp/ccZv3MCA.s:399    .text:00000000000002b8 .L0 
     /tmp/ccZv3MCA.s:403    .text:00000000000002c8 .L0 
     /tmp/ccZv3MCA.s:404    .text:00000000000002c8 .L0 
     /tmp/ccZv3MCA.s:408    .text:00000000000002d4 .L0 
     /tmp/ccZv3MCA.s:409    .text:00000000000002d4 .L0 
     /tmp/ccZv3MCA.s:413    .text:00000000000002e4 .L0 
     /tmp/ccZv3MCA.s:414    .text:00000000000002e4 .L0 
     /tmp/ccZv3MCA.s:419    .text:00000000000002ec .L0 
     /tmp/ccZv3MCA.s:420    .text:00000000000002ec .L0 
     /tmp/ccZv3MCA.s:421    .text:00000000000002ec .L0 
     /tmp/ccZv3MCA.s:428    .text:00000000000002f8 .L0 
     /tmp/ccZv3MCA.s:437    .text:000000000000030c .L0 
     /tmp/ccZv3MCA.s:443    .text:0000000000000318 .L0 
     /tmp/ccZv3MCA.s:444    .text:0000000000000318 .L0 
     /tmp/ccZv3MCA.s:448    .text:0000000000000328 .L0 
     /tmp/ccZv3MCA.s:449    .text:0000000000000328 .L0 
     /tmp/ccZv3MCA.s:453    .text:0000000000000330 .L0 
     /tmp/ccZv3MCA.s:462    .text:0000000000000330 .L0 
     /tmp/ccZv3MCA.s:464    .text:0000000000000330 .L0 
     /tmp/ccZv3MCA.s:465    .text:0000000000000334 .L0 
     /tmp/ccZv3MCA.s:468    .text:000000000000033c .L0 
     /tmp/ccZv3MCA.s:469    .text:000000000000033c .L0 
     /tmp/ccZv3MCA.s:471    .text:0000000000000340 .L0 
     /tmp/ccZv3MCA.s:473    .text:0000000000000340 .L0 
     /tmp/ccZv3MCA.s:474    .text:0000000000000340 .L0 
     /tmp/ccZv3MCA.s:477    .text:0000000000000344 .L0 
     /tmp/ccZv3MCA.s:478    .text:0000000000000344 .L0 
GAS LISTING /tmp/ccZv3MCA.s 			page 75


     /tmp/ccZv3MCA.s:483    .text:0000000000000350 .L0 
     /tmp/ccZv3MCA.s:484    .text:0000000000000350 .L0 
     /tmp/ccZv3MCA.s:491    .text:0000000000000358 .L0 
     /tmp/ccZv3MCA.s:492    .text:0000000000000358 .L0 
     /tmp/ccZv3MCA.s:497    .text:0000000000000368 .L0 
     /tmp/ccZv3MCA.s:498    .text:0000000000000368 .L0 
     /tmp/ccZv3MCA.s:502    .text:0000000000000378 .L0 
     /tmp/ccZv3MCA.s:503    .text:0000000000000378 .L0 
     /tmp/ccZv3MCA.s:507    .text:0000000000000388 .L0 
     /tmp/ccZv3MCA.s:508    .text:0000000000000388 .L0 
     /tmp/ccZv3MCA.s:512    .text:0000000000000394 .L0 
     /tmp/ccZv3MCA.s:513    .text:0000000000000394 .L0 
     /tmp/ccZv3MCA.s:517    .text:00000000000003a4 .L0 
     /tmp/ccZv3MCA.s:518    .text:00000000000003a4 .L0 
     /tmp/ccZv3MCA.s:523    .text:00000000000003ac .L0 
     /tmp/ccZv3MCA.s:524    .text:00000000000003ac .L0 
     /tmp/ccZv3MCA.s:525    .text:00000000000003ac .L0 
     /tmp/ccZv3MCA.s:532    .text:00000000000003b8 .L0 
     /tmp/ccZv3MCA.s:541    .text:00000000000003cc .L0 
     /tmp/ccZv3MCA.s:547    .text:00000000000003d8 .L0 
     /tmp/ccZv3MCA.s:548    .text:00000000000003d8 .L0 
     /tmp/ccZv3MCA.s:552    .text:00000000000003e8 .L0 
     /tmp/ccZv3MCA.s:553    .text:00000000000003e8 .L0 
     /tmp/ccZv3MCA.s:561    .text:00000000000003f0 .L0 
     /tmp/ccZv3MCA.s:562    .text:00000000000003f0 .L0 
     /tmp/ccZv3MCA.s:567    .text:0000000000000400 .L0 
     /tmp/ccZv3MCA.s:568    .text:0000000000000400 .L0 
     /tmp/ccZv3MCA.s:572    .text:0000000000000410 .L0 
     /tmp/ccZv3MCA.s:573    .text:0000000000000410 .L0 
     /tmp/ccZv3MCA.s:577    .text:0000000000000420 .L0 
     /tmp/ccZv3MCA.s:578    .text:0000000000000420 .L0 
     /tmp/ccZv3MCA.s:582    .text:000000000000042c .L0 
     /tmp/ccZv3MCA.s:583    .text:000000000000042c .L0 
     /tmp/ccZv3MCA.s:587    .text:000000000000043c .L0 
     /tmp/ccZv3MCA.s:588    .text:000000000000043c .L0 
     /tmp/ccZv3MCA.s:593    .text:0000000000000444 .L0 
     /tmp/ccZv3MCA.s:594    .text:0000000000000444 .L0 
     /tmp/ccZv3MCA.s:595    .text:0000000000000444 .L0 
     /tmp/ccZv3MCA.s:602    .text:0000000000000450 .L0 
     /tmp/ccZv3MCA.s:611    .text:0000000000000464 .L0 
     /tmp/ccZv3MCA.s:617    .text:0000000000000470 .L0 
     /tmp/ccZv3MCA.s:618    .text:0000000000000470 .L0 
     /tmp/ccZv3MCA.s:622    .text:0000000000000480 .L0 
     /tmp/ccZv3MCA.s:623    .text:0000000000000480 .L0 
     /tmp/ccZv3MCA.s:629    .text:0000000000000488 .L0 
         src/APP.cpp:148    .text:0000000000000488 .L0 
     /tmp/ccZv3MCA.s:636    .text:000000000000048c .L0 
     /tmp/ccZv3MCA.s:640    .text:0000000000000490 .L0 
     /tmp/ccZv3MCA.s:642    .text:0000000000000494 .L0 
         src/APP.cpp:136    .text:0000000000000494 .L0 
     /tmp/ccZv3MCA.s:649    .text:0000000000000498 .L0 
     /tmp/ccZv3MCA.s:654    .text:000000000000049c .L0 
     /tmp/ccZv3MCA.s:659    .text:00000000000004a0 .L0 
     /tmp/ccZv3MCA.s:660    .text:00000000000004a0 .L0 
     /tmp/ccZv3MCA.s:661    .text:00000000000004a0 .L0 
     /tmp/ccZv3MCA.s:664    .text:00000000000004ac .L0 
     /tmp/ccZv3MCA.s:666    .text:00000000000004b0 .L0 
GAS LISTING /tmp/ccZv3MCA.s 			page 76


         src/APP.cpp:141    .text:00000000000004b0 .L0 
     /tmp/ccZv3MCA.s:672    .text:00000000000004b4 .L0 
     /tmp/ccZv3MCA.s:674    .text:00000000000004b4 .L0 
     /tmp/ccZv3MCA.s:680    .text:00000000000004c8 .L0 
     /tmp/ccZv3MCA.s:687    .text:00000000000004d4 .L0 
     /tmp/ccZv3MCA.s:692    .text:00000000000004d8 .L0 
     /tmp/ccZv3MCA.s:693    .text:00000000000004d8 .L0 
     /tmp/ccZv3MCA.s:694    .text:00000000000004d8 .L0 
     /tmp/ccZv3MCA.s:702    .text:00000000000004e8 .L0 
     /tmp/ccZv3MCA.s:707    .text:00000000000004f0 .L0 
     /tmp/ccZv3MCA.s:711    .text:00000000000004f4 .L0 
     /tmp/ccZv3MCA.s:712    .text:00000000000004f8 .L0 
     /tmp/ccZv3MCA.s:713    .text:00000000000004f8 .L0 
     /tmp/ccZv3MCA.s:715    .text:00000000000004fc .L0 
     /tmp/ccZv3MCA.s:716    .text:00000000000004fc .L0 
     /tmp/ccZv3MCA.s:718    .text:0000000000000500 .L0 
     /tmp/ccZv3MCA.s:721    .text:0000000000000504 .L0 
     /tmp/ccZv3MCA.s:725    .text:0000000000000504 .L0 
     /tmp/ccZv3MCA.s:726    .text:0000000000000504 .L0 
     /tmp/ccZv3MCA.s:731    .text:0000000000000514 .L0 
     /tmp/ccZv3MCA.s:732    .text:0000000000000514 .L0 
     /tmp/ccZv3MCA.s:736    .text:0000000000000524 .L0 
     /tmp/ccZv3MCA.s:737    .text:0000000000000524 .L0 
     /tmp/ccZv3MCA.s:741    .text:0000000000000534 .L0 
     /tmp/ccZv3MCA.s:742    .text:0000000000000534 .L0 
     /tmp/ccZv3MCA.s:746    .text:0000000000000540 .L0 
     /tmp/ccZv3MCA.s:747    .text:0000000000000540 .L0 
     /tmp/ccZv3MCA.s:751    .text:0000000000000550 .L0 
     /tmp/ccZv3MCA.s:752    .text:0000000000000550 .L0 
     /tmp/ccZv3MCA.s:757    .text:0000000000000558 .L0 
     /tmp/ccZv3MCA.s:758    .text:0000000000000558 .L0 
     /tmp/ccZv3MCA.s:759    .text:0000000000000558 .L0 
     /tmp/ccZv3MCA.s:766    .text:0000000000000564 .L0 
     /tmp/ccZv3MCA.s:775    .text:0000000000000578 .L0 
     /tmp/ccZv3MCA.s:781    .text:0000000000000584 .L0 
     /tmp/ccZv3MCA.s:782    .text:0000000000000584 .L0 
     /tmp/ccZv3MCA.s:786    .text:0000000000000594 .L0 
     /tmp/ccZv3MCA.s:787    .text:0000000000000594 .L0 
     /tmp/ccZv3MCA.s:791    .text:000000000000059c .L0 
     /tmp/ccZv3MCA.s:805    .text:000000000000059c _Z12testSyncCallv
     /tmp/ccZv3MCA.s:808    .text:000000000000059c .L0 
     /tmp/ccZv3MCA.s:809    .text:000000000000059c .L0 
     /tmp/ccZv3MCA.s:810    .text:00000000000005a0 .L0 
     /tmp/ccZv3MCA.s:813    .text:00000000000005a8 .L0 
     /tmp/ccZv3MCA.s:814    .text:00000000000005a8 .L0 
     /tmp/ccZv3MCA.s:816    .text:00000000000005ac .L0 
     /tmp/ccZv3MCA.s:818    .text:00000000000005ac .L0 
     /tmp/ccZv3MCA.s:819    .text:00000000000005ac .L0 
     /tmp/ccZv3MCA.s:823    .text:00000000000005bc .L0 
     /tmp/ccZv3MCA.s:824    .text:00000000000005bc .L0 
     /tmp/ccZv3MCA.s:827    .text:00000000000005c4 .L0 
     /tmp/ccZv3MCA.s:828    .text:00000000000005c4 .L0 
     /tmp/ccZv3MCA.s:829    .text:00000000000005c4 .L0 
     /tmp/ccZv3MCA.s:830    .text:00000000000005c4 .L0 
     /tmp/ccZv3MCA.s:833    .text:00000000000005cc .L0 
     /tmp/ccZv3MCA.s:834    .text:00000000000005cc .L0 
     /tmp/ccZv3MCA.s:837    .text:00000000000005d4 .L0 
GAS LISTING /tmp/ccZv3MCA.s 			page 77


     /tmp/ccZv3MCA.s:838    .text:00000000000005d4 .L0 
     /tmp/ccZv3MCA.s:839    .text:00000000000005d4 .L0 
     /tmp/ccZv3MCA.s:840    .text:00000000000005d4 .L0 
     /tmp/ccZv3MCA.s:1289   .text:0000000000000938 _Z3doAPv
     /tmp/ccZv3MCA.s:846    .text:00000000000005ec .L0 
     /tmp/ccZv3MCA.s:847    .text:00000000000005ec .L0 
     /tmp/ccZv3MCA.s:1580   .text:0000000000000b6c _Z3doBPv
     /tmp/ccZv3MCA.s:853    .text:0000000000000604 .L0 
     /tmp/ccZv3MCA.s:854    .text:0000000000000604 .L0 
     /tmp/ccZv3MCA.s:857    .text:000000000000060c .L0 
     /tmp/ccZv3MCA.s:858    .text:000000000000060c .L0 
     /tmp/ccZv3MCA.s:862    .text:0000000000000618 .L0 
     /tmp/ccZv3MCA.s:863    .text:0000000000000618 .L0 
     /tmp/ccZv3MCA.s:867    .text:0000000000000624 .L0 
     /tmp/ccZv3MCA.s:868    .text:0000000000000624 .L0 
     /tmp/ccZv3MCA.s:872    .text:0000000000000634 .L0 
     /tmp/ccZv3MCA.s:873    .text:0000000000000634 .L0 
     /tmp/ccZv3MCA.s:876    .text:000000000000063c .L0 
     /tmp/ccZv3MCA.s:877    .text:0000000000000640 .L0 
     /tmp/ccZv3MCA.s:879    .text:0000000000000644 .L0 
     /tmp/ccZv3MCA.s:880    .text:0000000000000644 .L0 
     /tmp/ccZv3MCA.s:882    .text:0000000000000648 .L0 
     /tmp/ccZv3MCA.s:884    .text:000000000000064c .L0 
     /tmp/ccZv3MCA.s:890    .text:000000000000064c _Z3fibm
     /tmp/ccZv3MCA.s:893    .text:000000000000064c .L0 
     /tmp/ccZv3MCA.s:895    .text:000000000000064c .L0 
     /tmp/ccZv3MCA.s:896    .text:0000000000000650 .L0 
     /tmp/ccZv3MCA.s:901    .text:0000000000000660 .L0 
     /tmp/ccZv3MCA.s:902    .text:0000000000000660 .L0 
     /tmp/ccZv3MCA.s:903    .text:0000000000000660 .L0 
     /tmp/ccZv3MCA.s:904    .text:0000000000000660 .L0 
     /tmp/ccZv3MCA.s:906    .text:0000000000000664 .L0 
     /tmp/ccZv3MCA.s:909    .text:0000000000000668 .L0 
     /tmp/ccZv3MCA.s:912    .text:0000000000000670 .L0 
     /tmp/ccZv3MCA.s:916    .text:0000000000000674 .L0 
     /tmp/ccZv3MCA.s:918    .text:000000000000067c .L0 
     /tmp/ccZv3MCA.s:919    .text:000000000000067c .L0 
     /tmp/ccZv3MCA.s:921    .text:0000000000000680 .L0 
     /tmp/ccZv3MCA.s:922    .text:0000000000000680 .L0 
     /tmp/ccZv3MCA.s:924    .text:0000000000000684 .L0 
     /tmp/ccZv3MCA.s:926    .text:0000000000000688 .L0 
     /tmp/ccZv3MCA.s:928    .text:000000000000068c .L0 
     /tmp/ccZv3MCA.s:932    .text:0000000000000690 .L0 
     /tmp/ccZv3MCA.s:934    .text:0000000000000690 .L0 
     /tmp/ccZv3MCA.s:935    .text:0000000000000690 .L0 
     /tmp/ccZv3MCA.s:940    .text:00000000000006a0 .L0 
     /tmp/ccZv3MCA.s:944    .text:00000000000006ac .L0 
     /tmp/ccZv3MCA.s:947    .text:00000000000006b4 .L0 
     /tmp/ccZv3MCA.s:956    .text:00000000000006b4 .L0 
     /tmp/ccZv3MCA.s:958    .text:00000000000006b4 .L0 
     /tmp/ccZv3MCA.s:959    .text:00000000000006b8 .L0 
     /tmp/ccZv3MCA.s:965    .text:00000000000006cc .L0 
     /tmp/ccZv3MCA.s:966    .text:00000000000006cc .L0 
     /tmp/ccZv3MCA.s:967    .text:00000000000006cc .L0 
     /tmp/ccZv3MCA.s:968    .text:00000000000006cc .L0 
     /tmp/ccZv3MCA.s:969    .text:00000000000006cc .L0 
     /tmp/ccZv3MCA.s:971    .text:00000000000006d0 .L0 
GAS LISTING /tmp/ccZv3MCA.s 			page 78


     /tmp/ccZv3MCA.s:974    .text:00000000000006d0 .L0 
     /tmp/ccZv3MCA.s:975    .text:00000000000006d0 .L0 
     /tmp/ccZv3MCA.s:976    .text:00000000000006d0 .L0 
     /tmp/ccZv3MCA.s:980    .text:00000000000006d4 .L0 
     /tmp/ccZv3MCA.s:981    .text:00000000000006d4 .L0 
     /tmp/ccZv3MCA.s:985    .text:00000000000006dc .L0 
     /tmp/ccZv3MCA.s:986    .text:00000000000006dc .L0 
     /tmp/ccZv3MCA.s:990    .text:00000000000006e8 .L0 
     /tmp/ccZv3MCA.s:993    .text:00000000000006ec .L0 
     /tmp/ccZv3MCA.s:994    .text:00000000000006ec .L0 
     /tmp/ccZv3MCA.s:998    .text:00000000000006f8 .L0 
     /tmp/ccZv3MCA.s:999    .text:00000000000006f8 .L0 
     /tmp/ccZv3MCA.s:1005   .text:0000000000000704 .L0 
     /tmp/ccZv3MCA.s:1006   .text:0000000000000704 .L0 
     /tmp/ccZv3MCA.s:1011   .text:0000000000000708 .L0 
     /tmp/ccZv3MCA.s:1012   .text:0000000000000708 .L0 
     /tmp/ccZv3MCA.s:1023   .text:0000000000000728 .L0 
     /tmp/ccZv3MCA.s:1028   .text:000000000000072c .L0 
     /tmp/ccZv3MCA.s:1029   .text:000000000000072c .L0 
     /tmp/ccZv3MCA.s:1042   .text:0000000000000748 .L0 
     /tmp/ccZv3MCA.s:1047   .text:000000000000074c .L0 
     /tmp/ccZv3MCA.s:1048   .text:000000000000074c .L0 
     /tmp/ccZv3MCA.s:1049   .text:000000000000074c .L0 
     /tmp/ccZv3MCA.s:1053   .text:0000000000000750 .L0 
     /tmp/ccZv3MCA.s:1060   .text:0000000000000754 .L0 
     /tmp/ccZv3MCA.s:1061   .text:0000000000000754 .L0 
     /tmp/ccZv3MCA.s:1066   .text:0000000000000764 .L0 
     /tmp/ccZv3MCA.s:1067   .text:0000000000000764 .L0 
     /tmp/ccZv3MCA.s:1071   .text:0000000000000774 .L0 
     /tmp/ccZv3MCA.s:1072   .text:0000000000000774 .L0 
     /tmp/ccZv3MCA.s:1076   .text:0000000000000784 .L0 
     /tmp/ccZv3MCA.s:1077   .text:0000000000000784 .L0 
     /tmp/ccZv3MCA.s:1081   .text:0000000000000790 .L0 
     /tmp/ccZv3MCA.s:1082   .text:0000000000000790 .L0 
     /tmp/ccZv3MCA.s:1086   .text:00000000000007a0 .L0 
     /tmp/ccZv3MCA.s:1087   .text:00000000000007a0 .L0 
     /tmp/ccZv3MCA.s:1092   .text:00000000000007a8 .L0 
     /tmp/ccZv3MCA.s:1093   .text:00000000000007a8 .L0 
     /tmp/ccZv3MCA.s:1094   .text:00000000000007a8 .L0 
     /tmp/ccZv3MCA.s:1101   .text:00000000000007b4 .L0 
     /tmp/ccZv3MCA.s:1110   .text:00000000000007c8 .L0 
     /tmp/ccZv3MCA.s:1116   .text:00000000000007d4 .L0 
     /tmp/ccZv3MCA.s:1117   .text:00000000000007d4 .L0 
     /tmp/ccZv3MCA.s:1121   .text:00000000000007e4 .L0 
     /tmp/ccZv3MCA.s:1122   .text:00000000000007e4 .L0 
     /tmp/ccZv3MCA.s:1130   .text:00000000000007ec .L0 
     /tmp/ccZv3MCA.s:1131   .text:00000000000007ec .L0 
     /tmp/ccZv3MCA.s:1136   .text:00000000000007fc .L0 
     /tmp/ccZv3MCA.s:1137   .text:00000000000007fc .L0 
     /tmp/ccZv3MCA.s:1141   .text:000000000000080c .L0 
     /tmp/ccZv3MCA.s:1142   .text:000000000000080c .L0 
     /tmp/ccZv3MCA.s:1146   .text:000000000000081c .L0 
     /tmp/ccZv3MCA.s:1147   .text:000000000000081c .L0 
     /tmp/ccZv3MCA.s:1151   .text:0000000000000828 .L0 
     /tmp/ccZv3MCA.s:1152   .text:0000000000000828 .L0 
     /tmp/ccZv3MCA.s:1156   .text:0000000000000838 .L0 
     /tmp/ccZv3MCA.s:1157   .text:0000000000000838 .L0 
GAS LISTING /tmp/ccZv3MCA.s 			page 79


     /tmp/ccZv3MCA.s:1162   .text:0000000000000840 .L0 
     /tmp/ccZv3MCA.s:1163   .text:0000000000000840 .L0 
     /tmp/ccZv3MCA.s:1164   .text:0000000000000840 .L0 
     /tmp/ccZv3MCA.s:1171   .text:000000000000084c .L0 
     /tmp/ccZv3MCA.s:1180   .text:0000000000000860 .L0 
     /tmp/ccZv3MCA.s:1186   .text:000000000000086c .L0 
     /tmp/ccZv3MCA.s:1187   .text:000000000000086c .L0 
     /tmp/ccZv3MCA.s:1191   .text:000000000000087c .L0 
     /tmp/ccZv3MCA.s:1192   .text:000000000000087c .L0 
     /tmp/ccZv3MCA.s:1200   .text:0000000000000884 .L0 
     /tmp/ccZv3MCA.s:1201   .text:0000000000000884 .L0 
     /tmp/ccZv3MCA.s:1205   .text:0000000000000894 .L0 
     /tmp/ccZv3MCA.s:1206   .text:0000000000000894 .L0 
     /tmp/ccZv3MCA.s:1210   .text:00000000000008a4 .L0 
     /tmp/ccZv3MCA.s:1211   .text:00000000000008a4 .L0 
     /tmp/ccZv3MCA.s:1215   .text:00000000000008b4 .L0 
     /tmp/ccZv3MCA.s:1216   .text:00000000000008b4 .L0 
     /tmp/ccZv3MCA.s:1220   .text:00000000000008c0 .L0 
     /tmp/ccZv3MCA.s:1221   .text:00000000000008c0 .L0 
     /tmp/ccZv3MCA.s:1225   .text:00000000000008d0 .L0 
     /tmp/ccZv3MCA.s:1226   .text:00000000000008d0 .L0 
     /tmp/ccZv3MCA.s:1231   .text:00000000000008d8 .L0 
     /tmp/ccZv3MCA.s:1232   .text:00000000000008d8 .L0 
     /tmp/ccZv3MCA.s:1233   .text:00000000000008d8 .L0 
     /tmp/ccZv3MCA.s:1240   .text:00000000000008e4 .L0 
     /tmp/ccZv3MCA.s:1249   .text:00000000000008f8 .L0 
     /tmp/ccZv3MCA.s:1255   .text:0000000000000904 .L0 
     /tmp/ccZv3MCA.s:1256   .text:0000000000000904 .L0 
     /tmp/ccZv3MCA.s:1260   .text:0000000000000914 .L0 
     /tmp/ccZv3MCA.s:1261   .text:0000000000000914 .L0 
     /tmp/ccZv3MCA.s:1268   .text:000000000000091c .L0 
     /tmp/ccZv3MCA.s:1269   .text:0000000000000920 .L0 
     /tmp/ccZv3MCA.s:1271   .text:0000000000000924 .L0 
     /tmp/ccZv3MCA.s:1272   .text:0000000000000924 .L0 
     /tmp/ccZv3MCA.s:1274   .text:0000000000000928 .L0 
     /tmp/ccZv3MCA.s:1276   .text:000000000000092c .L0 
     /tmp/ccZv3MCA.s:1278   .text:0000000000000930 .L0 
     /tmp/ccZv3MCA.s:1281   .text:0000000000000934 .L0 
     /tmp/ccZv3MCA.s:1283   .text:0000000000000938 .L0 
     /tmp/ccZv3MCA.s:1292   .text:0000000000000938 .L0 
     /tmp/ccZv3MCA.s:1294   .text:0000000000000938 .L0 
     /tmp/ccZv3MCA.s:1295   .text:000000000000093c .L0 
     /tmp/ccZv3MCA.s:1300   .text:000000000000094c .L0 
     /tmp/ccZv3MCA.s:1301   .text:000000000000094c .L0 
     /tmp/ccZv3MCA.s:1302   .text:000000000000094c .L0 
     /tmp/ccZv3MCA.s:1303   .text:000000000000094c .L0 
     /tmp/ccZv3MCA.s:1305   .text:0000000000000950 .L0 
     /tmp/ccZv3MCA.s:1307   .text:0000000000000950 .L0 
     /tmp/ccZv3MCA.s:1313   .text:0000000000000958 .L0 
     /tmp/ccZv3MCA.s:1318   .text:000000000000095c .L0 
     /tmp/ccZv3MCA.s:1322   .text:0000000000000960 .L0 
     /tmp/ccZv3MCA.s:1325   .text:0000000000000968 .L0 
     /tmp/ccZv3MCA.s:1335   .text:0000000000000984 .L0 
     /tmp/ccZv3MCA.s:1340   .text:0000000000000988 .L0 
     /tmp/ccZv3MCA.s:1341   .text:0000000000000988 .L0 
     /tmp/ccZv3MCA.s:1342   .text:0000000000000988 .L0 
     /tmp/ccZv3MCA.s:1345   .text:0000000000000990 .L0 
GAS LISTING /tmp/ccZv3MCA.s 			page 80


     /tmp/ccZv3MCA.s:1354   .text:0000000000000998 .L0 
     /tmp/ccZv3MCA.s:1355   .text:0000000000000998 .L0 
     /tmp/ccZv3MCA.s:1360   .text:00000000000009a8 .L0 
     /tmp/ccZv3MCA.s:1361   .text:00000000000009a8 .L0 
     /tmp/ccZv3MCA.s:1365   .text:00000000000009b8 .L0 
     /tmp/ccZv3MCA.s:1366   .text:00000000000009b8 .L0 
     /tmp/ccZv3MCA.s:1370   .text:00000000000009c8 .L0 
     /tmp/ccZv3MCA.s:1371   .text:00000000000009c8 .L0 
     /tmp/ccZv3MCA.s:1375   .text:00000000000009d4 .L0 
     /tmp/ccZv3MCA.s:1376   .text:00000000000009d4 .L0 
     /tmp/ccZv3MCA.s:1380   .text:00000000000009e4 .L0 
     /tmp/ccZv3MCA.s:1381   .text:00000000000009e4 .L0 
     /tmp/ccZv3MCA.s:1386   .text:00000000000009ec .L0 
     /tmp/ccZv3MCA.s:1387   .text:00000000000009ec .L0 
     /tmp/ccZv3MCA.s:1388   .text:00000000000009ec .L0 
     /tmp/ccZv3MCA.s:1395   .text:00000000000009f8 .L0 
     /tmp/ccZv3MCA.s:1404   .text:0000000000000a0c .L0 
     /tmp/ccZv3MCA.s:1410   .text:0000000000000a18 .L0 
     /tmp/ccZv3MCA.s:1411   .text:0000000000000a18 .L0 
     /tmp/ccZv3MCA.s:1415   .text:0000000000000a28 .L0 
     /tmp/ccZv3MCA.s:1416   .text:0000000000000a28 .L0 
     /tmp/ccZv3MCA.s:1425   .text:0000000000000a30 .L0 
     /tmp/ccZv3MCA.s:1426   .text:0000000000000a30 .L0 
     /tmp/ccZv3MCA.s:1431   .text:0000000000000a40 .L0 
     /tmp/ccZv3MCA.s:1432   .text:0000000000000a40 .L0 
     /tmp/ccZv3MCA.s:1436   .text:0000000000000a50 .L0 
     /tmp/ccZv3MCA.s:1437   .text:0000000000000a50 .L0 
     /tmp/ccZv3MCA.s:1441   .text:0000000000000a60 .L0 
     /tmp/ccZv3MCA.s:1442   .text:0000000000000a60 .L0 
     /tmp/ccZv3MCA.s:1446   .text:0000000000000a6c .L0 
     /tmp/ccZv3MCA.s:1447   .text:0000000000000a6c .L0 
     /tmp/ccZv3MCA.s:1451   .text:0000000000000a7c .L0 
     /tmp/ccZv3MCA.s:1452   .text:0000000000000a7c .L0 
     /tmp/ccZv3MCA.s:1457   .text:0000000000000a84 .L0 
     /tmp/ccZv3MCA.s:1458   .text:0000000000000a84 .L0 
     /tmp/ccZv3MCA.s:1459   .text:0000000000000a84 .L0 
     /tmp/ccZv3MCA.s:1466   .text:0000000000000a90 .L0 
     /tmp/ccZv3MCA.s:1475   .text:0000000000000aa4 .L0 
     /tmp/ccZv3MCA.s:1481   .text:0000000000000ab0 .L0 
     /tmp/ccZv3MCA.s:1482   .text:0000000000000ab0 .L0 
     /tmp/ccZv3MCA.s:1486   .text:0000000000000ac0 .L0 
     /tmp/ccZv3MCA.s:1487   .text:0000000000000ac0 .L0 
     /tmp/ccZv3MCA.s:1494   .text:0000000000000ac8 .L0 
         src/APP.cpp:193    .text:0000000000000ac8 .L0 
     /tmp/ccZv3MCA.s:1500   .text:0000000000000acc .L0 
     /tmp/ccZv3MCA.s:1502   .text:0000000000000acc .L0 
     /tmp/ccZv3MCA.s:1507   .text:0000000000000ad4 .L0 
     /tmp/ccZv3MCA.s:1508   .text:0000000000000ad4 .L0 
     /tmp/ccZv3MCA.s:1509   .text:0000000000000ad4 .L0 
     /tmp/ccZv3MCA.s:1510   .text:0000000000000ad4 .L0 
     /tmp/ccZv3MCA.s:1514   .text:0000000000000ae4 .L0 
     /tmp/ccZv3MCA.s:1515   .text:0000000000000ae4 .L0 
     /tmp/ccZv3MCA.s:1519   .text:0000000000000af4 .L0 
     /tmp/ccZv3MCA.s:1520   .text:0000000000000af4 .L0 
     /tmp/ccZv3MCA.s:1524   .text:0000000000000b04 .L0 
     /tmp/ccZv3MCA.s:1525   .text:0000000000000b04 .L0 
     /tmp/ccZv3MCA.s:1529   .text:0000000000000b10 .L0 
GAS LISTING /tmp/ccZv3MCA.s 			page 81


     /tmp/ccZv3MCA.s:1530   .text:0000000000000b10 .L0 
     /tmp/ccZv3MCA.s:1534   .text:0000000000000b20 .L0 
     /tmp/ccZv3MCA.s:1535   .text:0000000000000b20 .L0 
     /tmp/ccZv3MCA.s:1540   .text:0000000000000b28 .L0 
     /tmp/ccZv3MCA.s:1541   .text:0000000000000b28 .L0 
     /tmp/ccZv3MCA.s:1542   .text:0000000000000b28 .L0 
     /tmp/ccZv3MCA.s:1549   .text:0000000000000b34 .L0 
     /tmp/ccZv3MCA.s:1558   .text:0000000000000b48 .L0 
     /tmp/ccZv3MCA.s:1564   .text:0000000000000b54 .L0 
     /tmp/ccZv3MCA.s:1565   .text:0000000000000b54 .L0 
     /tmp/ccZv3MCA.s:1569   .text:0000000000000b64 .L0 
     /tmp/ccZv3MCA.s:1570   .text:0000000000000b64 .L0 
     /tmp/ccZv3MCA.s:1574   .text:0000000000000b6c .L0 
     /tmp/ccZv3MCA.s:1583   .text:0000000000000b6c .L0 
     /tmp/ccZv3MCA.s:1585   .text:0000000000000b6c .L0 
     /tmp/ccZv3MCA.s:1586   .text:0000000000000b70 .L0 
     /tmp/ccZv3MCA.s:1591   .text:0000000000000b80 .L0 
     /tmp/ccZv3MCA.s:1592   .text:0000000000000b80 .L0 
     /tmp/ccZv3MCA.s:1593   .text:0000000000000b80 .L0 
     /tmp/ccZv3MCA.s:1594   .text:0000000000000b80 .L0 
     /tmp/ccZv3MCA.s:1596   .text:0000000000000b84 .L0 
     /tmp/ccZv3MCA.s:1598   .text:0000000000000b84 .L0 
     /tmp/ccZv3MCA.s:1604   .text:0000000000000b8c .L0 
     /tmp/ccZv3MCA.s:1609   .text:0000000000000b90 .L0 
     /tmp/ccZv3MCA.s:1613   .text:0000000000000b94 .L0 
     /tmp/ccZv3MCA.s:1616   .text:0000000000000b9c .L0 
     /tmp/ccZv3MCA.s:1626   .text:0000000000000bb8 .L0 
     /tmp/ccZv3MCA.s:1631   .text:0000000000000bbc .L0 
     /tmp/ccZv3MCA.s:1632   .text:0000000000000bbc .L0 
     /tmp/ccZv3MCA.s:1633   .text:0000000000000bbc .L0 
     /tmp/ccZv3MCA.s:1636   .text:0000000000000bc4 .L0 
     /tmp/ccZv3MCA.s:1645   .text:0000000000000bcc .L0 
     /tmp/ccZv3MCA.s:1646   .text:0000000000000bcc .L0 
     /tmp/ccZv3MCA.s:1651   .text:0000000000000bdc .L0 
     /tmp/ccZv3MCA.s:1652   .text:0000000000000bdc .L0 
     /tmp/ccZv3MCA.s:1656   .text:0000000000000bec .L0 
     /tmp/ccZv3MCA.s:1657   .text:0000000000000bec .L0 
     /tmp/ccZv3MCA.s:1661   .text:0000000000000bfc .L0 
     /tmp/ccZv3MCA.s:1662   .text:0000000000000bfc .L0 
     /tmp/ccZv3MCA.s:1666   .text:0000000000000c08 .L0 
     /tmp/ccZv3MCA.s:1667   .text:0000000000000c08 .L0 
     /tmp/ccZv3MCA.s:1671   .text:0000000000000c18 .L0 
     /tmp/ccZv3MCA.s:1672   .text:0000000000000c18 .L0 
     /tmp/ccZv3MCA.s:1677   .text:0000000000000c20 .L0 
     /tmp/ccZv3MCA.s:1678   .text:0000000000000c20 .L0 
     /tmp/ccZv3MCA.s:1679   .text:0000000000000c20 .L0 
     /tmp/ccZv3MCA.s:1686   .text:0000000000000c2c .L0 
     /tmp/ccZv3MCA.s:1695   .text:0000000000000c40 .L0 
     /tmp/ccZv3MCA.s:1701   .text:0000000000000c4c .L0 
     /tmp/ccZv3MCA.s:1702   .text:0000000000000c4c .L0 
     /tmp/ccZv3MCA.s:1706   .text:0000000000000c5c .L0 
     /tmp/ccZv3MCA.s:1707   .text:0000000000000c5c .L0 
     /tmp/ccZv3MCA.s:1716   .text:0000000000000c64 .L0 
     /tmp/ccZv3MCA.s:1717   .text:0000000000000c64 .L0 
     /tmp/ccZv3MCA.s:1722   .text:0000000000000c74 .L0 
     /tmp/ccZv3MCA.s:1723   .text:0000000000000c74 .L0 
     /tmp/ccZv3MCA.s:1727   .text:0000000000000c84 .L0 
GAS LISTING /tmp/ccZv3MCA.s 			page 82


     /tmp/ccZv3MCA.s:1728   .text:0000000000000c84 .L0 
     /tmp/ccZv3MCA.s:1732   .text:0000000000000c94 .L0 
     /tmp/ccZv3MCA.s:1733   .text:0000000000000c94 .L0 
     /tmp/ccZv3MCA.s:1737   .text:0000000000000ca0 .L0 
     /tmp/ccZv3MCA.s:1738   .text:0000000000000ca0 .L0 
     /tmp/ccZv3MCA.s:1742   .text:0000000000000cb0 .L0 
     /tmp/ccZv3MCA.s:1743   .text:0000000000000cb0 .L0 
     /tmp/ccZv3MCA.s:1748   .text:0000000000000cb8 .L0 
     /tmp/ccZv3MCA.s:1749   .text:0000000000000cb8 .L0 
     /tmp/ccZv3MCA.s:1750   .text:0000000000000cb8 .L0 
     /tmp/ccZv3MCA.s:1757   .text:0000000000000cc4 .L0 
     /tmp/ccZv3MCA.s:1766   .text:0000000000000cd8 .L0 
     /tmp/ccZv3MCA.s:1772   .text:0000000000000ce4 .L0 
     /tmp/ccZv3MCA.s:1773   .text:0000000000000ce4 .L0 
     /tmp/ccZv3MCA.s:1777   .text:0000000000000cf4 .L0 
     /tmp/ccZv3MCA.s:1778   .text:0000000000000cf4 .L0 
     /tmp/ccZv3MCA.s:1785   .text:0000000000000cfc .L0 
     /tmp/ccZv3MCA.s:1786   .text:0000000000000cfc .L0 
     /tmp/ccZv3MCA.s:1791   .text:0000000000000d04 .L0 
     /tmp/ccZv3MCA.s:1792   .text:0000000000000d04 .L0 
     /tmp/ccZv3MCA.s:1793   .text:0000000000000d04 .L0 
     /tmp/ccZv3MCA.s:1794   .text:0000000000000d04 .L0 
     /tmp/ccZv3MCA.s:1798   .text:0000000000000d14 .L0 
     /tmp/ccZv3MCA.s:1799   .text:0000000000000d14 .L0 
     /tmp/ccZv3MCA.s:1803   .text:0000000000000d24 .L0 
     /tmp/ccZv3MCA.s:1804   .text:0000000000000d24 .L0 
     /tmp/ccZv3MCA.s:1808   .text:0000000000000d34 .L0 
     /tmp/ccZv3MCA.s:1809   .text:0000000000000d34 .L0 
     /tmp/ccZv3MCA.s:1813   .text:0000000000000d40 .L0 
     /tmp/ccZv3MCA.s:1814   .text:0000000000000d40 .L0 
     /tmp/ccZv3MCA.s:1818   .text:0000000000000d50 .L0 
     /tmp/ccZv3MCA.s:1819   .text:0000000000000d50 .L0 
     /tmp/ccZv3MCA.s:1824   .text:0000000000000d58 .L0 
     /tmp/ccZv3MCA.s:1825   .text:0000000000000d58 .L0 
     /tmp/ccZv3MCA.s:1826   .text:0000000000000d58 .L0 
     /tmp/ccZv3MCA.s:1833   .text:0000000000000d64 .L0 
     /tmp/ccZv3MCA.s:1842   .text:0000000000000d78 .L0 
     /tmp/ccZv3MCA.s:1848   .text:0000000000000d84 .L0 
     /tmp/ccZv3MCA.s:1849   .text:0000000000000d84 .L0 
     /tmp/ccZv3MCA.s:1853   .text:0000000000000d94 .L0 
     /tmp/ccZv3MCA.s:1854   .text:0000000000000d94 .L0 
     /tmp/ccZv3MCA.s:1858   .text:0000000000000d9c .L0 
     /tmp/ccZv3MCA.s:1881   .text:0000000000000d9c _Z15testSystemCallsv
     /tmp/ccZv3MCA.s:1884   .text:0000000000000d9c .L0 
     /tmp/ccZv3MCA.s:1885   .text:0000000000000d9c .L0 
     /tmp/ccZv3MCA.s:1886   .text:0000000000000da0 .L0 
     /tmp/ccZv3MCA.s:1896   .text:0000000000000dc4 .L0 
     /tmp/ccZv3MCA.s:1897   .text:0000000000000dc4 .L0 
     /tmp/ccZv3MCA.s:1898   .text:0000000000000dc4 .L0 
     /tmp/ccZv3MCA.s:1899   .text:0000000000000dc4 .L0 
     /tmp/ccZv3MCA.s:1900   .text:0000000000000dc4 .L0 
     /tmp/ccZv3MCA.s:1901   .text:0000000000000dc4 .L0 
     /tmp/ccZv3MCA.s:1902   .text:0000000000000dc4 .L0 
     /tmp/ccZv3MCA.s:1903   .text:0000000000000dc4 .L0 
     /tmp/ccZv3MCA.s:1904   .text:0000000000000dc4 .L0 
     /tmp/ccZv3MCA.s:1906   .text:0000000000000dc8 .L0 
     /tmp/ccZv3MCA.s:1908   .text:0000000000000dc8 .L0 
GAS LISTING /tmp/ccZv3MCA.s 			page 83


     /tmp/ccZv3MCA.s:1909   .text:0000000000000dc8 .L0 
     /tmp/ccZv3MCA.s:1913   .text:0000000000000dd8 .L0 
     /tmp/ccZv3MCA.s:1914   .text:0000000000000dd8 .L0 
     /tmp/ccZv3MCA.s:1917   .text:0000000000000de0 .L0 
     /tmp/ccZv3MCA.s:1918   .text:0000000000000de0 .L0 
     /tmp/ccZv3MCA.s:1920   .text:0000000000000de0 .L0 
     /tmp/ccZv3MCA.s:1921   .text:0000000000000de0 .L0 
     /tmp/ccZv3MCA.s:1924   .text:0000000000000de4 .L0 
     /tmp/ccZv3MCA.s:1926   .text:0000000000000de8 .L0 
     /tmp/ccZv3MCA.s:1931   .text:0000000000000dec .L0 
     /tmp/ccZv3MCA.s:1935   .text:0000000000000df4 .L0 
     /tmp/ccZv3MCA.s:1936   .text:0000000000000df4 .L0 
     /tmp/ccZv3MCA.s:1939   .text:0000000000000df8 .L0 
     /tmp/ccZv3MCA.s:1940   .text:0000000000000df8 .L0 
     /tmp/ccZv3MCA.s:1943   .text:0000000000000dfc .L0 
     /tmp/ccZv3MCA.s:1944   .text:0000000000000dfc .L0 
     /tmp/ccZv3MCA.s:1950   .text:0000000000000e0c .L0 
     /tmp/ccZv3MCA.s:1951   .text:0000000000000e0c .L0 
     /tmp/ccZv3MCA.s:1958   .text:0000000000000e1c .L0 
     /tmp/ccZv3MCA.s:1963   .text:0000000000000e20 .L0 
     /tmp/ccZv3MCA.s:1964   .text:0000000000000e20 .L0 
     /tmp/ccZv3MCA.s:1970   .text:0000000000000e24 .L0 
     /tmp/ccZv3MCA.s:1971   .text:0000000000000e24 .L0 
     /tmp/ccZv3MCA.s:1975   .text:0000000000000e28 .L0 
     /tmp/ccZv3MCA.s:1978   .text:0000000000000e2c .L0 
     /tmp/ccZv3MCA.s:1982   .text:0000000000000e30 .L0 
     /tmp/ccZv3MCA.s:1987   .text:0000000000000e34 .L0 
     /tmp/ccZv3MCA.s:1988   .text:0000000000000e34 .L0 
     /tmp/ccZv3MCA.s:1993   .text:0000000000000e44 .L0 
     /tmp/ccZv3MCA.s:1994   .text:0000000000000e44 .L0 
     /tmp/ccZv3MCA.s:1998   .text:0000000000000e50 .L0 
     /tmp/ccZv3MCA.s:1999   .text:0000000000000e50 .L0 
     /tmp/ccZv3MCA.s:2003   .text:0000000000000e60 .L0 
     /tmp/ccZv3MCA.s:2004   .text:0000000000000e60 .L0 
     /tmp/ccZv3MCA.s:2008   .text:0000000000000e6c .L0 
     /tmp/ccZv3MCA.s:2009   .text:0000000000000e6c .L0 
     /tmp/ccZv3MCA.s:2013   .text:0000000000000e7c .L0 
     /tmp/ccZv3MCA.s:2014   .text:0000000000000e7c .L0 
     /tmp/ccZv3MCA.s:2018   .text:0000000000000e88 .L0 
     /tmp/ccZv3MCA.s:2019   .text:0000000000000e88 .L0 
     /tmp/ccZv3MCA.s:2024   .text:0000000000000e90 .L0 
     /tmp/ccZv3MCA.s:2025   .text:0000000000000e90 .L0 
     /tmp/ccZv3MCA.s:2026   .text:0000000000000e90 .L0 
     /tmp/ccZv3MCA.s:2027   .text:0000000000000e90 .L0 
     /tmp/ccZv3MCA.s:2031   .text:0000000000000ea0 .L0 
     /tmp/ccZv3MCA.s:2032   .text:0000000000000ea0 .L0 
     /tmp/ccZv3MCA.s:2036   .text:0000000000000eb0 .L0 
     /tmp/ccZv3MCA.s:2037   .text:0000000000000eb0 .L0 
     /tmp/ccZv3MCA.s:2041   .text:0000000000000ec0 .L0 
     /tmp/ccZv3MCA.s:2042   .text:0000000000000ec0 .L0 
     /tmp/ccZv3MCA.s:2046   .text:0000000000000ecc .L0 
     /tmp/ccZv3MCA.s:2047   .text:0000000000000ecc .L0 
     /tmp/ccZv3MCA.s:2051   .text:0000000000000edc .L0 
     /tmp/ccZv3MCA.s:2052   .text:0000000000000edc .L0 
     /tmp/ccZv3MCA.s:2057   .text:0000000000000ee4 .L0 
     /tmp/ccZv3MCA.s:2058   .text:0000000000000ee4 .L0 
     /tmp/ccZv3MCA.s:2059   .text:0000000000000ee4 .L0 
GAS LISTING /tmp/ccZv3MCA.s 			page 84


     /tmp/ccZv3MCA.s:2066   .text:0000000000000ef0 .L0 
     /tmp/ccZv3MCA.s:2075   .text:0000000000000f04 .L0 
     /tmp/ccZv3MCA.s:2081   .text:0000000000000f10 .L0 
     /tmp/ccZv3MCA.s:2082   .text:0000000000000f10 .L0 
     /tmp/ccZv3MCA.s:2086   .text:0000000000000f20 .L0 
     /tmp/ccZv3MCA.s:2087   .text:0000000000000f20 .L0 
     /tmp/ccZv3MCA.s:2095   .text:0000000000000f28 .L0 
     /tmp/ccZv3MCA.s:2096   .text:0000000000000f28 .L0 
     /tmp/ccZv3MCA.s:2101   .text:0000000000000f38 .L0 
     /tmp/ccZv3MCA.s:2102   .text:0000000000000f38 .L0 
     /tmp/ccZv3MCA.s:2106   .text:0000000000000f48 .L0 
     /tmp/ccZv3MCA.s:2107   .text:0000000000000f48 .L0 
     /tmp/ccZv3MCA.s:2111   .text:0000000000000f58 .L0 
     /tmp/ccZv3MCA.s:2112   .text:0000000000000f58 .L0 
     /tmp/ccZv3MCA.s:2116   .text:0000000000000f64 .L0 
     /tmp/ccZv3MCA.s:2117   .text:0000000000000f64 .L0 
     /tmp/ccZv3MCA.s:2121   .text:0000000000000f74 .L0 
     /tmp/ccZv3MCA.s:2122   .text:0000000000000f74 .L0 
     /tmp/ccZv3MCA.s:2127   .text:0000000000000f7c .L0 
     /tmp/ccZv3MCA.s:2128   .text:0000000000000f7c .L0 
     /tmp/ccZv3MCA.s:2129   .text:0000000000000f7c .L0 
     /tmp/ccZv3MCA.s:2136   .text:0000000000000f88 .L0 
     /tmp/ccZv3MCA.s:2145   .text:0000000000000f9c .L0 
     /tmp/ccZv3MCA.s:2151   .text:0000000000000fa8 .L0 
     /tmp/ccZv3MCA.s:2152   .text:0000000000000fa8 .L0 
     /tmp/ccZv3MCA.s:2156   .text:0000000000000fb8 .L0 
     /tmp/ccZv3MCA.s:2157   .text:0000000000000fb8 .L0 
     /tmp/ccZv3MCA.s:2165   .text:0000000000000fc0 .L0 
     /tmp/ccZv3MCA.s:2166   .text:0000000000000fc0 .L0 
     /tmp/ccZv3MCA.s:2170   .text:0000000000000fd0 .L0 
     /tmp/ccZv3MCA.s:2171   .text:0000000000000fd0 .L0 
     /tmp/ccZv3MCA.s:2174   .text:0000000000000fd8 .L0 
     /tmp/ccZv3MCA.s:2175   .text:0000000000000fdc .L0 
     /tmp/ccZv3MCA.s:2177   .text:0000000000000fe0 .L0 
     /tmp/ccZv3MCA.s:2178   .text:0000000000000fe0 .L0 
     /tmp/ccZv3MCA.s:2180   .text:0000000000000fe4 .L0 
     /tmp/ccZv3MCA.s:2183   .text:0000000000000fe8 .L0 
     /tmp/ccZv3MCA.s:2185   .text:0000000000000fec .L0 
     /tmp/ccZv3MCA.s:2187   .text:0000000000000ff0 .L0 
     /tmp/ccZv3MCA.s:2190   .text:0000000000000ff4 .L0 
     /tmp/ccZv3MCA.s:2193   .text:0000000000000ff8 .L0 
     /tmp/ccZv3MCA.s:2195   .text:0000000000000ffc .L0 
     /tmp/ccZv3MCA.s:2197   .text:0000000000001000 .L0 
     /tmp/ccZv3MCA.s:2199   .text:0000000000001004 .L0 
     /tmp/ccZv3MCA.s:2213   .text:0000000000001004 _Z19testMemoryAllocatorv
     /tmp/ccZv3MCA.s:2216   .text:0000000000001004 .L0 
     /tmp/ccZv3MCA.s:2217   .text:0000000000001004 .L0 
     /tmp/ccZv3MCA.s:2218   .text:0000000000001008 .L0 
     /tmp/ccZv3MCA.s:2224   .text:000000000000101c .L0 
     /tmp/ccZv3MCA.s:2225   .text:000000000000101c .L0 
     /tmp/ccZv3MCA.s:2226   .text:000000000000101c .L0 
     /tmp/ccZv3MCA.s:2227   .text:000000000000101c .L0 
     /tmp/ccZv3MCA.s:2228   .text:000000000000101c .L0 
     /tmp/ccZv3MCA.s:2230   .text:0000000000001020 .L0 
     /tmp/ccZv3MCA.s:2232   .text:0000000000001020 .L0 
     /tmp/ccZv3MCA.s:2233   .text:0000000000001020 .L0 
     /tmp/ccZv3MCA.s:2237   .text:0000000000001030 .L0 
GAS LISTING /tmp/ccZv3MCA.s 			page 85


     /tmp/ccZv3MCA.s:2238   .text:0000000000001030 .L0 
     /tmp/ccZv3MCA.s:2241   .text:0000000000001038 .L0 
     /tmp/ccZv3MCA.s:2242   .text:0000000000001038 .L0 
     /tmp/ccZv3MCA.s:2243   .text:0000000000001038 .L0 
     /tmp/ccZv3MCA.s:2244   .text:0000000000001038 .L0 
     /tmp/ccZv3MCA.s:2252   .text:000000000000104c .L0 
     /tmp/ccZv3MCA.s:2253   .text:000000000000104c .L0 
     /tmp/ccZv3MCA.s:2257   .text:0000000000001050 .L0 
     /tmp/ccZv3MCA.s:2260   .text:0000000000001058 .L0 
     /tmp/ccZv3MCA.s:2261   .text:0000000000001058 .L0 
     /tmp/ccZv3MCA.s:2264   .text:0000000000001060 .L0 
     /tmp/ccZv3MCA.s:2268   .text:000000000000106c .L0 
     /tmp/ccZv3MCA.s:2270   .text:0000000000001070 .L0 
     /tmp/ccZv3MCA.s:2271   .text:0000000000001070 .L0 
     /tmp/ccZv3MCA.s:2273   .text:0000000000001074 .L0 
     /tmp/ccZv3MCA.s:2281   .text:000000000000107c .L0 
     /tmp/ccZv3MCA.s:2284   .text:0000000000001080 .L0 
     /tmp/ccZv3MCA.s:2289   .text:0000000000001084 .L0 
     /tmp/ccZv3MCA.s:2292   .text:000000000000108c .L0 
     /tmp/ccZv3MCA.s:2293   .text:000000000000108c .L0 
     /tmp/ccZv3MCA.s:2297   .text:0000000000001098 .L0 
     /tmp/ccZv3MCA.s:2299   .text:000000000000109c .L0 
     /tmp/ccZv3MCA.s:2302   .text:00000000000010a0 .L0 
     /tmp/ccZv3MCA.s:2309   .text:00000000000010a8 .L0 
     /tmp/ccZv3MCA.s:2316   .text:00000000000010b0 .L0 
     /tmp/ccZv3MCA.s:2321   .text:00000000000010b4 .L0 
     /tmp/ccZv3MCA.s:2325   .text:00000000000010b8 .L0 
     /tmp/ccZv3MCA.s:2328   .text:00000000000010c0 .L0 
     /tmp/ccZv3MCA.s:2329   .text:00000000000010c0 .L0 
     /tmp/ccZv3MCA.s:2332   .text:00000000000010c8 .L0 
     /tmp/ccZv3MCA.s:2338   .text:00000000000010d4 .L0 
     /tmp/ccZv3MCA.s:2339   .text:00000000000010d4 .L0 
     /tmp/ccZv3MCA.s:2344   .text:00000000000010d8 .L0 
     /tmp/ccZv3MCA.s:2345   .text:00000000000010d8 .L0 
     /tmp/ccZv3MCA.s:2354   .text:00000000000010e0 .L0 
     /tmp/ccZv3MCA.s:2355   .text:00000000000010e0 .L0 
     /tmp/ccZv3MCA.s:2359   .text:00000000000010f0 .L0 
     /tmp/ccZv3MCA.s:2360   .text:00000000000010f0 .L0 
     /tmp/ccZv3MCA.s:2364   .text:0000000000001100 .L0 
     /tmp/ccZv3MCA.s:2365   .text:0000000000001100 .L0 
     /tmp/ccZv3MCA.s:2369   .text:0000000000001110 .L0 
     /tmp/ccZv3MCA.s:2370   .text:0000000000001110 .L0 
     /tmp/ccZv3MCA.s:2374   .text:000000000000111c .L0 
     /tmp/ccZv3MCA.s:2375   .text:000000000000111c .L0 
     /tmp/ccZv3MCA.s:2379   .text:000000000000112c .L0 
     /tmp/ccZv3MCA.s:2380   .text:000000000000112c .L0 
     /tmp/ccZv3MCA.s:2385   .text:0000000000001134 .L0 
     /tmp/ccZv3MCA.s:2386   .text:0000000000001134 .L0 
     /tmp/ccZv3MCA.s:2387   .text:0000000000001134 .L0 
     /tmp/ccZv3MCA.s:2394   .text:0000000000001140 .L0 
     /tmp/ccZv3MCA.s:2403   .text:0000000000001154 .L0 
     /tmp/ccZv3MCA.s:2409   .text:0000000000001160 .L0 
     /tmp/ccZv3MCA.s:2410   .text:0000000000001160 .L0 
     /tmp/ccZv3MCA.s:2414   .text:0000000000001170 .L0 
     /tmp/ccZv3MCA.s:2415   .text:0000000000001170 .L0 
     /tmp/ccZv3MCA.s:2424   .text:0000000000001178 .L0 
     /tmp/ccZv3MCA.s:2425   .text:0000000000001178 .L0 
GAS LISTING /tmp/ccZv3MCA.s 			page 86


     /tmp/ccZv3MCA.s:2430   .text:0000000000001188 .L0 
     /tmp/ccZv3MCA.s:2431   .text:0000000000001188 .L0 
     /tmp/ccZv3MCA.s:2435   .text:0000000000001198 .L0 
     /tmp/ccZv3MCA.s:2436   .text:0000000000001198 .L0 
     /tmp/ccZv3MCA.s:2440   .text:00000000000011a8 .L0 
     /tmp/ccZv3MCA.s:2441   .text:00000000000011a8 .L0 
     /tmp/ccZv3MCA.s:2445   .text:00000000000011b4 .L0 
     /tmp/ccZv3MCA.s:2446   .text:00000000000011b4 .L0 
     /tmp/ccZv3MCA.s:2450   .text:00000000000011c4 .L0 
     /tmp/ccZv3MCA.s:2451   .text:00000000000011c4 .L0 
     /tmp/ccZv3MCA.s:2456   .text:00000000000011cc .L0 
     /tmp/ccZv3MCA.s:2457   .text:00000000000011cc .L0 
     /tmp/ccZv3MCA.s:2458   .text:00000000000011cc .L0 
     /tmp/ccZv3MCA.s:2465   .text:00000000000011d8 .L0 
     /tmp/ccZv3MCA.s:2474   .text:00000000000011ec .L0 
     /tmp/ccZv3MCA.s:2480   .text:00000000000011f8 .L0 
     /tmp/ccZv3MCA.s:2481   .text:00000000000011f8 .L0 
     /tmp/ccZv3MCA.s:2485   .text:0000000000001208 .L0 
     /tmp/ccZv3MCA.s:2486   .text:0000000000001208 .L0 
     /tmp/ccZv3MCA.s:2493   .text:0000000000001210 .L0 
     /tmp/ccZv3MCA.s:2494   .text:0000000000001210 .L0 
     /tmp/ccZv3MCA.s:2500   .text:000000000000121c .L0 
     /tmp/ccZv3MCA.s:2501   .text:000000000000121c .L0 
     /tmp/ccZv3MCA.s:2506   .text:0000000000001220 .L0 
     /tmp/ccZv3MCA.s:2507   .text:0000000000001220 .L0 
     /tmp/ccZv3MCA.s:2508   .text:0000000000001220 .L0 
     /tmp/ccZv3MCA.s:2513   .text:0000000000001230 .L0 
     /tmp/ccZv3MCA.s:2514   .text:0000000000001230 .L0 
     /tmp/ccZv3MCA.s:2517   .text:0000000000001238 .L0 
     /tmp/ccZv3MCA.s:2518   .text:000000000000123c .L0 
     /tmp/ccZv3MCA.s:2519   .text:000000000000123c .L0 
     /tmp/ccZv3MCA.s:2521   .text:0000000000001240 .L0 
     /tmp/ccZv3MCA.s:2522   .text:0000000000001240 .L0 
     /tmp/ccZv3MCA.s:2524   .text:0000000000001244 .L0 
     /tmp/ccZv3MCA.s:2527   .text:0000000000001248 .L0 
     /tmp/ccZv3MCA.s:2529   .text:000000000000124c .L0 
     /tmp/ccZv3MCA.s:2532   .text:0000000000001250 .L0 
     /tmp/ccZv3MCA.s:2536   .text:0000000000001254 .L0 
     /tmp/ccZv3MCA.s:2540   .text:0000000000001254 .L0 
     /tmp/ccZv3MCA.s:2541   .text:0000000000001254 .L0 
     /tmp/ccZv3MCA.s:2546   .text:0000000000001264 .L0 
     /tmp/ccZv3MCA.s:2547   .text:0000000000001264 .L0 
     /tmp/ccZv3MCA.s:2551   .text:0000000000001274 .L0 
     /tmp/ccZv3MCA.s:2552   .text:0000000000001274 .L0 
     /tmp/ccZv3MCA.s:2556   .text:0000000000001284 .L0 
     /tmp/ccZv3MCA.s:2557   .text:0000000000001284 .L0 
     /tmp/ccZv3MCA.s:2561   .text:0000000000001290 .L0 
     /tmp/ccZv3MCA.s:2562   .text:0000000000001290 .L0 
     /tmp/ccZv3MCA.s:2566   .text:00000000000012a0 .L0 
     /tmp/ccZv3MCA.s:2567   .text:00000000000012a0 .L0 
     /tmp/ccZv3MCA.s:2572   .text:00000000000012a8 .L0 
     /tmp/ccZv3MCA.s:2573   .text:00000000000012a8 .L0 
     /tmp/ccZv3MCA.s:2574   .text:00000000000012a8 .L0 
     /tmp/ccZv3MCA.s:2581   .text:00000000000012b4 .L0 
     /tmp/ccZv3MCA.s:2590   .text:00000000000012c8 .L0 
     /tmp/ccZv3MCA.s:2596   .text:00000000000012d4 .L0 
     /tmp/ccZv3MCA.s:2597   .text:00000000000012d4 .L0 
GAS LISTING /tmp/ccZv3MCA.s 			page 87


     /tmp/ccZv3MCA.s:2601   .text:00000000000012e4 .L0 
     /tmp/ccZv3MCA.s:2602   .text:00000000000012e4 .L0 
     /tmp/ccZv3MCA.s:2606   .text:00000000000012ec .L0 
     /tmp/ccZv3MCA.s:2620   .text:00000000000012ec _Z10myUserMainv
     /tmp/ccZv3MCA.s:2623   .text:00000000000012ec .L0 
     /tmp/ccZv3MCA.s:2624   .text:00000000000012ec .L0 
     /tmp/ccZv3MCA.s:2625   .text:00000000000012f0 .L0 
     /tmp/ccZv3MCA.s:2628   .text:00000000000012f8 .L0 
     /tmp/ccZv3MCA.s:2629   .text:00000000000012f8 .L0 
     /tmp/ccZv3MCA.s:2631   .text:00000000000012fc .L0 
     /tmp/ccZv3MCA.s:2633   .text:00000000000012fc .L0 
         src/APP.cpp:19     .text:00000000000012fc .L0 
     /tmp/ccZv3MCA.s:2639   .text:0000000000001300 .L0 
     /tmp/ccZv3MCA.s:2641   .text:0000000000001300 .L0 
     /tmp/ccZv3MCA.s:2645   .text:0000000000001310 .L0 
     /tmp/ccZv3MCA.s:2646   .text:0000000000001310 .L0 
     /tmp/ccZv3MCA.s:2649   .text:0000000000001318 .L0 
     /tmp/ccZv3MCA.s:2650   .text:0000000000001318 .L0 
     /tmp/ccZv3MCA.s:2653   .text:0000000000001320 .L0 
     /tmp/ccZv3MCA.s:2654   .text:0000000000001320 .L0 
     /tmp/ccZv3MCA.s:2657   .text:0000000000001328 .L0 
     /tmp/ccZv3MCA.s:2658   .text:0000000000001328 .L0 
     /tmp/ccZv3MCA.s:2661   .text:0000000000001330 .L0 
     /tmp/ccZv3MCA.s:2662   .text:0000000000001330 .L0 
     /tmp/ccZv3MCA.s:2666   .text:0000000000001340 .L0 
     /tmp/ccZv3MCA.s:2667   .text:0000000000001340 .L0 
     /tmp/ccZv3MCA.s:2670   .text:0000000000001348 .L0 
     /tmp/ccZv3MCA.s:2671   .text:000000000000134c .L0 
     /tmp/ccZv3MCA.s:2673   .text:0000000000001350 .L0 
     /tmp/ccZv3MCA.s:2674   .text:0000000000001350 .L0 
     /tmp/ccZv3MCA.s:2676   .text:0000000000001354 .L0 
     /tmp/ccZv3MCA.s:2678   .text:0000000000001358 .L0 
     /tmp/ccZv3MCA.s:2706   .bss:0000000000000004 sliceSecondCounter
     /tmp/ccZv3MCA.s:2702   .bss:0000000000000000 sliceFirstCounter
     /tmp/ccZv3MCA.s:2699   .bss:0000000000000000 .LANCHOR0
     /tmp/ccZv3MCA.s:2712   .text:0000000000001358 .L0 
     /tmp/ccZv3MCA.s:8      .rodata.str1.8:0000000000000000 .LC0
     /tmp/ccZv3MCA.s:32     .text:0000000000000010 .L0 
     /tmp/ccZv3MCA.s:52     .text:000000000000003c .L0 
     /tmp/ccZv3MCA.s:59     .text:0000000000000054 .L0 
     /tmp/ccZv3MCA.s:11     .rodata.str1.8:0000000000000020 .LC1
     /tmp/ccZv3MCA.s:75     .text:0000000000000080 .L0 
     /tmp/ccZv3MCA.s:96     .rodata.str1.8:0000000000000040 .LC2
     /tmp/ccZv3MCA.s:133    .text:00000000000000bc .L0 
     /tmp/ccZv3MCA.s:154    .text:00000000000000e8 .L0 
     /tmp/ccZv3MCA.s:162    .text:0000000000000100 .L0 
     /tmp/ccZv3MCA.s:178    .text:000000000000012c .L0 
     /tmp/ccZv3MCA.s:111    .rodata.str1.8:00000000000000c8 .LC7
     /tmp/ccZv3MCA.s:204    .text:0000000000000154 .L0 
     /tmp/ccZv3MCA.s:99     .rodata.str1.8:0000000000000060 .LC3
     /tmp/ccZv3MCA.s:237    .text:0000000000000188 .L0 
     /tmp/ccZv3MCA.s:102    .rodata.str1.8:0000000000000088 .LC4
     /tmp/ccZv3MCA.s:242    .text:0000000000000198 .L0 
     /tmp/ccZv3MCA.s:105    .rodata.str1.8:0000000000000098 .LC5
     /tmp/ccZv3MCA.s:247    .text:00000000000001a8 .L0 
     /tmp/ccZv3MCA.s:108    .rodata.str1.8:00000000000000a8 .LC6
     /tmp/ccZv3MCA.s:257    .text:00000000000001c4 .L0 
GAS LISTING /tmp/ccZv3MCA.s 			page 88


     /tmp/ccZv3MCA.s:270    .text:00000000000001dc .L0 
     /tmp/ccZv3MCA.s:277    .text:00000000000001e8 .L0 
     /tmp/ccZv3MCA.s:287    .text:0000000000000200 .L0 
     /tmp/ccZv3MCA.s:293    .text:0000000000000208 .L0 
     /tmp/ccZv3MCA.s:315    .text:0000000000000220 .L0 
     /tmp/ccZv3MCA.s:334    .text:0000000000000238 .L0 
     /tmp/ccZv3MCA.s:341    .text:000000000000024c .L0 
     /tmp/ccZv3MCA.s:357    .text:0000000000000264 .L0 
     /tmp/ccZv3MCA.s:365    .text:0000000000000278 .L0 
     /tmp/ccZv3MCA.s:388    .text:0000000000000298 .L0 
     /tmp/ccZv3MCA.s:394    .text:00000000000002a8 .L0 
     /tmp/ccZv3MCA.s:399    .text:00000000000002b8 .L0 
     /tmp/ccZv3MCA.s:409    .text:00000000000002d4 .L0 
     /tmp/ccZv3MCA.s:421    .text:00000000000002ec .L0 
     /tmp/ccZv3MCA.s:428    .text:00000000000002f8 .L0 
     /tmp/ccZv3MCA.s:438    .text:0000000000000310 .L0 
     /tmp/ccZv3MCA.s:444    .text:0000000000000318 .L0 
     /tmp/ccZv3MCA.s:478    .text:0000000000000344 .L0 
     /tmp/ccZv3MCA.s:492    .text:0000000000000358 .L0 
     /tmp/ccZv3MCA.s:498    .text:0000000000000368 .L0 
     /tmp/ccZv3MCA.s:503    .text:0000000000000378 .L0 
     /tmp/ccZv3MCA.s:513    .text:0000000000000394 .L0 
     /tmp/ccZv3MCA.s:525    .text:00000000000003ac .L0 
     /tmp/ccZv3MCA.s:532    .text:00000000000003b8 .L0 
     /tmp/ccZv3MCA.s:542    .text:00000000000003d0 .L0 
     /tmp/ccZv3MCA.s:548    .text:00000000000003d8 .L0 
     /tmp/ccZv3MCA.s:562    .text:00000000000003f0 .L0 
     /tmp/ccZv3MCA.s:568    .text:0000000000000400 .L0 
     /tmp/ccZv3MCA.s:573    .text:0000000000000410 .L0 
     /tmp/ccZv3MCA.s:583    .text:000000000000042c .L0 
     /tmp/ccZv3MCA.s:595    .text:0000000000000444 .L0 
     /tmp/ccZv3MCA.s:602    .text:0000000000000450 .L0 
     /tmp/ccZv3MCA.s:612    .text:0000000000000468 .L0 
     /tmp/ccZv3MCA.s:618    .text:0000000000000470 .L0 
     /tmp/ccZv3MCA.s:661    .text:00000000000004a0 .L0 
     /tmp/ccZv3MCA.s:674    .text:00000000000004b4 .L0 
     /tmp/ccZv3MCA.s:694    .text:00000000000004d8 .L0 
     /tmp/ccZv3MCA.s:702    .text:00000000000004e8 .L0 
     /tmp/ccZv3MCA.s:726    .text:0000000000000504 .L0 
     /tmp/ccZv3MCA.s:732    .text:0000000000000514 .L0 
     /tmp/ccZv3MCA.s:737    .text:0000000000000524 .L0 
     /tmp/ccZv3MCA.s:747    .text:0000000000000540 .L0 
     /tmp/ccZv3MCA.s:759    .text:0000000000000558 .L0 
     /tmp/ccZv3MCA.s:766    .text:0000000000000564 .L0 
     /tmp/ccZv3MCA.s:776    .text:000000000000057c .L0 
     /tmp/ccZv3MCA.s:782    .text:0000000000000584 .L0 
     /tmp/ccZv3MCA.s:796    .rodata.str1.8:00000000000000f0 .LC8
     /tmp/ccZv3MCA.s:819    .text:00000000000005ac .L0 
     /tmp/ccZv3MCA.s:841    .text:00000000000005d8 .L0 
     /tmp/ccZv3MCA.s:848    .text:00000000000005f0 .L0 
     /tmp/ccZv3MCA.s:799    .rodata.str1.8:0000000000000110 .LC9
     /tmp/ccZv3MCA.s:868    .text:0000000000000624 .L0 
     /tmp/ccZv3MCA.s:994    .text:00000000000006ec .L0 
     /tmp/ccZv3MCA.s:1012   .text:0000000000000708 .L0 
     /tmp/ccZv3MCA.s:1029   .text:000000000000072c .L0 
     /tmp/ccZv3MCA.s:1061   .text:0000000000000754 .L0 
     /tmp/ccZv3MCA.s:1067   .text:0000000000000764 .L0 
GAS LISTING /tmp/ccZv3MCA.s 			page 89


     /tmp/ccZv3MCA.s:1072   .text:0000000000000774 .L0 
     /tmp/ccZv3MCA.s:1082   .text:0000000000000790 .L0 
     /tmp/ccZv3MCA.s:1094   .text:00000000000007a8 .L0 
     /tmp/ccZv3MCA.s:1101   .text:00000000000007b4 .L0 
     /tmp/ccZv3MCA.s:1111   .text:00000000000007cc .L0 
     /tmp/ccZv3MCA.s:1117   .text:00000000000007d4 .L0 
     /tmp/ccZv3MCA.s:1131   .text:00000000000007ec .L0 
     /tmp/ccZv3MCA.s:1137   .text:00000000000007fc .L0 
     /tmp/ccZv3MCA.s:1142   .text:000000000000080c .L0 
     /tmp/ccZv3MCA.s:1152   .text:0000000000000828 .L0 
     /tmp/ccZv3MCA.s:1164   .text:0000000000000840 .L0 
     /tmp/ccZv3MCA.s:1171   .text:000000000000084c .L0 
     /tmp/ccZv3MCA.s:1181   .text:0000000000000864 .L0 
     /tmp/ccZv3MCA.s:1187   .text:000000000000086c .L0 
     /tmp/ccZv3MCA.s:1201   .text:0000000000000884 .L0 
     /tmp/ccZv3MCA.s:1206   .text:0000000000000894 .L0 
     /tmp/ccZv3MCA.s:1211   .text:00000000000008a4 .L0 
     /tmp/ccZv3MCA.s:1221   .text:00000000000008c0 .L0 
     /tmp/ccZv3MCA.s:1233   .text:00000000000008d8 .L0 
     /tmp/ccZv3MCA.s:1240   .text:00000000000008e4 .L0 
     /tmp/ccZv3MCA.s:1250   .text:00000000000008fc .L0 
     /tmp/ccZv3MCA.s:1256   .text:0000000000000904 .L0 
     /tmp/ccZv3MCA.s:1355   .text:0000000000000998 .L0 
     /tmp/ccZv3MCA.s:1361   .text:00000000000009a8 .L0 
     /tmp/ccZv3MCA.s:1366   .text:00000000000009b8 .L0 
     /tmp/ccZv3MCA.s:1376   .text:00000000000009d4 .L0 
     /tmp/ccZv3MCA.s:1388   .text:00000000000009ec .L0 
     /tmp/ccZv3MCA.s:1395   .text:00000000000009f8 .L0 
     /tmp/ccZv3MCA.s:1405   .text:0000000000000a10 .L0 
     /tmp/ccZv3MCA.s:1411   .text:0000000000000a18 .L0 
     /tmp/ccZv3MCA.s:1426   .text:0000000000000a30 .L0 
     /tmp/ccZv3MCA.s:1432   .text:0000000000000a40 .L0 
     /tmp/ccZv3MCA.s:1437   .text:0000000000000a50 .L0 
     /tmp/ccZv3MCA.s:1447   .text:0000000000000a6c .L0 
     /tmp/ccZv3MCA.s:1459   .text:0000000000000a84 .L0 
     /tmp/ccZv3MCA.s:1466   .text:0000000000000a90 .L0 
     /tmp/ccZv3MCA.s:1476   .text:0000000000000aa8 .L0 
     /tmp/ccZv3MCA.s:1482   .text:0000000000000ab0 .L0 
     /tmp/ccZv3MCA.s:1510   .text:0000000000000ad4 .L0 
     /tmp/ccZv3MCA.s:1515   .text:0000000000000ae4 .L0 
     /tmp/ccZv3MCA.s:1520   .text:0000000000000af4 .L0 
     /tmp/ccZv3MCA.s:1530   .text:0000000000000b10 .L0 
     /tmp/ccZv3MCA.s:1542   .text:0000000000000b28 .L0 
     /tmp/ccZv3MCA.s:1549   .text:0000000000000b34 .L0 
     /tmp/ccZv3MCA.s:1559   .text:0000000000000b4c .L0 
     /tmp/ccZv3MCA.s:1565   .text:0000000000000b54 .L0 
     /tmp/ccZv3MCA.s:1646   .text:0000000000000bcc .L0 
     /tmp/ccZv3MCA.s:1652   .text:0000000000000bdc .L0 
     /tmp/ccZv3MCA.s:1657   .text:0000000000000bec .L0 
     /tmp/ccZv3MCA.s:1667   .text:0000000000000c08 .L0 
     /tmp/ccZv3MCA.s:1679   .text:0000000000000c20 .L0 
     /tmp/ccZv3MCA.s:1686   .text:0000000000000c2c .L0 
     /tmp/ccZv3MCA.s:1696   .text:0000000000000c44 .L0 
     /tmp/ccZv3MCA.s:1702   .text:0000000000000c4c .L0 
     /tmp/ccZv3MCA.s:1717   .text:0000000000000c64 .L0 
     /tmp/ccZv3MCA.s:1723   .text:0000000000000c74 .L0 
     /tmp/ccZv3MCA.s:1728   .text:0000000000000c84 .L0 
GAS LISTING /tmp/ccZv3MCA.s 			page 90


     /tmp/ccZv3MCA.s:1738   .text:0000000000000ca0 .L0 
     /tmp/ccZv3MCA.s:1750   .text:0000000000000cb8 .L0 
     /tmp/ccZv3MCA.s:1757   .text:0000000000000cc4 .L0 
     /tmp/ccZv3MCA.s:1767   .text:0000000000000cdc .L0 
     /tmp/ccZv3MCA.s:1773   .text:0000000000000ce4 .L0 
     /tmp/ccZv3MCA.s:1794   .text:0000000000000d04 .L0 
     /tmp/ccZv3MCA.s:1799   .text:0000000000000d14 .L0 
     /tmp/ccZv3MCA.s:1804   .text:0000000000000d24 .L0 
     /tmp/ccZv3MCA.s:1814   .text:0000000000000d40 .L0 
     /tmp/ccZv3MCA.s:1826   .text:0000000000000d58 .L0 
     /tmp/ccZv3MCA.s:1833   .text:0000000000000d64 .L0 
     /tmp/ccZv3MCA.s:1843   .text:0000000000000d7c .L0 
     /tmp/ccZv3MCA.s:1849   .text:0000000000000d84 .L0 
     /tmp/ccZv3MCA.s:1863   .rodata.str1.8:0000000000000138 .LC10
     /tmp/ccZv3MCA.s:1909   .text:0000000000000dc8 .L0 
     /tmp/ccZv3MCA.s:1866   .rodata.str1.8:0000000000000158 .LC11
     /tmp/ccZv3MCA.s:1988   .text:0000000000000e34 .L0 
     /tmp/ccZv3MCA.s:1869   .rodata.str1.8:0000000000000170 .LC12
     /tmp/ccZv3MCA.s:1999   .text:0000000000000e50 .L0 
     /tmp/ccZv3MCA.s:1872   .rodata.str1.8:0000000000000180 .LC13
     /tmp/ccZv3MCA.s:2009   .text:0000000000000e6c .L0 
     /tmp/ccZv3MCA.s:2027   .text:0000000000000e90 .L0 
     /tmp/ccZv3MCA.s:2032   .text:0000000000000ea0 .L0 
     /tmp/ccZv3MCA.s:2037   .text:0000000000000eb0 .L0 
     /tmp/ccZv3MCA.s:2047   .text:0000000000000ecc .L0 
     /tmp/ccZv3MCA.s:2059   .text:0000000000000ee4 .L0 
     /tmp/ccZv3MCA.s:2066   .text:0000000000000ef0 .L0 
     /tmp/ccZv3MCA.s:2076   .text:0000000000000f08 .L0 
     /tmp/ccZv3MCA.s:2082   .text:0000000000000f10 .L0 
     /tmp/ccZv3MCA.s:2096   .text:0000000000000f28 .L0 
     /tmp/ccZv3MCA.s:2102   .text:0000000000000f38 .L0 
     /tmp/ccZv3MCA.s:2107   .text:0000000000000f48 .L0 
     /tmp/ccZv3MCA.s:2117   .text:0000000000000f64 .L0 
     /tmp/ccZv3MCA.s:2129   .text:0000000000000f7c .L0 
     /tmp/ccZv3MCA.s:2136   .text:0000000000000f88 .L0 
     /tmp/ccZv3MCA.s:2146   .text:0000000000000fa0 .L0 
     /tmp/ccZv3MCA.s:2152   .text:0000000000000fa8 .L0 
     /tmp/ccZv3MCA.s:1875   .rodata.str1.8:0000000000000190 .LC14
     /tmp/ccZv3MCA.s:2166   .text:0000000000000fc0 .L0 
     /tmp/ccZv3MCA.s:2204   .rodata.str1.8:00000000000001b8 .LC15
     /tmp/ccZv3MCA.s:2233   .text:0000000000001020 .L0 
     /tmp/ccZv3MCA.s:2355   .text:00000000000010e0 .L0 
     /tmp/ccZv3MCA.s:2360   .text:00000000000010f0 .L0 
     /tmp/ccZv3MCA.s:2365   .text:0000000000001100 .L0 
     /tmp/ccZv3MCA.s:2375   .text:000000000000111c .L0 
     /tmp/ccZv3MCA.s:2387   .text:0000000000001134 .L0 
     /tmp/ccZv3MCA.s:2394   .text:0000000000001140 .L0 
     /tmp/ccZv3MCA.s:2404   .text:0000000000001158 .L0 
     /tmp/ccZv3MCA.s:2410   .text:0000000000001160 .L0 
     /tmp/ccZv3MCA.s:2425   .text:0000000000001178 .L0 
     /tmp/ccZv3MCA.s:2431   .text:0000000000001188 .L0 
     /tmp/ccZv3MCA.s:2436   .text:0000000000001198 .L0 
     /tmp/ccZv3MCA.s:2446   .text:00000000000011b4 .L0 
     /tmp/ccZv3MCA.s:2458   .text:00000000000011cc .L0 
     /tmp/ccZv3MCA.s:2465   .text:00000000000011d8 .L0 
     /tmp/ccZv3MCA.s:2475   .text:00000000000011f0 .L0 
     /tmp/ccZv3MCA.s:2481   .text:00000000000011f8 .L0 
GAS LISTING /tmp/ccZv3MCA.s 			page 91


     /tmp/ccZv3MCA.s:2207   .rodata.str1.8:00000000000001e0 .LC16
     /tmp/ccZv3MCA.s:2508   .text:0000000000001220 .L0 
     /tmp/ccZv3MCA.s:2541   .text:0000000000001254 .L0 
     /tmp/ccZv3MCA.s:2547   .text:0000000000001264 .L0 
     /tmp/ccZv3MCA.s:2552   .text:0000000000001274 .L0 
     /tmp/ccZv3MCA.s:2562   .text:0000000000001290 .L0 
     /tmp/ccZv3MCA.s:2574   .text:00000000000012a8 .L0 
     /tmp/ccZv3MCA.s:2581   .text:00000000000012b4 .L0 
     /tmp/ccZv3MCA.s:2591   .text:00000000000012cc .L0 
     /tmp/ccZv3MCA.s:2597   .text:00000000000012d4 .L0 
     /tmp/ccZv3MCA.s:2611   .rodata.str1.8:0000000000000208 .LC17
     /tmp/ccZv3MCA.s:2641   .text:0000000000001300 .L0 
     /tmp/ccZv3MCA.s:2614   .rodata.str1.8:0000000000000218 .LC18
     /tmp/ccZv3MCA.s:2662   .text:0000000000001330 .L0 
     /tmp/ccZv3MCA.s:224    .text:0000000000000180 .L8
     /tmp/ccZv3MCA.s:232    .text:0000000000000188 .L9
     /tmp/ccZv3MCA.s:187    .text:0000000000000144 .L4
     /tmp/ccZv3MCA.s:288    .text:0000000000000208 .L6
     /tmp/ccZv3MCA.s:349    .text:000000000000025c .L13
     /tmp/ccZv3MCA.s:362    .text:0000000000000278 .L11
     /tmp/ccZv3MCA.s:324    .text:0000000000000234 .L19
     /tmp/ccZv3MCA.s:345    .text:0000000000000258 .L12
     /tmp/ccZv3MCA.s:372    .text:0000000000000288 .L20
     /tmp/ccZv3MCA.s:439    .text:0000000000000318 .L15
     /tmp/ccZv3MCA.s:638    .text:0000000000000490 .L28
     /tmp/ccZv3MCA.s:543    .text:00000000000003d8 .L24
     /tmp/ccZv3MCA.s:613    .text:0000000000000470 .L27
     /tmp/ccZv3MCA.s:699    .text:00000000000004e8 .L22
     /tmp/ccZv3MCA.s:487    .text:0000000000000358 .L32
     /tmp/ccZv3MCA.s:625    .text:0000000000000488 .L25
     /tmp/ccZv3MCA.s:555    .text:00000000000003f0 .L33
     /tmp/ccZv3MCA.s:720    .text:0000000000000504 .L34
     /tmp/ccZv3MCA.s:777    .text:0000000000000584 .L30
     /tmp/ccZv3MCA.s:914    .text:0000000000000674 .L38
     /tmp/ccZv3MCA.s:931    .text:0000000000000690 .L40
     /tmp/ccZv3MCA.s:1263   .text:000000000000091c .L41
     /tmp/ccZv3MCA.s:1055   .text:0000000000000754 .L51
     /tmp/ccZv3MCA.s:1124   .text:00000000000007ec .L52
     /tmp/ccZv3MCA.s:1194   .text:0000000000000884 .L53
     /tmp/ccZv3MCA.s:978    .text:00000000000006d4 .L49
     /tmp/ccZv3MCA.s:1112   .text:00000000000007d4 .L44
     /tmp/ccZv3MCA.s:1182   .text:000000000000086c .L46
     /tmp/ccZv3MCA.s:1251   .text:0000000000000904 .L48
     /tmp/ccZv3MCA.s:1349   .text:0000000000000998 .L63
     /tmp/ccZv3MCA.s:1489   .text:0000000000000ac8 .L57
     /tmp/ccZv3MCA.s:1418   .text:0000000000000a30 .L64
     /tmp/ccZv3MCA.s:1320   .text:0000000000000960 .L55
     /tmp/ccZv3MCA.s:1406   .text:0000000000000a18 .L56
     /tmp/ccZv3MCA.s:1477   .text:0000000000000ab0 .L59
     /tmp/ccZv3MCA.s:1560   .text:0000000000000b54 .L60
     /tmp/ccZv3MCA.s:1640   .text:0000000000000bcc .L74
     /tmp/ccZv3MCA.s:1780   .text:0000000000000cfc .L68
     /tmp/ccZv3MCA.s:1709   .text:0000000000000c64 .L75
     /tmp/ccZv3MCA.s:1611   .text:0000000000000b94 .L66
     /tmp/ccZv3MCA.s:1697   .text:0000000000000c4c .L67
     /tmp/ccZv3MCA.s:1768   .text:0000000000000ce4 .L70
     /tmp/ccZv3MCA.s:1844   .text:0000000000000d84 .L71
GAS LISTING /tmp/ccZv3MCA.s 			page 92


     /tmp/ccZv3MCA.s:2159   .text:0000000000000fc0 .L77
     /tmp/ccZv3MCA.s:1984   .text:0000000000000e34 .L84
     /tmp/ccZv3MCA.s:2089   .text:0000000000000f28 .L85
     /tmp/ccZv3MCA.s:1928   .text:0000000000000dec .L82
     /tmp/ccZv3MCA.s:2077   .text:0000000000000f10 .L79
     /tmp/ccZv3MCA.s:2147   .text:0000000000000fa8 .L81
     /tmp/ccZv3MCA.s:2277   .text:000000000000107c .L97
     /tmp/ccZv3MCA.s:2255   .text:0000000000001050 .L88
     /tmp/ccZv3MCA.s:2306   .text:00000000000010a8 .L89
     /tmp/ccZv3MCA.s:2285   .text:0000000000001084 .L87
     /tmp/ccZv3MCA.s:2349   .text:00000000000010e0 .L100
     /tmp/ccZv3MCA.s:2488   .text:0000000000001210 .L92
     /tmp/ccZv3MCA.s:2417   .text:0000000000001178 .L101
     /tmp/ccZv3MCA.s:2323   .text:00000000000010b8 .L90
     /tmp/ccZv3MCA.s:2405   .text:0000000000001160 .L91
     /tmp/ccZv3MCA.s:2476   .text:00000000000011f8 .L94
     /tmp/ccZv3MCA.s:2535   .text:0000000000001254 .L102
     /tmp/ccZv3MCA.s:2592   .text:00000000000012d4 .L96
     /tmp/ccZv3MCA.s:6398   .debug_abbrev:0000000000000000 .Ldebug_abbrev0
     /tmp/ccZv3MCA.s:9226   .debug_str:0000000000000549 .LASF104
     /tmp/ccZv3MCA.s:9176   .debug_str:00000000000003fa .LASF105
     /tmp/ccZv3MCA.s:9188   .debug_str:0000000000000444 .LASF106
     /tmp/ccZv3MCA.s:5      .text:0000000000000000 .Ltext0
     /tmp/ccZv3MCA.s:2709   .text:0000000000001358 .Letext0
     /tmp/ccZv3MCA.s:9026   .debug_line:0000000000000000 .Ldebug_line0
     /tmp/ccZv3MCA.s:9152   .debug_str:0000000000000355 .LASF0
     /tmp/ccZv3MCA.s:9170   .debug_str:00000000000003c3 .LASF1
     /tmp/ccZv3MCA.s:9140   .debug_str:0000000000000309 .LASF2
     /tmp/ccZv3MCA.s:9114   .debug_str:000000000000025e .LASF4
     /tmp/ccZv3MCA.s:9210   .debug_str:00000000000004cb .LASF3
     /tmp/ccZv3MCA.s:9050   .debug_str:0000000000000072 .LASF5
     /tmp/ccZv3MCA.s:9174   .debug_str:00000000000003e7 .LASF6
     /tmp/ccZv3MCA.s:9150   .debug_str:0000000000000342 .LASF7
     /tmp/ccZv3MCA.s:9234   .debug_str:000000000000063d .LASF8
     /tmp/ccZv3MCA.s:9102   .debug_str:000000000000020e .LASF9
     /tmp/ccZv3MCA.s:9186   .debug_str:0000000000000435 .LASF10
     /tmp/ccZv3MCA.s:9228   .debug_str:000000000000060d .LASF11
     /tmp/ccZv3MCA.s:9054   .debug_str:000000000000009e .LASF12
     /tmp/ccZv3MCA.s:9036   .debug_str:000000000000001c .LASF13
     /tmp/ccZv3MCA.s:9064   .debug_str:00000000000000e5 .LASF14
     /tmp/ccZv3MCA.s:9204   .debug_str:000000000000049f .LASF15
     /tmp/ccZv3MCA.s:9080   .debug_str:0000000000000170 .LASF16
     /tmp/ccZv3MCA.s:9056   .debug_str:00000000000000ae .LASF51
     /tmp/ccZv3MCA.s:9202   .debug_str:000000000000048c .LASF107
     /tmp/ccZv3MCA.s:9068   .debug_str:0000000000000110 .LASF25
     /tmp/ccZv3MCA.s:9066   .debug_str:00000000000000f1 .LASF27
     /tmp/ccZv3MCA.s:9136   .debug_str:00000000000002e6 .LASF17
     /tmp/ccZv3MCA.s:9082   .debug_str:0000000000000186 .LASF18
     /tmp/ccZv3MCA.s:9238   .debug_str:000000000000065a .LASF19
     /tmp/ccZv3MCA.s:9104   .debug_str:000000000000021c .LASF20
     /tmp/ccZv3MCA.s:9164   .debug_str:0000000000000392 .LASF21
     /tmp/ccZv3MCA.s:9078   .debug_str:0000000000000161 .LASF22
     /tmp/ccZv3MCA.s:9040   .debug_str:0000000000000031 .LASF23
     /tmp/ccZv3MCA.s:9218   .debug_str:0000000000000510 .LASF24
     /tmp/ccZv3MCA.s:9146   .debug_str:0000000000000330 .LASF26
     /tmp/ccZv3MCA.s:9246   .debug_str:000000000000068f .LASF28
     /tmp/ccZv3MCA.s:9038   .debug_str:000000000000002c .LASF39
GAS LISTING /tmp/ccZv3MCA.s 			page 93


     /tmp/ccZv3MCA.s:9042   .debug_str:000000000000003f .LASF43
     /tmp/ccZv3MCA.s:9240   .debug_str:0000000000000664 .LASF29
     /tmp/ccZv3MCA.s:9072   .debug_str:000000000000012f .LASF30
     /tmp/ccZv3MCA.s:9094   .debug_str:00000000000001d6 .LASF31
     /tmp/ccZv3MCA.s:9052   .debug_str:0000000000000079 .LASF32
     /tmp/ccZv3MCA.s:9122   .debug_str:0000000000000291 .LASF64
     /tmp/ccZv3MCA.s:9178   .debug_str:0000000000000406 .LASF33
     /tmp/ccZv3MCA.s:9028   .debug_str:0000000000000000 .LASF34
     /tmp/ccZv3MCA.s:9096   .debug_str:00000000000001eb .LASF35
     /tmp/ccZv3MCA.s:9048   .debug_str:000000000000006b .LASF36
     /tmp/ccZv3MCA.s:9118   .debug_str:000000000000026e .LASF37
     /tmp/ccZv3MCA.s:9230   .debug_str:000000000000061c .LASF38
     /tmp/ccZv3MCA.s:9092   .debug_str:00000000000001c2 .LASF40
     /tmp/ccZv3MCA.s:9214   .debug_str:00000000000004e7 .LASF108
     /tmp/ccZv3MCA.s:2214   .text:0000000000001004 .LFB25
     /tmp/ccZv3MCA.s:2607   .text:00000000000012ec .LFE25
     /tmp/ccZv3MCA.s:7362   .debug_loc:0000000000000000 .LLST77
     /tmp/ccZv3MCA.s:9032   .debug_str:0000000000000010 .LASF41
     /tmp/ccZv3MCA.s:7377   .debug_loc:0000000000000049 .LLST78
     /tmp/ccZv3MCA.s:7392   .debug_loc:0000000000000092 .LLST79
     /tmp/ccZv3MCA.s:2251   .text:000000000000104c .LBB304
     /tmp/ccZv3MCA.s:2278   .text:000000000000107c .LBE304
     /tmp/ccZv3MCA.s:7411   .debug_loc:00000000000000ee .LLST80
     /tmp/ccZv3MCA.s:2266   .text:000000000000106c .LVL302
     /tmp/ccZv3MCA.s:8884   .debug_ranges:0000000000000000 .Ldebug_ranges0
     /tmp/ccZv3MCA.s:7441   .debug_loc:0000000000000164 .LLST81
     /tmp/ccZv3MCA.s:7452   .debug_loc:000000000000019a .LLST86
     /tmp/ccZv3MCA.s:2336   .text:00000000000010d4 .LBB316
     /tmp/ccZv3MCA.s:7467   .debug_loc:00000000000001e3 .LLST87
     /tmp/ccZv3MCA.s:7482   .debug_loc:000000000000021f .LLST88
     /tmp/ccZv3MCA.s:7497   .debug_loc:0000000000000267 .LLST89
     /tmp/ccZv3MCA.s:2454   .text:00000000000011cc .LBB318
     /tmp/ccZv3MCA.s:2479   .text:00000000000011f8 .LBE318
     /tmp/ccZv3MCA.s:2461   .text:00000000000011d8 .LBB320
     /tmp/ccZv3MCA.s:2472   .text:00000000000011ec .LBE320
     /tmp/ccZv3MCA.s:7516   .debug_loc:00000000000002a5 .LLST90
     /tmp/ccZv3MCA.s:2428   .text:0000000000001188 .LVL327
     /tmp/ccZv3MCA.s:2433   .text:0000000000001198 .LVL328
     /tmp/ccZv3MCA.s:2438   .text:00000000000011a8 .LVL329
     /tmp/ccZv3MCA.s:2443   .text:00000000000011b4 .LVL330
     /tmp/ccZv3MCA.s:2448   .text:00000000000011c4 .LVL331
     /tmp/ccZv3MCA.s:2452   .text:00000000000011cc .LVL332
     /tmp/ccZv3MCA.s:2483   .text:0000000000001208 .LVL335
     /tmp/ccZv3MCA.s:2487   .text:0000000000001210 .LVL336
     /tmp/ccZv3MCA.s:2334   .text:00000000000010d4 .LVL312
     /tmp/ccZv3MCA.s:2313   .text:00000000000010b0 .LBB307
     /tmp/ccZv3MCA.s:7525   .debug_loc:00000000000002d1 .LLST82
     /tmp/ccZv3MCA.s:7540   .debug_loc:000000000000030d .LLST83
     /tmp/ccZv3MCA.s:7555   .debug_loc:0000000000000355 .LLST84
     /tmp/ccZv3MCA.s:2383   .text:0000000000001134 .LBB309
     /tmp/ccZv3MCA.s:2408   .text:0000000000001160 .LBE309
     /tmp/ccZv3MCA.s:2390   .text:0000000000001140 .LBB311
     /tmp/ccZv3MCA.s:2401   .text:0000000000001154 .LBE311
     /tmp/ccZv3MCA.s:7580   .debug_loc:0000000000000399 .LLST85
     /tmp/ccZv3MCA.s:2357   .text:00000000000010f0 .LVL316
     /tmp/ccZv3MCA.s:2362   .text:0000000000001100 .LVL317
     /tmp/ccZv3MCA.s:2367   .text:0000000000001110 .LVL318
GAS LISTING /tmp/ccZv3MCA.s 			page 94


     /tmp/ccZv3MCA.s:2372   .text:000000000000111c .LVL319
     /tmp/ccZv3MCA.s:2377   .text:000000000000112c .LVL320
     /tmp/ccZv3MCA.s:2381   .text:0000000000001134 .LVL321
     /tmp/ccZv3MCA.s:2412   .text:0000000000001170 .LVL324
     /tmp/ccZv3MCA.s:2416   .text:0000000000001178 .LVL325
     /tmp/ccZv3MCA.s:2498   .text:000000000000121c .LBB327
     /tmp/ccZv3MCA.s:7589   .debug_loc:00000000000003c5 .LLST91
     /tmp/ccZv3MCA.s:7604   .debug_loc:0000000000000401 .LLST92
     /tmp/ccZv3MCA.s:7619   .debug_loc:0000000000000449 .LLST93
     /tmp/ccZv3MCA.s:2570   .text:00000000000012a8 .LBB329
     /tmp/ccZv3MCA.s:2595   .text:00000000000012d4 .LBE329
     /tmp/ccZv3MCA.s:2577   .text:00000000000012b4 .LBB331
     /tmp/ccZv3MCA.s:2588   .text:00000000000012c8 .LBE331
     /tmp/ccZv3MCA.s:7638   .debug_loc:0000000000000487 .LLST94
     /tmp/ccZv3MCA.s:2544   .text:0000000000001264 .LVL346
     /tmp/ccZv3MCA.s:2549   .text:0000000000001274 .LVL347
     /tmp/ccZv3MCA.s:2554   .text:0000000000001284 .LVL348
     /tmp/ccZv3MCA.s:2559   .text:0000000000001290 .LVL349
     /tmp/ccZv3MCA.s:2564   .text:00000000000012a0 .LVL350
     /tmp/ccZv3MCA.s:2568   .text:00000000000012a8 .LVL351
     /tmp/ccZv3MCA.s:2599   .text:00000000000012e4 .LVL354
     /tmp/ccZv3MCA.s:2603   .text:00000000000012ec .LVL355
     /tmp/ccZv3MCA.s:2235   .text:0000000000001030 .LVL297
     /tmp/ccZv3MCA.s:2239   .text:0000000000001038 .LVL298
     /tmp/ccZv3MCA.s:2247   .text:0000000000001048 .LVL299
     /tmp/ccZv3MCA.s:2496   .text:000000000000121c .LVL337
     /tmp/ccZv3MCA.s:2511   .text:0000000000001230 .LVL340
     /tmp/ccZv3MCA.s:2515   .text:0000000000001238 .LVL341
     /tmp/ccZv3MCA.s:9106   .debug_str:000000000000022b .LASF42
     /tmp/ccZv3MCA.s:9138   .debug_str:00000000000002f4 .LASF44
     /tmp/ccZv3MCA.s:1882   .text:0000000000000d9c .LFB24
     /tmp/ccZv3MCA.s:2200   .text:0000000000001004 .LFE24
     /tmp/ccZv3MCA.s:7647   .debug_loc:00000000000004b3 .LLST64
     /tmp/ccZv3MCA.s:7675   .debug_loc:0000000000000527 .LLST65
     /tmp/ccZv3MCA.s:7703   .debug_loc:000000000000059b .LLST66
     /tmp/ccZv3MCA.s:9030   .debug_str:0000000000000009 .LASF45
     /tmp/ccZv3MCA.s:7719   .debug_loc:00000000000005e5 .LLST67
     /tmp/ccZv3MCA.s:9086   .debug_str:00000000000001a2 .LASF46
     /tmp/ccZv3MCA.s:7730   .debug_loc:000000000000061b .LLST68
     /tmp/ccZv3MCA.s:1961   .text:0000000000000e20 .LBB261
     /tmp/ccZv3MCA.s:7749   .debug_loc:0000000000000677 .LLST69
     /tmp/ccZv3MCA.s:7764   .debug_loc:00000000000006b1 .LLST70
     /tmp/ccZv3MCA.s:7779   .debug_loc:00000000000006f9 .LLST71
     /tmp/ccZv3MCA.s:2125   .text:0000000000000f7c .LBB263
     /tmp/ccZv3MCA.s:2150   .text:0000000000000fa8 .LBE263
     /tmp/ccZv3MCA.s:2132   .text:0000000000000f88 .LBB265
     /tmp/ccZv3MCA.s:2143   .text:0000000000000f9c .LBE265
     /tmp/ccZv3MCA.s:7804   .debug_loc:000000000000073d .LLST72
     /tmp/ccZv3MCA.s:2099   .text:0000000000000f38 .LVL282
     /tmp/ccZv3MCA.s:2104   .text:0000000000000f48 .LVL283
     /tmp/ccZv3MCA.s:2109   .text:0000000000000f58 .LVL284
     /tmp/ccZv3MCA.s:2114   .text:0000000000000f64 .LVL285
     /tmp/ccZv3MCA.s:2119   .text:0000000000000f74 .LVL286
     /tmp/ccZv3MCA.s:2123   .text:0000000000000f7c .LVL287
     /tmp/ccZv3MCA.s:2154   .text:0000000000000fb8 .LVL290
     /tmp/ccZv3MCA.s:2158   .text:0000000000000fc0 .LVL291
     /tmp/ccZv3MCA.s:2022   .text:0000000000000e90 .LBB269
GAS LISTING /tmp/ccZv3MCA.s 			page 95


     /tmp/ccZv3MCA.s:2091   .text:0000000000000f28 .LBE269
     /tmp/ccZv3MCA.s:7813   .debug_loc:0000000000000769 .LLST73
     /tmp/ccZv3MCA.s:7822   .debug_loc:000000000000078e .LLST74
     /tmp/ccZv3MCA.s:7831   .debug_loc:00000000000007ba .LLST75
     /tmp/ccZv3MCA.s:2055   .text:0000000000000ee4 .LBB271
     /tmp/ccZv3MCA.s:2080   .text:0000000000000f10 .LBE271
     /tmp/ccZv3MCA.s:2062   .text:0000000000000ef0 .LBB273
     /tmp/ccZv3MCA.s:2073   .text:0000000000000f04 .LBE273
     /tmp/ccZv3MCA.s:7839   .debug_loc:00000000000007de .LLST76
     /tmp/ccZv3MCA.s:2029   .text:0000000000000ea0 .LVL271
     /tmp/ccZv3MCA.s:2034   .text:0000000000000eb0 .LVL272
     /tmp/ccZv3MCA.s:2039   .text:0000000000000ec0 .LVL273
     /tmp/ccZv3MCA.s:2044   .text:0000000000000ecc .LVL274
     /tmp/ccZv3MCA.s:2049   .text:0000000000000edc .LVL275
     /tmp/ccZv3MCA.s:2053   .text:0000000000000ee4 .LVL276
     /tmp/ccZv3MCA.s:2084   .text:0000000000000f20 .LVL279
     /tmp/ccZv3MCA.s:2088   .text:0000000000000f28 .LVL280
     /tmp/ccZv3MCA.s:1946   .text:0000000000000e08 .LVL252
     /tmp/ccZv3MCA.s:1954   .text:0000000000000e18 .LVL255
     /tmp/ccZv3MCA.s:1991   .text:0000000000000e44 .LVL264
     /tmp/ccZv3MCA.s:1996   .text:0000000000000e50 .LVL265
     /tmp/ccZv3MCA.s:2001   .text:0000000000000e60 .LVL266
     /tmp/ccZv3MCA.s:2006   .text:0000000000000e6c .LVL267
     /tmp/ccZv3MCA.s:2011   .text:0000000000000e7c .LVL268
     /tmp/ccZv3MCA.s:2016   .text:0000000000000e88 .LVL269
     /tmp/ccZv3MCA.s:2020   .text:0000000000000e90 .LVL270
     /tmp/ccZv3MCA.s:1911   .text:0000000000000dd8 .LVL247
     /tmp/ccZv3MCA.s:1915   .text:0000000000000de0 .LVL248
     /tmp/ccZv3MCA.s:2168   .text:0000000000000fd0 .LVL292
     /tmp/ccZv3MCA.s:2172   .text:0000000000000fd8 .LVL293
     /tmp/ccZv3MCA.s:9196   .debug_str:0000000000000476 .LASF109
     /tmp/ccZv3MCA.s:891    .text:000000000000064c .LFB23
     /tmp/ccZv3MCA.s:948    .text:00000000000006b4 .LFE23
     /tmp/ccZv3MCA.s:7848   .debug_loc:000000000000080a .LLST24
     /tmp/ccZv3MCA.s:937    .text:000000000000069c .LVL110
     /tmp/ccZv3MCA.s:942    .text:00000000000006ac .LVL111
     /tmp/ccZv3MCA.s:9100   .debug_str:0000000000000205 .LASF47
     /tmp/ccZv3MCA.s:1581   .text:0000000000000b6c .LFB22
     /tmp/ccZv3MCA.s:1859   .text:0000000000000d9c .LFE22
     /tmp/ccZv3MCA.s:7873   .debug_loc:000000000000086c .LLST53
     /tmp/ccZv3MCA.s:7898   .debug_loc:00000000000008ce .LLST58
     /tmp/ccZv3MCA.s:1623   .text:0000000000000bb8 .LBB225
     /tmp/ccZv3MCA.s:7909   .debug_loc:0000000000000904 .LLST59
     /tmp/ccZv3MCA.s:7924   .debug_loc:000000000000093e .LLST60
     /tmp/ccZv3MCA.s:7939   .debug_loc:0000000000000986 .LLST61
     /tmp/ccZv3MCA.s:1746   .text:0000000000000cb8 .LBB227
     /tmp/ccZv3MCA.s:1771   .text:0000000000000ce4 .LBE227
     /tmp/ccZv3MCA.s:1753   .text:0000000000000cc4 .LBB229
     /tmp/ccZv3MCA.s:1764   .text:0000000000000cd8 .LBE229
     /tmp/ccZv3MCA.s:7964   .debug_loc:00000000000009ca .LLST62
     /tmp/ccZv3MCA.s:1720   .text:0000000000000c74 .LVL226
     /tmp/ccZv3MCA.s:1725   .text:0000000000000c84 .LVL227
     /tmp/ccZv3MCA.s:1730   .text:0000000000000c94 .LVL228
     /tmp/ccZv3MCA.s:1735   .text:0000000000000ca0 .LVL229
     /tmp/ccZv3MCA.s:1740   .text:0000000000000cb0 .LVL230
     /tmp/ccZv3MCA.s:1744   .text:0000000000000cb8 .LVL231
     /tmp/ccZv3MCA.s:1775   .text:0000000000000cf4 .LVL234
GAS LISTING /tmp/ccZv3MCA.s 			page 96


     /tmp/ccZv3MCA.s:1779   .text:0000000000000cfc .LVL235
     /tmp/ccZv3MCA.s:1618   .text:0000000000000ba8 .LVL208
     /tmp/ccZv3MCA.s:1622   .text:0000000000000bb8 .LVL209
     /tmp/ccZv3MCA.s:1634   .text:0000000000000bc4 .LVL211
     /tmp/ccZv3MCA.s:1601   .text:0000000000000b8c .LBB216
     /tmp/ccZv3MCA.s:7973   .debug_loc:00000000000009f6 .LLST54
     /tmp/ccZv3MCA.s:7988   .debug_loc:0000000000000a30 .LLST55
     /tmp/ccZv3MCA.s:8003   .debug_loc:0000000000000a78 .LLST56
     /tmp/ccZv3MCA.s:1675   .text:0000000000000c20 .LBB218
     /tmp/ccZv3MCA.s:1700   .text:0000000000000c4c .LBE218
     /tmp/ccZv3MCA.s:1682   .text:0000000000000c2c .LBB220
     /tmp/ccZv3MCA.s:1693   .text:0000000000000c40 .LBE220
     /tmp/ccZv3MCA.s:8022   .debug_loc:0000000000000ab6 .LLST57
     /tmp/ccZv3MCA.s:1649   .text:0000000000000bdc .LVL215
     /tmp/ccZv3MCA.s:1654   .text:0000000000000bec .LVL216
     /tmp/ccZv3MCA.s:1659   .text:0000000000000bfc .LVL217
     /tmp/ccZv3MCA.s:1664   .text:0000000000000c08 .LVL218
     /tmp/ccZv3MCA.s:1669   .text:0000000000000c18 .LVL219
     /tmp/ccZv3MCA.s:1673   .text:0000000000000c20 .LVL220
     /tmp/ccZv3MCA.s:1704   .text:0000000000000c5c .LVL223
     /tmp/ccZv3MCA.s:1708   .text:0000000000000c64 .LVL224
     /tmp/ccZv3MCA.s:1789   .text:0000000000000d04 .LBB236
     /tmp/ccZv3MCA.s:1857   .text:0000000000000d9c .LBE236
     /tmp/ccZv3MCA.s:1822   .text:0000000000000d58 .LBB238
     /tmp/ccZv3MCA.s:1847   .text:0000000000000d84 .LBE238
     /tmp/ccZv3MCA.s:1829   .text:0000000000000d64 .LBB240
     /tmp/ccZv3MCA.s:1840   .text:0000000000000d78 .LBE240
     /tmp/ccZv3MCA.s:8031   .debug_loc:0000000000000ae2 .LLST63
     /tmp/ccZv3MCA.s:1796   .text:0000000000000d14 .LVL237
     /tmp/ccZv3MCA.s:1801   .text:0000000000000d24 .LVL238
     /tmp/ccZv3MCA.s:1806   .text:0000000000000d34 .LVL239
     /tmp/ccZv3MCA.s:1811   .text:0000000000000d40 .LVL240
     /tmp/ccZv3MCA.s:1816   .text:0000000000000d50 .LVL241
     /tmp/ccZv3MCA.s:1820   .text:0000000000000d58 .LVL242
     /tmp/ccZv3MCA.s:1851   .text:0000000000000d94 .LVL245
     /tmp/ccZv3MCA.s:1855   .text:0000000000000d9c .LVL246
     /tmp/ccZv3MCA.s:1787   .text:0000000000000d04 .LVL236
     /tmp/ccZv3MCA.s:9090   .debug_str:00000000000001b9 .LASF48
     /tmp/ccZv3MCA.s:1290   .text:0000000000000938 .LFB21
     /tmp/ccZv3MCA.s:1575   .text:0000000000000b6c .LFE21
     /tmp/ccZv3MCA.s:8040   .debug_loc:0000000000000b0e .LLST42
     /tmp/ccZv3MCA.s:8065   .debug_loc:0000000000000b70 .LLST47
     /tmp/ccZv3MCA.s:1332   .text:0000000000000984 .LBB176
     /tmp/ccZv3MCA.s:8076   .debug_loc:0000000000000ba6 .LLST48
     /tmp/ccZv3MCA.s:8091   .debug_loc:0000000000000be0 .LLST49
     /tmp/ccZv3MCA.s:8106   .debug_loc:0000000000000c28 .LLST50
     /tmp/ccZv3MCA.s:1455   .text:0000000000000a84 .LBB178
     /tmp/ccZv3MCA.s:1480   .text:0000000000000ab0 .LBE178
     /tmp/ccZv3MCA.s:1462   .text:0000000000000a90 .LBB180
     /tmp/ccZv3MCA.s:1473   .text:0000000000000aa4 .LBE180
     /tmp/ccZv3MCA.s:8131   .debug_loc:0000000000000c6c .LLST51
     /tmp/ccZv3MCA.s:1429   .text:0000000000000a40 .LVL184
     /tmp/ccZv3MCA.s:1434   .text:0000000000000a50 .LVL185
     /tmp/ccZv3MCA.s:1439   .text:0000000000000a60 .LVL186
     /tmp/ccZv3MCA.s:1444   .text:0000000000000a6c .LVL187
     /tmp/ccZv3MCA.s:1449   .text:0000000000000a7c .LVL188
     /tmp/ccZv3MCA.s:1453   .text:0000000000000a84 .LVL189
GAS LISTING /tmp/ccZv3MCA.s 			page 97


     /tmp/ccZv3MCA.s:1484   .text:0000000000000ac0 .LVL192
     /tmp/ccZv3MCA.s:1488   .text:0000000000000ac8 .LVL193
     /tmp/ccZv3MCA.s:1327   .text:0000000000000974 .LVL166
     /tmp/ccZv3MCA.s:1331   .text:0000000000000984 .LVL167
     /tmp/ccZv3MCA.s:1343   .text:0000000000000990 .LVL169
     /tmp/ccZv3MCA.s:1310   .text:0000000000000958 .LBB167
     /tmp/ccZv3MCA.s:8140   .debug_loc:0000000000000c98 .LLST43
     /tmp/ccZv3MCA.s:8155   .debug_loc:0000000000000cd2 .LLST44
     /tmp/ccZv3MCA.s:8170   .debug_loc:0000000000000d1a .LLST45
     /tmp/ccZv3MCA.s:1384   .text:00000000000009ec .LBB169
     /tmp/ccZv3MCA.s:1409   .text:0000000000000a18 .LBE169
     /tmp/ccZv3MCA.s:1391   .text:00000000000009f8 .LBB171
     /tmp/ccZv3MCA.s:1402   .text:0000000000000a0c .LBE171
     /tmp/ccZv3MCA.s:8189   .debug_loc:0000000000000d58 .LLST46
     /tmp/ccZv3MCA.s:1358   .text:00000000000009a8 .LVL173
     /tmp/ccZv3MCA.s:1363   .text:00000000000009b8 .LVL174
     /tmp/ccZv3MCA.s:1368   .text:00000000000009c8 .LVL175
     /tmp/ccZv3MCA.s:1373   .text:00000000000009d4 .LVL176
     /tmp/ccZv3MCA.s:1378   .text:00000000000009e4 .LVL177
     /tmp/ccZv3MCA.s:1382   .text:00000000000009ec .LVL178
     /tmp/ccZv3MCA.s:1413   .text:0000000000000a28 .LVL181
     /tmp/ccZv3MCA.s:1417   .text:0000000000000a30 .LVL182
     /tmp/ccZv3MCA.s:1505   .text:0000000000000ad4 .LBB187
     /tmp/ccZv3MCA.s:1573   .text:0000000000000b6c .LBE187
     /tmp/ccZv3MCA.s:1538   .text:0000000000000b28 .LBB189
     /tmp/ccZv3MCA.s:1563   .text:0000000000000b54 .LBE189
     /tmp/ccZv3MCA.s:1545   .text:0000000000000b34 .LBB191
     /tmp/ccZv3MCA.s:1556   .text:0000000000000b48 .LBE191
     /tmp/ccZv3MCA.s:8198   .debug_loc:0000000000000d84 .LLST52
     /tmp/ccZv3MCA.s:1512   .text:0000000000000ae4 .LVL195
     /tmp/ccZv3MCA.s:1517   .text:0000000000000af4 .LVL196
     /tmp/ccZv3MCA.s:1522   .text:0000000000000b04 .LVL197
     /tmp/ccZv3MCA.s:1527   .text:0000000000000b10 .LVL198
     /tmp/ccZv3MCA.s:1532   .text:0000000000000b20 .LVL199
     /tmp/ccZv3MCA.s:1536   .text:0000000000000b28 .LVL200
     /tmp/ccZv3MCA.s:1567   .text:0000000000000b64 .LVL203
     /tmp/ccZv3MCA.s:1571   .text:0000000000000b6c .LVL204
     /tmp/ccZv3MCA.s:1503   .text:0000000000000ad4 .LVL194
     /tmp/ccZv3MCA.s:9236   .debug_str:000000000000064d .LASF49
     /tmp/ccZv3MCA.s:9108   .debug_str:000000000000023b .LASF50
     /tmp/ccZv3MCA.s:806    .text:000000000000059c .LFB20
     /tmp/ccZv3MCA.s:885    .text:000000000000064c .LFE20
     /tmp/ccZv3MCA.s:9034   .debug_str:0000000000000017 .LASF52
     /tmp/ccZv3MCA.s:9112   .debug_str:0000000000000259 .LASF53
     /tmp/ccZv3MCA.s:821    .text:00000000000005bc .LVL98
     /tmp/ccZv3MCA.s:825    .text:00000000000005c4 .LVL99
     /tmp/ccZv3MCA.s:844    .text:00000000000005ec .LVL100
     /tmp/ccZv3MCA.s:851    .text:0000000000000604 .LVL101
     /tmp/ccZv3MCA.s:855    .text:000000000000060c .LVL102
     /tmp/ccZv3MCA.s:860    .text:0000000000000618 .LVL103
     /tmp/ccZv3MCA.s:865    .text:0000000000000624 .LVL104
     /tmp/ccZv3MCA.s:870    .text:0000000000000634 .LVL105
     /tmp/ccZv3MCA.s:874    .text:000000000000063c .LVL106
     /tmp/ccZv3MCA.s:9254   .debug_str:00000000000006d8 .LASF54
     /tmp/ccZv3MCA.s:9220   .debug_str:000000000000051e .LASF55
     /tmp/ccZv3MCA.s:460    .text:0000000000000330 .LFB19
     /tmp/ccZv3MCA.s:792    .text:000000000000059c .LFE19
GAS LISTING /tmp/ccZv3MCA.s 			page 98


     /tmp/ccZv3MCA.s:8207   .debug_loc:0000000000000db0 .LLST10
     /tmp/ccZv3MCA.s:9154   .debug_str:0000000000000362 .LASF56
     /tmp/ccZv3MCA.s:8243   .debug_loc:0000000000000e3b .LLST11
     /tmp/ccZv3MCA.s:9198   .debug_str:000000000000047e .LASF57
     /tmp/ccZv3MCA.s:8258   .debug_loc:0000000000000e84 .LLST12
     /tmp/ccZv3MCA.s:482    .text:0000000000000350 .LBB66
     /tmp/ccZv3MCA.s:700    .text:00000000000004e8 .LBE66
     /tmp/ccZv3MCA.s:8278   .debug_loc:0000000000000ee1 .LLST13
     /tmp/ccZv3MCA.s:488    .text:0000000000000358 .LBB67
     /tmp/ccZv3MCA.s:8298   .debug_loc:0000000000000f3e .LLST14
     /tmp/ccZv3MCA.s:8313   .debug_loc:0000000000000f78 .LLST15
     /tmp/ccZv3MCA.s:8328   .debug_loc:0000000000000fc0 .LLST16
     /tmp/ccZv3MCA.s:521    .text:00000000000003ac .LBB69
     /tmp/ccZv3MCA.s:546    .text:00000000000003d8 .LBE69
     /tmp/ccZv3MCA.s:528    .text:00000000000003b8 .LBB71
     /tmp/ccZv3MCA.s:539    .text:00000000000003cc .LBE71
     /tmp/ccZv3MCA.s:8353   .debug_loc:0000000000001004 .LLST17
     /tmp/ccZv3MCA.s:495    .text:0000000000000368 .LVL57
     /tmp/ccZv3MCA.s:500    .text:0000000000000378 .LVL58
     /tmp/ccZv3MCA.s:505    .text:0000000000000388 .LVL59
     /tmp/ccZv3MCA.s:510    .text:0000000000000394 .LVL60
     /tmp/ccZv3MCA.s:515    .text:00000000000003a4 .LVL61
     /tmp/ccZv3MCA.s:519    .text:00000000000003ac .LVL62
     /tmp/ccZv3MCA.s:550    .text:00000000000003e8 .LVL65
     /tmp/ccZv3MCA.s:554    .text:00000000000003f0 .LVL66
     /tmp/ccZv3MCA.s:558    .text:00000000000003f0 .LBB75
     /tmp/ccZv3MCA.s:8362   .debug_loc:0000000000001030 .LLST18
     /tmp/ccZv3MCA.s:8377   .debug_loc:000000000000106a .LLST19
     /tmp/ccZv3MCA.s:8392   .debug_loc:00000000000010b2 .LLST20
     /tmp/ccZv3MCA.s:591    .text:0000000000000444 .LBB77
     /tmp/ccZv3MCA.s:616    .text:0000000000000470 .LBE77
     /tmp/ccZv3MCA.s:598    .text:0000000000000450 .LBB79
     /tmp/ccZv3MCA.s:609    .text:0000000000000464 .LBE79
     /tmp/ccZv3MCA.s:8433   .debug_loc:0000000000001114 .LLST21
     /tmp/ccZv3MCA.s:565    .text:0000000000000400 .LVL68
     /tmp/ccZv3MCA.s:570    .text:0000000000000410 .LVL69
     /tmp/ccZv3MCA.s:575    .text:0000000000000420 .LVL70
     /tmp/ccZv3MCA.s:580    .text:000000000000042c .LVL71
     /tmp/ccZv3MCA.s:585    .text:000000000000043c .LVL72
     /tmp/ccZv3MCA.s:589    .text:0000000000000444 .LVL73
     /tmp/ccZv3MCA.s:620    .text:0000000000000480 .LVL76
     /tmp/ccZv3MCA.s:624    .text:0000000000000488 .LVL77
     /tmp/ccZv3MCA.s:704    .text:00000000000004f0 .LBB85
     /tmp/ccZv3MCA.s:8442   .debug_loc:0000000000001140 .LLST22
     /tmp/ccZv3MCA.s:755    .text:0000000000000558 .LBB87
     /tmp/ccZv3MCA.s:780    .text:0000000000000584 .LBE87
     /tmp/ccZv3MCA.s:762    .text:0000000000000564 .LBB89
     /tmp/ccZv3MCA.s:773    .text:0000000000000578 .LBE89
     /tmp/ccZv3MCA.s:8453   .debug_loc:0000000000001167 .LLST23
     /tmp/ccZv3MCA.s:729    .text:0000000000000514 .LVL88
     /tmp/ccZv3MCA.s:734    .text:0000000000000524 .LVL89
     /tmp/ccZv3MCA.s:739    .text:0000000000000534 .LVL90
     /tmp/ccZv3MCA.s:744    .text:0000000000000540 .LVL91
     /tmp/ccZv3MCA.s:749    .text:0000000000000550 .LVL92
     /tmp/ccZv3MCA.s:753    .text:0000000000000558 .LVL93
     /tmp/ccZv3MCA.s:784    .text:0000000000000594 .LVL96
     /tmp/ccZv3MCA.s:788    .text:000000000000059c .LVL97
GAS LISTING /tmp/ccZv3MCA.s 			page 99


     /tmp/ccZv3MCA.s:9148   .debug_str:0000000000000335 .LASF58
     /tmp/ccZv3MCA.s:9142   .debug_str:0000000000000317 .LASF59
     /tmp/ccZv3MCA.s:309    .text:0000000000000220 .LFB18
     /tmp/ccZv3MCA.s:454    .text:0000000000000330 .LFE18
     /tmp/ccZv3MCA.s:8462   .debug_loc:0000000000001193 .LLST5
     /tmp/ccZv3MCA.s:8476   .debug_loc:00000000000011cc .LLST6
     /tmp/ccZv3MCA.s:319    .text:000000000000022c .LBB34
     /tmp/ccZv3MCA.s:363    .text:0000000000000278 .LBE34
     /tmp/ccZv3MCA.s:8492   .debug_loc:0000000000001216 .LLST7
     /tmp/ccZv3MCA.s:367    .text:0000000000000280 .LBB35
     /tmp/ccZv3MCA.s:8504   .debug_loc:000000000000124d .LLST8
     /tmp/ccZv3MCA.s:417    .text:00000000000002ec .LBB37
     /tmp/ccZv3MCA.s:442    .text:0000000000000318 .LBE37
     /tmp/ccZv3MCA.s:424    .text:00000000000002f8 .LBB39
     /tmp/ccZv3MCA.s:435    .text:000000000000030c .LBE39
     /tmp/ccZv3MCA.s:8515   .debug_loc:0000000000001274 .LLST9
     /tmp/ccZv3MCA.s:391    .text:00000000000002a8 .LVL42
     /tmp/ccZv3MCA.s:396    .text:00000000000002b8 .LVL43
     /tmp/ccZv3MCA.s:401    .text:00000000000002c8 .LVL44
     /tmp/ccZv3MCA.s:406    .text:00000000000002d4 .LVL45
     /tmp/ccZv3MCA.s:411    .text:00000000000002e4 .LVL46
     /tmp/ccZv3MCA.s:415    .text:00000000000002ec .LVL47
     /tmp/ccZv3MCA.s:446    .text:0000000000000328 .LVL50
     /tmp/ccZv3MCA.s:450    .text:0000000000000330 .LVL51
     /tmp/ccZv3MCA.s:9232   .debug_str:000000000000062f .LASF60
     /tmp/ccZv3MCA.s:9132   .debug_str:00000000000002cb .LASF61
     /tmp/ccZv3MCA.s:118    .text:00000000000000a8 .LFB17
     /tmp/ccZv3MCA.s:303    .text:0000000000000220 .LFE17
     /tmp/ccZv3MCA.s:9192   .debug_str:000000000000045d .LASF62
     /tmp/ccZv3MCA.s:9160   .debug_str:0000000000000379 .LASF63
     /tmp/ccZv3MCA.s:9180   .debug_str:000000000000040b .LASF65
     /tmp/ccZv3MCA.s:9128   .debug_str:00000000000002b4 .LASF66
     /tmp/ccZv3MCA.s:8524   .debug_loc:00000000000012a0 .LLST0
     /tmp/ccZv3MCA.s:193    .text:0000000000000150 .LBB17
     /tmp/ccZv3MCA.s:8562   .debug_loc:000000000000131e .LLST1
     /tmp/ccZv3MCA.s:8577   .debug_loc:0000000000001358 .LLST2
     /tmp/ccZv3MCA.s:8592   .debug_loc:00000000000013a0 .LLST3
     /tmp/ccZv3MCA.s:265    .text:00000000000001dc .LBB19
     /tmp/ccZv3MCA.s:291    .text:0000000000000208 .LBE19
     /tmp/ccZv3MCA.s:273    .text:00000000000001e8 .LBB21
     /tmp/ccZv3MCA.s:284    .text:00000000000001fc .LBE21
     /tmp/ccZv3MCA.s:8613   .debug_loc:00000000000013e0 .LLST4
     /tmp/ccZv3MCA.s:239    .text:0000000000000198 .LVL23
     /tmp/ccZv3MCA.s:244    .text:00000000000001a8 .LVL24
     /tmp/ccZv3MCA.s:249    .text:00000000000001b8 .LVL25
     /tmp/ccZv3MCA.s:254    .text:00000000000001c4 .LVL26
     /tmp/ccZv3MCA.s:259    .text:00000000000001d4 .LVL27
     /tmp/ccZv3MCA.s:263    .text:00000000000001dc .LVL28
     /tmp/ccZv3MCA.s:295    .text:0000000000000218 .LVL31
     /tmp/ccZv3MCA.s:299    .text:0000000000000220 .LVL32
     /tmp/ccZv3MCA.s:135    .text:00000000000000cc .LVL8
     /tmp/ccZv3MCA.s:139    .text:00000000000000d4 .LVL9
     /tmp/ccZv3MCA.s:157    .text:00000000000000fc .LVL10
     /tmp/ccZv3MCA.s:165    .text:0000000000000114 .LVL11
     /tmp/ccZv3MCA.s:170    .text:0000000000000120 .LVL12
     /tmp/ccZv3MCA.s:175    .text:000000000000012c .LVL13
     /tmp/ccZv3MCA.s:206    .text:0000000000000164 .LVL18
GAS LISTING /tmp/ccZv3MCA.s 			page 100


     /tmp/ccZv3MCA.s:210    .text:000000000000016c .LVL19
     /tmp/ccZv3MCA.s:9158   .debug_str:0000000000000370 .LASF67
     /tmp/ccZv3MCA.s:9244   .debug_str:0000000000000681 .LASF68
     /tmp/ccZv3MCA.s:954    .text:00000000000006b4 .LFB16
     /tmp/ccZv3MCA.s:1284   .text:0000000000000938 .LFE16
     /tmp/ccZv3MCA.s:8622   .debug_loc:000000000000140c .LLST25
     /tmp/ccZv3MCA.s:8636   .debug_loc:0000000000001445 .LLST26
     /tmp/ccZv3MCA.s:8650   .debug_loc:000000000000147e .LLST27
     /tmp/ccZv3MCA.s:8657   .debug_loc:00000000000014a1 .LLST28
     /tmp/ccZv3MCA.s:8680   .debug_loc:0000000000001501 .LLST29
     /tmp/ccZv3MCA.s:8691   .debug_loc:0000000000001537 .LLST30
     /tmp/ccZv3MCA.s:1003   .text:0000000000000704 .LBB117
     /tmp/ccZv3MCA.s:8706   .debug_loc:0000000000001580 .LLST31
     /tmp/ccZv3MCA.s:8721   .debug_loc:00000000000015ba .LLST32
     /tmp/ccZv3MCA.s:8736   .debug_loc:0000000000001602 .LLST33
     /tmp/ccZv3MCA.s:1090   .text:00000000000007a8 .LBB119
     /tmp/ccZv3MCA.s:1115   .text:00000000000007d4 .LBE119
     /tmp/ccZv3MCA.s:1097   .text:00000000000007b4 .LBB121
     /tmp/ccZv3MCA.s:1108   .text:00000000000007c8 .LBE121
     /tmp/ccZv3MCA.s:8755   .debug_loc:0000000000001640 .LLST34
     /tmp/ccZv3MCA.s:1064   .text:0000000000000764 .LVL131
     /tmp/ccZv3MCA.s:1069   .text:0000000000000774 .LVL132
     /tmp/ccZv3MCA.s:1074   .text:0000000000000784 .LVL133
     /tmp/ccZv3MCA.s:1079   .text:0000000000000790 .LVL134
     /tmp/ccZv3MCA.s:1084   .text:00000000000007a0 .LVL135
     /tmp/ccZv3MCA.s:1088   .text:00000000000007a8 .LVL136
     /tmp/ccZv3MCA.s:1119   .text:00000000000007e4 .LVL139
     /tmp/ccZv3MCA.s:1123   .text:00000000000007ec .LVL140
     /tmp/ccZv3MCA.s:1020   .text:0000000000000728 .LBB125
     /tmp/ccZv3MCA.s:8764   .debug_loc:000000000000166c .LLST35
     /tmp/ccZv3MCA.s:8779   .debug_loc:00000000000016a6 .LLST36
     /tmp/ccZv3MCA.s:1160   .text:0000000000000840 .LBB127
     /tmp/ccZv3MCA.s:1185   .text:000000000000086c .LBE127
     /tmp/ccZv3MCA.s:1167   .text:000000000000084c .LBB129
     /tmp/ccZv3MCA.s:1178   .text:0000000000000860 .LBE129
     /tmp/ccZv3MCA.s:8794   .debug_loc:00000000000016ee .LLST37
     /tmp/ccZv3MCA.s:1134   .text:00000000000007fc .LVL142
     /tmp/ccZv3MCA.s:1139   .text:000000000000080c .LVL143
     /tmp/ccZv3MCA.s:1144   .text:000000000000081c .LVL144
     /tmp/ccZv3MCA.s:1149   .text:0000000000000828 .LVL145
     /tmp/ccZv3MCA.s:1154   .text:0000000000000838 .LVL146
     /tmp/ccZv3MCA.s:1158   .text:0000000000000840 .LVL147
     /tmp/ccZv3MCA.s:1189   .text:000000000000087c .LVL150
     /tmp/ccZv3MCA.s:1193   .text:0000000000000884 .LVL151
     /tmp/ccZv3MCA.s:1039   .text:0000000000000748 .LBB133
     /tmp/ccZv3MCA.s:8803   .debug_loc:000000000000171a .LLST38
     /tmp/ccZv3MCA.s:8818   .debug_loc:0000000000001754 .LLST39
     /tmp/ccZv3MCA.s:8833   .debug_loc:000000000000179c .LLST40
     /tmp/ccZv3MCA.s:1229   .text:00000000000008d8 .LBB135
     /tmp/ccZv3MCA.s:1254   .text:0000000000000904 .LBE135
     /tmp/ccZv3MCA.s:1236   .text:00000000000008e4 .LBB137
     /tmp/ccZv3MCA.s:1247   .text:00000000000008f8 .LBE137
     /tmp/ccZv3MCA.s:8862   .debug_loc:0000000000001808 .LLST41
     /tmp/ccZv3MCA.s:1203   .text:0000000000000894 .LVL152
     /tmp/ccZv3MCA.s:1208   .text:00000000000008a4 .LVL153
     /tmp/ccZv3MCA.s:1213   .text:00000000000008b4 .LVL154
     /tmp/ccZv3MCA.s:1218   .text:00000000000008c0 .LVL155
GAS LISTING /tmp/ccZv3MCA.s 			page 101


     /tmp/ccZv3MCA.s:1223   .text:00000000000008d0 .LVL156
     /tmp/ccZv3MCA.s:1227   .text:00000000000008d8 .LVL157
     /tmp/ccZv3MCA.s:1258   .text:0000000000000914 .LVL160
     /tmp/ccZv3MCA.s:1262   .text:000000000000091c .LVL161
     /tmp/ccZv3MCA.s:988    .text:00000000000006e8 .LVL116
     /tmp/ccZv3MCA.s:1001   .text:0000000000000704 .LVL119
     /tmp/ccZv3MCA.s:9242   .debug_str:0000000000000673 .LASF69
     /tmp/ccZv3MCA.s:9058   .debug_str:00000000000000b7 .LASF70
     /tmp/ccZv3MCA.s:18     .text:0000000000000000 .LFB15
     /tmp/ccZv3MCA.s:92     .text:00000000000000a8 .LFE15
     /tmp/ccZv3MCA.s:34     .text:0000000000000020 .LVL0
     /tmp/ccZv3MCA.s:38     .text:0000000000000028 .LVL1
     /tmp/ccZv3MCA.s:55     .text:0000000000000050 .LVL2
     /tmp/ccZv3MCA.s:62     .text:0000000000000068 .LVL3
     /tmp/ccZv3MCA.s:67     .text:0000000000000074 .LVL4
     /tmp/ccZv3MCA.s:72     .text:0000000000000080 .LVL5
     /tmp/ccZv3MCA.s:77     .text:0000000000000090 .LVL6
     /tmp/ccZv3MCA.s:81     .text:0000000000000098 .LVL7
     /tmp/ccZv3MCA.s:9130   .debug_str:00000000000002c0 .LASF71
     /tmp/ccZv3MCA.s:9088   .debug_str:00000000000001a9 .LASF72
     /tmp/ccZv3MCA.s:2621   .text:00000000000012ec .LFB14
     /tmp/ccZv3MCA.s:2679   .text:0000000000001358 .LFE14
     /tmp/ccZv3MCA.s:2643   .text:0000000000001310 .LVL356
     /tmp/ccZv3MCA.s:2647   .text:0000000000001318 .LVL357
     /tmp/ccZv3MCA.s:2651   .text:0000000000001320 .LVL358
     /tmp/ccZv3MCA.s:2655   .text:0000000000001328 .LVL359
     /tmp/ccZv3MCA.s:2659   .text:0000000000001330 .LVL360
     /tmp/ccZv3MCA.s:2664   .text:0000000000001340 .LVL361
     /tmp/ccZv3MCA.s:2668   .text:0000000000001348 .LVL362
     /tmp/ccZv3MCA.s:9134   .debug_str:00000000000002de .LASF73
     /tmp/ccZv3MCA.s:9162   .debug_str:0000000000000382 .LASF74
     /tmp/ccZv3MCA.s:9144   .debug_str:000000000000032a .LASF75
     /tmp/ccZv3MCA.s:9074   .debug_str:000000000000014e .LASF76
     /tmp/ccZv3MCA.s:9200   .debug_str:0000000000000487 .LASF77
     /tmp/ccZv3MCA.s:9190   .debug_str:0000000000000458 .LASF110
     /tmp/ccZv3MCA.s:9182   .debug_str:0000000000000416 .LASF111
     /tmp/ccZv3MCA.s:9156   .debug_str:0000000000000367 .LASF112
     /tmp/ccZv3MCA.s:9248   .debug_str:00000000000006a3 .LASF113
     /tmp/ccZv3MCA.s:9076   .debug_str:0000000000000153 .LASF78
     /tmp/ccZv3MCA.s:9212   .debug_str:00000000000004dd .LASF80
     /tmp/ccZv3MCA.s:9060   .debug_str:00000000000000ca .LASF79
     /tmp/ccZv3MCA.s:9044   .debug_str:0000000000000053 .LASF81
     /tmp/ccZv3MCA.s:9222   .debug_str:0000000000000532 .LASF82
     /tmp/ccZv3MCA.s:9252   .debug_str:00000000000006d1 .LASF83
     /tmp/ccZv3MCA.s:9216   .debug_str:0000000000000500 .LASF84
     /tmp/ccZv3MCA.s:9208   .debug_str:00000000000004c0 .LASF85
     /tmp/ccZv3MCA.s:9194   .debug_str:0000000000000466 .LASF86
     /tmp/ccZv3MCA.s:9126   .debug_str:00000000000002a9 .LASF87
     /tmp/ccZv3MCA.s:9184   .debug_str:0000000000000427 .LASF88
     /tmp/ccZv3MCA.s:9116   .debug_str:0000000000000265 .LASF89
     /tmp/ccZv3MCA.s:9046   .debug_str:000000000000005d .LASF90
     /tmp/ccZv3MCA.s:9168   .debug_str:00000000000003b9 .LASF91
     /tmp/ccZv3MCA.s:9062   .debug_str:00000000000000da .LASF92
     /tmp/ccZv3MCA.s:9124   .debug_str:00000000000002a2 .LASF93
     /tmp/ccZv3MCA.s:9098   .debug_str:00000000000001f0 .LASF94
     /tmp/ccZv3MCA.s:9070   .debug_str:000000000000011f .LASF95
     /tmp/ccZv3MCA.s:9172   .debug_str:00000000000003d6 .LASF96
GAS LISTING /tmp/ccZv3MCA.s 			page 102


     /tmp/ccZv3MCA.s:9110   .debug_str:000000000000024d .LASF97
     /tmp/ccZv3MCA.s:9166   .debug_str:000000000000039c .LASF98
     /tmp/ccZv3MCA.s:9084   .debug_str:0000000000000194 .LASF99
     /tmp/ccZv3MCA.s:9120   .debug_str:0000000000000280 .LASF100
     /tmp/ccZv3MCA.s:9224   .debug_str:000000000000053d .LASF101
     /tmp/ccZv3MCA.s:9250   .debug_str:00000000000006c1 .LASF102
     /tmp/ccZv3MCA.s:9206   .debug_str:00000000000004b5 .LASF103
     /tmp/ccZv3MCA.s:2249   .text:000000000000104c .LVL300
     /tmp/ccZv3MCA.s:2254   .text:0000000000001050 .LVL301
     /tmp/ccZv3MCA.s:2530   .text:000000000000124c .LVL343
     /tmp/ccZv3MCA.s:2534   .text:0000000000001254 .LVL344
     /tmp/ccZv3MCA.s:2286   .text:0000000000001084 .LVL305
     /tmp/ccZv3MCA.s:2300   .text:00000000000010a0 .LVL306
     /tmp/ccZv3MCA.s:2305   .text:00000000000010a8 .LVL308
     /tmp/ccZv3MCA.s:2322   .text:00000000000010b8 .LVL311
     /tmp/ccZv3MCA.s:2348   .text:00000000000010e0 .LVL315
     /tmp/ccZv3MCA.s:2426   .text:0000000000001180 .LVL326
     /tmp/ccZv3MCA.s:2509   .text:0000000000001228 .LVL339
     /tmp/ccZv3MCA.s:2542   .text:000000000000125c .LVL345
     /tmp/ccZv3MCA.s:2274   .text:0000000000001078 .LVL303
     /tmp/ccZv3MCA.s:2276   .text:000000000000107c .LVL304
     /tmp/ccZv3MCA.s:2303   .text:00000000000010a4 .LVL307
     /tmp/ccZv3MCA.s:2310   .text:00000000000010ac .LVL309
     /tmp/ccZv3MCA.s:2346   .text:00000000000010dc .LVL314
     /tmp/ccZv3MCA.s:2525   .text:0000000000001244 .LVL342
     /tmp/ccZv3MCA.s:2341   .text:00000000000010d8 .LVL313
     /tmp/ccZv3MCA.s:2460   .text:00000000000011d8 .LVL333
     /tmp/ccZv3MCA.s:2469   .text:00000000000011ec .LVL334
     /tmp/ccZv3MCA.s:2312   .text:00000000000010b0 .LVL310
     /tmp/ccZv3MCA.s:2389   .text:0000000000001140 .LVL322
     /tmp/ccZv3MCA.s:2398   .text:0000000000001154 .LVL323
     /tmp/ccZv3MCA.s:2503   .text:0000000000001220 .LVL338
     /tmp/ccZv3MCA.s:2576   .text:00000000000012b4 .LVL352
     /tmp/ccZv3MCA.s:2585   .text:00000000000012c8 .LVL353
     /tmp/ccZv3MCA.s:1927   .text:0000000000000dec .LVL249
     /tmp/ccZv3MCA.s:1937   .text:0000000000000df8 .LVL250
     /tmp/ccZv3MCA.s:1979   .text:0000000000000e30 .LVL261
     /tmp/ccZv3MCA.s:1983   .text:0000000000000e34 .LVL262
     /tmp/ccZv3MCA.s:2188   .text:0000000000000ff0 .LVL295
     /tmp/ccZv3MCA.s:1941   .text:0000000000000dfc .LVL251
     /tmp/ccZv3MCA.s:1976   .text:0000000000000e2c .LVL260
     /tmp/ccZv3MCA.s:2191   .text:0000000000000ff4 .LVL296
     /tmp/ccZv3MCA.s:1972   .text:0000000000000e28 .LVL259
     /tmp/ccZv3MCA.s:2181   .text:0000000000000fe4 .LVL294
     /tmp/ccZv3MCA.s:1948   .text:0000000000000e0c .LVL253
     /tmp/ccZv3MCA.s:1952   .text:0000000000000e10 .LVL254
     /tmp/ccZv3MCA.s:1956   .text:0000000000000e1c .LVL256
     /tmp/ccZv3MCA.s:1989   .text:0000000000000e3c .LVL263
     /tmp/ccZv3MCA.s:2097   .text:0000000000000f30 .LVL281
     /tmp/ccZv3MCA.s:1960   .text:0000000000000e20 .LVL257
     /tmp/ccZv3MCA.s:1966   .text:0000000000000e24 .LVL258
     /tmp/ccZv3MCA.s:2131   .text:0000000000000f88 .LVL288
     /tmp/ccZv3MCA.s:2140   .text:0000000000000f9c .LVL289
     /tmp/ccZv3MCA.s:2061   .text:0000000000000ef0 .LVL277
     /tmp/ccZv3MCA.s:2070   .text:0000000000000f04 .LVL278
     /tmp/ccZv3MCA.s:894    .text:000000000000064c .LVL107
     /tmp/ccZv3MCA.s:913    .text:0000000000000674 .LVL108
GAS LISTING /tmp/ccZv3MCA.s 			page 103


     /tmp/ccZv3MCA.s:930    .text:0000000000000690 .LVL109
     /tmp/ccZv3MCA.s:945    .text:00000000000006b0 .LVL112
     /tmp/ccZv3MCA.s:1584   .text:0000000000000b6c .LVL205
     /tmp/ccZv3MCA.s:1610   .text:0000000000000b94 .LVL207
     /tmp/ccZv3MCA.s:1639   .text:0000000000000bcc .LVL213
     /tmp/ccZv3MCA.s:1647   .text:0000000000000bd4 .LVL214
     /tmp/ccZv3MCA.s:1637   .text:0000000000000bc8 .LVL212
     /tmp/ccZv3MCA.s:1628   .text:0000000000000bbc .LVL210
     /tmp/ccZv3MCA.s:1718   .text:0000000000000c6c .LVL225
     /tmp/ccZv3MCA.s:1752   .text:0000000000000cc4 .LVL232
     /tmp/ccZv3MCA.s:1761   .text:0000000000000cd8 .LVL233
     /tmp/ccZv3MCA.s:1600   .text:0000000000000b8c .LVL206
     /tmp/ccZv3MCA.s:1681   .text:0000000000000c2c .LVL221
     /tmp/ccZv3MCA.s:1690   .text:0000000000000c40 .LVL222
     /tmp/ccZv3MCA.s:1828   .text:0000000000000d64 .LVL243
     /tmp/ccZv3MCA.s:1837   .text:0000000000000d78 .LVL244
     /tmp/ccZv3MCA.s:1293   .text:0000000000000938 .LVL163
     /tmp/ccZv3MCA.s:1319   .text:0000000000000960 .LVL165
     /tmp/ccZv3MCA.s:1348   .text:0000000000000998 .LVL171
     /tmp/ccZv3MCA.s:1356   .text:00000000000009a0 .LVL172
     /tmp/ccZv3MCA.s:1346   .text:0000000000000994 .LVL170
     /tmp/ccZv3MCA.s:1337   .text:0000000000000988 .LVL168
     /tmp/ccZv3MCA.s:1427   .text:0000000000000a38 .LVL183
     /tmp/ccZv3MCA.s:1461   .text:0000000000000a90 .LVL190
     /tmp/ccZv3MCA.s:1470   .text:0000000000000aa4 .LVL191
     /tmp/ccZv3MCA.s:1309   .text:0000000000000958 .LVL164
     /tmp/ccZv3MCA.s:1390   .text:00000000000009f8 .LVL179
     /tmp/ccZv3MCA.s:1399   .text:0000000000000a0c .LVL180
     /tmp/ccZv3MCA.s:1544   .text:0000000000000b34 .LVL201
     /tmp/ccZv3MCA.s:1553   .text:0000000000000b48 .LVL202
     /tmp/ccZv3MCA.s:463    .text:0000000000000330 .LVL52
     /tmp/ccZv3MCA.s:493    .text:0000000000000360 .LVL56
     /tmp/ccZv3MCA.s:563    .text:00000000000003f8 .LVL67
     /tmp/ccZv3MCA.s:727    .text:000000000000050c .LVL87
     /tmp/ccZv3MCA.s:475    .text:0000000000000344 .LVL53
     /tmp/ccZv3MCA.s:480    .text:0000000000000350 .LVL54
     /tmp/ccZv3MCA.s:677    .text:00000000000004c4 .LVL81
     /tmp/ccZv3MCA.s:695    .text:00000000000004e0 .LVL84
     /tmp/ccZv3MCA.s:697    .text:00000000000004e4 .LVL85
     /tmp/ccZv3MCA.s:486    .text:0000000000000358 .LVL55
     /tmp/ccZv3MCA.s:703    .text:00000000000004f0 .LVL86
     /tmp/ccZv3MCA.s:650    .text:000000000000049c .LVL79
     /tmp/ccZv3MCA.s:656    .text:00000000000004a0 .LVL80
     /tmp/ccZv3MCA.s:527    .text:00000000000003b8 .LVL63
     /tmp/ccZv3MCA.s:536    .text:00000000000003cc .LVL64
     /tmp/ccZv3MCA.s:683    .text:00000000000004d4 .LVL82
     /tmp/ccZv3MCA.s:689    .text:00000000000004d8 .LVL83
     /tmp/ccZv3MCA.s:597    .text:0000000000000450 .LVL74
     /tmp/ccZv3MCA.s:606    .text:0000000000000464 .LVL75
     /tmp/ccZv3MCA.s:761    .text:0000000000000564 .LVL94
     /tmp/ccZv3MCA.s:770    .text:0000000000000578 .LVL95
     /tmp/ccZv3MCA.s:312    .text:0000000000000220 .LVL33
     /tmp/ccZv3MCA.s:389    .text:00000000000002a0 .LVL41
     /tmp/ccZv3MCA.s:317    .text:000000000000022c .LVL34
     /tmp/ccZv3MCA.s:335    .text:0000000000000240 .LVL36
     /tmp/ccZv3MCA.s:342    .text:0000000000000254 .LVL37
     /tmp/ccZv3MCA.s:344    .text:0000000000000258 .LVL38
GAS LISTING /tmp/ccZv3MCA.s 			page 104


     /tmp/ccZv3MCA.s:323    .text:0000000000000234 .LVL35
     /tmp/ccZv3MCA.s:366    .text:0000000000000280 .LVL40
     /tmp/ccZv3MCA.s:423    .text:00000000000002f8 .LVL48
     /tmp/ccZv3MCA.s:432    .text:000000000000030c .LVL49
     /tmp/ccZv3MCA.s:183    .text:0000000000000140 .LVL14
     /tmp/ccZv3MCA.s:186    .text:0000000000000144 .LVL15
     /tmp/ccZv3MCA.s:223    .text:0000000000000180 .LVL20
     /tmp/ccZv3MCA.s:229    .text:0000000000000184 .LVL21
     /tmp/ccZv3MCA.s:231    .text:0000000000000188 .LVL22
     /tmp/ccZv3MCA.s:192    .text:0000000000000150 .LVL16
     /tmp/ccZv3MCA.s:199    .text:0000000000000154 .LVL17
     /tmp/ccZv3MCA.s:272    .text:00000000000001e8 .LVL29
     /tmp/ccZv3MCA.s:281    .text:00000000000001fc .LVL30
     /tmp/ccZv3MCA.s:957    .text:00000000000006b4 .LVL113
     /tmp/ccZv3MCA.s:977    .text:00000000000006d4 .LVL115
     /tmp/ccZv3MCA.s:973    .text:00000000000006d0 .LVL114
     /tmp/ccZv3MCA.s:1279   .text:0000000000000930 .LVL162
     /tmp/ccZv3MCA.s:991    .text:00000000000006ec .LVL117
     /tmp/ccZv3MCA.s:1035   .text:0000000000000740 .LVL125
     /tmp/ccZv3MCA.s:1054   .text:0000000000000754 .LVL129
     /tmp/ccZv3MCA.s:996    .text:00000000000006f8 .LVL118
     /tmp/ccZv3MCA.s:1033   .text:000000000000073c .LVL124
     /tmp/ccZv3MCA.s:1031   .text:0000000000000738 .LVL123
     /tmp/ccZv3MCA.s:1062   .text:000000000000075c .LVL130
     /tmp/ccZv3MCA.s:1132   .text:00000000000007f4 .LVL141
     /tmp/ccZv3MCA.s:1008   .text:0000000000000708 .LVL120
     /tmp/ccZv3MCA.s:1096   .text:00000000000007b4 .LVL137
     /tmp/ccZv3MCA.s:1105   .text:00000000000007c8 .LVL138
     /tmp/ccZv3MCA.s:1019   .text:0000000000000728 .LVL121
     /tmp/ccZv3MCA.s:1025   .text:000000000000072c .LVL122
     /tmp/ccZv3MCA.s:1166   .text:000000000000084c .LVL148
     /tmp/ccZv3MCA.s:1175   .text:0000000000000860 .LVL149
     /tmp/ccZv3MCA.s:1038   .text:0000000000000748 .LVL126
     /tmp/ccZv3MCA.s:1044   .text:000000000000074c .LVL127
     /tmp/ccZv3MCA.s:1235   .text:00000000000008e4 .LVL158
     /tmp/ccZv3MCA.s:1244   .text:00000000000008f8 .LVL159
     /tmp/ccZv3MCA.s:2713   .debug_info:0000000000000000 .Ldebug_info0
     /tmp/ccZv3MCA.s:201    .text:0000000000000154 .LBE17
     /tmp/ccZv3MCA.s:233    .text:0000000000000188 .LBB25
     /tmp/ccZv3MCA.s:301    .text:0000000000000220 .LBE25
     /tmp/ccZv3MCA.s:374    .text:0000000000000288 .LBE35
     /tmp/ccZv3MCA.s:384    .text:0000000000000298 .LBB43
     /tmp/ccZv3MCA.s:452    .text:0000000000000330 .LBE43
     /tmp/ccZv3MCA.s:557    .text:00000000000003f0 .LBE67
     /tmp/ccZv3MCA.s:651    .text:000000000000049c .LBB83
     /tmp/ccZv3MCA.s:658    .text:00000000000004a0 .LBE83
     /tmp/ccZv3MCA.s:627    .text:0000000000000488 .LBE75
     /tmp/ccZv3MCA.s:684    .text:00000000000004d4 .LBB84
     /tmp/ccZv3MCA.s:691    .text:00000000000004d8 .LBE84
     /tmp/ccZv3MCA.s:709    .text:00000000000004f4 .LBE85
     /tmp/ccZv3MCA.s:722    .text:0000000000000504 .LBB93
     /tmp/ccZv3MCA.s:790    .text:000000000000059c .LBE93
     /tmp/ccZv3MCA.s:983    .text:00000000000006dc .LBB116
     /tmp/ccZv3MCA.s:1051   .text:0000000000000750 .LBE116
     /tmp/ccZv3MCA.s:1056   .text:0000000000000754 .LBB144
     /tmp/ccZv3MCA.s:1266   .text:000000000000091c .LBE144
     /tmp/ccZv3MCA.s:1010   .text:0000000000000708 .LBE117
GAS LISTING /tmp/ccZv3MCA.s 			page 105


     /tmp/ccZv3MCA.s:1057   .text:0000000000000754 .LBB141
     /tmp/ccZv3MCA.s:1126   .text:00000000000007ec .LBE141
     /tmp/ccZv3MCA.s:1027   .text:000000000000072c .LBE125
     /tmp/ccZv3MCA.s:1127   .text:00000000000007ec .LBB142
     /tmp/ccZv3MCA.s:1196   .text:0000000000000884 .LBE142
     /tmp/ccZv3MCA.s:1046   .text:000000000000074c .LBE133
     /tmp/ccZv3MCA.s:1197   .text:0000000000000884 .LBB143
     /tmp/ccZv3MCA.s:1265   .text:000000000000091c .LBE143
     /tmp/ccZv3MCA.s:1315   .text:000000000000095c .LBE167
     /tmp/ccZv3MCA.s:1351   .text:0000000000000998 .LBB185
     /tmp/ccZv3MCA.s:1420   .text:0000000000000a30 .LBE185
     /tmp/ccZv3MCA.s:1316   .text:000000000000095c .LBB175
     /tmp/ccZv3MCA.s:1350   .text:0000000000000998 .LBE175
     /tmp/ccZv3MCA.s:1421   .text:0000000000000a30 .LBB186
     /tmp/ccZv3MCA.s:1492   .text:0000000000000ac8 .LBE186
     /tmp/ccZv3MCA.s:1339   .text:0000000000000988 .LBE176
     /tmp/ccZv3MCA.s:1422   .text:0000000000000a30 .LBB184
     /tmp/ccZv3MCA.s:1491   .text:0000000000000ac8 .LBE184
     /tmp/ccZv3MCA.s:1606   .text:0000000000000b90 .LBE216
     /tmp/ccZv3MCA.s:1642   .text:0000000000000bcc .LBB234
     /tmp/ccZv3MCA.s:1711   .text:0000000000000c64 .LBE234
     /tmp/ccZv3MCA.s:1607   .text:0000000000000b90 .LBB224
     /tmp/ccZv3MCA.s:1641   .text:0000000000000bcc .LBE224
     /tmp/ccZv3MCA.s:1712   .text:0000000000000c64 .LBB235
     /tmp/ccZv3MCA.s:1783   .text:0000000000000cfc .LBE235
     /tmp/ccZv3MCA.s:1630   .text:0000000000000bbc .LBE225
     /tmp/ccZv3MCA.s:1713   .text:0000000000000c64 .LBB233
     /tmp/ccZv3MCA.s:1782   .text:0000000000000cfc .LBE233
     /tmp/ccZv3MCA.s:1919   .text:0000000000000de0 .LBB259
     /tmp/ccZv3MCA.s:1922   .text:0000000000000de4 .LBE259
     /tmp/ccZv3MCA.s:1929   .text:0000000000000dec .LBB279
     /tmp/ccZv3MCA.s:2163   .text:0000000000000fc0 .LBE279
     /tmp/ccZv3MCA.s:1933   .text:0000000000000df4 .LBB260
     /tmp/ccZv3MCA.s:1969   .text:0000000000000e24 .LBE260
     /tmp/ccZv3MCA.s:1973   .text:0000000000000e28 .LBB277
     /tmp/ccZv3MCA.s:1980   .text:0000000000000e30 .LBE277
     /tmp/ccZv3MCA.s:1985   .text:0000000000000e34 .LBB278
     /tmp/ccZv3MCA.s:2162   .text:0000000000000fc0 .LBE278
     /tmp/ccZv3MCA.s:1968   .text:0000000000000e24 .LBE261
     /tmp/ccZv3MCA.s:2092   .text:0000000000000f28 .LBB276
     /tmp/ccZv3MCA.s:2161   .text:0000000000000fc0 .LBE276
     /tmp/ccZv3MCA.s:2279   .text:000000000000107c .LBB305
     /tmp/ccZv3MCA.s:2282   .text:0000000000001080 .LBE305
     /tmp/ccZv3MCA.s:2287   .text:0000000000001084 .LBB306
     /tmp/ccZv3MCA.s:2307   .text:00000000000010a8 .LBE306
     /tmp/ccZv3MCA.s:2318   .text:00000000000010b4 .LBE307
     /tmp/ccZv3MCA.s:2351   .text:00000000000010e0 .LBB325
     /tmp/ccZv3MCA.s:2419   .text:0000000000001178 .LBE325
     /tmp/ccZv3MCA.s:2319   .text:00000000000010b4 .LBB315
     /tmp/ccZv3MCA.s:2350   .text:00000000000010e0 .LBE315
     /tmp/ccZv3MCA.s:2420   .text:0000000000001178 .LBB326
     /tmp/ccZv3MCA.s:2491   .text:0000000000001210 .LBE326
     /tmp/ccZv3MCA.s:2343   .text:00000000000010d8 .LBE316
     /tmp/ccZv3MCA.s:2421   .text:0000000000001178 .LBB324
     /tmp/ccZv3MCA.s:2490   .text:0000000000001210 .LBE324
     /tmp/ccZv3MCA.s:2505   .text:0000000000001220 .LBE327
     /tmp/ccZv3MCA.s:2537   .text:0000000000001254 .LBB335
GAS LISTING /tmp/ccZv3MCA.s 			page 106


     /tmp/ccZv3MCA.s:2605   .text:00000000000012ec .LBE335

UNDEFINED SYMBOLS
_Z9putStringPKc
_Z10putNewlinev
_Z13thread_createPmPFvPvES0_
_Z11thread_joinm
_Z6putInti
_ZN8IConsole14writeToConsoleEv
_Z10stopKernelv
gTimer
_Z15thread_dispatchv
_Z10time_sleepm
_Z9test_callm
_Z11thread_exitv
_Z6putU64m
_Z9mem_allocm
_Z8mem_freePv
