GAS LISTING /tmp/ccDb2nWZ.s 			page 1


   1              		.file	"APP.cpp"
   2              		.option pic
   3              		.option norelax
   4              		.text
   5              	.Ltext0:
   6              		.section	.rodata.str1.8,"aMS",@progbits,1
   7              		.align	3
   8              	.LC0:
   9 0000 3D3D3D20 		.string	"=== App started"
   9      41707020 
   9      73746172 
   9      74656400 
  10              		.align	3
  11              	.LC1:
  12 0010 3D3D3D20 		.string	"=== App ended"
  12      41707020 
  12      656E6465 
  12      6400
  13              		.text
  14              		.align	2
  15              		.globl	_Z10myUserMainv
  17              	_Z10myUserMainv:
  18              	.LFB10:
  19              		.file 1 "src/APP.cpp"
   1:src/APP.cpp   **** #include "../h/my_console.h"
   2:src/APP.cpp   **** #include "../h/syscall_c.hpp"
   3:src/APP.cpp   **** #include "../h/alloc.h"
   4:src/APP.cpp   **** #include "../h/thread.h"
   5:src/APP.cpp   **** 
   6:src/APP.cpp   **** void testSystemCalls();
   7:src/APP.cpp   **** void testMemoryAllocator();
   8:src/APP.cpp   **** void testSyncCall();
   9:src/APP.cpp   **** void testTimeSlice();
  10:src/APP.cpp   **** void testTimeSleep();
  11:src/APP.cpp   **** 
  12:src/APP.cpp   **** uint64 fib(uint64);
  13:src/APP.cpp   **** extern uint64 gTimer;
  14:src/APP.cpp   **** 
  15:src/APP.cpp   **** void myUserMain()
  16:src/APP.cpp   **** {
  20              		.loc 1 16 1
  21              		.cfi_startproc
  22 0000 130101FF 		addi	sp,sp,-16
  23              		.cfi_def_cfa_offset 16
  24 0004 23341100 		sd	ra,8(sp)
  25 0008 23308100 		sd	s0,0(sp)
  26              		.cfi_offset 1, -8
  27              		.cfi_offset 8, -16
  28 000c 13040101 		addi	s0,sp,16
  29              		.cfi_def_cfa 8, 0
  17:src/APP.cpp   **** //    __asm__ volatile ("csrw sscratch, x1"); // set spie bit to 1. spie signifies that we dont wan
  18:src/APP.cpp   **** 
  19:src/APP.cpp   ****     __asm__ volatile ("mv x10, x10");
  30              		.loc 1 19 5
  31              		.loc 1 19 37 is_stmt 0
  32              	#APP
  33              	# 19 "src/APP.cpp" 1
GAS LISTING /tmp/ccDb2nWZ.s 			page 2


  20              	
  21:src/APP.cpp   ****     putString("=== App started");
  34              		mv x10, x10
  35              	# 0 "" 2
  36              		.loc 1 21 5 is_stmt 1
  37              		.loc 1 21 14 is_stmt 0
  38              	#NO_APP
  39 0014 17050000 		lla	a0,.LC0
  39      13050500 
  40 001c 97000000 		call	_Z9putStringPKc@plt
  40      E7800000 
  41              	.LVL0:
  22:src/APP.cpp   ****     putNewline();
  42              		.loc 1 22 5 is_stmt 1
  43              		.loc 1 22 15 is_stmt 0
  44 0024 97000000 		call	_Z10putNewlinev@plt
  44      E7800000 
  45              	.LVL1:
  23:src/APP.cpp   **** 
  24:src/APP.cpp   **** //    testSystemCalls();
  25:src/APP.cpp   **** //    testMemoryAllocator();
  26:src/APP.cpp   **** //    testSyncCall();
  27:src/APP.cpp   **** //    testTimeSlice();
  28:src/APP.cpp   **** //    testTimeSleep();
  29:src/APP.cpp   **** 
  30:src/APP.cpp   ****     __asm__ volatile ("mv x10, x10");
  46              		.loc 1 30 5 is_stmt 1
  47              		.loc 1 30 37 is_stmt 0
  48              	#APP
  49              	# 30 "src/APP.cpp" 1
  31              	    time_sleep(500);
  50              		mv x10, x10
  51              	# 0 "" 2
  52              		.loc 1 31 5 is_stmt 1
  53              		.loc 1 31 15 is_stmt 0
  54              	#NO_APP
  55 0030 1305401F 		li	a0,500
  56 0034 97000000 		call	_Z10time_sleepm@plt
  56      E7800000 
  57              	.LVL2:
  32:src/APP.cpp   ****     __asm__ volatile ("mv x10, x10");
  58              		.loc 1 32 5 is_stmt 1
  59              		.loc 1 32 37 is_stmt 0
  60              	#APP
  61              	# 32 "src/APP.cpp" 1
  33              	
  34:src/APP.cpp   ****     putString("=== App ended");
  62              		mv x10, x10
  63              	# 0 "" 2
  64              		.loc 1 34 5 is_stmt 1
  65              		.loc 1 34 14 is_stmt 0
  66              	#NO_APP
  67 0040 17050000 		lla	a0,.LC1
  67      13050500 
  68 0048 97000000 		call	_Z9putStringPKc@plt
  68      E7800000 
  69              	.LVL3:
GAS LISTING /tmp/ccDb2nWZ.s 			page 3


  35:src/APP.cpp   ****     putNewline();
  70              		.loc 1 35 5 is_stmt 1
  71              		.loc 1 35 15 is_stmt 0
  72 0050 97000000 		call	_Z10putNewlinev@plt
  72      E7800000 
  73              	.LVL4:
  36:src/APP.cpp   **** }
  74              		.loc 1 36 1
  75 0058 83308100 		ld	ra,8(sp)
  76              		.cfi_restore 1
  77 005c 03340100 		ld	s0,0(sp)
  78              		.cfi_restore 8
  79              		.cfi_def_cfa 2, 16
  80 0060 13010101 		addi	sp,sp,16
  81              		.cfi_def_cfa_offset 0
  82 0064 67800000 		jr	ra
  83              		.cfi_endproc
  84              	.LFE10:
  86              		.section	.rodata.str1.8
  87 001e 0000     		.align	3
  88              	.LC2:
  89 0020 3D3D3D20 		.string	"=== Testing \"testTimeSleep\""
  89      54657374 
  89      696E6720 
  89      22746573 
  89      7454696D 
  90 003c 00000000 		.align	3
  91              	.LC3:
  92 0040 3D3D3D20 		.string	"=== PASS in \"testTimeSleep\""
  92      50415353 
  92      20696E20 
  92      22746573 
  92      7454696D 
  93              		.text
  94              		.align	2
  95              		.globl	_Z13testTimeSleepv
  97              	_Z13testTimeSleepv:
  98              	.LFB11:
  37:src/APP.cpp   **** 
  38:src/APP.cpp   **** 
  39:src/APP.cpp   **** void testTimeSleep()
  40:src/APP.cpp   **** {
  99              		.loc 1 40 1 is_stmt 1
 100              		.cfi_startproc
 101 0068 130101FD 		addi	sp,sp,-48
 102              		.cfi_def_cfa_offset 48
 103 006c 23341102 		sd	ra,40(sp)
 104 0070 23308102 		sd	s0,32(sp)
 105              		.cfi_offset 1, -8
 106              		.cfi_offset 8, -16
 107 0074 13040103 		addi	s0,sp,48
 108              		.cfi_def_cfa 8, 0
  41:src/APP.cpp   ****     putString("=== Testing \"testTimeSleep\"");
 109              		.loc 1 41 5
 110              		.loc 1 41 14 is_stmt 0
 111 0078 17050000 		lla	a0,.LC2
 111      13050500 
GAS LISTING /tmp/ccDb2nWZ.s 			page 4


 112 0080 97000000 		call	_Z9putStringPKc@plt
 112      E7800000 
 113              	.LVL5:
  42:src/APP.cpp   ****     putNewline();
 114              		.loc 1 42 5 is_stmt 1
 115              		.loc 1 42 15 is_stmt 0
 116 0088 97000000 		call	_Z10putNewlinev@plt
 116      E7800000 
 117              	.LVL6:
  43:src/APP.cpp   **** 
  44:src/APP.cpp   ****     thread_t a, b;
 118              		.loc 1 44 5 is_stmt 1
  45:src/APP.cpp   **** 
  46:src/APP.cpp   ****     uint64 argA = 4;
 119              		.loc 1 46 5
 120              		.loc 1 46 12 is_stmt 0
 121 0090 93074000 		li	a5,4
 122 0094 233CF4FC 		sd	a5,-40(s0)
  47:src/APP.cpp   ****     uint64 argB = 1;
 123              		.loc 1 47 5 is_stmt 1
 124              		.loc 1 47 12 is_stmt 0
 125 0098 93071000 		li	a5,1
 126 009c 2338F4FC 		sd	a5,-48(s0)
  48:src/APP.cpp   **** 
  49:src/APP.cpp   ****     void doSleepA(void*);
 127              		.loc 1 49 5 is_stmt 1
  50:src/APP.cpp   **** 
  51:src/APP.cpp   ****     thread_create(&a, doSleepA, &argA);
 128              		.loc 1 51 5
 129              		.loc 1 51 18 is_stmt 0
 130 00a0 130684FD 		addi	a2,s0,-40
 131 00a4 97050000 		la	a1,_Z8doSleepAPv
 131      83B50500 
 132 00ac 130584FE 		addi	a0,s0,-24
 133 00b0 97000000 		call	_Z13thread_createPmPFvPvES0_@plt
 133      E7800000 
 134              	.LVL7:
  52:src/APP.cpp   ****     thread_create(&b, doSleepA, &argB);
 135              		.loc 1 52 5 is_stmt 1
 136              		.loc 1 52 18 is_stmt 0
 137 00b8 130604FD 		addi	a2,s0,-48
 138 00bc 97050000 		la	a1,_Z8doSleepAPv
 138      83B50500 
 139 00c4 130504FE 		addi	a0,s0,-32
 140 00c8 97000000 		call	_Z13thread_createPmPFvPvES0_@plt
 140      E7800000 
 141              	.LVL8:
  53:src/APP.cpp   **** 
  54:src/APP.cpp   ****     thread_join(a);
 142              		.loc 1 54 5 is_stmt 1
 143              		.loc 1 54 16 is_stmt 0
 144 00d0 033584FE 		ld	a0,-24(s0)
 145 00d4 97000000 		call	_Z11thread_joinm@plt
 145      E7800000 
 146              	.LVL9:
  55:src/APP.cpp   ****     thread_join(b);
 147              		.loc 1 55 5 is_stmt 1
GAS LISTING /tmp/ccDb2nWZ.s 			page 5


 148              		.loc 1 55 16 is_stmt 0
 149 00dc 033504FE 		ld	a0,-32(s0)
 150 00e0 97000000 		call	_Z11thread_joinm@plt
 150      E7800000 
 151              	.LVL10:
  56:src/APP.cpp   **** 
  57:src/APP.cpp   ****     putString("=== PASS in \"testTimeSleep\"");
 152              		.loc 1 57 5 is_stmt 1
 153              		.loc 1 57 14 is_stmt 0
 154 00e8 17050000 		lla	a0,.LC3
 154      13050500 
 155 00f0 97000000 		call	_Z9putStringPKc@plt
 155      E7800000 
 156              	.LVL11:
  58:src/APP.cpp   ****     putNewline();
 157              		.loc 1 58 5 is_stmt 1
 158              		.loc 1 58 15 is_stmt 0
 159 00f8 97000000 		call	_Z10putNewlinev@plt
 159      E7800000 
 160              	.LVL12:
  59:src/APP.cpp   **** }
 161              		.loc 1 59 1
 162 0100 83308102 		ld	ra,40(sp)
 163              		.cfi_restore 1
 164 0104 03340102 		ld	s0,32(sp)
 165              		.cfi_restore 8
 166              		.cfi_def_cfa 2, 48
 167 0108 13010103 		addi	sp,sp,48
 168              		.cfi_def_cfa_offset 0
 169 010c 67800000 		jr	ra
 170              		.cfi_endproc
 171              	.LFE11:
 173              		.section	.rodata.str1.8
 174 005c 00000000 		.align	3
 175              	.LC4:
 176 0060 3D3D3D20 		.string	"=== Testing \"testTimeSlice\""
 176      54657374 
 176      696E6720 
 176      22746573 
 176      7454696D 
 177 007c 00000000 		.align	3
 178              	.LC5:
 179 0080 3D3D3D3D 		.string	"===================== ASSERT file: "
 179      3D3D3D3D 
 179      3D3D3D3D 
 179      3D3D3D3D 
 179      3D3D3D3D 
 180 00a4 00000000 		.align	3
 181              	.LC6:
 182 00a8 7372632F 		.string	"src/APP.cpp"
 182      4150502E 
 182      63707000 
 183 00b4 00000000 		.align	3
 184              	.LC7:
 185 00b8 20202020 		.string	"    line: "
 185      6C696E65 
 185      3A2000
GAS LISTING /tmp/ccDb2nWZ.s 			page 6


 186 00c3 00000000 		.align	3
 186      00
 187              	.LC8:
 188 00c8 2020203D 		.string	"   ==========================="
 188      3D3D3D3D 
 188      3D3D3D3D 
 188      3D3D3D3D 
 188      3D3D3D3D 
 189 00e7 00       		.align	3
 190              	.LC9:
 191 00e8 3D3D3D20 		.string	"=== PASS in testing \"testTimeSlice\""
 191      50415353 
 191      20696E20 
 191      74657374 
 191      696E6720 
 192              		.text
 193              		.align	2
 194              		.globl	_Z13testTimeSlicev
 196              	_Z13testTimeSlicev:
 197              	.LFB13:
  60:src/APP.cpp   **** 
  61:src/APP.cpp   **** void doSleepA(void* p)
  62:src/APP.cpp   **** {
  63:src/APP.cpp   ****     uint64 *n = (uint64*)p;
  64:src/APP.cpp   **** 
  65:src/APP.cpp   ****     uint64 i = *n;
  66:src/APP.cpp   ****     while(i <= 8)
  67:src/APP.cpp   ****     {
  68:src/APP.cpp   ****         int a = fib(i);
  69:src/APP.cpp   **** 
  70:src/APP.cpp   ****         uint64 oldTimer = gTimer;
  71:src/APP.cpp   ****         int b = time_sleep(a);
  72:src/APP.cpp   **** 
  73:src/APP.cpp   ****         assert(b == 0);
  74:src/APP.cpp   ****         assert((oldTimer - gTimer) <= (((uint64)a) + 2));
  75:src/APP.cpp   ****         assert((oldTimer - gTimer) >= ((uint64)a));
  76:src/APP.cpp   **** 
  77:src/APP.cpp   ****         i++;
  78:src/APP.cpp   ****     }
  79:src/APP.cpp   **** }
  80:src/APP.cpp   **** 
  81:src/APP.cpp   **** int sliceFirstCounter = 0;
  82:src/APP.cpp   **** int sliceSecondCounter = 0;
  83:src/APP.cpp   **** 
  84:src/APP.cpp   **** void testTimeSlice()
  85:src/APP.cpp   **** {
 198              		.loc 1 85 1 is_stmt 1
 199              		.cfi_startproc
 200 0110 130101FC 		addi	sp,sp,-64
 201              		.cfi_def_cfa_offset 64
 202 0114 233C1102 		sd	ra,56(sp)
 203 0118 23388102 		sd	s0,48(sp)
 204 011c 23349102 		sd	s1,40(sp)
 205              		.cfi_offset 1, -8
 206              		.cfi_offset 8, -16
 207              		.cfi_offset 9, -24
 208 0120 13040104 		addi	s0,sp,64
GAS LISTING /tmp/ccDb2nWZ.s 			page 7


 209              		.cfi_def_cfa 8, 0
  86:src/APP.cpp   ****     putString("=== Testing \"testTimeSlice\"");
 210              		.loc 1 86 5
 211              		.loc 1 86 14 is_stmt 0
 212 0124 17050000 		lla	a0,.LC4
 212      13050500 
 213 012c 97000000 		call	_Z9putStringPKc@plt
 213      E7800000 
 214              	.LVL13:
  87:src/APP.cpp   ****     putNewline();
 215              		.loc 1 87 5 is_stmt 1
 216              		.loc 1 87 15 is_stmt 0
 217 0134 97000000 		call	_Z10putNewlinev@plt
 217      E7800000 
 218              	.LVL14:
  88:src/APP.cpp   **** 
  89:src/APP.cpp   ****     void doP(void*);
 219              		.loc 1 89 5 is_stmt 1
  90:src/APP.cpp   ****     void doQ(void*);
 220              		.loc 1 90 5
  91:src/APP.cpp   **** 
  92:src/APP.cpp   ****     uint64 n = 150000000;
 221              		.loc 1 92 5
 222              		.loc 1 92 12 is_stmt 0
 223 013c B7D7F008 		li	a5,149999616
 224 0140 93870718 		addi	a5,a5,384
 225 0144 233CF4FC 		sd	a5,-40(s0)
  93:src/APP.cpp   **** 
  94:src/APP.cpp   ****     void doSliceFirst(void*);
 226              		.loc 1 94 5 is_stmt 1
  95:src/APP.cpp   ****     void doSliceSecond(void*);
 227              		.loc 1 95 5
  96:src/APP.cpp   **** 
  97:src/APP.cpp   ****     thread_t sliceFirst;
 228              		.loc 1 97 5
  98:src/APP.cpp   ****     thread_create(&sliceFirst, &doSliceFirst, &n);
 229              		.loc 1 98 5
 230              		.loc 1 98 18 is_stmt 0
 231 0148 930484FD 		addi	s1,s0,-40
 232 014c 13860400 		mv	a2,s1
 233 0150 97050000 		la	a1,_Z12doSliceFirstPv
 233      83B50500 
 234 0158 130504FD 		addi	a0,s0,-48
 235 015c 97000000 		call	_Z13thread_createPmPFvPvES0_@plt
 235      E7800000 
 236              	.LVL15:
  99:src/APP.cpp   **** 
 100:src/APP.cpp   ****     thread_t sliceSecond;
 237              		.loc 1 100 5 is_stmt 1
 101:src/APP.cpp   ****     thread_create(&sliceSecond, &doSliceSecond, &n);
 238              		.loc 1 101 5
 239              		.loc 1 101 18 is_stmt 0
 240 0164 13860400 		mv	a2,s1
 241 0168 97050000 		la	a1,_Z13doSliceSecondPv
 241      83B50500 
 242 0170 130584FC 		addi	a0,s0,-56
 243 0174 97000000 		call	_Z13thread_createPmPFvPvES0_@plt
GAS LISTING /tmp/ccDb2nWZ.s 			page 8


 243      E7800000 
 244              	.LVL16:
 102:src/APP.cpp   **** 
 103:src/APP.cpp   ****     thread_join(sliceFirst);
 245              		.loc 1 103 5 is_stmt 1
 246              		.loc 1 103 16 is_stmt 0
 247 017c 033504FD 		ld	a0,-48(s0)
 248 0180 97000000 		call	_Z11thread_joinm@plt
 248      E7800000 
 249              	.LVL17:
 104:src/APP.cpp   ****     thread_join(sliceSecond);
 250              		.loc 1 104 5 is_stmt 1
 251              		.loc 1 104 16 is_stmt 0
 252 0188 033584FC 		ld	a0,-56(s0)
 253 018c 97000000 		call	_Z11thread_joinm@plt
 253      E7800000 
 254              	.LVL18:
 105:src/APP.cpp   **** 
 106:src/APP.cpp   ****     int dif = (sliceFirstCounter - sliceSecondCounter);
 255              		.loc 1 106 5 is_stmt 1
 256              		.loc 1 106 34 is_stmt 0
 257 0194 17070000 		lla	a4,.LANCHOR0
 257      13070700 
 258 019c 83270700 		lw	a5,0(a4)
 259 01a0 83264700 		lw	a3,4(a4)
 260              		.loc 1 106 9
 261 01a4 3B87D740 		subw	a4,a5,a3
 262              	.LVL19:
 107:src/APP.cpp   ****     if(dif < 0) // dif = abs(dif);
 263              		.loc 1 107 5 is_stmt 1
 264 01a8 63400704 		bltz	a4,.L9
 265              	.LVL20:
 266              	.L6:
 108:src/APP.cpp   ****         dif = -dif;
 109:src/APP.cpp   **** 
 110:src/APP.cpp   ****     assert(dif < sliceFirstCounter * 8/10); // WARNING: not 100% check, depends on "n" and many oth
 267              		.loc 1 110 5
 268 01ac 9B973700 		slliw	a5,a5,3
 269 01b0 9306A000 		li	a3,10
 270 01b4 BBC7D702 		divw	a5,a5,a3
 271              	.LVL21:
 272              	.LBB4:
 273              	.LBB5:
 274              		.file 2 "src/../h/my_console.h"
   1:src/../h/my_console.h **** #pragma once
   2:src/../h/my_console.h **** 
   3:src/../h/my_console.h **** #include "../h/risc.h"
   4:src/../h/my_console.h **** 
   5:src/../h/my_console.h **** #include "../lib/hw.h"
   6:src/../h/my_console.h **** 
   7:src/../h/my_console.h **** #define __DEBUG_MODE
   8:src/../h/my_console.h **** 
   9:src/../h/my_console.h **** 
  10:src/../h/my_console.h **** void putString(const char* s);
  11:src/../h/my_console.h **** void putInt(int n);
  12:src/../h/my_console.h **** void putNewline();
  13:src/../h/my_console.h **** void putU64(uint64 n);
GAS LISTING /tmp/ccDb2nWZ.s 			page 9


  14:src/../h/my_console.h **** void putBinary(uint64 n);
  15:src/../h/my_console.h **** 
  16:src/../h/my_console.h **** [[noreturn]] void stopKernel();
  17:src/../h/my_console.h **** 
  18:src/../h/my_console.h **** inline void _assert(bool valid, const char* file, int line) // MUST be inline
  19:src/../h/my_console.h **** {
  20:src/../h/my_console.h ****     if(valid)
 275              		.loc 2 20 5
 276 01b8 635CF702 		ble	a5,a4,.L10
  21:src/../h/my_console.h ****         return;
 277              		.loc 2 21 9
 278              	.LVL22:
 279              	.LBE5:
 280              	.LBE4:
 111:src/APP.cpp   **** 
 112:src/APP.cpp   ****     putString("=== PASS in testing \"testTimeSlice\"");
 281              		.loc 1 112 5
 282              		.loc 1 112 14 is_stmt 0
 283 01bc 17050000 		lla	a0,.LC9
 283      13050500 
 284 01c4 97000000 		call	_Z9putStringPKc@plt
 284      E7800000 
 285              	.LVL23:
 113:src/APP.cpp   ****     putNewline();
 286              		.loc 1 113 5 is_stmt 1
 287              		.loc 1 113 15 is_stmt 0
 288 01cc 97000000 		call	_Z10putNewlinev@plt
 288      E7800000 
 289              	.LVL24:
 114:src/APP.cpp   **** }
 290              		.loc 1 114 1
 291 01d4 83308103 		ld	ra,56(sp)
 292              		.cfi_remember_state
 293              		.cfi_restore 1
 294 01d8 03340103 		ld	s0,48(sp)
 295              		.cfi_restore 8
 296              		.cfi_def_cfa 2, 64
 297 01dc 83348102 		ld	s1,40(sp)
 298              		.cfi_restore 9
 299 01e0 13010104 		addi	sp,sp,64
 300              		.cfi_def_cfa_offset 0
 301 01e4 67800000 		jr	ra
 302              	.LVL25:
 303              	.L9:
 304              		.cfi_restore_state
 108:src/APP.cpp   **** 
 305              		.loc 1 108 9 is_stmt 1
 108:src/APP.cpp   **** 
 306              		.loc 1 108 13 is_stmt 0
 307 01e8 3B87F640 		subw	a4,a3,a5
 308              	.LVL26:
 309 01ec 6FF01FFC 		j	.L6
 310              	.LVL27:
 311              	.L10:
 312              	.LBB7:
 313              	.LBB6:
  22:src/../h/my_console.h **** 
GAS LISTING /tmp/ccDb2nWZ.s 			page 10


  23:src/../h/my_console.h ****     putString("===================== ASSERT file: ");
 314              		.loc 2 23 5 is_stmt 1
 315              		.loc 2 23 14 is_stmt 0
 316 01f0 17050000 		lla	a0,.LC5
 316      13050500 
 317 01f8 97000000 		call	_Z9putStringPKc@plt
 317      E7800000 
 318              	.LVL28:
  24:src/../h/my_console.h ****     putString(file);
 319              		.loc 2 24 5 is_stmt 1
 320              		.loc 2 24 14 is_stmt 0
 321 0200 17050000 		lla	a0,.LC6
 321      13050500 
 322 0208 97000000 		call	_Z9putStringPKc@plt
 322      E7800000 
 323              	.LVL29:
  25:src/../h/my_console.h ****     putString("    line: ");
 324              		.loc 2 25 5 is_stmt 1
 325              		.loc 2 25 14 is_stmt 0
 326 0210 17050000 		lla	a0,.LC7
 326      13050500 
 327 0218 97000000 		call	_Z9putStringPKc@plt
 327      E7800000 
 328              	.LVL30:
  26:src/../h/my_console.h ****     putInt(line);
 329              		.loc 2 26 5 is_stmt 1
 330              		.loc 2 26 11 is_stmt 0
 331 0220 1305E006 		li	a0,110
 332 0224 97000000 		call	_Z6putInti@plt
 332      E7800000 
 333              	.LVL31:
  27:src/../h/my_console.h ****     putString("   ===========================");
 334              		.loc 2 27 5 is_stmt 1
 335              		.loc 2 27 14 is_stmt 0
 336 022c 17050000 		lla	a0,.LC8
 336      13050500 
 337 0234 97000000 		call	_Z9putStringPKc@plt
 337      E7800000 
 338              	.LVL32:
  28:src/../h/my_console.h ****     putNewline();
 339              		.loc 2 28 5 is_stmt 1
 340              		.loc 2 28 15 is_stmt 0
 341 023c 97000000 		call	_Z10putNewlinev@plt
 341      E7800000 
 342              	.LVL33:
  29:src/../h/my_console.h **** 
  30:src/../h/my_console.h ****     stopKernel();
 343              		.loc 2 30 5 is_stmt 1
 344              		.loc 2 30 15 is_stmt 0
 345 0244 97000000 		call	_Z10stopKernelv@plt
 345      E7800000 
 346              	.LVL34:
 347              	.LBE6:
 348              	.LBE7:
 349              		.cfi_endproc
 350              	.LFE13:
 352              		.align	2
GAS LISTING /tmp/ccDb2nWZ.s 			page 11


 353              		.globl	_Z12doSliceFirstPv
 355              	_Z12doSliceFirstPv:
 356              	.LFB14:
 115:src/APP.cpp   **** 
 116:src/APP.cpp   **** 
 117:src/APP.cpp   **** void doSliceFirst(void* n)
 118:src/APP.cpp   **** {
 357              		.loc 1 118 1 is_stmt 1
 358              		.cfi_startproc
 359              	.LVL35:
 119:src/APP.cpp   ****     uint64 oldTimer = gTimer;
 360              		.loc 1 119 5
 361              		.loc 1 119 12 is_stmt 0
 362 024c 97070000 		la	a5,gTimer
 362      83B70700 
 363 0254 83B60700 		ld	a3,0(a5)
 364              	.LVL36:
 120:src/APP.cpp   ****     for(uint64 i=0; i<(*((uint64*)n)); i++)
 365              		.loc 1 120 5 is_stmt 1
 366              	.LBB11:
 367              		.loc 1 120 16 is_stmt 0
 368 0258 93070000 		li	a5,0
 369 025c 6F00C002 		j	.L14
 370              	.LVL37:
 371              	.L19:
 121:src/APP.cpp   ****     {
 122:src/APP.cpp   ****         if(oldTimer != gTimer)
 123:src/APP.cpp   ****         {
 124:src/APP.cpp   ****             __asm__ volatile("mv x10, x10");
 372              		.loc 1 124 13 is_stmt 1
 373              		.loc 1 124 44 is_stmt 0
 374              	#APP
 375              	# 124 "src/APP.cpp" 1
 125              	
 126:src/APP.cpp   ****             sliceFirstCounter++;
 376              		mv x10, x10
 377              	# 0 "" 2
 378              		.loc 1 126 13 is_stmt 1
 379              		.loc 1 126 30 is_stmt 0
 380              	#NO_APP
 381 0264 97060000 		lla	a3,.LANCHOR0
 381      93860600 
 382              	.LVL38:
 383 026c 03A70600 		lw	a4,0(a3)
 384 0270 1B071700 		addiw	a4,a4,1
 385 0274 23A0E600 		sw	a4,0(a3)
 127:src/APP.cpp   ****             oldTimer = gTimer;
 386              		.loc 1 127 13 is_stmt 1
 387              		.loc 1 127 22 is_stmt 0
 388 0278 17070000 		la	a4,gTimer
 388      03370700 
 389              	.LVL39:
 390 0280 83360700 		ld	a3,0(a4)
 391              	.LVL40:
 392              	.L13:
 120:src/APP.cpp   ****     {
 393              		.loc 1 120 5 is_stmt 1 discriminator 2
GAS LISTING /tmp/ccDb2nWZ.s 			page 12


 394 0284 93871700 		addi	a5,a5,1
 395              	.LVL41:
 396              	.L14:
 120:src/APP.cpp   ****     {
 397              		.loc 1 120 22 discriminator 1
 120:src/APP.cpp   ****     {
 398              		.loc 1 120 24 is_stmt 0 discriminator 1
 399 0288 03370500 		ld	a4,0(a0)
 120:src/APP.cpp   ****     {
 400              		.loc 1 120 22 discriminator 1
 401 028c 63FCE700 		bleu	a4,a5,.L12
 122:src/APP.cpp   ****         {
 402              		.loc 1 122 9 is_stmt 1
 122:src/APP.cpp   ****         {
 403              		.loc 1 122 21 is_stmt 0
 404 0290 17070000 		la	a4,gTimer
 404      03370700 
 405 0298 03370700 		ld	a4,0(a4)
 122:src/APP.cpp   ****         {
 406              		.loc 1 122 9
 407 029c E312D7FC 		bne	a4,a3,.L19
 408 02a0 6FF05FFE 		j	.L13
 409              	.L12:
 410              	.LBE11:
 128:src/APP.cpp   ****         }
 129:src/APP.cpp   ****     }
 130:src/APP.cpp   ****     assert(sliceFirstCounter > 0); // "n" in test too small probably
 411              		.loc 1 130 5 is_stmt 1
 412 02a4 97070000 		lw	a5,.LANCHOR0
 412      83A70700 
 413              	.LVL42:
 414              	.LBB12:
 415              	.LBB13:
  20:src/../h/my_console.h ****         return;
 416              		.loc 2 20 5
 417 02ac 6354F000 		blez	a5,.L20
 418 02b0 67800000 		ret
 419              	.L20:
 420              	.LBE13:
 421              	.LBE12:
 118:src/APP.cpp   ****     uint64 oldTimer = gTimer;
 422              		.loc 1 118 1 is_stmt 0
 423 02b4 130101FF 		addi	sp,sp,-16
 424              		.cfi_def_cfa_offset 16
 425 02b8 23341100 		sd	ra,8(sp)
 426 02bc 23308100 		sd	s0,0(sp)
 427              		.cfi_offset 1, -8
 428              		.cfi_offset 8, -16
 429 02c0 13040101 		addi	s0,sp,16
 430              		.cfi_def_cfa 8, 0
 431              	.LBB15:
 432              	.LBB14:
  23:src/../h/my_console.h ****     putString(file);
 433              		.loc 2 23 5 is_stmt 1
  23:src/../h/my_console.h ****     putString(file);
 434              		.loc 2 23 14 is_stmt 0
 435 02c4 17050000 		lla	a0,.LC5
GAS LISTING /tmp/ccDb2nWZ.s 			page 13


 435      13050500 
 436              	.LVL43:
 437 02cc 97000000 		call	_Z9putStringPKc@plt
 437      E7800000 
 438              	.LVL44:
  24:src/../h/my_console.h ****     putString("    line: ");
 439              		.loc 2 24 5 is_stmt 1
  24:src/../h/my_console.h ****     putString("    line: ");
 440              		.loc 2 24 14 is_stmt 0
 441 02d4 17050000 		lla	a0,.LC6
 441      13050500 
 442 02dc 97000000 		call	_Z9putStringPKc@plt
 442      E7800000 
 443              	.LVL45:
  25:src/../h/my_console.h ****     putInt(line);
 444              		.loc 2 25 5 is_stmt 1
  25:src/../h/my_console.h ****     putInt(line);
 445              		.loc 2 25 14 is_stmt 0
 446 02e4 17050000 		lla	a0,.LC7
 446      13050500 
 447 02ec 97000000 		call	_Z9putStringPKc@plt
 447      E7800000 
 448              	.LVL46:
  26:src/../h/my_console.h ****     putString("   ===========================");
 449              		.loc 2 26 5 is_stmt 1
  26:src/../h/my_console.h ****     putString("   ===========================");
 450              		.loc 2 26 11 is_stmt 0
 451 02f4 13052008 		li	a0,130
 452 02f8 97000000 		call	_Z6putInti@plt
 452      E7800000 
 453              	.LVL47:
  27:src/../h/my_console.h ****     putNewline();
 454              		.loc 2 27 5 is_stmt 1
  27:src/../h/my_console.h ****     putNewline();
 455              		.loc 2 27 14 is_stmt 0
 456 0300 17050000 		lla	a0,.LC8
 456      13050500 
 457 0308 97000000 		call	_Z9putStringPKc@plt
 457      E7800000 
 458              	.LVL48:
  28:src/../h/my_console.h **** 
 459              		.loc 2 28 5 is_stmt 1
  28:src/../h/my_console.h **** 
 460              		.loc 2 28 15 is_stmt 0
 461 0310 97000000 		call	_Z10putNewlinev@plt
 461      E7800000 
 462              	.LVL49:
 463              		.loc 2 30 5 is_stmt 1
 464              		.loc 2 30 15 is_stmt 0
 465 0318 97000000 		call	_Z10stopKernelv@plt
 465      E7800000 
 466              	.LVL50:
 467              	.LBE14:
 468              	.LBE15:
 469              		.cfi_endproc
 470              	.LFE14:
 472              		.align	2
GAS LISTING /tmp/ccDb2nWZ.s 			page 14


 473              		.globl	_Z13doSliceSecondPv
 475              	_Z13doSliceSecondPv:
 476              	.LFB15:
 131:src/APP.cpp   **** }
 132:src/APP.cpp   **** 
 133:src/APP.cpp   **** void doSliceSecond(void* n)
 134:src/APP.cpp   **** {
 477              		.loc 1 134 1 is_stmt 1
 478              		.cfi_startproc
 479              	.LVL51:
 480 0320 130101FF 		addi	sp,sp,-16
 481              		.cfi_def_cfa_offset 16
 482 0324 23341100 		sd	ra,8(sp)
 483 0328 23308100 		sd	s0,0(sp)
 484              		.cfi_offset 1, -8
 485              		.cfi_offset 8, -16
 486 032c 13040101 		addi	s0,sp,16
 487              		.cfi_def_cfa 8, 0
 135:src/APP.cpp   ****     uint64 newN = *(uint64*)n;
 488              		.loc 1 135 5
 489              		.loc 1 135 12 is_stmt 0
 490 0330 03360500 		ld	a2,0(a0)
 491              	.LVL52:
 136:src/APP.cpp   **** 
 137:src/APP.cpp   ****     uint64 oldTimer = gTimer;
 492              		.loc 1 137 5 is_stmt 1
 493              		.loc 1 137 12 is_stmt 0
 494 0334 97070000 		la	a5,gTimer
 494      83B70700 
 495 033c 83B60700 		ld	a3,0(a5)
 496              	.LVL53:
 138:src/APP.cpp   ****     for(uint64 i=0; i<newN; i++)
 497              		.loc 1 138 5 is_stmt 1
 498              	.LBB23:
 499              		.loc 1 138 16 is_stmt 0
 500 0340 93070000 		li	a5,0
 501 0344 6F00400C 		j	.L26
 502              	.LVL54:
 503              	.L29:
 504              	.LBB24:
 505              	.LBB25:
  23:src/../h/my_console.h ****     putString(file);
 506              		.loc 2 23 5 is_stmt 1
  23:src/../h/my_console.h ****     putString(file);
 507              		.loc 2 23 14 is_stmt 0
 508 0348 17050000 		lla	a0,.LC5
 508      13050500 
 509              	.LVL55:
 510 0350 97000000 		call	_Z9putStringPKc@plt
 510      E7800000 
 511              	.LVL56:
  24:src/../h/my_console.h ****     putString("    line: ");
 512              		.loc 2 24 5 is_stmt 1
  24:src/../h/my_console.h ****     putString("    line: ");
 513              		.loc 2 24 14 is_stmt 0
 514 0358 17050000 		lla	a0,.LC6
 514      13050500 
GAS LISTING /tmp/ccDb2nWZ.s 			page 15


 515 0360 97000000 		call	_Z9putStringPKc@plt
 515      E7800000 
 516              	.LVL57:
  25:src/../h/my_console.h ****     putInt(line);
 517              		.loc 2 25 5 is_stmt 1
  25:src/../h/my_console.h ****     putInt(line);
 518              		.loc 2 25 14 is_stmt 0
 519 0368 17050000 		lla	a0,.LC7
 519      13050500 
 520 0370 97000000 		call	_Z9putStringPKc@plt
 520      E7800000 
 521              	.LVL58:
  26:src/../h/my_console.h ****     putString("   ===========================");
 522              		.loc 2 26 5 is_stmt 1
  26:src/../h/my_console.h ****     putString("   ===========================");
 523              		.loc 2 26 11 is_stmt 0
 524 0378 1305D008 		li	a0,141
 525 037c 97000000 		call	_Z6putInti@plt
 525      E7800000 
 526              	.LVL59:
  27:src/../h/my_console.h ****     putNewline();
 527              		.loc 2 27 5 is_stmt 1
  27:src/../h/my_console.h ****     putNewline();
 528              		.loc 2 27 14 is_stmt 0
 529 0384 17050000 		lla	a0,.LC8
 529      13050500 
 530 038c 97000000 		call	_Z9putStringPKc@plt
 530      E7800000 
 531              	.LVL60:
  28:src/../h/my_console.h **** 
 532              		.loc 2 28 5 is_stmt 1
  28:src/../h/my_console.h **** 
 533              		.loc 2 28 15 is_stmt 0
 534 0394 97000000 		call	_Z10putNewlinev@plt
 534      E7800000 
 535              	.LVL61:
 536              		.loc 2 30 5 is_stmt 1
 537              		.loc 2 30 15 is_stmt 0
 538 039c 97000000 		call	_Z10stopKernelv@plt
 538      E7800000 
 539              	.LVL62:
 540              	.L30:
 541              	.LBE25:
 542              	.LBE24:
 543              	.LBB27:
 544              	.LBB28:
  23:src/../h/my_console.h ****     putString(file);
 545              		.loc 2 23 5 is_stmt 1
  23:src/../h/my_console.h ****     putString(file);
 546              		.loc 2 23 14 is_stmt 0
 547 03a4 17050000 		lla	a0,.LC5
 547      13050500 
 548              	.LVL63:
 549 03ac 97000000 		call	_Z9putStringPKc@plt
 549      E7800000 
 550              	.LVL64:
  24:src/../h/my_console.h ****     putString("    line: ");
GAS LISTING /tmp/ccDb2nWZ.s 			page 16


 551              		.loc 2 24 5 is_stmt 1
  24:src/../h/my_console.h ****     putString("    line: ");
 552              		.loc 2 24 14 is_stmt 0
 553 03b4 17050000 		lla	a0,.LC6
 553      13050500 
 554 03bc 97000000 		call	_Z9putStringPKc@plt
 554      E7800000 
 555              	.LVL65:
  25:src/../h/my_console.h ****     putInt(line);
 556              		.loc 2 25 5 is_stmt 1
  25:src/../h/my_console.h ****     putInt(line);
 557              		.loc 2 25 14 is_stmt 0
 558 03c4 17050000 		lla	a0,.LC7
 558      13050500 
 559 03cc 97000000 		call	_Z9putStringPKc@plt
 559      E7800000 
 560              	.LVL66:
  26:src/../h/my_console.h ****     putString("   ===========================");
 561              		.loc 2 26 5 is_stmt 1
  26:src/../h/my_console.h ****     putString("   ===========================");
 562              		.loc 2 26 11 is_stmt 0
 563 03d4 13054009 		li	a0,148
 564 03d8 97000000 		call	_Z6putInti@plt
 564      E7800000 
 565              	.LVL67:
  27:src/../h/my_console.h ****     putNewline();
 566              		.loc 2 27 5 is_stmt 1
  27:src/../h/my_console.h ****     putNewline();
 567              		.loc 2 27 14 is_stmt 0
 568 03e0 17050000 		lla	a0,.LC8
 568      13050500 
 569 03e8 97000000 		call	_Z9putStringPKc@plt
 569      E7800000 
 570              	.LVL68:
  28:src/../h/my_console.h **** 
 571              		.loc 2 28 5 is_stmt 1
  28:src/../h/my_console.h **** 
 572              		.loc 2 28 15 is_stmt 0
 573 03f0 97000000 		call	_Z10putNewlinev@plt
 573      E7800000 
 574              	.LVL69:
 575              		.loc 2 30 5 is_stmt 1
 576              		.loc 2 30 15 is_stmt 0
 577 03f8 97000000 		call	_Z10stopKernelv@plt
 577      E7800000 
 578              	.LVL70:
 579              	.L24:
 580              	.LBE28:
 581              	.LBE27:
 139:src/APP.cpp   ****     {
 140:src/APP.cpp   ****         __asm__ volatile("mv x10, x10");
 141:src/APP.cpp   ****         assert((*((uint64*)n)) == newN);
 142:src/APP.cpp   **** 
 143:src/APP.cpp   ****         if(oldTimer != gTimer)
 144:src/APP.cpp   ****         {
 145:src/APP.cpp   ****             __asm__ volatile("mv x10, x10");
 146:src/APP.cpp   **** 
GAS LISTING /tmp/ccDb2nWZ.s 			page 17


 147:src/APP.cpp   ****             sliceSecondCounter++;
 148:src/APP.cpp   ****             assert((((int)sliceFirstCounter) - ((int)sliceSecondCounter)) <= 1);
 149:src/APP.cpp   ****             oldTimer = gTimer;
 150:src/APP.cpp   ****         }
 151:src/APP.cpp   **** 
 152:src/APP.cpp   ****         __asm__ volatile("mv x10, x10");
 582              		.loc 1 152 9 is_stmt 1 discriminator 2
 583              		.loc 1 152 40 is_stmt 0 discriminator 2
 584              	#APP
 585              	# 152 "src/APP.cpp" 1
 153              	    }
 138:src/APP.cpp   ****     {
 586              		mv x10, x10
 587              	# 0 "" 2
 588              		.loc 1 138 5 is_stmt 1 discriminator 2
 589              	#NO_APP
 590 0404 93871700 		addi	a5,a5,1
 591              	.LVL71:
 592              	.L26:
 138:src/APP.cpp   ****     {
 593              		.loc 1 138 22 discriminator 1
 594 0408 63FCC704 		bgeu	a5,a2,.L22
 140:src/APP.cpp   ****         assert((*((uint64*)n)) == newN);
 595              		.loc 1 140 9
 140:src/APP.cpp   ****         assert((*((uint64*)n)) == newN);
 596              		.loc 1 140 40 is_stmt 0
 597              	#APP
 598              	# 140 "src/APP.cpp" 1
 141:src/APP.cpp   **** 
 599              		mv x10, x10
 600              	# 0 "" 2
 601              		.loc 1 141 9 is_stmt 1
 602              	#NO_APP
 603 0410 03370500 		ld	a4,0(a0)
 604              	.LVL72:
 605              	.LBB30:
 606              	.LBB26:
  20:src/../h/my_console.h ****         return;
 607              		.loc 2 20 5
 608 0414 E31AC7F2 		bne	a4,a2,.L29
  21:src/../h/my_console.h **** 
 609              		.loc 2 21 9
 610              	.LVL73:
 611              	.LBE26:
 612              	.LBE30:
 143:src/APP.cpp   ****         {
 613              		.loc 1 143 9
 143:src/APP.cpp   ****         {
 614              		.loc 1 143 21 is_stmt 0
 615 0418 17070000 		la	a4,gTimer
 615      03370700 
 616 0420 03370700 		ld	a4,0(a4)
 143:src/APP.cpp   ****         {
 617              		.loc 1 143 9
 618 0424 E30ED7FC 		beq	a4,a3,.L24
 145:src/APP.cpp   **** 
 619              		.loc 1 145 13 is_stmt 1
GAS LISTING /tmp/ccDb2nWZ.s 			page 18


 145:src/APP.cpp   **** 
 620              		.loc 1 145 44 is_stmt 0
 621              	#APP
 622              	# 145 "src/APP.cpp" 1
 147:src/APP.cpp   ****             assert((((int)sliceFirstCounter) - ((int)sliceSecondCounter)) <= 1);
 623              		mv x10, x10
 624              	# 0 "" 2
 625              		.loc 1 147 13 is_stmt 1
 147:src/APP.cpp   ****             assert((((int)sliceFirstCounter) - ((int)sliceSecondCounter)) <= 1);
 626              		.loc 1 147 31 is_stmt 0
 627              	#NO_APP
 628 042c 97050000 		lla	a1,.LANCHOR0
 628      93850500 
 629 0434 03A74500 		lw	a4,4(a1)
 630 0438 9B061700 		addiw	a3,a4,1
 631              	.LVL74:
 632 043c 23A2D500 		sw	a3,4(a1)
 148:src/APP.cpp   ****             oldTimer = gTimer;
 633              		.loc 1 148 13 is_stmt 1
 634 0440 03A70500 		lw	a4,0(a1)
 635 0444 3B07D740 		subw	a4,a4,a3
 636 0448 13272700 		slti	a4,a4,2
 637              	.LVL75:
 638              	.LBB31:
 639              	.LBB29:
  20:src/../h/my_console.h ****         return;
 640              		.loc 2 20 5
 641 044c E30C07F4 		beqz	a4,.L30
  21:src/../h/my_console.h **** 
 642              		.loc 2 21 9
 643              	.LVL76:
 644              	.LBE29:
 645              	.LBE31:
 149:src/APP.cpp   ****         }
 646              		.loc 1 149 13
 149:src/APP.cpp   ****         }
 647              		.loc 1 149 22 is_stmt 0
 648 0450 17070000 		la	a4,gTimer
 648      03370700 
 649              	.LVL77:
 650 0458 83360700 		ld	a3,0(a4)
 651              	.LVL78:
 652 045c 6FF05FFA 		j	.L24
 653              	.L22:
 654              	.LBE23:
 154:src/APP.cpp   **** 
 155:src/APP.cpp   ****     assert(sliceSecondCounter > 0); // "n" in test too small probably
 655              		.loc 1 155 5 is_stmt 1
 656 0460 97070000 		lw	a5,.LANCHOR0+4
 656      83A70700 
 657              	.LVL79:
 658              	.LBB32:
 659              	.LBB33:
  20:src/../h/my_console.h ****         return;
 660              		.loc 2 20 5
 661 0468 635AF000 		blez	a5,.L31
 662              	.LBE33:
GAS LISTING /tmp/ccDb2nWZ.s 			page 19


 663              	.LBE32:
 156:src/APP.cpp   **** }
 664              		.loc 1 156 1 is_stmt 0
 665 046c 83308100 		ld	ra,8(sp)
 666              		.cfi_remember_state
 667              		.cfi_restore 1
 668 0470 03340100 		ld	s0,0(sp)
 669              		.cfi_restore 8
 670              		.cfi_def_cfa 2, 16
 671 0474 13010101 		addi	sp,sp,16
 672              		.cfi_def_cfa_offset 0
 673 0478 67800000 		jr	ra
 674              	.L31:
 675              		.cfi_restore_state
 676              	.LBB35:
 677              	.LBB34:
  23:src/../h/my_console.h ****     putString(file);
 678              		.loc 2 23 5 is_stmt 1
  23:src/../h/my_console.h ****     putString(file);
 679              		.loc 2 23 14 is_stmt 0
 680 047c 17050000 		lla	a0,.LC5
 680      13050500 
 681              	.LVL80:
 682 0484 97000000 		call	_Z9putStringPKc@plt
 682      E7800000 
 683              	.LVL81:
  24:src/../h/my_console.h ****     putString("    line: ");
 684              		.loc 2 24 5 is_stmt 1
  24:src/../h/my_console.h ****     putString("    line: ");
 685              		.loc 2 24 14 is_stmt 0
 686 048c 17050000 		lla	a0,.LC6
 686      13050500 
 687 0494 97000000 		call	_Z9putStringPKc@plt
 687      E7800000 
 688              	.LVL82:
  25:src/../h/my_console.h ****     putInt(line);
 689              		.loc 2 25 5 is_stmt 1
  25:src/../h/my_console.h ****     putInt(line);
 690              		.loc 2 25 14 is_stmt 0
 691 049c 17050000 		lla	a0,.LC7
 691      13050500 
 692 04a4 97000000 		call	_Z9putStringPKc@plt
 692      E7800000 
 693              	.LVL83:
  26:src/../h/my_console.h ****     putString("   ===========================");
 694              		.loc 2 26 5 is_stmt 1
  26:src/../h/my_console.h ****     putString("   ===========================");
 695              		.loc 2 26 11 is_stmt 0
 696 04ac 1305B009 		li	a0,155
 697 04b0 97000000 		call	_Z6putInti@plt
 697      E7800000 
 698              	.LVL84:
  27:src/../h/my_console.h ****     putNewline();
 699              		.loc 2 27 5 is_stmt 1
  27:src/../h/my_console.h ****     putNewline();
 700              		.loc 2 27 14 is_stmt 0
 701 04b8 17050000 		lla	a0,.LC8
GAS LISTING /tmp/ccDb2nWZ.s 			page 20


 701      13050500 
 702 04c0 97000000 		call	_Z9putStringPKc@plt
 702      E7800000 
 703              	.LVL85:
  28:src/../h/my_console.h **** 
 704              		.loc 2 28 5 is_stmt 1
  28:src/../h/my_console.h **** 
 705              		.loc 2 28 15 is_stmt 0
 706 04c8 97000000 		call	_Z10putNewlinev@plt
 706      E7800000 
 707              	.LVL86:
 708              		.loc 2 30 5 is_stmt 1
 709              		.loc 2 30 15 is_stmt 0
 710 04d0 97000000 		call	_Z10stopKernelv@plt
 710      E7800000 
 711              	.LVL87:
 712              	.LBE34:
 713              	.LBE35:
 714              		.cfi_endproc
 715              	.LFE15:
 717              		.section	.rodata.str1.8
 718 010c 00000000 		.align	3
 719              	.LC10:
 720 0110 3D3D3D20 		.string	"=== Testing \"testSyncCall\""
 720      54657374 
 720      696E6720 
 720      22746573 
 720      7453796E 
 721 012b 00000000 		.align	3
 721      00
 722              	.LC11:
 723 0130 3D3D3D20 		.string	"=== PASS in testing \"testSyncCall\""
 723      50415353 
 723      20696E20 
 723      74657374 
 723      696E6720 
 724              		.text
 725              		.align	2
 726              		.globl	_Z12testSyncCallv
 728              	_Z12testSyncCallv:
 729              	.LFB16:
 157:src/APP.cpp   **** 
 158:src/APP.cpp   **** void testSyncCall()
 159:src/APP.cpp   **** {
 730              		.loc 1 159 1 is_stmt 1
 731              		.cfi_startproc
 732 04d8 130101FD 		addi	sp,sp,-48
 733              		.cfi_def_cfa_offset 48
 734 04dc 23341102 		sd	ra,40(sp)
 735 04e0 23308102 		sd	s0,32(sp)
 736              		.cfi_offset 1, -8
 737              		.cfi_offset 8, -16
 738 04e4 13040103 		addi	s0,sp,48
 739              		.cfi_def_cfa 8, 0
 160:src/APP.cpp   ****     disableExternalInterrupts();
 740              		.loc 1 160 5
 741              		.loc 1 160 30 is_stmt 0
GAS LISTING /tmp/ccDb2nWZ.s 			page 21


 742 04e8 97000000 		call	_Z25disableExternalInterruptsv@plt
 742      E7800000 
 743              	.LVL88:
 161:src/APP.cpp   **** 
 162:src/APP.cpp   **** //    assert(MemAlloc::get()->getUserlandUsage() == IThread::initialUserMemoryUsage);
 163:src/APP.cpp   **** 
 164:src/APP.cpp   ****     putString("=== Testing \"testSyncCall\"");
 744              		.loc 1 164 5 is_stmt 1
 745              		.loc 1 164 14 is_stmt 0
 746 04f0 17050000 		lla	a0,.LC10
 746      13050500 
 747 04f8 97000000 		call	_Z9putStringPKc@plt
 747      E7800000 
 748              	.LVL89:
 165:src/APP.cpp   ****     putNewline();
 749              		.loc 1 165 5 is_stmt 1
 750              		.loc 1 165 15 is_stmt 0
 751 0500 97000000 		call	_Z10putNewlinev@plt
 751      E7800000 
 752              	.LVL90:
 166:src/APP.cpp   **** 
 167:src/APP.cpp   ****     void doA(void*);
 753              		.loc 1 167 5 is_stmt 1
 168:src/APP.cpp   ****     void doB(void*);
 754              		.loc 1 168 5
 169:src/APP.cpp   **** 
 170:src/APP.cpp   ****     int argA = 69;
 755              		.loc 1 170 5
 756              		.loc 1 170 9 is_stmt 0
 757 0508 93075004 		li	a5,69
 758 050c 2326F4FE 		sw	a5,-20(s0)
 171:src/APP.cpp   ****     int argB = 420;
 759              		.loc 1 171 5 is_stmt 1
 760              		.loc 1 171 9 is_stmt 0
 761 0510 9307401A 		li	a5,420
 762 0514 2324F4FE 		sw	a5,-24(s0)
 172:src/APP.cpp   ****     thread_t a;
 763              		.loc 1 172 5 is_stmt 1
 173:src/APP.cpp   ****     thread_t b;
 764              		.loc 1 173 5
 174:src/APP.cpp   ****     thread_create(&a, doA, &argA);
 765              		.loc 1 174 5
 766              		.loc 1 174 18 is_stmt 0
 767 0518 1306C4FE 		addi	a2,s0,-20
 768 051c 97050000 		la	a1,_Z3doAPv
 768      83B50500 
 769 0524 130504FE 		addi	a0,s0,-32
 770 0528 97000000 		call	_Z13thread_createPmPFvPvES0_@plt
 770      E7800000 
 771              	.LVL91:
 175:src/APP.cpp   ****     thread_create(&b, doB, &argB);
 772              		.loc 1 175 5 is_stmt 1
 773              		.loc 1 175 18 is_stmt 0
 774 0530 130684FE 		addi	a2,s0,-24
 775 0534 97050000 		la	a1,_Z3doBPv
 775      83B50500 
 776 053c 130584FD 		addi	a0,s0,-40
GAS LISTING /tmp/ccDb2nWZ.s 			page 22


 777 0540 97000000 		call	_Z13thread_createPmPFvPvES0_@plt
 777      E7800000 
 778              	.LVL92:
 176:src/APP.cpp   ****     thread_dispatch();
 779              		.loc 1 176 5 is_stmt 1
 780              		.loc 1 176 20 is_stmt 0
 781 0548 97000000 		call	_Z15thread_dispatchv@plt
 781      E7800000 
 782              	.LVL93:
 177:src/APP.cpp   **** 
 178:src/APP.cpp   ****     thread_join(b);
 783              		.loc 1 178 5 is_stmt 1
 784              		.loc 1 178 16 is_stmt 0
 785 0550 033584FD 		ld	a0,-40(s0)
 786 0554 97000000 		call	_Z11thread_joinm@plt
 786      E7800000 
 787              	.LVL94:
 179:src/APP.cpp   ****     thread_join(a);
 788              		.loc 1 179 5 is_stmt 1
 789              		.loc 1 179 16 is_stmt 0
 790 055c 033504FE 		ld	a0,-32(s0)
 791 0560 97000000 		call	_Z11thread_joinm@plt
 791      E7800000 
 792              	.LVL95:
 180:src/APP.cpp   **** 
 181:src/APP.cpp   ****     putString("=== PASS in testing \"testSyncCall\"");
 793              		.loc 1 181 5 is_stmt 1
 794              		.loc 1 181 14 is_stmt 0
 795 0568 17050000 		lla	a0,.LC11
 795      13050500 
 796 0570 97000000 		call	_Z9putStringPKc@plt
 796      E7800000 
 797              	.LVL96:
 182:src/APP.cpp   ****     putNewline();
 798              		.loc 1 182 5 is_stmt 1
 799              		.loc 1 182 15 is_stmt 0
 800 0578 97000000 		call	_Z10putNewlinev@plt
 800      E7800000 
 801              	.LVL97:
 183:src/APP.cpp   **** 
 184:src/APP.cpp   ****     enableExternalInterrupts();
 802              		.loc 1 184 5 is_stmt 1
 803              		.loc 1 184 29 is_stmt 0
 804 0580 97000000 		call	_Z24enableExternalInterruptsv@plt
 804      E7800000 
 805              	.LVL98:
 185:src/APP.cpp   **** }
 806              		.loc 1 185 1
 807 0588 83308102 		ld	ra,40(sp)
 808              		.cfi_restore 1
 809 058c 03340102 		ld	s0,32(sp)
 810              		.cfi_restore 8
 811              		.cfi_def_cfa 2, 48
 812 0590 13010103 		addi	sp,sp,48
 813              		.cfi_def_cfa_offset 0
 814 0594 67800000 		jr	ra
 815              		.cfi_endproc
GAS LISTING /tmp/ccDb2nWZ.s 			page 23


 816              	.LFE16:
 818              		.align	2
 819              		.globl	_Z3fibm
 821              	_Z3fibm:
 822              	.LFB19:
 186:src/APP.cpp   **** 
 187:src/APP.cpp   **** void doA(void* p)
 188:src/APP.cpp   **** {
 189:src/APP.cpp   ****     assert(*((int*)p) == 69);
 190:src/APP.cpp   **** 
 191:src/APP.cpp   ****     for(int i=0; i<=5; i++)
 192:src/APP.cpp   ****     {
 193:src/APP.cpp   ****         assert(fib(i) == test_call(i));
 194:src/APP.cpp   ****         thread_dispatch();
 195:src/APP.cpp   ****     }
 196:src/APP.cpp   **** 
 197:src/APP.cpp   ****     __asm__ volatile("mv x10, x10");
 198:src/APP.cpp   ****     thread_exit();
 199:src/APP.cpp   ****     assert(false);
 200:src/APP.cpp   **** }
 201:src/APP.cpp   **** 
 202:src/APP.cpp   **** void doB(void* p)
 203:src/APP.cpp   **** {
 204:src/APP.cpp   ****     assert(*((int*)p) == 420);
 205:src/APP.cpp   **** 
 206:src/APP.cpp   ****     for(int i=0; i<=10; i++)
 207:src/APP.cpp   ****     {
 208:src/APP.cpp   ****         assert(fib(i) == test_call(i));
 209:src/APP.cpp   ****         thread_dispatch();
 210:src/APP.cpp   ****     }
 211:src/APP.cpp   **** 
 212:src/APP.cpp   ****     thread_exit();
 213:src/APP.cpp   ****     assert(false);
 214:src/APP.cpp   **** }
 215:src/APP.cpp   **** 
 216:src/APP.cpp   **** 
 217:src/APP.cpp   **** uint64 fib(uint64 n)
 218:src/APP.cpp   **** {
 823              		.loc 1 218 1 is_stmt 1
 824              		.cfi_startproc
 825              	.LVL99:
 826 0598 130101FE 		addi	sp,sp,-32
 827              		.cfi_def_cfa_offset 32
 828 059c 233C1100 		sd	ra,24(sp)
 829 05a0 23388100 		sd	s0,16(sp)
 830 05a4 23349100 		sd	s1,8(sp)
 831 05a8 23302101 		sd	s2,0(sp)
 832              		.cfi_offset 1, -8
 833              		.cfi_offset 8, -16
 834              		.cfi_offset 9, -24
 835              		.cfi_offset 18, -32
 836 05ac 13040102 		addi	s0,sp,32
 837              		.cfi_def_cfa 8, 0
 838 05b0 93040500 		mv	s1,a0
 219:src/APP.cpp   ****     if(n == 1)
 839              		.loc 1 219 5
 840 05b4 93071000 		li	a5,1
GAS LISTING /tmp/ccDb2nWZ.s 			page 24


 841 05b8 6304F500 		beq	a0,a5,.L35
 220:src/APP.cpp   ****         return 1;
 221:src/APP.cpp   ****     else if (n == 0)
 842              		.loc 1 221 10
 843 05bc 63100502 		bnez	a0,.L37
 844              	.LVL100:
 845              	.L35:
 222:src/APP.cpp   ****         return 0;
 223:src/APP.cpp   ****     else return fib(n-1) + fib(n-2);
 224:src/APP.cpp   **** }
 846              		.loc 1 224 1 is_stmt 0
 847 05c0 13850400 		mv	a0,s1
 848 05c4 83308101 		ld	ra,24(sp)
 849              		.cfi_remember_state
 850              		.cfi_restore 1
 851 05c8 03340101 		ld	s0,16(sp)
 852              		.cfi_restore 8
 853              		.cfi_def_cfa 2, 32
 854 05cc 83348100 		ld	s1,8(sp)
 855              		.cfi_restore 9
 856 05d0 03390100 		ld	s2,0(sp)
 857              		.cfi_restore 18
 858 05d4 13010102 		addi	sp,sp,32
 859              		.cfi_def_cfa_offset 0
 860 05d8 67800000 		jr	ra
 861              	.LVL101:
 862              	.L37:
 863              		.cfi_restore_state
 223:src/APP.cpp   **** }
 864              		.loc 1 223 10 is_stmt 1
 223:src/APP.cpp   **** }
 865              		.loc 1 223 20 is_stmt 0
 866 05dc 1305F5FF 		addi	a0,a0,-1
 867 05e0 97000000 		call	_Z3fibm
 867      E7800000 
 868              	.LVL102:
 869 05e8 13090500 		mv	s2,a0
 223:src/APP.cpp   **** }
 870              		.loc 1 223 31
 871 05ec 1385E4FF 		addi	a0,s1,-2
 872 05f0 97000000 		call	_Z3fibm
 872      E7800000 
 873              	.LVL103:
 223:src/APP.cpp   **** }
 874              		.loc 1 223 35
 875 05f8 B304A900 		add	s1,s2,a0
 876              	.LVL104:
 877 05fc 6FF05FFC 		j	.L35
 878              		.cfi_endproc
 879              	.LFE19:
 881              		.align	2
 882              		.globl	_Z8doSleepAPv
 884              	_Z8doSleepAPv:
 885              	.LFB12:
  62:src/APP.cpp   ****     uint64 *n = (uint64*)p;
 886              		.loc 1 62 1 is_stmt 1
 887              		.cfi_startproc
GAS LISTING /tmp/ccDb2nWZ.s 			page 25


 888              	.LVL105:
 889 0600 130101FD 		addi	sp,sp,-48
 890              		.cfi_def_cfa_offset 48
 891 0604 23341102 		sd	ra,40(sp)
 892 0608 23308102 		sd	s0,32(sp)
 893 060c 233C9100 		sd	s1,24(sp)
 894 0610 23382101 		sd	s2,16(sp)
 895 0614 23343101 		sd	s3,8(sp)
 896              		.cfi_offset 1, -8
 897              		.cfi_offset 8, -16
 898              		.cfi_offset 9, -24
 899              		.cfi_offset 18, -32
 900              		.cfi_offset 19, -40
 901 0618 13040103 		addi	s0,sp,48
 902              		.cfi_def_cfa 8, 0
  63:src/APP.cpp   **** 
 903              		.loc 1 63 5
 904              	.LVL106:
  65:src/APP.cpp   ****     while(i <= 8)
 905              		.loc 1 65 5
  65:src/APP.cpp   ****     while(i <= 8)
 906              		.loc 1 65 12 is_stmt 0
 907 061c 83390500 		ld	s3,0(a0)
 908              	.LVL107:
 909              	.L43:
  66:src/APP.cpp   ****     {
 910              		.loc 1 66 5 is_stmt 1
  66:src/APP.cpp   ****     {
 911              		.loc 1 66 13
 912 0620 93078000 		li	a5,8
 913 0624 63E83719 		bgtu	s3,a5,.L38
 914              	.LBB43:
  68:src/APP.cpp   **** 
 915              		.loc 1 68 9
  68:src/APP.cpp   **** 
 916              		.loc 1 68 20 is_stmt 0
 917 0628 13850900 		mv	a0,s3
 918 062c 97000000 		call	_Z3fibm
 918      E7800000 
 919              	.LVL108:
  68:src/APP.cpp   **** 
 920              		.loc 1 68 22
 921 0634 9B040500 		sext.w	s1,a0
 922              	.LVL109:
  70:src/APP.cpp   ****         int b = time_sleep(a);
 923              		.loc 1 70 9 is_stmt 1
  70:src/APP.cpp   ****         int b = time_sleep(a);
 924              		.loc 1 70 16 is_stmt 0
 925 0638 97070000 		la	a5,gTimer
 925      83B70700 
 926 0640 03B90700 		ld	s2,0(a5)
 927              	.LVL110:
  71:src/APP.cpp   **** 
 928              		.loc 1 71 9 is_stmt 1
  71:src/APP.cpp   **** 
 929              		.loc 1 71 27 is_stmt 0
 930 0644 13850400 		mv	a0,s1
GAS LISTING /tmp/ccDb2nWZ.s 			page 26


 931 0648 97000000 		call	_Z10time_sleepm@plt
 931      E7800000 
 932              	.LVL111:
  73:src/APP.cpp   ****         assert((oldTimer - gTimer) <= (((uint64)a) + 2));
 933              		.loc 1 73 9 is_stmt 1
 934              	.LBB44:
 935              	.LBB45:
  20:src/../h/my_console.h ****         return;
 936              		.loc 2 20 5
 937 0650 63180504 		bnez	a0,.L45
  21:src/../h/my_console.h **** 
 938              		.loc 2 21 9
 939              	.LVL112:
 940              	.LBE45:
 941              	.LBE44:
  74:src/APP.cpp   ****         assert((oldTimer - gTimer) >= ((uint64)a));
 942              		.loc 1 74 9
 943 0654 97070000 		la	a5,gTimer
 943      83B70700 
 944 065c 83B70700 		ld	a5,0(a5)
 945 0660 B307F940 		sub	a5,s2,a5
 946 0664 13872400 		addi	a4,s1,2
 947 0668 B337F700 		sgtu	a5,a5,a4
 948 066c 93C71700 		xori	a5,a5,1
 949 0670 93F7F70F 		andi	a5,a5,0xff
 950              	.LVL113:
 951              	.LBB47:
 952              	.LBB48:
  20:src/../h/my_console.h ****         return;
 953              		.loc 2 20 5
 954 0674 63840708 		beqz	a5,.L46
  21:src/../h/my_console.h **** 
 955              		.loc 2 21 9
 956              	.LVL114:
 957              	.LBE48:
 958              	.LBE47:
  75:src/APP.cpp   **** 
 959              		.loc 1 75 9
 960 0678 97070000 		la	a5,gTimer
 960      83B70700 
 961 0680 03B50700 		ld	a0,0(a5)
 962              	.LVL115:
 963 0684 3309A940 		sub	s2,s2,a0
 964              	.LVL116:
 965 0688 B3349900 		sgtu	s1,s1,s2
 966              	.LVL117:
 967 068c 93C41400 		xori	s1,s1,1
 968 0690 93F4F40F 		andi	s1,s1,0xff
 969              	.LVL118:
 970              	.LBB50:
 971              	.LBB51:
  20:src/../h/my_console.h ****         return;
 972              		.loc 2 20 5
 973 0694 6382040C 		beqz	s1,.L47
  21:src/../h/my_console.h **** 
 974              		.loc 2 21 9
 975              	.LVL119:
GAS LISTING /tmp/ccDb2nWZ.s 			page 27


 976              	.LBE51:
 977              	.LBE50:
  77:src/APP.cpp   ****     }
 978              		.loc 1 77 9
  77:src/APP.cpp   ****     }
 979              		.loc 1 77 10 is_stmt 0
 980 0698 93891900 		addi	s3,s3,1
 981              	.LVL120:
 982              	.LBE43:
  66:src/APP.cpp   ****     {
 983              		.loc 1 66 5
 984 069c 6FF05FF8 		j	.L43
 985              	.LVL121:
 986              	.L45:
 987              	.LBB56:
 988              	.LBB53:
 989              	.LBB46:
  23:src/../h/my_console.h ****     putString(file);
 990              		.loc 2 23 5 is_stmt 1
  23:src/../h/my_console.h ****     putString(file);
 991              		.loc 2 23 14 is_stmt 0
 992 06a0 17050000 		lla	a0,.LC5
 992      13050500 
 993              	.LVL122:
 994 06a8 97000000 		call	_Z9putStringPKc@plt
 994      E7800000 
 995              	.LVL123:
  24:src/../h/my_console.h ****     putString("    line: ");
 996              		.loc 2 24 5 is_stmt 1
  24:src/../h/my_console.h ****     putString("    line: ");
 997              		.loc 2 24 14 is_stmt 0
 998 06b0 17050000 		lla	a0,.LC6
 998      13050500 
 999 06b8 97000000 		call	_Z9putStringPKc@plt
 999      E7800000 
 1000              	.LVL124:
  25:src/../h/my_console.h ****     putInt(line);
 1001              		.loc 2 25 5 is_stmt 1
  25:src/../h/my_console.h ****     putInt(line);
 1002              		.loc 2 25 14 is_stmt 0
 1003 06c0 17050000 		lla	a0,.LC7
 1003      13050500 
 1004 06c8 97000000 		call	_Z9putStringPKc@plt
 1004      E7800000 
 1005              	.LVL125:
  26:src/../h/my_console.h ****     putString("   ===========================");
 1006              		.loc 2 26 5 is_stmt 1
  26:src/../h/my_console.h ****     putString("   ===========================");
 1007              		.loc 2 26 11 is_stmt 0
 1008 06d0 13059004 		li	a0,73
 1009 06d4 97000000 		call	_Z6putInti@plt
 1009      E7800000 
 1010              	.LVL126:
  27:src/../h/my_console.h ****     putNewline();
 1011              		.loc 2 27 5 is_stmt 1
  27:src/../h/my_console.h ****     putNewline();
 1012              		.loc 2 27 14 is_stmt 0
GAS LISTING /tmp/ccDb2nWZ.s 			page 28


 1013 06dc 17050000 		lla	a0,.LC8
 1013      13050500 
 1014 06e4 97000000 		call	_Z9putStringPKc@plt
 1014      E7800000 
 1015              	.LVL127:
  28:src/../h/my_console.h **** 
 1016              		.loc 2 28 5 is_stmt 1
  28:src/../h/my_console.h **** 
 1017              		.loc 2 28 15 is_stmt 0
 1018 06ec 97000000 		call	_Z10putNewlinev@plt
 1018      E7800000 
 1019              	.LVL128:
 1020              		.loc 2 30 5 is_stmt 1
 1021              		.loc 2 30 15 is_stmt 0
 1022 06f4 97000000 		call	_Z10stopKernelv@plt
 1022      E7800000 
 1023              	.LVL129:
 1024              	.L46:
 1025              	.LBE46:
 1026              	.LBE53:
 1027              	.LBB54:
 1028              	.LBB49:
  23:src/../h/my_console.h ****     putString(file);
 1029              		.loc 2 23 5 is_stmt 1
  23:src/../h/my_console.h ****     putString(file);
 1030              		.loc 2 23 14 is_stmt 0
 1031 06fc 17050000 		lla	a0,.LC5
 1031      13050500 
 1032              	.LVL130:
 1033 0704 97000000 		call	_Z9putStringPKc@plt
 1033      E7800000 
 1034              	.LVL131:
  24:src/../h/my_console.h ****     putString("    line: ");
 1035              		.loc 2 24 5 is_stmt 1
  24:src/../h/my_console.h ****     putString("    line: ");
 1036              		.loc 2 24 14 is_stmt 0
 1037 070c 17050000 		lla	a0,.LC6
 1037      13050500 
 1038 0714 97000000 		call	_Z9putStringPKc@plt
 1038      E7800000 
 1039              	.LVL132:
  25:src/../h/my_console.h ****     putInt(line);
 1040              		.loc 2 25 5 is_stmt 1
  25:src/../h/my_console.h ****     putInt(line);
 1041              		.loc 2 25 14 is_stmt 0
 1042 071c 17050000 		lla	a0,.LC7
 1042      13050500 
 1043 0724 97000000 		call	_Z9putStringPKc@plt
 1043      E7800000 
 1044              	.LVL133:
  26:src/../h/my_console.h ****     putString("   ===========================");
 1045              		.loc 2 26 5 is_stmt 1
  26:src/../h/my_console.h ****     putString("   ===========================");
 1046              		.loc 2 26 11 is_stmt 0
 1047 072c 1305A004 		li	a0,74
 1048 0730 97000000 		call	_Z6putInti@plt
 1048      E7800000 
GAS LISTING /tmp/ccDb2nWZ.s 			page 29


 1049              	.LVL134:
  27:src/../h/my_console.h ****     putNewline();
 1050              		.loc 2 27 5 is_stmt 1
  27:src/../h/my_console.h ****     putNewline();
 1051              		.loc 2 27 14 is_stmt 0
 1052 0738 17050000 		lla	a0,.LC8
 1052      13050500 
 1053 0740 97000000 		call	_Z9putStringPKc@plt
 1053      E7800000 
 1054              	.LVL135:
  28:src/../h/my_console.h **** 
 1055              		.loc 2 28 5 is_stmt 1
  28:src/../h/my_console.h **** 
 1056              		.loc 2 28 15 is_stmt 0
 1057 0748 97000000 		call	_Z10putNewlinev@plt
 1057      E7800000 
 1058              	.LVL136:
 1059              		.loc 2 30 5 is_stmt 1
 1060              		.loc 2 30 15 is_stmt 0
 1061 0750 97000000 		call	_Z10stopKernelv@plt
 1061      E7800000 
 1062              	.LVL137:
 1063              	.L47:
 1064              	.LBE49:
 1065              	.LBE54:
 1066              	.LBB55:
 1067              	.LBB52:
  23:src/../h/my_console.h ****     putString(file);
 1068              		.loc 2 23 5 is_stmt 1
  23:src/../h/my_console.h ****     putString(file);
 1069              		.loc 2 23 14 is_stmt 0
 1070 0758 17050000 		lla	a0,.LC5
 1070      13050500 
 1071 0760 97000000 		call	_Z9putStringPKc@plt
 1071      E7800000 
 1072              	.LVL138:
  24:src/../h/my_console.h ****     putString("    line: ");
 1073              		.loc 2 24 5 is_stmt 1
  24:src/../h/my_console.h ****     putString("    line: ");
 1074              		.loc 2 24 14 is_stmt 0
 1075 0768 17050000 		lla	a0,.LC6
 1075      13050500 
 1076 0770 97000000 		call	_Z9putStringPKc@plt
 1076      E7800000 
 1077              	.LVL139:
  25:src/../h/my_console.h ****     putInt(line);
 1078              		.loc 2 25 5 is_stmt 1
  25:src/../h/my_console.h ****     putInt(line);
 1079              		.loc 2 25 14 is_stmt 0
 1080 0778 17050000 		lla	a0,.LC7
 1080      13050500 
 1081 0780 97000000 		call	_Z9putStringPKc@plt
 1081      E7800000 
 1082              	.LVL140:
  26:src/../h/my_console.h ****     putString("   ===========================");
 1083              		.loc 2 26 5 is_stmt 1
  26:src/../h/my_console.h ****     putString("   ===========================");
GAS LISTING /tmp/ccDb2nWZ.s 			page 30


 1084              		.loc 2 26 11 is_stmt 0
 1085 0788 1305B004 		li	a0,75
 1086 078c 97000000 		call	_Z6putInti@plt
 1086      E7800000 
 1087              	.LVL141:
  27:src/../h/my_console.h ****     putNewline();
 1088              		.loc 2 27 5 is_stmt 1
  27:src/../h/my_console.h ****     putNewline();
 1089              		.loc 2 27 14 is_stmt 0
 1090 0794 17050000 		lla	a0,.LC8
 1090      13050500 
 1091 079c 97000000 		call	_Z9putStringPKc@plt
 1091      E7800000 
 1092              	.LVL142:
  28:src/../h/my_console.h **** 
 1093              		.loc 2 28 5 is_stmt 1
  28:src/../h/my_console.h **** 
 1094              		.loc 2 28 15 is_stmt 0
 1095 07a4 97000000 		call	_Z10putNewlinev@plt
 1095      E7800000 
 1096              	.LVL143:
 1097              		.loc 2 30 5 is_stmt 1
 1098              		.loc 2 30 15 is_stmt 0
 1099 07ac 97000000 		call	_Z10stopKernelv@plt
 1099      E7800000 
 1100              	.LVL144:
 1101              	.L38:
 1102              	.LBE52:
 1103              	.LBE55:
 1104              	.LBE56:
  79:src/APP.cpp   **** 
 1105              		.loc 1 79 1
 1106 07b4 83308102 		ld	ra,40(sp)
 1107              		.cfi_restore 1
 1108 07b8 03340102 		ld	s0,32(sp)
 1109              		.cfi_restore 8
 1110              		.cfi_def_cfa 2, 48
 1111 07bc 83348101 		ld	s1,24(sp)
 1112              		.cfi_restore 9
 1113 07c0 03390101 		ld	s2,16(sp)
 1114              		.cfi_restore 18
 1115 07c4 83398100 		ld	s3,8(sp)
 1116              		.cfi_restore 19
 1117              	.LVL145:
 1118 07c8 13010103 		addi	sp,sp,48
 1119              		.cfi_def_cfa_offset 0
 1120 07cc 67800000 		jr	ra
 1121              		.cfi_endproc
 1122              	.LFE12:
 1124              		.align	2
 1125              		.globl	_Z3doAPv
 1127              	_Z3doAPv:
 1128              	.LFB17:
 188:src/APP.cpp   ****     assert(*((int*)p) == 69);
 1129              		.loc 1 188 1 is_stmt 1
 1130              		.cfi_startproc
 1131              	.LVL146:
GAS LISTING /tmp/ccDb2nWZ.s 			page 31


 1132 07d0 130101FE 		addi	sp,sp,-32
 1133              		.cfi_def_cfa_offset 32
 1134 07d4 233C1100 		sd	ra,24(sp)
 1135 07d8 23388100 		sd	s0,16(sp)
 1136 07dc 23349100 		sd	s1,8(sp)
 1137 07e0 23302101 		sd	s2,0(sp)
 1138              		.cfi_offset 1, -8
 1139              		.cfi_offset 8, -16
 1140              		.cfi_offset 9, -24
 1141              		.cfi_offset 18, -32
 1142 07e4 13040102 		addi	s0,sp,32
 1143              		.cfi_def_cfa 8, 0
 189:src/APP.cpp   **** 
 1144              		.loc 1 189 5
 1145 07e8 83270500 		lw	a5,0(a0)
 1146 07ec 9387B7FB 		addi	a5,a5,-69
 1147              	.LVL147:
 1148              	.LBB64:
 1149              	.LBB65:
  20:src/../h/my_console.h ****         return;
 1150              		.loc 2 20 5
 1151 07f0 63900704 		bnez	a5,.L54
 1152              	.LBE65:
 1153              	.LBE64:
 1154              	.LBB67:
 191:src/APP.cpp   ****     {
 1155              		.loc 1 191 13 is_stmt 0
 1156 07f4 93040000 		li	s1,0
 1157              	.LVL148:
 1158              	.L49:
 191:src/APP.cpp   ****     {
 1159              		.loc 1 191 19 is_stmt 1 discriminator 3
 1160 07f8 93075000 		li	a5,5
 1161 07fc 63C6970E 		bgt	s1,a5,.L50
 193:src/APP.cpp   ****         thread_dispatch();
 1162              		.loc 1 193 9 discriminator 2
 1163 0800 13850400 		mv	a0,s1
 1164 0804 97000000 		call	_Z3fibm
 1164      E7800000 
 1165              	.LVL149:
 1166 080c 13090500 		mv	s2,a0
 1167 0810 13850400 		mv	a0,s1
 1168 0814 97000000 		call	_Z9test_callm@plt
 1168      E7800000 
 1169              	.LVL150:
 1170              	.LBB68:
 1171              	.LBB69:
  20:src/../h/my_console.h ****         return;
 1172              		.loc 2 20 5 discriminator 2
 1173 081c 6318A906 		bne	s2,a0,.L55
  21:src/../h/my_console.h **** 
 1174              		.loc 2 21 9 discriminator 2
 1175              	.LVL151:
 1176              	.LBE69:
 1177              	.LBE68:
 194:src/APP.cpp   ****     }
 1178              		.loc 1 194 9 discriminator 2
GAS LISTING /tmp/ccDb2nWZ.s 			page 32


 194:src/APP.cpp   ****     }
 1179              		.loc 1 194 24 is_stmt 0 discriminator 2
 1180 0820 97000000 		call	_Z15thread_dispatchv@plt
 1180      E7800000 
 1181              	.LVL152:
 191:src/APP.cpp   ****     {
 1182              		.loc 1 191 5 is_stmt 1 discriminator 2
 1183 0828 9B841400 		addiw	s1,s1,1
 1184              	.LVL153:
 1185 082c 6FF0DFFC 		j	.L49
 1186              	.LVL154:
 1187              	.L54:
 1188              	.LBE67:
 1189              	.LBB72:
 1190              	.LBB66:
  23:src/../h/my_console.h ****     putString(file);
 1191              		.loc 2 23 5
  23:src/../h/my_console.h ****     putString(file);
 1192              		.loc 2 23 14 is_stmt 0
 1193 0830 17050000 		lla	a0,.LC5
 1193      13050500 
 1194              	.LVL155:
 1195 0838 97000000 		call	_Z9putStringPKc@plt
 1195      E7800000 
 1196              	.LVL156:
  24:src/../h/my_console.h ****     putString("    line: ");
 1197              		.loc 2 24 5 is_stmt 1
  24:src/../h/my_console.h ****     putString("    line: ");
 1198              		.loc 2 24 14 is_stmt 0
 1199 0840 17050000 		lla	a0,.LC6
 1199      13050500 
 1200 0848 97000000 		call	_Z9putStringPKc@plt
 1200      E7800000 
 1201              	.LVL157:
  25:src/../h/my_console.h ****     putInt(line);
 1202              		.loc 2 25 5 is_stmt 1
  25:src/../h/my_console.h ****     putInt(line);
 1203              		.loc 2 25 14 is_stmt 0
 1204 0850 17050000 		lla	a0,.LC7
 1204      13050500 
 1205 0858 97000000 		call	_Z9putStringPKc@plt
 1205      E7800000 
 1206              	.LVL158:
  26:src/../h/my_console.h ****     putString("   ===========================");
 1207              		.loc 2 26 5 is_stmt 1
  26:src/../h/my_console.h ****     putString("   ===========================");
 1208              		.loc 2 26 11 is_stmt 0
 1209 0860 1305D00B 		li	a0,189
 1210 0864 97000000 		call	_Z6putInti@plt
 1210      E7800000 
 1211              	.LVL159:
  27:src/../h/my_console.h ****     putNewline();
 1212              		.loc 2 27 5 is_stmt 1
  27:src/../h/my_console.h ****     putNewline();
 1213              		.loc 2 27 14 is_stmt 0
 1214 086c 17050000 		lla	a0,.LC8
 1214      13050500 
GAS LISTING /tmp/ccDb2nWZ.s 			page 33


 1215 0874 97000000 		call	_Z9putStringPKc@plt
 1215      E7800000 
 1216              	.LVL160:
  28:src/../h/my_console.h **** 
 1217              		.loc 2 28 5 is_stmt 1
  28:src/../h/my_console.h **** 
 1218              		.loc 2 28 15 is_stmt 0
 1219 087c 97000000 		call	_Z10putNewlinev@plt
 1219      E7800000 
 1220              	.LVL161:
 1221              		.loc 2 30 5 is_stmt 1
 1222              		.loc 2 30 15 is_stmt 0
 1223 0884 97000000 		call	_Z10stopKernelv@plt
 1223      E7800000 
 1224              	.LVL162:
 1225              	.L55:
 1226              	.LBE66:
 1227              	.LBE72:
 1228              	.LBB73:
 1229              	.LBB71:
 1230              	.LBB70:
  23:src/../h/my_console.h ****     putString(file);
 1231              		.loc 2 23 5 is_stmt 1
  23:src/../h/my_console.h ****     putString(file);
 1232              		.loc 2 23 14 is_stmt 0
 1233 088c 17050000 		lla	a0,.LC5
 1233      13050500 
 1234              	.LVL163:
 1235 0894 97000000 		call	_Z9putStringPKc@plt
 1235      E7800000 
 1236              	.LVL164:
  24:src/../h/my_console.h ****     putString("    line: ");
 1237              		.loc 2 24 5 is_stmt 1
  24:src/../h/my_console.h ****     putString("    line: ");
 1238              		.loc 2 24 14 is_stmt 0
 1239 089c 17050000 		lla	a0,.LC6
 1239      13050500 
 1240 08a4 97000000 		call	_Z9putStringPKc@plt
 1240      E7800000 
 1241              	.LVL165:
  25:src/../h/my_console.h ****     putInt(line);
 1242              		.loc 2 25 5 is_stmt 1
  25:src/../h/my_console.h ****     putInt(line);
 1243              		.loc 2 25 14 is_stmt 0
 1244 08ac 17050000 		lla	a0,.LC7
 1244      13050500 
 1245 08b4 97000000 		call	_Z9putStringPKc@plt
 1245      E7800000 
 1246              	.LVL166:
  26:src/../h/my_console.h ****     putString("   ===========================");
 1247              		.loc 2 26 5 is_stmt 1
  26:src/../h/my_console.h ****     putString("   ===========================");
 1248              		.loc 2 26 11 is_stmt 0
 1249 08bc 1305100C 		li	a0,193
 1250 08c0 97000000 		call	_Z6putInti@plt
 1250      E7800000 
 1251              	.LVL167:
GAS LISTING /tmp/ccDb2nWZ.s 			page 34


  27:src/../h/my_console.h ****     putNewline();
 1252              		.loc 2 27 5 is_stmt 1
  27:src/../h/my_console.h ****     putNewline();
 1253              		.loc 2 27 14 is_stmt 0
 1254 08c8 17050000 		lla	a0,.LC8
 1254      13050500 
 1255 08d0 97000000 		call	_Z9putStringPKc@plt
 1255      E7800000 
 1256              	.LVL168:
  28:src/../h/my_console.h **** 
 1257              		.loc 2 28 5 is_stmt 1
  28:src/../h/my_console.h **** 
 1258              		.loc 2 28 15 is_stmt 0
 1259 08d8 97000000 		call	_Z10putNewlinev@plt
 1259      E7800000 
 1260              	.LVL169:
 1261              		.loc 2 30 5 is_stmt 1
 1262              		.loc 2 30 15 is_stmt 0
 1263 08e0 97000000 		call	_Z10stopKernelv@plt
 1263      E7800000 
 1264              	.LVL170:
 1265              	.L50:
 1266              	.LBE70:
 1267              	.LBE71:
 1268              	.LBE73:
 197:src/APP.cpp   ****     thread_exit();
 1269              		.loc 1 197 5 is_stmt 1
 197:src/APP.cpp   ****     thread_exit();
 1270              		.loc 1 197 36 is_stmt 0
 1271              	#APP
 1272              	# 197 "src/APP.cpp" 1
 198:src/APP.cpp   ****     assert(false);
 1273              		mv x10, x10
 1274              	# 0 "" 2
 1275              		.loc 1 198 5 is_stmt 1
 198:src/APP.cpp   ****     assert(false);
 1276              		.loc 1 198 16 is_stmt 0
 1277              	#NO_APP
 1278 08ec 97000000 		call	_Z11thread_exitv@plt
 1278      E7800000 
 1279              	.LVL171:
 199:src/APP.cpp   **** }
 1280              		.loc 1 199 5 is_stmt 1
 1281              	.LBB74:
 1282              	.LBB75:
  20:src/../h/my_console.h ****         return;
 1283              		.loc 2 20 5
  23:src/../h/my_console.h ****     putString(file);
 1284              		.loc 2 23 5
  23:src/../h/my_console.h ****     putString(file);
 1285              		.loc 2 23 14 is_stmt 0
 1286 08f4 17050000 		lla	a0,.LC5
 1286      13050500 
 1287 08fc 97000000 		call	_Z9putStringPKc@plt
 1287      E7800000 
 1288              	.LVL172:
  24:src/../h/my_console.h ****     putString("    line: ");
GAS LISTING /tmp/ccDb2nWZ.s 			page 35


 1289              		.loc 2 24 5 is_stmt 1
  24:src/../h/my_console.h ****     putString("    line: ");
 1290              		.loc 2 24 14 is_stmt 0
 1291 0904 17050000 		lla	a0,.LC6
 1291      13050500 
 1292 090c 97000000 		call	_Z9putStringPKc@plt
 1292      E7800000 
 1293              	.LVL173:
  25:src/../h/my_console.h ****     putInt(line);
 1294              		.loc 2 25 5 is_stmt 1
  25:src/../h/my_console.h ****     putInt(line);
 1295              		.loc 2 25 14 is_stmt 0
 1296 0914 17050000 		lla	a0,.LC7
 1296      13050500 
 1297 091c 97000000 		call	_Z9putStringPKc@plt
 1297      E7800000 
 1298              	.LVL174:
  26:src/../h/my_console.h ****     putString("   ===========================");
 1299              		.loc 2 26 5 is_stmt 1
  26:src/../h/my_console.h ****     putString("   ===========================");
 1300              		.loc 2 26 11 is_stmt 0
 1301 0924 1305700C 		li	a0,199
 1302 0928 97000000 		call	_Z6putInti@plt
 1302      E7800000 
 1303              	.LVL175:
  27:src/../h/my_console.h ****     putNewline();
 1304              		.loc 2 27 5 is_stmt 1
  27:src/../h/my_console.h ****     putNewline();
 1305              		.loc 2 27 14 is_stmt 0
 1306 0930 17050000 		lla	a0,.LC8
 1306      13050500 
 1307 0938 97000000 		call	_Z9putStringPKc@plt
 1307      E7800000 
 1308              	.LVL176:
  28:src/../h/my_console.h **** 
 1309              		.loc 2 28 5 is_stmt 1
  28:src/../h/my_console.h **** 
 1310              		.loc 2 28 15 is_stmt 0
 1311 0940 97000000 		call	_Z10putNewlinev@plt
 1311      E7800000 
 1312              	.LVL177:
 1313              		.loc 2 30 5 is_stmt 1
 1314              		.loc 2 30 15 is_stmt 0
 1315 0948 97000000 		call	_Z10stopKernelv@plt
 1315      E7800000 
 1316              	.LVL178:
 1317              	.LBE75:
 1318              	.LBE74:
 1319              		.cfi_endproc
 1320              	.LFE17:
 1322              		.align	2
 1323              		.globl	_Z3doBPv
 1325              	_Z3doBPv:
 1326              	.LFB18:
 203:src/APP.cpp   ****     assert(*((int*)p) == 420);
 1327              		.loc 1 203 1 is_stmt 1
 1328              		.cfi_startproc
GAS LISTING /tmp/ccDb2nWZ.s 			page 36


 1329              	.LVL179:
 1330 0950 130101FE 		addi	sp,sp,-32
 1331              		.cfi_def_cfa_offset 32
 1332 0954 233C1100 		sd	ra,24(sp)
 1333 0958 23388100 		sd	s0,16(sp)
 1334 095c 23349100 		sd	s1,8(sp)
 1335 0960 23302101 		sd	s2,0(sp)
 1336              		.cfi_offset 1, -8
 1337              		.cfi_offset 8, -16
 1338              		.cfi_offset 9, -24
 1339              		.cfi_offset 18, -32
 1340 0964 13040102 		addi	s0,sp,32
 1341              		.cfi_def_cfa 8, 0
 204:src/APP.cpp   **** 
 1342              		.loc 1 204 5
 1343 0968 83270500 		lw	a5,0(a0)
 1344 096c 9387C7E5 		addi	a5,a5,-420
 1345              	.LVL180:
 1346              	.LBB83:
 1347              	.LBB84:
  20:src/../h/my_console.h ****         return;
 1348              		.loc 2 20 5
 1349 0970 63900704 		bnez	a5,.L62
 1350              	.LBE84:
 1351              	.LBE83:
 1352              	.LBB86:
 206:src/APP.cpp   ****     {
 1353              		.loc 1 206 13 is_stmt 0
 1354 0974 93040000 		li	s1,0
 1355              	.LVL181:
 1356              	.L57:
 206:src/APP.cpp   ****     {
 1357              		.loc 1 206 19 is_stmt 1 discriminator 3
 1358 0978 9307A000 		li	a5,10
 1359 097c 63C6970E 		bgt	s1,a5,.L58
 208:src/APP.cpp   ****         thread_dispatch();
 1360              		.loc 1 208 9 discriminator 2
 1361 0980 13850400 		mv	a0,s1
 1362 0984 97000000 		call	_Z3fibm
 1362      E7800000 
 1363              	.LVL182:
 1364 098c 13090500 		mv	s2,a0
 1365 0990 13850400 		mv	a0,s1
 1366 0994 97000000 		call	_Z9test_callm@plt
 1366      E7800000 
 1367              	.LVL183:
 1368              	.LBB87:
 1369              	.LBB88:
  20:src/../h/my_console.h ****         return;
 1370              		.loc 2 20 5 discriminator 2
 1371 099c 6318A906 		bne	s2,a0,.L63
  21:src/../h/my_console.h **** 
 1372              		.loc 2 21 9 discriminator 2
 1373              	.LVL184:
 1374              	.LBE88:
 1375              	.LBE87:
 209:src/APP.cpp   ****     }
GAS LISTING /tmp/ccDb2nWZ.s 			page 37


 1376              		.loc 1 209 9 discriminator 2
 209:src/APP.cpp   ****     }
 1377              		.loc 1 209 24 is_stmt 0 discriminator 2
 1378 09a0 97000000 		call	_Z15thread_dispatchv@plt
 1378      E7800000 
 1379              	.LVL185:
 206:src/APP.cpp   ****     {
 1380              		.loc 1 206 5 is_stmt 1 discriminator 2
 1381 09a8 9B841400 		addiw	s1,s1,1
 1382              	.LVL186:
 1383 09ac 6FF0DFFC 		j	.L57
 1384              	.LVL187:
 1385              	.L62:
 1386              	.LBE86:
 1387              	.LBB91:
 1388              	.LBB85:
  23:src/../h/my_console.h ****     putString(file);
 1389              		.loc 2 23 5
  23:src/../h/my_console.h ****     putString(file);
 1390              		.loc 2 23 14 is_stmt 0
 1391 09b0 17050000 		lla	a0,.LC5
 1391      13050500 
 1392              	.LVL188:
 1393 09b8 97000000 		call	_Z9putStringPKc@plt
 1393      E7800000 
 1394              	.LVL189:
  24:src/../h/my_console.h ****     putString("    line: ");
 1395              		.loc 2 24 5 is_stmt 1
  24:src/../h/my_console.h ****     putString("    line: ");
 1396              		.loc 2 24 14 is_stmt 0
 1397 09c0 17050000 		lla	a0,.LC6
 1397      13050500 
 1398 09c8 97000000 		call	_Z9putStringPKc@plt
 1398      E7800000 
 1399              	.LVL190:
  25:src/../h/my_console.h ****     putInt(line);
 1400              		.loc 2 25 5 is_stmt 1
  25:src/../h/my_console.h ****     putInt(line);
 1401              		.loc 2 25 14 is_stmt 0
 1402 09d0 17050000 		lla	a0,.LC7
 1402      13050500 
 1403 09d8 97000000 		call	_Z9putStringPKc@plt
 1403      E7800000 
 1404              	.LVL191:
  26:src/../h/my_console.h ****     putString("   ===========================");
 1405              		.loc 2 26 5 is_stmt 1
  26:src/../h/my_console.h ****     putString("   ===========================");
 1406              		.loc 2 26 11 is_stmt 0
 1407 09e0 1305C00C 		li	a0,204
 1408 09e4 97000000 		call	_Z6putInti@plt
 1408      E7800000 
 1409              	.LVL192:
  27:src/../h/my_console.h ****     putNewline();
 1410              		.loc 2 27 5 is_stmt 1
  27:src/../h/my_console.h ****     putNewline();
 1411              		.loc 2 27 14 is_stmt 0
 1412 09ec 17050000 		lla	a0,.LC8
GAS LISTING /tmp/ccDb2nWZ.s 			page 38


 1412      13050500 
 1413 09f4 97000000 		call	_Z9putStringPKc@plt
 1413      E7800000 
 1414              	.LVL193:
  28:src/../h/my_console.h **** 
 1415              		.loc 2 28 5 is_stmt 1
  28:src/../h/my_console.h **** 
 1416              		.loc 2 28 15 is_stmt 0
 1417 09fc 97000000 		call	_Z10putNewlinev@plt
 1417      E7800000 
 1418              	.LVL194:
 1419              		.loc 2 30 5 is_stmt 1
 1420              		.loc 2 30 15 is_stmt 0
 1421 0a04 97000000 		call	_Z10stopKernelv@plt
 1421      E7800000 
 1422              	.LVL195:
 1423              	.L63:
 1424              	.LBE85:
 1425              	.LBE91:
 1426              	.LBB92:
 1427              	.LBB90:
 1428              	.LBB89:
  23:src/../h/my_console.h ****     putString(file);
 1429              		.loc 2 23 5 is_stmt 1
  23:src/../h/my_console.h ****     putString(file);
 1430              		.loc 2 23 14 is_stmt 0
 1431 0a0c 17050000 		lla	a0,.LC5
 1431      13050500 
 1432              	.LVL196:
 1433 0a14 97000000 		call	_Z9putStringPKc@plt
 1433      E7800000 
 1434              	.LVL197:
  24:src/../h/my_console.h ****     putString("    line: ");
 1435              		.loc 2 24 5 is_stmt 1
  24:src/../h/my_console.h ****     putString("    line: ");
 1436              		.loc 2 24 14 is_stmt 0
 1437 0a1c 17050000 		lla	a0,.LC6
 1437      13050500 
 1438 0a24 97000000 		call	_Z9putStringPKc@plt
 1438      E7800000 
 1439              	.LVL198:
  25:src/../h/my_console.h ****     putInt(line);
 1440              		.loc 2 25 5 is_stmt 1
  25:src/../h/my_console.h ****     putInt(line);
 1441              		.loc 2 25 14 is_stmt 0
 1442 0a2c 17050000 		lla	a0,.LC7
 1442      13050500 
 1443 0a34 97000000 		call	_Z9putStringPKc@plt
 1443      E7800000 
 1444              	.LVL199:
  26:src/../h/my_console.h ****     putString("   ===========================");
 1445              		.loc 2 26 5 is_stmt 1
  26:src/../h/my_console.h ****     putString("   ===========================");
 1446              		.loc 2 26 11 is_stmt 0
 1447 0a3c 1305000D 		li	a0,208
 1448 0a40 97000000 		call	_Z6putInti@plt
 1448      E7800000 
GAS LISTING /tmp/ccDb2nWZ.s 			page 39


 1449              	.LVL200:
  27:src/../h/my_console.h ****     putNewline();
 1450              		.loc 2 27 5 is_stmt 1
  27:src/../h/my_console.h ****     putNewline();
 1451              		.loc 2 27 14 is_stmt 0
 1452 0a48 17050000 		lla	a0,.LC8
 1452      13050500 
 1453 0a50 97000000 		call	_Z9putStringPKc@plt
 1453      E7800000 
 1454              	.LVL201:
  28:src/../h/my_console.h **** 
 1455              		.loc 2 28 5 is_stmt 1
  28:src/../h/my_console.h **** 
 1456              		.loc 2 28 15 is_stmt 0
 1457 0a58 97000000 		call	_Z10putNewlinev@plt
 1457      E7800000 
 1458              	.LVL202:
 1459              		.loc 2 30 5 is_stmt 1
 1460              		.loc 2 30 15 is_stmt 0
 1461 0a60 97000000 		call	_Z10stopKernelv@plt
 1461      E7800000 
 1462              	.LVL203:
 1463              	.L58:
 1464              	.LBE89:
 1465              	.LBE90:
 1466              	.LBE92:
 212:src/APP.cpp   ****     assert(false);
 1467              		.loc 1 212 5 is_stmt 1
 212:src/APP.cpp   ****     assert(false);
 1468              		.loc 1 212 16 is_stmt 0
 1469 0a68 97000000 		call	_Z11thread_exitv@plt
 1469      E7800000 
 1470              	.LVL204:
 213:src/APP.cpp   **** }
 1471              		.loc 1 213 5 is_stmt 1
 1472              	.LBB93:
 1473              	.LBB94:
  20:src/../h/my_console.h ****         return;
 1474              		.loc 2 20 5
  23:src/../h/my_console.h ****     putString(file);
 1475              		.loc 2 23 5
  23:src/../h/my_console.h ****     putString(file);
 1476              		.loc 2 23 14 is_stmt 0
 1477 0a70 17050000 		lla	a0,.LC5
 1477      13050500 
 1478 0a78 97000000 		call	_Z9putStringPKc@plt
 1478      E7800000 
 1479              	.LVL205:
  24:src/../h/my_console.h ****     putString("    line: ");
 1480              		.loc 2 24 5 is_stmt 1
  24:src/../h/my_console.h ****     putString("    line: ");
 1481              		.loc 2 24 14 is_stmt 0
 1482 0a80 17050000 		lla	a0,.LC6
 1482      13050500 
 1483 0a88 97000000 		call	_Z9putStringPKc@plt
 1483      E7800000 
 1484              	.LVL206:
GAS LISTING /tmp/ccDb2nWZ.s 			page 40


  25:src/../h/my_console.h ****     putInt(line);
 1485              		.loc 2 25 5 is_stmt 1
  25:src/../h/my_console.h ****     putInt(line);
 1486              		.loc 2 25 14 is_stmt 0
 1487 0a90 17050000 		lla	a0,.LC7
 1487      13050500 
 1488 0a98 97000000 		call	_Z9putStringPKc@plt
 1488      E7800000 
 1489              	.LVL207:
  26:src/../h/my_console.h ****     putString("   ===========================");
 1490              		.loc 2 26 5 is_stmt 1
  26:src/../h/my_console.h ****     putString("   ===========================");
 1491              		.loc 2 26 11 is_stmt 0
 1492 0aa0 1305500D 		li	a0,213
 1493 0aa4 97000000 		call	_Z6putInti@plt
 1493      E7800000 
 1494              	.LVL208:
  27:src/../h/my_console.h ****     putNewline();
 1495              		.loc 2 27 5 is_stmt 1
  27:src/../h/my_console.h ****     putNewline();
 1496              		.loc 2 27 14 is_stmt 0
 1497 0aac 17050000 		lla	a0,.LC8
 1497      13050500 
 1498 0ab4 97000000 		call	_Z9putStringPKc@plt
 1498      E7800000 
 1499              	.LVL209:
  28:src/../h/my_console.h **** 
 1500              		.loc 2 28 5 is_stmt 1
  28:src/../h/my_console.h **** 
 1501              		.loc 2 28 15 is_stmt 0
 1502 0abc 97000000 		call	_Z10putNewlinev@plt
 1502      E7800000 
 1503              	.LVL210:
 1504              		.loc 2 30 5 is_stmt 1
 1505              		.loc 2 30 15 is_stmt 0
 1506 0ac4 97000000 		call	_Z10stopKernelv@plt
 1506      E7800000 
 1507              	.LVL211:
 1508              	.LBE94:
 1509              	.LBE93:
 1510              		.cfi_endproc
 1511              	.LFE18:
 1513              		.section	.rodata.str1.8
 1514 0153 00000000 		.align	3
 1514      00
 1515              	.LC12:
 1516 0158 3D3D3D20 		.string	"=== Testing \"testSystemCalls\""
 1516      54657374 
 1516      696E6720 
 1516      22746573 
 1516      74537973 
 1517 0176 0000     		.align	3
 1518              	.LC13:
 1519 0178 74657374 		.string	"test_call() error. i="
 1519      5F63616C 
 1519      6C282920 
 1519      6572726F 
GAS LISTING /tmp/ccDb2nWZ.s 			page 41


 1519      722E2069 
 1520 018e 0000     		.align	3
 1521              	.LC14:
 1522 0190 20666962 		.string	" fib(i)="
 1522      2869293D 
 1522      00
 1523 0199 00000000 		.align	3
 1523      000000
 1524              	.LC15:
 1525 01a0 20746573 		.string	" test_call(i)="
 1525      745F6361 
 1525      6C6C2869 
 1525      293D00
 1526 01af 00       		.align	3
 1527              	.LC16:
 1528 01b0 3D3D3D20 		.string	"=== PASS in testing system calls"
 1528      50415353 
 1528      20696E20 
 1528      74657374 
 1528      696E6720 
 1529              		.text
 1530              		.align	2
 1531              		.globl	_Z15testSystemCallsv
 1533              	_Z15testSystemCallsv:
 1534              	.LFB20:
 225:src/APP.cpp   **** 
 226:src/APP.cpp   **** void testSystemCalls()
 227:src/APP.cpp   **** {
 1535              		.loc 1 227 1 is_stmt 1
 1536              		.cfi_startproc
 1537 0acc 130101FB 		addi	sp,sp,-80
 1538              		.cfi_def_cfa_offset 80
 1539 0ad0 23341104 		sd	ra,72(sp)
 1540 0ad4 23308104 		sd	s0,64(sp)
 1541 0ad8 233C9102 		sd	s1,56(sp)
 1542 0adc 23382103 		sd	s2,48(sp)
 1543 0ae0 23343103 		sd	s3,40(sp)
 1544 0ae4 23304103 		sd	s4,32(sp)
 1545 0ae8 233C5101 		sd	s5,24(sp)
 1546 0aec 23386101 		sd	s6,16(sp)
 1547 0af0 23347101 		sd	s7,8(sp)
 1548              		.cfi_offset 1, -8
 1549              		.cfi_offset 8, -16
 1550              		.cfi_offset 9, -24
 1551              		.cfi_offset 18, -32
 1552              		.cfi_offset 19, -40
 1553              		.cfi_offset 20, -48
 1554              		.cfi_offset 21, -56
 1555              		.cfi_offset 22, -64
 1556              		.cfi_offset 23, -72
 1557 0af4 13040105 		addi	s0,sp,80
 1558              		.cfi_def_cfa 8, 0
 228:src/APP.cpp   ****     putString("=== Testing \"testSystemCalls\"");
 1559              		.loc 1 228 5
 1560              		.loc 1 228 14 is_stmt 0
 1561 0af8 17050000 		lla	a0,.LC12
 1561      13050500 
GAS LISTING /tmp/ccDb2nWZ.s 			page 42


 1562 0b00 97000000 		call	_Z9putStringPKc@plt
 1562      E7800000 
 1563              	.LVL212:
 229:src/APP.cpp   ****     putNewline();
 1564              		.loc 1 229 5 is_stmt 1
 1565              		.loc 1 229 15 is_stmt 0
 1566 0b08 97000000 		call	_Z10putNewlinev@plt
 1566      E7800000 
 1567              	.LVL213:
 230:src/APP.cpp   **** 
 231:src/APP.cpp   ****     int a = 0;
 1568              		.loc 1 231 5 is_stmt 1
 232:src/APP.cpp   ****     int b = 0;
 1569              		.loc 1 232 5
 233:src/APP.cpp   **** 
 234:src/APP.cpp   ****     for(int i=1; i<10; i++)
 1570              		.loc 1 234 5
 1571              	.LBB101:
 1572              		.loc 1 234 13 is_stmt 0
 1573 0b10 93041000 		li	s1,1
 1574              	.LBE101:
 232:src/APP.cpp   ****     int b = 0;
 1575              		.loc 1 232 9
 1576 0b14 930A0000 		li	s5,0
 231:src/APP.cpp   ****     int b = 0;
 1577              		.loc 1 231 9
 1578 0b18 130A0000 		li	s4,0
 1579              	.LVL214:
 1580              	.L68:
 1581              	.LBB111:
 1582              		.loc 1 234 19 is_stmt 1 discriminator 1
 1583 0b1c 93079000 		li	a5,9
 1584 0b20 63CC9714 		bgt	s1,a5,.L65
 1585              	.LBB102:
 235:src/APP.cpp   ****     {
 236:src/APP.cpp   ****         a++;
 1586              		.loc 1 236 9
 1587              		.loc 1 236 10 is_stmt 0
 1588 0b24 1B0B1A00 		addiw	s6,s4,1
 1589              	.LVL215:
 237:src/APP.cpp   ****         b++;
 1590              		.loc 1 237 9 is_stmt 1
 1591              		.loc 1 237 10 is_stmt 0
 1592 0b28 9B8B1A00 		addiw	s7,s5,1
 1593              	.LVL216:
 238:src/APP.cpp   **** 
 239:src/APP.cpp   ****         uint64 called = test_call(i);
 1594              		.loc 1 239 9 is_stmt 1
 1595              		.loc 1 239 34 is_stmt 0
 1596 0b2c 13850400 		mv	a0,s1
 1597 0b30 97000000 		call	_Z9test_callm@plt
 1597      E7800000 
 1598              	.LVL217:
 1599 0b38 13090500 		mv	s2,a0
 1600              	.LVL218:
 240:src/APP.cpp   ****         uint64 actual = fib(i);
 1601              		.loc 1 240 9 is_stmt 1
GAS LISTING /tmp/ccDb2nWZ.s 			page 43


 1602              		.loc 1 240 28 is_stmt 0
 1603 0b3c 13850400 		mv	a0,s1
 1604              	.LVL219:
 1605 0b40 97000000 		call	_Z3fibm
 1605      E7800000 
 1606              	.LVL220:
 1607 0b48 93090500 		mv	s3,a0
 1608              	.LVL221:
 241:src/APP.cpp   **** 
 242:src/APP.cpp   ****         if(called != actual)
 1609              		.loc 1 242 9 is_stmt 1
 1610 0b4c 631CA900 		bne	s2,a0,.L70
 243:src/APP.cpp   ****         {
 244:src/APP.cpp   ****             putString("test_call() error. i=");
 245:src/APP.cpp   ****             putInt(i);
 246:src/APP.cpp   ****             putString(" fib(i)=");
 247:src/APP.cpp   ****             putU64(actual);
 248:src/APP.cpp   ****             putString(" test_call(i)=");
 249:src/APP.cpp   ****             putU64(called);
 250:src/APP.cpp   ****             putNewline();
 251:src/APP.cpp   ****             assert(false);
 252:src/APP.cpp   ****         }
 253:src/APP.cpp   **** 
 254:src/APP.cpp   ****         assert(a == b);
 1611              		.loc 1 254 9 discriminator 2
 1612              	.LVL222:
 1613              	.LBB103:
 1614              	.LBB104:
  20:src/../h/my_console.h ****         return;
 1615              		.loc 2 20 5 discriminator 2
 1616 0b50 63165A0D 		bne	s4,s5,.L71
  21:src/../h/my_console.h **** 
 1617              		.loc 2 21 9 discriminator 2
 1618              	.LVL223:
 1619              	.LBE104:
 1620              	.LBE103:
 1621              	.LBE102:
 234:src/APP.cpp   ****     {
 1622              		.loc 1 234 5 discriminator 2
 1623 0b54 9B841400 		addiw	s1,s1,1
 1624              	.LVL224:
 1625              	.LBB109:
 237:src/APP.cpp   **** 
 1626              		.loc 1 237 10 is_stmt 0 discriminator 2
 1627 0b58 938A0B00 		mv	s5,s7
 1628              	.LVL225:
 236:src/APP.cpp   ****         b++;
 1629              		.loc 1 236 10 discriminator 2
 1630 0b5c 130A0B00 		mv	s4,s6
 1631              	.LVL226:
 1632              	.LBE109:
 234:src/APP.cpp   ****     {
 1633              		.loc 1 234 5 discriminator 2
 1634 0b60 6FF0DFFB 		j	.L68
 1635              	.LVL227:
 1636              	.L70:
 1637              	.LBB110:
GAS LISTING /tmp/ccDb2nWZ.s 			page 44


 244:src/APP.cpp   ****             putInt(i);
 1638              		.loc 1 244 13 is_stmt 1
 244:src/APP.cpp   ****             putInt(i);
 1639              		.loc 1 244 22 is_stmt 0
 1640 0b64 17050000 		lla	a0,.LC13
 1640      13050500 
 1641              	.LVL228:
 1642 0b6c 97000000 		call	_Z9putStringPKc@plt
 1642      E7800000 
 1643              	.LVL229:
 245:src/APP.cpp   ****             putString(" fib(i)=");
 1644              		.loc 1 245 13 is_stmt 1
 245:src/APP.cpp   ****             putString(" fib(i)=");
 1645              		.loc 1 245 19 is_stmt 0
 1646 0b74 13850400 		mv	a0,s1
 1647 0b78 97000000 		call	_Z6putInti@plt
 1647      E7800000 
 1648              	.LVL230:
 246:src/APP.cpp   ****             putU64(actual);
 1649              		.loc 1 246 13 is_stmt 1
 246:src/APP.cpp   ****             putU64(actual);
 1650              		.loc 1 246 22 is_stmt 0
 1651 0b80 17050000 		lla	a0,.LC14
 1651      13050500 
 1652 0b88 97000000 		call	_Z9putStringPKc@plt
 1652      E7800000 
 1653              	.LVL231:
 247:src/APP.cpp   ****             putString(" test_call(i)=");
 1654              		.loc 1 247 13 is_stmt 1
 247:src/APP.cpp   ****             putString(" test_call(i)=");
 1655              		.loc 1 247 19 is_stmt 0
 1656 0b90 13850900 		mv	a0,s3
 1657 0b94 97000000 		call	_Z6putU64m@plt
 1657      E7800000 
 1658              	.LVL232:
 248:src/APP.cpp   ****             putU64(called);
 1659              		.loc 1 248 13 is_stmt 1
 248:src/APP.cpp   ****             putU64(called);
 1660              		.loc 1 248 22 is_stmt 0
 1661 0b9c 17050000 		lla	a0,.LC15
 1661      13050500 
 1662 0ba4 97000000 		call	_Z9putStringPKc@plt
 1662      E7800000 
 1663              	.LVL233:
 249:src/APP.cpp   ****             putNewline();
 1664              		.loc 1 249 13 is_stmt 1
 249:src/APP.cpp   ****             putNewline();
 1665              		.loc 1 249 19 is_stmt 0
 1666 0bac 13050900 		mv	a0,s2
 1667 0bb0 97000000 		call	_Z6putU64m@plt
 1667      E7800000 
 1668              	.LVL234:
 250:src/APP.cpp   ****             assert(false);
 1669              		.loc 1 250 13 is_stmt 1
 250:src/APP.cpp   ****             assert(false);
 1670              		.loc 1 250 23 is_stmt 0
 1671 0bb8 97000000 		call	_Z10putNewlinev@plt
GAS LISTING /tmp/ccDb2nWZ.s 			page 45


 1671      E7800000 
 1672              	.LVL235:
 251:src/APP.cpp   ****         }
 1673              		.loc 1 251 13 is_stmt 1
 1674              	.LBB106:
 1675              	.LBB107:
  20:src/../h/my_console.h ****         return;
 1676              		.loc 2 20 5
  23:src/../h/my_console.h ****     putString(file);
 1677              		.loc 2 23 5
  23:src/../h/my_console.h ****     putString(file);
 1678              		.loc 2 23 14 is_stmt 0
 1679 0bc0 17050000 		lla	a0,.LC5
 1679      13050500 
 1680 0bc8 97000000 		call	_Z9putStringPKc@plt
 1680      E7800000 
 1681              	.LVL236:
  24:src/../h/my_console.h ****     putString("    line: ");
 1682              		.loc 2 24 5 is_stmt 1
  24:src/../h/my_console.h ****     putString("    line: ");
 1683              		.loc 2 24 14 is_stmt 0
 1684 0bd0 17050000 		lla	a0,.LC6
 1684      13050500 
 1685 0bd8 97000000 		call	_Z9putStringPKc@plt
 1685      E7800000 
 1686              	.LVL237:
  25:src/../h/my_console.h ****     putInt(line);
 1687              		.loc 2 25 5 is_stmt 1
  25:src/../h/my_console.h ****     putInt(line);
 1688              		.loc 2 25 14 is_stmt 0
 1689 0be0 17050000 		lla	a0,.LC7
 1689      13050500 
 1690 0be8 97000000 		call	_Z9putStringPKc@plt
 1690      E7800000 
 1691              	.LVL238:
  26:src/../h/my_console.h ****     putString("   ===========================");
 1692              		.loc 2 26 5 is_stmt 1
  26:src/../h/my_console.h ****     putString("   ===========================");
 1693              		.loc 2 26 11 is_stmt 0
 1694 0bf0 1305B00F 		li	a0,251
 1695 0bf4 97000000 		call	_Z6putInti@plt
 1695      E7800000 
 1696              	.LVL239:
  27:src/../h/my_console.h ****     putNewline();
 1697              		.loc 2 27 5 is_stmt 1
  27:src/../h/my_console.h ****     putNewline();
 1698              		.loc 2 27 14 is_stmt 0
 1699 0bfc 17050000 		lla	a0,.LC8
 1699      13050500 
 1700 0c04 97000000 		call	_Z9putStringPKc@plt
 1700      E7800000 
 1701              	.LVL240:
  28:src/../h/my_console.h **** 
 1702              		.loc 2 28 5 is_stmt 1
  28:src/../h/my_console.h **** 
 1703              		.loc 2 28 15 is_stmt 0
 1704 0c0c 97000000 		call	_Z10putNewlinev@plt
GAS LISTING /tmp/ccDb2nWZ.s 			page 46


 1704      E7800000 
 1705              	.LVL241:
 1706              		.loc 2 30 5 is_stmt 1
 1707              		.loc 2 30 15 is_stmt 0
 1708 0c14 97000000 		call	_Z10stopKernelv@plt
 1708      E7800000 
 1709              	.LVL242:
 1710              	.L71:
 1711              	.LBE107:
 1712              	.LBE106:
 1713              	.LBB108:
 1714              	.LBB105:
  23:src/../h/my_console.h ****     putString(file);
 1715              		.loc 2 23 5 is_stmt 1
  23:src/../h/my_console.h ****     putString(file);
 1716              		.loc 2 23 14 is_stmt 0
 1717 0c1c 17050000 		lla	a0,.LC5
 1717      13050500 
 1718              	.LVL243:
 1719 0c24 97000000 		call	_Z9putStringPKc@plt
 1719      E7800000 
 1720              	.LVL244:
  24:src/../h/my_console.h ****     putString("    line: ");
 1721              		.loc 2 24 5 is_stmt 1
  24:src/../h/my_console.h ****     putString("    line: ");
 1722              		.loc 2 24 14 is_stmt 0
 1723 0c2c 17050000 		lla	a0,.LC6
 1723      13050500 
 1724 0c34 97000000 		call	_Z9putStringPKc@plt
 1724      E7800000 
 1725              	.LVL245:
  25:src/../h/my_console.h ****     putInt(line);
 1726              		.loc 2 25 5 is_stmt 1
  25:src/../h/my_console.h ****     putInt(line);
 1727              		.loc 2 25 14 is_stmt 0
 1728 0c3c 17050000 		lla	a0,.LC7
 1728      13050500 
 1729 0c44 97000000 		call	_Z9putStringPKc@plt
 1729      E7800000 
 1730              	.LVL246:
  26:src/../h/my_console.h ****     putString("   ===========================");
 1731              		.loc 2 26 5 is_stmt 1
  26:src/../h/my_console.h ****     putString("   ===========================");
 1732              		.loc 2 26 11 is_stmt 0
 1733 0c4c 1305E00F 		li	a0,254
 1734 0c50 97000000 		call	_Z6putInti@plt
 1734      E7800000 
 1735              	.LVL247:
  27:src/../h/my_console.h ****     putNewline();
 1736              		.loc 2 27 5 is_stmt 1
  27:src/../h/my_console.h ****     putNewline();
 1737              		.loc 2 27 14 is_stmt 0
 1738 0c58 17050000 		lla	a0,.LC8
 1738      13050500 
 1739 0c60 97000000 		call	_Z9putStringPKc@plt
 1739      E7800000 
 1740              	.LVL248:
GAS LISTING /tmp/ccDb2nWZ.s 			page 47


  28:src/../h/my_console.h **** 
 1741              		.loc 2 28 5 is_stmt 1
  28:src/../h/my_console.h **** 
 1742              		.loc 2 28 15 is_stmt 0
 1743 0c68 97000000 		call	_Z10putNewlinev@plt
 1743      E7800000 
 1744              	.LVL249:
 1745              		.loc 2 30 5 is_stmt 1
 1746              		.loc 2 30 15 is_stmt 0
 1747 0c70 97000000 		call	_Z10stopKernelv@plt
 1747      E7800000 
 1748              	.LVL250:
 1749              	.L65:
 1750              	.LBE105:
 1751              	.LBE108:
 1752              	.LBE110:
 1753              	.LBE111:
 255:src/APP.cpp   ****     }
 256:src/APP.cpp   **** 
 257:src/APP.cpp   **** //    assert(MemAlloc::get()->getUserlandUsage() == IThread::initialUserMemoryUsage);
 258:src/APP.cpp   ****     putString("=== PASS in testing system calls");
 1754              		.loc 1 258 5 is_stmt 1
 1755              		.loc 1 258 14 is_stmt 0
 1756 0c78 17050000 		lla	a0,.LC16
 1756      13050500 
 1757 0c80 97000000 		call	_Z9putStringPKc@plt
 1757      E7800000 
 1758              	.LVL251:
 259:src/APP.cpp   ****     putNewline();
 1759              		.loc 1 259 5 is_stmt 1
 1760              		.loc 1 259 15 is_stmt 0
 1761 0c88 97000000 		call	_Z10putNewlinev@plt
 1761      E7800000 
 1762              	.LVL252:
 260:src/APP.cpp   **** }
 1763              		.loc 1 260 1
 1764 0c90 83308104 		ld	ra,72(sp)
 1765              		.cfi_restore 1
 1766 0c94 03340104 		ld	s0,64(sp)
 1767              		.cfi_restore 8
 1768              		.cfi_def_cfa 2, 80
 1769 0c98 83348103 		ld	s1,56(sp)
 1770              		.cfi_restore 9
 1771              	.LVL253:
 1772 0c9c 03390103 		ld	s2,48(sp)
 1773              		.cfi_restore 18
 1774 0ca0 83398102 		ld	s3,40(sp)
 1775              		.cfi_restore 19
 1776 0ca4 033A0102 		ld	s4,32(sp)
 1777              		.cfi_restore 20
 1778              	.LVL254:
 1779 0ca8 833A8101 		ld	s5,24(sp)
 1780              		.cfi_restore 21
 1781              	.LVL255:
 1782 0cac 033B0101 		ld	s6,16(sp)
 1783              		.cfi_restore 22
 1784 0cb0 833B8100 		ld	s7,8(sp)
GAS LISTING /tmp/ccDb2nWZ.s 			page 48


 1785              		.cfi_restore 23
 1786 0cb4 13010105 		addi	sp,sp,80
 1787              		.cfi_def_cfa_offset 0
 1788 0cb8 67800000 		jr	ra
 1789              		.cfi_endproc
 1790              	.LFE20:
 1792              		.section	.rodata.str1.8
 1793 01d1 00000000 		.align	3
 1793      000000
 1794              	.LC17:
 1795 01d8 3D3D3D20 		.string	"=== Testing \"testMemoryAllocator\""
 1795      54657374 
 1795      696E6720 
 1795      22746573 
 1795      744D656D 
 1796 01fa 00000000 		.align	3
 1796      0000
 1797              	.LC18:
 1798 0200 3D3D3D20 		.string	"=== PASS in testing memory allocator"
 1798      50415353 
 1798      20696E20 
 1798      74657374 
 1798      696E6720 
 1799              		.text
 1800              		.align	2
 1801              		.globl	_Z19testMemoryAllocatorv
 1803              	_Z19testMemoryAllocatorv:
 1804              	.LFB21:
 261:src/APP.cpp   **** 
 262:src/APP.cpp   **** void testMemoryAllocator()
 263:src/APP.cpp   **** {
 1805              		.loc 1 263 1 is_stmt 1
 1806              		.cfi_startproc
 1807 0cbc 130101FD 		addi	sp,sp,-48
 1808              		.cfi_def_cfa_offset 48
 1809 0cc0 23341102 		sd	ra,40(sp)
 1810 0cc4 23308102 		sd	s0,32(sp)
 1811 0cc8 233C9100 		sd	s1,24(sp)
 1812 0ccc 23382101 		sd	s2,16(sp)
 1813 0cd0 23343101 		sd	s3,8(sp)
 1814              		.cfi_offset 1, -8
 1815              		.cfi_offset 8, -16
 1816              		.cfi_offset 9, -24
 1817              		.cfi_offset 18, -32
 1818              		.cfi_offset 19, -40
 1819 0cd4 13040103 		addi	s0,sp,48
 1820              		.cfi_def_cfa 8, 0
 264:src/APP.cpp   ****     putString("=== Testing \"testMemoryAllocator\"");
 1821              		.loc 1 264 5
 1822              		.loc 1 264 14 is_stmt 0
 1823 0cd8 17050000 		lla	a0,.LC17
 1823      13050500 
 1824 0ce0 97000000 		call	_Z9putStringPKc@plt
 1824      E7800000 
 1825              	.LVL256:
 265:src/APP.cpp   ****     putNewline();
 1826              		.loc 1 265 5 is_stmt 1
GAS LISTING /tmp/ccDb2nWZ.s 			page 49


 1827              		.loc 1 265 15 is_stmt 0
 1828 0ce8 97000000 		call	_Z10putNewlinev@plt
 1828      E7800000 
 1829              	.LVL257:
 266:src/APP.cpp   ****     int n = 1000;
 1830              		.loc 1 266 5 is_stmt 1
 267:src/APP.cpp   ****     int **a;
 1831              		.loc 1 267 5
 268:src/APP.cpp   ****     a = (int**)mem_alloc(n * sizeof(void*));
 1832              		.loc 1 268 5
 1833              		.loc 1 268 25 is_stmt 0
 1834 0cf0 37250000 		li	a0,8192
 1835 0cf4 130505F4 		addi	a0,a0,-192
 1836 0cf8 97000000 		call	_Z9mem_allocm@plt
 1836      E7800000 
 1837              	.LVL258:
 1838 0d00 93090500 		mv	s3,a0
 1839              	.LVL259:
 269:src/APP.cpp   ****     for(int i=0; i<n; i++)
 1840              		.loc 1 269 5 is_stmt 1
 1841              	.LBB121:
 1842              		.loc 1 269 13 is_stmt 0
 1843 0d04 93040000 		li	s1,0
 1844              	.LVL260:
 1845              	.L74:
 1846              		.loc 1 269 19 is_stmt 1 discriminator 3
 1847 0d08 9307703E 		li	a5,999
 1848 0d0c 63C49702 		bgt	s1,a5,.L80
 270:src/APP.cpp   ****     {
 271:src/APP.cpp   ****         a[i] = (int*)mem_alloc(sizeof(int));
 1849              		.loc 1 271 9 discriminator 2
 1850              		.loc 1 271 12 is_stmt 0 discriminator 2
 1851 0d10 13993400 		slli	s2,s1,3
 1852 0d14 33892901 		add	s2,s3,s2
 1853              		.loc 1 271 31 discriminator 2
 1854 0d18 13054000 		li	a0,4
 1855 0d1c 97000000 		call	_Z9mem_allocm@plt
 1855      E7800000 
 1856              	.LVL261:
 1857              		.loc 1 271 14 discriminator 2
 1858 0d24 2330A900 		sd	a0,0(s2)
 272:src/APP.cpp   ****         *a[i] = i;
 1859              		.loc 1 272 9 is_stmt 1 discriminator 2
 1860              		.loc 1 272 15 is_stmt 0 discriminator 2
 1861 0d28 23209500 		sw	s1,0(a0)
 269:src/APP.cpp   ****     for(int i=0; i<n; i++)
 1862              		.loc 1 269 5 is_stmt 1 discriminator 2
 1863 0d2c 9B841400 		addiw	s1,s1,1
 1864              	.LVL262:
 1865 0d30 6FF09FFD 		j	.L74
 1866              	.LVL263:
 1867              	.L80:
 1868              	.LBE121:
 1869              	.LBB122:
 273:src/APP.cpp   ****     }
 274:src/APP.cpp   **** 
 275:src/APP.cpp   ****     int result = 0;
GAS LISTING /tmp/ccDb2nWZ.s 			page 50


 276:src/APP.cpp   ****     for(int i=0; i<n; i++)
 1870              		.loc 1 276 13 is_stmt 0
 1871 0d34 93070000 		li	a5,0
 1872              	.LBE122:
 275:src/APP.cpp   ****     for(int i=0; i<n; i++)
 1873              		.loc 1 275 9
 1874 0d38 93060000 		li	a3,0
 1875              	.L73:
 1876              	.LVL264:
 1877              	.LBB123:
 1878              		.loc 1 276 19 is_stmt 1 discriminator 3
 1879 0d3c 1307703E 		li	a4,999
 1880 0d40 6340F702 		bgt	a5,a4,.L75
 277:src/APP.cpp   ****     {
 278:src/APP.cpp   ****         result += *a[i];
 1881              		.loc 1 278 9 discriminator 2
 1882              		.loc 1 278 23 is_stmt 0 discriminator 2
 1883 0d44 13973700 		slli	a4,a5,3
 1884 0d48 3387E900 		add	a4,s3,a4
 1885 0d4c 03370700 		ld	a4,0(a4)
 1886              		.loc 1 278 19 discriminator 2
 1887 0d50 03270700 		lw	a4,0(a4)
 1888              		.loc 1 278 16 discriminator 2
 1889 0d54 BB06D700 		addw	a3,a4,a3
 1890              	.LVL265:
 276:src/APP.cpp   ****     {
 1891              		.loc 1 276 5 is_stmt 1 discriminator 2
 1892 0d58 9B871700 		addiw	a5,a5,1
 1893              	.LVL266:
 1894 0d5c 6FF01FFE 		j	.L73
 1895              	.LVL267:
 1896              	.L75:
 1897              	.LBE123:
 279:src/APP.cpp   ****     }
 280:src/APP.cpp   **** 
 281:src/APP.cpp   **** //    uint64 vau = n * sizeof(void*);
 282:src/APP.cpp   **** //    if(n % MEM_BLOCK_SIZE != 0)
 283:src/APP.cpp   **** //        vau +=  MEM_BLOCK_SIZE - ((sizeof(int)* n) % MEM_BLOCK_SIZE);
 284:src/APP.cpp   **** //    vau += MEM_BLOCK_SIZE * n;
 285:src/APP.cpp   **** //    assert(MemAlloc::get()->getUserlandUsage() == vau);
 286:src/APP.cpp   **** 
 287:src/APP.cpp   **** //    putInt(result);
 288:src/APP.cpp   **** //    putNewline();
 289:src/APP.cpp   **** 
 290:src/APP.cpp   ****     assert(result == (n-1) * n / 2);
 1898              		.loc 1 290 5
 1899 0d60 B7A70700 		li	a5,499712
 1900              	.LVL268:
 1901 0d64 9387C7F2 		addi	a5,a5,-212
 1902              	.LVL269:
 1903              	.LBB124:
 1904              	.LBB125:
  20:src/../h/my_console.h ****         return;
 1905              		.loc 2 20 5
 1906 0d68 6398F602 		bne	a3,a5,.L83
 1907              	.LBE125:
 1908              	.LBE124:
GAS LISTING /tmp/ccDb2nWZ.s 			page 51


 1909              	.LBB127:
 291:src/APP.cpp   **** 
 292:src/APP.cpp   **** //    uint64 oldTaken = MemAlloc::get()->getUserlandUsage();
 293:src/APP.cpp   **** //    uint64 newTaken;
 294:src/APP.cpp   **** 
 295:src/APP.cpp   ****     int t;
 296:src/APP.cpp   ****     for(int i=0; i<n; i++)
 1910              		.loc 1 296 13 is_stmt 0
 1911 0d6c 93040000 		li	s1,0
 1912              	.LVL270:
 1913              	.L76:
 1914              		.loc 1 296 19 is_stmt 1 discriminator 3
 1915 0d70 9307703E 		li	a5,999
 1916 0d74 63CE970C 		bgt	s1,a5,.L77
 297:src/APP.cpp   ****     {
 298:src/APP.cpp   ****         t = mem_free(a[i]);
 1917              		.loc 1 298 9 discriminator 2
 1918              		.loc 1 298 25 is_stmt 0 discriminator 2
 1919 0d78 93973400 		slli	a5,s1,3
 1920 0d7c B387F900 		add	a5,s3,a5
 1921              		.loc 1 298 21 discriminator 2
 1922 0d80 03B50700 		ld	a0,0(a5)
 1923 0d84 97000000 		call	_Z8mem_freePv@plt
 1923      E7800000 
 1924              	.LVL271:
 299:src/APP.cpp   ****         assert(t == 0);
 1925              		.loc 1 299 9 is_stmt 1 discriminator 2
 1926              	.LBB128:
 1927              	.LBB129:
  20:src/../h/my_console.h ****         return;
 1928              		.loc 2 20 5 discriminator 2
 1929 0d8c 63140506 		bnez	a0,.L84
  21:src/../h/my_console.h **** 
 1930              		.loc 2 21 9 discriminator 2
 1931              	.LVL272:
 1932              	.LBE129:
 1933              	.LBE128:
 296:src/APP.cpp   ****     {
 1934              		.loc 1 296 5 discriminator 2
 1935 0d90 9B841400 		addiw	s1,s1,1
 1936              	.LVL273:
 1937 0d94 6FF0DFFD 		j	.L76
 1938              	.LVL274:
 1939              	.L83:
 1940              	.LBE127:
 1941              	.LBB132:
 1942              	.LBB126:
  23:src/../h/my_console.h ****     putString(file);
 1943              		.loc 2 23 5
  23:src/../h/my_console.h ****     putString(file);
 1944              		.loc 2 23 14 is_stmt 0
 1945 0d98 17050000 		lla	a0,.LC5
 1945      13050500 
 1946 0da0 97000000 		call	_Z9putStringPKc@plt
 1946      E7800000 
 1947              	.LVL275:
  24:src/../h/my_console.h ****     putString("    line: ");
GAS LISTING /tmp/ccDb2nWZ.s 			page 52


 1948              		.loc 2 24 5 is_stmt 1
  24:src/../h/my_console.h ****     putString("    line: ");
 1949              		.loc 2 24 14 is_stmt 0
 1950 0da8 17050000 		lla	a0,.LC6
 1950      13050500 
 1951 0db0 97000000 		call	_Z9putStringPKc@plt
 1951      E7800000 
 1952              	.LVL276:
  25:src/../h/my_console.h ****     putInt(line);
 1953              		.loc 2 25 5 is_stmt 1
  25:src/../h/my_console.h ****     putInt(line);
 1954              		.loc 2 25 14 is_stmt 0
 1955 0db8 17050000 		lla	a0,.LC7
 1955      13050500 
 1956 0dc0 97000000 		call	_Z9putStringPKc@plt
 1956      E7800000 
 1957              	.LVL277:
  26:src/../h/my_console.h ****     putString("   ===========================");
 1958              		.loc 2 26 5 is_stmt 1
  26:src/../h/my_console.h ****     putString("   ===========================");
 1959              		.loc 2 26 11 is_stmt 0
 1960 0dc8 13052012 		li	a0,290
 1961 0dcc 97000000 		call	_Z6putInti@plt
 1961      E7800000 
 1962              	.LVL278:
  27:src/../h/my_console.h ****     putNewline();
 1963              		.loc 2 27 5 is_stmt 1
  27:src/../h/my_console.h ****     putNewline();
 1964              		.loc 2 27 14 is_stmt 0
 1965 0dd4 17050000 		lla	a0,.LC8
 1965      13050500 
 1966 0ddc 97000000 		call	_Z9putStringPKc@plt
 1966      E7800000 
 1967              	.LVL279:
  28:src/../h/my_console.h **** 
 1968              		.loc 2 28 5 is_stmt 1
  28:src/../h/my_console.h **** 
 1969              		.loc 2 28 15 is_stmt 0
 1970 0de4 97000000 		call	_Z10putNewlinev@plt
 1970      E7800000 
 1971              	.LVL280:
 1972              		.loc 2 30 5 is_stmt 1
 1973              		.loc 2 30 15 is_stmt 0
 1974 0dec 97000000 		call	_Z10stopKernelv@plt
 1974      E7800000 
 1975              	.LVL281:
 1976              	.L84:
 1977              	.LBE126:
 1978              	.LBE132:
 1979              	.LBB133:
 1980              	.LBB131:
 1981              	.LBB130:
  23:src/../h/my_console.h ****     putString(file);
 1982              		.loc 2 23 5 is_stmt 1
  23:src/../h/my_console.h ****     putString(file);
 1983              		.loc 2 23 14 is_stmt 0
 1984 0df4 17050000 		lla	a0,.LC5
GAS LISTING /tmp/ccDb2nWZ.s 			page 53


 1984      13050500 
 1985              	.LVL282:
 1986 0dfc 97000000 		call	_Z9putStringPKc@plt
 1986      E7800000 
 1987              	.LVL283:
  24:src/../h/my_console.h ****     putString("    line: ");
 1988              		.loc 2 24 5 is_stmt 1
  24:src/../h/my_console.h ****     putString("    line: ");
 1989              		.loc 2 24 14 is_stmt 0
 1990 0e04 17050000 		lla	a0,.LC6
 1990      13050500 
 1991 0e0c 97000000 		call	_Z9putStringPKc@plt
 1991      E7800000 
 1992              	.LVL284:
  25:src/../h/my_console.h ****     putInt(line);
 1993              		.loc 2 25 5 is_stmt 1
  25:src/../h/my_console.h ****     putInt(line);
 1994              		.loc 2 25 14 is_stmt 0
 1995 0e14 17050000 		lla	a0,.LC7
 1995      13050500 
 1996 0e1c 97000000 		call	_Z9putStringPKc@plt
 1996      E7800000 
 1997              	.LVL285:
  26:src/../h/my_console.h ****     putString("   ===========================");
 1998              		.loc 2 26 5 is_stmt 1
  26:src/../h/my_console.h ****     putString("   ===========================");
 1999              		.loc 2 26 11 is_stmt 0
 2000 0e24 1305B012 		li	a0,299
 2001 0e28 97000000 		call	_Z6putInti@plt
 2001      E7800000 
 2002              	.LVL286:
  27:src/../h/my_console.h ****     putNewline();
 2003              		.loc 2 27 5 is_stmt 1
  27:src/../h/my_console.h ****     putNewline();
 2004              		.loc 2 27 14 is_stmt 0
 2005 0e30 17050000 		lla	a0,.LC8
 2005      13050500 
 2006 0e38 97000000 		call	_Z9putStringPKc@plt
 2006      E7800000 
 2007              	.LVL287:
  28:src/../h/my_console.h **** 
 2008              		.loc 2 28 5 is_stmt 1
  28:src/../h/my_console.h **** 
 2009              		.loc 2 28 15 is_stmt 0
 2010 0e40 97000000 		call	_Z10putNewlinev@plt
 2010      E7800000 
 2011              	.LVL288:
 2012              		.loc 2 30 5 is_stmt 1
 2013              		.loc 2 30 15 is_stmt 0
 2014 0e48 97000000 		call	_Z10stopKernelv@plt
 2014      E7800000 
 2015              	.LVL289:
 2016              	.L77:
 2017              	.LBE130:
 2018              	.LBE131:
 2019              	.LBE133:
 300:src/APP.cpp   **** 
GAS LISTING /tmp/ccDb2nWZ.s 			page 54


 301:src/APP.cpp   **** //        newTaken = MemAlloc::get()->getUserlandUsage();
 302:src/APP.cpp   **** //        assert(oldTaken - newTaken == MEM_BLOCK_SIZE);
 303:src/APP.cpp   ****     }
 304:src/APP.cpp   **** 
 305:src/APP.cpp   **** //    assert(MemAlloc::get()->getUserlandUsage() == MEM_BLOCK_SIZE);
 306:src/APP.cpp   **** 
 307:src/APP.cpp   ****     t = mem_free(a);
 2020              		.loc 1 307 5 is_stmt 1
 2021              		.loc 1 307 17 is_stmt 0
 2022 0e50 13850900 		mv	a0,s3
 2023 0e54 97000000 		call	_Z8mem_freePv@plt
 2023      E7800000 
 2024              	.LVL290:
 308:src/APP.cpp   ****     assert(t == 0);
 2025              		.loc 1 308 5 is_stmt 1
 2026              	.LBB134:
 2027              	.LBB135:
  20:src/../h/my_console.h ****         return;
 2028              		.loc 2 20 5
 2029 0e5c 631C0502 		bnez	a0,.L85
  21:src/../h/my_console.h **** 
 2030              		.loc 2 21 9
 2031              	.LVL291:
 2032              	.LBE135:
 2033              	.LBE134:
 309:src/APP.cpp   **** 
 310:src/APP.cpp   **** //    assert(MemAlloc::get()->getUserlandUsage() == IThread::initialUserMemoryUsage);
 311:src/APP.cpp   ****     putString("=== PASS in testing memory allocator");
 2034              		.loc 1 311 5
 2035              		.loc 1 311 14 is_stmt 0
 2036 0e60 17050000 		lla	a0,.LC18
 2036      13050500 
 2037              	.LVL292:
 2038 0e68 97000000 		call	_Z9putStringPKc@plt
 2038      E7800000 
 2039              	.LVL293:
 312:src/APP.cpp   ****     putNewline();
 2040              		.loc 1 312 5 is_stmt 1
 2041              		.loc 1 312 15 is_stmt 0
 2042 0e70 97000000 		call	_Z10putNewlinev@plt
 2042      E7800000 
 2043              	.LVL294:
 313:src/APP.cpp   **** }
 2044              		.loc 1 313 1
 2045 0e78 83308102 		ld	ra,40(sp)
 2046              		.cfi_remember_state
 2047              		.cfi_restore 1
 2048 0e7c 03340102 		ld	s0,32(sp)
 2049              		.cfi_restore 8
 2050              		.cfi_def_cfa 2, 48
 2051 0e80 83348101 		ld	s1,24(sp)
 2052              		.cfi_restore 9
 2053              	.LVL295:
 2054 0e84 03390101 		ld	s2,16(sp)
 2055              		.cfi_restore 18
 2056 0e88 83398100 		ld	s3,8(sp)
 2057              		.cfi_restore 19
GAS LISTING /tmp/ccDb2nWZ.s 			page 55


 2058              	.LVL296:
 2059 0e8c 13010103 		addi	sp,sp,48
 2060              		.cfi_def_cfa_offset 0
 2061 0e90 67800000 		jr	ra
 2062              	.LVL297:
 2063              	.L85:
 2064              		.cfi_restore_state
 2065              	.LBB137:
 2066              	.LBB136:
  23:src/../h/my_console.h ****     putString(file);
 2067              		.loc 2 23 5 is_stmt 1
  23:src/../h/my_console.h ****     putString(file);
 2068              		.loc 2 23 14 is_stmt 0
 2069 0e94 17050000 		lla	a0,.LC5
 2069      13050500 
 2070              	.LVL298:
 2071 0e9c 97000000 		call	_Z9putStringPKc@plt
 2071      E7800000 
 2072              	.LVL299:
  24:src/../h/my_console.h ****     putString("    line: ");
 2073              		.loc 2 24 5 is_stmt 1
  24:src/../h/my_console.h ****     putString("    line: ");
 2074              		.loc 2 24 14 is_stmt 0
 2075 0ea4 17050000 		lla	a0,.LC6
 2075      13050500 
 2076 0eac 97000000 		call	_Z9putStringPKc@plt
 2076      E7800000 
 2077              	.LVL300:
  25:src/../h/my_console.h ****     putInt(line);
 2078              		.loc 2 25 5 is_stmt 1
  25:src/../h/my_console.h ****     putInt(line);
 2079              		.loc 2 25 14 is_stmt 0
 2080 0eb4 17050000 		lla	a0,.LC7
 2080      13050500 
 2081 0ebc 97000000 		call	_Z9putStringPKc@plt
 2081      E7800000 
 2082              	.LVL301:
  26:src/../h/my_console.h ****     putString("   ===========================");
 2083              		.loc 2 26 5 is_stmt 1
  26:src/../h/my_console.h ****     putString("   ===========================");
 2084              		.loc 2 26 11 is_stmt 0
 2085 0ec4 13054013 		li	a0,308
 2086 0ec8 97000000 		call	_Z6putInti@plt
 2086      E7800000 
 2087              	.LVL302:
  27:src/../h/my_console.h ****     putNewline();
 2088              		.loc 2 27 5 is_stmt 1
  27:src/../h/my_console.h ****     putNewline();
 2089              		.loc 2 27 14 is_stmt 0
 2090 0ed0 17050000 		lla	a0,.LC8
 2090      13050500 
 2091 0ed8 97000000 		call	_Z9putStringPKc@plt
 2091      E7800000 
 2092              	.LVL303:
  28:src/../h/my_console.h **** 
 2093              		.loc 2 28 5 is_stmt 1
  28:src/../h/my_console.h **** 
GAS LISTING /tmp/ccDb2nWZ.s 			page 56


 2094              		.loc 2 28 15 is_stmt 0
 2095 0ee0 97000000 		call	_Z10putNewlinev@plt
 2095      E7800000 
 2096              	.LVL304:
 2097              		.loc 2 30 5 is_stmt 1
 2098              		.loc 2 30 15 is_stmt 0
 2099 0ee8 97000000 		call	_Z10stopKernelv@plt
 2099      E7800000 
 2100              	.LVL305:
 2101              	.LBE136:
 2102              	.LBE137:
 2103              		.cfi_endproc
 2104              	.LFE21:
 2106              		.globl	sliceSecondCounter
 2107              		.globl	sliceFirstCounter
 2108              		.bss
 2109              		.align	2
 2110              		.set	.LANCHOR0,. + 0
 2113              	sliceFirstCounter:
 2114 0000 00000000 		.zero	4
 2117              	sliceSecondCounter:
 2118 0004 00000000 		.zero	4
 2119              		.text
 2120              	.Letext0:
 2121              		.file 3 "src/../h/../lib/hw.h"
 2122              		.file 4 "src/../h/syscall_c.hpp"
 2123              		.file 5 "src/../h/../h/risc.h"
GAS LISTING /tmp/ccDb2nWZ.s 			page 57


DEFINED SYMBOLS
                            *ABS*:0000000000000000 APP.cpp
     /tmp/ccDb2nWZ.s:17     .text:0000000000000000 _Z10myUserMainv
     /tmp/ccDb2nWZ.s:21     .text:0000000000000000 .L0 
     /tmp/ccDb2nWZ.s:22     .text:0000000000000000 .L0 
     /tmp/ccDb2nWZ.s:23     .text:0000000000000004 .L0 
     /tmp/ccDb2nWZ.s:26     .text:000000000000000c .L0 
     /tmp/ccDb2nWZ.s:27     .text:000000000000000c .L0 
     /tmp/ccDb2nWZ.s:29     .text:0000000000000010 .L0 
     /tmp/ccDb2nWZ.s:31     .text:0000000000000010 .L0 
         src/APP.cpp:19     .text:0000000000000010 .L0 
     /tmp/ccDb2nWZ.s:37     .text:0000000000000014 .L0 
     /tmp/ccDb2nWZ.s:39     .text:0000000000000014 .L0 
     /tmp/ccDb2nWZ.s:43     .text:0000000000000024 .L0 
     /tmp/ccDb2nWZ.s:44     .text:0000000000000024 .L0 
     /tmp/ccDb2nWZ.s:47     .text:000000000000002c .L0 
         src/APP.cpp:30     .text:000000000000002c .L0 
     /tmp/ccDb2nWZ.s:53     .text:0000000000000030 .L0 
     /tmp/ccDb2nWZ.s:55     .text:0000000000000030 .L0 
     /tmp/ccDb2nWZ.s:59     .text:000000000000003c .L0 
         src/APP.cpp:32     .text:000000000000003c .L0 
     /tmp/ccDb2nWZ.s:65     .text:0000000000000040 .L0 
     /tmp/ccDb2nWZ.s:67     .text:0000000000000040 .L0 
     /tmp/ccDb2nWZ.s:71     .text:0000000000000050 .L0 
     /tmp/ccDb2nWZ.s:72     .text:0000000000000050 .L0 
     /tmp/ccDb2nWZ.s:75     .text:0000000000000058 .L0 
     /tmp/ccDb2nWZ.s:76     .text:000000000000005c .L0 
     /tmp/ccDb2nWZ.s:78     .text:0000000000000060 .L0 
     /tmp/ccDb2nWZ.s:79     .text:0000000000000060 .L0 
     /tmp/ccDb2nWZ.s:81     .text:0000000000000064 .L0 
     /tmp/ccDb2nWZ.s:83     .text:0000000000000068 .L0 
     /tmp/ccDb2nWZ.s:97     .text:0000000000000068 _Z13testTimeSleepv
     /tmp/ccDb2nWZ.s:100    .text:0000000000000068 .L0 
     /tmp/ccDb2nWZ.s:101    .text:0000000000000068 .L0 
     /tmp/ccDb2nWZ.s:102    .text:000000000000006c .L0 
     /tmp/ccDb2nWZ.s:105    .text:0000000000000074 .L0 
     /tmp/ccDb2nWZ.s:106    .text:0000000000000074 .L0 
     /tmp/ccDb2nWZ.s:108    .text:0000000000000078 .L0 
     /tmp/ccDb2nWZ.s:110    .text:0000000000000078 .L0 
     /tmp/ccDb2nWZ.s:111    .text:0000000000000078 .L0 
     /tmp/ccDb2nWZ.s:115    .text:0000000000000088 .L0 
     /tmp/ccDb2nWZ.s:116    .text:0000000000000088 .L0 
     /tmp/ccDb2nWZ.s:119    .text:0000000000000090 .L0 
     /tmp/ccDb2nWZ.s:120    .text:0000000000000090 .L0 
     /tmp/ccDb2nWZ.s:121    .text:0000000000000090 .L0 
     /tmp/ccDb2nWZ.s:124    .text:0000000000000098 .L0 
     /tmp/ccDb2nWZ.s:125    .text:0000000000000098 .L0 
     /tmp/ccDb2nWZ.s:128    .text:00000000000000a0 .L0 
     /tmp/ccDb2nWZ.s:129    .text:00000000000000a0 .L0 
     /tmp/ccDb2nWZ.s:130    .text:00000000000000a0 .L0 
     /tmp/ccDb2nWZ.s:884    .text:0000000000000600 _Z8doSleepAPv
     /tmp/ccDb2nWZ.s:136    .text:00000000000000b8 .L0 
     /tmp/ccDb2nWZ.s:137    .text:00000000000000b8 .L0 
     /tmp/ccDb2nWZ.s:143    .text:00000000000000d0 .L0 
     /tmp/ccDb2nWZ.s:144    .text:00000000000000d0 .L0 
     /tmp/ccDb2nWZ.s:148    .text:00000000000000dc .L0 
     /tmp/ccDb2nWZ.s:149    .text:00000000000000dc .L0 
GAS LISTING /tmp/ccDb2nWZ.s 			page 58


     /tmp/ccDb2nWZ.s:153    .text:00000000000000e8 .L0 
     /tmp/ccDb2nWZ.s:154    .text:00000000000000e8 .L0 
     /tmp/ccDb2nWZ.s:158    .text:00000000000000f8 .L0 
     /tmp/ccDb2nWZ.s:159    .text:00000000000000f8 .L0 
     /tmp/ccDb2nWZ.s:162    .text:0000000000000100 .L0 
     /tmp/ccDb2nWZ.s:163    .text:0000000000000104 .L0 
     /tmp/ccDb2nWZ.s:165    .text:0000000000000108 .L0 
     /tmp/ccDb2nWZ.s:166    .text:0000000000000108 .L0 
     /tmp/ccDb2nWZ.s:168    .text:000000000000010c .L0 
     /tmp/ccDb2nWZ.s:170    .text:0000000000000110 .L0 
     /tmp/ccDb2nWZ.s:196    .text:0000000000000110 _Z13testTimeSlicev
     /tmp/ccDb2nWZ.s:199    .text:0000000000000110 .L0 
     /tmp/ccDb2nWZ.s:200    .text:0000000000000110 .L0 
     /tmp/ccDb2nWZ.s:201    .text:0000000000000114 .L0 
     /tmp/ccDb2nWZ.s:205    .text:0000000000000120 .L0 
     /tmp/ccDb2nWZ.s:206    .text:0000000000000120 .L0 
     /tmp/ccDb2nWZ.s:207    .text:0000000000000120 .L0 
     /tmp/ccDb2nWZ.s:209    .text:0000000000000124 .L0 
     /tmp/ccDb2nWZ.s:211    .text:0000000000000124 .L0 
     /tmp/ccDb2nWZ.s:212    .text:0000000000000124 .L0 
     /tmp/ccDb2nWZ.s:216    .text:0000000000000134 .L0 
     /tmp/ccDb2nWZ.s:217    .text:0000000000000134 .L0 
     /tmp/ccDb2nWZ.s:220    .text:000000000000013c .L0 
     /tmp/ccDb2nWZ.s:221    .text:000000000000013c .L0 
     /tmp/ccDb2nWZ.s:222    .text:000000000000013c .L0 
     /tmp/ccDb2nWZ.s:223    .text:000000000000013c .L0 
     /tmp/ccDb2nWZ.s:227    .text:0000000000000148 .L0 
     /tmp/ccDb2nWZ.s:228    .text:0000000000000148 .L0 
     /tmp/ccDb2nWZ.s:229    .text:0000000000000148 .L0 
     /tmp/ccDb2nWZ.s:230    .text:0000000000000148 .L0 
     /tmp/ccDb2nWZ.s:231    .text:0000000000000148 .L0 
     /tmp/ccDb2nWZ.s:355    .text:000000000000024c _Z12doSliceFirstPv
     /tmp/ccDb2nWZ.s:238    .text:0000000000000164 .L0 
     /tmp/ccDb2nWZ.s:239    .text:0000000000000164 .L0 
     /tmp/ccDb2nWZ.s:240    .text:0000000000000164 .L0 
     /tmp/ccDb2nWZ.s:475    .text:0000000000000320 _Z13doSliceSecondPv
     /tmp/ccDb2nWZ.s:246    .text:000000000000017c .L0 
     /tmp/ccDb2nWZ.s:247    .text:000000000000017c .L0 
     /tmp/ccDb2nWZ.s:251    .text:0000000000000188 .L0 
     /tmp/ccDb2nWZ.s:252    .text:0000000000000188 .L0 
     /tmp/ccDb2nWZ.s:256    .text:0000000000000194 .L0 
     /tmp/ccDb2nWZ.s:257    .text:0000000000000194 .L0 
     /tmp/ccDb2nWZ.s:261    .text:00000000000001a4 .L0 
     /tmp/ccDb2nWZ.s:264    .text:00000000000001a8 .L0 
     /tmp/ccDb2nWZ.s:268    .text:00000000000001ac .L0 
     /tmp/ccDb2nWZ.s:276    .text:00000000000001b8 .L0 
     /tmp/ccDb2nWZ.s:281    .text:00000000000001bc .L0 
     /tmp/ccDb2nWZ.s:282    .text:00000000000001bc .L0 
     /tmp/ccDb2nWZ.s:283    .text:00000000000001bc .L0 
     /tmp/ccDb2nWZ.s:287    .text:00000000000001cc .L0 
     /tmp/ccDb2nWZ.s:288    .text:00000000000001cc .L0 
     /tmp/ccDb2nWZ.s:291    .text:00000000000001d4 .L0 
     /tmp/ccDb2nWZ.s:292    .text:00000000000001d8 .L0 
     /tmp/ccDb2nWZ.s:293    .text:00000000000001d8 .L0 
     /tmp/ccDb2nWZ.s:295    .text:00000000000001dc .L0 
     /tmp/ccDb2nWZ.s:296    .text:00000000000001dc .L0 
     /tmp/ccDb2nWZ.s:298    .text:00000000000001e0 .L0 
GAS LISTING /tmp/ccDb2nWZ.s 			page 59


     /tmp/ccDb2nWZ.s:300    .text:00000000000001e4 .L0 
     /tmp/ccDb2nWZ.s:304    .text:00000000000001e8 .L0 
     /tmp/ccDb2nWZ.s:306    .text:00000000000001e8 .L0 
     /tmp/ccDb2nWZ.s:307    .text:00000000000001e8 .L0 
     /tmp/ccDb2nWZ.s:315    .text:00000000000001f0 .L0 
     /tmp/ccDb2nWZ.s:316    .text:00000000000001f0 .L0 
     /tmp/ccDb2nWZ.s:320    .text:0000000000000200 .L0 
     /tmp/ccDb2nWZ.s:321    .text:0000000000000200 .L0 
     /tmp/ccDb2nWZ.s:325    .text:0000000000000210 .L0 
     /tmp/ccDb2nWZ.s:326    .text:0000000000000210 .L0 
     /tmp/ccDb2nWZ.s:330    .text:0000000000000220 .L0 
     /tmp/ccDb2nWZ.s:331    .text:0000000000000220 .L0 
     /tmp/ccDb2nWZ.s:335    .text:000000000000022c .L0 
     /tmp/ccDb2nWZ.s:336    .text:000000000000022c .L0 
     /tmp/ccDb2nWZ.s:340    .text:000000000000023c .L0 
     /tmp/ccDb2nWZ.s:341    .text:000000000000023c .L0 
     /tmp/ccDb2nWZ.s:344    .text:0000000000000244 .L0 
     /tmp/ccDb2nWZ.s:345    .text:0000000000000244 .L0 
     /tmp/ccDb2nWZ.s:349    .text:000000000000024c .L0 
     /tmp/ccDb2nWZ.s:358    .text:000000000000024c .L0 
     /tmp/ccDb2nWZ.s:360    .text:000000000000024c .L0 
     /tmp/ccDb2nWZ.s:361    .text:000000000000024c .L0 
     /tmp/ccDb2nWZ.s:362    .text:000000000000024c .L0 
     /tmp/ccDb2nWZ.s:367    .text:0000000000000258 .L0 
     /tmp/ccDb2nWZ.s:368    .text:0000000000000258 .L0 
     /tmp/ccDb2nWZ.s:373    .text:0000000000000260 .L0 
         src/APP.cpp:124    .text:0000000000000260 .L0 
     /tmp/ccDb2nWZ.s:379    .text:0000000000000264 .L0 
     /tmp/ccDb2nWZ.s:381    .text:0000000000000264 .L0 
     /tmp/ccDb2nWZ.s:387    .text:0000000000000278 .L0 
     /tmp/ccDb2nWZ.s:388    .text:0000000000000278 .L0 
     /tmp/ccDb2nWZ.s:394    .text:0000000000000284 .L0 
     /tmp/ccDb2nWZ.s:398    .text:0000000000000288 .L0 
     /tmp/ccDb2nWZ.s:399    .text:0000000000000288 .L0 
     /tmp/ccDb2nWZ.s:401    .text:000000000000028c .L0 
     /tmp/ccDb2nWZ.s:403    .text:0000000000000290 .L0 
     /tmp/ccDb2nWZ.s:404    .text:0000000000000290 .L0 
     /tmp/ccDb2nWZ.s:407    .text:000000000000029c .L0 
     /tmp/ccDb2nWZ.s:412    .text:00000000000002a4 .L0 
     /tmp/ccDb2nWZ.s:417    .text:00000000000002ac .L0 
     /tmp/ccDb2nWZ.s:423    .text:00000000000002b4 .L0 
     /tmp/ccDb2nWZ.s:424    .text:00000000000002b8 .L0 
     /tmp/ccDb2nWZ.s:427    .text:00000000000002c0 .L0 
     /tmp/ccDb2nWZ.s:428    .text:00000000000002c0 .L0 
     /tmp/ccDb2nWZ.s:430    .text:00000000000002c4 .L0 
     /tmp/ccDb2nWZ.s:434    .text:00000000000002c4 .L0 
     /tmp/ccDb2nWZ.s:435    .text:00000000000002c4 .L0 
     /tmp/ccDb2nWZ.s:440    .text:00000000000002d4 .L0 
     /tmp/ccDb2nWZ.s:441    .text:00000000000002d4 .L0 
     /tmp/ccDb2nWZ.s:445    .text:00000000000002e4 .L0 
     /tmp/ccDb2nWZ.s:446    .text:00000000000002e4 .L0 
     /tmp/ccDb2nWZ.s:450    .text:00000000000002f4 .L0 
     /tmp/ccDb2nWZ.s:451    .text:00000000000002f4 .L0 
     /tmp/ccDb2nWZ.s:455    .text:0000000000000300 .L0 
     /tmp/ccDb2nWZ.s:456    .text:0000000000000300 .L0 
     /tmp/ccDb2nWZ.s:460    .text:0000000000000310 .L0 
     /tmp/ccDb2nWZ.s:461    .text:0000000000000310 .L0 
GAS LISTING /tmp/ccDb2nWZ.s 			page 60


     /tmp/ccDb2nWZ.s:464    .text:0000000000000318 .L0 
     /tmp/ccDb2nWZ.s:465    .text:0000000000000318 .L0 
     /tmp/ccDb2nWZ.s:469    .text:0000000000000320 .L0 
     /tmp/ccDb2nWZ.s:478    .text:0000000000000320 .L0 
     /tmp/ccDb2nWZ.s:480    .text:0000000000000320 .L0 
     /tmp/ccDb2nWZ.s:481    .text:0000000000000324 .L0 
     /tmp/ccDb2nWZ.s:484    .text:000000000000032c .L0 
     /tmp/ccDb2nWZ.s:485    .text:000000000000032c .L0 
     /tmp/ccDb2nWZ.s:487    .text:0000000000000330 .L0 
     /tmp/ccDb2nWZ.s:489    .text:0000000000000330 .L0 
     /tmp/ccDb2nWZ.s:490    .text:0000000000000330 .L0 
     /tmp/ccDb2nWZ.s:493    .text:0000000000000334 .L0 
     /tmp/ccDb2nWZ.s:494    .text:0000000000000334 .L0 
     /tmp/ccDb2nWZ.s:499    .text:0000000000000340 .L0 
     /tmp/ccDb2nWZ.s:500    .text:0000000000000340 .L0 
     /tmp/ccDb2nWZ.s:507    .text:0000000000000348 .L0 
     /tmp/ccDb2nWZ.s:508    .text:0000000000000348 .L0 
     /tmp/ccDb2nWZ.s:513    .text:0000000000000358 .L0 
     /tmp/ccDb2nWZ.s:514    .text:0000000000000358 .L0 
     /tmp/ccDb2nWZ.s:518    .text:0000000000000368 .L0 
     /tmp/ccDb2nWZ.s:519    .text:0000000000000368 .L0 
     /tmp/ccDb2nWZ.s:523    .text:0000000000000378 .L0 
     /tmp/ccDb2nWZ.s:524    .text:0000000000000378 .L0 
     /tmp/ccDb2nWZ.s:528    .text:0000000000000384 .L0 
     /tmp/ccDb2nWZ.s:529    .text:0000000000000384 .L0 
     /tmp/ccDb2nWZ.s:533    .text:0000000000000394 .L0 
     /tmp/ccDb2nWZ.s:534    .text:0000000000000394 .L0 
     /tmp/ccDb2nWZ.s:537    .text:000000000000039c .L0 
     /tmp/ccDb2nWZ.s:538    .text:000000000000039c .L0 
     /tmp/ccDb2nWZ.s:546    .text:00000000000003a4 .L0 
     /tmp/ccDb2nWZ.s:547    .text:00000000000003a4 .L0 
     /tmp/ccDb2nWZ.s:552    .text:00000000000003b4 .L0 
     /tmp/ccDb2nWZ.s:553    .text:00000000000003b4 .L0 
     /tmp/ccDb2nWZ.s:557    .text:00000000000003c4 .L0 
     /tmp/ccDb2nWZ.s:558    .text:00000000000003c4 .L0 
     /tmp/ccDb2nWZ.s:562    .text:00000000000003d4 .L0 
     /tmp/ccDb2nWZ.s:563    .text:00000000000003d4 .L0 
     /tmp/ccDb2nWZ.s:567    .text:00000000000003e0 .L0 
     /tmp/ccDb2nWZ.s:568    .text:00000000000003e0 .L0 
     /tmp/ccDb2nWZ.s:572    .text:00000000000003f0 .L0 
     /tmp/ccDb2nWZ.s:573    .text:00000000000003f0 .L0 
     /tmp/ccDb2nWZ.s:576    .text:00000000000003f8 .L0 
     /tmp/ccDb2nWZ.s:577    .text:00000000000003f8 .L0 
     /tmp/ccDb2nWZ.s:583    .text:0000000000000400 .L0 
         src/APP.cpp:152    .text:0000000000000400 .L0 
     /tmp/ccDb2nWZ.s:590    .text:0000000000000404 .L0 
     /tmp/ccDb2nWZ.s:594    .text:0000000000000408 .L0 
     /tmp/ccDb2nWZ.s:596    .text:000000000000040c .L0 
         src/APP.cpp:140    .text:000000000000040c .L0 
     /tmp/ccDb2nWZ.s:603    .text:0000000000000410 .L0 
     /tmp/ccDb2nWZ.s:608    .text:0000000000000414 .L0 
     /tmp/ccDb2nWZ.s:613    .text:0000000000000418 .L0 
     /tmp/ccDb2nWZ.s:614    .text:0000000000000418 .L0 
     /tmp/ccDb2nWZ.s:615    .text:0000000000000418 .L0 
     /tmp/ccDb2nWZ.s:618    .text:0000000000000424 .L0 
     /tmp/ccDb2nWZ.s:620    .text:0000000000000428 .L0 
         src/APP.cpp:145    .text:0000000000000428 .L0 
GAS LISTING /tmp/ccDb2nWZ.s 			page 61


     /tmp/ccDb2nWZ.s:626    .text:000000000000042c .L0 
     /tmp/ccDb2nWZ.s:628    .text:000000000000042c .L0 
     /tmp/ccDb2nWZ.s:634    .text:0000000000000440 .L0 
     /tmp/ccDb2nWZ.s:641    .text:000000000000044c .L0 
     /tmp/ccDb2nWZ.s:646    .text:0000000000000450 .L0 
     /tmp/ccDb2nWZ.s:647    .text:0000000000000450 .L0 
     /tmp/ccDb2nWZ.s:648    .text:0000000000000450 .L0 
     /tmp/ccDb2nWZ.s:656    .text:0000000000000460 .L0 
     /tmp/ccDb2nWZ.s:661    .text:0000000000000468 .L0 
     /tmp/ccDb2nWZ.s:665    .text:000000000000046c .L0 
     /tmp/ccDb2nWZ.s:666    .text:0000000000000470 .L0 
     /tmp/ccDb2nWZ.s:667    .text:0000000000000470 .L0 
     /tmp/ccDb2nWZ.s:669    .text:0000000000000474 .L0 
     /tmp/ccDb2nWZ.s:670    .text:0000000000000474 .L0 
     /tmp/ccDb2nWZ.s:672    .text:0000000000000478 .L0 
     /tmp/ccDb2nWZ.s:675    .text:000000000000047c .L0 
     /tmp/ccDb2nWZ.s:679    .text:000000000000047c .L0 
     /tmp/ccDb2nWZ.s:680    .text:000000000000047c .L0 
     /tmp/ccDb2nWZ.s:685    .text:000000000000048c .L0 
     /tmp/ccDb2nWZ.s:686    .text:000000000000048c .L0 
     /tmp/ccDb2nWZ.s:690    .text:000000000000049c .L0 
     /tmp/ccDb2nWZ.s:691    .text:000000000000049c .L0 
     /tmp/ccDb2nWZ.s:695    .text:00000000000004ac .L0 
     /tmp/ccDb2nWZ.s:696    .text:00000000000004ac .L0 
     /tmp/ccDb2nWZ.s:700    .text:00000000000004b8 .L0 
     /tmp/ccDb2nWZ.s:701    .text:00000000000004b8 .L0 
     /tmp/ccDb2nWZ.s:705    .text:00000000000004c8 .L0 
     /tmp/ccDb2nWZ.s:706    .text:00000000000004c8 .L0 
     /tmp/ccDb2nWZ.s:709    .text:00000000000004d0 .L0 
     /tmp/ccDb2nWZ.s:710    .text:00000000000004d0 .L0 
     /tmp/ccDb2nWZ.s:714    .text:00000000000004d8 .L0 
     /tmp/ccDb2nWZ.s:728    .text:00000000000004d8 _Z12testSyncCallv
     /tmp/ccDb2nWZ.s:731    .text:00000000000004d8 .L0 
     /tmp/ccDb2nWZ.s:732    .text:00000000000004d8 .L0 
     /tmp/ccDb2nWZ.s:733    .text:00000000000004dc .L0 
     /tmp/ccDb2nWZ.s:736    .text:00000000000004e4 .L0 
     /tmp/ccDb2nWZ.s:737    .text:00000000000004e4 .L0 
     /tmp/ccDb2nWZ.s:739    .text:00000000000004e8 .L0 
     /tmp/ccDb2nWZ.s:741    .text:00000000000004e8 .L0 
     /tmp/ccDb2nWZ.s:742    .text:00000000000004e8 .L0 
     /tmp/ccDb2nWZ.s:745    .text:00000000000004f0 .L0 
     /tmp/ccDb2nWZ.s:746    .text:00000000000004f0 .L0 
     /tmp/ccDb2nWZ.s:750    .text:0000000000000500 .L0 
     /tmp/ccDb2nWZ.s:751    .text:0000000000000500 .L0 
     /tmp/ccDb2nWZ.s:754    .text:0000000000000508 .L0 
     /tmp/ccDb2nWZ.s:755    .text:0000000000000508 .L0 
     /tmp/ccDb2nWZ.s:756    .text:0000000000000508 .L0 
     /tmp/ccDb2nWZ.s:757    .text:0000000000000508 .L0 
     /tmp/ccDb2nWZ.s:760    .text:0000000000000510 .L0 
     /tmp/ccDb2nWZ.s:761    .text:0000000000000510 .L0 
     /tmp/ccDb2nWZ.s:764    .text:0000000000000518 .L0 
     /tmp/ccDb2nWZ.s:765    .text:0000000000000518 .L0 
     /tmp/ccDb2nWZ.s:766    .text:0000000000000518 .L0 
     /tmp/ccDb2nWZ.s:767    .text:0000000000000518 .L0 
     /tmp/ccDb2nWZ.s:1127   .text:00000000000007d0 _Z3doAPv
     /tmp/ccDb2nWZ.s:773    .text:0000000000000530 .L0 
     /tmp/ccDb2nWZ.s:774    .text:0000000000000530 .L0 
GAS LISTING /tmp/ccDb2nWZ.s 			page 62


     /tmp/ccDb2nWZ.s:1325   .text:0000000000000950 _Z3doBPv
     /tmp/ccDb2nWZ.s:780    .text:0000000000000548 .L0 
     /tmp/ccDb2nWZ.s:781    .text:0000000000000548 .L0 
     /tmp/ccDb2nWZ.s:784    .text:0000000000000550 .L0 
     /tmp/ccDb2nWZ.s:785    .text:0000000000000550 .L0 
     /tmp/ccDb2nWZ.s:789    .text:000000000000055c .L0 
     /tmp/ccDb2nWZ.s:790    .text:000000000000055c .L0 
     /tmp/ccDb2nWZ.s:794    .text:0000000000000568 .L0 
     /tmp/ccDb2nWZ.s:795    .text:0000000000000568 .L0 
     /tmp/ccDb2nWZ.s:799    .text:0000000000000578 .L0 
     /tmp/ccDb2nWZ.s:800    .text:0000000000000578 .L0 
     /tmp/ccDb2nWZ.s:803    .text:0000000000000580 .L0 
     /tmp/ccDb2nWZ.s:804    .text:0000000000000580 .L0 
     /tmp/ccDb2nWZ.s:807    .text:0000000000000588 .L0 
     /tmp/ccDb2nWZ.s:808    .text:000000000000058c .L0 
     /tmp/ccDb2nWZ.s:810    .text:0000000000000590 .L0 
     /tmp/ccDb2nWZ.s:811    .text:0000000000000590 .L0 
     /tmp/ccDb2nWZ.s:813    .text:0000000000000594 .L0 
     /tmp/ccDb2nWZ.s:815    .text:0000000000000598 .L0 
     /tmp/ccDb2nWZ.s:821    .text:0000000000000598 _Z3fibm
     /tmp/ccDb2nWZ.s:824    .text:0000000000000598 .L0 
     /tmp/ccDb2nWZ.s:826    .text:0000000000000598 .L0 
     /tmp/ccDb2nWZ.s:827    .text:000000000000059c .L0 
     /tmp/ccDb2nWZ.s:832    .text:00000000000005ac .L0 
     /tmp/ccDb2nWZ.s:833    .text:00000000000005ac .L0 
     /tmp/ccDb2nWZ.s:834    .text:00000000000005ac .L0 
     /tmp/ccDb2nWZ.s:835    .text:00000000000005ac .L0 
     /tmp/ccDb2nWZ.s:837    .text:00000000000005b0 .L0 
     /tmp/ccDb2nWZ.s:840    .text:00000000000005b4 .L0 
     /tmp/ccDb2nWZ.s:843    .text:00000000000005bc .L0 
     /tmp/ccDb2nWZ.s:847    .text:00000000000005c0 .L0 
     /tmp/ccDb2nWZ.s:849    .text:00000000000005c8 .L0 
     /tmp/ccDb2nWZ.s:850    .text:00000000000005c8 .L0 
     /tmp/ccDb2nWZ.s:852    .text:00000000000005cc .L0 
     /tmp/ccDb2nWZ.s:853    .text:00000000000005cc .L0 
     /tmp/ccDb2nWZ.s:855    .text:00000000000005d0 .L0 
     /tmp/ccDb2nWZ.s:857    .text:00000000000005d4 .L0 
     /tmp/ccDb2nWZ.s:859    .text:00000000000005d8 .L0 
     /tmp/ccDb2nWZ.s:863    .text:00000000000005dc .L0 
     /tmp/ccDb2nWZ.s:865    .text:00000000000005dc .L0 
     /tmp/ccDb2nWZ.s:866    .text:00000000000005dc .L0 
     /tmp/ccDb2nWZ.s:871    .text:00000000000005ec .L0 
     /tmp/ccDb2nWZ.s:875    .text:00000000000005f8 .L0 
     /tmp/ccDb2nWZ.s:878    .text:0000000000000600 .L0 
     /tmp/ccDb2nWZ.s:887    .text:0000000000000600 .L0 
     /tmp/ccDb2nWZ.s:889    .text:0000000000000600 .L0 
     /tmp/ccDb2nWZ.s:890    .text:0000000000000604 .L0 
     /tmp/ccDb2nWZ.s:896    .text:0000000000000618 .L0 
     /tmp/ccDb2nWZ.s:897    .text:0000000000000618 .L0 
     /tmp/ccDb2nWZ.s:898    .text:0000000000000618 .L0 
     /tmp/ccDb2nWZ.s:899    .text:0000000000000618 .L0 
     /tmp/ccDb2nWZ.s:900    .text:0000000000000618 .L0 
     /tmp/ccDb2nWZ.s:902    .text:000000000000061c .L0 
     /tmp/ccDb2nWZ.s:905    .text:000000000000061c .L0 
     /tmp/ccDb2nWZ.s:906    .text:000000000000061c .L0 
     /tmp/ccDb2nWZ.s:907    .text:000000000000061c .L0 
     /tmp/ccDb2nWZ.s:911    .text:0000000000000620 .L0 
GAS LISTING /tmp/ccDb2nWZ.s 			page 63


     /tmp/ccDb2nWZ.s:912    .text:0000000000000620 .L0 
     /tmp/ccDb2nWZ.s:916    .text:0000000000000628 .L0 
     /tmp/ccDb2nWZ.s:917    .text:0000000000000628 .L0 
     /tmp/ccDb2nWZ.s:921    .text:0000000000000634 .L0 
     /tmp/ccDb2nWZ.s:924    .text:0000000000000638 .L0 
     /tmp/ccDb2nWZ.s:925    .text:0000000000000638 .L0 
     /tmp/ccDb2nWZ.s:929    .text:0000000000000644 .L0 
     /tmp/ccDb2nWZ.s:930    .text:0000000000000644 .L0 
     /tmp/ccDb2nWZ.s:936    .text:0000000000000650 .L0 
     /tmp/ccDb2nWZ.s:937    .text:0000000000000650 .L0 
     /tmp/ccDb2nWZ.s:942    .text:0000000000000654 .L0 
     /tmp/ccDb2nWZ.s:943    .text:0000000000000654 .L0 
     /tmp/ccDb2nWZ.s:954    .text:0000000000000674 .L0 
     /tmp/ccDb2nWZ.s:959    .text:0000000000000678 .L0 
     /tmp/ccDb2nWZ.s:960    .text:0000000000000678 .L0 
     /tmp/ccDb2nWZ.s:973    .text:0000000000000694 .L0 
     /tmp/ccDb2nWZ.s:978    .text:0000000000000698 .L0 
     /tmp/ccDb2nWZ.s:979    .text:0000000000000698 .L0 
     /tmp/ccDb2nWZ.s:980    .text:0000000000000698 .L0 
     /tmp/ccDb2nWZ.s:984    .text:000000000000069c .L0 
     /tmp/ccDb2nWZ.s:991    .text:00000000000006a0 .L0 
     /tmp/ccDb2nWZ.s:992    .text:00000000000006a0 .L0 
     /tmp/ccDb2nWZ.s:997    .text:00000000000006b0 .L0 
     /tmp/ccDb2nWZ.s:998    .text:00000000000006b0 .L0 
     /tmp/ccDb2nWZ.s:1002   .text:00000000000006c0 .L0 
     /tmp/ccDb2nWZ.s:1003   .text:00000000000006c0 .L0 
     /tmp/ccDb2nWZ.s:1007   .text:00000000000006d0 .L0 
     /tmp/ccDb2nWZ.s:1008   .text:00000000000006d0 .L0 
     /tmp/ccDb2nWZ.s:1012   .text:00000000000006dc .L0 
     /tmp/ccDb2nWZ.s:1013   .text:00000000000006dc .L0 
     /tmp/ccDb2nWZ.s:1017   .text:00000000000006ec .L0 
     /tmp/ccDb2nWZ.s:1018   .text:00000000000006ec .L0 
     /tmp/ccDb2nWZ.s:1021   .text:00000000000006f4 .L0 
     /tmp/ccDb2nWZ.s:1022   .text:00000000000006f4 .L0 
     /tmp/ccDb2nWZ.s:1030   .text:00000000000006fc .L0 
     /tmp/ccDb2nWZ.s:1031   .text:00000000000006fc .L0 
     /tmp/ccDb2nWZ.s:1036   .text:000000000000070c .L0 
     /tmp/ccDb2nWZ.s:1037   .text:000000000000070c .L0 
     /tmp/ccDb2nWZ.s:1041   .text:000000000000071c .L0 
     /tmp/ccDb2nWZ.s:1042   .text:000000000000071c .L0 
     /tmp/ccDb2nWZ.s:1046   .text:000000000000072c .L0 
     /tmp/ccDb2nWZ.s:1047   .text:000000000000072c .L0 
     /tmp/ccDb2nWZ.s:1051   .text:0000000000000738 .L0 
     /tmp/ccDb2nWZ.s:1052   .text:0000000000000738 .L0 
     /tmp/ccDb2nWZ.s:1056   .text:0000000000000748 .L0 
     /tmp/ccDb2nWZ.s:1057   .text:0000000000000748 .L0 
     /tmp/ccDb2nWZ.s:1060   .text:0000000000000750 .L0 
     /tmp/ccDb2nWZ.s:1061   .text:0000000000000750 .L0 
     /tmp/ccDb2nWZ.s:1069   .text:0000000000000758 .L0 
     /tmp/ccDb2nWZ.s:1070   .text:0000000000000758 .L0 
     /tmp/ccDb2nWZ.s:1074   .text:0000000000000768 .L0 
     /tmp/ccDb2nWZ.s:1075   .text:0000000000000768 .L0 
     /tmp/ccDb2nWZ.s:1079   .text:0000000000000778 .L0 
     /tmp/ccDb2nWZ.s:1080   .text:0000000000000778 .L0 
     /tmp/ccDb2nWZ.s:1084   .text:0000000000000788 .L0 
     /tmp/ccDb2nWZ.s:1085   .text:0000000000000788 .L0 
     /tmp/ccDb2nWZ.s:1089   .text:0000000000000794 .L0 
GAS LISTING /tmp/ccDb2nWZ.s 			page 64


     /tmp/ccDb2nWZ.s:1090   .text:0000000000000794 .L0 
     /tmp/ccDb2nWZ.s:1094   .text:00000000000007a4 .L0 
     /tmp/ccDb2nWZ.s:1095   .text:00000000000007a4 .L0 
     /tmp/ccDb2nWZ.s:1098   .text:00000000000007ac .L0 
     /tmp/ccDb2nWZ.s:1099   .text:00000000000007ac .L0 
     /tmp/ccDb2nWZ.s:1106   .text:00000000000007b4 .L0 
     /tmp/ccDb2nWZ.s:1107   .text:00000000000007b8 .L0 
     /tmp/ccDb2nWZ.s:1109   .text:00000000000007bc .L0 
     /tmp/ccDb2nWZ.s:1110   .text:00000000000007bc .L0 
     /tmp/ccDb2nWZ.s:1112   .text:00000000000007c0 .L0 
     /tmp/ccDb2nWZ.s:1114   .text:00000000000007c4 .L0 
     /tmp/ccDb2nWZ.s:1116   .text:00000000000007c8 .L0 
     /tmp/ccDb2nWZ.s:1119   .text:00000000000007cc .L0 
     /tmp/ccDb2nWZ.s:1121   .text:00000000000007d0 .L0 
     /tmp/ccDb2nWZ.s:1130   .text:00000000000007d0 .L0 
     /tmp/ccDb2nWZ.s:1132   .text:00000000000007d0 .L0 
     /tmp/ccDb2nWZ.s:1133   .text:00000000000007d4 .L0 
     /tmp/ccDb2nWZ.s:1138   .text:00000000000007e4 .L0 
     /tmp/ccDb2nWZ.s:1139   .text:00000000000007e4 .L0 
     /tmp/ccDb2nWZ.s:1140   .text:00000000000007e4 .L0 
     /tmp/ccDb2nWZ.s:1141   .text:00000000000007e4 .L0 
     /tmp/ccDb2nWZ.s:1143   .text:00000000000007e8 .L0 
     /tmp/ccDb2nWZ.s:1145   .text:00000000000007e8 .L0 
     /tmp/ccDb2nWZ.s:1151   .text:00000000000007f0 .L0 
     /tmp/ccDb2nWZ.s:1156   .text:00000000000007f4 .L0 
     /tmp/ccDb2nWZ.s:1160   .text:00000000000007f8 .L0 
     /tmp/ccDb2nWZ.s:1163   .text:0000000000000800 .L0 
     /tmp/ccDb2nWZ.s:1173   .text:000000000000081c .L0 
     /tmp/ccDb2nWZ.s:1178   .text:0000000000000820 .L0 
     /tmp/ccDb2nWZ.s:1179   .text:0000000000000820 .L0 
     /tmp/ccDb2nWZ.s:1180   .text:0000000000000820 .L0 
     /tmp/ccDb2nWZ.s:1183   .text:0000000000000828 .L0 
     /tmp/ccDb2nWZ.s:1192   .text:0000000000000830 .L0 
     /tmp/ccDb2nWZ.s:1193   .text:0000000000000830 .L0 
     /tmp/ccDb2nWZ.s:1198   .text:0000000000000840 .L0 
     /tmp/ccDb2nWZ.s:1199   .text:0000000000000840 .L0 
     /tmp/ccDb2nWZ.s:1203   .text:0000000000000850 .L0 
     /tmp/ccDb2nWZ.s:1204   .text:0000000000000850 .L0 
     /tmp/ccDb2nWZ.s:1208   .text:0000000000000860 .L0 
     /tmp/ccDb2nWZ.s:1209   .text:0000000000000860 .L0 
     /tmp/ccDb2nWZ.s:1213   .text:000000000000086c .L0 
     /tmp/ccDb2nWZ.s:1214   .text:000000000000086c .L0 
     /tmp/ccDb2nWZ.s:1218   .text:000000000000087c .L0 
     /tmp/ccDb2nWZ.s:1219   .text:000000000000087c .L0 
     /tmp/ccDb2nWZ.s:1222   .text:0000000000000884 .L0 
     /tmp/ccDb2nWZ.s:1223   .text:0000000000000884 .L0 
     /tmp/ccDb2nWZ.s:1232   .text:000000000000088c .L0 
     /tmp/ccDb2nWZ.s:1233   .text:000000000000088c .L0 
     /tmp/ccDb2nWZ.s:1238   .text:000000000000089c .L0 
     /tmp/ccDb2nWZ.s:1239   .text:000000000000089c .L0 
     /tmp/ccDb2nWZ.s:1243   .text:00000000000008ac .L0 
     /tmp/ccDb2nWZ.s:1244   .text:00000000000008ac .L0 
     /tmp/ccDb2nWZ.s:1248   .text:00000000000008bc .L0 
     /tmp/ccDb2nWZ.s:1249   .text:00000000000008bc .L0 
     /tmp/ccDb2nWZ.s:1253   .text:00000000000008c8 .L0 
     /tmp/ccDb2nWZ.s:1254   .text:00000000000008c8 .L0 
     /tmp/ccDb2nWZ.s:1258   .text:00000000000008d8 .L0 
GAS LISTING /tmp/ccDb2nWZ.s 			page 65


     /tmp/ccDb2nWZ.s:1259   .text:00000000000008d8 .L0 
     /tmp/ccDb2nWZ.s:1262   .text:00000000000008e0 .L0 
     /tmp/ccDb2nWZ.s:1263   .text:00000000000008e0 .L0 
     /tmp/ccDb2nWZ.s:1270   .text:00000000000008e8 .L0 
         src/APP.cpp:197    .text:00000000000008e8 .L0 
     /tmp/ccDb2nWZ.s:1276   .text:00000000000008ec .L0 
     /tmp/ccDb2nWZ.s:1278   .text:00000000000008ec .L0 
     /tmp/ccDb2nWZ.s:1283   .text:00000000000008f4 .L0 
     /tmp/ccDb2nWZ.s:1284   .text:00000000000008f4 .L0 
     /tmp/ccDb2nWZ.s:1285   .text:00000000000008f4 .L0 
     /tmp/ccDb2nWZ.s:1286   .text:00000000000008f4 .L0 
     /tmp/ccDb2nWZ.s:1290   .text:0000000000000904 .L0 
     /tmp/ccDb2nWZ.s:1291   .text:0000000000000904 .L0 
     /tmp/ccDb2nWZ.s:1295   .text:0000000000000914 .L0 
     /tmp/ccDb2nWZ.s:1296   .text:0000000000000914 .L0 
     /tmp/ccDb2nWZ.s:1300   .text:0000000000000924 .L0 
     /tmp/ccDb2nWZ.s:1301   .text:0000000000000924 .L0 
     /tmp/ccDb2nWZ.s:1305   .text:0000000000000930 .L0 
     /tmp/ccDb2nWZ.s:1306   .text:0000000000000930 .L0 
     /tmp/ccDb2nWZ.s:1310   .text:0000000000000940 .L0 
     /tmp/ccDb2nWZ.s:1311   .text:0000000000000940 .L0 
     /tmp/ccDb2nWZ.s:1314   .text:0000000000000948 .L0 
     /tmp/ccDb2nWZ.s:1315   .text:0000000000000948 .L0 
     /tmp/ccDb2nWZ.s:1319   .text:0000000000000950 .L0 
     /tmp/ccDb2nWZ.s:1328   .text:0000000000000950 .L0 
     /tmp/ccDb2nWZ.s:1330   .text:0000000000000950 .L0 
     /tmp/ccDb2nWZ.s:1331   .text:0000000000000954 .L0 
     /tmp/ccDb2nWZ.s:1336   .text:0000000000000964 .L0 
     /tmp/ccDb2nWZ.s:1337   .text:0000000000000964 .L0 
     /tmp/ccDb2nWZ.s:1338   .text:0000000000000964 .L0 
     /tmp/ccDb2nWZ.s:1339   .text:0000000000000964 .L0 
     /tmp/ccDb2nWZ.s:1341   .text:0000000000000968 .L0 
     /tmp/ccDb2nWZ.s:1343   .text:0000000000000968 .L0 
     /tmp/ccDb2nWZ.s:1349   .text:0000000000000970 .L0 
     /tmp/ccDb2nWZ.s:1354   .text:0000000000000974 .L0 
     /tmp/ccDb2nWZ.s:1358   .text:0000000000000978 .L0 
     /tmp/ccDb2nWZ.s:1361   .text:0000000000000980 .L0 
     /tmp/ccDb2nWZ.s:1371   .text:000000000000099c .L0 
     /tmp/ccDb2nWZ.s:1376   .text:00000000000009a0 .L0 
     /tmp/ccDb2nWZ.s:1377   .text:00000000000009a0 .L0 
     /tmp/ccDb2nWZ.s:1378   .text:00000000000009a0 .L0 
     /tmp/ccDb2nWZ.s:1381   .text:00000000000009a8 .L0 
     /tmp/ccDb2nWZ.s:1390   .text:00000000000009b0 .L0 
     /tmp/ccDb2nWZ.s:1391   .text:00000000000009b0 .L0 
     /tmp/ccDb2nWZ.s:1396   .text:00000000000009c0 .L0 
     /tmp/ccDb2nWZ.s:1397   .text:00000000000009c0 .L0 
     /tmp/ccDb2nWZ.s:1401   .text:00000000000009d0 .L0 
     /tmp/ccDb2nWZ.s:1402   .text:00000000000009d0 .L0 
     /tmp/ccDb2nWZ.s:1406   .text:00000000000009e0 .L0 
     /tmp/ccDb2nWZ.s:1407   .text:00000000000009e0 .L0 
     /tmp/ccDb2nWZ.s:1411   .text:00000000000009ec .L0 
     /tmp/ccDb2nWZ.s:1412   .text:00000000000009ec .L0 
     /tmp/ccDb2nWZ.s:1416   .text:00000000000009fc .L0 
     /tmp/ccDb2nWZ.s:1417   .text:00000000000009fc .L0 
     /tmp/ccDb2nWZ.s:1420   .text:0000000000000a04 .L0 
     /tmp/ccDb2nWZ.s:1421   .text:0000000000000a04 .L0 
     /tmp/ccDb2nWZ.s:1430   .text:0000000000000a0c .L0 
GAS LISTING /tmp/ccDb2nWZ.s 			page 66


     /tmp/ccDb2nWZ.s:1431   .text:0000000000000a0c .L0 
     /tmp/ccDb2nWZ.s:1436   .text:0000000000000a1c .L0 
     /tmp/ccDb2nWZ.s:1437   .text:0000000000000a1c .L0 
     /tmp/ccDb2nWZ.s:1441   .text:0000000000000a2c .L0 
     /tmp/ccDb2nWZ.s:1442   .text:0000000000000a2c .L0 
     /tmp/ccDb2nWZ.s:1446   .text:0000000000000a3c .L0 
     /tmp/ccDb2nWZ.s:1447   .text:0000000000000a3c .L0 
     /tmp/ccDb2nWZ.s:1451   .text:0000000000000a48 .L0 
     /tmp/ccDb2nWZ.s:1452   .text:0000000000000a48 .L0 
     /tmp/ccDb2nWZ.s:1456   .text:0000000000000a58 .L0 
     /tmp/ccDb2nWZ.s:1457   .text:0000000000000a58 .L0 
     /tmp/ccDb2nWZ.s:1460   .text:0000000000000a60 .L0 
     /tmp/ccDb2nWZ.s:1461   .text:0000000000000a60 .L0 
     /tmp/ccDb2nWZ.s:1468   .text:0000000000000a68 .L0 
     /tmp/ccDb2nWZ.s:1469   .text:0000000000000a68 .L0 
     /tmp/ccDb2nWZ.s:1474   .text:0000000000000a70 .L0 
     /tmp/ccDb2nWZ.s:1475   .text:0000000000000a70 .L0 
     /tmp/ccDb2nWZ.s:1476   .text:0000000000000a70 .L0 
     /tmp/ccDb2nWZ.s:1477   .text:0000000000000a70 .L0 
     /tmp/ccDb2nWZ.s:1481   .text:0000000000000a80 .L0 
     /tmp/ccDb2nWZ.s:1482   .text:0000000000000a80 .L0 
     /tmp/ccDb2nWZ.s:1486   .text:0000000000000a90 .L0 
     /tmp/ccDb2nWZ.s:1487   .text:0000000000000a90 .L0 
     /tmp/ccDb2nWZ.s:1491   .text:0000000000000aa0 .L0 
     /tmp/ccDb2nWZ.s:1492   .text:0000000000000aa0 .L0 
     /tmp/ccDb2nWZ.s:1496   .text:0000000000000aac .L0 
     /tmp/ccDb2nWZ.s:1497   .text:0000000000000aac .L0 
     /tmp/ccDb2nWZ.s:1501   .text:0000000000000abc .L0 
     /tmp/ccDb2nWZ.s:1502   .text:0000000000000abc .L0 
     /tmp/ccDb2nWZ.s:1505   .text:0000000000000ac4 .L0 
     /tmp/ccDb2nWZ.s:1506   .text:0000000000000ac4 .L0 
     /tmp/ccDb2nWZ.s:1510   .text:0000000000000acc .L0 
     /tmp/ccDb2nWZ.s:1533   .text:0000000000000acc _Z15testSystemCallsv
     /tmp/ccDb2nWZ.s:1536   .text:0000000000000acc .L0 
     /tmp/ccDb2nWZ.s:1537   .text:0000000000000acc .L0 
     /tmp/ccDb2nWZ.s:1538   .text:0000000000000ad0 .L0 
     /tmp/ccDb2nWZ.s:1548   .text:0000000000000af4 .L0 
     /tmp/ccDb2nWZ.s:1549   .text:0000000000000af4 .L0 
     /tmp/ccDb2nWZ.s:1550   .text:0000000000000af4 .L0 
     /tmp/ccDb2nWZ.s:1551   .text:0000000000000af4 .L0 
     /tmp/ccDb2nWZ.s:1552   .text:0000000000000af4 .L0 
     /tmp/ccDb2nWZ.s:1553   .text:0000000000000af4 .L0 
     /tmp/ccDb2nWZ.s:1554   .text:0000000000000af4 .L0 
     /tmp/ccDb2nWZ.s:1555   .text:0000000000000af4 .L0 
     /tmp/ccDb2nWZ.s:1556   .text:0000000000000af4 .L0 
     /tmp/ccDb2nWZ.s:1558   .text:0000000000000af8 .L0 
     /tmp/ccDb2nWZ.s:1560   .text:0000000000000af8 .L0 
     /tmp/ccDb2nWZ.s:1561   .text:0000000000000af8 .L0 
     /tmp/ccDb2nWZ.s:1565   .text:0000000000000b08 .L0 
     /tmp/ccDb2nWZ.s:1566   .text:0000000000000b08 .L0 
     /tmp/ccDb2nWZ.s:1569   .text:0000000000000b10 .L0 
     /tmp/ccDb2nWZ.s:1570   .text:0000000000000b10 .L0 
     /tmp/ccDb2nWZ.s:1572   .text:0000000000000b10 .L0 
     /tmp/ccDb2nWZ.s:1573   .text:0000000000000b10 .L0 
     /tmp/ccDb2nWZ.s:1576   .text:0000000000000b14 .L0 
     /tmp/ccDb2nWZ.s:1578   .text:0000000000000b18 .L0 
     /tmp/ccDb2nWZ.s:1583   .text:0000000000000b1c .L0 
GAS LISTING /tmp/ccDb2nWZ.s 			page 67


     /tmp/ccDb2nWZ.s:1587   .text:0000000000000b24 .L0 
     /tmp/ccDb2nWZ.s:1588   .text:0000000000000b24 .L0 
     /tmp/ccDb2nWZ.s:1591   .text:0000000000000b28 .L0 
     /tmp/ccDb2nWZ.s:1592   .text:0000000000000b28 .L0 
     /tmp/ccDb2nWZ.s:1595   .text:0000000000000b2c .L0 
     /tmp/ccDb2nWZ.s:1596   .text:0000000000000b2c .L0 
     /tmp/ccDb2nWZ.s:1602   .text:0000000000000b3c .L0 
     /tmp/ccDb2nWZ.s:1603   .text:0000000000000b3c .L0 
     /tmp/ccDb2nWZ.s:1610   .text:0000000000000b4c .L0 
     /tmp/ccDb2nWZ.s:1615   .text:0000000000000b50 .L0 
     /tmp/ccDb2nWZ.s:1616   .text:0000000000000b50 .L0 
     /tmp/ccDb2nWZ.s:1622   .text:0000000000000b54 .L0 
     /tmp/ccDb2nWZ.s:1623   .text:0000000000000b54 .L0 
     /tmp/ccDb2nWZ.s:1627   .text:0000000000000b58 .L0 
     /tmp/ccDb2nWZ.s:1630   .text:0000000000000b5c .L0 
     /tmp/ccDb2nWZ.s:1634   .text:0000000000000b60 .L0 
     /tmp/ccDb2nWZ.s:1639   .text:0000000000000b64 .L0 
     /tmp/ccDb2nWZ.s:1640   .text:0000000000000b64 .L0 
     /tmp/ccDb2nWZ.s:1645   .text:0000000000000b74 .L0 
     /tmp/ccDb2nWZ.s:1646   .text:0000000000000b74 .L0 
     /tmp/ccDb2nWZ.s:1650   .text:0000000000000b80 .L0 
     /tmp/ccDb2nWZ.s:1651   .text:0000000000000b80 .L0 
     /tmp/ccDb2nWZ.s:1655   .text:0000000000000b90 .L0 
     /tmp/ccDb2nWZ.s:1656   .text:0000000000000b90 .L0 
     /tmp/ccDb2nWZ.s:1660   .text:0000000000000b9c .L0 
     /tmp/ccDb2nWZ.s:1661   .text:0000000000000b9c .L0 
     /tmp/ccDb2nWZ.s:1665   .text:0000000000000bac .L0 
     /tmp/ccDb2nWZ.s:1666   .text:0000000000000bac .L0 
     /tmp/ccDb2nWZ.s:1670   .text:0000000000000bb8 .L0 
     /tmp/ccDb2nWZ.s:1671   .text:0000000000000bb8 .L0 
     /tmp/ccDb2nWZ.s:1676   .text:0000000000000bc0 .L0 
     /tmp/ccDb2nWZ.s:1677   .text:0000000000000bc0 .L0 
     /tmp/ccDb2nWZ.s:1678   .text:0000000000000bc0 .L0 
     /tmp/ccDb2nWZ.s:1679   .text:0000000000000bc0 .L0 
     /tmp/ccDb2nWZ.s:1683   .text:0000000000000bd0 .L0 
     /tmp/ccDb2nWZ.s:1684   .text:0000000000000bd0 .L0 
     /tmp/ccDb2nWZ.s:1688   .text:0000000000000be0 .L0 
     /tmp/ccDb2nWZ.s:1689   .text:0000000000000be0 .L0 
     /tmp/ccDb2nWZ.s:1693   .text:0000000000000bf0 .L0 
     /tmp/ccDb2nWZ.s:1694   .text:0000000000000bf0 .L0 
     /tmp/ccDb2nWZ.s:1698   .text:0000000000000bfc .L0 
     /tmp/ccDb2nWZ.s:1699   .text:0000000000000bfc .L0 
     /tmp/ccDb2nWZ.s:1703   .text:0000000000000c0c .L0 
     /tmp/ccDb2nWZ.s:1704   .text:0000000000000c0c .L0 
     /tmp/ccDb2nWZ.s:1707   .text:0000000000000c14 .L0 
     /tmp/ccDb2nWZ.s:1708   .text:0000000000000c14 .L0 
     /tmp/ccDb2nWZ.s:1716   .text:0000000000000c1c .L0 
     /tmp/ccDb2nWZ.s:1717   .text:0000000000000c1c .L0 
     /tmp/ccDb2nWZ.s:1722   .text:0000000000000c2c .L0 
     /tmp/ccDb2nWZ.s:1723   .text:0000000000000c2c .L0 
     /tmp/ccDb2nWZ.s:1727   .text:0000000000000c3c .L0 
     /tmp/ccDb2nWZ.s:1728   .text:0000000000000c3c .L0 
     /tmp/ccDb2nWZ.s:1732   .text:0000000000000c4c .L0 
     /tmp/ccDb2nWZ.s:1733   .text:0000000000000c4c .L0 
     /tmp/ccDb2nWZ.s:1737   .text:0000000000000c58 .L0 
     /tmp/ccDb2nWZ.s:1738   .text:0000000000000c58 .L0 
     /tmp/ccDb2nWZ.s:1742   .text:0000000000000c68 .L0 
GAS LISTING /tmp/ccDb2nWZ.s 			page 68


     /tmp/ccDb2nWZ.s:1743   .text:0000000000000c68 .L0 
     /tmp/ccDb2nWZ.s:1746   .text:0000000000000c70 .L0 
     /tmp/ccDb2nWZ.s:1747   .text:0000000000000c70 .L0 
     /tmp/ccDb2nWZ.s:1755   .text:0000000000000c78 .L0 
     /tmp/ccDb2nWZ.s:1756   .text:0000000000000c78 .L0 
     /tmp/ccDb2nWZ.s:1760   .text:0000000000000c88 .L0 
     /tmp/ccDb2nWZ.s:1761   .text:0000000000000c88 .L0 
     /tmp/ccDb2nWZ.s:1764   .text:0000000000000c90 .L0 
     /tmp/ccDb2nWZ.s:1765   .text:0000000000000c94 .L0 
     /tmp/ccDb2nWZ.s:1767   .text:0000000000000c98 .L0 
     /tmp/ccDb2nWZ.s:1768   .text:0000000000000c98 .L0 
     /tmp/ccDb2nWZ.s:1770   .text:0000000000000c9c .L0 
     /tmp/ccDb2nWZ.s:1773   .text:0000000000000ca0 .L0 
     /tmp/ccDb2nWZ.s:1775   .text:0000000000000ca4 .L0 
     /tmp/ccDb2nWZ.s:1777   .text:0000000000000ca8 .L0 
     /tmp/ccDb2nWZ.s:1780   .text:0000000000000cac .L0 
     /tmp/ccDb2nWZ.s:1783   .text:0000000000000cb0 .L0 
     /tmp/ccDb2nWZ.s:1785   .text:0000000000000cb4 .L0 
     /tmp/ccDb2nWZ.s:1787   .text:0000000000000cb8 .L0 
     /tmp/ccDb2nWZ.s:1789   .text:0000000000000cbc .L0 
     /tmp/ccDb2nWZ.s:1803   .text:0000000000000cbc _Z19testMemoryAllocatorv
     /tmp/ccDb2nWZ.s:1806   .text:0000000000000cbc .L0 
     /tmp/ccDb2nWZ.s:1807   .text:0000000000000cbc .L0 
     /tmp/ccDb2nWZ.s:1808   .text:0000000000000cc0 .L0 
     /tmp/ccDb2nWZ.s:1814   .text:0000000000000cd4 .L0 
     /tmp/ccDb2nWZ.s:1815   .text:0000000000000cd4 .L0 
     /tmp/ccDb2nWZ.s:1816   .text:0000000000000cd4 .L0 
     /tmp/ccDb2nWZ.s:1817   .text:0000000000000cd4 .L0 
     /tmp/ccDb2nWZ.s:1818   .text:0000000000000cd4 .L0 
     /tmp/ccDb2nWZ.s:1820   .text:0000000000000cd8 .L0 
     /tmp/ccDb2nWZ.s:1822   .text:0000000000000cd8 .L0 
     /tmp/ccDb2nWZ.s:1823   .text:0000000000000cd8 .L0 
     /tmp/ccDb2nWZ.s:1827   .text:0000000000000ce8 .L0 
     /tmp/ccDb2nWZ.s:1828   .text:0000000000000ce8 .L0 
     /tmp/ccDb2nWZ.s:1831   .text:0000000000000cf0 .L0 
     /tmp/ccDb2nWZ.s:1832   .text:0000000000000cf0 .L0 
     /tmp/ccDb2nWZ.s:1833   .text:0000000000000cf0 .L0 
     /tmp/ccDb2nWZ.s:1834   .text:0000000000000cf0 .L0 
     /tmp/ccDb2nWZ.s:1842   .text:0000000000000d04 .L0 
     /tmp/ccDb2nWZ.s:1843   .text:0000000000000d04 .L0 
     /tmp/ccDb2nWZ.s:1847   .text:0000000000000d08 .L0 
     /tmp/ccDb2nWZ.s:1850   .text:0000000000000d10 .L0 
     /tmp/ccDb2nWZ.s:1851   .text:0000000000000d10 .L0 
     /tmp/ccDb2nWZ.s:1854   .text:0000000000000d18 .L0 
     /tmp/ccDb2nWZ.s:1858   .text:0000000000000d24 .L0 
     /tmp/ccDb2nWZ.s:1860   .text:0000000000000d28 .L0 
     /tmp/ccDb2nWZ.s:1861   .text:0000000000000d28 .L0 
     /tmp/ccDb2nWZ.s:1863   .text:0000000000000d2c .L0 
     /tmp/ccDb2nWZ.s:1871   .text:0000000000000d34 .L0 
     /tmp/ccDb2nWZ.s:1874   .text:0000000000000d38 .L0 
     /tmp/ccDb2nWZ.s:1879   .text:0000000000000d3c .L0 
     /tmp/ccDb2nWZ.s:1882   .text:0000000000000d44 .L0 
     /tmp/ccDb2nWZ.s:1883   .text:0000000000000d44 .L0 
     /tmp/ccDb2nWZ.s:1887   .text:0000000000000d50 .L0 
     /tmp/ccDb2nWZ.s:1889   .text:0000000000000d54 .L0 
     /tmp/ccDb2nWZ.s:1892   .text:0000000000000d58 .L0 
     /tmp/ccDb2nWZ.s:1899   .text:0000000000000d60 .L0 
GAS LISTING /tmp/ccDb2nWZ.s 			page 69


     /tmp/ccDb2nWZ.s:1906   .text:0000000000000d68 .L0 
     /tmp/ccDb2nWZ.s:1911   .text:0000000000000d6c .L0 
     /tmp/ccDb2nWZ.s:1915   .text:0000000000000d70 .L0 
     /tmp/ccDb2nWZ.s:1918   .text:0000000000000d78 .L0 
     /tmp/ccDb2nWZ.s:1919   .text:0000000000000d78 .L0 
     /tmp/ccDb2nWZ.s:1922   .text:0000000000000d80 .L0 
     /tmp/ccDb2nWZ.s:1928   .text:0000000000000d8c .L0 
     /tmp/ccDb2nWZ.s:1929   .text:0000000000000d8c .L0 
     /tmp/ccDb2nWZ.s:1934   .text:0000000000000d90 .L0 
     /tmp/ccDb2nWZ.s:1935   .text:0000000000000d90 .L0 
     /tmp/ccDb2nWZ.s:1944   .text:0000000000000d98 .L0 
     /tmp/ccDb2nWZ.s:1945   .text:0000000000000d98 .L0 
     /tmp/ccDb2nWZ.s:1949   .text:0000000000000da8 .L0 
     /tmp/ccDb2nWZ.s:1950   .text:0000000000000da8 .L0 
     /tmp/ccDb2nWZ.s:1954   .text:0000000000000db8 .L0 
     /tmp/ccDb2nWZ.s:1955   .text:0000000000000db8 .L0 
     /tmp/ccDb2nWZ.s:1959   .text:0000000000000dc8 .L0 
     /tmp/ccDb2nWZ.s:1960   .text:0000000000000dc8 .L0 
     /tmp/ccDb2nWZ.s:1964   .text:0000000000000dd4 .L0 
     /tmp/ccDb2nWZ.s:1965   .text:0000000000000dd4 .L0 
     /tmp/ccDb2nWZ.s:1969   .text:0000000000000de4 .L0 
     /tmp/ccDb2nWZ.s:1970   .text:0000000000000de4 .L0 
     /tmp/ccDb2nWZ.s:1973   .text:0000000000000dec .L0 
     /tmp/ccDb2nWZ.s:1974   .text:0000000000000dec .L0 
     /tmp/ccDb2nWZ.s:1983   .text:0000000000000df4 .L0 
     /tmp/ccDb2nWZ.s:1984   .text:0000000000000df4 .L0 
     /tmp/ccDb2nWZ.s:1989   .text:0000000000000e04 .L0 
     /tmp/ccDb2nWZ.s:1990   .text:0000000000000e04 .L0 
     /tmp/ccDb2nWZ.s:1994   .text:0000000000000e14 .L0 
     /tmp/ccDb2nWZ.s:1995   .text:0000000000000e14 .L0 
     /tmp/ccDb2nWZ.s:1999   .text:0000000000000e24 .L0 
     /tmp/ccDb2nWZ.s:2000   .text:0000000000000e24 .L0 
     /tmp/ccDb2nWZ.s:2004   .text:0000000000000e30 .L0 
     /tmp/ccDb2nWZ.s:2005   .text:0000000000000e30 .L0 
     /tmp/ccDb2nWZ.s:2009   .text:0000000000000e40 .L0 
     /tmp/ccDb2nWZ.s:2010   .text:0000000000000e40 .L0 
     /tmp/ccDb2nWZ.s:2013   .text:0000000000000e48 .L0 
     /tmp/ccDb2nWZ.s:2014   .text:0000000000000e48 .L0 
     /tmp/ccDb2nWZ.s:2021   .text:0000000000000e50 .L0 
     /tmp/ccDb2nWZ.s:2022   .text:0000000000000e50 .L0 
     /tmp/ccDb2nWZ.s:2028   .text:0000000000000e5c .L0 
     /tmp/ccDb2nWZ.s:2029   .text:0000000000000e5c .L0 
     /tmp/ccDb2nWZ.s:2034   .text:0000000000000e60 .L0 
     /tmp/ccDb2nWZ.s:2035   .text:0000000000000e60 .L0 
     /tmp/ccDb2nWZ.s:2036   .text:0000000000000e60 .L0 
     /tmp/ccDb2nWZ.s:2041   .text:0000000000000e70 .L0 
     /tmp/ccDb2nWZ.s:2042   .text:0000000000000e70 .L0 
     /tmp/ccDb2nWZ.s:2045   .text:0000000000000e78 .L0 
     /tmp/ccDb2nWZ.s:2046   .text:0000000000000e7c .L0 
     /tmp/ccDb2nWZ.s:2047   .text:0000000000000e7c .L0 
     /tmp/ccDb2nWZ.s:2049   .text:0000000000000e80 .L0 
     /tmp/ccDb2nWZ.s:2050   .text:0000000000000e80 .L0 
     /tmp/ccDb2nWZ.s:2052   .text:0000000000000e84 .L0 
     /tmp/ccDb2nWZ.s:2055   .text:0000000000000e88 .L0 
     /tmp/ccDb2nWZ.s:2057   .text:0000000000000e8c .L0 
     /tmp/ccDb2nWZ.s:2060   .text:0000000000000e90 .L0 
     /tmp/ccDb2nWZ.s:2064   .text:0000000000000e94 .L0 
GAS LISTING /tmp/ccDb2nWZ.s 			page 70


     /tmp/ccDb2nWZ.s:2068   .text:0000000000000e94 .L0 
     /tmp/ccDb2nWZ.s:2069   .text:0000000000000e94 .L0 
     /tmp/ccDb2nWZ.s:2074   .text:0000000000000ea4 .L0 
     /tmp/ccDb2nWZ.s:2075   .text:0000000000000ea4 .L0 
     /tmp/ccDb2nWZ.s:2079   .text:0000000000000eb4 .L0 
     /tmp/ccDb2nWZ.s:2080   .text:0000000000000eb4 .L0 
     /tmp/ccDb2nWZ.s:2084   .text:0000000000000ec4 .L0 
     /tmp/ccDb2nWZ.s:2085   .text:0000000000000ec4 .L0 
     /tmp/ccDb2nWZ.s:2089   .text:0000000000000ed0 .L0 
     /tmp/ccDb2nWZ.s:2090   .text:0000000000000ed0 .L0 
     /tmp/ccDb2nWZ.s:2094   .text:0000000000000ee0 .L0 
     /tmp/ccDb2nWZ.s:2095   .text:0000000000000ee0 .L0 
     /tmp/ccDb2nWZ.s:2098   .text:0000000000000ee8 .L0 
     /tmp/ccDb2nWZ.s:2099   .text:0000000000000ee8 .L0 
     /tmp/ccDb2nWZ.s:2103   .text:0000000000000ef0 .L0 
     /tmp/ccDb2nWZ.s:2117   .bss:0000000000000004 sliceSecondCounter
     /tmp/ccDb2nWZ.s:2113   .bss:0000000000000000 sliceFirstCounter
     /tmp/ccDb2nWZ.s:2110   .bss:0000000000000000 .LANCHOR0
     /tmp/ccDb2nWZ.s:2124   .text:0000000000000ef0 .L0 
     /tmp/ccDb2nWZ.s:8      .rodata.str1.8:0000000000000000 .LC0
     /tmp/ccDb2nWZ.s:39     .text:0000000000000014 .L0 
     /tmp/ccDb2nWZ.s:11     .rodata.str1.8:0000000000000010 .LC1
     /tmp/ccDb2nWZ.s:67     .text:0000000000000040 .L0 
     /tmp/ccDb2nWZ.s:88     .rodata.str1.8:0000000000000020 .LC2
     /tmp/ccDb2nWZ.s:111    .text:0000000000000078 .L0 
     /tmp/ccDb2nWZ.s:131    .text:00000000000000a4 .L0 
     /tmp/ccDb2nWZ.s:138    .text:00000000000000bc .L0 
     /tmp/ccDb2nWZ.s:91     .rodata.str1.8:0000000000000040 .LC3
     /tmp/ccDb2nWZ.s:154    .text:00000000000000e8 .L0 
     /tmp/ccDb2nWZ.s:175    .rodata.str1.8:0000000000000060 .LC4
     /tmp/ccDb2nWZ.s:212    .text:0000000000000124 .L0 
     /tmp/ccDb2nWZ.s:233    .text:0000000000000150 .L0 
     /tmp/ccDb2nWZ.s:241    .text:0000000000000168 .L0 
     /tmp/ccDb2nWZ.s:257    .text:0000000000000194 .L0 
     /tmp/ccDb2nWZ.s:190    .rodata.str1.8:00000000000000e8 .LC9
     /tmp/ccDb2nWZ.s:283    .text:00000000000001bc .L0 
     /tmp/ccDb2nWZ.s:178    .rodata.str1.8:0000000000000080 .LC5
     /tmp/ccDb2nWZ.s:316    .text:00000000000001f0 .L0 
     /tmp/ccDb2nWZ.s:181    .rodata.str1.8:00000000000000a8 .LC6
     /tmp/ccDb2nWZ.s:321    .text:0000000000000200 .L0 
     /tmp/ccDb2nWZ.s:184    .rodata.str1.8:00000000000000b8 .LC7
     /tmp/ccDb2nWZ.s:326    .text:0000000000000210 .L0 
     /tmp/ccDb2nWZ.s:187    .rodata.str1.8:00000000000000c8 .LC8
     /tmp/ccDb2nWZ.s:336    .text:000000000000022c .L0 
     /tmp/ccDb2nWZ.s:362    .text:000000000000024c .L0 
     /tmp/ccDb2nWZ.s:381    .text:0000000000000264 .L0 
     /tmp/ccDb2nWZ.s:388    .text:0000000000000278 .L0 
     /tmp/ccDb2nWZ.s:404    .text:0000000000000290 .L0 
     /tmp/ccDb2nWZ.s:412    .text:00000000000002a4 .L0 
     /tmp/ccDb2nWZ.s:435    .text:00000000000002c4 .L0 
     /tmp/ccDb2nWZ.s:441    .text:00000000000002d4 .L0 
     /tmp/ccDb2nWZ.s:446    .text:00000000000002e4 .L0 
     /tmp/ccDb2nWZ.s:456    .text:0000000000000300 .L0 
     /tmp/ccDb2nWZ.s:494    .text:0000000000000334 .L0 
     /tmp/ccDb2nWZ.s:508    .text:0000000000000348 .L0 
     /tmp/ccDb2nWZ.s:514    .text:0000000000000358 .L0 
     /tmp/ccDb2nWZ.s:519    .text:0000000000000368 .L0 
GAS LISTING /tmp/ccDb2nWZ.s 			page 71


     /tmp/ccDb2nWZ.s:529    .text:0000000000000384 .L0 
     /tmp/ccDb2nWZ.s:547    .text:00000000000003a4 .L0 
     /tmp/ccDb2nWZ.s:553    .text:00000000000003b4 .L0 
     /tmp/ccDb2nWZ.s:558    .text:00000000000003c4 .L0 
     /tmp/ccDb2nWZ.s:568    .text:00000000000003e0 .L0 
     /tmp/ccDb2nWZ.s:615    .text:0000000000000418 .L0 
     /tmp/ccDb2nWZ.s:628    .text:000000000000042c .L0 
     /tmp/ccDb2nWZ.s:648    .text:0000000000000450 .L0 
     /tmp/ccDb2nWZ.s:656    .text:0000000000000460 .L0 
     /tmp/ccDb2nWZ.s:680    .text:000000000000047c .L0 
     /tmp/ccDb2nWZ.s:686    .text:000000000000048c .L0 
     /tmp/ccDb2nWZ.s:691    .text:000000000000049c .L0 
     /tmp/ccDb2nWZ.s:701    .text:00000000000004b8 .L0 
     /tmp/ccDb2nWZ.s:719    .rodata.str1.8:0000000000000110 .LC10
     /tmp/ccDb2nWZ.s:746    .text:00000000000004f0 .L0 
     /tmp/ccDb2nWZ.s:768    .text:000000000000051c .L0 
     /tmp/ccDb2nWZ.s:775    .text:0000000000000534 .L0 
     /tmp/ccDb2nWZ.s:722    .rodata.str1.8:0000000000000130 .LC11
     /tmp/ccDb2nWZ.s:795    .text:0000000000000568 .L0 
     /tmp/ccDb2nWZ.s:925    .text:0000000000000638 .L0 
     /tmp/ccDb2nWZ.s:943    .text:0000000000000654 .L0 
     /tmp/ccDb2nWZ.s:960    .text:0000000000000678 .L0 
     /tmp/ccDb2nWZ.s:992    .text:00000000000006a0 .L0 
     /tmp/ccDb2nWZ.s:998    .text:00000000000006b0 .L0 
     /tmp/ccDb2nWZ.s:1003   .text:00000000000006c0 .L0 
     /tmp/ccDb2nWZ.s:1013   .text:00000000000006dc .L0 
     /tmp/ccDb2nWZ.s:1031   .text:00000000000006fc .L0 
     /tmp/ccDb2nWZ.s:1037   .text:000000000000070c .L0 
     /tmp/ccDb2nWZ.s:1042   .text:000000000000071c .L0 
     /tmp/ccDb2nWZ.s:1052   .text:0000000000000738 .L0 
     /tmp/ccDb2nWZ.s:1070   .text:0000000000000758 .L0 
     /tmp/ccDb2nWZ.s:1075   .text:0000000000000768 .L0 
     /tmp/ccDb2nWZ.s:1080   .text:0000000000000778 .L0 
     /tmp/ccDb2nWZ.s:1090   .text:0000000000000794 .L0 
     /tmp/ccDb2nWZ.s:1193   .text:0000000000000830 .L0 
     /tmp/ccDb2nWZ.s:1199   .text:0000000000000840 .L0 
     /tmp/ccDb2nWZ.s:1204   .text:0000000000000850 .L0 
     /tmp/ccDb2nWZ.s:1214   .text:000000000000086c .L0 
     /tmp/ccDb2nWZ.s:1233   .text:000000000000088c .L0 
     /tmp/ccDb2nWZ.s:1239   .text:000000000000089c .L0 
     /tmp/ccDb2nWZ.s:1244   .text:00000000000008ac .L0 
     /tmp/ccDb2nWZ.s:1254   .text:00000000000008c8 .L0 
     /tmp/ccDb2nWZ.s:1286   .text:00000000000008f4 .L0 
     /tmp/ccDb2nWZ.s:1291   .text:0000000000000904 .L0 
     /tmp/ccDb2nWZ.s:1296   .text:0000000000000914 .L0 
     /tmp/ccDb2nWZ.s:1306   .text:0000000000000930 .L0 
     /tmp/ccDb2nWZ.s:1391   .text:00000000000009b0 .L0 
     /tmp/ccDb2nWZ.s:1397   .text:00000000000009c0 .L0 
     /tmp/ccDb2nWZ.s:1402   .text:00000000000009d0 .L0 
     /tmp/ccDb2nWZ.s:1412   .text:00000000000009ec .L0 
     /tmp/ccDb2nWZ.s:1431   .text:0000000000000a0c .L0 
     /tmp/ccDb2nWZ.s:1437   .text:0000000000000a1c .L0 
     /tmp/ccDb2nWZ.s:1442   .text:0000000000000a2c .L0 
     /tmp/ccDb2nWZ.s:1452   .text:0000000000000a48 .L0 
     /tmp/ccDb2nWZ.s:1477   .text:0000000000000a70 .L0 
     /tmp/ccDb2nWZ.s:1482   .text:0000000000000a80 .L0 
     /tmp/ccDb2nWZ.s:1487   .text:0000000000000a90 .L0 
GAS LISTING /tmp/ccDb2nWZ.s 			page 72


     /tmp/ccDb2nWZ.s:1497   .text:0000000000000aac .L0 
     /tmp/ccDb2nWZ.s:1515   .rodata.str1.8:0000000000000158 .LC12
     /tmp/ccDb2nWZ.s:1561   .text:0000000000000af8 .L0 
     /tmp/ccDb2nWZ.s:1518   .rodata.str1.8:0000000000000178 .LC13
     /tmp/ccDb2nWZ.s:1640   .text:0000000000000b64 .L0 
     /tmp/ccDb2nWZ.s:1521   .rodata.str1.8:0000000000000190 .LC14
     /tmp/ccDb2nWZ.s:1651   .text:0000000000000b80 .L0 
     /tmp/ccDb2nWZ.s:1524   .rodata.str1.8:00000000000001a0 .LC15
     /tmp/ccDb2nWZ.s:1661   .text:0000000000000b9c .L0 
     /tmp/ccDb2nWZ.s:1679   .text:0000000000000bc0 .L0 
     /tmp/ccDb2nWZ.s:1684   .text:0000000000000bd0 .L0 
     /tmp/ccDb2nWZ.s:1689   .text:0000000000000be0 .L0 
     /tmp/ccDb2nWZ.s:1699   .text:0000000000000bfc .L0 
     /tmp/ccDb2nWZ.s:1717   .text:0000000000000c1c .L0 
     /tmp/ccDb2nWZ.s:1723   .text:0000000000000c2c .L0 
     /tmp/ccDb2nWZ.s:1728   .text:0000000000000c3c .L0 
     /tmp/ccDb2nWZ.s:1738   .text:0000000000000c58 .L0 
     /tmp/ccDb2nWZ.s:1527   .rodata.str1.8:00000000000001b0 .LC16
     /tmp/ccDb2nWZ.s:1756   .text:0000000000000c78 .L0 
     /tmp/ccDb2nWZ.s:1794   .rodata.str1.8:00000000000001d8 .LC17
     /tmp/ccDb2nWZ.s:1823   .text:0000000000000cd8 .L0 
     /tmp/ccDb2nWZ.s:1945   .text:0000000000000d98 .L0 
     /tmp/ccDb2nWZ.s:1950   .text:0000000000000da8 .L0 
     /tmp/ccDb2nWZ.s:1955   .text:0000000000000db8 .L0 
     /tmp/ccDb2nWZ.s:1965   .text:0000000000000dd4 .L0 
     /tmp/ccDb2nWZ.s:1984   .text:0000000000000df4 .L0 
     /tmp/ccDb2nWZ.s:1990   .text:0000000000000e04 .L0 
     /tmp/ccDb2nWZ.s:1995   .text:0000000000000e14 .L0 
     /tmp/ccDb2nWZ.s:2005   .text:0000000000000e30 .L0 
     /tmp/ccDb2nWZ.s:1797   .rodata.str1.8:0000000000000200 .LC18
     /tmp/ccDb2nWZ.s:2036   .text:0000000000000e60 .L0 
     /tmp/ccDb2nWZ.s:2069   .text:0000000000000e94 .L0 
     /tmp/ccDb2nWZ.s:2075   .text:0000000000000ea4 .L0 
     /tmp/ccDb2nWZ.s:2080   .text:0000000000000eb4 .L0 
     /tmp/ccDb2nWZ.s:2090   .text:0000000000000ed0 .L0 
     /tmp/ccDb2nWZ.s:303    .text:00000000000001e8 .L9
     /tmp/ccDb2nWZ.s:311    .text:00000000000001f0 .L10
     /tmp/ccDb2nWZ.s:266    .text:00000000000001ac .L6
     /tmp/ccDb2nWZ.s:396    .text:0000000000000288 .L14
     /tmp/ccDb2nWZ.s:409    .text:00000000000002a4 .L12
     /tmp/ccDb2nWZ.s:371    .text:0000000000000260 .L19
     /tmp/ccDb2nWZ.s:392    .text:0000000000000284 .L13
     /tmp/ccDb2nWZ.s:419    .text:00000000000002b4 .L20
     /tmp/ccDb2nWZ.s:592    .text:0000000000000408 .L26
     /tmp/ccDb2nWZ.s:653    .text:0000000000000460 .L22
     /tmp/ccDb2nWZ.s:503    .text:0000000000000348 .L29
     /tmp/ccDb2nWZ.s:579    .text:0000000000000400 .L24
     /tmp/ccDb2nWZ.s:540    .text:00000000000003a4 .L30
     /tmp/ccDb2nWZ.s:674    .text:000000000000047c .L31
     /tmp/ccDb2nWZ.s:845    .text:00000000000005c0 .L35
     /tmp/ccDb2nWZ.s:862    .text:00000000000005dc .L37
     /tmp/ccDb2nWZ.s:1101   .text:00000000000007b4 .L38
     /tmp/ccDb2nWZ.s:986    .text:00000000000006a0 .L45
     /tmp/ccDb2nWZ.s:1024   .text:00000000000006fc .L46
     /tmp/ccDb2nWZ.s:1063   .text:0000000000000758 .L47
     /tmp/ccDb2nWZ.s:909    .text:0000000000000620 .L43
     /tmp/ccDb2nWZ.s:1187   .text:0000000000000830 .L54
GAS LISTING /tmp/ccDb2nWZ.s 			page 73


     /tmp/ccDb2nWZ.s:1265   .text:00000000000008e8 .L50
     /tmp/ccDb2nWZ.s:1225   .text:000000000000088c .L55
     /tmp/ccDb2nWZ.s:1158   .text:00000000000007f8 .L49
     /tmp/ccDb2nWZ.s:1385   .text:00000000000009b0 .L62
     /tmp/ccDb2nWZ.s:1463   .text:0000000000000a68 .L58
     /tmp/ccDb2nWZ.s:1423   .text:0000000000000a0c .L63
     /tmp/ccDb2nWZ.s:1356   .text:0000000000000978 .L57
     /tmp/ccDb2nWZ.s:1749   .text:0000000000000c78 .L65
     /tmp/ccDb2nWZ.s:1636   .text:0000000000000b64 .L70
     /tmp/ccDb2nWZ.s:1710   .text:0000000000000c1c .L71
     /tmp/ccDb2nWZ.s:1580   .text:0000000000000b1c .L68
     /tmp/ccDb2nWZ.s:1867   .text:0000000000000d34 .L80
     /tmp/ccDb2nWZ.s:1845   .text:0000000000000d08 .L74
     /tmp/ccDb2nWZ.s:1896   .text:0000000000000d60 .L75
     /tmp/ccDb2nWZ.s:1875   .text:0000000000000d3c .L73
     /tmp/ccDb2nWZ.s:1939   .text:0000000000000d98 .L83
     /tmp/ccDb2nWZ.s:2016   .text:0000000000000e50 .L77
     /tmp/ccDb2nWZ.s:1976   .text:0000000000000df4 .L84
     /tmp/ccDb2nWZ.s:1913   .text:0000000000000d70 .L76
     /tmp/ccDb2nWZ.s:2063   .text:0000000000000e94 .L85
     /tmp/ccDb2nWZ.s:5044   .debug_abbrev:0000000000000000 .Ldebug_abbrev0
     /tmp/ccDb2nWZ.s:7403   .debug_str:000000000000046b .LASF88
     /tmp/ccDb2nWZ.s:7357   .debug_str:0000000000000332 .LASF89
     /tmp/ccDb2nWZ.s:7367   .debug_str:000000000000036b .LASF90
     /tmp/ccDb2nWZ.s:5      .text:0000000000000000 .Ltext0
     /tmp/ccDb2nWZ.s:2120   .text:0000000000000ef0 .Letext0
     /tmp/ccDb2nWZ.s:7237   .debug_line:0000000000000000 .Ldebug_line0
     /tmp/ccDb2nWZ.s:7339   .debug_str:00000000000002b0 .LASF0
     /tmp/ccDb2nWZ.s:7351   .debug_str:00000000000002fb .LASF1
     /tmp/ccDb2nWZ.s:7329   .debug_str:0000000000000269 .LASF2
     /tmp/ccDb2nWZ.s:7307   .debug_str:00000000000001db .LASF4
     /tmp/ccDb2nWZ.s:7389   .debug_str:00000000000003fb .LASF3
     /tmp/ccDb2nWZ.s:7253   .debug_str:0000000000000057 .LASF5
     /tmp/ccDb2nWZ.s:7355   .debug_str:000000000000031f .LASF6
     /tmp/ccDb2nWZ.s:7337   .debug_str:000000000000029d .LASF7
     /tmp/ccDb2nWZ.s:7411   .debug_str:000000000000055f .LASF8
     /tmp/ccDb2nWZ.s:7295   .debug_str:0000000000000195 .LASF9
     /tmp/ccDb2nWZ.s:7365   .debug_str:000000000000035c .LASF10
     /tmp/ccDb2nWZ.s:7405   .debug_str:000000000000052f .LASF11
     /tmp/ccDb2nWZ.s:7255   .debug_str:000000000000005e .LASF12
     /tmp/ccDb2nWZ.s:7245   .debug_str:0000000000000017 .LASF13
     /tmp/ccDb2nWZ.s:7261   .debug_str:0000000000000091 .LASF14
     /tmp/ccDb2nWZ.s:7383   .debug_str:00000000000003cf .LASF15
     /tmp/ccDb2nWZ.s:7271   .debug_str:00000000000000d0 .LASF16
     /tmp/ccDb2nWZ.s:7239   .debug_str:0000000000000000 .LASF17
     /tmp/ccDb2nWZ.s:7359   .debug_str:000000000000033e .LASF18
     /tmp/ccDb2nWZ.s:7285   .debug_str:000000000000013b .LASF19
     /tmp/ccDb2nWZ.s:7251   .debug_str:0000000000000050 .LASF20
     /tmp/ccDb2nWZ.s:7309   .debug_str:00000000000001e2 .LASF21
     /tmp/ccDb2nWZ.s:7407   .debug_str:000000000000053e .LASF22
     /tmp/ccDb2nWZ.s:7283   .debug_str:0000000000000127 .LASF24
     /tmp/ccDb2nWZ.s:7393   .debug_str:0000000000000417 .LASF91
     /tmp/ccDb2nWZ.s:1804   .text:0000000000000cbc .LFB21
     /tmp/ccDb2nWZ.s:2104   .text:0000000000000ef0 .LFE21
     /tmp/ccDb2nWZ.s:5744   .debug_loc:0000000000000000 .LLST61
     /tmp/ccDb2nWZ.s:7243   .debug_str:0000000000000010 .LASF23
     /tmp/ccDb2nWZ.s:5759   .debug_loc:0000000000000049 .LLST62
GAS LISTING /tmp/ccDb2nWZ.s 			page 74


     /tmp/ccDb2nWZ.s:5774   .debug_loc:0000000000000092 .LLST63
     /tmp/ccDb2nWZ.s:1841   .text:0000000000000d04 .LBB121
     /tmp/ccDb2nWZ.s:1868   .text:0000000000000d34 .LBE121
     /tmp/ccDb2nWZ.s:5793   .debug_loc:00000000000000ee .LLST64
     /tmp/ccDb2nWZ.s:1856   .text:0000000000000d24 .LVL261
     /tmp/ccDb2nWZ.s:7095   .debug_ranges:0000000000000000 .Ldebug_ranges0
     /tmp/ccDb2nWZ.s:5823   .debug_loc:0000000000000164 .LLST65
     /tmp/ccDb2nWZ.s:5834   .debug_loc:000000000000019a .LLST69
     /tmp/ccDb2nWZ.s:1926   .text:0000000000000d8c .LBB128
     /tmp/ccDb2nWZ.s:5849   .debug_loc:00000000000001e3 .LLST70
     /tmp/ccDb2nWZ.s:5864   .debug_loc:000000000000021f .LLST71
     /tmp/ccDb2nWZ.s:5879   .debug_loc:0000000000000267 .LLST72
     /tmp/ccDb2nWZ.s:1987   .text:0000000000000e04 .LVL283
     /tmp/ccDb2nWZ.s:1992   .text:0000000000000e14 .LVL284
     /tmp/ccDb2nWZ.s:1997   .text:0000000000000e24 .LVL285
     /tmp/ccDb2nWZ.s:2002   .text:0000000000000e30 .LVL286
     /tmp/ccDb2nWZ.s:2007   .text:0000000000000e40 .LVL287
     /tmp/ccDb2nWZ.s:2011   .text:0000000000000e48 .LVL288
     /tmp/ccDb2nWZ.s:2015   .text:0000000000000e50 .LVL289
     /tmp/ccDb2nWZ.s:1924   .text:0000000000000d8c .LVL271
     /tmp/ccDb2nWZ.s:1903   .text:0000000000000d68 .LBB124
     /tmp/ccDb2nWZ.s:5898   .debug_loc:00000000000002a5 .LLST66
     /tmp/ccDb2nWZ.s:5913   .debug_loc:00000000000002e1 .LLST67
     /tmp/ccDb2nWZ.s:5928   .debug_loc:0000000000000329 .LLST68
     /tmp/ccDb2nWZ.s:1947   .text:0000000000000da8 .LVL275
     /tmp/ccDb2nWZ.s:1952   .text:0000000000000db8 .LVL276
     /tmp/ccDb2nWZ.s:1957   .text:0000000000000dc8 .LVL277
     /tmp/ccDb2nWZ.s:1962   .text:0000000000000dd4 .LVL278
     /tmp/ccDb2nWZ.s:1967   .text:0000000000000de4 .LVL279
     /tmp/ccDb2nWZ.s:1971   .text:0000000000000dec .LVL280
     /tmp/ccDb2nWZ.s:1975   .text:0000000000000df4 .LVL281
     /tmp/ccDb2nWZ.s:2026   .text:0000000000000e5c .LBB134
     /tmp/ccDb2nWZ.s:5953   .debug_loc:000000000000036d .LLST73
     /tmp/ccDb2nWZ.s:5968   .debug_loc:00000000000003a9 .LLST74
     /tmp/ccDb2nWZ.s:5983   .debug_loc:00000000000003f1 .LLST75
     /tmp/ccDb2nWZ.s:2072   .text:0000000000000ea4 .LVL299
     /tmp/ccDb2nWZ.s:2077   .text:0000000000000eb4 .LVL300
     /tmp/ccDb2nWZ.s:2082   .text:0000000000000ec4 .LVL301
     /tmp/ccDb2nWZ.s:2087   .text:0000000000000ed0 .LVL302
     /tmp/ccDb2nWZ.s:2092   .text:0000000000000ee0 .LVL303
     /tmp/ccDb2nWZ.s:2096   .text:0000000000000ee8 .LVL304
     /tmp/ccDb2nWZ.s:2100   .text:0000000000000ef0 .LVL305
     /tmp/ccDb2nWZ.s:1825   .text:0000000000000ce8 .LVL256
     /tmp/ccDb2nWZ.s:1829   .text:0000000000000cf0 .LVL257
     /tmp/ccDb2nWZ.s:1837   .text:0000000000000d00 .LVL258
     /tmp/ccDb2nWZ.s:2024   .text:0000000000000e5c .LVL290
     /tmp/ccDb2nWZ.s:2039   .text:0000000000000e70 .LVL293
     /tmp/ccDb2nWZ.s:2043   .text:0000000000000e78 .LVL294
     /tmp/ccDb2nWZ.s:7297   .debug_str:00000000000001a3 .LASF25
     /tmp/ccDb2nWZ.s:7327   .debug_str:0000000000000254 .LASF31
     /tmp/ccDb2nWZ.s:1534   .text:0000000000000acc .LFB20
     /tmp/ccDb2nWZ.s:1790   .text:0000000000000cbc .LFE20
     /tmp/ccDb2nWZ.s:6002   .debug_loc:000000000000042f .LLST50
     /tmp/ccDb2nWZ.s:6030   .debug_loc:00000000000004a3 .LLST51
     /tmp/ccDb2nWZ.s:6058   .debug_loc:0000000000000517 .LLST52
     /tmp/ccDb2nWZ.s:7241   .debug_str:0000000000000009 .LASF26
     /tmp/ccDb2nWZ.s:6074   .debug_loc:0000000000000561 .LLST53
GAS LISTING /tmp/ccDb2nWZ.s 			page 75


     /tmp/ccDb2nWZ.s:7275   .debug_str:00000000000000f4 .LASF27
     /tmp/ccDb2nWZ.s:6085   .debug_loc:0000000000000597 .LLST54
     /tmp/ccDb2nWZ.s:1613   .text:0000000000000b50 .LBB103
     /tmp/ccDb2nWZ.s:6104   .debug_loc:00000000000005f3 .LLST55
     /tmp/ccDb2nWZ.s:6119   .debug_loc:000000000000062d .LLST56
     /tmp/ccDb2nWZ.s:6134   .debug_loc:0000000000000675 .LLST57
     /tmp/ccDb2nWZ.s:1720   .text:0000000000000c2c .LVL244
     /tmp/ccDb2nWZ.s:1725   .text:0000000000000c3c .LVL245
     /tmp/ccDb2nWZ.s:1730   .text:0000000000000c4c .LVL246
     /tmp/ccDb2nWZ.s:1735   .text:0000000000000c58 .LVL247
     /tmp/ccDb2nWZ.s:1740   .text:0000000000000c68 .LVL248
     /tmp/ccDb2nWZ.s:1744   .text:0000000000000c70 .LVL249
     /tmp/ccDb2nWZ.s:1748   .text:0000000000000c78 .LVL250
     /tmp/ccDb2nWZ.s:1674   .text:0000000000000bc0 .LBB106
     /tmp/ccDb2nWZ.s:1712   .text:0000000000000c1c .LBE106
     /tmp/ccDb2nWZ.s:6159   .debug_loc:00000000000006b9 .LLST58
     /tmp/ccDb2nWZ.s:6168   .debug_loc:00000000000006de .LLST59
     /tmp/ccDb2nWZ.s:6177   .debug_loc:000000000000070a .LLST60
     /tmp/ccDb2nWZ.s:1681   .text:0000000000000bd0 .LVL236
     /tmp/ccDb2nWZ.s:1686   .text:0000000000000be0 .LVL237
     /tmp/ccDb2nWZ.s:1691   .text:0000000000000bf0 .LVL238
     /tmp/ccDb2nWZ.s:1696   .text:0000000000000bfc .LVL239
     /tmp/ccDb2nWZ.s:1701   .text:0000000000000c0c .LVL240
     /tmp/ccDb2nWZ.s:1705   .text:0000000000000c14 .LVL241
     /tmp/ccDb2nWZ.s:1709   .text:0000000000000c1c .LVL242
     /tmp/ccDb2nWZ.s:1598   .text:0000000000000b38 .LVL217
     /tmp/ccDb2nWZ.s:1606   .text:0000000000000b48 .LVL220
     /tmp/ccDb2nWZ.s:1643   .text:0000000000000b74 .LVL229
     /tmp/ccDb2nWZ.s:1648   .text:0000000000000b80 .LVL230
     /tmp/ccDb2nWZ.s:1653   .text:0000000000000b90 .LVL231
     /tmp/ccDb2nWZ.s:1658   .text:0000000000000b9c .LVL232
     /tmp/ccDb2nWZ.s:1663   .text:0000000000000bac .LVL233
     /tmp/ccDb2nWZ.s:1668   .text:0000000000000bb8 .LVL234
     /tmp/ccDb2nWZ.s:1672   .text:0000000000000bc0 .LVL235
     /tmp/ccDb2nWZ.s:1563   .text:0000000000000b08 .LVL212
     /tmp/ccDb2nWZ.s:1567   .text:0000000000000b10 .LVL213
     /tmp/ccDb2nWZ.s:1758   .text:0000000000000c88 .LVL251
     /tmp/ccDb2nWZ.s:1762   .text:0000000000000c90 .LVL252
     /tmp/ccDb2nWZ.s:7375   .debug_str:00000000000003a8 .LASF92
     /tmp/ccDb2nWZ.s:822    .text:0000000000000598 .LFB19
     /tmp/ccDb2nWZ.s:879    .text:0000000000000600 .LFE19
     /tmp/ccDb2nWZ.s:6185   .debug_loc:000000000000072e .LLST19
     /tmp/ccDb2nWZ.s:868    .text:00000000000005e8 .LVL102
     /tmp/ccDb2nWZ.s:873    .text:00000000000005f8 .LVL103
     /tmp/ccDb2nWZ.s:7293   .debug_str:000000000000018c .LASF28
     /tmp/ccDb2nWZ.s:1326   .text:0000000000000950 .LFB18
     /tmp/ccDb2nWZ.s:1511   .text:0000000000000acc .LFE18
     /tmp/ccDb2nWZ.s:6210   .debug_loc:0000000000000790 .LLST42
     /tmp/ccDb2nWZ.s:6235   .debug_loc:00000000000007f2 .LLST46
     /tmp/ccDb2nWZ.s:1368   .text:000000000000099c .LBB87
     /tmp/ccDb2nWZ.s:6246   .debug_loc:0000000000000828 .LLST47
     /tmp/ccDb2nWZ.s:6261   .debug_loc:0000000000000862 .LLST48
     /tmp/ccDb2nWZ.s:6276   .debug_loc:00000000000008aa .LLST49
     /tmp/ccDb2nWZ.s:1434   .text:0000000000000a1c .LVL197
     /tmp/ccDb2nWZ.s:1439   .text:0000000000000a2c .LVL198
     /tmp/ccDb2nWZ.s:1444   .text:0000000000000a3c .LVL199
     /tmp/ccDb2nWZ.s:1449   .text:0000000000000a48 .LVL200
GAS LISTING /tmp/ccDb2nWZ.s 			page 76


     /tmp/ccDb2nWZ.s:1454   .text:0000000000000a58 .LVL201
     /tmp/ccDb2nWZ.s:1458   .text:0000000000000a60 .LVL202
     /tmp/ccDb2nWZ.s:1462   .text:0000000000000a68 .LVL203
     /tmp/ccDb2nWZ.s:1363   .text:000000000000098c .LVL182
     /tmp/ccDb2nWZ.s:1367   .text:000000000000099c .LVL183
     /tmp/ccDb2nWZ.s:1379   .text:00000000000009a8 .LVL185
     /tmp/ccDb2nWZ.s:1346   .text:0000000000000970 .LBB83
     /tmp/ccDb2nWZ.s:6301   .debug_loc:00000000000008ee .LLST43
     /tmp/ccDb2nWZ.s:6316   .debug_loc:0000000000000928 .LLST44
     /tmp/ccDb2nWZ.s:6331   .debug_loc:0000000000000970 .LLST45
     /tmp/ccDb2nWZ.s:1394   .text:00000000000009c0 .LVL189
     /tmp/ccDb2nWZ.s:1399   .text:00000000000009d0 .LVL190
     /tmp/ccDb2nWZ.s:1404   .text:00000000000009e0 .LVL191
     /tmp/ccDb2nWZ.s:1409   .text:00000000000009ec .LVL192
     /tmp/ccDb2nWZ.s:1414   .text:00000000000009fc .LVL193
     /tmp/ccDb2nWZ.s:1418   .text:0000000000000a04 .LVL194
     /tmp/ccDb2nWZ.s:1422   .text:0000000000000a0c .LVL195
     /tmp/ccDb2nWZ.s:1472   .text:0000000000000a70 .LBB93
     /tmp/ccDb2nWZ.s:1509   .text:0000000000000acc .LBE93
     /tmp/ccDb2nWZ.s:1479   .text:0000000000000a80 .LVL205
     /tmp/ccDb2nWZ.s:1484   .text:0000000000000a90 .LVL206
     /tmp/ccDb2nWZ.s:1489   .text:0000000000000aa0 .LVL207
     /tmp/ccDb2nWZ.s:1494   .text:0000000000000aac .LVL208
     /tmp/ccDb2nWZ.s:1499   .text:0000000000000abc .LVL209
     /tmp/ccDb2nWZ.s:1503   .text:0000000000000ac4 .LVL210
     /tmp/ccDb2nWZ.s:1507   .text:0000000000000acc .LVL211
     /tmp/ccDb2nWZ.s:1470   .text:0000000000000a70 .LVL204
     /tmp/ccDb2nWZ.s:7281   .debug_str:000000000000011e .LASF29
     /tmp/ccDb2nWZ.s:1128   .text:00000000000007d0 .LFB17
     /tmp/ccDb2nWZ.s:1320   .text:0000000000000950 .LFE17
     /tmp/ccDb2nWZ.s:6350   .debug_loc:00000000000009ae .LLST34
     /tmp/ccDb2nWZ.s:6375   .debug_loc:0000000000000a10 .LLST38
     /tmp/ccDb2nWZ.s:1170   .text:000000000000081c .LBB68
     /tmp/ccDb2nWZ.s:6386   .debug_loc:0000000000000a46 .LLST39
     /tmp/ccDb2nWZ.s:6401   .debug_loc:0000000000000a80 .LLST40
     /tmp/ccDb2nWZ.s:6416   .debug_loc:0000000000000ac8 .LLST41
     /tmp/ccDb2nWZ.s:1236   .text:000000000000089c .LVL164
     /tmp/ccDb2nWZ.s:1241   .text:00000000000008ac .LVL165
     /tmp/ccDb2nWZ.s:1246   .text:00000000000008bc .LVL166
     /tmp/ccDb2nWZ.s:1251   .text:00000000000008c8 .LVL167
     /tmp/ccDb2nWZ.s:1256   .text:00000000000008d8 .LVL168
     /tmp/ccDb2nWZ.s:1260   .text:00000000000008e0 .LVL169
     /tmp/ccDb2nWZ.s:1264   .text:00000000000008e8 .LVL170
     /tmp/ccDb2nWZ.s:1165   .text:000000000000080c .LVL149
     /tmp/ccDb2nWZ.s:1169   .text:000000000000081c .LVL150
     /tmp/ccDb2nWZ.s:1181   .text:0000000000000828 .LVL152
     /tmp/ccDb2nWZ.s:1148   .text:00000000000007f0 .LBB64
     /tmp/ccDb2nWZ.s:6441   .debug_loc:0000000000000b0c .LLST35
     /tmp/ccDb2nWZ.s:6456   .debug_loc:0000000000000b46 .LLST36
     /tmp/ccDb2nWZ.s:6471   .debug_loc:0000000000000b8e .LLST37
     /tmp/ccDb2nWZ.s:1196   .text:0000000000000840 .LVL156
     /tmp/ccDb2nWZ.s:1201   .text:0000000000000850 .LVL157
     /tmp/ccDb2nWZ.s:1206   .text:0000000000000860 .LVL158
     /tmp/ccDb2nWZ.s:1211   .text:000000000000086c .LVL159
     /tmp/ccDb2nWZ.s:1216   .text:000000000000087c .LVL160
     /tmp/ccDb2nWZ.s:1220   .text:0000000000000884 .LVL161
     /tmp/ccDb2nWZ.s:1224   .text:000000000000088c .LVL162
GAS LISTING /tmp/ccDb2nWZ.s 			page 77


     /tmp/ccDb2nWZ.s:1281   .text:00000000000008f4 .LBB74
     /tmp/ccDb2nWZ.s:1318   .text:0000000000000950 .LBE74
     /tmp/ccDb2nWZ.s:1288   .text:0000000000000904 .LVL172
     /tmp/ccDb2nWZ.s:1293   .text:0000000000000914 .LVL173
     /tmp/ccDb2nWZ.s:1298   .text:0000000000000924 .LVL174
     /tmp/ccDb2nWZ.s:1303   .text:0000000000000930 .LVL175
     /tmp/ccDb2nWZ.s:1308   .text:0000000000000940 .LVL176
     /tmp/ccDb2nWZ.s:1312   .text:0000000000000948 .LVL177
     /tmp/ccDb2nWZ.s:1316   .text:0000000000000950 .LVL178
     /tmp/ccDb2nWZ.s:1279   .text:00000000000008f4 .LVL171
     /tmp/ccDb2nWZ.s:7413   .debug_str:000000000000056f .LASF30
     /tmp/ccDb2nWZ.s:7299   .debug_str:00000000000001b3 .LASF32
     /tmp/ccDb2nWZ.s:729    .text:00000000000004d8 .LFB16
     /tmp/ccDb2nWZ.s:816    .text:0000000000000598 .LFE16
     /tmp/ccDb2nWZ.s:7303   .debug_str:00000000000001d1 .LASF33
     /tmp/ccDb2nWZ.s:7305   .debug_str:00000000000001d6 .LASF34
     /tmp/ccDb2nWZ.s:743    .text:00000000000004f0 .LVL88
     /tmp/ccDb2nWZ.s:748    .text:0000000000000500 .LVL89
     /tmp/ccDb2nWZ.s:752    .text:0000000000000508 .LVL90
     /tmp/ccDb2nWZ.s:771    .text:0000000000000530 .LVL91
     /tmp/ccDb2nWZ.s:778    .text:0000000000000548 .LVL92
     /tmp/ccDb2nWZ.s:782    .text:0000000000000550 .LVL93
     /tmp/ccDb2nWZ.s:787    .text:000000000000055c .LVL94
     /tmp/ccDb2nWZ.s:792    .text:0000000000000568 .LVL95
     /tmp/ccDb2nWZ.s:797    .text:0000000000000578 .LVL96
     /tmp/ccDb2nWZ.s:801    .text:0000000000000580 .LVL97
     /tmp/ccDb2nWZ.s:805    .text:0000000000000588 .LVL98
     /tmp/ccDb2nWZ.s:7423   .debug_str:00000000000005ac .LASF35
     /tmp/ccDb2nWZ.s:7397   .debug_str:0000000000000440 .LASF36
     /tmp/ccDb2nWZ.s:476    .text:0000000000000320 .LFB15
     /tmp/ccDb2nWZ.s:715    .text:00000000000004d8 .LFE15
     /tmp/ccDb2nWZ.s:6490   .debug_loc:0000000000000bcc .LLST8
     /tmp/ccDb2nWZ.s:7341   .debug_str:00000000000002bd .LASF37
     /tmp/ccDb2nWZ.s:6526   .debug_loc:0000000000000c57 .LLST9
     /tmp/ccDb2nWZ.s:7377   .debug_str:00000000000003b0 .LASF38
     /tmp/ccDb2nWZ.s:6541   .debug_loc:0000000000000ca0 .LLST10
     /tmp/ccDb2nWZ.s:498    .text:0000000000000340 .LBB23
     /tmp/ccDb2nWZ.s:654    .text:0000000000000460 .LBE23
     /tmp/ccDb2nWZ.s:6561   .debug_loc:0000000000000cfd .LLST11
     /tmp/ccDb2nWZ.s:504    .text:0000000000000348 .LBB24
     /tmp/ccDb2nWZ.s:6581   .debug_loc:0000000000000d5a .LLST12
     /tmp/ccDb2nWZ.s:6596   .debug_loc:0000000000000d94 .LLST13
     /tmp/ccDb2nWZ.s:6611   .debug_loc:0000000000000ddc .LLST14
     /tmp/ccDb2nWZ.s:511    .text:0000000000000358 .LVL56
     /tmp/ccDb2nWZ.s:516    .text:0000000000000368 .LVL57
     /tmp/ccDb2nWZ.s:521    .text:0000000000000378 .LVL58
     /tmp/ccDb2nWZ.s:526    .text:0000000000000384 .LVL59
     /tmp/ccDb2nWZ.s:531    .text:0000000000000394 .LVL60
     /tmp/ccDb2nWZ.s:535    .text:000000000000039c .LVL61
     /tmp/ccDb2nWZ.s:539    .text:00000000000003a4 .LVL62
     /tmp/ccDb2nWZ.s:543    .text:00000000000003a4 .LBB27
     /tmp/ccDb2nWZ.s:6636   .debug_loc:0000000000000e20 .LLST15
     /tmp/ccDb2nWZ.s:6651   .debug_loc:0000000000000e5a .LLST16
     /tmp/ccDb2nWZ.s:6666   .debug_loc:0000000000000ea2 .LLST17
     /tmp/ccDb2nWZ.s:550    .text:00000000000003b4 .LVL64
     /tmp/ccDb2nWZ.s:555    .text:00000000000003c4 .LVL65
     /tmp/ccDb2nWZ.s:560    .text:00000000000003d4 .LVL66
GAS LISTING /tmp/ccDb2nWZ.s 			page 78


     /tmp/ccDb2nWZ.s:565    .text:00000000000003e0 .LVL67
     /tmp/ccDb2nWZ.s:570    .text:00000000000003f0 .LVL68
     /tmp/ccDb2nWZ.s:574    .text:00000000000003f8 .LVL69
     /tmp/ccDb2nWZ.s:578    .text:0000000000000400 .LVL70
     /tmp/ccDb2nWZ.s:658    .text:0000000000000468 .LBB32
     /tmp/ccDb2nWZ.s:6707   .debug_loc:0000000000000f04 .LLST18
     /tmp/ccDb2nWZ.s:683    .text:000000000000048c .LVL81
     /tmp/ccDb2nWZ.s:688    .text:000000000000049c .LVL82
     /tmp/ccDb2nWZ.s:693    .text:00000000000004ac .LVL83
     /tmp/ccDb2nWZ.s:698    .text:00000000000004b8 .LVL84
     /tmp/ccDb2nWZ.s:703    .text:00000000000004c8 .LVL85
     /tmp/ccDb2nWZ.s:707    .text:00000000000004d0 .LVL86
     /tmp/ccDb2nWZ.s:711    .text:00000000000004d8 .LVL87
     /tmp/ccDb2nWZ.s:7335   .debug_str:0000000000000290 .LASF39
     /tmp/ccDb2nWZ.s:7331   .debug_str:0000000000000277 .LASF40
     /tmp/ccDb2nWZ.s:356    .text:000000000000024c .LFB14
     /tmp/ccDb2nWZ.s:470    .text:0000000000000320 .LFE14
     /tmp/ccDb2nWZ.s:6718   .debug_loc:0000000000000f2b .LLST4
     /tmp/ccDb2nWZ.s:6732   .debug_loc:0000000000000f64 .LLST5
     /tmp/ccDb2nWZ.s:366    .text:0000000000000258 .LBB11
     /tmp/ccDb2nWZ.s:410    .text:00000000000002a4 .LBE11
     /tmp/ccDb2nWZ.s:6748   .debug_loc:0000000000000fae .LLST6
     /tmp/ccDb2nWZ.s:414    .text:00000000000002ac .LBB12
     /tmp/ccDb2nWZ.s:6760   .debug_loc:0000000000000fe5 .LLST7
     /tmp/ccDb2nWZ.s:438    .text:00000000000002d4 .LVL44
     /tmp/ccDb2nWZ.s:443    .text:00000000000002e4 .LVL45
     /tmp/ccDb2nWZ.s:448    .text:00000000000002f4 .LVL46
     /tmp/ccDb2nWZ.s:453    .text:0000000000000300 .LVL47
     /tmp/ccDb2nWZ.s:458    .text:0000000000000310 .LVL48
     /tmp/ccDb2nWZ.s:462    .text:0000000000000318 .LVL49
     /tmp/ccDb2nWZ.s:466    .text:0000000000000320 .LVL50
     /tmp/ccDb2nWZ.s:7409   .debug_str:0000000000000551 .LASF41
     /tmp/ccDb2nWZ.s:7323   .debug_str:0000000000000233 .LASF42
     /tmp/ccDb2nWZ.s:197    .text:0000000000000110 .LFB13
     /tmp/ccDb2nWZ.s:350    .text:000000000000024c .LFE13
     /tmp/ccDb2nWZ.s:7371   .debug_str:000000000000038f .LASF43
     /tmp/ccDb2nWZ.s:7345   .debug_str:00000000000002cb .LASF44
     /tmp/ccDb2nWZ.s:7361   .debug_str:0000000000000343 .LASF45
     /tmp/ccDb2nWZ.s:7319   .debug_str:000000000000021c .LASF46
     /tmp/ccDb2nWZ.s:6771   .debug_loc:000000000000100c .LLST0
     /tmp/ccDb2nWZ.s:272    .text:00000000000001b8 .LBB4
     /tmp/ccDb2nWZ.s:6809   .debug_loc:000000000000108a .LLST1
     /tmp/ccDb2nWZ.s:6824   .debug_loc:00000000000010c4 .LLST2
     /tmp/ccDb2nWZ.s:6839   .debug_loc:000000000000110c .LLST3
     /tmp/ccDb2nWZ.s:318    .text:0000000000000200 .LVL28
     /tmp/ccDb2nWZ.s:323    .text:0000000000000210 .LVL29
     /tmp/ccDb2nWZ.s:328    .text:0000000000000220 .LVL30
     /tmp/ccDb2nWZ.s:333    .text:000000000000022c .LVL31
     /tmp/ccDb2nWZ.s:338    .text:000000000000023c .LVL32
     /tmp/ccDb2nWZ.s:342    .text:0000000000000244 .LVL33
     /tmp/ccDb2nWZ.s:346    .text:000000000000024c .LVL34
     /tmp/ccDb2nWZ.s:214    .text:0000000000000134 .LVL13
     /tmp/ccDb2nWZ.s:218    .text:000000000000013c .LVL14
     /tmp/ccDb2nWZ.s:236    .text:0000000000000164 .LVL15
     /tmp/ccDb2nWZ.s:244    .text:000000000000017c .LVL16
     /tmp/ccDb2nWZ.s:249    .text:0000000000000188 .LVL17
     /tmp/ccDb2nWZ.s:254    .text:0000000000000194 .LVL18
GAS LISTING /tmp/ccDb2nWZ.s 			page 79


     /tmp/ccDb2nWZ.s:285    .text:00000000000001cc .LVL23
     /tmp/ccDb2nWZ.s:289    .text:00000000000001d4 .LVL24
     /tmp/ccDb2nWZ.s:7343   .debug_str:00000000000002c2 .LASF47
     /tmp/ccDb2nWZ.s:7325   .debug_str:0000000000000246 .LASF48
     /tmp/ccDb2nWZ.s:885    .text:0000000000000600 .LFB12
     /tmp/ccDb2nWZ.s:1122   .text:00000000000007d0 .LFE12
     /tmp/ccDb2nWZ.s:6860   .debug_loc:000000000000114c .LLST20
     /tmp/ccDb2nWZ.s:6874   .debug_loc:0000000000001185 .LLST21
     /tmp/ccDb2nWZ.s:6888   .debug_loc:00000000000011be .LLST22
     /tmp/ccDb2nWZ.s:6895   .debug_loc:00000000000011e1 .LLST23
     /tmp/ccDb2nWZ.s:6918   .debug_loc:0000000000001241 .LLST24
     /tmp/ccDb2nWZ.s:6929   .debug_loc:0000000000001277 .LLST25
     /tmp/ccDb2nWZ.s:934    .text:0000000000000650 .LBB44
     /tmp/ccDb2nWZ.s:6944   .debug_loc:00000000000012c0 .LLST26
     /tmp/ccDb2nWZ.s:6959   .debug_loc:00000000000012fa .LLST27
     /tmp/ccDb2nWZ.s:6974   .debug_loc:0000000000001342 .LLST28
     /tmp/ccDb2nWZ.s:995    .text:00000000000006b0 .LVL123
     /tmp/ccDb2nWZ.s:1000   .text:00000000000006c0 .LVL124
     /tmp/ccDb2nWZ.s:1005   .text:00000000000006d0 .LVL125
     /tmp/ccDb2nWZ.s:1010   .text:00000000000006dc .LVL126
     /tmp/ccDb2nWZ.s:1015   .text:00000000000006ec .LVL127
     /tmp/ccDb2nWZ.s:1019   .text:00000000000006f4 .LVL128
     /tmp/ccDb2nWZ.s:1023   .text:00000000000006fc .LVL129
     /tmp/ccDb2nWZ.s:951    .text:0000000000000674 .LBB47
     /tmp/ccDb2nWZ.s:6993   .debug_loc:0000000000001380 .LLST29
     /tmp/ccDb2nWZ.s:7008   .debug_loc:00000000000013ba .LLST30
     /tmp/ccDb2nWZ.s:1034   .text:000000000000070c .LVL131
     /tmp/ccDb2nWZ.s:1039   .text:000000000000071c .LVL132
     /tmp/ccDb2nWZ.s:1044   .text:000000000000072c .LVL133
     /tmp/ccDb2nWZ.s:1049   .text:0000000000000738 .LVL134
     /tmp/ccDb2nWZ.s:1054   .text:0000000000000748 .LVL135
     /tmp/ccDb2nWZ.s:1058   .text:0000000000000750 .LVL136
     /tmp/ccDb2nWZ.s:1062   .text:0000000000000758 .LVL137
     /tmp/ccDb2nWZ.s:970    .text:0000000000000694 .LBB50
     /tmp/ccDb2nWZ.s:7023   .debug_loc:0000000000001402 .LLST31
     /tmp/ccDb2nWZ.s:7038   .debug_loc:000000000000143c .LLST32
     /tmp/ccDb2nWZ.s:7053   .debug_loc:0000000000001484 .LLST33
     /tmp/ccDb2nWZ.s:1072   .text:0000000000000768 .LVL138
     /tmp/ccDb2nWZ.s:1077   .text:0000000000000778 .LVL139
     /tmp/ccDb2nWZ.s:1082   .text:0000000000000788 .LVL140
     /tmp/ccDb2nWZ.s:1087   .text:0000000000000794 .LVL141
     /tmp/ccDb2nWZ.s:1092   .text:00000000000007a4 .LVL142
     /tmp/ccDb2nWZ.s:1096   .text:00000000000007ac .LVL143
     /tmp/ccDb2nWZ.s:1100   .text:00000000000007b4 .LVL144
     /tmp/ccDb2nWZ.s:919    .text:0000000000000634 .LVL108
     /tmp/ccDb2nWZ.s:932    .text:0000000000000650 .LVL111
     /tmp/ccDb2nWZ.s:7417   .debug_str:0000000000000587 .LASF49
     /tmp/ccDb2nWZ.s:7257   .debug_str:000000000000006e .LASF50
     /tmp/ccDb2nWZ.s:98     .text:0000000000000068 .LFB11
     /tmp/ccDb2nWZ.s:171    .text:0000000000000110 .LFE11
     /tmp/ccDb2nWZ.s:113    .text:0000000000000088 .LVL5
     /tmp/ccDb2nWZ.s:117    .text:0000000000000090 .LVL6
     /tmp/ccDb2nWZ.s:134    .text:00000000000000b8 .LVL7
     /tmp/ccDb2nWZ.s:141    .text:00000000000000d0 .LVL8
     /tmp/ccDb2nWZ.s:146    .text:00000000000000dc .LVL9
     /tmp/ccDb2nWZ.s:151    .text:00000000000000e8 .LVL10
     /tmp/ccDb2nWZ.s:156    .text:00000000000000f8 .LVL11
GAS LISTING /tmp/ccDb2nWZ.s 			page 80


     /tmp/ccDb2nWZ.s:160    .text:0000000000000100 .LVL12
     /tmp/ccDb2nWZ.s:7321   .debug_str:0000000000000228 .LASF51
     /tmp/ccDb2nWZ.s:7419   .debug_str:0000000000000595 .LASF52
     /tmp/ccDb2nWZ.s:18     .text:0000000000000000 .LFB10
     /tmp/ccDb2nWZ.s:84     .text:0000000000000068 .LFE10
     /tmp/ccDb2nWZ.s:41     .text:0000000000000024 .LVL0
     /tmp/ccDb2nWZ.s:45     .text:000000000000002c .LVL1
     /tmp/ccDb2nWZ.s:57     .text:000000000000003c .LVL2
     /tmp/ccDb2nWZ.s:69     .text:0000000000000050 .LVL3
     /tmp/ccDb2nWZ.s:73     .text:0000000000000058 .LVL4
     /tmp/ccDb2nWZ.s:7381   .debug_str:00000000000003c7 .LASF53
     /tmp/ccDb2nWZ.s:7269   .debug_str:00000000000000c0 .LASF54
     /tmp/ccDb2nWZ.s:7333   .debug_str:000000000000028a .LASF55
     /tmp/ccDb2nWZ.s:7265   .debug_str:00000000000000ad .LASF56
     /tmp/ccDb2nWZ.s:7313   .debug_str:0000000000000205 .LASF57
     /tmp/ccDb2nWZ.s:7267   .debug_str:00000000000000b2 .LASF58
     /tmp/ccDb2nWZ.s:7391   .debug_str:000000000000040d .LASF60
     /tmp/ccDb2nWZ.s:7259   .debug_str:0000000000000081 .LASF59
     /tmp/ccDb2nWZ.s:7247   .debug_str:0000000000000027 .LASF61
     /tmp/ccDb2nWZ.s:7399   .debug_str:0000000000000454 .LASF62
     /tmp/ccDb2nWZ.s:7421   .debug_str:00000000000005a5 .LASF63
     /tmp/ccDb2nWZ.s:7395   .debug_str:0000000000000430 .LASF64
     /tmp/ccDb2nWZ.s:7387   .debug_str:00000000000003f0 .LASF65
     /tmp/ccDb2nWZ.s:7373   .debug_str:0000000000000398 .LASF66
     /tmp/ccDb2nWZ.s:7317   .debug_str:0000000000000211 .LASF67
     /tmp/ccDb2nWZ.s:7363   .debug_str:000000000000034e .LASF68
     /tmp/ccDb2nWZ.s:7279   .debug_str:0000000000000115 .LASF69
     /tmp/ccDb2nWZ.s:7379   .debug_str:00000000000003b9 .LASF70
     /tmp/ccDb2nWZ.s:7349   .debug_str:00000000000002f1 .LASF71
     /tmp/ccDb2nWZ.s:7415   .debug_str:000000000000057c .LASF72
     /tmp/ccDb2nWZ.s:7315   .debug_str:000000000000020a .LASF73
     /tmp/ccDb2nWZ.s:7289   .debug_str:000000000000015e .LASF74
     /tmp/ccDb2nWZ.s:7263   .debug_str:000000000000009d .LASF75
     /tmp/ccDb2nWZ.s:7353   .debug_str:000000000000030e .LASF76
     /tmp/ccDb2nWZ.s:7301   .debug_str:00000000000001c5 .LASF77
     /tmp/ccDb2nWZ.s:7249   .debug_str:0000000000000031 .LASF78
     /tmp/ccDb2nWZ.s:7277   .debug_str:00000000000000fb .LASF79
     /tmp/ccDb2nWZ.s:7347   .debug_str:00000000000002d4 .LASF80
     /tmp/ccDb2nWZ.s:7273   .debug_str:00000000000000e6 .LASF81
     /tmp/ccDb2nWZ.s:7311   .debug_str:00000000000001f4 .LASF82
     /tmp/ccDb2nWZ.s:7401   .debug_str:000000000000045f .LASF83
     /tmp/ccDb2nWZ.s:7287   .debug_str:0000000000000140 .LASF84
     /tmp/ccDb2nWZ.s:7291   .debug_str:0000000000000173 .LASF85
     /tmp/ccDb2nWZ.s:7369   .debug_str:000000000000037f .LASF86
     /tmp/ccDb2nWZ.s:7385   .debug_str:00000000000003e5 .LASF87
     /tmp/ccDb2nWZ.s:1839   .text:0000000000000d04 .LVL259
     /tmp/ccDb2nWZ.s:1844   .text:0000000000000d08 .LVL260
     /tmp/ccDb2nWZ.s:2058   .text:0000000000000e8c .LVL296
     /tmp/ccDb2nWZ.s:2062   .text:0000000000000e94 .LVL297
     /tmp/ccDb2nWZ.s:1876   .text:0000000000000d3c .LVL264
     /tmp/ccDb2nWZ.s:1890   .text:0000000000000d58 .LVL265
     /tmp/ccDb2nWZ.s:1895   .text:0000000000000d60 .LVL267
     /tmp/ccDb2nWZ.s:1912   .text:0000000000000d70 .LVL270
     /tmp/ccDb2nWZ.s:1938   .text:0000000000000d98 .LVL274
     /tmp/ccDb2nWZ.s:1985   .text:0000000000000dfc .LVL282
     /tmp/ccDb2nWZ.s:2037   .text:0000000000000e68 .LVL292
     /tmp/ccDb2nWZ.s:2070   .text:0000000000000e9c .LVL298
GAS LISTING /tmp/ccDb2nWZ.s 			page 81


     /tmp/ccDb2nWZ.s:1864   .text:0000000000000d30 .LVL262
     /tmp/ccDb2nWZ.s:1866   .text:0000000000000d34 .LVL263
     /tmp/ccDb2nWZ.s:1893   .text:0000000000000d5c .LVL266
     /tmp/ccDb2nWZ.s:1900   .text:0000000000000d64 .LVL268
     /tmp/ccDb2nWZ.s:1936   .text:0000000000000d94 .LVL273
     /tmp/ccDb2nWZ.s:2053   .text:0000000000000e84 .LVL295
     /tmp/ccDb2nWZ.s:1931   .text:0000000000000d90 .LVL272
     /tmp/ccDb2nWZ.s:1902   .text:0000000000000d68 .LVL269
     /tmp/ccDb2nWZ.s:2031   .text:0000000000000e60 .LVL291
     /tmp/ccDb2nWZ.s:1579   .text:0000000000000b1c .LVL214
     /tmp/ccDb2nWZ.s:1589   .text:0000000000000b28 .LVL215
     /tmp/ccDb2nWZ.s:1631   .text:0000000000000b60 .LVL226
     /tmp/ccDb2nWZ.s:1635   .text:0000000000000b64 .LVL227
     /tmp/ccDb2nWZ.s:1778   .text:0000000000000ca8 .LVL254
     /tmp/ccDb2nWZ.s:1593   .text:0000000000000b2c .LVL216
     /tmp/ccDb2nWZ.s:1628   .text:0000000000000b5c .LVL225
     /tmp/ccDb2nWZ.s:1781   .text:0000000000000cac .LVL255
     /tmp/ccDb2nWZ.s:1624   .text:0000000000000b58 .LVL224
     /tmp/ccDb2nWZ.s:1771   .text:0000000000000c9c .LVL253
     /tmp/ccDb2nWZ.s:1600   .text:0000000000000b3c .LVL218
     /tmp/ccDb2nWZ.s:1604   .text:0000000000000b40 .LVL219
     /tmp/ccDb2nWZ.s:1608   .text:0000000000000b4c .LVL221
     /tmp/ccDb2nWZ.s:1641   .text:0000000000000b6c .LVL228
     /tmp/ccDb2nWZ.s:1718   .text:0000000000000c24 .LVL243
     /tmp/ccDb2nWZ.s:1612   .text:0000000000000b50 .LVL222
     /tmp/ccDb2nWZ.s:1618   .text:0000000000000b54 .LVL223
     /tmp/ccDb2nWZ.s:825    .text:0000000000000598 .LVL99
     /tmp/ccDb2nWZ.s:844    .text:00000000000005c0 .LVL100
     /tmp/ccDb2nWZ.s:861    .text:00000000000005dc .LVL101
     /tmp/ccDb2nWZ.s:876    .text:00000000000005fc .LVL104
     /tmp/ccDb2nWZ.s:1329   .text:0000000000000950 .LVL179
     /tmp/ccDb2nWZ.s:1355   .text:0000000000000978 .LVL181
     /tmp/ccDb2nWZ.s:1384   .text:00000000000009b0 .LVL187
     /tmp/ccDb2nWZ.s:1392   .text:00000000000009b8 .LVL188
     /tmp/ccDb2nWZ.s:1382   .text:00000000000009ac .LVL186
     /tmp/ccDb2nWZ.s:1373   .text:00000000000009a0 .LVL184
     /tmp/ccDb2nWZ.s:1432   .text:0000000000000a14 .LVL196
     /tmp/ccDb2nWZ.s:1345   .text:0000000000000970 .LVL180
     /tmp/ccDb2nWZ.s:1131   .text:00000000000007d0 .LVL146
     /tmp/ccDb2nWZ.s:1157   .text:00000000000007f8 .LVL148
     /tmp/ccDb2nWZ.s:1186   .text:0000000000000830 .LVL154
     /tmp/ccDb2nWZ.s:1194   .text:0000000000000838 .LVL155
     /tmp/ccDb2nWZ.s:1184   .text:000000000000082c .LVL153
     /tmp/ccDb2nWZ.s:1175   .text:0000000000000820 .LVL151
     /tmp/ccDb2nWZ.s:1234   .text:0000000000000894 .LVL163
     /tmp/ccDb2nWZ.s:1147   .text:00000000000007f0 .LVL147
     /tmp/ccDb2nWZ.s:479    .text:0000000000000320 .LVL51
     /tmp/ccDb2nWZ.s:509    .text:0000000000000350 .LVL55
     /tmp/ccDb2nWZ.s:548    .text:00000000000003ac .LVL63
     /tmp/ccDb2nWZ.s:681    .text:0000000000000484 .LVL80
     /tmp/ccDb2nWZ.s:491    .text:0000000000000334 .LVL52
     /tmp/ccDb2nWZ.s:496    .text:0000000000000340 .LVL53
     /tmp/ccDb2nWZ.s:631    .text:000000000000043c .LVL74
     /tmp/ccDb2nWZ.s:649    .text:0000000000000458 .LVL77
     /tmp/ccDb2nWZ.s:651    .text:000000000000045c .LVL78
     /tmp/ccDb2nWZ.s:502    .text:0000000000000348 .LVL54
     /tmp/ccDb2nWZ.s:657    .text:0000000000000468 .LVL79
GAS LISTING /tmp/ccDb2nWZ.s 			page 82


     /tmp/ccDb2nWZ.s:604    .text:0000000000000414 .LVL72
     /tmp/ccDb2nWZ.s:610    .text:0000000000000418 .LVL73
     /tmp/ccDb2nWZ.s:637    .text:000000000000044c .LVL75
     /tmp/ccDb2nWZ.s:643    .text:0000000000000450 .LVL76
     /tmp/ccDb2nWZ.s:359    .text:000000000000024c .LVL35
     /tmp/ccDb2nWZ.s:436    .text:00000000000002cc .LVL43
     /tmp/ccDb2nWZ.s:364    .text:0000000000000258 .LVL36
     /tmp/ccDb2nWZ.s:382    .text:000000000000026c .LVL38
     /tmp/ccDb2nWZ.s:389    .text:0000000000000280 .LVL39
     /tmp/ccDb2nWZ.s:391    .text:0000000000000284 .LVL40
     /tmp/ccDb2nWZ.s:370    .text:0000000000000260 .LVL37
     /tmp/ccDb2nWZ.s:413    .text:00000000000002ac .LVL42
     /tmp/ccDb2nWZ.s:262    .text:00000000000001a8 .LVL19
     /tmp/ccDb2nWZ.s:265    .text:00000000000001ac .LVL20
     /tmp/ccDb2nWZ.s:302    .text:00000000000001e8 .LVL25
     /tmp/ccDb2nWZ.s:308    .text:00000000000001ec .LVL26
     /tmp/ccDb2nWZ.s:310    .text:00000000000001f0 .LVL27
     /tmp/ccDb2nWZ.s:271    .text:00000000000001b8 .LVL21
     /tmp/ccDb2nWZ.s:278    .text:00000000000001bc .LVL22
     /tmp/ccDb2nWZ.s:888    .text:0000000000000600 .LVL105
     /tmp/ccDb2nWZ.s:908    .text:0000000000000620 .LVL107
     /tmp/ccDb2nWZ.s:904    .text:000000000000061c .LVL106
     /tmp/ccDb2nWZ.s:1117   .text:00000000000007c8 .LVL145
     /tmp/ccDb2nWZ.s:922    .text:0000000000000638 .LVL109
     /tmp/ccDb2nWZ.s:966    .text:000000000000068c .LVL117
     /tmp/ccDb2nWZ.s:985    .text:00000000000006a0 .LVL121
     /tmp/ccDb2nWZ.s:927    .text:0000000000000644 .LVL110
     /tmp/ccDb2nWZ.s:964    .text:0000000000000688 .LVL116
     /tmp/ccDb2nWZ.s:962    .text:0000000000000684 .LVL115
     /tmp/ccDb2nWZ.s:993    .text:00000000000006a8 .LVL122
     /tmp/ccDb2nWZ.s:1032   .text:0000000000000704 .LVL130
     /tmp/ccDb2nWZ.s:939    .text:0000000000000654 .LVL112
     /tmp/ccDb2nWZ.s:950    .text:0000000000000674 .LVL113
     /tmp/ccDb2nWZ.s:956    .text:0000000000000678 .LVL114
     /tmp/ccDb2nWZ.s:969    .text:0000000000000694 .LVL118
     /tmp/ccDb2nWZ.s:975    .text:0000000000000698 .LVL119
     /tmp/ccDb2nWZ.s:2125   .debug_info:0000000000000000 .Ldebug_info0
     /tmp/ccDb2nWZ.s:280    .text:00000000000001bc .LBE4
     /tmp/ccDb2nWZ.s:312    .text:00000000000001f0 .LBB7
     /tmp/ccDb2nWZ.s:348    .text:000000000000024c .LBE7
     /tmp/ccDb2nWZ.s:421    .text:00000000000002b4 .LBE12
     /tmp/ccDb2nWZ.s:431    .text:00000000000002c4 .LBB15
     /tmp/ccDb2nWZ.s:468    .text:0000000000000320 .LBE15
     /tmp/ccDb2nWZ.s:542    .text:00000000000003a4 .LBE24
     /tmp/ccDb2nWZ.s:605    .text:0000000000000414 .LBB30
     /tmp/ccDb2nWZ.s:612    .text:0000000000000418 .LBE30
     /tmp/ccDb2nWZ.s:581    .text:0000000000000400 .LBE27
     /tmp/ccDb2nWZ.s:638    .text:000000000000044c .LBB31
     /tmp/ccDb2nWZ.s:645    .text:0000000000000450 .LBE31
     /tmp/ccDb2nWZ.s:663    .text:000000000000046c .LBE32
     /tmp/ccDb2nWZ.s:676    .text:000000000000047c .LBB35
     /tmp/ccDb2nWZ.s:713    .text:00000000000004d8 .LBE35
     /tmp/ccDb2nWZ.s:914    .text:0000000000000628 .LBB43
     /tmp/ccDb2nWZ.s:982    .text:000000000000069c .LBE43
     /tmp/ccDb2nWZ.s:987    .text:00000000000006a0 .LBB56
     /tmp/ccDb2nWZ.s:1104   .text:00000000000007b4 .LBE56
     /tmp/ccDb2nWZ.s:941    .text:0000000000000654 .LBE44
GAS LISTING /tmp/ccDb2nWZ.s 			page 83


     /tmp/ccDb2nWZ.s:988    .text:00000000000006a0 .LBB53
     /tmp/ccDb2nWZ.s:1026   .text:00000000000006fc .LBE53
     /tmp/ccDb2nWZ.s:958    .text:0000000000000678 .LBE47
     /tmp/ccDb2nWZ.s:1027   .text:00000000000006fc .LBB54
     /tmp/ccDb2nWZ.s:1065   .text:0000000000000758 .LBE54
     /tmp/ccDb2nWZ.s:977    .text:0000000000000698 .LBE50
     /tmp/ccDb2nWZ.s:1066   .text:0000000000000758 .LBB55
     /tmp/ccDb2nWZ.s:1103   .text:00000000000007b4 .LBE55
     /tmp/ccDb2nWZ.s:1153   .text:00000000000007f4 .LBE64
     /tmp/ccDb2nWZ.s:1189   .text:0000000000000830 .LBB72
     /tmp/ccDb2nWZ.s:1227   .text:000000000000088c .LBE72
     /tmp/ccDb2nWZ.s:1154   .text:00000000000007f4 .LBB67
     /tmp/ccDb2nWZ.s:1188   .text:0000000000000830 .LBE67
     /tmp/ccDb2nWZ.s:1228   .text:000000000000088c .LBB73
     /tmp/ccDb2nWZ.s:1268   .text:00000000000008e8 .LBE73
     /tmp/ccDb2nWZ.s:1177   .text:0000000000000820 .LBE68
     /tmp/ccDb2nWZ.s:1229   .text:000000000000088c .LBB71
     /tmp/ccDb2nWZ.s:1267   .text:00000000000008e8 .LBE71
     /tmp/ccDb2nWZ.s:1351   .text:0000000000000974 .LBE83
     /tmp/ccDb2nWZ.s:1387   .text:00000000000009b0 .LBB91
     /tmp/ccDb2nWZ.s:1425   .text:0000000000000a0c .LBE91
     /tmp/ccDb2nWZ.s:1352   .text:0000000000000974 .LBB86
     /tmp/ccDb2nWZ.s:1386   .text:00000000000009b0 .LBE86
     /tmp/ccDb2nWZ.s:1426   .text:0000000000000a0c .LBB92
     /tmp/ccDb2nWZ.s:1466   .text:0000000000000a68 .LBE92
     /tmp/ccDb2nWZ.s:1375   .text:00000000000009a0 .LBE87
     /tmp/ccDb2nWZ.s:1427   .text:0000000000000a0c .LBB90
     /tmp/ccDb2nWZ.s:1465   .text:0000000000000a68 .LBE90
     /tmp/ccDb2nWZ.s:1571   .text:0000000000000b10 .LBB101
     /tmp/ccDb2nWZ.s:1574   .text:0000000000000b14 .LBE101
     /tmp/ccDb2nWZ.s:1581   .text:0000000000000b1c .LBB111
     /tmp/ccDb2nWZ.s:1753   .text:0000000000000c78 .LBE111
     /tmp/ccDb2nWZ.s:1585   .text:0000000000000b24 .LBB102
     /tmp/ccDb2nWZ.s:1621   .text:0000000000000b54 .LBE102
     /tmp/ccDb2nWZ.s:1625   .text:0000000000000b58 .LBB109
     /tmp/ccDb2nWZ.s:1632   .text:0000000000000b60 .LBE109
     /tmp/ccDb2nWZ.s:1637   .text:0000000000000b64 .LBB110
     /tmp/ccDb2nWZ.s:1752   .text:0000000000000c78 .LBE110
     /tmp/ccDb2nWZ.s:1620   .text:0000000000000b54 .LBE103
     /tmp/ccDb2nWZ.s:1713   .text:0000000000000c1c .LBB108
     /tmp/ccDb2nWZ.s:1751   .text:0000000000000c78 .LBE108
     /tmp/ccDb2nWZ.s:1869   .text:0000000000000d34 .LBB122
     /tmp/ccDb2nWZ.s:1872   .text:0000000000000d38 .LBE122
     /tmp/ccDb2nWZ.s:1877   .text:0000000000000d3c .LBB123
     /tmp/ccDb2nWZ.s:1897   .text:0000000000000d60 .LBE123
     /tmp/ccDb2nWZ.s:1908   .text:0000000000000d6c .LBE124
     /tmp/ccDb2nWZ.s:1941   .text:0000000000000d98 .LBB132
     /tmp/ccDb2nWZ.s:1978   .text:0000000000000df4 .LBE132
     /tmp/ccDb2nWZ.s:1909   .text:0000000000000d6c .LBB127
     /tmp/ccDb2nWZ.s:1940   .text:0000000000000d98 .LBE127
     /tmp/ccDb2nWZ.s:1979   .text:0000000000000df4 .LBB133
     /tmp/ccDb2nWZ.s:2019   .text:0000000000000e50 .LBE133
     /tmp/ccDb2nWZ.s:1933   .text:0000000000000d90 .LBE128
     /tmp/ccDb2nWZ.s:1980   .text:0000000000000df4 .LBB131
     /tmp/ccDb2nWZ.s:2018   .text:0000000000000e50 .LBE131
     /tmp/ccDb2nWZ.s:2033   .text:0000000000000e60 .LBE134
     /tmp/ccDb2nWZ.s:2065   .text:0000000000000e94 .LBB137
GAS LISTING /tmp/ccDb2nWZ.s 			page 84


     /tmp/ccDb2nWZ.s:2102   .text:0000000000000ef0 .LBE137

UNDEFINED SYMBOLS
_Z9putStringPKc
_Z10putNewlinev
_Z10time_sleepm
_Z13thread_createPmPFvPvES0_
_Z11thread_joinm
_Z6putInti
_Z10stopKernelv
gTimer
_Z25disableExternalInterruptsv
_Z15thread_dispatchv
_Z24enableExternalInterruptsv
_Z9test_callm
_Z11thread_exitv
_Z6putU64m
_Z9mem_allocm
_Z8mem_freePv
