GAS LISTING /tmp/ccCcFigu.s 			page 1


   1              		.file	"APP.cpp"
   2              		.option pic
   3              		.option norelax
   4              		.text
   5              	.Ltext0:
   6              		.section	.rodata.str1.8,"aMS",@progbits,1
   7              		.align	3
   8              	.LC0:
   9 0000 3D3D3D3D 		.string	"===================== ASSERT file: "
   9      3D3D3D3D 
   9      3D3D3D3D 
   9      3D3D3D3D 
   9      3D3D3D3D 
  10 0024 00000000 		.align	3
  11              	.LC1:
  12 0028 7372632F 		.string	"src/APP.cpp"
  12      4150502E 
  12      63707000 
  13 0034 00000000 		.align	3
  14              	.LC2:
  15 0038 20202020 		.string	"    line: "
  15      6C696E65 
  15      3A2000
  16 0043 00000000 		.align	3
  16      00
  17              	.LC3:
  18 0048 2020203D 		.string	"   ==========================="
  18      3D3D3D3D 
  18      3D3D3D3D 
  18      3D3D3D3D 
  18      3D3D3D3D 
  19 0067 00       		.align	3
  20              	.LC4:
  21 0068 3D3D3D20 		.string	"=== Testing \"testSyncCall\""
  21      54657374 
  21      696E6720 
  21      22746573 
  21      7453796E 
  22              		.text
  23              		.align	2
  24              		.globl	_Z12testSyncCallv
  26              	_Z12testSyncCallv:
  27              	.LFB11:
  28              		.file 1 "src/APP.cpp"
   1:src/APP.cpp   **** #include "../h/my_console.h"
   2:src/APP.cpp   **** #include "../h/c_api.h"
   3:src/APP.cpp   **** #include "../h/alloc.h"
   4:src/APP.cpp   **** #include "../h/thread.h"
   5:src/APP.cpp   **** 
   6:src/APP.cpp   **** void testSystemCalls();
   7:src/APP.cpp   **** void testMemoryAllocator();
   8:src/APP.cpp   **** void testSyncCall();
   9:src/APP.cpp   **** uint64 fib(uint64);
  10:src/APP.cpp   **** 
  11:src/APP.cpp   **** void userMain()
  12:src/APP.cpp   **** {
  13:src/APP.cpp   ****     putString("App started");
GAS LISTING /tmp/ccCcFigu.s 			page 2


  14:src/APP.cpp   ****     putNewline();
  15:src/APP.cpp   ****     assert(MemAlloc::get()->getUserlandUsage() == 0);
  16:src/APP.cpp   **** 
  17:src/APP.cpp   ****     testSystemCalls();
  18:src/APP.cpp   **** 
  19:src/APP.cpp   ****     testMemoryAllocator();
  20:src/APP.cpp   **** 
  21:src/APP.cpp   ****     testSyncCall();
  22:src/APP.cpp   **** 
  23:src/APP.cpp   ****     assert(MemAlloc::get()->getUserlandUsage() == 0);
  24:src/APP.cpp   ****     putString("App ended");
  25:src/APP.cpp   ****     putNewline();
  26:src/APP.cpp   **** }
  27:src/APP.cpp   **** 
  28:src/APP.cpp   **** void testSyncCall()
  29:src/APP.cpp   **** {
  29              		.loc 1 29 1
  30              		.cfi_startproc
  31 0000 130101FD 		addi	sp,sp,-48
  32              		.cfi_def_cfa_offset 48
  33 0004 23341102 		sd	ra,40(sp)
  34 0008 23308102 		sd	s0,32(sp)
  35              		.cfi_offset 1, -8
  36              		.cfi_offset 8, -16
  37 000c 13040103 		addi	s0,sp,48
  38              		.cfi_def_cfa 8, 0
  30:src/APP.cpp   ****     disableExternalInterrupts();
  39              		.loc 1 30 5
  40              		.loc 1 30 30 is_stmt 0
  41 0010 97000000 		call	_Z25disableExternalInterruptsv@plt
  41      E7800000 
  42              	.LVL0:
  31:src/APP.cpp   **** 
  32:src/APP.cpp   ****     assert(MemAlloc::get()->getUserlandUsage() == 0);
  43              		.loc 1 32 5 is_stmt 1
  44 0018 97000000 		call	_ZN8MemAlloc3getEv@plt
  44      E7800000 
  45              	.LVL1:
  46 0020 97000000 		call	_ZN8MemAlloc16getUserlandUsageEv@plt
  46      E7800000 
  47              	.LVL2:
  48              	.LBB8:
  49              	.LBB9:
  50              		.file 2 "src/../h/my_console.h"
   1:src/../h/my_console.h **** #pragma once
   2:src/../h/my_console.h **** 
   3:src/../h/my_console.h **** #include "../h/risc.h"
   4:src/../h/my_console.h **** 
   5:src/../h/my_console.h **** #include "../lib/console.h"
   6:src/../h/my_console.h **** #include "../lib/hw.h"
   7:src/../h/my_console.h **** 
   8:src/../h/my_console.h **** #define __DEBUG_MODE
   9:src/../h/my_console.h **** 
  10:src/../h/my_console.h **** 
  11:src/../h/my_console.h **** void putString(const char* s);
  12:src/../h/my_console.h **** void putInt(int n);
  13:src/../h/my_console.h **** void putNewline();
GAS LISTING /tmp/ccCcFigu.s 			page 3


  14:src/../h/my_console.h **** void putU64(uint64 n);
  15:src/../h/my_console.h **** void putBinary(uint64 n);
  16:src/../h/my_console.h **** 
  17:src/../h/my_console.h **** [[noreturn]] void stopKernel();
  18:src/../h/my_console.h **** 
  19:src/../h/my_console.h **** inline void _assert(bool valid, const char* file, int line) // MUST be inline
  20:src/../h/my_console.h **** {
  21:src/../h/my_console.h ****     if(valid)
  51              		.loc 2 21 5
  52 0028 6310050C 		bnez	a0,.L6
  22:src/../h/my_console.h ****         return;
  53              		.loc 2 22 9
  54              	.LVL3:
  55              	.LBE9:
  56              	.LBE8:
  33:src/APP.cpp   **** 
  34:src/APP.cpp   ****     putString("=== Testing \"testSyncCall\"");
  57              		.loc 1 34 5
  58              		.loc 1 34 14 is_stmt 0
  59 002c 17050000 		lla	a0,.LC4
  59      13050500 
  60 0034 97000000 		call	_Z9putStringPKc@plt
  60      E7800000 
  61              	.LVL4:
  35:src/APP.cpp   **** 
  36:src/APP.cpp   ****     void doA(void*);
  62              		.loc 1 36 5 is_stmt 1
  37:src/APP.cpp   ****     void doB(void*);
  63              		.loc 1 37 5
  38:src/APP.cpp   **** 
  39:src/APP.cpp   ****     int argA = 69;
  64              		.loc 1 39 5
  65              		.loc 1 39 9 is_stmt 0
  66 003c 93075004 		li	a5,69
  67 0040 2326F4FE 		sw	a5,-20(s0)
  40:src/APP.cpp   ****     int argB = 420;
  68              		.loc 1 40 5 is_stmt 1
  69              		.loc 1 40 9 is_stmt 0
  70 0044 9307401A 		li	a5,420
  71 0048 2324F4FE 		sw	a5,-24(s0)
  41:src/APP.cpp   ****     thread_t a;
  72              		.loc 1 41 5 is_stmt 1
  42:src/APP.cpp   ****     thread_t b;
  73              		.loc 1 42 5
  43:src/APP.cpp   ****     thread_create(&a, doA, &argA);
  74              		.loc 1 43 5
  75              		.loc 1 43 18 is_stmt 0
  76 004c 1306C4FE 		addi	a2,s0,-20
  77 0050 97050000 		la	a1,_Z3doAPv
  77      83B50500 
  78 0058 130504FE 		addi	a0,s0,-32
  79 005c 97000000 		call	_Z13thread_createPmPFvPvES0_@plt
  79      E7800000 
  80              	.LVL5:
  44:src/APP.cpp   ****     thread_create(&b, doB, &argB);
  81              		.loc 1 44 5 is_stmt 1
  82              		.loc 1 44 18 is_stmt 0
GAS LISTING /tmp/ccCcFigu.s 			page 4


  83 0064 130684FE 		addi	a2,s0,-24
  84 0068 97050000 		la	a1,_Z3doBPv
  84      83B50500 
  85 0070 130584FD 		addi	a0,s0,-40
  86 0074 97000000 		call	_Z13thread_createPmPFvPvES0_@plt
  86      E7800000 
  87              	.LVL6:
  45:src/APP.cpp   ****     thread_dispatch();
  88              		.loc 1 45 5 is_stmt 1
  89              		.loc 1 45 20 is_stmt 0
  90 007c 97000000 		call	_Z15thread_dispatchv@plt
  90      E7800000 
  91              	.LVL7:
  46:src/APP.cpp   **** 
  47:src/APP.cpp   ****     assert(Thread::pAllThreads[a]->id == Thread::pAllThreads[b]->id-1);
  92              		.loc 1 47 5 is_stmt 1
  93 0084 17070000 		la	a4,_ZN6Thread11pAllThreadsE
  93      03370700 
  94 008c 833704FE 		ld	a5,-32(s0)
  95 0090 93973700 		slli	a5,a5,3
  96 0094 B307F700 		add	a5,a4,a5
  97 0098 83B70700 		ld	a5,0(a5)
  98 009c 83B6871B 		ld	a3,440(a5)
  99 00a0 833784FD 		ld	a5,-40(s0)
 100 00a4 93973700 		slli	a5,a5,3
 101 00a8 3307F700 		add	a4,a4,a5
 102 00ac 83370700 		ld	a5,0(a4)
 103 00b0 83B7871B 		ld	a5,440(a5)
 104 00b4 9387F7FF 		addi	a5,a5,-1
 105              	.LVL8:
 106              	.LBB11:
 107              	.LBB12:
  21:src/../h/my_console.h ****         return;
 108              		.loc 2 21 5
 109 00b8 6396F608 		bne	a3,a5,.L7
 110              		.loc 2 22 9
 111              	.LVL9:
 112              	.LBE12:
 113              	.LBE11:
  48:src/APP.cpp   ****     assert(MemAlloc::get()->getUserlandUsage() == 0);
 114              		.loc 1 48 5
 115 00bc 97000000 		call	_ZN8MemAlloc3getEv@plt
 115      E7800000 
 116              	.LVL10:
 117 00c4 97000000 		call	_ZN8MemAlloc16getUserlandUsageEv@plt
 117      E7800000 
 118              	.LVL11:
 119              	.LBB14:
 120              	.LBB15:
  21:src/../h/my_console.h ****         return;
 121              		.loc 2 21 5
 122 00cc 631A050C 		bnez	a0,.L8
 123              		.loc 2 22 9
 124              	.LVL12:
 125              	.LBE15:
 126              	.LBE14:
  49:src/APP.cpp   **** 
GAS LISTING /tmp/ccCcFigu.s 			page 5


  50:src/APP.cpp   ****     enableExternalInterrupts();
 127              		.loc 1 50 5
 128              		.loc 1 50 29 is_stmt 0
 129 00d0 97000000 		call	_Z24enableExternalInterruptsv@plt
 129      E7800000 
 130              	.LVL13:
  51:src/APP.cpp   **** }
 131              		.loc 1 51 1
 132 00d8 83308102 		ld	ra,40(sp)
 133              		.cfi_remember_state
 134              		.cfi_restore 1
 135 00dc 03340102 		ld	s0,32(sp)
 136              		.cfi_restore 8
 137              		.cfi_def_cfa 2, 48
 138 00e0 13010103 		addi	sp,sp,48
 139              		.cfi_def_cfa_offset 0
 140 00e4 67800000 		jr	ra
 141              	.LVL14:
 142              	.L6:
 143              		.cfi_restore_state
 144              	.LBB17:
 145              	.LBB10:
  23:src/../h/my_console.h **** 
  24:src/../h/my_console.h ****     putString("===================== ASSERT file: ");
 146              		.loc 2 24 5 is_stmt 1
 147              		.loc 2 24 14 is_stmt 0
 148 00e8 17050000 		lla	a0,.LC0
 148      13050500 
 149              	.LVL15:
 150 00f0 97000000 		call	_Z9putStringPKc@plt
 150      E7800000 
 151              	.LVL16:
  25:src/../h/my_console.h ****     putString(file);
 152              		.loc 2 25 5 is_stmt 1
 153              		.loc 2 25 14 is_stmt 0
 154 00f8 17050000 		lla	a0,.LC1
 154      13050500 
 155 0100 97000000 		call	_Z9putStringPKc@plt
 155      E7800000 
 156              	.LVL17:
  26:src/../h/my_console.h ****     putString("    line: ");
 157              		.loc 2 26 5 is_stmt 1
 158              		.loc 2 26 14 is_stmt 0
 159 0108 17050000 		lla	a0,.LC2
 159      13050500 
 160 0110 97000000 		call	_Z9putStringPKc@plt
 160      E7800000 
 161              	.LVL18:
  27:src/../h/my_console.h ****     putInt(line);
 162              		.loc 2 27 5 is_stmt 1
 163              		.loc 2 27 11 is_stmt 0
 164 0118 13050002 		li	a0,32
 165 011c 97000000 		call	_Z6putInti@plt
 165      E7800000 
 166              	.LVL19:
  28:src/../h/my_console.h ****     putString("   ===========================");
 167              		.loc 2 28 5 is_stmt 1
GAS LISTING /tmp/ccCcFigu.s 			page 6


 168              		.loc 2 28 14 is_stmt 0
 169 0124 17050000 		lla	a0,.LC3
 169      13050500 
 170 012c 97000000 		call	_Z9putStringPKc@plt
 170      E7800000 
 171              	.LVL20:
  29:src/../h/my_console.h ****     putNewline();
 172              		.loc 2 29 5 is_stmt 1
 173              		.loc 2 29 15 is_stmt 0
 174 0134 97000000 		call	_Z10putNewlinev@plt
 174      E7800000 
 175              	.LVL21:
  30:src/../h/my_console.h **** 
  31:src/../h/my_console.h ****     stopKernel();
 176              		.loc 2 31 5 is_stmt 1
 177              		.loc 2 31 15 is_stmt 0
 178 013c 97000000 		call	_Z10stopKernelv@plt
 178      E7800000 
 179              	.LVL22:
 180              	.L7:
 181              	.LBE10:
 182              	.LBE17:
 183              	.LBB18:
 184              	.LBB13:
  24:src/../h/my_console.h ****     putString(file);
 185              		.loc 2 24 5 is_stmt 1
  24:src/../h/my_console.h ****     putString(file);
 186              		.loc 2 24 14 is_stmt 0
 187 0144 17050000 		lla	a0,.LC0
 187      13050500 
 188 014c 97000000 		call	_Z9putStringPKc@plt
 188      E7800000 
 189              	.LVL23:
  25:src/../h/my_console.h ****     putString("    line: ");
 190              		.loc 2 25 5 is_stmt 1
  25:src/../h/my_console.h ****     putString("    line: ");
 191              		.loc 2 25 14 is_stmt 0
 192 0154 17050000 		lla	a0,.LC1
 192      13050500 
 193 015c 97000000 		call	_Z9putStringPKc@plt
 193      E7800000 
 194              	.LVL24:
  26:src/../h/my_console.h ****     putInt(line);
 195              		.loc 2 26 5 is_stmt 1
  26:src/../h/my_console.h ****     putInt(line);
 196              		.loc 2 26 14 is_stmt 0
 197 0164 17050000 		lla	a0,.LC2
 197      13050500 
 198 016c 97000000 		call	_Z9putStringPKc@plt
 198      E7800000 
 199              	.LVL25:
  27:src/../h/my_console.h ****     putString("   ===========================");
 200              		.loc 2 27 5 is_stmt 1
  27:src/../h/my_console.h ****     putString("   ===========================");
 201              		.loc 2 27 11 is_stmt 0
 202 0174 1305F002 		li	a0,47
 203 0178 97000000 		call	_Z6putInti@plt
GAS LISTING /tmp/ccCcFigu.s 			page 7


 203      E7800000 
 204              	.LVL26:
  28:src/../h/my_console.h ****     putNewline();
 205              		.loc 2 28 5 is_stmt 1
  28:src/../h/my_console.h ****     putNewline();
 206              		.loc 2 28 14 is_stmt 0
 207 0180 17050000 		lla	a0,.LC3
 207      13050500 
 208 0188 97000000 		call	_Z9putStringPKc@plt
 208      E7800000 
 209              	.LVL27:
  29:src/../h/my_console.h **** 
 210              		.loc 2 29 5 is_stmt 1
  29:src/../h/my_console.h **** 
 211              		.loc 2 29 15 is_stmt 0
 212 0190 97000000 		call	_Z10putNewlinev@plt
 212      E7800000 
 213              	.LVL28:
 214              		.loc 2 31 5 is_stmt 1
 215              		.loc 2 31 15 is_stmt 0
 216 0198 97000000 		call	_Z10stopKernelv@plt
 216      E7800000 
 217              	.LVL29:
 218              	.L8:
 219              	.LBE13:
 220              	.LBE18:
 221              	.LBB19:
 222              	.LBB16:
  24:src/../h/my_console.h ****     putString(file);
 223              		.loc 2 24 5 is_stmt 1
  24:src/../h/my_console.h ****     putString(file);
 224              		.loc 2 24 14 is_stmt 0
 225 01a0 17050000 		lla	a0,.LC0
 225      13050500 
 226              	.LVL30:
 227 01a8 97000000 		call	_Z9putStringPKc@plt
 227      E7800000 
 228              	.LVL31:
  25:src/../h/my_console.h ****     putString("    line: ");
 229              		.loc 2 25 5 is_stmt 1
  25:src/../h/my_console.h ****     putString("    line: ");
 230              		.loc 2 25 14 is_stmt 0
 231 01b0 17050000 		lla	a0,.LC1
 231      13050500 
 232 01b8 97000000 		call	_Z9putStringPKc@plt
 232      E7800000 
 233              	.LVL32:
  26:src/../h/my_console.h ****     putInt(line);
 234              		.loc 2 26 5 is_stmt 1
  26:src/../h/my_console.h ****     putInt(line);
 235              		.loc 2 26 14 is_stmt 0
 236 01c0 17050000 		lla	a0,.LC2
 236      13050500 
 237 01c8 97000000 		call	_Z9putStringPKc@plt
 237      E7800000 
 238              	.LVL33:
  27:src/../h/my_console.h ****     putString("   ===========================");
GAS LISTING /tmp/ccCcFigu.s 			page 8


 239              		.loc 2 27 5 is_stmt 1
  27:src/../h/my_console.h ****     putString("   ===========================");
 240              		.loc 2 27 11 is_stmt 0
 241 01d0 13050003 		li	a0,48
 242 01d4 97000000 		call	_Z6putInti@plt
 242      E7800000 
 243              	.LVL34:
  28:src/../h/my_console.h ****     putNewline();
 244              		.loc 2 28 5 is_stmt 1
  28:src/../h/my_console.h ****     putNewline();
 245              		.loc 2 28 14 is_stmt 0
 246 01dc 17050000 		lla	a0,.LC3
 246      13050500 
 247 01e4 97000000 		call	_Z9putStringPKc@plt
 247      E7800000 
 248              	.LVL35:
  29:src/../h/my_console.h **** 
 249              		.loc 2 29 5 is_stmt 1
  29:src/../h/my_console.h **** 
 250              		.loc 2 29 15 is_stmt 0
 251 01ec 97000000 		call	_Z10putNewlinev@plt
 251      E7800000 
 252              	.LVL36:
 253              		.loc 2 31 5 is_stmt 1
 254              		.loc 2 31 15 is_stmt 0
 255 01f4 97000000 		call	_Z10stopKernelv@plt
 255      E7800000 
 256              	.LVL37:
 257              	.LBE16:
 258              	.LBE19:
 259              		.cfi_endproc
 260              	.LFE11:
 262              		.align	2
 263              		.globl	_Z16callFromUserModePFvvE
 265              	_Z16callFromUserModePFvvE:
 266              	.LFB14:
  52:src/APP.cpp   **** 
  53:src/APP.cpp   **** 
  54:src/APP.cpp   **** void doA(void* p)
  55:src/APP.cpp   **** {
  56:src/APP.cpp   ****     assert(*((int*)p) == 69);
  57:src/APP.cpp   **** 
  58:src/APP.cpp   ****     for(int i=0; ; i++)
  59:src/APP.cpp   ****     {
  60:src/APP.cpp   ****         putString("A i=");
  61:src/APP.cpp   ****         putU64(i);
  62:src/APP.cpp   ****         putNewline();
  63:src/APP.cpp   **** 
  64:src/APP.cpp   ****         assert(fib(i) == test_call(i));
  65:src/APP.cpp   ****         if(i == 5)
  66:src/APP.cpp   ****         {
  67:src/APP.cpp   ****             break;
  68:src/APP.cpp   ****             assert(false);
  69:src/APP.cpp   ****         }
  70:src/APP.cpp   ****         thread_dispatch();
  71:src/APP.cpp   ****     }
  72:src/APP.cpp   **** }
GAS LISTING /tmp/ccCcFigu.s 			page 9


  73:src/APP.cpp   **** 
  74:src/APP.cpp   **** void doB(void* p)
  75:src/APP.cpp   **** {
  76:src/APP.cpp   ****     assert(*((int*)p) == 420);
  77:src/APP.cpp   ****     for(int i=0; ; i++)
  78:src/APP.cpp   ****     {
  79:src/APP.cpp   ****         putString("B i=");
  80:src/APP.cpp   ****         putU64(i);
  81:src/APP.cpp   ****         putNewline();
  82:src/APP.cpp   **** 
  83:src/APP.cpp   ****         assert(fib(i) == test_call(i));
  84:src/APP.cpp   ****         thread_dispatch();
  85:src/APP.cpp   **** 
  86:src/APP.cpp   ****         if(i == 10)
  87:src/APP.cpp   ****             break;
  88:src/APP.cpp   ****     }
  89:src/APP.cpp   **** }
  90:src/APP.cpp   **** 
  91:src/APP.cpp   **** void callFromUserMode(void (*f)(void))
  92:src/APP.cpp   **** {
 267              		.loc 1 92 1 is_stmt 1
 268              		.cfi_startproc
 269              	.LVL38:
 270 01fc 130101FF 		addi	sp,sp,-16
 271              		.cfi_def_cfa_offset 16
 272 0200 23341100 		sd	ra,8(sp)
 273 0204 23308100 		sd	s0,0(sp)
 274              		.cfi_offset 1, -8
 275              		.cfi_offset 8, -16
 276 0208 13040101 		addi	s0,sp,16
 277              		.cfi_def_cfa 8, 0
  93:src/APP.cpp   ****     assert(false); // disabled because it gives an error after void main() finishes, idk why probab
 278              		.loc 1 93 5
 279              	.LVL39:
 280              	.LBB22:
 281              	.LBB23:
  21:src/../h/my_console.h ****         return;
 282              		.loc 2 21 5
  24:src/../h/my_console.h ****     putString(file);
 283              		.loc 2 24 5
  24:src/../h/my_console.h ****     putString(file);
 284              		.loc 2 24 14 is_stmt 0
 285 020c 17050000 		lla	a0,.LC0
 285      13050500 
 286              	.LVL40:
 287 0214 97000000 		call	_Z9putStringPKc@plt
 287      E7800000 
 288              	.LVL41:
  25:src/../h/my_console.h ****     putString("    line: ");
 289              		.loc 2 25 5 is_stmt 1
  25:src/../h/my_console.h ****     putString("    line: ");
 290              		.loc 2 25 14 is_stmt 0
 291 021c 17050000 		lla	a0,.LC1
 291      13050500 
 292 0224 97000000 		call	_Z9putStringPKc@plt
 292      E7800000 
 293              	.LVL42:
GAS LISTING /tmp/ccCcFigu.s 			page 10


  26:src/../h/my_console.h ****     putInt(line);
 294              		.loc 2 26 5 is_stmt 1
  26:src/../h/my_console.h ****     putInt(line);
 295              		.loc 2 26 14 is_stmt 0
 296 022c 17050000 		lla	a0,.LC2
 296      13050500 
 297 0234 97000000 		call	_Z9putStringPKc@plt
 297      E7800000 
 298              	.LVL43:
  27:src/../h/my_console.h ****     putString("   ===========================");
 299              		.loc 2 27 5 is_stmt 1
  27:src/../h/my_console.h ****     putString("   ===========================");
 300              		.loc 2 27 11 is_stmt 0
 301 023c 1305D005 		li	a0,93
 302 0240 97000000 		call	_Z6putInti@plt
 302      E7800000 
 303              	.LVL44:
  28:src/../h/my_console.h ****     putNewline();
 304              		.loc 2 28 5 is_stmt 1
  28:src/../h/my_console.h ****     putNewline();
 305              		.loc 2 28 14 is_stmt 0
 306 0248 17050000 		lla	a0,.LC3
 306      13050500 
 307 0250 97000000 		call	_Z9putStringPKc@plt
 307      E7800000 
 308              	.LVL45:
  29:src/../h/my_console.h **** 
 309              		.loc 2 29 5 is_stmt 1
  29:src/../h/my_console.h **** 
 310              		.loc 2 29 15 is_stmt 0
 311 0258 97000000 		call	_Z10putNewlinev@plt
 311      E7800000 
 312              	.LVL46:
 313              		.loc 2 31 5 is_stmt 1
 314              		.loc 2 31 15 is_stmt 0
 315 0260 97000000 		call	_Z10stopKernelv@plt
 315      E7800000 
 316              	.LVL47:
 317              	.LBE23:
 318              	.LBE22:
 319              		.cfi_endproc
 320              	.LFE14:
 322              		.align	2
 323              		.globl	_Z3fibm
 325              	_Z3fibm:
 326              	.LFB15:
  94:src/APP.cpp   ****     __asm__ volatile ("csrc sstatus, 0x9"); // set spp (previous privilegde) bit to 0 signifieng us
  95:src/APP.cpp   ****     __asm__ volatile ("csrc sstatus, 0x6"); // spie bit to 1 (enable interupts (idk if external or 
  96:src/APP.cpp   ****     __asm__ volatile ("csrw sepc, %[name]" : : [name] "r" (f));
  97:src/APP.cpp   ****     __asm__ volatile ("sret");
  98:src/APP.cpp   **** }
  99:src/APP.cpp   **** 
 100:src/APP.cpp   **** uint64 fib(uint64 n)
 101:src/APP.cpp   **** {
 327              		.loc 1 101 1 is_stmt 1
 328              		.cfi_startproc
 329              	.LVL48:
GAS LISTING /tmp/ccCcFigu.s 			page 11


 330 0268 130101FE 		addi	sp,sp,-32
 331              		.cfi_def_cfa_offset 32
 332 026c 233C1100 		sd	ra,24(sp)
 333 0270 23388100 		sd	s0,16(sp)
 334 0274 23349100 		sd	s1,8(sp)
 335 0278 23302101 		sd	s2,0(sp)
 336              		.cfi_offset 1, -8
 337              		.cfi_offset 8, -16
 338              		.cfi_offset 9, -24
 339              		.cfi_offset 18, -32
 340 027c 13040102 		addi	s0,sp,32
 341              		.cfi_def_cfa 8, 0
 342 0280 93040500 		mv	s1,a0
 102:src/APP.cpp   ****     if(n == 1)
 343              		.loc 1 102 5
 344 0284 93071000 		li	a5,1
 345 0288 6304F500 		beq	a0,a5,.L12
 103:src/APP.cpp   ****         return 1;
 104:src/APP.cpp   ****     else if (n == 0)
 346              		.loc 1 104 10
 347 028c 63100502 		bnez	a0,.L14
 348              	.LVL49:
 349              	.L12:
 105:src/APP.cpp   ****         return 0;
 106:src/APP.cpp   ****     else return fib(n-1) + fib(n-2);
 107:src/APP.cpp   **** }
 350              		.loc 1 107 1 is_stmt 0
 351 0290 13850400 		mv	a0,s1
 352 0294 83308101 		ld	ra,24(sp)
 353              		.cfi_remember_state
 354              		.cfi_restore 1
 355 0298 03340101 		ld	s0,16(sp)
 356              		.cfi_restore 8
 357              		.cfi_def_cfa 2, 32
 358 029c 83348100 		ld	s1,8(sp)
 359              		.cfi_restore 9
 360 02a0 03390100 		ld	s2,0(sp)
 361              		.cfi_restore 18
 362 02a4 13010102 		addi	sp,sp,32
 363              		.cfi_def_cfa_offset 0
 364 02a8 67800000 		jr	ra
 365              	.LVL50:
 366              	.L14:
 367              		.cfi_restore_state
 106:src/APP.cpp   **** }
 368              		.loc 1 106 10 is_stmt 1
 106:src/APP.cpp   **** }
 369              		.loc 1 106 20 is_stmt 0
 370 02ac 1305F5FF 		addi	a0,a0,-1
 371 02b0 97000000 		call	_Z3fibm
 371      E7800000 
 372              	.LVL51:
 373 02b8 13090500 		mv	s2,a0
 106:src/APP.cpp   **** }
 374              		.loc 1 106 31
 375 02bc 1385E4FF 		addi	a0,s1,-2
 376 02c0 97000000 		call	_Z3fibm
GAS LISTING /tmp/ccCcFigu.s 			page 12


 376      E7800000 
 377              	.LVL52:
 106:src/APP.cpp   **** }
 378              		.loc 1 106 35
 379 02c8 B304A900 		add	s1,s2,a0
 380              	.LVL53:
 381 02cc 6FF05FFC 		j	.L12
 382              		.cfi_endproc
 383              	.LFE15:
 385              		.section	.rodata.str1.8
 386 0083 00000000 		.align	3
 386      00
 387              	.LC5:
 388 0088 4120693D 		.string	"A i="
 388      00
 389              		.text
 390              		.align	2
 391              		.globl	_Z3doAPv
 393              	_Z3doAPv:
 394              	.LFB12:
  55:src/APP.cpp   ****     assert(*((int*)p) == 69);
 395              		.loc 1 55 1 is_stmt 1
 396              		.cfi_startproc
 397              	.LVL54:
 398 02d0 130101FE 		addi	sp,sp,-32
 399              		.cfi_def_cfa_offset 32
 400 02d4 233C1100 		sd	ra,24(sp)
 401 02d8 23388100 		sd	s0,16(sp)
 402 02dc 23349100 		sd	s1,8(sp)
 403 02e0 23302101 		sd	s2,0(sp)
 404              		.cfi_offset 1, -8
 405              		.cfi_offset 8, -16
 406              		.cfi_offset 9, -24
 407              		.cfi_offset 18, -32
 408 02e4 13040102 		addi	s0,sp,32
 409              		.cfi_def_cfa 8, 0
  56:src/APP.cpp   **** 
 410              		.loc 1 56 5
 411 02e8 83270500 		lw	a5,0(a0)
 412 02ec 9387B7FB 		addi	a5,a5,-69
 413              	.LVL55:
 414              	.LBB29:
 415              	.LBB30:
  21:src/../h/my_console.h ****         return;
 416              		.loc 2 21 5
 417 02f0 63920706 		bnez	a5,.L21
 418              	.LBE30:
 419              	.LBE29:
 420              	.LBB32:
  58:src/APP.cpp   ****     {
 421              		.loc 1 58 13 is_stmt 0
 422 02f4 93040000 		li	s1,0
 423              	.LVL56:
 424              	.L16:
  60:src/APP.cpp   ****         putU64(i);
 425              		.loc 1 60 9 is_stmt 1
  60:src/APP.cpp   ****         putU64(i);
GAS LISTING /tmp/ccCcFigu.s 			page 13


 426              		.loc 1 60 18 is_stmt 0
 427 02f8 17050000 		lla	a0,.LC5
 427      13050500 
 428 0300 97000000 		call	_Z9putStringPKc@plt
 428      E7800000 
 429              	.LVL57:
  61:src/APP.cpp   ****         putNewline();
 430              		.loc 1 61 9 is_stmt 1
  61:src/APP.cpp   ****         putNewline();
 431              		.loc 1 61 15 is_stmt 0
 432 0308 13850400 		mv	a0,s1
 433 030c 97000000 		call	_Z6putU64m@plt
 433      E7800000 
 434              	.LVL58:
  62:src/APP.cpp   **** 
 435              		.loc 1 62 9 is_stmt 1
  62:src/APP.cpp   **** 
 436              		.loc 1 62 19 is_stmt 0
 437 0314 97000000 		call	_Z10putNewlinev@plt
 437      E7800000 
 438              	.LVL59:
  64:src/APP.cpp   ****         if(i == 5)
 439              		.loc 1 64 9 is_stmt 1
 440 031c 13850400 		mv	a0,s1
 441 0320 97000000 		call	_Z3fibm
 441      E7800000 
 442              	.LVL60:
 443 0328 13090500 		mv	s2,a0
 444 032c 13850400 		mv	a0,s1
 445 0330 97000000 		call	_Z9test_callm@plt
 445      E7800000 
 446              	.LVL61:
 447              	.LBB33:
 448              	.LBB34:
  21:src/../h/my_console.h ****         return;
 449              		.loc 2 21 5
 450 0338 631CA906 		bne	s2,a0,.L22
  22:src/../h/my_console.h **** 
 451              		.loc 2 22 9
 452              	.LVL62:
 453              	.LBE34:
 454              	.LBE33:
  65:src/APP.cpp   ****         {
 455              		.loc 1 65 9
 456 033c 93075000 		li	a5,5
 457 0340 6386F40C 		beq	s1,a5,.L15
  70:src/APP.cpp   ****     }
 458              		.loc 1 70 9
  70:src/APP.cpp   ****     }
 459              		.loc 1 70 24 is_stmt 0
 460 0344 97000000 		call	_Z15thread_dispatchv@plt
 460      E7800000 
 461              	.LVL63:
  58:src/APP.cpp   ****     {
 462              		.loc 1 58 5 is_stmt 1
 463 034c 9B841400 		addiw	s1,s1,1
 464              	.LVL64:
GAS LISTING /tmp/ccCcFigu.s 			page 14


  58:src/APP.cpp   ****     {
 465              		.loc 1 58 5
  60:src/APP.cpp   ****         putU64(i);
 466              		.loc 1 60 18 is_stmt 0
 467 0350 6FF09FFA 		j	.L16
 468              	.LVL65:
 469              	.L21:
 470              	.LBE32:
 471              	.LBB37:
 472              	.LBB31:
  24:src/../h/my_console.h ****     putString(file);
 473              		.loc 2 24 5 is_stmt 1
  24:src/../h/my_console.h ****     putString(file);
 474              		.loc 2 24 14 is_stmt 0
 475 0354 17050000 		lla	a0,.LC0
 475      13050500 
 476              	.LVL66:
 477 035c 97000000 		call	_Z9putStringPKc@plt
 477      E7800000 
 478              	.LVL67:
  25:src/../h/my_console.h ****     putString("    line: ");
 479              		.loc 2 25 5 is_stmt 1
  25:src/../h/my_console.h ****     putString("    line: ");
 480              		.loc 2 25 14 is_stmt 0
 481 0364 17050000 		lla	a0,.LC1
 481      13050500 
 482 036c 97000000 		call	_Z9putStringPKc@plt
 482      E7800000 
 483              	.LVL68:
  26:src/../h/my_console.h ****     putInt(line);
 484              		.loc 2 26 5 is_stmt 1
  26:src/../h/my_console.h ****     putInt(line);
 485              		.loc 2 26 14 is_stmt 0
 486 0374 17050000 		lla	a0,.LC2
 486      13050500 
 487 037c 97000000 		call	_Z9putStringPKc@plt
 487      E7800000 
 488              	.LVL69:
  27:src/../h/my_console.h ****     putString("   ===========================");
 489              		.loc 2 27 5 is_stmt 1
  27:src/../h/my_console.h ****     putString("   ===========================");
 490              		.loc 2 27 11 is_stmt 0
 491 0384 13058003 		li	a0,56
 492 0388 97000000 		call	_Z6putInti@plt
 492      E7800000 
 493              	.LVL70:
  28:src/../h/my_console.h ****     putNewline();
 494              		.loc 2 28 5 is_stmt 1
  28:src/../h/my_console.h ****     putNewline();
 495              		.loc 2 28 14 is_stmt 0
 496 0390 17050000 		lla	a0,.LC3
 496      13050500 
 497 0398 97000000 		call	_Z9putStringPKc@plt
 497      E7800000 
 498              	.LVL71:
  29:src/../h/my_console.h **** 
 499              		.loc 2 29 5 is_stmt 1
GAS LISTING /tmp/ccCcFigu.s 			page 15


  29:src/../h/my_console.h **** 
 500              		.loc 2 29 15 is_stmt 0
 501 03a0 97000000 		call	_Z10putNewlinev@plt
 501      E7800000 
 502              	.LVL72:
 503              		.loc 2 31 5 is_stmt 1
 504              		.loc 2 31 15 is_stmt 0
 505 03a8 97000000 		call	_Z10stopKernelv@plt
 505      E7800000 
 506              	.LVL73:
 507              	.L22:
 508              	.LBE31:
 509              	.LBE37:
 510              	.LBB38:
 511              	.LBB36:
 512              	.LBB35:
  24:src/../h/my_console.h ****     putString(file);
 513              		.loc 2 24 5 is_stmt 1
  24:src/../h/my_console.h ****     putString(file);
 514              		.loc 2 24 14 is_stmt 0
 515 03b0 17050000 		lla	a0,.LC0
 515      13050500 
 516              	.LVL74:
 517 03b8 97000000 		call	_Z9putStringPKc@plt
 517      E7800000 
 518              	.LVL75:
  25:src/../h/my_console.h ****     putString("    line: ");
 519              		.loc 2 25 5 is_stmt 1
  25:src/../h/my_console.h ****     putString("    line: ");
 520              		.loc 2 25 14 is_stmt 0
 521 03c0 17050000 		lla	a0,.LC1
 521      13050500 
 522 03c8 97000000 		call	_Z9putStringPKc@plt
 522      E7800000 
 523              	.LVL76:
  26:src/../h/my_console.h ****     putInt(line);
 524              		.loc 2 26 5 is_stmt 1
  26:src/../h/my_console.h ****     putInt(line);
 525              		.loc 2 26 14 is_stmt 0
 526 03d0 17050000 		lla	a0,.LC2
 526      13050500 
 527 03d8 97000000 		call	_Z9putStringPKc@plt
 527      E7800000 
 528              	.LVL77:
  27:src/../h/my_console.h ****     putString("   ===========================");
 529              		.loc 2 27 5 is_stmt 1
  27:src/../h/my_console.h ****     putString("   ===========================");
 530              		.loc 2 27 11 is_stmt 0
 531 03e0 13050004 		li	a0,64
 532 03e4 97000000 		call	_Z6putInti@plt
 532      E7800000 
 533              	.LVL78:
  28:src/../h/my_console.h ****     putNewline();
 534              		.loc 2 28 5 is_stmt 1
  28:src/../h/my_console.h ****     putNewline();
 535              		.loc 2 28 14 is_stmt 0
 536 03ec 17050000 		lla	a0,.LC3
GAS LISTING /tmp/ccCcFigu.s 			page 16


 536      13050500 
 537 03f4 97000000 		call	_Z9putStringPKc@plt
 537      E7800000 
 538              	.LVL79:
  29:src/../h/my_console.h **** 
 539              		.loc 2 29 5 is_stmt 1
  29:src/../h/my_console.h **** 
 540              		.loc 2 29 15 is_stmt 0
 541 03fc 97000000 		call	_Z10putNewlinev@plt
 541      E7800000 
 542              	.LVL80:
 543              		.loc 2 31 5 is_stmt 1
 544              		.loc 2 31 15 is_stmt 0
 545 0404 97000000 		call	_Z10stopKernelv@plt
 545      E7800000 
 546              	.LVL81:
 547              	.L15:
 548              	.LBE35:
 549              	.LBE36:
 550              	.LBE38:
  72:src/APP.cpp   **** 
 551              		.loc 1 72 1
 552 040c 83308101 		ld	ra,24(sp)
 553              		.cfi_restore 1
 554 0410 03340101 		ld	s0,16(sp)
 555              		.cfi_restore 8
 556              		.cfi_def_cfa 2, 32
 557 0414 83348100 		ld	s1,8(sp)
 558              		.cfi_restore 9
 559              	.LVL82:
 560 0418 03390100 		ld	s2,0(sp)
 561              		.cfi_restore 18
 562 041c 13010102 		addi	sp,sp,32
 563              		.cfi_def_cfa_offset 0
 564 0420 67800000 		jr	ra
 565              		.cfi_endproc
 566              	.LFE12:
 568              		.section	.rodata.str1.8
 569 008d 000000   		.align	3
 570              	.LC6:
 571 0090 4220693D 		.string	"B i="
 571      00
 572              		.text
 573              		.align	2
 574              		.globl	_Z3doBPv
 576              	_Z3doBPv:
 577              	.LFB13:
  75:src/APP.cpp   ****     assert(*((int*)p) == 420);
 578              		.loc 1 75 1 is_stmt 1
 579              		.cfi_startproc
 580              	.LVL83:
 581 0424 130101FE 		addi	sp,sp,-32
 582              		.cfi_def_cfa_offset 32
 583 0428 233C1100 		sd	ra,24(sp)
 584 042c 23388100 		sd	s0,16(sp)
 585 0430 23349100 		sd	s1,8(sp)
 586 0434 23302101 		sd	s2,0(sp)
GAS LISTING /tmp/ccCcFigu.s 			page 17


 587              		.cfi_offset 1, -8
 588              		.cfi_offset 8, -16
 589              		.cfi_offset 9, -24
 590              		.cfi_offset 18, -32
 591 0438 13040102 		addi	s0,sp,32
 592              		.cfi_def_cfa 8, 0
  76:src/APP.cpp   ****     for(int i=0; ; i++)
 593              		.loc 1 76 5
 594 043c 83270500 		lw	a5,0(a0)
 595 0440 9387C7E5 		addi	a5,a5,-420
 596              	.LVL84:
 597              	.LBB44:
 598              	.LBB45:
  21:src/../h/my_console.h ****         return;
 599              		.loc 2 21 5
 600 0444 63920706 		bnez	a5,.L29
 601              	.LBE45:
 602              	.LBE44:
 603              	.LBB47:
  77:src/APP.cpp   ****     {
 604              		.loc 1 77 13 is_stmt 0
 605 0448 93040000 		li	s1,0
 606              	.LVL85:
 607              	.L24:
  79:src/APP.cpp   ****         putU64(i);
 608              		.loc 1 79 9 is_stmt 1
  79:src/APP.cpp   ****         putU64(i);
 609              		.loc 1 79 18 is_stmt 0
 610 044c 17050000 		lla	a0,.LC6
 610      13050500 
 611 0454 97000000 		call	_Z9putStringPKc@plt
 611      E7800000 
 612              	.LVL86:
  80:src/APP.cpp   ****         putNewline();
 613              		.loc 1 80 9 is_stmt 1
  80:src/APP.cpp   ****         putNewline();
 614              		.loc 1 80 15 is_stmt 0
 615 045c 13850400 		mv	a0,s1
 616 0460 97000000 		call	_Z6putU64m@plt
 616      E7800000 
 617              	.LVL87:
  81:src/APP.cpp   **** 
 618              		.loc 1 81 9 is_stmt 1
  81:src/APP.cpp   **** 
 619              		.loc 1 81 19 is_stmt 0
 620 0468 97000000 		call	_Z10putNewlinev@plt
 620      E7800000 
 621              	.LVL88:
  83:src/APP.cpp   ****         thread_dispatch();
 622              		.loc 1 83 9 is_stmt 1
 623 0470 13850400 		mv	a0,s1
 624 0474 97000000 		call	_Z3fibm
 624      E7800000 
 625              	.LVL89:
 626 047c 13090500 		mv	s2,a0
 627 0480 13850400 		mv	a0,s1
 628 0484 97000000 		call	_Z9test_callm@plt
GAS LISTING /tmp/ccCcFigu.s 			page 18


 628      E7800000 
 629              	.LVL90:
 630              	.LBB48:
 631              	.LBB49:
  21:src/../h/my_console.h ****         return;
 632              		.loc 2 21 5
 633 048c 631CA906 		bne	s2,a0,.L30
  22:src/../h/my_console.h **** 
 634              		.loc 2 22 9
 635              	.LVL91:
 636              	.LBE49:
 637              	.LBE48:
  84:src/APP.cpp   **** 
 638              		.loc 1 84 9
  84:src/APP.cpp   **** 
 639              		.loc 1 84 24 is_stmt 0
 640 0490 97000000 		call	_Z15thread_dispatchv@plt
 640      E7800000 
 641              	.LVL92:
  86:src/APP.cpp   ****             break;
 642              		.loc 1 86 9 is_stmt 1
 643 0498 9307A000 		li	a5,10
 644 049c 6382F40C 		beq	s1,a5,.L23
  77:src/APP.cpp   ****     {
 645              		.loc 1 77 5
 646 04a0 9B841400 		addiw	s1,s1,1
 647              	.LVL93:
  77:src/APP.cpp   ****     {
 648              		.loc 1 77 5
  79:src/APP.cpp   ****         putU64(i);
 649              		.loc 1 79 18 is_stmt 0
 650 04a4 6FF09FFA 		j	.L24
 651              	.LVL94:
 652              	.L29:
 653              	.LBE47:
 654              	.LBB52:
 655              	.LBB46:
  24:src/../h/my_console.h ****     putString(file);
 656              		.loc 2 24 5 is_stmt 1
  24:src/../h/my_console.h ****     putString(file);
 657              		.loc 2 24 14 is_stmt 0
 658 04a8 17050000 		lla	a0,.LC0
 658      13050500 
 659              	.LVL95:
 660 04b0 97000000 		call	_Z9putStringPKc@plt
 660      E7800000 
 661              	.LVL96:
  25:src/../h/my_console.h ****     putString("    line: ");
 662              		.loc 2 25 5 is_stmt 1
  25:src/../h/my_console.h ****     putString("    line: ");
 663              		.loc 2 25 14 is_stmt 0
 664 04b8 17050000 		lla	a0,.LC1
 664      13050500 
 665 04c0 97000000 		call	_Z9putStringPKc@plt
 665      E7800000 
 666              	.LVL97:
  26:src/../h/my_console.h ****     putInt(line);
GAS LISTING /tmp/ccCcFigu.s 			page 19


 667              		.loc 2 26 5 is_stmt 1
  26:src/../h/my_console.h ****     putInt(line);
 668              		.loc 2 26 14 is_stmt 0
 669 04c8 17050000 		lla	a0,.LC2
 669      13050500 
 670 04d0 97000000 		call	_Z9putStringPKc@plt
 670      E7800000 
 671              	.LVL98:
  27:src/../h/my_console.h ****     putString("   ===========================");
 672              		.loc 2 27 5 is_stmt 1
  27:src/../h/my_console.h ****     putString("   ===========================");
 673              		.loc 2 27 11 is_stmt 0
 674 04d8 1305C004 		li	a0,76
 675 04dc 97000000 		call	_Z6putInti@plt
 675      E7800000 
 676              	.LVL99:
  28:src/../h/my_console.h ****     putNewline();
 677              		.loc 2 28 5 is_stmt 1
  28:src/../h/my_console.h ****     putNewline();
 678              		.loc 2 28 14 is_stmt 0
 679 04e4 17050000 		lla	a0,.LC3
 679      13050500 
 680 04ec 97000000 		call	_Z9putStringPKc@plt
 680      E7800000 
 681              	.LVL100:
  29:src/../h/my_console.h **** 
 682              		.loc 2 29 5 is_stmt 1
  29:src/../h/my_console.h **** 
 683              		.loc 2 29 15 is_stmt 0
 684 04f4 97000000 		call	_Z10putNewlinev@plt
 684      E7800000 
 685              	.LVL101:
 686              		.loc 2 31 5 is_stmt 1
 687              		.loc 2 31 15 is_stmt 0
 688 04fc 97000000 		call	_Z10stopKernelv@plt
 688      E7800000 
 689              	.LVL102:
 690              	.L30:
 691              	.LBE46:
 692              	.LBE52:
 693              	.LBB53:
 694              	.LBB51:
 695              	.LBB50:
  24:src/../h/my_console.h ****     putString(file);
 696              		.loc 2 24 5 is_stmt 1
  24:src/../h/my_console.h ****     putString(file);
 697              		.loc 2 24 14 is_stmt 0
 698 0504 17050000 		lla	a0,.LC0
 698      13050500 
 699              	.LVL103:
 700 050c 97000000 		call	_Z9putStringPKc@plt
 700      E7800000 
 701              	.LVL104:
  25:src/../h/my_console.h ****     putString("    line: ");
 702              		.loc 2 25 5 is_stmt 1
  25:src/../h/my_console.h ****     putString("    line: ");
 703              		.loc 2 25 14 is_stmt 0
GAS LISTING /tmp/ccCcFigu.s 			page 20


 704 0514 17050000 		lla	a0,.LC1
 704      13050500 
 705 051c 97000000 		call	_Z9putStringPKc@plt
 705      E7800000 
 706              	.LVL105:
  26:src/../h/my_console.h ****     putInt(line);
 707              		.loc 2 26 5 is_stmt 1
  26:src/../h/my_console.h ****     putInt(line);
 708              		.loc 2 26 14 is_stmt 0
 709 0524 17050000 		lla	a0,.LC2
 709      13050500 
 710 052c 97000000 		call	_Z9putStringPKc@plt
 710      E7800000 
 711              	.LVL106:
  27:src/../h/my_console.h ****     putString("   ===========================");
 712              		.loc 2 27 5 is_stmt 1
  27:src/../h/my_console.h ****     putString("   ===========================");
 713              		.loc 2 27 11 is_stmt 0
 714 0534 13053005 		li	a0,83
 715 0538 97000000 		call	_Z6putInti@plt
 715      E7800000 
 716              	.LVL107:
  28:src/../h/my_console.h ****     putNewline();
 717              		.loc 2 28 5 is_stmt 1
  28:src/../h/my_console.h ****     putNewline();
 718              		.loc 2 28 14 is_stmt 0
 719 0540 17050000 		lla	a0,.LC3
 719      13050500 
 720 0548 97000000 		call	_Z9putStringPKc@plt
 720      E7800000 
 721              	.LVL108:
  29:src/../h/my_console.h **** 
 722              		.loc 2 29 5 is_stmt 1
  29:src/../h/my_console.h **** 
 723              		.loc 2 29 15 is_stmt 0
 724 0550 97000000 		call	_Z10putNewlinev@plt
 724      E7800000 
 725              	.LVL109:
 726              		.loc 2 31 5 is_stmt 1
 727              		.loc 2 31 15 is_stmt 0
 728 0558 97000000 		call	_Z10stopKernelv@plt
 728      E7800000 
 729              	.LVL110:
 730              	.L23:
 731              	.LBE50:
 732              	.LBE51:
 733              	.LBE53:
  89:src/APP.cpp   **** 
 734              		.loc 1 89 1
 735 0560 83308101 		ld	ra,24(sp)
 736              		.cfi_restore 1
 737 0564 03340101 		ld	s0,16(sp)
 738              		.cfi_restore 8
 739              		.cfi_def_cfa 2, 32
 740 0568 83348100 		ld	s1,8(sp)
 741              		.cfi_restore 9
 742              	.LVL111:
GAS LISTING /tmp/ccCcFigu.s 			page 21


 743 056c 03390100 		ld	s2,0(sp)
 744              		.cfi_restore 18
 745 0570 13010102 		addi	sp,sp,32
 746              		.cfi_def_cfa_offset 0
 747 0574 67800000 		jr	ra
 748              		.cfi_endproc
 749              	.LFE13:
 751              		.section	.rodata.str1.8
 752 0095 000000   		.align	3
 753              	.LC7:
 754 0098 3D3D3D20 		.string	"=== Testing \"testSystemCalls\""
 754      54657374 
 754      696E6720 
 754      22746573 
 754      74537973 
 755 00b6 0000     		.align	3
 756              	.LC8:
 757 00b8 74657374 		.string	"test_call() error. i="
 757      5F63616C 
 757      6C282920 
 757      6572726F 
 757      722E2069 
 758 00ce 0000     		.align	3
 759              	.LC9:
 760 00d0 20666962 		.string	" fib(i)="
 760      2869293D 
 760      00
 761 00d9 00000000 		.align	3
 761      000000
 762              	.LC10:
 763 00e0 20746573 		.string	" test_call(i)="
 763      745F6361 
 763      6C6C2869 
 763      293D00
 764 00ef 00       		.align	3
 765              	.LC11:
 766 00f0 3D3D3D3D 		.string	"====== Done testing system calls"
 766      3D3D2044 
 766      6F6E6520 
 766      74657374 
 766      696E6720 
 767              		.text
 768              		.align	2
 769              		.globl	_Z15testSystemCallsv
 771              	_Z15testSystemCallsv:
 772              	.LFB16:
 108:src/APP.cpp   **** 
 109:src/APP.cpp   **** void testSystemCalls()
 110:src/APP.cpp   **** {
 773              		.loc 1 110 1 is_stmt 1
 774              		.cfi_startproc
 775 0578 130101FB 		addi	sp,sp,-80
 776              		.cfi_def_cfa_offset 80
 777 057c 23341104 		sd	ra,72(sp)
 778 0580 23308104 		sd	s0,64(sp)
 779 0584 233C9102 		sd	s1,56(sp)
 780 0588 23382103 		sd	s2,48(sp)
GAS LISTING /tmp/ccCcFigu.s 			page 22


 781 058c 23343103 		sd	s3,40(sp)
 782 0590 23304103 		sd	s4,32(sp)
 783 0594 233C5101 		sd	s5,24(sp)
 784 0598 23386101 		sd	s6,16(sp)
 785 059c 23347101 		sd	s7,8(sp)
 786              		.cfi_offset 1, -8
 787              		.cfi_offset 8, -16
 788              		.cfi_offset 9, -24
 789              		.cfi_offset 18, -32
 790              		.cfi_offset 19, -40
 791              		.cfi_offset 20, -48
 792              		.cfi_offset 21, -56
 793              		.cfi_offset 22, -64
 794              		.cfi_offset 23, -72
 795 05a0 13040105 		addi	s0,sp,80
 796              		.cfi_def_cfa 8, 0
 111:src/APP.cpp   ****     putString("=== Testing \"testSystemCalls\"");
 797              		.loc 1 111 5
 798              		.loc 1 111 14 is_stmt 0
 799 05a4 17050000 		lla	a0,.LC7
 799      13050500 
 800 05ac 97000000 		call	_Z9putStringPKc@plt
 800      E7800000 
 801              	.LVL112:
 112:src/APP.cpp   ****     putNewline();
 802              		.loc 1 112 5 is_stmt 1
 803              		.loc 1 112 15 is_stmt 0
 804 05b4 97000000 		call	_Z10putNewlinev@plt
 804      E7800000 
 805              	.LVL113:
 113:src/APP.cpp   **** 
 114:src/APP.cpp   ****     int a = 0;
 806              		.loc 1 114 5 is_stmt 1
 115:src/APP.cpp   ****     int b = 0;
 807              		.loc 1 115 5
 116:src/APP.cpp   **** 
 117:src/APP.cpp   ****     for(int i=1; i<10; i++)
 808              		.loc 1 117 5
 809              	.LBB62:
 810              		.loc 1 117 13 is_stmt 0
 811 05bc 93041000 		li	s1,1
 812              	.LBE62:
 115:src/APP.cpp   ****     int b = 0;
 813              		.loc 1 115 9
 814 05c0 930A0000 		li	s5,0
 114:src/APP.cpp   ****     int b = 0;
 815              		.loc 1 114 9
 816 05c4 130A0000 		li	s4,0
 817              	.LVL114:
 818              	.L35:
 819              	.LBB72:
 820              		.loc 1 117 19 is_stmt 1 discriminator 1
 821 05c8 93079000 		li	a5,9
 822 05cc 63CC9714 		bgt	s1,a5,.L32
 823              	.LBB63:
 118:src/APP.cpp   ****     {
 119:src/APP.cpp   ****         a++;
GAS LISTING /tmp/ccCcFigu.s 			page 23


 824              		.loc 1 119 9
 825              		.loc 1 119 10 is_stmt 0
 826 05d0 1B0B1A00 		addiw	s6,s4,1
 827              	.LVL115:
 120:src/APP.cpp   ****         b++;
 828              		.loc 1 120 9 is_stmt 1
 829              		.loc 1 120 10 is_stmt 0
 830 05d4 9B8B1A00 		addiw	s7,s5,1
 831              	.LVL116:
 121:src/APP.cpp   **** 
 122:src/APP.cpp   ****         uint64 called = test_call(i);
 832              		.loc 1 122 9 is_stmt 1
 833              		.loc 1 122 34 is_stmt 0
 834 05d8 13850400 		mv	a0,s1
 835 05dc 97000000 		call	_Z9test_callm@plt
 835      E7800000 
 836              	.LVL117:
 837 05e4 13090500 		mv	s2,a0
 838              	.LVL118:
 123:src/APP.cpp   ****         uint64 actual = fib(i);
 839              		.loc 1 123 9 is_stmt 1
 840              		.loc 1 123 28 is_stmt 0
 841 05e8 13850400 		mv	a0,s1
 842              	.LVL119:
 843 05ec 97000000 		call	_Z3fibm
 843      E7800000 
 844              	.LVL120:
 845 05f4 93090500 		mv	s3,a0
 846              	.LVL121:
 124:src/APP.cpp   **** 
 125:src/APP.cpp   ****         if(called != actual)
 847              		.loc 1 125 9 is_stmt 1
 848 05f8 631CA900 		bne	s2,a0,.L38
 126:src/APP.cpp   ****         {
 127:src/APP.cpp   ****             putString("test_call() error. i=");
 128:src/APP.cpp   ****             putInt(i);
 129:src/APP.cpp   ****             putString(" fib(i)=");
 130:src/APP.cpp   ****             putU64(actual);
 131:src/APP.cpp   ****             putString(" test_call(i)=");
 132:src/APP.cpp   ****             putU64(called);
 133:src/APP.cpp   ****             putNewline();
 134:src/APP.cpp   ****             assert(false);
 135:src/APP.cpp   ****         }
 136:src/APP.cpp   **** 
 137:src/APP.cpp   ****         assert(a == b);
 849              		.loc 1 137 9 discriminator 2
 850              	.LVL122:
 851              	.LBB64:
 852              	.LBB65:
  21:src/../h/my_console.h ****         return;
 853              		.loc 2 21 5 discriminator 2
 854 05fc 63165A0D 		bne	s4,s5,.L39
  22:src/../h/my_console.h **** 
 855              		.loc 2 22 9 discriminator 2
 856              	.LVL123:
 857              	.LBE65:
 858              	.LBE64:
GAS LISTING /tmp/ccCcFigu.s 			page 24


 859              	.LBE63:
 117:src/APP.cpp   ****     {
 860              		.loc 1 117 5 discriminator 2
 861 0600 9B841400 		addiw	s1,s1,1
 862              	.LVL124:
 863              	.LBB70:
 120:src/APP.cpp   **** 
 864              		.loc 1 120 10 is_stmt 0 discriminator 2
 865 0604 938A0B00 		mv	s5,s7
 866              	.LVL125:
 119:src/APP.cpp   ****         b++;
 867              		.loc 1 119 10 discriminator 2
 868 0608 130A0B00 		mv	s4,s6
 869              	.LVL126:
 870              	.LBE70:
 117:src/APP.cpp   ****     {
 871              		.loc 1 117 5 discriminator 2
 872 060c 6FF0DFFB 		j	.L35
 873              	.LVL127:
 874              	.L38:
 875              	.LBB71:
 127:src/APP.cpp   ****             putInt(i);
 876              		.loc 1 127 13 is_stmt 1
 127:src/APP.cpp   ****             putInt(i);
 877              		.loc 1 127 22 is_stmt 0
 878 0610 17050000 		lla	a0,.LC8
 878      13050500 
 879              	.LVL128:
 880 0618 97000000 		call	_Z9putStringPKc@plt
 880      E7800000 
 881              	.LVL129:
 128:src/APP.cpp   ****             putString(" fib(i)=");
 882              		.loc 1 128 13 is_stmt 1
 128:src/APP.cpp   ****             putString(" fib(i)=");
 883              		.loc 1 128 19 is_stmt 0
 884 0620 13850400 		mv	a0,s1
 885 0624 97000000 		call	_Z6putInti@plt
 885      E7800000 
 886              	.LVL130:
 129:src/APP.cpp   ****             putU64(actual);
 887              		.loc 1 129 13 is_stmt 1
 129:src/APP.cpp   ****             putU64(actual);
 888              		.loc 1 129 22 is_stmt 0
 889 062c 17050000 		lla	a0,.LC9
 889      13050500 
 890 0634 97000000 		call	_Z9putStringPKc@plt
 890      E7800000 
 891              	.LVL131:
 130:src/APP.cpp   ****             putString(" test_call(i)=");
 892              		.loc 1 130 13 is_stmt 1
 130:src/APP.cpp   ****             putString(" test_call(i)=");
 893              		.loc 1 130 19 is_stmt 0
 894 063c 13850900 		mv	a0,s3
 895 0640 97000000 		call	_Z6putU64m@plt
 895      E7800000 
 896              	.LVL132:
 131:src/APP.cpp   ****             putU64(called);
GAS LISTING /tmp/ccCcFigu.s 			page 25


 897              		.loc 1 131 13 is_stmt 1
 131:src/APP.cpp   ****             putU64(called);
 898              		.loc 1 131 22 is_stmt 0
 899 0648 17050000 		lla	a0,.LC10
 899      13050500 
 900 0650 97000000 		call	_Z9putStringPKc@plt
 900      E7800000 
 901              	.LVL133:
 132:src/APP.cpp   ****             putNewline();
 902              		.loc 1 132 13 is_stmt 1
 132:src/APP.cpp   ****             putNewline();
 903              		.loc 1 132 19 is_stmt 0
 904 0658 13050900 		mv	a0,s2
 905 065c 97000000 		call	_Z6putU64m@plt
 905      E7800000 
 906              	.LVL134:
 133:src/APP.cpp   ****             assert(false);
 907              		.loc 1 133 13 is_stmt 1
 133:src/APP.cpp   ****             assert(false);
 908              		.loc 1 133 23 is_stmt 0
 909 0664 97000000 		call	_Z10putNewlinev@plt
 909      E7800000 
 910              	.LVL135:
 134:src/APP.cpp   ****         }
 911              		.loc 1 134 13 is_stmt 1
 912              	.LBB67:
 913              	.LBB68:
  21:src/../h/my_console.h ****         return;
 914              		.loc 2 21 5
  24:src/../h/my_console.h ****     putString(file);
 915              		.loc 2 24 5
  24:src/../h/my_console.h ****     putString(file);
 916              		.loc 2 24 14 is_stmt 0
 917 066c 17050000 		lla	a0,.LC0
 917      13050500 
 918 0674 97000000 		call	_Z9putStringPKc@plt
 918      E7800000 
 919              	.LVL136:
  25:src/../h/my_console.h ****     putString("    line: ");
 920              		.loc 2 25 5 is_stmt 1
  25:src/../h/my_console.h ****     putString("    line: ");
 921              		.loc 2 25 14 is_stmt 0
 922 067c 17050000 		lla	a0,.LC1
 922      13050500 
 923 0684 97000000 		call	_Z9putStringPKc@plt
 923      E7800000 
 924              	.LVL137:
  26:src/../h/my_console.h ****     putInt(line);
 925              		.loc 2 26 5 is_stmt 1
  26:src/../h/my_console.h ****     putInt(line);
 926              		.loc 2 26 14 is_stmt 0
 927 068c 17050000 		lla	a0,.LC2
 927      13050500 
 928 0694 97000000 		call	_Z9putStringPKc@plt
 928      E7800000 
 929              	.LVL138:
  27:src/../h/my_console.h ****     putString("   ===========================");
GAS LISTING /tmp/ccCcFigu.s 			page 26


 930              		.loc 2 27 5 is_stmt 1
  27:src/../h/my_console.h ****     putString("   ===========================");
 931              		.loc 2 27 11 is_stmt 0
 932 069c 13056008 		li	a0,134
 933 06a0 97000000 		call	_Z6putInti@plt
 933      E7800000 
 934              	.LVL139:
  28:src/../h/my_console.h ****     putNewline();
 935              		.loc 2 28 5 is_stmt 1
  28:src/../h/my_console.h ****     putNewline();
 936              		.loc 2 28 14 is_stmt 0
 937 06a8 17050000 		lla	a0,.LC3
 937      13050500 
 938 06b0 97000000 		call	_Z9putStringPKc@plt
 938      E7800000 
 939              	.LVL140:
  29:src/../h/my_console.h **** 
 940              		.loc 2 29 5 is_stmt 1
  29:src/../h/my_console.h **** 
 941              		.loc 2 29 15 is_stmt 0
 942 06b8 97000000 		call	_Z10putNewlinev@plt
 942      E7800000 
 943              	.LVL141:
 944              		.loc 2 31 5 is_stmt 1
 945              		.loc 2 31 15 is_stmt 0
 946 06c0 97000000 		call	_Z10stopKernelv@plt
 946      E7800000 
 947              	.LVL142:
 948              	.L39:
 949              	.LBE68:
 950              	.LBE67:
 951              	.LBB69:
 952              	.LBB66:
  24:src/../h/my_console.h ****     putString(file);
 953              		.loc 2 24 5 is_stmt 1
  24:src/../h/my_console.h ****     putString(file);
 954              		.loc 2 24 14 is_stmt 0
 955 06c8 17050000 		lla	a0,.LC0
 955      13050500 
 956              	.LVL143:
 957 06d0 97000000 		call	_Z9putStringPKc@plt
 957      E7800000 
 958              	.LVL144:
  25:src/../h/my_console.h ****     putString("    line: ");
 959              		.loc 2 25 5 is_stmt 1
  25:src/../h/my_console.h ****     putString("    line: ");
 960              		.loc 2 25 14 is_stmt 0
 961 06d8 17050000 		lla	a0,.LC1
 961      13050500 
 962 06e0 97000000 		call	_Z9putStringPKc@plt
 962      E7800000 
 963              	.LVL145:
  26:src/../h/my_console.h ****     putInt(line);
 964              		.loc 2 26 5 is_stmt 1
  26:src/../h/my_console.h ****     putInt(line);
 965              		.loc 2 26 14 is_stmt 0
 966 06e8 17050000 		lla	a0,.LC2
GAS LISTING /tmp/ccCcFigu.s 			page 27


 966      13050500 
 967 06f0 97000000 		call	_Z9putStringPKc@plt
 967      E7800000 
 968              	.LVL146:
  27:src/../h/my_console.h ****     putString("   ===========================");
 969              		.loc 2 27 5 is_stmt 1
  27:src/../h/my_console.h ****     putString("   ===========================");
 970              		.loc 2 27 11 is_stmt 0
 971 06f8 13059008 		li	a0,137
 972 06fc 97000000 		call	_Z6putInti@plt
 972      E7800000 
 973              	.LVL147:
  28:src/../h/my_console.h ****     putNewline();
 974              		.loc 2 28 5 is_stmt 1
  28:src/../h/my_console.h ****     putNewline();
 975              		.loc 2 28 14 is_stmt 0
 976 0704 17050000 		lla	a0,.LC3
 976      13050500 
 977 070c 97000000 		call	_Z9putStringPKc@plt
 977      E7800000 
 978              	.LVL148:
  29:src/../h/my_console.h **** 
 979              		.loc 2 29 5 is_stmt 1
  29:src/../h/my_console.h **** 
 980              		.loc 2 29 15 is_stmt 0
 981 0714 97000000 		call	_Z10putNewlinev@plt
 981      E7800000 
 982              	.LVL149:
 983              		.loc 2 31 5 is_stmt 1
 984              		.loc 2 31 15 is_stmt 0
 985 071c 97000000 		call	_Z10stopKernelv@plt
 985      E7800000 
 986              	.LVL150:
 987              	.L32:
 988              	.LBE66:
 989              	.LBE69:
 990              	.LBE71:
 991              	.LBE72:
 138:src/APP.cpp   ****     }
 139:src/APP.cpp   **** 
 140:src/APP.cpp   ****     assert(MemAlloc::get()->getUserlandUsage() == 0);
 992              		.loc 1 140 5 is_stmt 1
 993 0724 97000000 		call	_ZN8MemAlloc3getEv@plt
 993      E7800000 
 994              	.LVL151:
 995 072c 97000000 		call	_ZN8MemAlloc16getUserlandUsageEv@plt
 995      E7800000 
 996              	.LVL152:
 997              	.LBB73:
 998              	.LBB74:
  21:src/../h/my_console.h ****         return;
 999              		.loc 2 21 5
 1000 0734 63140504 		bnez	a0,.L40
  22:src/../h/my_console.h **** 
 1001              		.loc 2 22 9
 1002              	.LVL153:
 1003              	.LBE74:
GAS LISTING /tmp/ccCcFigu.s 			page 28


 1004              	.LBE73:
 141:src/APP.cpp   ****     putString("====== Done testing system calls");
 1005              		.loc 1 141 5
 1006              		.loc 1 141 14 is_stmt 0
 1007 0738 17050000 		lla	a0,.LC11
 1007      13050500 
 1008 0740 97000000 		call	_Z9putStringPKc@plt
 1008      E7800000 
 1009              	.LVL154:
 142:src/APP.cpp   ****     putNewline();
 1010              		.loc 1 142 5 is_stmt 1
 1011              		.loc 1 142 15 is_stmt 0
 1012 0748 97000000 		call	_Z10putNewlinev@plt
 1012      E7800000 
 1013              	.LVL155:
 143:src/APP.cpp   **** }
 1014              		.loc 1 143 1
 1015 0750 83308104 		ld	ra,72(sp)
 1016              		.cfi_remember_state
 1017              		.cfi_restore 1
 1018 0754 03340104 		ld	s0,64(sp)
 1019              		.cfi_restore 8
 1020              		.cfi_def_cfa 2, 80
 1021 0758 83348103 		ld	s1,56(sp)
 1022              		.cfi_restore 9
 1023              	.LVL156:
 1024 075c 03390103 		ld	s2,48(sp)
 1025              		.cfi_restore 18
 1026 0760 83398102 		ld	s3,40(sp)
 1027              		.cfi_restore 19
 1028 0764 033A0102 		ld	s4,32(sp)
 1029              		.cfi_restore 20
 1030              	.LVL157:
 1031 0768 833A8101 		ld	s5,24(sp)
 1032              		.cfi_restore 21
 1033              	.LVL158:
 1034 076c 033B0101 		ld	s6,16(sp)
 1035              		.cfi_restore 22
 1036 0770 833B8100 		ld	s7,8(sp)
 1037              		.cfi_restore 23
 1038 0774 13010105 		addi	sp,sp,80
 1039              		.cfi_def_cfa_offset 0
 1040 0778 67800000 		jr	ra
 1041              	.LVL159:
 1042              	.L40:
 1043              		.cfi_restore_state
 1044              	.LBB76:
 1045              	.LBB75:
  24:src/../h/my_console.h ****     putString(file);
 1046              		.loc 2 24 5 is_stmt 1
  24:src/../h/my_console.h ****     putString(file);
 1047              		.loc 2 24 14 is_stmt 0
 1048 077c 17050000 		lla	a0,.LC0
 1048      13050500 
 1049              	.LVL160:
 1050 0784 97000000 		call	_Z9putStringPKc@plt
 1050      E7800000 
GAS LISTING /tmp/ccCcFigu.s 			page 29


 1051              	.LVL161:
  25:src/../h/my_console.h ****     putString("    line: ");
 1052              		.loc 2 25 5 is_stmt 1
  25:src/../h/my_console.h ****     putString("    line: ");
 1053              		.loc 2 25 14 is_stmt 0
 1054 078c 17050000 		lla	a0,.LC1
 1054      13050500 
 1055 0794 97000000 		call	_Z9putStringPKc@plt
 1055      E7800000 
 1056              	.LVL162:
  26:src/../h/my_console.h ****     putInt(line);
 1057              		.loc 2 26 5 is_stmt 1
  26:src/../h/my_console.h ****     putInt(line);
 1058              		.loc 2 26 14 is_stmt 0
 1059 079c 17050000 		lla	a0,.LC2
 1059      13050500 
 1060 07a4 97000000 		call	_Z9putStringPKc@plt
 1060      E7800000 
 1061              	.LVL163:
  27:src/../h/my_console.h ****     putString("   ===========================");
 1062              		.loc 2 27 5 is_stmt 1
  27:src/../h/my_console.h ****     putString("   ===========================");
 1063              		.loc 2 27 11 is_stmt 0
 1064 07ac 1305C008 		li	a0,140
 1065 07b0 97000000 		call	_Z6putInti@plt
 1065      E7800000 
 1066              	.LVL164:
  28:src/../h/my_console.h ****     putNewline();
 1067              		.loc 2 28 5 is_stmt 1
  28:src/../h/my_console.h ****     putNewline();
 1068              		.loc 2 28 14 is_stmt 0
 1069 07b8 17050000 		lla	a0,.LC3
 1069      13050500 
 1070 07c0 97000000 		call	_Z9putStringPKc@plt
 1070      E7800000 
 1071              	.LVL165:
  29:src/../h/my_console.h **** 
 1072              		.loc 2 29 5 is_stmt 1
  29:src/../h/my_console.h **** 
 1073              		.loc 2 29 15 is_stmt 0
 1074 07c8 97000000 		call	_Z10putNewlinev@plt
 1074      E7800000 
 1075              	.LVL166:
 1076              		.loc 2 31 5 is_stmt 1
 1077              		.loc 2 31 15 is_stmt 0
 1078 07d0 97000000 		call	_Z10stopKernelv@plt
 1078      E7800000 
 1079              	.LVL167:
 1080              	.LBE75:
 1081              	.LBE76:
 1082              		.cfi_endproc
 1083              	.LFE16:
 1085              		.section	.rodata.str1.8
 1086 0111 00000000 		.align	3
 1086      000000
 1087              	.LC12:
 1088 0118 3D3D3D20 		.string	"=== Testing \"testMemoryAllocator\""
GAS LISTING /tmp/ccCcFigu.s 			page 30


 1088      54657374 
 1088      696E6720 
 1088      22746573 
 1088      744D656D 
 1089 013a 00000000 		.align	3
 1089      0000
 1090              	.LC13:
 1091 0140 3D3D3D20 		.string	"=== Done testing memory allocator"
 1091      446F6E65 
 1091      20746573 
 1091      74696E67 
 1091      206D656D 
 1092              		.text
 1093              		.align	2
 1094              		.globl	_Z19testMemoryAllocatorv
 1096              	_Z19testMemoryAllocatorv:
 1097              	.LFB17:
 144:src/APP.cpp   **** 
 145:src/APP.cpp   **** void testMemoryAllocator()
 146:src/APP.cpp   **** {
 1098              		.loc 1 146 1 is_stmt 1
 1099              		.cfi_startproc
 1100 07d8 130101FD 		addi	sp,sp,-48
 1101              		.cfi_def_cfa_offset 48
 1102 07dc 23341102 		sd	ra,40(sp)
 1103 07e0 23308102 		sd	s0,32(sp)
 1104 07e4 233C9100 		sd	s1,24(sp)
 1105 07e8 23382101 		sd	s2,16(sp)
 1106 07ec 23343101 		sd	s3,8(sp)
 1107              		.cfi_offset 1, -8
 1108              		.cfi_offset 8, -16
 1109              		.cfi_offset 9, -24
 1110              		.cfi_offset 18, -32
 1111              		.cfi_offset 19, -40
 1112 07f0 13040103 		addi	s0,sp,48
 1113              		.cfi_def_cfa 8, 0
 147:src/APP.cpp   ****     putString("=== Testing \"testMemoryAllocator\"");
 1114              		.loc 1 147 5
 1115              		.loc 1 147 14 is_stmt 0
 1116 07f4 17050000 		lla	a0,.LC12
 1116      13050500 
 1117 07fc 97000000 		call	_Z9putStringPKc@plt
 1117      E7800000 
 1118              	.LVL168:
 148:src/APP.cpp   ****     putNewline();
 1119              		.loc 1 148 5 is_stmt 1
 1120              		.loc 1 148 15 is_stmt 0
 1121 0804 97000000 		call	_Z10putNewlinev@plt
 1121      E7800000 
 1122              	.LVL169:
 149:src/APP.cpp   ****     int n = 1000;
 1123              		.loc 1 149 5 is_stmt 1
 150:src/APP.cpp   ****     int **a;
 1124              		.loc 1 150 5
 151:src/APP.cpp   ****     a = (int**)mem_alloc(n * sizeof(void*));
 1125              		.loc 1 151 5
 1126              		.loc 1 151 25 is_stmt 0
GAS LISTING /tmp/ccCcFigu.s 			page 31


 1127 080c 37250000 		li	a0,8192
 1128 0810 130505F4 		addi	a0,a0,-192
 1129 0814 97000000 		call	_Z9mem_allocm@plt
 1129      E7800000 
 1130              	.LVL170:
 1131 081c 93090500 		mv	s3,a0
 1132              	.LVL171:
 152:src/APP.cpp   ****     for(int i=0; i<n; i++)
 1133              		.loc 1 152 5 is_stmt 1
 1134              	.LBB88:
 1135              		.loc 1 152 13 is_stmt 0
 1136 0820 93040000 		li	s1,0
 1137              	.LVL172:
 1138              	.L43:
 1139              		.loc 1 152 19 is_stmt 1 discriminator 3
 1140 0824 9307703E 		li	a5,999
 1141 0828 63C49702 		bgt	s1,a5,.L50
 153:src/APP.cpp   ****     {
 154:src/APP.cpp   ****         a[i] = (int*)mem_alloc(sizeof(int));
 1142              		.loc 1 154 9 discriminator 2
 1143              		.loc 1 154 12 is_stmt 0 discriminator 2
 1144 082c 13993400 		slli	s2,s1,3
 1145 0830 33892901 		add	s2,s3,s2
 1146              		.loc 1 154 31 discriminator 2
 1147 0834 13054000 		li	a0,4
 1148 0838 97000000 		call	_Z9mem_allocm@plt
 1148      E7800000 
 1149              	.LVL173:
 1150              		.loc 1 154 14 discriminator 2
 1151 0840 2330A900 		sd	a0,0(s2)
 155:src/APP.cpp   ****         *a[i] = i;
 1152              		.loc 1 155 9 is_stmt 1 discriminator 2
 1153              		.loc 1 155 15 is_stmt 0 discriminator 2
 1154 0844 23209500 		sw	s1,0(a0)
 152:src/APP.cpp   ****     for(int i=0; i<n; i++)
 1155              		.loc 1 152 5 is_stmt 1 discriminator 2
 1156 0848 9B841400 		addiw	s1,s1,1
 1157              	.LVL174:
 1158 084c 6FF09FFD 		j	.L43
 1159              	.LVL175:
 1160              	.L50:
 1161              	.LBE88:
 1162              	.LBB89:
 156:src/APP.cpp   ****     }
 157:src/APP.cpp   **** 
 158:src/APP.cpp   ****     int result = 0;
 159:src/APP.cpp   ****     for(int i=0; i<n; i++)
 1163              		.loc 1 159 13 is_stmt 0
 1164 0850 93070000 		li	a5,0
 1165              	.LBE89:
 158:src/APP.cpp   ****     for(int i=0; i<n; i++)
 1166              		.loc 1 158 9
 1167 0854 93060000 		li	a3,0
 1168              	.L42:
 1169              	.LVL176:
 1170              	.LBB90:
 1171              		.loc 1 159 19 is_stmt 1 discriminator 3
GAS LISTING /tmp/ccCcFigu.s 			page 32


 1172 0858 1307703E 		li	a4,999
 1173 085c 6340F702 		bgt	a5,a4,.L44
 160:src/APP.cpp   ****     {
 161:src/APP.cpp   ****         result += *a[i];
 1174              		.loc 1 161 9 discriminator 2
 1175              		.loc 1 161 23 is_stmt 0 discriminator 2
 1176 0860 13973700 		slli	a4,a5,3
 1177 0864 3387E900 		add	a4,s3,a4
 1178 0868 03370700 		ld	a4,0(a4)
 1179              		.loc 1 161 19 discriminator 2
 1180 086c 03270700 		lw	a4,0(a4)
 1181              		.loc 1 161 16 discriminator 2
 1182 0870 BB06D700 		addw	a3,a4,a3
 1183              	.LVL177:
 159:src/APP.cpp   ****     {
 1184              		.loc 1 159 5 is_stmt 1 discriminator 2
 1185 0874 9B871700 		addiw	a5,a5,1
 1186              	.LVL178:
 1187 0878 6FF01FFE 		j	.L42
 1188              	.LVL179:
 1189              	.L44:
 1190              	.LBE90:
 162:src/APP.cpp   ****     }
 163:src/APP.cpp   **** 
 164:src/APP.cpp   **** //    uint64 vau = n * sizeof(void*);
 165:src/APP.cpp   **** //    if(n % MEM_BLOCK_SIZE != 0)
 166:src/APP.cpp   **** //        vau +=  MEM_BLOCK_SIZE - ((sizeof(int)* n) % MEM_BLOCK_SIZE);
 167:src/APP.cpp   **** //    vau += MEM_BLOCK_SIZE * n;
 168:src/APP.cpp   **** //    assert(MemAlloc::get()->getUserlandUsage() == vau);
 169:src/APP.cpp   **** 
 170:src/APP.cpp   **** //    putInt(result);
 171:src/APP.cpp   **** //    putNewline();
 172:src/APP.cpp   **** 
 173:src/APP.cpp   ****     assert(result == (n-1) * n / 2);
 1191              		.loc 1 173 5
 1192 087c B7A70700 		li	a5,499712
 1193              	.LVL180:
 1194 0880 9387C7F2 		addi	a5,a5,-212
 1195              	.LVL181:
 1196              	.LBB91:
 1197              	.LBB92:
  21:src/../h/my_console.h ****         return;
 1198              		.loc 2 21 5
 1199 0884 6398F602 		bne	a3,a5,.L53
 1200              	.LBE92:
 1201              	.LBE91:
 1202              	.LBB94:
 174:src/APP.cpp   **** 
 175:src/APP.cpp   **** //    uint64 oldTaken = MemAlloc::get()->getUserlandUsage();
 176:src/APP.cpp   **** //    uint64 newTaken;
 177:src/APP.cpp   **** 
 178:src/APP.cpp   ****     int t;
 179:src/APP.cpp   ****     for(int i=0; i<n; i++)
 1203              		.loc 1 179 13 is_stmt 0
 1204 0888 93040000 		li	s1,0
 1205              	.LVL182:
 1206              	.L45:
GAS LISTING /tmp/ccCcFigu.s 			page 33


 1207              		.loc 1 179 19 is_stmt 1 discriminator 3
 1208 088c 9307703E 		li	a5,999
 1209 0890 63CE970C 		bgt	s1,a5,.L46
 180:src/APP.cpp   ****     {
 181:src/APP.cpp   ****         t = mem_free(a[i]);
 1210              		.loc 1 181 9 discriminator 2
 1211              		.loc 1 181 25 is_stmt 0 discriminator 2
 1212 0894 93973400 		slli	a5,s1,3
 1213 0898 B387F900 		add	a5,s3,a5
 1214              		.loc 1 181 21 discriminator 2
 1215 089c 03B50700 		ld	a0,0(a5)
 1216 08a0 97000000 		call	_Z8mem_freePv@plt
 1216      E7800000 
 1217              	.LVL183:
 182:src/APP.cpp   ****         assert(t == 0);
 1218              		.loc 1 182 9 is_stmt 1 discriminator 2
 1219              	.LBB95:
 1220              	.LBB96:
  21:src/../h/my_console.h ****         return;
 1221              		.loc 2 21 5 discriminator 2
 1222 08a8 63140506 		bnez	a0,.L54
  22:src/../h/my_console.h **** 
 1223              		.loc 2 22 9 discriminator 2
 1224              	.LVL184:
 1225              	.LBE96:
 1226              	.LBE95:
 179:src/APP.cpp   ****     {
 1227              		.loc 1 179 5 discriminator 2
 1228 08ac 9B841400 		addiw	s1,s1,1
 1229              	.LVL185:
 1230 08b0 6FF0DFFD 		j	.L45
 1231              	.LVL186:
 1232              	.L53:
 1233              	.LBE94:
 1234              	.LBB99:
 1235              	.LBB93:
  24:src/../h/my_console.h ****     putString(file);
 1236              		.loc 2 24 5
  24:src/../h/my_console.h ****     putString(file);
 1237              		.loc 2 24 14 is_stmt 0
 1238 08b4 17050000 		lla	a0,.LC0
 1238      13050500 
 1239 08bc 97000000 		call	_Z9putStringPKc@plt
 1239      E7800000 
 1240              	.LVL187:
  25:src/../h/my_console.h ****     putString("    line: ");
 1241              		.loc 2 25 5 is_stmt 1
  25:src/../h/my_console.h ****     putString("    line: ");
 1242              		.loc 2 25 14 is_stmt 0
 1243 08c4 17050000 		lla	a0,.LC1
 1243      13050500 
 1244 08cc 97000000 		call	_Z9putStringPKc@plt
 1244      E7800000 
 1245              	.LVL188:
  26:src/../h/my_console.h ****     putInt(line);
 1246              		.loc 2 26 5 is_stmt 1
  26:src/../h/my_console.h ****     putInt(line);
GAS LISTING /tmp/ccCcFigu.s 			page 34


 1247              		.loc 2 26 14 is_stmt 0
 1248 08d4 17050000 		lla	a0,.LC2
 1248      13050500 
 1249 08dc 97000000 		call	_Z9putStringPKc@plt
 1249      E7800000 
 1250              	.LVL189:
  27:src/../h/my_console.h ****     putString("   ===========================");
 1251              		.loc 2 27 5 is_stmt 1
  27:src/../h/my_console.h ****     putString("   ===========================");
 1252              		.loc 2 27 11 is_stmt 0
 1253 08e4 1305D00A 		li	a0,173
 1254 08e8 97000000 		call	_Z6putInti@plt
 1254      E7800000 
 1255              	.LVL190:
  28:src/../h/my_console.h ****     putNewline();
 1256              		.loc 2 28 5 is_stmt 1
  28:src/../h/my_console.h ****     putNewline();
 1257              		.loc 2 28 14 is_stmt 0
 1258 08f0 17050000 		lla	a0,.LC3
 1258      13050500 
 1259 08f8 97000000 		call	_Z9putStringPKc@plt
 1259      E7800000 
 1260              	.LVL191:
  29:src/../h/my_console.h **** 
 1261              		.loc 2 29 5 is_stmt 1
  29:src/../h/my_console.h **** 
 1262              		.loc 2 29 15 is_stmt 0
 1263 0900 97000000 		call	_Z10putNewlinev@plt
 1263      E7800000 
 1264              	.LVL192:
 1265              		.loc 2 31 5 is_stmt 1
 1266              		.loc 2 31 15 is_stmt 0
 1267 0908 97000000 		call	_Z10stopKernelv@plt
 1267      E7800000 
 1268              	.LVL193:
 1269              	.L54:
 1270              	.LBE93:
 1271              	.LBE99:
 1272              	.LBB100:
 1273              	.LBB98:
 1274              	.LBB97:
  24:src/../h/my_console.h ****     putString(file);
 1275              		.loc 2 24 5 is_stmt 1
  24:src/../h/my_console.h ****     putString(file);
 1276              		.loc 2 24 14 is_stmt 0
 1277 0910 17050000 		lla	a0,.LC0
 1277      13050500 
 1278              	.LVL194:
 1279 0918 97000000 		call	_Z9putStringPKc@plt
 1279      E7800000 
 1280              	.LVL195:
  25:src/../h/my_console.h ****     putString("    line: ");
 1281              		.loc 2 25 5 is_stmt 1
  25:src/../h/my_console.h ****     putString("    line: ");
 1282              		.loc 2 25 14 is_stmt 0
 1283 0920 17050000 		lla	a0,.LC1
 1283      13050500 
GAS LISTING /tmp/ccCcFigu.s 			page 35


 1284 0928 97000000 		call	_Z9putStringPKc@plt
 1284      E7800000 
 1285              	.LVL196:
  26:src/../h/my_console.h ****     putInt(line);
 1286              		.loc 2 26 5 is_stmt 1
  26:src/../h/my_console.h ****     putInt(line);
 1287              		.loc 2 26 14 is_stmt 0
 1288 0930 17050000 		lla	a0,.LC2
 1288      13050500 
 1289 0938 97000000 		call	_Z9putStringPKc@plt
 1289      E7800000 
 1290              	.LVL197:
  27:src/../h/my_console.h ****     putString("   ===========================");
 1291              		.loc 2 27 5 is_stmt 1
  27:src/../h/my_console.h ****     putString("   ===========================");
 1292              		.loc 2 27 11 is_stmt 0
 1293 0940 1305600B 		li	a0,182
 1294 0944 97000000 		call	_Z6putInti@plt
 1294      E7800000 
 1295              	.LVL198:
  28:src/../h/my_console.h ****     putNewline();
 1296              		.loc 2 28 5 is_stmt 1
  28:src/../h/my_console.h ****     putNewline();
 1297              		.loc 2 28 14 is_stmt 0
 1298 094c 17050000 		lla	a0,.LC3
 1298      13050500 
 1299 0954 97000000 		call	_Z9putStringPKc@plt
 1299      E7800000 
 1300              	.LVL199:
  29:src/../h/my_console.h **** 
 1301              		.loc 2 29 5 is_stmt 1
  29:src/../h/my_console.h **** 
 1302              		.loc 2 29 15 is_stmt 0
 1303 095c 97000000 		call	_Z10putNewlinev@plt
 1303      E7800000 
 1304              	.LVL200:
 1305              		.loc 2 31 5 is_stmt 1
 1306              		.loc 2 31 15 is_stmt 0
 1307 0964 97000000 		call	_Z10stopKernelv@plt
 1307      E7800000 
 1308              	.LVL201:
 1309              	.L46:
 1310              	.LBE97:
 1311              	.LBE98:
 1312              	.LBE100:
 183:src/APP.cpp   **** 
 184:src/APP.cpp   **** //        newTaken = MemAlloc::get()->getUserlandUsage();
 185:src/APP.cpp   **** //        assert(oldTaken - newTaken == MEM_BLOCK_SIZE);
 186:src/APP.cpp   ****     }
 187:src/APP.cpp   **** 
 188:src/APP.cpp   **** //    assert(MemAlloc::get()->getUserlandUsage() == MEM_BLOCK_SIZE);
 189:src/APP.cpp   **** 
 190:src/APP.cpp   ****     t = mem_free(a);
 1313              		.loc 1 190 5 is_stmt 1
 1314              		.loc 1 190 17 is_stmt 0
 1315 096c 13850900 		mv	a0,s3
 1316 0970 97000000 		call	_Z8mem_freePv@plt
GAS LISTING /tmp/ccCcFigu.s 			page 36


 1316      E7800000 
 1317              	.LVL202:
 191:src/APP.cpp   ****     assert(t == 0);
 1318              		.loc 1 191 5 is_stmt 1
 1319              	.LBB101:
 1320              	.LBB102:
  21:src/../h/my_console.h ****         return;
 1321              		.loc 2 21 5
 1322 0978 63160504 		bnez	a0,.L55
  22:src/../h/my_console.h **** 
 1323              		.loc 2 22 9
 1324              	.LVL203:
 1325              	.LBE102:
 1326              	.LBE101:
 192:src/APP.cpp   **** 
 193:src/APP.cpp   ****     assert(MemAlloc::get()->getUserlandUsage() == 0);
 1327              		.loc 1 193 5
 1328 097c 97000000 		call	_ZN8MemAlloc3getEv@plt
 1328      E7800000 
 1329              	.LVL204:
 1330 0984 97000000 		call	_ZN8MemAlloc16getUserlandUsageEv@plt
 1330      E7800000 
 1331              	.LVL205:
 1332              	.LBB104:
 1333              	.LBB105:
  21:src/../h/my_console.h ****         return;
 1334              		.loc 2 21 5
 1335 098c 631A0508 		bnez	a0,.L56
  22:src/../h/my_console.h **** 
 1336              		.loc 2 22 9
 1337              	.LVL206:
 1338              	.LBE105:
 1339              	.LBE104:
 194:src/APP.cpp   ****     putString("=== Done testing memory allocator");
 1340              		.loc 1 194 5
 1341              		.loc 1 194 14 is_stmt 0
 1342 0990 17050000 		lla	a0,.LC13
 1342      13050500 
 1343 0998 97000000 		call	_Z9putStringPKc@plt
 1343      E7800000 
 1344              	.LVL207:
 195:src/APP.cpp   ****     putNewline();
 1345              		.loc 1 195 5 is_stmt 1
 1346              		.loc 1 195 15 is_stmt 0
 1347 09a0 97000000 		call	_Z10putNewlinev@plt
 1347      E7800000 
 1348              	.LVL208:
 196:src/APP.cpp   **** }
 1349              		.loc 1 196 1
 1350 09a8 83308102 		ld	ra,40(sp)
 1351              		.cfi_remember_state
 1352              		.cfi_restore 1
 1353 09ac 03340102 		ld	s0,32(sp)
 1354              		.cfi_restore 8
 1355              		.cfi_def_cfa 2, 48
 1356 09b0 83348101 		ld	s1,24(sp)
 1357              		.cfi_restore 9
GAS LISTING /tmp/ccCcFigu.s 			page 37


 1358              	.LVL209:
 1359 09b4 03390101 		ld	s2,16(sp)
 1360              		.cfi_restore 18
 1361 09b8 83398100 		ld	s3,8(sp)
 1362              		.cfi_restore 19
 1363              	.LVL210:
 1364 09bc 13010103 		addi	sp,sp,48
 1365              		.cfi_def_cfa_offset 0
 1366 09c0 67800000 		jr	ra
 1367              	.LVL211:
 1368              	.L55:
 1369              		.cfi_restore_state
 1370              	.LBB107:
 1371              	.LBB103:
  24:src/../h/my_console.h ****     putString(file);
 1372              		.loc 2 24 5 is_stmt 1
  24:src/../h/my_console.h ****     putString(file);
 1373              		.loc 2 24 14 is_stmt 0
 1374 09c4 17050000 		lla	a0,.LC0
 1374      13050500 
 1375              	.LVL212:
 1376 09cc 97000000 		call	_Z9putStringPKc@plt
 1376      E7800000 
 1377              	.LVL213:
  25:src/../h/my_console.h ****     putString("    line: ");
 1378              		.loc 2 25 5 is_stmt 1
  25:src/../h/my_console.h ****     putString("    line: ");
 1379              		.loc 2 25 14 is_stmt 0
 1380 09d4 17050000 		lla	a0,.LC1
 1380      13050500 
 1381 09dc 97000000 		call	_Z9putStringPKc@plt
 1381      E7800000 
 1382              	.LVL214:
  26:src/../h/my_console.h ****     putInt(line);
 1383              		.loc 2 26 5 is_stmt 1
  26:src/../h/my_console.h ****     putInt(line);
 1384              		.loc 2 26 14 is_stmt 0
 1385 09e4 17050000 		lla	a0,.LC2
 1385      13050500 
 1386 09ec 97000000 		call	_Z9putStringPKc@plt
 1386      E7800000 
 1387              	.LVL215:
  27:src/../h/my_console.h ****     putString("   ===========================");
 1388              		.loc 2 27 5 is_stmt 1
  27:src/../h/my_console.h ****     putString("   ===========================");
 1389              		.loc 2 27 11 is_stmt 0
 1390 09f4 1305F00B 		li	a0,191
 1391 09f8 97000000 		call	_Z6putInti@plt
 1391      E7800000 
 1392              	.LVL216:
  28:src/../h/my_console.h ****     putNewline();
 1393              		.loc 2 28 5 is_stmt 1
  28:src/../h/my_console.h ****     putNewline();
 1394              		.loc 2 28 14 is_stmt 0
 1395 0a00 17050000 		lla	a0,.LC3
 1395      13050500 
 1396 0a08 97000000 		call	_Z9putStringPKc@plt
GAS LISTING /tmp/ccCcFigu.s 			page 38


 1396      E7800000 
 1397              	.LVL217:
  29:src/../h/my_console.h **** 
 1398              		.loc 2 29 5 is_stmt 1
  29:src/../h/my_console.h **** 
 1399              		.loc 2 29 15 is_stmt 0
 1400 0a10 97000000 		call	_Z10putNewlinev@plt
 1400      E7800000 
 1401              	.LVL218:
 1402              		.loc 2 31 5 is_stmt 1
 1403              		.loc 2 31 15 is_stmt 0
 1404 0a18 97000000 		call	_Z10stopKernelv@plt
 1404      E7800000 
 1405              	.LVL219:
 1406              	.L56:
 1407              	.LBE103:
 1408              	.LBE107:
 1409              	.LBB108:
 1410              	.LBB106:
  24:src/../h/my_console.h ****     putString(file);
 1411              		.loc 2 24 5 is_stmt 1
  24:src/../h/my_console.h ****     putString(file);
 1412              		.loc 2 24 14 is_stmt 0
 1413 0a20 17050000 		lla	a0,.LC0
 1413      13050500 
 1414              	.LVL220:
 1415 0a28 97000000 		call	_Z9putStringPKc@plt
 1415      E7800000 
 1416              	.LVL221:
  25:src/../h/my_console.h ****     putString("    line: ");
 1417              		.loc 2 25 5 is_stmt 1
  25:src/../h/my_console.h ****     putString("    line: ");
 1418              		.loc 2 25 14 is_stmt 0
 1419 0a30 17050000 		lla	a0,.LC1
 1419      13050500 
 1420 0a38 97000000 		call	_Z9putStringPKc@plt
 1420      E7800000 
 1421              	.LVL222:
  26:src/../h/my_console.h ****     putInt(line);
 1422              		.loc 2 26 5 is_stmt 1
  26:src/../h/my_console.h ****     putInt(line);
 1423              		.loc 2 26 14 is_stmt 0
 1424 0a40 17050000 		lla	a0,.LC2
 1424      13050500 
 1425 0a48 97000000 		call	_Z9putStringPKc@plt
 1425      E7800000 
 1426              	.LVL223:
  27:src/../h/my_console.h ****     putString("   ===========================");
 1427              		.loc 2 27 5 is_stmt 1
  27:src/../h/my_console.h ****     putString("   ===========================");
 1428              		.loc 2 27 11 is_stmt 0
 1429 0a50 1305100C 		li	a0,193
 1430 0a54 97000000 		call	_Z6putInti@plt
 1430      E7800000 
 1431              	.LVL224:
  28:src/../h/my_console.h ****     putNewline();
 1432              		.loc 2 28 5 is_stmt 1
GAS LISTING /tmp/ccCcFigu.s 			page 39


  28:src/../h/my_console.h ****     putNewline();
 1433              		.loc 2 28 14 is_stmt 0
 1434 0a5c 17050000 		lla	a0,.LC3
 1434      13050500 
 1435 0a64 97000000 		call	_Z9putStringPKc@plt
 1435      E7800000 
 1436              	.LVL225:
  29:src/../h/my_console.h **** 
 1437              		.loc 2 29 5 is_stmt 1
  29:src/../h/my_console.h **** 
 1438              		.loc 2 29 15 is_stmt 0
 1439 0a6c 97000000 		call	_Z10putNewlinev@plt
 1439      E7800000 
 1440              	.LVL226:
 1441              		.loc 2 31 5 is_stmt 1
 1442              		.loc 2 31 15 is_stmt 0
 1443 0a74 97000000 		call	_Z10stopKernelv@plt
 1443      E7800000 
 1444              	.LVL227:
 1445              	.LBE106:
 1446              	.LBE108:
 1447              		.cfi_endproc
 1448              	.LFE17:
 1450              		.section	.rodata.str1.8
 1451 0162 00000000 		.align	3
 1451      0000
 1452              	.LC14:
 1453 0168 41707020 		.string	"App started"
 1453      73746172 
 1453      74656400 
 1454 0174 00000000 		.align	3
 1455              	.LC15:
 1456 0178 41707020 		.string	"App ended"
 1456      656E6465 
 1456      6400
 1457              		.text
 1458              		.align	2
 1459              		.globl	_Z8userMainv
 1461              	_Z8userMainv:
 1462              	.LFB10:
  12:src/APP.cpp   ****     putString("App started");
 1463              		.loc 1 12 1 is_stmt 1
 1464              		.cfi_startproc
 1465 0a7c 130101FF 		addi	sp,sp,-16
 1466              		.cfi_def_cfa_offset 16
 1467 0a80 23341100 		sd	ra,8(sp)
 1468 0a84 23308100 		sd	s0,0(sp)
 1469              		.cfi_offset 1, -8
 1470              		.cfi_offset 8, -16
 1471 0a88 13040101 		addi	s0,sp,16
 1472              		.cfi_def_cfa 8, 0
  13:src/APP.cpp   ****     putNewline();
 1473              		.loc 1 13 5
  13:src/APP.cpp   ****     putNewline();
 1474              		.loc 1 13 14 is_stmt 0
 1475 0a8c 17050000 		lla	a0,.LC14
 1475      13050500 
GAS LISTING /tmp/ccCcFigu.s 			page 40


 1476 0a94 97000000 		call	_Z9putStringPKc@plt
 1476      E7800000 
 1477              	.LVL228:
  14:src/APP.cpp   ****     assert(MemAlloc::get()->getUserlandUsage() == 0);
 1478              		.loc 1 14 5 is_stmt 1
  14:src/APP.cpp   ****     assert(MemAlloc::get()->getUserlandUsage() == 0);
 1479              		.loc 1 14 15 is_stmt 0
 1480 0a9c 97000000 		call	_Z10putNewlinev@plt
 1480      E7800000 
 1481              	.LVL229:
  15:src/APP.cpp   **** 
 1482              		.loc 1 15 5 is_stmt 1
 1483 0aa4 97000000 		call	_ZN8MemAlloc3getEv@plt
 1483      E7800000 
 1484              	.LVL230:
 1485 0aac 97000000 		call	_ZN8MemAlloc16getUserlandUsageEv@plt
 1485      E7800000 
 1486              	.LVL231:
 1487              	.LBB113:
 1488              	.LBB114:
  21:src/../h/my_console.h ****         return;
 1489              		.loc 2 21 5
 1490 0ab4 631C0504 		bnez	a0,.L61
  22:src/../h/my_console.h **** 
 1491              		.loc 2 22 9
 1492              	.LVL232:
 1493              	.LBE114:
 1494              	.LBE113:
  17:src/APP.cpp   **** 
 1495              		.loc 1 17 5
  17:src/APP.cpp   **** 
 1496              		.loc 1 17 20 is_stmt 0
 1497 0ab8 97000000 		call	_Z15testSystemCallsv
 1497      E7800000 
 1498              	.LVL233:
  19:src/APP.cpp   **** 
 1499              		.loc 1 19 5 is_stmt 1
  19:src/APP.cpp   **** 
 1500              		.loc 1 19 24 is_stmt 0
 1501 0ac0 97000000 		call	_Z19testMemoryAllocatorv
 1501      E7800000 
 1502              	.LVL234:
  21:src/APP.cpp   **** 
 1503              		.loc 1 21 5 is_stmt 1
  21:src/APP.cpp   **** 
 1504              		.loc 1 21 17 is_stmt 0
 1505 0ac8 97000000 		call	_Z12testSyncCallv
 1505      E7800000 
 1506              	.LVL235:
  23:src/APP.cpp   ****     putString("App ended");
 1507              		.loc 1 23 5 is_stmt 1
 1508 0ad0 97000000 		call	_ZN8MemAlloc3getEv@plt
 1508      E7800000 
 1509              	.LVL236:
 1510 0ad8 97000000 		call	_ZN8MemAlloc16getUserlandUsageEv@plt
 1510      E7800000 
 1511              	.LVL237:
GAS LISTING /tmp/ccCcFigu.s 			page 41


 1512              	.LBB116:
 1513              	.LBB117:
  21:src/../h/my_console.h ****         return;
 1514              		.loc 2 21 5
 1515 0ae0 63140508 		bnez	a0,.L62
  22:src/../h/my_console.h **** 
 1516              		.loc 2 22 9
 1517              	.LVL238:
 1518              	.LBE117:
 1519              	.LBE116:
  24:src/APP.cpp   ****     putNewline();
 1520              		.loc 1 24 5
  24:src/APP.cpp   ****     putNewline();
 1521              		.loc 1 24 14 is_stmt 0
 1522 0ae4 17050000 		lla	a0,.LC15
 1522      13050500 
 1523 0aec 97000000 		call	_Z9putStringPKc@plt
 1523      E7800000 
 1524              	.LVL239:
  25:src/APP.cpp   **** }
 1525              		.loc 1 25 5 is_stmt 1
  25:src/APP.cpp   **** }
 1526              		.loc 1 25 15 is_stmt 0
 1527 0af4 97000000 		call	_Z10putNewlinev@plt
 1527      E7800000 
 1528              	.LVL240:
  26:src/APP.cpp   **** 
 1529              		.loc 1 26 1
 1530 0afc 83308100 		ld	ra,8(sp)
 1531              		.cfi_remember_state
 1532              		.cfi_restore 1
 1533 0b00 03340100 		ld	s0,0(sp)
 1534              		.cfi_restore 8
 1535              		.cfi_def_cfa 2, 16
 1536 0b04 13010101 		addi	sp,sp,16
 1537              		.cfi_def_cfa_offset 0
 1538 0b08 67800000 		jr	ra
 1539              	.LVL241:
 1540              	.L61:
 1541              		.cfi_restore_state
 1542              	.LBB119:
 1543              	.LBB115:
  24:src/../h/my_console.h ****     putString(file);
 1544              		.loc 2 24 5 is_stmt 1
  24:src/../h/my_console.h ****     putString(file);
 1545              		.loc 2 24 14 is_stmt 0
 1546 0b0c 17050000 		lla	a0,.LC0
 1546      13050500 
 1547              	.LVL242:
 1548 0b14 97000000 		call	_Z9putStringPKc@plt
 1548      E7800000 
 1549              	.LVL243:
  25:src/../h/my_console.h ****     putString("    line: ");
 1550              		.loc 2 25 5 is_stmt 1
  25:src/../h/my_console.h ****     putString("    line: ");
 1551              		.loc 2 25 14 is_stmt 0
 1552 0b1c 17050000 		lla	a0,.LC1
GAS LISTING /tmp/ccCcFigu.s 			page 42


 1552      13050500 
 1553 0b24 97000000 		call	_Z9putStringPKc@plt
 1553      E7800000 
 1554              	.LVL244:
  26:src/../h/my_console.h ****     putInt(line);
 1555              		.loc 2 26 5 is_stmt 1
  26:src/../h/my_console.h ****     putInt(line);
 1556              		.loc 2 26 14 is_stmt 0
 1557 0b2c 17050000 		lla	a0,.LC2
 1557      13050500 
 1558 0b34 97000000 		call	_Z9putStringPKc@plt
 1558      E7800000 
 1559              	.LVL245:
  27:src/../h/my_console.h ****     putString("   ===========================");
 1560              		.loc 2 27 5 is_stmt 1
  27:src/../h/my_console.h ****     putString("   ===========================");
 1561              		.loc 2 27 11 is_stmt 0
 1562 0b3c 1305F000 		li	a0,15
 1563 0b40 97000000 		call	_Z6putInti@plt
 1563      E7800000 
 1564              	.LVL246:
  28:src/../h/my_console.h ****     putNewline();
 1565              		.loc 2 28 5 is_stmt 1
  28:src/../h/my_console.h ****     putNewline();
 1566              		.loc 2 28 14 is_stmt 0
 1567 0b48 17050000 		lla	a0,.LC3
 1567      13050500 
 1568 0b50 97000000 		call	_Z9putStringPKc@plt
 1568      E7800000 
 1569              	.LVL247:
  29:src/../h/my_console.h **** 
 1570              		.loc 2 29 5 is_stmt 1
  29:src/../h/my_console.h **** 
 1571              		.loc 2 29 15 is_stmt 0
 1572 0b58 97000000 		call	_Z10putNewlinev@plt
 1572      E7800000 
 1573              	.LVL248:
 1574              		.loc 2 31 5 is_stmt 1
 1575              		.loc 2 31 15 is_stmt 0
 1576 0b60 97000000 		call	_Z10stopKernelv@plt
 1576      E7800000 
 1577              	.LVL249:
 1578              	.L62:
 1579              	.LBE115:
 1580              	.LBE119:
 1581              	.LBB120:
 1582              	.LBB118:
  24:src/../h/my_console.h ****     putString(file);
 1583              		.loc 2 24 5 is_stmt 1
  24:src/../h/my_console.h ****     putString(file);
 1584              		.loc 2 24 14 is_stmt 0
 1585 0b68 17050000 		lla	a0,.LC0
 1585      13050500 
 1586              	.LVL250:
 1587 0b70 97000000 		call	_Z9putStringPKc@plt
 1587      E7800000 
 1588              	.LVL251:
GAS LISTING /tmp/ccCcFigu.s 			page 43


  25:src/../h/my_console.h ****     putString("    line: ");
 1589              		.loc 2 25 5 is_stmt 1
  25:src/../h/my_console.h ****     putString("    line: ");
 1590              		.loc 2 25 14 is_stmt 0
 1591 0b78 17050000 		lla	a0,.LC1
 1591      13050500 
 1592 0b80 97000000 		call	_Z9putStringPKc@plt
 1592      E7800000 
 1593              	.LVL252:
  26:src/../h/my_console.h ****     putInt(line);
 1594              		.loc 2 26 5 is_stmt 1
  26:src/../h/my_console.h ****     putInt(line);
 1595              		.loc 2 26 14 is_stmt 0
 1596 0b88 17050000 		lla	a0,.LC2
 1596      13050500 
 1597 0b90 97000000 		call	_Z9putStringPKc@plt
 1597      E7800000 
 1598              	.LVL253:
  27:src/../h/my_console.h ****     putString("   ===========================");
 1599              		.loc 2 27 5 is_stmt 1
  27:src/../h/my_console.h ****     putString("   ===========================");
 1600              		.loc 2 27 11 is_stmt 0
 1601 0b98 13057001 		li	a0,23
 1602 0b9c 97000000 		call	_Z6putInti@plt
 1602      E7800000 
 1603              	.LVL254:
  28:src/../h/my_console.h ****     putNewline();
 1604              		.loc 2 28 5 is_stmt 1
  28:src/../h/my_console.h ****     putNewline();
 1605              		.loc 2 28 14 is_stmt 0
 1606 0ba4 17050000 		lla	a0,.LC3
 1606      13050500 
 1607 0bac 97000000 		call	_Z9putStringPKc@plt
 1607      E7800000 
 1608              	.LVL255:
  29:src/../h/my_console.h **** 
 1609              		.loc 2 29 5 is_stmt 1
  29:src/../h/my_console.h **** 
 1610              		.loc 2 29 15 is_stmt 0
 1611 0bb4 97000000 		call	_Z10putNewlinev@plt
 1611      E7800000 
 1612              	.LVL256:
 1613              		.loc 2 31 5 is_stmt 1
 1614              		.loc 2 31 15 is_stmt 0
 1615 0bbc 97000000 		call	_Z10stopKernelv@plt
 1615      E7800000 
 1616              	.LVL257:
 1617              	.LBE118:
 1618              	.LBE120:
 1619              		.cfi_endproc
 1620              	.LFE10:
 1622              	.Letext0:
 1623              		.file 3 "src/../h/../lib/hw.h"
 1624              		.file 4 "src/../h/c_api.h"
 1625              		.file 5 "src/../h/alloc.h"
 1626              		.file 6 "src/../h/../h/risc.h"
GAS LISTING /tmp/ccCcFigu.s 			page 44


DEFINED SYMBOLS
                            *ABS*:0000000000000000 APP.cpp
     /tmp/ccCcFigu.s:26     .text:0000000000000000 _Z12testSyncCallv
     /tmp/ccCcFigu.s:30     .text:0000000000000000 .L0 
     /tmp/ccCcFigu.s:31     .text:0000000000000000 .L0 
     /tmp/ccCcFigu.s:32     .text:0000000000000004 .L0 
     /tmp/ccCcFigu.s:35     .text:000000000000000c .L0 
     /tmp/ccCcFigu.s:36     .text:000000000000000c .L0 
     /tmp/ccCcFigu.s:38     .text:0000000000000010 .L0 
     /tmp/ccCcFigu.s:40     .text:0000000000000010 .L0 
     /tmp/ccCcFigu.s:41     .text:0000000000000010 .L0 
     /tmp/ccCcFigu.s:44     .text:0000000000000018 .L0 
     /tmp/ccCcFigu.s:52     .text:0000000000000028 .L0 
     /tmp/ccCcFigu.s:57     .text:000000000000002c .L0 
     /tmp/ccCcFigu.s:58     .text:000000000000002c .L0 
     /tmp/ccCcFigu.s:59     .text:000000000000002c .L0 
     /tmp/ccCcFigu.s:63     .text:000000000000003c .L0 
     /tmp/ccCcFigu.s:64     .text:000000000000003c .L0 
     /tmp/ccCcFigu.s:65     .text:000000000000003c .L0 
     /tmp/ccCcFigu.s:66     .text:000000000000003c .L0 
     /tmp/ccCcFigu.s:69     .text:0000000000000044 .L0 
     /tmp/ccCcFigu.s:70     .text:0000000000000044 .L0 
     /tmp/ccCcFigu.s:73     .text:000000000000004c .L0 
     /tmp/ccCcFigu.s:74     .text:000000000000004c .L0 
     /tmp/ccCcFigu.s:75     .text:000000000000004c .L0 
     /tmp/ccCcFigu.s:76     .text:000000000000004c .L0 
     /tmp/ccCcFigu.s:393    .text:00000000000002d0 _Z3doAPv
     /tmp/ccCcFigu.s:82     .text:0000000000000064 .L0 
     /tmp/ccCcFigu.s:83     .text:0000000000000064 .L0 
     /tmp/ccCcFigu.s:576    .text:0000000000000424 _Z3doBPv
     /tmp/ccCcFigu.s:89     .text:000000000000007c .L0 
     /tmp/ccCcFigu.s:90     .text:000000000000007c .L0 
     /tmp/ccCcFigu.s:93     .text:0000000000000084 .L0 
     /tmp/ccCcFigu.s:109    .text:00000000000000b8 .L0 
     /tmp/ccCcFigu.s:114    .text:00000000000000bc .L0 
     /tmp/ccCcFigu.s:115    .text:00000000000000bc .L0 
     /tmp/ccCcFigu.s:122    .text:00000000000000cc .L0 
     /tmp/ccCcFigu.s:127    .text:00000000000000d0 .L0 
     /tmp/ccCcFigu.s:128    .text:00000000000000d0 .L0 
     /tmp/ccCcFigu.s:129    .text:00000000000000d0 .L0 
     /tmp/ccCcFigu.s:132    .text:00000000000000d8 .L0 
     /tmp/ccCcFigu.s:133    .text:00000000000000dc .L0 
     /tmp/ccCcFigu.s:134    .text:00000000000000dc .L0 
     /tmp/ccCcFigu.s:136    .text:00000000000000e0 .L0 
     /tmp/ccCcFigu.s:137    .text:00000000000000e0 .L0 
     /tmp/ccCcFigu.s:139    .text:00000000000000e4 .L0 
     /tmp/ccCcFigu.s:143    .text:00000000000000e8 .L0 
     /tmp/ccCcFigu.s:147    .text:00000000000000e8 .L0 
     /tmp/ccCcFigu.s:148    .text:00000000000000e8 .L0 
     /tmp/ccCcFigu.s:153    .text:00000000000000f8 .L0 
     /tmp/ccCcFigu.s:154    .text:00000000000000f8 .L0 
     /tmp/ccCcFigu.s:158    .text:0000000000000108 .L0 
     /tmp/ccCcFigu.s:159    .text:0000000000000108 .L0 
     /tmp/ccCcFigu.s:163    .text:0000000000000118 .L0 
     /tmp/ccCcFigu.s:164    .text:0000000000000118 .L0 
     /tmp/ccCcFigu.s:168    .text:0000000000000124 .L0 
     /tmp/ccCcFigu.s:169    .text:0000000000000124 .L0 
GAS LISTING /tmp/ccCcFigu.s 			page 45


     /tmp/ccCcFigu.s:173    .text:0000000000000134 .L0 
     /tmp/ccCcFigu.s:174    .text:0000000000000134 .L0 
     /tmp/ccCcFigu.s:177    .text:000000000000013c .L0 
     /tmp/ccCcFigu.s:178    .text:000000000000013c .L0 
     /tmp/ccCcFigu.s:186    .text:0000000000000144 .L0 
     /tmp/ccCcFigu.s:187    .text:0000000000000144 .L0 
     /tmp/ccCcFigu.s:191    .text:0000000000000154 .L0 
     /tmp/ccCcFigu.s:192    .text:0000000000000154 .L0 
     /tmp/ccCcFigu.s:196    .text:0000000000000164 .L0 
     /tmp/ccCcFigu.s:197    .text:0000000000000164 .L0 
     /tmp/ccCcFigu.s:201    .text:0000000000000174 .L0 
     /tmp/ccCcFigu.s:202    .text:0000000000000174 .L0 
     /tmp/ccCcFigu.s:206    .text:0000000000000180 .L0 
     /tmp/ccCcFigu.s:207    .text:0000000000000180 .L0 
     /tmp/ccCcFigu.s:211    .text:0000000000000190 .L0 
     /tmp/ccCcFigu.s:212    .text:0000000000000190 .L0 
     /tmp/ccCcFigu.s:215    .text:0000000000000198 .L0 
     /tmp/ccCcFigu.s:216    .text:0000000000000198 .L0 
     /tmp/ccCcFigu.s:224    .text:00000000000001a0 .L0 
     /tmp/ccCcFigu.s:225    .text:00000000000001a0 .L0 
     /tmp/ccCcFigu.s:230    .text:00000000000001b0 .L0 
     /tmp/ccCcFigu.s:231    .text:00000000000001b0 .L0 
     /tmp/ccCcFigu.s:235    .text:00000000000001c0 .L0 
     /tmp/ccCcFigu.s:236    .text:00000000000001c0 .L0 
     /tmp/ccCcFigu.s:240    .text:00000000000001d0 .L0 
     /tmp/ccCcFigu.s:241    .text:00000000000001d0 .L0 
     /tmp/ccCcFigu.s:245    .text:00000000000001dc .L0 
     /tmp/ccCcFigu.s:246    .text:00000000000001dc .L0 
     /tmp/ccCcFigu.s:250    .text:00000000000001ec .L0 
     /tmp/ccCcFigu.s:251    .text:00000000000001ec .L0 
     /tmp/ccCcFigu.s:254    .text:00000000000001f4 .L0 
     /tmp/ccCcFigu.s:255    .text:00000000000001f4 .L0 
     /tmp/ccCcFigu.s:259    .text:00000000000001fc .L0 
     /tmp/ccCcFigu.s:265    .text:00000000000001fc _Z16callFromUserModePFvvE
     /tmp/ccCcFigu.s:268    .text:00000000000001fc .L0 
     /tmp/ccCcFigu.s:270    .text:00000000000001fc .L0 
     /tmp/ccCcFigu.s:271    .text:0000000000000200 .L0 
     /tmp/ccCcFigu.s:274    .text:0000000000000208 .L0 
     /tmp/ccCcFigu.s:275    .text:0000000000000208 .L0 
     /tmp/ccCcFigu.s:277    .text:000000000000020c .L0 
     /tmp/ccCcFigu.s:282    .text:000000000000020c .L0 
     /tmp/ccCcFigu.s:283    .text:000000000000020c .L0 
     /tmp/ccCcFigu.s:284    .text:000000000000020c .L0 
     /tmp/ccCcFigu.s:285    .text:000000000000020c .L0 
     /tmp/ccCcFigu.s:290    .text:000000000000021c .L0 
     /tmp/ccCcFigu.s:291    .text:000000000000021c .L0 
     /tmp/ccCcFigu.s:295    .text:000000000000022c .L0 
     /tmp/ccCcFigu.s:296    .text:000000000000022c .L0 
     /tmp/ccCcFigu.s:300    .text:000000000000023c .L0 
     /tmp/ccCcFigu.s:301    .text:000000000000023c .L0 
     /tmp/ccCcFigu.s:305    .text:0000000000000248 .L0 
     /tmp/ccCcFigu.s:306    .text:0000000000000248 .L0 
     /tmp/ccCcFigu.s:310    .text:0000000000000258 .L0 
     /tmp/ccCcFigu.s:311    .text:0000000000000258 .L0 
     /tmp/ccCcFigu.s:314    .text:0000000000000260 .L0 
     /tmp/ccCcFigu.s:315    .text:0000000000000260 .L0 
     /tmp/ccCcFigu.s:319    .text:0000000000000268 .L0 
GAS LISTING /tmp/ccCcFigu.s 			page 46


     /tmp/ccCcFigu.s:325    .text:0000000000000268 _Z3fibm
     /tmp/ccCcFigu.s:328    .text:0000000000000268 .L0 
     /tmp/ccCcFigu.s:330    .text:0000000000000268 .L0 
     /tmp/ccCcFigu.s:331    .text:000000000000026c .L0 
     /tmp/ccCcFigu.s:336    .text:000000000000027c .L0 
     /tmp/ccCcFigu.s:337    .text:000000000000027c .L0 
     /tmp/ccCcFigu.s:338    .text:000000000000027c .L0 
     /tmp/ccCcFigu.s:339    .text:000000000000027c .L0 
     /tmp/ccCcFigu.s:341    .text:0000000000000280 .L0 
     /tmp/ccCcFigu.s:344    .text:0000000000000284 .L0 
     /tmp/ccCcFigu.s:347    .text:000000000000028c .L0 
     /tmp/ccCcFigu.s:351    .text:0000000000000290 .L0 
     /tmp/ccCcFigu.s:353    .text:0000000000000298 .L0 
     /tmp/ccCcFigu.s:354    .text:0000000000000298 .L0 
     /tmp/ccCcFigu.s:356    .text:000000000000029c .L0 
     /tmp/ccCcFigu.s:357    .text:000000000000029c .L0 
     /tmp/ccCcFigu.s:359    .text:00000000000002a0 .L0 
     /tmp/ccCcFigu.s:361    .text:00000000000002a4 .L0 
     /tmp/ccCcFigu.s:363    .text:00000000000002a8 .L0 
     /tmp/ccCcFigu.s:367    .text:00000000000002ac .L0 
     /tmp/ccCcFigu.s:369    .text:00000000000002ac .L0 
     /tmp/ccCcFigu.s:370    .text:00000000000002ac .L0 
     /tmp/ccCcFigu.s:375    .text:00000000000002bc .L0 
     /tmp/ccCcFigu.s:379    .text:00000000000002c8 .L0 
     /tmp/ccCcFigu.s:382    .text:00000000000002d0 .L0 
     /tmp/ccCcFigu.s:396    .text:00000000000002d0 .L0 
     /tmp/ccCcFigu.s:398    .text:00000000000002d0 .L0 
     /tmp/ccCcFigu.s:399    .text:00000000000002d4 .L0 
     /tmp/ccCcFigu.s:404    .text:00000000000002e4 .L0 
     /tmp/ccCcFigu.s:405    .text:00000000000002e4 .L0 
     /tmp/ccCcFigu.s:406    .text:00000000000002e4 .L0 
     /tmp/ccCcFigu.s:407    .text:00000000000002e4 .L0 
     /tmp/ccCcFigu.s:409    .text:00000000000002e8 .L0 
     /tmp/ccCcFigu.s:411    .text:00000000000002e8 .L0 
     /tmp/ccCcFigu.s:417    .text:00000000000002f0 .L0 
     /tmp/ccCcFigu.s:422    .text:00000000000002f4 .L0 
     /tmp/ccCcFigu.s:426    .text:00000000000002f8 .L0 
     /tmp/ccCcFigu.s:427    .text:00000000000002f8 .L0 
     /tmp/ccCcFigu.s:431    .text:0000000000000308 .L0 
     /tmp/ccCcFigu.s:432    .text:0000000000000308 .L0 
     /tmp/ccCcFigu.s:436    .text:0000000000000314 .L0 
     /tmp/ccCcFigu.s:437    .text:0000000000000314 .L0 
     /tmp/ccCcFigu.s:440    .text:000000000000031c .L0 
     /tmp/ccCcFigu.s:450    .text:0000000000000338 .L0 
     /tmp/ccCcFigu.s:455    .text:000000000000033c .L0 
     /tmp/ccCcFigu.s:456    .text:000000000000033c .L0 
     /tmp/ccCcFigu.s:459    .text:0000000000000344 .L0 
     /tmp/ccCcFigu.s:460    .text:0000000000000344 .L0 
     /tmp/ccCcFigu.s:463    .text:000000000000034c .L0 
     /tmp/ccCcFigu.s:466    .text:0000000000000350 .L0 
     /tmp/ccCcFigu.s:467    .text:0000000000000350 .L0 
     /tmp/ccCcFigu.s:474    .text:0000000000000354 .L0 
     /tmp/ccCcFigu.s:475    .text:0000000000000354 .L0 
     /tmp/ccCcFigu.s:480    .text:0000000000000364 .L0 
     /tmp/ccCcFigu.s:481    .text:0000000000000364 .L0 
     /tmp/ccCcFigu.s:485    .text:0000000000000374 .L0 
     /tmp/ccCcFigu.s:486    .text:0000000000000374 .L0 
GAS LISTING /tmp/ccCcFigu.s 			page 47


     /tmp/ccCcFigu.s:490    .text:0000000000000384 .L0 
     /tmp/ccCcFigu.s:491    .text:0000000000000384 .L0 
     /tmp/ccCcFigu.s:495    .text:0000000000000390 .L0 
     /tmp/ccCcFigu.s:496    .text:0000000000000390 .L0 
     /tmp/ccCcFigu.s:500    .text:00000000000003a0 .L0 
     /tmp/ccCcFigu.s:501    .text:00000000000003a0 .L0 
     /tmp/ccCcFigu.s:504    .text:00000000000003a8 .L0 
     /tmp/ccCcFigu.s:505    .text:00000000000003a8 .L0 
     /tmp/ccCcFigu.s:514    .text:00000000000003b0 .L0 
     /tmp/ccCcFigu.s:515    .text:00000000000003b0 .L0 
     /tmp/ccCcFigu.s:520    .text:00000000000003c0 .L0 
     /tmp/ccCcFigu.s:521    .text:00000000000003c0 .L0 
     /tmp/ccCcFigu.s:525    .text:00000000000003d0 .L0 
     /tmp/ccCcFigu.s:526    .text:00000000000003d0 .L0 
     /tmp/ccCcFigu.s:530    .text:00000000000003e0 .L0 
     /tmp/ccCcFigu.s:531    .text:00000000000003e0 .L0 
     /tmp/ccCcFigu.s:535    .text:00000000000003ec .L0 
     /tmp/ccCcFigu.s:536    .text:00000000000003ec .L0 
     /tmp/ccCcFigu.s:540    .text:00000000000003fc .L0 
     /tmp/ccCcFigu.s:541    .text:00000000000003fc .L0 
     /tmp/ccCcFigu.s:544    .text:0000000000000404 .L0 
     /tmp/ccCcFigu.s:545    .text:0000000000000404 .L0 
     /tmp/ccCcFigu.s:552    .text:000000000000040c .L0 
     /tmp/ccCcFigu.s:553    .text:0000000000000410 .L0 
     /tmp/ccCcFigu.s:555    .text:0000000000000414 .L0 
     /tmp/ccCcFigu.s:556    .text:0000000000000414 .L0 
     /tmp/ccCcFigu.s:558    .text:0000000000000418 .L0 
     /tmp/ccCcFigu.s:561    .text:000000000000041c .L0 
     /tmp/ccCcFigu.s:563    .text:0000000000000420 .L0 
     /tmp/ccCcFigu.s:565    .text:0000000000000424 .L0 
     /tmp/ccCcFigu.s:579    .text:0000000000000424 .L0 
     /tmp/ccCcFigu.s:581    .text:0000000000000424 .L0 
     /tmp/ccCcFigu.s:582    .text:0000000000000428 .L0 
     /tmp/ccCcFigu.s:587    .text:0000000000000438 .L0 
     /tmp/ccCcFigu.s:588    .text:0000000000000438 .L0 
     /tmp/ccCcFigu.s:589    .text:0000000000000438 .L0 
     /tmp/ccCcFigu.s:590    .text:0000000000000438 .L0 
     /tmp/ccCcFigu.s:592    .text:000000000000043c .L0 
     /tmp/ccCcFigu.s:594    .text:000000000000043c .L0 
     /tmp/ccCcFigu.s:600    .text:0000000000000444 .L0 
     /tmp/ccCcFigu.s:605    .text:0000000000000448 .L0 
     /tmp/ccCcFigu.s:609    .text:000000000000044c .L0 
     /tmp/ccCcFigu.s:610    .text:000000000000044c .L0 
     /tmp/ccCcFigu.s:614    .text:000000000000045c .L0 
     /tmp/ccCcFigu.s:615    .text:000000000000045c .L0 
     /tmp/ccCcFigu.s:619    .text:0000000000000468 .L0 
     /tmp/ccCcFigu.s:620    .text:0000000000000468 .L0 
     /tmp/ccCcFigu.s:623    .text:0000000000000470 .L0 
     /tmp/ccCcFigu.s:633    .text:000000000000048c .L0 
     /tmp/ccCcFigu.s:638    .text:0000000000000490 .L0 
     /tmp/ccCcFigu.s:639    .text:0000000000000490 .L0 
     /tmp/ccCcFigu.s:640    .text:0000000000000490 .L0 
     /tmp/ccCcFigu.s:643    .text:0000000000000498 .L0 
     /tmp/ccCcFigu.s:646    .text:00000000000004a0 .L0 
     /tmp/ccCcFigu.s:649    .text:00000000000004a4 .L0 
     /tmp/ccCcFigu.s:650    .text:00000000000004a4 .L0 
     /tmp/ccCcFigu.s:657    .text:00000000000004a8 .L0 
GAS LISTING /tmp/ccCcFigu.s 			page 48


     /tmp/ccCcFigu.s:658    .text:00000000000004a8 .L0 
     /tmp/ccCcFigu.s:663    .text:00000000000004b8 .L0 
     /tmp/ccCcFigu.s:664    .text:00000000000004b8 .L0 
     /tmp/ccCcFigu.s:668    .text:00000000000004c8 .L0 
     /tmp/ccCcFigu.s:669    .text:00000000000004c8 .L0 
     /tmp/ccCcFigu.s:673    .text:00000000000004d8 .L0 
     /tmp/ccCcFigu.s:674    .text:00000000000004d8 .L0 
     /tmp/ccCcFigu.s:678    .text:00000000000004e4 .L0 
     /tmp/ccCcFigu.s:679    .text:00000000000004e4 .L0 
     /tmp/ccCcFigu.s:683    .text:00000000000004f4 .L0 
     /tmp/ccCcFigu.s:684    .text:00000000000004f4 .L0 
     /tmp/ccCcFigu.s:687    .text:00000000000004fc .L0 
     /tmp/ccCcFigu.s:688    .text:00000000000004fc .L0 
     /tmp/ccCcFigu.s:697    .text:0000000000000504 .L0 
     /tmp/ccCcFigu.s:698    .text:0000000000000504 .L0 
     /tmp/ccCcFigu.s:703    .text:0000000000000514 .L0 
     /tmp/ccCcFigu.s:704    .text:0000000000000514 .L0 
     /tmp/ccCcFigu.s:708    .text:0000000000000524 .L0 
     /tmp/ccCcFigu.s:709    .text:0000000000000524 .L0 
     /tmp/ccCcFigu.s:713    .text:0000000000000534 .L0 
     /tmp/ccCcFigu.s:714    .text:0000000000000534 .L0 
     /tmp/ccCcFigu.s:718    .text:0000000000000540 .L0 
     /tmp/ccCcFigu.s:719    .text:0000000000000540 .L0 
     /tmp/ccCcFigu.s:723    .text:0000000000000550 .L0 
     /tmp/ccCcFigu.s:724    .text:0000000000000550 .L0 
     /tmp/ccCcFigu.s:727    .text:0000000000000558 .L0 
     /tmp/ccCcFigu.s:728    .text:0000000000000558 .L0 
     /tmp/ccCcFigu.s:735    .text:0000000000000560 .L0 
     /tmp/ccCcFigu.s:736    .text:0000000000000564 .L0 
     /tmp/ccCcFigu.s:738    .text:0000000000000568 .L0 
     /tmp/ccCcFigu.s:739    .text:0000000000000568 .L0 
     /tmp/ccCcFigu.s:741    .text:000000000000056c .L0 
     /tmp/ccCcFigu.s:744    .text:0000000000000570 .L0 
     /tmp/ccCcFigu.s:746    .text:0000000000000574 .L0 
     /tmp/ccCcFigu.s:748    .text:0000000000000578 .L0 
     /tmp/ccCcFigu.s:771    .text:0000000000000578 _Z15testSystemCallsv
     /tmp/ccCcFigu.s:774    .text:0000000000000578 .L0 
     /tmp/ccCcFigu.s:775    .text:0000000000000578 .L0 
     /tmp/ccCcFigu.s:776    .text:000000000000057c .L0 
     /tmp/ccCcFigu.s:786    .text:00000000000005a0 .L0 
     /tmp/ccCcFigu.s:787    .text:00000000000005a0 .L0 
     /tmp/ccCcFigu.s:788    .text:00000000000005a0 .L0 
     /tmp/ccCcFigu.s:789    .text:00000000000005a0 .L0 
     /tmp/ccCcFigu.s:790    .text:00000000000005a0 .L0 
     /tmp/ccCcFigu.s:791    .text:00000000000005a0 .L0 
     /tmp/ccCcFigu.s:792    .text:00000000000005a0 .L0 
     /tmp/ccCcFigu.s:793    .text:00000000000005a0 .L0 
     /tmp/ccCcFigu.s:794    .text:00000000000005a0 .L0 
     /tmp/ccCcFigu.s:796    .text:00000000000005a4 .L0 
     /tmp/ccCcFigu.s:798    .text:00000000000005a4 .L0 
     /tmp/ccCcFigu.s:799    .text:00000000000005a4 .L0 
     /tmp/ccCcFigu.s:803    .text:00000000000005b4 .L0 
     /tmp/ccCcFigu.s:804    .text:00000000000005b4 .L0 
     /tmp/ccCcFigu.s:807    .text:00000000000005bc .L0 
     /tmp/ccCcFigu.s:808    .text:00000000000005bc .L0 
     /tmp/ccCcFigu.s:810    .text:00000000000005bc .L0 
     /tmp/ccCcFigu.s:811    .text:00000000000005bc .L0 
GAS LISTING /tmp/ccCcFigu.s 			page 49


     /tmp/ccCcFigu.s:814    .text:00000000000005c0 .L0 
     /tmp/ccCcFigu.s:816    .text:00000000000005c4 .L0 
     /tmp/ccCcFigu.s:821    .text:00000000000005c8 .L0 
     /tmp/ccCcFigu.s:825    .text:00000000000005d0 .L0 
     /tmp/ccCcFigu.s:826    .text:00000000000005d0 .L0 
     /tmp/ccCcFigu.s:829    .text:00000000000005d4 .L0 
     /tmp/ccCcFigu.s:830    .text:00000000000005d4 .L0 
     /tmp/ccCcFigu.s:833    .text:00000000000005d8 .L0 
     /tmp/ccCcFigu.s:834    .text:00000000000005d8 .L0 
     /tmp/ccCcFigu.s:840    .text:00000000000005e8 .L0 
     /tmp/ccCcFigu.s:841    .text:00000000000005e8 .L0 
     /tmp/ccCcFigu.s:848    .text:00000000000005f8 .L0 
     /tmp/ccCcFigu.s:853    .text:00000000000005fc .L0 
     /tmp/ccCcFigu.s:854    .text:00000000000005fc .L0 
     /tmp/ccCcFigu.s:860    .text:0000000000000600 .L0 
     /tmp/ccCcFigu.s:861    .text:0000000000000600 .L0 
     /tmp/ccCcFigu.s:865    .text:0000000000000604 .L0 
     /tmp/ccCcFigu.s:868    .text:0000000000000608 .L0 
     /tmp/ccCcFigu.s:872    .text:000000000000060c .L0 
     /tmp/ccCcFigu.s:877    .text:0000000000000610 .L0 
     /tmp/ccCcFigu.s:878    .text:0000000000000610 .L0 
     /tmp/ccCcFigu.s:883    .text:0000000000000620 .L0 
     /tmp/ccCcFigu.s:884    .text:0000000000000620 .L0 
     /tmp/ccCcFigu.s:888    .text:000000000000062c .L0 
     /tmp/ccCcFigu.s:889    .text:000000000000062c .L0 
     /tmp/ccCcFigu.s:893    .text:000000000000063c .L0 
     /tmp/ccCcFigu.s:894    .text:000000000000063c .L0 
     /tmp/ccCcFigu.s:898    .text:0000000000000648 .L0 
     /tmp/ccCcFigu.s:899    .text:0000000000000648 .L0 
     /tmp/ccCcFigu.s:903    .text:0000000000000658 .L0 
     /tmp/ccCcFigu.s:904    .text:0000000000000658 .L0 
     /tmp/ccCcFigu.s:908    .text:0000000000000664 .L0 
     /tmp/ccCcFigu.s:909    .text:0000000000000664 .L0 
     /tmp/ccCcFigu.s:914    .text:000000000000066c .L0 
     /tmp/ccCcFigu.s:915    .text:000000000000066c .L0 
     /tmp/ccCcFigu.s:916    .text:000000000000066c .L0 
     /tmp/ccCcFigu.s:917    .text:000000000000066c .L0 
     /tmp/ccCcFigu.s:921    .text:000000000000067c .L0 
     /tmp/ccCcFigu.s:922    .text:000000000000067c .L0 
     /tmp/ccCcFigu.s:926    .text:000000000000068c .L0 
     /tmp/ccCcFigu.s:927    .text:000000000000068c .L0 
     /tmp/ccCcFigu.s:931    .text:000000000000069c .L0 
     /tmp/ccCcFigu.s:932    .text:000000000000069c .L0 
     /tmp/ccCcFigu.s:936    .text:00000000000006a8 .L0 
     /tmp/ccCcFigu.s:937    .text:00000000000006a8 .L0 
     /tmp/ccCcFigu.s:941    .text:00000000000006b8 .L0 
     /tmp/ccCcFigu.s:942    .text:00000000000006b8 .L0 
     /tmp/ccCcFigu.s:945    .text:00000000000006c0 .L0 
     /tmp/ccCcFigu.s:946    .text:00000000000006c0 .L0 
     /tmp/ccCcFigu.s:954    .text:00000000000006c8 .L0 
     /tmp/ccCcFigu.s:955    .text:00000000000006c8 .L0 
     /tmp/ccCcFigu.s:960    .text:00000000000006d8 .L0 
     /tmp/ccCcFigu.s:961    .text:00000000000006d8 .L0 
     /tmp/ccCcFigu.s:965    .text:00000000000006e8 .L0 
     /tmp/ccCcFigu.s:966    .text:00000000000006e8 .L0 
     /tmp/ccCcFigu.s:970    .text:00000000000006f8 .L0 
     /tmp/ccCcFigu.s:971    .text:00000000000006f8 .L0 
GAS LISTING /tmp/ccCcFigu.s 			page 50


     /tmp/ccCcFigu.s:975    .text:0000000000000704 .L0 
     /tmp/ccCcFigu.s:976    .text:0000000000000704 .L0 
     /tmp/ccCcFigu.s:980    .text:0000000000000714 .L0 
     /tmp/ccCcFigu.s:981    .text:0000000000000714 .L0 
     /tmp/ccCcFigu.s:984    .text:000000000000071c .L0 
     /tmp/ccCcFigu.s:985    .text:000000000000071c .L0 
     /tmp/ccCcFigu.s:993    .text:0000000000000724 .L0 
     /tmp/ccCcFigu.s:1000   .text:0000000000000734 .L0 
     /tmp/ccCcFigu.s:1005   .text:0000000000000738 .L0 
     /tmp/ccCcFigu.s:1006   .text:0000000000000738 .L0 
     /tmp/ccCcFigu.s:1007   .text:0000000000000738 .L0 
     /tmp/ccCcFigu.s:1011   .text:0000000000000748 .L0 
     /tmp/ccCcFigu.s:1012   .text:0000000000000748 .L0 
     /tmp/ccCcFigu.s:1015   .text:0000000000000750 .L0 
     /tmp/ccCcFigu.s:1016   .text:0000000000000754 .L0 
     /tmp/ccCcFigu.s:1017   .text:0000000000000754 .L0 
     /tmp/ccCcFigu.s:1019   .text:0000000000000758 .L0 
     /tmp/ccCcFigu.s:1020   .text:0000000000000758 .L0 
     /tmp/ccCcFigu.s:1022   .text:000000000000075c .L0 
     /tmp/ccCcFigu.s:1025   .text:0000000000000760 .L0 
     /tmp/ccCcFigu.s:1027   .text:0000000000000764 .L0 
     /tmp/ccCcFigu.s:1029   .text:0000000000000768 .L0 
     /tmp/ccCcFigu.s:1032   .text:000000000000076c .L0 
     /tmp/ccCcFigu.s:1035   .text:0000000000000770 .L0 
     /tmp/ccCcFigu.s:1037   .text:0000000000000774 .L0 
     /tmp/ccCcFigu.s:1039   .text:0000000000000778 .L0 
     /tmp/ccCcFigu.s:1043   .text:000000000000077c .L0 
     /tmp/ccCcFigu.s:1047   .text:000000000000077c .L0 
     /tmp/ccCcFigu.s:1048   .text:000000000000077c .L0 
     /tmp/ccCcFigu.s:1053   .text:000000000000078c .L0 
     /tmp/ccCcFigu.s:1054   .text:000000000000078c .L0 
     /tmp/ccCcFigu.s:1058   .text:000000000000079c .L0 
     /tmp/ccCcFigu.s:1059   .text:000000000000079c .L0 
     /tmp/ccCcFigu.s:1063   .text:00000000000007ac .L0 
     /tmp/ccCcFigu.s:1064   .text:00000000000007ac .L0 
     /tmp/ccCcFigu.s:1068   .text:00000000000007b8 .L0 
     /tmp/ccCcFigu.s:1069   .text:00000000000007b8 .L0 
     /tmp/ccCcFigu.s:1073   .text:00000000000007c8 .L0 
     /tmp/ccCcFigu.s:1074   .text:00000000000007c8 .L0 
     /tmp/ccCcFigu.s:1077   .text:00000000000007d0 .L0 
     /tmp/ccCcFigu.s:1078   .text:00000000000007d0 .L0 
     /tmp/ccCcFigu.s:1082   .text:00000000000007d8 .L0 
     /tmp/ccCcFigu.s:1096   .text:00000000000007d8 _Z19testMemoryAllocatorv
     /tmp/ccCcFigu.s:1099   .text:00000000000007d8 .L0 
     /tmp/ccCcFigu.s:1100   .text:00000000000007d8 .L0 
     /tmp/ccCcFigu.s:1101   .text:00000000000007dc .L0 
     /tmp/ccCcFigu.s:1107   .text:00000000000007f0 .L0 
     /tmp/ccCcFigu.s:1108   .text:00000000000007f0 .L0 
     /tmp/ccCcFigu.s:1109   .text:00000000000007f0 .L0 
     /tmp/ccCcFigu.s:1110   .text:00000000000007f0 .L0 
     /tmp/ccCcFigu.s:1111   .text:00000000000007f0 .L0 
     /tmp/ccCcFigu.s:1113   .text:00000000000007f4 .L0 
     /tmp/ccCcFigu.s:1115   .text:00000000000007f4 .L0 
     /tmp/ccCcFigu.s:1116   .text:00000000000007f4 .L0 
     /tmp/ccCcFigu.s:1120   .text:0000000000000804 .L0 
     /tmp/ccCcFigu.s:1121   .text:0000000000000804 .L0 
     /tmp/ccCcFigu.s:1124   .text:000000000000080c .L0 
GAS LISTING /tmp/ccCcFigu.s 			page 51


     /tmp/ccCcFigu.s:1125   .text:000000000000080c .L0 
     /tmp/ccCcFigu.s:1126   .text:000000000000080c .L0 
     /tmp/ccCcFigu.s:1127   .text:000000000000080c .L0 
     /tmp/ccCcFigu.s:1135   .text:0000000000000820 .L0 
     /tmp/ccCcFigu.s:1136   .text:0000000000000820 .L0 
     /tmp/ccCcFigu.s:1140   .text:0000000000000824 .L0 
     /tmp/ccCcFigu.s:1143   .text:000000000000082c .L0 
     /tmp/ccCcFigu.s:1144   .text:000000000000082c .L0 
     /tmp/ccCcFigu.s:1147   .text:0000000000000834 .L0 
     /tmp/ccCcFigu.s:1151   .text:0000000000000840 .L0 
     /tmp/ccCcFigu.s:1153   .text:0000000000000844 .L0 
     /tmp/ccCcFigu.s:1154   .text:0000000000000844 .L0 
     /tmp/ccCcFigu.s:1156   .text:0000000000000848 .L0 
     /tmp/ccCcFigu.s:1164   .text:0000000000000850 .L0 
     /tmp/ccCcFigu.s:1167   .text:0000000000000854 .L0 
     /tmp/ccCcFigu.s:1172   .text:0000000000000858 .L0 
     /tmp/ccCcFigu.s:1175   .text:0000000000000860 .L0 
     /tmp/ccCcFigu.s:1176   .text:0000000000000860 .L0 
     /tmp/ccCcFigu.s:1180   .text:000000000000086c .L0 
     /tmp/ccCcFigu.s:1182   .text:0000000000000870 .L0 
     /tmp/ccCcFigu.s:1185   .text:0000000000000874 .L0 
     /tmp/ccCcFigu.s:1192   .text:000000000000087c .L0 
     /tmp/ccCcFigu.s:1199   .text:0000000000000884 .L0 
     /tmp/ccCcFigu.s:1204   .text:0000000000000888 .L0 
     /tmp/ccCcFigu.s:1208   .text:000000000000088c .L0 
     /tmp/ccCcFigu.s:1211   .text:0000000000000894 .L0 
     /tmp/ccCcFigu.s:1212   .text:0000000000000894 .L0 
     /tmp/ccCcFigu.s:1215   .text:000000000000089c .L0 
     /tmp/ccCcFigu.s:1221   .text:00000000000008a8 .L0 
     /tmp/ccCcFigu.s:1222   .text:00000000000008a8 .L0 
     /tmp/ccCcFigu.s:1227   .text:00000000000008ac .L0 
     /tmp/ccCcFigu.s:1228   .text:00000000000008ac .L0 
     /tmp/ccCcFigu.s:1237   .text:00000000000008b4 .L0 
     /tmp/ccCcFigu.s:1238   .text:00000000000008b4 .L0 
     /tmp/ccCcFigu.s:1242   .text:00000000000008c4 .L0 
     /tmp/ccCcFigu.s:1243   .text:00000000000008c4 .L0 
     /tmp/ccCcFigu.s:1247   .text:00000000000008d4 .L0 
     /tmp/ccCcFigu.s:1248   .text:00000000000008d4 .L0 
     /tmp/ccCcFigu.s:1252   .text:00000000000008e4 .L0 
     /tmp/ccCcFigu.s:1253   .text:00000000000008e4 .L0 
     /tmp/ccCcFigu.s:1257   .text:00000000000008f0 .L0 
     /tmp/ccCcFigu.s:1258   .text:00000000000008f0 .L0 
     /tmp/ccCcFigu.s:1262   .text:0000000000000900 .L0 
     /tmp/ccCcFigu.s:1263   .text:0000000000000900 .L0 
     /tmp/ccCcFigu.s:1266   .text:0000000000000908 .L0 
     /tmp/ccCcFigu.s:1267   .text:0000000000000908 .L0 
     /tmp/ccCcFigu.s:1276   .text:0000000000000910 .L0 
     /tmp/ccCcFigu.s:1277   .text:0000000000000910 .L0 
     /tmp/ccCcFigu.s:1282   .text:0000000000000920 .L0 
     /tmp/ccCcFigu.s:1283   .text:0000000000000920 .L0 
     /tmp/ccCcFigu.s:1287   .text:0000000000000930 .L0 
     /tmp/ccCcFigu.s:1288   .text:0000000000000930 .L0 
     /tmp/ccCcFigu.s:1292   .text:0000000000000940 .L0 
     /tmp/ccCcFigu.s:1293   .text:0000000000000940 .L0 
     /tmp/ccCcFigu.s:1297   .text:000000000000094c .L0 
     /tmp/ccCcFigu.s:1298   .text:000000000000094c .L0 
     /tmp/ccCcFigu.s:1302   .text:000000000000095c .L0 
GAS LISTING /tmp/ccCcFigu.s 			page 52


     /tmp/ccCcFigu.s:1303   .text:000000000000095c .L0 
     /tmp/ccCcFigu.s:1306   .text:0000000000000964 .L0 
     /tmp/ccCcFigu.s:1307   .text:0000000000000964 .L0 
     /tmp/ccCcFigu.s:1314   .text:000000000000096c .L0 
     /tmp/ccCcFigu.s:1315   .text:000000000000096c .L0 
     /tmp/ccCcFigu.s:1321   .text:0000000000000978 .L0 
     /tmp/ccCcFigu.s:1322   .text:0000000000000978 .L0 
     /tmp/ccCcFigu.s:1327   .text:000000000000097c .L0 
     /tmp/ccCcFigu.s:1328   .text:000000000000097c .L0 
     /tmp/ccCcFigu.s:1335   .text:000000000000098c .L0 
     /tmp/ccCcFigu.s:1340   .text:0000000000000990 .L0 
     /tmp/ccCcFigu.s:1341   .text:0000000000000990 .L0 
     /tmp/ccCcFigu.s:1342   .text:0000000000000990 .L0 
     /tmp/ccCcFigu.s:1346   .text:00000000000009a0 .L0 
     /tmp/ccCcFigu.s:1347   .text:00000000000009a0 .L0 
     /tmp/ccCcFigu.s:1350   .text:00000000000009a8 .L0 
     /tmp/ccCcFigu.s:1351   .text:00000000000009ac .L0 
     /tmp/ccCcFigu.s:1352   .text:00000000000009ac .L0 
     /tmp/ccCcFigu.s:1354   .text:00000000000009b0 .L0 
     /tmp/ccCcFigu.s:1355   .text:00000000000009b0 .L0 
     /tmp/ccCcFigu.s:1357   .text:00000000000009b4 .L0 
     /tmp/ccCcFigu.s:1360   .text:00000000000009b8 .L0 
     /tmp/ccCcFigu.s:1362   .text:00000000000009bc .L0 
     /tmp/ccCcFigu.s:1365   .text:00000000000009c0 .L0 
     /tmp/ccCcFigu.s:1369   .text:00000000000009c4 .L0 
     /tmp/ccCcFigu.s:1373   .text:00000000000009c4 .L0 
     /tmp/ccCcFigu.s:1374   .text:00000000000009c4 .L0 
     /tmp/ccCcFigu.s:1379   .text:00000000000009d4 .L0 
     /tmp/ccCcFigu.s:1380   .text:00000000000009d4 .L0 
     /tmp/ccCcFigu.s:1384   .text:00000000000009e4 .L0 
     /tmp/ccCcFigu.s:1385   .text:00000000000009e4 .L0 
     /tmp/ccCcFigu.s:1389   .text:00000000000009f4 .L0 
     /tmp/ccCcFigu.s:1390   .text:00000000000009f4 .L0 
     /tmp/ccCcFigu.s:1394   .text:0000000000000a00 .L0 
     /tmp/ccCcFigu.s:1395   .text:0000000000000a00 .L0 
     /tmp/ccCcFigu.s:1399   .text:0000000000000a10 .L0 
     /tmp/ccCcFigu.s:1400   .text:0000000000000a10 .L0 
     /tmp/ccCcFigu.s:1403   .text:0000000000000a18 .L0 
     /tmp/ccCcFigu.s:1404   .text:0000000000000a18 .L0 
     /tmp/ccCcFigu.s:1412   .text:0000000000000a20 .L0 
     /tmp/ccCcFigu.s:1413   .text:0000000000000a20 .L0 
     /tmp/ccCcFigu.s:1418   .text:0000000000000a30 .L0 
     /tmp/ccCcFigu.s:1419   .text:0000000000000a30 .L0 
     /tmp/ccCcFigu.s:1423   .text:0000000000000a40 .L0 
     /tmp/ccCcFigu.s:1424   .text:0000000000000a40 .L0 
     /tmp/ccCcFigu.s:1428   .text:0000000000000a50 .L0 
     /tmp/ccCcFigu.s:1429   .text:0000000000000a50 .L0 
     /tmp/ccCcFigu.s:1433   .text:0000000000000a5c .L0 
     /tmp/ccCcFigu.s:1434   .text:0000000000000a5c .L0 
     /tmp/ccCcFigu.s:1438   .text:0000000000000a6c .L0 
     /tmp/ccCcFigu.s:1439   .text:0000000000000a6c .L0 
     /tmp/ccCcFigu.s:1442   .text:0000000000000a74 .L0 
     /tmp/ccCcFigu.s:1443   .text:0000000000000a74 .L0 
     /tmp/ccCcFigu.s:1447   .text:0000000000000a7c .L0 
     /tmp/ccCcFigu.s:1461   .text:0000000000000a7c _Z8userMainv
     /tmp/ccCcFigu.s:1464   .text:0000000000000a7c .L0 
     /tmp/ccCcFigu.s:1465   .text:0000000000000a7c .L0 
GAS LISTING /tmp/ccCcFigu.s 			page 53


     /tmp/ccCcFigu.s:1466   .text:0000000000000a80 .L0 
     /tmp/ccCcFigu.s:1469   .text:0000000000000a88 .L0 
     /tmp/ccCcFigu.s:1470   .text:0000000000000a88 .L0 
     /tmp/ccCcFigu.s:1472   .text:0000000000000a8c .L0 
     /tmp/ccCcFigu.s:1474   .text:0000000000000a8c .L0 
     /tmp/ccCcFigu.s:1475   .text:0000000000000a8c .L0 
     /tmp/ccCcFigu.s:1479   .text:0000000000000a9c .L0 
     /tmp/ccCcFigu.s:1480   .text:0000000000000a9c .L0 
     /tmp/ccCcFigu.s:1483   .text:0000000000000aa4 .L0 
     /tmp/ccCcFigu.s:1490   .text:0000000000000ab4 .L0 
     /tmp/ccCcFigu.s:1495   .text:0000000000000ab8 .L0 
     /tmp/ccCcFigu.s:1496   .text:0000000000000ab8 .L0 
     /tmp/ccCcFigu.s:1497   .text:0000000000000ab8 .L0 
     /tmp/ccCcFigu.s:1500   .text:0000000000000ac0 .L0 
     /tmp/ccCcFigu.s:1501   .text:0000000000000ac0 .L0 
     /tmp/ccCcFigu.s:1504   .text:0000000000000ac8 .L0 
     /tmp/ccCcFigu.s:1505   .text:0000000000000ac8 .L0 
     /tmp/ccCcFigu.s:1508   .text:0000000000000ad0 .L0 
     /tmp/ccCcFigu.s:1515   .text:0000000000000ae0 .L0 
     /tmp/ccCcFigu.s:1520   .text:0000000000000ae4 .L0 
     /tmp/ccCcFigu.s:1521   .text:0000000000000ae4 .L0 
     /tmp/ccCcFigu.s:1522   .text:0000000000000ae4 .L0 
     /tmp/ccCcFigu.s:1526   .text:0000000000000af4 .L0 
     /tmp/ccCcFigu.s:1527   .text:0000000000000af4 .L0 
     /tmp/ccCcFigu.s:1530   .text:0000000000000afc .L0 
     /tmp/ccCcFigu.s:1531   .text:0000000000000b00 .L0 
     /tmp/ccCcFigu.s:1532   .text:0000000000000b00 .L0 
     /tmp/ccCcFigu.s:1534   .text:0000000000000b04 .L0 
     /tmp/ccCcFigu.s:1535   .text:0000000000000b04 .L0 
     /tmp/ccCcFigu.s:1537   .text:0000000000000b08 .L0 
     /tmp/ccCcFigu.s:1541   .text:0000000000000b0c .L0 
     /tmp/ccCcFigu.s:1545   .text:0000000000000b0c .L0 
     /tmp/ccCcFigu.s:1546   .text:0000000000000b0c .L0 
     /tmp/ccCcFigu.s:1551   .text:0000000000000b1c .L0 
     /tmp/ccCcFigu.s:1552   .text:0000000000000b1c .L0 
     /tmp/ccCcFigu.s:1556   .text:0000000000000b2c .L0 
     /tmp/ccCcFigu.s:1557   .text:0000000000000b2c .L0 
     /tmp/ccCcFigu.s:1561   .text:0000000000000b3c .L0 
     /tmp/ccCcFigu.s:1562   .text:0000000000000b3c .L0 
     /tmp/ccCcFigu.s:1566   .text:0000000000000b48 .L0 
     /tmp/ccCcFigu.s:1567   .text:0000000000000b48 .L0 
     /tmp/ccCcFigu.s:1571   .text:0000000000000b58 .L0 
     /tmp/ccCcFigu.s:1572   .text:0000000000000b58 .L0 
     /tmp/ccCcFigu.s:1575   .text:0000000000000b60 .L0 
     /tmp/ccCcFigu.s:1576   .text:0000000000000b60 .L0 
     /tmp/ccCcFigu.s:1584   .text:0000000000000b68 .L0 
     /tmp/ccCcFigu.s:1585   .text:0000000000000b68 .L0 
     /tmp/ccCcFigu.s:1590   .text:0000000000000b78 .L0 
     /tmp/ccCcFigu.s:1591   .text:0000000000000b78 .L0 
     /tmp/ccCcFigu.s:1595   .text:0000000000000b88 .L0 
     /tmp/ccCcFigu.s:1596   .text:0000000000000b88 .L0 
     /tmp/ccCcFigu.s:1600   .text:0000000000000b98 .L0 
     /tmp/ccCcFigu.s:1601   .text:0000000000000b98 .L0 
     /tmp/ccCcFigu.s:1605   .text:0000000000000ba4 .L0 
     /tmp/ccCcFigu.s:1606   .text:0000000000000ba4 .L0 
     /tmp/ccCcFigu.s:1610   .text:0000000000000bb4 .L0 
     /tmp/ccCcFigu.s:1611   .text:0000000000000bb4 .L0 
GAS LISTING /tmp/ccCcFigu.s 			page 54


     /tmp/ccCcFigu.s:1614   .text:0000000000000bbc .L0 
     /tmp/ccCcFigu.s:1615   .text:0000000000000bbc .L0 
     /tmp/ccCcFigu.s:1619   .text:0000000000000bc4 .L0 
     /tmp/ccCcFigu.s:1627   .text:0000000000000bc4 .L0 
     /tmp/ccCcFigu.s:20     .rodata.str1.8:0000000000000068 .LC4
     /tmp/ccCcFigu.s:59     .text:000000000000002c .L0 
     /tmp/ccCcFigu.s:77     .text:0000000000000050 .L0 
     /tmp/ccCcFigu.s:84     .text:0000000000000068 .L0 
     /tmp/ccCcFigu.s:93     .text:0000000000000084 .L0 
     /tmp/ccCcFigu.s:8      .rodata.str1.8:0000000000000000 .LC0
     /tmp/ccCcFigu.s:148    .text:00000000000000e8 .L0 
     /tmp/ccCcFigu.s:11     .rodata.str1.8:0000000000000028 .LC1
     /tmp/ccCcFigu.s:154    .text:00000000000000f8 .L0 
     /tmp/ccCcFigu.s:14     .rodata.str1.8:0000000000000038 .LC2
     /tmp/ccCcFigu.s:159    .text:0000000000000108 .L0 
     /tmp/ccCcFigu.s:17     .rodata.str1.8:0000000000000048 .LC3
     /tmp/ccCcFigu.s:169    .text:0000000000000124 .L0 
     /tmp/ccCcFigu.s:187    .text:0000000000000144 .L0 
     /tmp/ccCcFigu.s:192    .text:0000000000000154 .L0 
     /tmp/ccCcFigu.s:197    .text:0000000000000164 .L0 
     /tmp/ccCcFigu.s:207    .text:0000000000000180 .L0 
     /tmp/ccCcFigu.s:225    .text:00000000000001a0 .L0 
     /tmp/ccCcFigu.s:231    .text:00000000000001b0 .L0 
     /tmp/ccCcFigu.s:236    .text:00000000000001c0 .L0 
     /tmp/ccCcFigu.s:246    .text:00000000000001dc .L0 
     /tmp/ccCcFigu.s:285    .text:000000000000020c .L0 
     /tmp/ccCcFigu.s:291    .text:000000000000021c .L0 
     /tmp/ccCcFigu.s:296    .text:000000000000022c .L0 
     /tmp/ccCcFigu.s:306    .text:0000000000000248 .L0 
     /tmp/ccCcFigu.s:387    .rodata.str1.8:0000000000000088 .LC5
     /tmp/ccCcFigu.s:427    .text:00000000000002f8 .L0 
     /tmp/ccCcFigu.s:475    .text:0000000000000354 .L0 
     /tmp/ccCcFigu.s:481    .text:0000000000000364 .L0 
     /tmp/ccCcFigu.s:486    .text:0000000000000374 .L0 
     /tmp/ccCcFigu.s:496    .text:0000000000000390 .L0 
     /tmp/ccCcFigu.s:515    .text:00000000000003b0 .L0 
     /tmp/ccCcFigu.s:521    .text:00000000000003c0 .L0 
     /tmp/ccCcFigu.s:526    .text:00000000000003d0 .L0 
     /tmp/ccCcFigu.s:536    .text:00000000000003ec .L0 
     /tmp/ccCcFigu.s:570    .rodata.str1.8:0000000000000090 .LC6
     /tmp/ccCcFigu.s:610    .text:000000000000044c .L0 
     /tmp/ccCcFigu.s:658    .text:00000000000004a8 .L0 
     /tmp/ccCcFigu.s:664    .text:00000000000004b8 .L0 
     /tmp/ccCcFigu.s:669    .text:00000000000004c8 .L0 
     /tmp/ccCcFigu.s:679    .text:00000000000004e4 .L0 
     /tmp/ccCcFigu.s:698    .text:0000000000000504 .L0 
     /tmp/ccCcFigu.s:704    .text:0000000000000514 .L0 
     /tmp/ccCcFigu.s:709    .text:0000000000000524 .L0 
     /tmp/ccCcFigu.s:719    .text:0000000000000540 .L0 
     /tmp/ccCcFigu.s:753    .rodata.str1.8:0000000000000098 .LC7
     /tmp/ccCcFigu.s:799    .text:00000000000005a4 .L0 
     /tmp/ccCcFigu.s:756    .rodata.str1.8:00000000000000b8 .LC8
     /tmp/ccCcFigu.s:878    .text:0000000000000610 .L0 
     /tmp/ccCcFigu.s:759    .rodata.str1.8:00000000000000d0 .LC9
     /tmp/ccCcFigu.s:889    .text:000000000000062c .L0 
     /tmp/ccCcFigu.s:762    .rodata.str1.8:00000000000000e0 .LC10
     /tmp/ccCcFigu.s:899    .text:0000000000000648 .L0 
GAS LISTING /tmp/ccCcFigu.s 			page 55


     /tmp/ccCcFigu.s:917    .text:000000000000066c .L0 
     /tmp/ccCcFigu.s:922    .text:000000000000067c .L0 
     /tmp/ccCcFigu.s:927    .text:000000000000068c .L0 
     /tmp/ccCcFigu.s:937    .text:00000000000006a8 .L0 
     /tmp/ccCcFigu.s:955    .text:00000000000006c8 .L0 
     /tmp/ccCcFigu.s:961    .text:00000000000006d8 .L0 
     /tmp/ccCcFigu.s:966    .text:00000000000006e8 .L0 
     /tmp/ccCcFigu.s:976    .text:0000000000000704 .L0 
     /tmp/ccCcFigu.s:765    .rodata.str1.8:00000000000000f0 .LC11
     /tmp/ccCcFigu.s:1007   .text:0000000000000738 .L0 
     /tmp/ccCcFigu.s:1048   .text:000000000000077c .L0 
     /tmp/ccCcFigu.s:1054   .text:000000000000078c .L0 
     /tmp/ccCcFigu.s:1059   .text:000000000000079c .L0 
     /tmp/ccCcFigu.s:1069   .text:00000000000007b8 .L0 
     /tmp/ccCcFigu.s:1087   .rodata.str1.8:0000000000000118 .LC12
     /tmp/ccCcFigu.s:1116   .text:00000000000007f4 .L0 
     /tmp/ccCcFigu.s:1238   .text:00000000000008b4 .L0 
     /tmp/ccCcFigu.s:1243   .text:00000000000008c4 .L0 
     /tmp/ccCcFigu.s:1248   .text:00000000000008d4 .L0 
     /tmp/ccCcFigu.s:1258   .text:00000000000008f0 .L0 
     /tmp/ccCcFigu.s:1277   .text:0000000000000910 .L0 
     /tmp/ccCcFigu.s:1283   .text:0000000000000920 .L0 
     /tmp/ccCcFigu.s:1288   .text:0000000000000930 .L0 
     /tmp/ccCcFigu.s:1298   .text:000000000000094c .L0 
     /tmp/ccCcFigu.s:1090   .rodata.str1.8:0000000000000140 .LC13
     /tmp/ccCcFigu.s:1342   .text:0000000000000990 .L0 
     /tmp/ccCcFigu.s:1374   .text:00000000000009c4 .L0 
     /tmp/ccCcFigu.s:1380   .text:00000000000009d4 .L0 
     /tmp/ccCcFigu.s:1385   .text:00000000000009e4 .L0 
     /tmp/ccCcFigu.s:1395   .text:0000000000000a00 .L0 
     /tmp/ccCcFigu.s:1413   .text:0000000000000a20 .L0 
     /tmp/ccCcFigu.s:1419   .text:0000000000000a30 .L0 
     /tmp/ccCcFigu.s:1424   .text:0000000000000a40 .L0 
     /tmp/ccCcFigu.s:1434   .text:0000000000000a5c .L0 
     /tmp/ccCcFigu.s:1452   .rodata.str1.8:0000000000000168 .LC14
     /tmp/ccCcFigu.s:1475   .text:0000000000000a8c .L0 
     /tmp/ccCcFigu.s:1455   .rodata.str1.8:0000000000000178 .LC15
     /tmp/ccCcFigu.s:1522   .text:0000000000000ae4 .L0 
     /tmp/ccCcFigu.s:1546   .text:0000000000000b0c .L0 
     /tmp/ccCcFigu.s:1552   .text:0000000000000b1c .L0 
     /tmp/ccCcFigu.s:1557   .text:0000000000000b2c .L0 
     /tmp/ccCcFigu.s:1567   .text:0000000000000b48 .L0 
     /tmp/ccCcFigu.s:1585   .text:0000000000000b68 .L0 
     /tmp/ccCcFigu.s:1591   .text:0000000000000b78 .L0 
     /tmp/ccCcFigu.s:1596   .text:0000000000000b88 .L0 
     /tmp/ccCcFigu.s:1606   .text:0000000000000ba4 .L0 
     /tmp/ccCcFigu.s:142    .text:00000000000000e8 .L6
     /tmp/ccCcFigu.s:180    .text:0000000000000144 .L7
     /tmp/ccCcFigu.s:218    .text:00000000000001a0 .L8
     /tmp/ccCcFigu.s:349    .text:0000000000000290 .L12
     /tmp/ccCcFigu.s:366    .text:00000000000002ac .L14
     /tmp/ccCcFigu.s:469    .text:0000000000000354 .L21
     /tmp/ccCcFigu.s:507    .text:00000000000003b0 .L22
     /tmp/ccCcFigu.s:547    .text:000000000000040c .L15
     /tmp/ccCcFigu.s:424    .text:00000000000002f8 .L16
     /tmp/ccCcFigu.s:652    .text:00000000000004a8 .L29
     /tmp/ccCcFigu.s:690    .text:0000000000000504 .L30
GAS LISTING /tmp/ccCcFigu.s 			page 56


     /tmp/ccCcFigu.s:730    .text:0000000000000560 .L23
     /tmp/ccCcFigu.s:607    .text:000000000000044c .L24
     /tmp/ccCcFigu.s:987    .text:0000000000000724 .L32
     /tmp/ccCcFigu.s:874    .text:0000000000000610 .L38
     /tmp/ccCcFigu.s:948    .text:00000000000006c8 .L39
     /tmp/ccCcFigu.s:818    .text:00000000000005c8 .L35
     /tmp/ccCcFigu.s:1042   .text:000000000000077c .L40
     /tmp/ccCcFigu.s:1160   .text:0000000000000850 .L50
     /tmp/ccCcFigu.s:1138   .text:0000000000000824 .L43
     /tmp/ccCcFigu.s:1189   .text:000000000000087c .L44
     /tmp/ccCcFigu.s:1168   .text:0000000000000858 .L42
     /tmp/ccCcFigu.s:1232   .text:00000000000008b4 .L53
     /tmp/ccCcFigu.s:1309   .text:000000000000096c .L46
     /tmp/ccCcFigu.s:1269   .text:0000000000000910 .L54
     /tmp/ccCcFigu.s:1206   .text:000000000000088c .L45
     /tmp/ccCcFigu.s:1368   .text:00000000000009c4 .L55
     /tmp/ccCcFigu.s:1406   .text:0000000000000a20 .L56
     /tmp/ccCcFigu.s:1540   .text:0000000000000b0c .L61
     /tmp/ccCcFigu.s:1578   .text:0000000000000b68 .L62
     /tmp/ccCcFigu.s:4163   .debug_abbrev:0000000000000000 .Ldebug_abbrev0
     /tmp/ccCcFigu.s:6336   .debug_str:0000000000000462 .LASF84
     /tmp/ccCcFigu.s:6296   .debug_str:0000000000000356 .LASF85
     /tmp/ccCcFigu.s:6308   .debug_str:0000000000000395 .LASF86
     /tmp/ccCcFigu.s:5      .text:0000000000000000 .Ltext0
     /tmp/ccCcFigu.s:1622   .text:0000000000000bc4 .Letext0
     /tmp/ccCcFigu.s:6178   .debug_line:0000000000000000 .Ldebug_line0
     /tmp/ccCcFigu.s:6282   .debug_str:00000000000002cd .LASF0
     /tmp/ccCcFigu.s:6292   .debug_str:0000000000000330 .LASF1
     /tmp/ccCcFigu.s:6272   .debug_str:0000000000000293 .LASF2
     /tmp/ccCcFigu.s:6250   .debug_str:000000000000020a .LASF4
     /tmp/ccCcFigu.s:6324   .debug_str:000000000000040f .LASF3
     /tmp/ccCcFigu.s:6194   .debug_str:0000000000000087 .LASF5
     /tmp/ccCcFigu.s:6294   .debug_str:0000000000000343 .LASF6
     /tmp/ccCcFigu.s:6280   .debug_str:00000000000002ba .LASF7
     /tmp/ccCcFigu.s:6346   .debug_str:0000000000000571 .LASF8
     /tmp/ccCcFigu.s:6238   .debug_str:00000000000001ca .LASF9
     /tmp/ccCcFigu.s:6306   .debug_str:0000000000000386 .LASF10
     /tmp/ccCcFigu.s:6340   .debug_str:0000000000000537 .LASF11
     /tmp/ccCcFigu.s:6196   .debug_str:000000000000008e .LASF12
     /tmp/ccCcFigu.s:6188   .debug_str:000000000000004e .LASF13
     /tmp/ccCcFigu.s:6202   .debug_str:00000000000000c6 .LASF14
     /tmp/ccCcFigu.s:6320   .debug_str:00000000000003e9 .LASF15
     /tmp/ccCcFigu.s:6212   .debug_str:0000000000000105 .LASF16
     /tmp/ccCcFigu.s:6180   .debug_str:0000000000000000 .LASF17
     /tmp/ccCcFigu.s:6274   .debug_str:00000000000002a1 .LASF34
     /tmp/ccCcFigu.s:6236   .debug_str:00000000000001b7 .LASF87
     /tmp/ccCcFigu.s:6332   .debug_str:0000000000000454 .LASF21
     /tmp/ccCcFigu.s:6242   .debug_str:00000000000001dd .LASF18
     /tmp/ccCcFigu.s:6334   .debug_str:000000000000045d .LASF19
     /tmp/ccCcFigu.s:6354   .debug_str:00000000000005a2 .LASF20
     /tmp/ccCcFigu.s:6184   .debug_str:0000000000000010 .LASF23
     /tmp/ccCcFigu.s:6278   .debug_str:00000000000002b0 .LASF25
     /tmp/ccCcFigu.s:6248   .debug_str:0000000000000200 .LASF22
     /tmp/ccCcFigu.s:6268   .debug_str:0000000000000260 .LASF24
     /tmp/ccCcFigu.s:6226   .debug_str:0000000000000170 .LASF26
     /tmp/ccCcFigu.s:6352   .debug_str:0000000000000599 .LASF27
     /tmp/ccCcFigu.s:6200   .debug_str:00000000000000ae .LASF29
GAS LISTING /tmp/ccCcFigu.s 			page 57


     /tmp/ccCcFigu.s:6300   .debug_str:0000000000000367 .LASF28
     /tmp/ccCcFigu.s:6244   .debug_str:00000000000001e3 .LASF30
     /tmp/ccCcFigu.s:6344   .debug_str:0000000000000560 .LASF31
     /tmp/ccCcFigu.s:6186   .debug_str:000000000000002d .LASF32
     /tmp/ccCcFigu.s:6356   .debug_str:00000000000005a7 .LASF88
     /tmp/ccCcFigu.s:6358   .debug_str:00000000000005ba .LASF89
     /tmp/ccCcFigu.s:6266   .debug_str:0000000000000252 .LASF33
     /tmp/ccCcFigu.s:6290   .debug_str:000000000000031f .LASF35
     /tmp/ccCcFigu.s:6298   .debug_str:0000000000000362 .LASF36
     /tmp/ccCcFigu.s:6228   .debug_str:000000000000017b .LASF37
     /tmp/ccCcFigu.s:6224   .debug_str:000000000000015c .LASF38
     /tmp/ccCcFigu.s:6328   .debug_str:000000000000042b .LASF39
     /tmp/ccCcFigu.s:1097   .text:00000000000007d8 .LFB17
     /tmp/ccCcFigu.s:1448   .text:0000000000000a7c .LFE17
     /tmp/ccCcFigu.s:4918   .debug_loc:0000000000000000 .LLST41
     /tmp/ccCcFigu.s:6252   .debug_str:0000000000000211 .LASF40
     /tmp/ccCcFigu.s:4933   .debug_loc:0000000000000049 .LLST42
     /tmp/ccCcFigu.s:4948   .debug_loc:0000000000000092 .LLST43
     /tmp/ccCcFigu.s:1134   .text:0000000000000820 .LBB88
     /tmp/ccCcFigu.s:1161   .text:0000000000000850 .LBE88
     /tmp/ccCcFigu.s:4967   .debug_loc:00000000000000ee .LLST44
     /tmp/ccCcFigu.s:1149   .text:0000000000000840 .LVL173
     /tmp/ccCcFigu.s:6048   .debug_ranges:0000000000000000 .Ldebug_ranges0
     /tmp/ccCcFigu.s:4997   .debug_loc:0000000000000164 .LLST45
     /tmp/ccCcFigu.s:5008   .debug_loc:000000000000019a .LLST49
     /tmp/ccCcFigu.s:1219   .text:00000000000008a8 .LBB95
     /tmp/ccCcFigu.s:5023   .debug_loc:00000000000001e3 .LLST50
     /tmp/ccCcFigu.s:5038   .debug_loc:000000000000021d .LLST51
     /tmp/ccCcFigu.s:5053   .debug_loc:0000000000000265 .LLST52
     /tmp/ccCcFigu.s:1280   .text:0000000000000920 .LVL195
     /tmp/ccCcFigu.s:1285   .text:0000000000000930 .LVL196
     /tmp/ccCcFigu.s:1290   .text:0000000000000940 .LVL197
     /tmp/ccCcFigu.s:1295   .text:000000000000094c .LVL198
     /tmp/ccCcFigu.s:1300   .text:000000000000095c .LVL199
     /tmp/ccCcFigu.s:1304   .text:0000000000000964 .LVL200
     /tmp/ccCcFigu.s:1308   .text:000000000000096c .LVL201
     /tmp/ccCcFigu.s:1217   .text:00000000000008a8 .LVL183
     /tmp/ccCcFigu.s:1196   .text:0000000000000884 .LBB91
     /tmp/ccCcFigu.s:5072   .debug_loc:00000000000002a3 .LLST46
     /tmp/ccCcFigu.s:5087   .debug_loc:00000000000002dd .LLST47
     /tmp/ccCcFigu.s:5102   .debug_loc:0000000000000325 .LLST48
     /tmp/ccCcFigu.s:1240   .text:00000000000008c4 .LVL187
     /tmp/ccCcFigu.s:1245   .text:00000000000008d4 .LVL188
     /tmp/ccCcFigu.s:1250   .text:00000000000008e4 .LVL189
     /tmp/ccCcFigu.s:1255   .text:00000000000008f0 .LVL190
     /tmp/ccCcFigu.s:1260   .text:0000000000000900 .LVL191
     /tmp/ccCcFigu.s:1264   .text:0000000000000908 .LVL192
     /tmp/ccCcFigu.s:1268   .text:0000000000000910 .LVL193
     /tmp/ccCcFigu.s:1319   .text:0000000000000978 .LBB101
     /tmp/ccCcFigu.s:5127   .debug_loc:0000000000000369 .LLST53
     /tmp/ccCcFigu.s:5142   .debug_loc:00000000000003a3 .LLST54
     /tmp/ccCcFigu.s:5157   .debug_loc:00000000000003eb .LLST55
     /tmp/ccCcFigu.s:1377   .text:00000000000009d4 .LVL213
     /tmp/ccCcFigu.s:1382   .text:00000000000009e4 .LVL214
     /tmp/ccCcFigu.s:1387   .text:00000000000009f4 .LVL215
     /tmp/ccCcFigu.s:1392   .text:0000000000000a00 .LVL216
     /tmp/ccCcFigu.s:1397   .text:0000000000000a10 .LVL217
GAS LISTING /tmp/ccCcFigu.s 			page 58


     /tmp/ccCcFigu.s:1401   .text:0000000000000a18 .LVL218
     /tmp/ccCcFigu.s:1405   .text:0000000000000a20 .LVL219
     /tmp/ccCcFigu.s:1332   .text:000000000000098c .LBB104
     /tmp/ccCcFigu.s:5176   .debug_loc:0000000000000429 .LLST56
     /tmp/ccCcFigu.s:5191   .debug_loc:0000000000000463 .LLST57
     /tmp/ccCcFigu.s:5206   .debug_loc:00000000000004ab .LLST58
     /tmp/ccCcFigu.s:1416   .text:0000000000000a30 .LVL221
     /tmp/ccCcFigu.s:1421   .text:0000000000000a40 .LVL222
     /tmp/ccCcFigu.s:1426   .text:0000000000000a50 .LVL223
     /tmp/ccCcFigu.s:1431   .text:0000000000000a5c .LVL224
     /tmp/ccCcFigu.s:1436   .text:0000000000000a6c .LVL225
     /tmp/ccCcFigu.s:1440   .text:0000000000000a74 .LVL226
     /tmp/ccCcFigu.s:1444   .text:0000000000000a7c .LVL227
     /tmp/ccCcFigu.s:1118   .text:0000000000000804 .LVL168
     /tmp/ccCcFigu.s:1122   .text:000000000000080c .LVL169
     /tmp/ccCcFigu.s:1130   .text:000000000000081c .LVL170
     /tmp/ccCcFigu.s:1317   .text:0000000000000978 .LVL202
     /tmp/ccCcFigu.s:1329   .text:0000000000000984 .LVL204
     /tmp/ccCcFigu.s:1331   .text:000000000000098c .LVL205
     /tmp/ccCcFigu.s:1344   .text:00000000000009a0 .LVL207
     /tmp/ccCcFigu.s:1348   .text:00000000000009a8 .LVL208
     /tmp/ccCcFigu.s:6322   .debug_str:00000000000003ff .LASF41
     /tmp/ccCcFigu.s:6270   .debug_str:000000000000027e .LASF42
     /tmp/ccCcFigu.s:772    .text:0000000000000578 .LFB16
     /tmp/ccCcFigu.s:1083   .text:00000000000007d8 .LFE16
     /tmp/ccCcFigu.s:5225   .debug_loc:00000000000004e9 .LLST27
     /tmp/ccCcFigu.s:5257   .debug_loc:0000000000000570 .LLST28
     /tmp/ccCcFigu.s:5289   .debug_loc:00000000000005f7 .LLST29
     /tmp/ccCcFigu.s:6182   .debug_str:0000000000000009 .LASF43
     /tmp/ccCcFigu.s:5309   .debug_loc:0000000000000654 .LLST30
     /tmp/ccCcFigu.s:6216   .debug_str:0000000000000129 .LASF44
     /tmp/ccCcFigu.s:5320   .debug_loc:000000000000068a .LLST31
     /tmp/ccCcFigu.s:851    .text:00000000000005fc .LBB64
     /tmp/ccCcFigu.s:5339   .debug_loc:00000000000006e6 .LLST32
     /tmp/ccCcFigu.s:5354   .debug_loc:0000000000000720 .LLST33
     /tmp/ccCcFigu.s:5369   .debug_loc:0000000000000768 .LLST34
     /tmp/ccCcFigu.s:958    .text:00000000000006d8 .LVL144
     /tmp/ccCcFigu.s:963    .text:00000000000006e8 .LVL145
     /tmp/ccCcFigu.s:968    .text:00000000000006f8 .LVL146
     /tmp/ccCcFigu.s:973    .text:0000000000000704 .LVL147
     /tmp/ccCcFigu.s:978    .text:0000000000000714 .LVL148
     /tmp/ccCcFigu.s:982    .text:000000000000071c .LVL149
     /tmp/ccCcFigu.s:986    .text:0000000000000724 .LVL150
     /tmp/ccCcFigu.s:912    .text:000000000000066c .LBB67
     /tmp/ccCcFigu.s:950    .text:00000000000006c8 .LBE67
     /tmp/ccCcFigu.s:5394   .debug_loc:00000000000007ac .LLST35
     /tmp/ccCcFigu.s:5403   .debug_loc:00000000000007d1 .LLST36
     /tmp/ccCcFigu.s:5412   .debug_loc:00000000000007fd .LLST37
     /tmp/ccCcFigu.s:919    .text:000000000000067c .LVL136
     /tmp/ccCcFigu.s:924    .text:000000000000068c .LVL137
     /tmp/ccCcFigu.s:929    .text:000000000000069c .LVL138
     /tmp/ccCcFigu.s:934    .text:00000000000006a8 .LVL139
     /tmp/ccCcFigu.s:939    .text:00000000000006b8 .LVL140
     /tmp/ccCcFigu.s:943    .text:00000000000006c0 .LVL141
     /tmp/ccCcFigu.s:947    .text:00000000000006c8 .LVL142
     /tmp/ccCcFigu.s:836    .text:00000000000005e4 .LVL117
     /tmp/ccCcFigu.s:844    .text:00000000000005f4 .LVL120
GAS LISTING /tmp/ccCcFigu.s 			page 59


     /tmp/ccCcFigu.s:881    .text:0000000000000620 .LVL129
     /tmp/ccCcFigu.s:886    .text:000000000000062c .LVL130
     /tmp/ccCcFigu.s:891    .text:000000000000063c .LVL131
     /tmp/ccCcFigu.s:896    .text:0000000000000648 .LVL132
     /tmp/ccCcFigu.s:901    .text:0000000000000658 .LVL133
     /tmp/ccCcFigu.s:906    .text:0000000000000664 .LVL134
     /tmp/ccCcFigu.s:910    .text:000000000000066c .LVL135
     /tmp/ccCcFigu.s:997    .text:0000000000000734 .LBB73
     /tmp/ccCcFigu.s:5420   .debug_loc:0000000000000821 .LLST38
     /tmp/ccCcFigu.s:5435   .debug_loc:000000000000085b .LLST39
     /tmp/ccCcFigu.s:5450   .debug_loc:00000000000008a3 .LLST40
     /tmp/ccCcFigu.s:1051   .text:000000000000078c .LVL161
     /tmp/ccCcFigu.s:1056   .text:000000000000079c .LVL162
     /tmp/ccCcFigu.s:1061   .text:00000000000007ac .LVL163
     /tmp/ccCcFigu.s:1066   .text:00000000000007b8 .LVL164
     /tmp/ccCcFigu.s:1071   .text:00000000000007c8 .LVL165
     /tmp/ccCcFigu.s:1075   .text:00000000000007d0 .LVL166
     /tmp/ccCcFigu.s:1079   .text:00000000000007d8 .LVL167
     /tmp/ccCcFigu.s:801    .text:00000000000005b4 .LVL112
     /tmp/ccCcFigu.s:805    .text:00000000000005bc .LVL113
     /tmp/ccCcFigu.s:994    .text:000000000000072c .LVL151
     /tmp/ccCcFigu.s:996    .text:0000000000000734 .LVL152
     /tmp/ccCcFigu.s:1009   .text:0000000000000748 .LVL154
     /tmp/ccCcFigu.s:1013   .text:0000000000000750 .LVL155
     /tmp/ccCcFigu.s:6312   .debug_str:00000000000003b9 .LASF90
     /tmp/ccCcFigu.s:326    .text:0000000000000268 .LFB15
     /tmp/ccCcFigu.s:383    .text:00000000000002d0 .LFE15
     /tmp/ccCcFigu.s:5469   .debug_loc:00000000000008e1 .LLST10
     /tmp/ccCcFigu.s:372    .text:00000000000002b8 .LVL51
     /tmp/ccCcFigu.s:377    .text:00000000000002c8 .LVL52
     /tmp/ccCcFigu.s:6338   .debug_str:0000000000000526 .LASF45
     /tmp/ccCcFigu.s:6342   .debug_str:0000000000000546 .LASF46
     /tmp/ccCcFigu.s:266    .text:00000000000001fc .LFB14
     /tmp/ccCcFigu.s:320    .text:0000000000000268 .LFE14
     /tmp/ccCcFigu.s:5494   .debug_loc:0000000000000943 .LLST9
     /tmp/ccCcFigu.s:280    .text:000000000000020c .LBB22
     /tmp/ccCcFigu.s:318    .text:0000000000000268 .LBE22
     /tmp/ccCcFigu.s:288    .text:000000000000021c .LVL41
     /tmp/ccCcFigu.s:293    .text:000000000000022c .LVL42
     /tmp/ccCcFigu.s:298    .text:000000000000023c .LVL43
     /tmp/ccCcFigu.s:303    .text:0000000000000248 .LVL44
     /tmp/ccCcFigu.s:308    .text:0000000000000258 .LVL45
     /tmp/ccCcFigu.s:312    .text:0000000000000260 .LVL46
     /tmp/ccCcFigu.s:316    .text:0000000000000268 .LVL47
     /tmp/ccCcFigu.s:6234   .debug_str:00000000000001ae .LASF47
     /tmp/ccCcFigu.s:577    .text:0000000000000424 .LFB13
     /tmp/ccCcFigu.s:749    .text:0000000000000578 .LFE13
     /tmp/ccCcFigu.s:5508   .debug_loc:000000000000097c .LLST19
     /tmp/ccCcFigu.s:5533   .debug_loc:00000000000009de .LLST23
     /tmp/ccCcFigu.s:630    .text:000000000000048c .LBB48
     /tmp/ccCcFigu.s:5544   .debug_loc:0000000000000a14 .LLST24
     /tmp/ccCcFigu.s:5559   .debug_loc:0000000000000a4e .LLST25
     /tmp/ccCcFigu.s:5574   .debug_loc:0000000000000a96 .LLST26
     /tmp/ccCcFigu.s:701    .text:0000000000000514 .LVL104
     /tmp/ccCcFigu.s:706    .text:0000000000000524 .LVL105
     /tmp/ccCcFigu.s:711    .text:0000000000000534 .LVL106
     /tmp/ccCcFigu.s:716    .text:0000000000000540 .LVL107
GAS LISTING /tmp/ccCcFigu.s 			page 60


     /tmp/ccCcFigu.s:721    .text:0000000000000550 .LVL108
     /tmp/ccCcFigu.s:725    .text:0000000000000558 .LVL109
     /tmp/ccCcFigu.s:729    .text:0000000000000560 .LVL110
     /tmp/ccCcFigu.s:612    .text:000000000000045c .LVL86
     /tmp/ccCcFigu.s:617    .text:0000000000000468 .LVL87
     /tmp/ccCcFigu.s:621    .text:0000000000000470 .LVL88
     /tmp/ccCcFigu.s:625    .text:000000000000047c .LVL89
     /tmp/ccCcFigu.s:629    .text:000000000000048c .LVL90
     /tmp/ccCcFigu.s:641    .text:0000000000000498 .LVL92
     /tmp/ccCcFigu.s:597    .text:0000000000000444 .LBB44
     /tmp/ccCcFigu.s:5599   .debug_loc:0000000000000ada .LLST20
     /tmp/ccCcFigu.s:5614   .debug_loc:0000000000000b14 .LLST21
     /tmp/ccCcFigu.s:5629   .debug_loc:0000000000000b5c .LLST22
     /tmp/ccCcFigu.s:661    .text:00000000000004b8 .LVL96
     /tmp/ccCcFigu.s:666    .text:00000000000004c8 .LVL97
     /tmp/ccCcFigu.s:671    .text:00000000000004d8 .LVL98
     /tmp/ccCcFigu.s:676    .text:00000000000004e4 .LVL99
     /tmp/ccCcFigu.s:681    .text:00000000000004f4 .LVL100
     /tmp/ccCcFigu.s:685    .text:00000000000004fc .LVL101
     /tmp/ccCcFigu.s:689    .text:0000000000000504 .LVL102
     /tmp/ccCcFigu.s:6222   .debug_str:0000000000000153 .LASF48
     /tmp/ccCcFigu.s:394    .text:00000000000002d0 .LFB12
     /tmp/ccCcFigu.s:566    .text:0000000000000424 .LFE12
     /tmp/ccCcFigu.s:5648   .debug_loc:0000000000000b9a .LLST11
     /tmp/ccCcFigu.s:5673   .debug_loc:0000000000000bfc .LLST15
     /tmp/ccCcFigu.s:447    .text:0000000000000338 .LBB33
     /tmp/ccCcFigu.s:5684   .debug_loc:0000000000000c32 .LLST16
     /tmp/ccCcFigu.s:5699   .debug_loc:0000000000000c6c .LLST17
     /tmp/ccCcFigu.s:5714   .debug_loc:0000000000000cb4 .LLST18
     /tmp/ccCcFigu.s:518    .text:00000000000003c0 .LVL75
     /tmp/ccCcFigu.s:523    .text:00000000000003d0 .LVL76
     /tmp/ccCcFigu.s:528    .text:00000000000003e0 .LVL77
     /tmp/ccCcFigu.s:533    .text:00000000000003ec .LVL78
     /tmp/ccCcFigu.s:538    .text:00000000000003fc .LVL79
     /tmp/ccCcFigu.s:542    .text:0000000000000404 .LVL80
     /tmp/ccCcFigu.s:546    .text:000000000000040c .LVL81
     /tmp/ccCcFigu.s:429    .text:0000000000000308 .LVL57
     /tmp/ccCcFigu.s:434    .text:0000000000000314 .LVL58
     /tmp/ccCcFigu.s:438    .text:000000000000031c .LVL59
     /tmp/ccCcFigu.s:442    .text:0000000000000328 .LVL60
     /tmp/ccCcFigu.s:446    .text:0000000000000338 .LVL61
     /tmp/ccCcFigu.s:461    .text:000000000000034c .LVL63
     /tmp/ccCcFigu.s:414    .text:00000000000002f0 .LBB29
     /tmp/ccCcFigu.s:5739   .debug_loc:0000000000000cf8 .LLST12
     /tmp/ccCcFigu.s:5754   .debug_loc:0000000000000d32 .LLST13
     /tmp/ccCcFigu.s:5769   .debug_loc:0000000000000d7a .LLST14
     /tmp/ccCcFigu.s:478    .text:0000000000000364 .LVL67
     /tmp/ccCcFigu.s:483    .text:0000000000000374 .LVL68
     /tmp/ccCcFigu.s:488    .text:0000000000000384 .LVL69
     /tmp/ccCcFigu.s:493    .text:0000000000000390 .LVL70
     /tmp/ccCcFigu.s:498    .text:00000000000003a0 .LVL71
     /tmp/ccCcFigu.s:502    .text:00000000000003a8 .LVL72
     /tmp/ccCcFigu.s:506    .text:00000000000003b0 .LVL73
     /tmp/ccCcFigu.s:6348   .debug_str:0000000000000581 .LASF49
     /tmp/ccCcFigu.s:6316   .debug_str:00000000000003cf .LASF50
     /tmp/ccCcFigu.s:27     .text:0000000000000000 .LFB11
     /tmp/ccCcFigu.s:260    .text:00000000000001fc .LFE11
GAS LISTING /tmp/ccCcFigu.s 			page 61


     /tmp/ccCcFigu.s:6246   .debug_str:00000000000001fb .LASF51
     /tmp/ccCcFigu.s:6240   .debug_str:00000000000001d8 .LASF52
     /tmp/ccCcFigu.s:48     .text:0000000000000028 .LBB8
     /tmp/ccCcFigu.s:5788   .debug_loc:0000000000000db8 .LLST0
     /tmp/ccCcFigu.s:5803   .debug_loc:0000000000000df2 .LLST1
     /tmp/ccCcFigu.s:5818   .debug_loc:0000000000000e3a .LLST2
     /tmp/ccCcFigu.s:151    .text:00000000000000f8 .LVL16
     /tmp/ccCcFigu.s:156    .text:0000000000000108 .LVL17
     /tmp/ccCcFigu.s:161    .text:0000000000000118 .LVL18
     /tmp/ccCcFigu.s:166    .text:0000000000000124 .LVL19
     /tmp/ccCcFigu.s:171    .text:0000000000000134 .LVL20
     /tmp/ccCcFigu.s:175    .text:000000000000013c .LVL21
     /tmp/ccCcFigu.s:179    .text:0000000000000144 .LVL22
     /tmp/ccCcFigu.s:106    .text:00000000000000b8 .LBB11
     /tmp/ccCcFigu.s:5837   .debug_loc:0000000000000e78 .LLST3
     /tmp/ccCcFigu.s:5852   .debug_loc:0000000000000eb2 .LLST4
     /tmp/ccCcFigu.s:5867   .debug_loc:0000000000000efa .LLST5
     /tmp/ccCcFigu.s:189    .text:0000000000000154 .LVL23
     /tmp/ccCcFigu.s:194    .text:0000000000000164 .LVL24
     /tmp/ccCcFigu.s:199    .text:0000000000000174 .LVL25
     /tmp/ccCcFigu.s:204    .text:0000000000000180 .LVL26
     /tmp/ccCcFigu.s:209    .text:0000000000000190 .LVL27
     /tmp/ccCcFigu.s:213    .text:0000000000000198 .LVL28
     /tmp/ccCcFigu.s:217    .text:00000000000001a0 .LVL29
     /tmp/ccCcFigu.s:119    .text:00000000000000cc .LBB14
     /tmp/ccCcFigu.s:5892   .debug_loc:0000000000000f3e .LLST6
     /tmp/ccCcFigu.s:5907   .debug_loc:0000000000000f78 .LLST7
     /tmp/ccCcFigu.s:5922   .debug_loc:0000000000000fc0 .LLST8
     /tmp/ccCcFigu.s:228    .text:00000000000001b0 .LVL31
     /tmp/ccCcFigu.s:233    .text:00000000000001c0 .LVL32
     /tmp/ccCcFigu.s:238    .text:00000000000001d0 .LVL33
     /tmp/ccCcFigu.s:243    .text:00000000000001dc .LVL34
     /tmp/ccCcFigu.s:248    .text:00000000000001ec .LVL35
     /tmp/ccCcFigu.s:252    .text:00000000000001f4 .LVL36
     /tmp/ccCcFigu.s:256    .text:00000000000001fc .LVL37
     /tmp/ccCcFigu.s:42     .text:0000000000000018 .LVL0
     /tmp/ccCcFigu.s:45     .text:0000000000000020 .LVL1
     /tmp/ccCcFigu.s:47     .text:0000000000000028 .LVL2
     /tmp/ccCcFigu.s:61     .text:000000000000003c .LVL4
     /tmp/ccCcFigu.s:80     .text:0000000000000064 .LVL5
     /tmp/ccCcFigu.s:87     .text:000000000000007c .LVL6
     /tmp/ccCcFigu.s:91     .text:0000000000000084 .LVL7
     /tmp/ccCcFigu.s:116    .text:00000000000000c4 .LVL10
     /tmp/ccCcFigu.s:118    .text:00000000000000cc .LVL11
     /tmp/ccCcFigu.s:130    .text:00000000000000d8 .LVL13
     /tmp/ccCcFigu.s:6304   .debug_str:000000000000037d .LASF53
     /tmp/ccCcFigu.s:6258   .debug_str:000000000000022e .LASF54
     /tmp/ccCcFigu.s:1462   .text:0000000000000a7c .LFB10
     /tmp/ccCcFigu.s:1620   .text:0000000000000bc4 .LFE10
     /tmp/ccCcFigu.s:1487   .text:0000000000000ab4 .LBB113
     /tmp/ccCcFigu.s:5941   .debug_loc:0000000000000ffe .LLST59
     /tmp/ccCcFigu.s:5954   .debug_loc:0000000000001036 .LLST60
     /tmp/ccCcFigu.s:5969   .debug_loc:000000000000107e .LLST61
     /tmp/ccCcFigu.s:1549   .text:0000000000000b1c .LVL243
     /tmp/ccCcFigu.s:1554   .text:0000000000000b2c .LVL244
     /tmp/ccCcFigu.s:1559   .text:0000000000000b3c .LVL245
     /tmp/ccCcFigu.s:1564   .text:0000000000000b48 .LVL246
GAS LISTING /tmp/ccCcFigu.s 			page 62


     /tmp/ccCcFigu.s:1569   .text:0000000000000b58 .LVL247
     /tmp/ccCcFigu.s:1573   .text:0000000000000b60 .LVL248
     /tmp/ccCcFigu.s:1577   .text:0000000000000b68 .LVL249
     /tmp/ccCcFigu.s:1512   .text:0000000000000ae0 .LBB116
     /tmp/ccCcFigu.s:5988   .debug_loc:00000000000010bc .LLST62
     /tmp/ccCcFigu.s:6001   .debug_loc:00000000000010f4 .LLST63
     /tmp/ccCcFigu.s:6016   .debug_loc:000000000000113c .LLST64
     /tmp/ccCcFigu.s:1588   .text:0000000000000b78 .LVL251
     /tmp/ccCcFigu.s:1593   .text:0000000000000b88 .LVL252
     /tmp/ccCcFigu.s:1598   .text:0000000000000b98 .LVL253
     /tmp/ccCcFigu.s:1603   .text:0000000000000ba4 .LVL254
     /tmp/ccCcFigu.s:1608   .text:0000000000000bb4 .LVL255
     /tmp/ccCcFigu.s:1612   .text:0000000000000bbc .LVL256
     /tmp/ccCcFigu.s:1616   .text:0000000000000bc4 .LVL257
     /tmp/ccCcFigu.s:1477   .text:0000000000000a9c .LVL228
     /tmp/ccCcFigu.s:1481   .text:0000000000000aa4 .LVL229
     /tmp/ccCcFigu.s:1484   .text:0000000000000aac .LVL230
     /tmp/ccCcFigu.s:1486   .text:0000000000000ab4 .LVL231
     /tmp/ccCcFigu.s:1498   .text:0000000000000ac0 .LVL233
     /tmp/ccCcFigu.s:1502   .text:0000000000000ac8 .LVL234
     /tmp/ccCcFigu.s:1506   .text:0000000000000ad0 .LVL235
     /tmp/ccCcFigu.s:1509   .text:0000000000000ad8 .LVL236
     /tmp/ccCcFigu.s:1511   .text:0000000000000ae0 .LVL237
     /tmp/ccCcFigu.s:1524   .text:0000000000000af4 .LVL239
     /tmp/ccCcFigu.s:1528   .text:0000000000000afc .LVL240
     /tmp/ccCcFigu.s:6318   .debug_str:00000000000003e1 .LASF55
     /tmp/ccCcFigu.s:6210   .debug_str:00000000000000f5 .LASF56
     /tmp/ccCcFigu.s:6276   .debug_str:00000000000002aa .LASF57
     /tmp/ccCcFigu.s:6206   .debug_str:00000000000000e2 .LASF58
     /tmp/ccCcFigu.s:6260   .debug_str:000000000000023b .LASF59
     /tmp/ccCcFigu.s:6208   .debug_str:00000000000000e7 .LASF60
     /tmp/ccCcFigu.s:6326   .debug_str:0000000000000421 .LASF62
     /tmp/ccCcFigu.s:6198   .debug_str:000000000000009e .LASF61
     /tmp/ccCcFigu.s:6190   .debug_str:000000000000005e .LASF63
     /tmp/ccCcFigu.s:6254   .debug_str:0000000000000218 .LASF64
     /tmp/ccCcFigu.s:6360   .debug_str:00000000000005dd .LASF65
     /tmp/ccCcFigu.s:6330   .debug_str:0000000000000444 .LASF66
     /tmp/ccCcFigu.s:6256   .debug_str:0000000000000223 .LASF67
     /tmp/ccCcFigu.s:6310   .debug_str:00000000000003a9 .LASF68
     /tmp/ccCcFigu.s:6264   .debug_str:0000000000000247 .LASF69
     /tmp/ccCcFigu.s:6302   .debug_str:000000000000036f .LASF70
     /tmp/ccCcFigu.s:6220   .debug_str:000000000000014a .LASF71
     /tmp/ccCcFigu.s:6314   .debug_str:00000000000003c1 .LASF72
     /tmp/ccCcFigu.s:6288   .debug_str:0000000000000315 .LASF73
     /tmp/ccCcFigu.s:6350   .debug_str:000000000000058e .LASF74
     /tmp/ccCcFigu.s:6262   .debug_str:0000000000000240 .LASF75
     /tmp/ccCcFigu.s:6230   .debug_str:0000000000000180 .LASF76
     /tmp/ccCcFigu.s:6204   .debug_str:00000000000000d2 .LASF77
     /tmp/ccCcFigu.s:6192   .debug_str:0000000000000068 .LASF78
     /tmp/ccCcFigu.s:6218   .debug_str:0000000000000130 .LASF79
     /tmp/ccCcFigu.s:6286   .debug_str:00000000000002f8 .LASF80
     /tmp/ccCcFigu.s:6214   .debug_str:000000000000011b .LASF81
     /tmp/ccCcFigu.s:6284   .debug_str:00000000000002da .LASF82
     /tmp/ccCcFigu.s:6232   .debug_str:0000000000000195 .LASF83
     /tmp/ccCcFigu.s:1132   .text:0000000000000820 .LVL171
     /tmp/ccCcFigu.s:1137   .text:0000000000000824 .LVL172
     /tmp/ccCcFigu.s:1363   .text:00000000000009bc .LVL210
GAS LISTING /tmp/ccCcFigu.s 			page 63


     /tmp/ccCcFigu.s:1367   .text:00000000000009c4 .LVL211
     /tmp/ccCcFigu.s:1169   .text:0000000000000858 .LVL176
     /tmp/ccCcFigu.s:1183   .text:0000000000000874 .LVL177
     /tmp/ccCcFigu.s:1188   .text:000000000000087c .LVL179
     /tmp/ccCcFigu.s:1205   .text:000000000000088c .LVL182
     /tmp/ccCcFigu.s:1231   .text:00000000000008b4 .LVL186
     /tmp/ccCcFigu.s:1278   .text:0000000000000918 .LVL194
     /tmp/ccCcFigu.s:1375   .text:00000000000009cc .LVL212
     /tmp/ccCcFigu.s:1157   .text:000000000000084c .LVL174
     /tmp/ccCcFigu.s:1159   .text:0000000000000850 .LVL175
     /tmp/ccCcFigu.s:1186   .text:0000000000000878 .LVL178
     /tmp/ccCcFigu.s:1193   .text:0000000000000880 .LVL180
     /tmp/ccCcFigu.s:1229   .text:00000000000008b0 .LVL185
     /tmp/ccCcFigu.s:1358   .text:00000000000009b4 .LVL209
     /tmp/ccCcFigu.s:1224   .text:00000000000008ac .LVL184
     /tmp/ccCcFigu.s:1195   .text:0000000000000884 .LVL181
     /tmp/ccCcFigu.s:1324   .text:000000000000097c .LVL203
     /tmp/ccCcFigu.s:1337   .text:0000000000000990 .LVL206
     /tmp/ccCcFigu.s:1414   .text:0000000000000a28 .LVL220
     /tmp/ccCcFigu.s:817    .text:00000000000005c8 .LVL114
     /tmp/ccCcFigu.s:827    .text:00000000000005d4 .LVL115
     /tmp/ccCcFigu.s:869    .text:000000000000060c .LVL126
     /tmp/ccCcFigu.s:873    .text:0000000000000610 .LVL127
     /tmp/ccCcFigu.s:1030   .text:0000000000000768 .LVL157
     /tmp/ccCcFigu.s:1041   .text:000000000000077c .LVL159
     /tmp/ccCcFigu.s:831    .text:00000000000005d8 .LVL116
     /tmp/ccCcFigu.s:866    .text:0000000000000608 .LVL125
     /tmp/ccCcFigu.s:1033   .text:000000000000076c .LVL158
     /tmp/ccCcFigu.s:862    .text:0000000000000604 .LVL124
     /tmp/ccCcFigu.s:1023   .text:000000000000075c .LVL156
     /tmp/ccCcFigu.s:838    .text:00000000000005e8 .LVL118
     /tmp/ccCcFigu.s:842    .text:00000000000005ec .LVL119
     /tmp/ccCcFigu.s:846    .text:00000000000005f8 .LVL121
     /tmp/ccCcFigu.s:879    .text:0000000000000618 .LVL128
     /tmp/ccCcFigu.s:956    .text:00000000000006d0 .LVL143
     /tmp/ccCcFigu.s:850    .text:00000000000005fc .LVL122
     /tmp/ccCcFigu.s:856    .text:0000000000000600 .LVL123
     /tmp/ccCcFigu.s:1002   .text:0000000000000738 .LVL153
     /tmp/ccCcFigu.s:1049   .text:0000000000000784 .LVL160
     /tmp/ccCcFigu.s:329    .text:0000000000000268 .LVL48
     /tmp/ccCcFigu.s:348    .text:0000000000000290 .LVL49
     /tmp/ccCcFigu.s:365    .text:00000000000002ac .LVL50
     /tmp/ccCcFigu.s:380    .text:00000000000002cc .LVL53
     /tmp/ccCcFigu.s:269    .text:00000000000001fc .LVL38
     /tmp/ccCcFigu.s:286    .text:0000000000000214 .LVL40
     /tmp/ccCcFigu.s:580    .text:0000000000000424 .LVL83
     /tmp/ccCcFigu.s:606    .text:000000000000044c .LVL85
     /tmp/ccCcFigu.s:651    .text:00000000000004a8 .LVL94
     /tmp/ccCcFigu.s:659    .text:00000000000004b0 .LVL95
     /tmp/ccCcFigu.s:647    .text:00000000000004a4 .LVL93
     /tmp/ccCcFigu.s:742    .text:000000000000056c .LVL111
     /tmp/ccCcFigu.s:635    .text:0000000000000490 .LVL91
     /tmp/ccCcFigu.s:699    .text:000000000000050c .LVL103
     /tmp/ccCcFigu.s:596    .text:0000000000000444 .LVL84
     /tmp/ccCcFigu.s:397    .text:00000000000002d0 .LVL54
     /tmp/ccCcFigu.s:423    .text:00000000000002f8 .LVL56
     /tmp/ccCcFigu.s:468    .text:0000000000000354 .LVL65
GAS LISTING /tmp/ccCcFigu.s 			page 64


     /tmp/ccCcFigu.s:476    .text:000000000000035c .LVL66
     /tmp/ccCcFigu.s:464    .text:0000000000000350 .LVL64
     /tmp/ccCcFigu.s:559    .text:0000000000000418 .LVL82
     /tmp/ccCcFigu.s:452    .text:000000000000033c .LVL62
     /tmp/ccCcFigu.s:516    .text:00000000000003b8 .LVL74
     /tmp/ccCcFigu.s:413    .text:00000000000002f0 .LVL55
     /tmp/ccCcFigu.s:54     .text:000000000000002c .LVL3
     /tmp/ccCcFigu.s:141    .text:00000000000000e8 .LVL14
     /tmp/ccCcFigu.s:149    .text:00000000000000f0 .LVL15
     /tmp/ccCcFigu.s:105    .text:00000000000000b8 .LVL8
     /tmp/ccCcFigu.s:111    .text:00000000000000bc .LVL9
     /tmp/ccCcFigu.s:124    .text:00000000000000d0 .LVL12
     /tmp/ccCcFigu.s:226    .text:00000000000001a8 .LVL30
     /tmp/ccCcFigu.s:1492   .text:0000000000000ab8 .LVL232
     /tmp/ccCcFigu.s:1539   .text:0000000000000b0c .LVL241
     /tmp/ccCcFigu.s:1547   .text:0000000000000b14 .LVL242
     /tmp/ccCcFigu.s:1517   .text:0000000000000ae4 .LVL238
     /tmp/ccCcFigu.s:1586   .text:0000000000000b70 .LVL250
     /tmp/ccCcFigu.s:1628   .debug_info:0000000000000000 .Ldebug_info0
     /tmp/ccCcFigu.s:56     .text:000000000000002c .LBE8
     /tmp/ccCcFigu.s:144    .text:00000000000000e8 .LBB17
     /tmp/ccCcFigu.s:182    .text:0000000000000144 .LBE17
     /tmp/ccCcFigu.s:113    .text:00000000000000bc .LBE11
     /tmp/ccCcFigu.s:183    .text:0000000000000144 .LBB18
     /tmp/ccCcFigu.s:220    .text:00000000000001a0 .LBE18
     /tmp/ccCcFigu.s:126    .text:00000000000000d0 .LBE14
     /tmp/ccCcFigu.s:221    .text:00000000000001a0 .LBB19
     /tmp/ccCcFigu.s:258    .text:00000000000001fc .LBE19
     /tmp/ccCcFigu.s:419    .text:00000000000002f4 .LBE29
     /tmp/ccCcFigu.s:471    .text:0000000000000354 .LBB37
     /tmp/ccCcFigu.s:509    .text:00000000000003b0 .LBE37
     /tmp/ccCcFigu.s:420    .text:00000000000002f4 .LBB32
     /tmp/ccCcFigu.s:470    .text:0000000000000354 .LBE32
     /tmp/ccCcFigu.s:510    .text:00000000000003b0 .LBB38
     /tmp/ccCcFigu.s:550    .text:000000000000040c .LBE38
     /tmp/ccCcFigu.s:454    .text:000000000000033c .LBE33
     /tmp/ccCcFigu.s:511    .text:00000000000003b0 .LBB36
     /tmp/ccCcFigu.s:549    .text:000000000000040c .LBE36
     /tmp/ccCcFigu.s:602    .text:0000000000000448 .LBE44
     /tmp/ccCcFigu.s:654    .text:00000000000004a8 .LBB52
     /tmp/ccCcFigu.s:692    .text:0000000000000504 .LBE52
     /tmp/ccCcFigu.s:603    .text:0000000000000448 .LBB47
     /tmp/ccCcFigu.s:653    .text:00000000000004a8 .LBE47
     /tmp/ccCcFigu.s:693    .text:0000000000000504 .LBB53
     /tmp/ccCcFigu.s:733    .text:0000000000000560 .LBE53
     /tmp/ccCcFigu.s:637    .text:0000000000000490 .LBE48
     /tmp/ccCcFigu.s:694    .text:0000000000000504 .LBB51
     /tmp/ccCcFigu.s:732    .text:0000000000000560 .LBE51
     /tmp/ccCcFigu.s:809    .text:00000000000005bc .LBB62
     /tmp/ccCcFigu.s:812    .text:00000000000005c0 .LBE62
     /tmp/ccCcFigu.s:819    .text:00000000000005c8 .LBB72
     /tmp/ccCcFigu.s:991    .text:0000000000000724 .LBE72
     /tmp/ccCcFigu.s:823    .text:00000000000005d0 .LBB63
     /tmp/ccCcFigu.s:859    .text:0000000000000600 .LBE63
     /tmp/ccCcFigu.s:863    .text:0000000000000604 .LBB70
     /tmp/ccCcFigu.s:870    .text:000000000000060c .LBE70
     /tmp/ccCcFigu.s:875    .text:0000000000000610 .LBB71
GAS LISTING /tmp/ccCcFigu.s 			page 65


     /tmp/ccCcFigu.s:990    .text:0000000000000724 .LBE71
     /tmp/ccCcFigu.s:858    .text:0000000000000600 .LBE64
     /tmp/ccCcFigu.s:951    .text:00000000000006c8 .LBB69
     /tmp/ccCcFigu.s:989    .text:0000000000000724 .LBE69
     /tmp/ccCcFigu.s:1004   .text:0000000000000738 .LBE73
     /tmp/ccCcFigu.s:1044   .text:000000000000077c .LBB76
     /tmp/ccCcFigu.s:1081   .text:00000000000007d8 .LBE76
     /tmp/ccCcFigu.s:1162   .text:0000000000000850 .LBB89
     /tmp/ccCcFigu.s:1165   .text:0000000000000854 .LBE89
     /tmp/ccCcFigu.s:1170   .text:0000000000000858 .LBB90
     /tmp/ccCcFigu.s:1190   .text:000000000000087c .LBE90
     /tmp/ccCcFigu.s:1201   .text:0000000000000888 .LBE91
     /tmp/ccCcFigu.s:1234   .text:00000000000008b4 .LBB99
     /tmp/ccCcFigu.s:1271   .text:0000000000000910 .LBE99
     /tmp/ccCcFigu.s:1202   .text:0000000000000888 .LBB94
     /tmp/ccCcFigu.s:1233   .text:00000000000008b4 .LBE94
     /tmp/ccCcFigu.s:1272   .text:0000000000000910 .LBB100
     /tmp/ccCcFigu.s:1312   .text:000000000000096c .LBE100
     /tmp/ccCcFigu.s:1226   .text:00000000000008ac .LBE95
     /tmp/ccCcFigu.s:1273   .text:0000000000000910 .LBB98
     /tmp/ccCcFigu.s:1311   .text:000000000000096c .LBE98
     /tmp/ccCcFigu.s:1326   .text:000000000000097c .LBE101
     /tmp/ccCcFigu.s:1370   .text:00000000000009c4 .LBB107
     /tmp/ccCcFigu.s:1408   .text:0000000000000a20 .LBE107
     /tmp/ccCcFigu.s:1339   .text:0000000000000990 .LBE104
     /tmp/ccCcFigu.s:1409   .text:0000000000000a20 .LBB108
     /tmp/ccCcFigu.s:1446   .text:0000000000000a7c .LBE108
     /tmp/ccCcFigu.s:1494   .text:0000000000000ab8 .LBE113
     /tmp/ccCcFigu.s:1542   .text:0000000000000b0c .LBB119
     /tmp/ccCcFigu.s:1580   .text:0000000000000b68 .LBE119
     /tmp/ccCcFigu.s:1519   .text:0000000000000ae4 .LBE116
     /tmp/ccCcFigu.s:1581   .text:0000000000000b68 .LBB120
     /tmp/ccCcFigu.s:1618   .text:0000000000000bc4 .LBE120

UNDEFINED SYMBOLS
_Z25disableExternalInterruptsv
_ZN8MemAlloc3getEv
_ZN8MemAlloc16getUserlandUsageEv
_Z9putStringPKc
_Z13thread_createPmPFvPvES0_
_Z15thread_dispatchv
_ZN6Thread11pAllThreadsE
_Z24enableExternalInterruptsv
_Z6putInti
_Z10putNewlinev
_Z10stopKernelv
_Z6putU64m
_Z9test_callm
_Z9mem_allocm
_Z8mem_freePv
