GAS LISTING /tmp/ccEiJpMx.s 			page 1


   1              		.file	"APP.cpp"
   2              		.option pic
   3              		.option norelax
   4              		.text
   5              	.Ltext0:
   6              		.section	.rodata.str1.8,"aMS",@progbits,1
   7              		.align	3
   8              	.LC0:
   9 0000 3D3D3D20 		.string	"=== Testing \"testSyncCall\""
   9      54657374 
   9      696E6720 
   9      22746573 
   9      7453796E 
  10 001b 00000000 		.align	3
  10      00
  11              	.LC1:
  12 0020 3D3D3D20 		.string	"=== Success in testing \"testSyncCall\""
  12      53756363 
  12      65737320 
  12      696E2074 
  12      65737469 
  13              		.text
  14              		.align	2
  15              		.globl	_Z12testSyncCallv
  17              	_Z12testSyncCallv:
  18              	.LFB11:
  19              		.file 1 "src/APP.cpp"
   1:src/APP.cpp   **** #include "../h/my_console.h"
   2:src/APP.cpp   **** #include "../h/c_api.h"
   3:src/APP.cpp   **** #include "../h/alloc.h"
   4:src/APP.cpp   **** #include "../h/thread.h"
   5:src/APP.cpp   **** 
   6:src/APP.cpp   **** void testSystemCalls();
   7:src/APP.cpp   **** void testMemoryAllocator();
   8:src/APP.cpp   **** void testSyncCall();
   9:src/APP.cpp   **** uint64 fib(uint64);
  10:src/APP.cpp   **** 
  11:src/APP.cpp   **** void userMain()
  12:src/APP.cpp   **** {
  13:src/APP.cpp   **** //    __asm__ volatile ("csrw sscratch, x1"); // set spie bit to 1. spie signifies that we dont wan
  14:src/APP.cpp   **** 
  15:src/APP.cpp   ****     putString("=== App started");
  16:src/APP.cpp   ****     putNewline();
  17:src/APP.cpp   ****     assert(MemAlloc::get()->getUserlandUsage() == Thread::initialUserMemoryUsage);
  18:src/APP.cpp   **** 
  19:src/APP.cpp   ****     testSystemCalls();
  20:src/APP.cpp   ****     testMemoryAllocator();
  21:src/APP.cpp   ****     testSyncCall();
  22:src/APP.cpp   **** 
  23:src/APP.cpp   **** //    assert(MemAlloc::get()->getUserlandUsage() == Thread::initialUserMemoryUsage); // TODO: enabl
  24:src/APP.cpp   ****     putString("=== App ended");
  25:src/APP.cpp   ****     putNewline();
  26:src/APP.cpp   **** }
  27:src/APP.cpp   **** 
  28:src/APP.cpp   **** void testSyncCall()
  29:src/APP.cpp   **** {
  20              		.loc 1 29 1
GAS LISTING /tmp/ccEiJpMx.s 			page 2


  21              		.cfi_startproc
  22 0000 130101FD 		addi	sp,sp,-48
  23              		.cfi_def_cfa_offset 48
  24 0004 23341102 		sd	ra,40(sp)
  25 0008 23308102 		sd	s0,32(sp)
  26              		.cfi_offset 1, -8
  27              		.cfi_offset 8, -16
  28 000c 13040103 		addi	s0,sp,48
  29              		.cfi_def_cfa 8, 0
  30:src/APP.cpp   **** //    disableExternalInterrupts();
  31:src/APP.cpp   **** 
  32:src/APP.cpp   **** //    assert(MemAlloc::get()->getUserlandUsage() == Thread::initialUserMemoryUsage);
  33:src/APP.cpp   **** 
  34:src/APP.cpp   ****     putString("=== Testing \"testSyncCall\"");
  30              		.loc 1 34 5
  31              		.loc 1 34 14 is_stmt 0
  32 0010 17050000 		lla	a0,.LC0
  32      13050500 
  33 0018 97000000 		call	_Z9putStringPKc@plt
  33      E7800000 
  34              	.LVL0:
  35:src/APP.cpp   ****     putNewline();
  35              		.loc 1 35 5 is_stmt 1
  36              		.loc 1 35 15 is_stmt 0
  37 0020 97000000 		call	_Z10putNewlinev@plt
  37      E7800000 
  38              	.LVL1:
  36:src/APP.cpp   **** 
  37:src/APP.cpp   ****     void doA(void*);
  39              		.loc 1 37 5 is_stmt 1
  38:src/APP.cpp   ****     void doB(void*);
  40              		.loc 1 38 5
  39:src/APP.cpp   **** 
  40:src/APP.cpp   ****     int argA = 69;
  41              		.loc 1 40 5
  42              		.loc 1 40 9 is_stmt 0
  43 0028 93075004 		li	a5,69
  44 002c 2326F4FE 		sw	a5,-20(s0)
  41:src/APP.cpp   ****     int argB = 420;
  45              		.loc 1 41 5 is_stmt 1
  46              		.loc 1 41 9 is_stmt 0
  47 0030 9307401A 		li	a5,420
  48 0034 2324F4FE 		sw	a5,-24(s0)
  42:src/APP.cpp   ****     thread_t a;
  49              		.loc 1 42 5 is_stmt 1
  43:src/APP.cpp   ****     thread_t b;
  50              		.loc 1 43 5
  44:src/APP.cpp   ****     thread_create(&a, doA, &argA);
  51              		.loc 1 44 5
  52              		.loc 1 44 18 is_stmt 0
  53 0038 1306C4FE 		addi	a2,s0,-20
  54 003c 97050000 		la	a1,_Z3doAPv
  54      83B50500 
  55 0044 130504FE 		addi	a0,s0,-32
  56 0048 97000000 		call	_Z13thread_createPmPFvPvES0_@plt
  56      E7800000 
  57              	.LVL2:
GAS LISTING /tmp/ccEiJpMx.s 			page 3


  45:src/APP.cpp   ****     thread_create(&b, doB, &argB);
  58              		.loc 1 45 5 is_stmt 1
  59              		.loc 1 45 18 is_stmt 0
  60 0050 130684FE 		addi	a2,s0,-24
  61 0054 97050000 		la	a1,_Z3doBPv
  61      83B50500 
  62 005c 130584FD 		addi	a0,s0,-40
  63 0060 97000000 		call	_Z13thread_createPmPFvPvES0_@plt
  63      E7800000 
  64              	.LVL3:
  46:src/APP.cpp   ****     thread_dispatch();
  65              		.loc 1 46 5 is_stmt 1
  66              		.loc 1 46 20 is_stmt 0
  67 0068 97000000 		call	_Z15thread_dispatchv@plt
  67      E7800000 
  68              	.LVL4:
  47:src/APP.cpp   **** 
  48:src/APP.cpp   **** //    putString("thread_t a = ");
  49:src/APP.cpp   **** //    putU64(a);
  50:src/APP.cpp   **** //    putNewline();
  51:src/APP.cpp   **** //    putString("thread_t b = ");
  52:src/APP.cpp   **** //    putU64(b);
  53:src/APP.cpp   **** //    putNewline();
  54:src/APP.cpp   **** 
  55:src/APP.cpp   ****     thread_join(b);
  69              		.loc 1 55 5 is_stmt 1
  70              		.loc 1 55 16 is_stmt 0
  71 0070 033584FD 		ld	a0,-40(s0)
  72 0074 97000000 		call	_Z11thread_joinm@plt
  72      E7800000 
  73              	.LVL5:
  56:src/APP.cpp   ****     thread_join(a);
  74              		.loc 1 56 5 is_stmt 1
  75              		.loc 1 56 16 is_stmt 0
  76 007c 033504FE 		ld	a0,-32(s0)
  77 0080 97000000 		call	_Z11thread_joinm@plt
  77      E7800000 
  78              	.LVL6:
  57:src/APP.cpp   **** //    assert(Thread::pAllThreads[a]->id == Thread::pAllThreads[b]->id-1);
  58:src/APP.cpp   **** //    assert(MemAlloc::get()->getUserlandUsage() == Thread::initialUserMemoryUsage);
  59:src/APP.cpp   **** 
  60:src/APP.cpp   **** //    enableExternalInterrupts();
  61:src/APP.cpp   ****     __asm__ volatile("mv x10, x10");
  79              		.loc 1 61 5 is_stmt 1
  80              		.loc 1 61 36 is_stmt 0
  81              	#APP
  82              	# 61 "src/APP.cpp" 1
  62              	
  63:src/APP.cpp   ****     putString("=== Success in testing \"testSyncCall\"");
  83              		mv x10, x10
  84              	# 0 "" 2
  85              		.loc 1 63 5 is_stmt 1
  86              		.loc 1 63 14 is_stmt 0
  87              	#NO_APP
  88 008c 17050000 		lla	a0,.LC1
  88      13050500 
  89 0094 97000000 		call	_Z9putStringPKc@plt
GAS LISTING /tmp/ccEiJpMx.s 			page 4


  89      E7800000 
  90              	.LVL7:
  64:src/APP.cpp   **** }
  91              		.loc 1 64 1
  92 009c 83308102 		ld	ra,40(sp)
  93              		.cfi_restore 1
  94 00a0 03340102 		ld	s0,32(sp)
  95              		.cfi_restore 8
  96              		.cfi_def_cfa 2, 48
  97 00a4 13010103 		addi	sp,sp,48
  98              		.cfi_def_cfa_offset 0
  99 00a8 67800000 		jr	ra
 100              		.cfi_endproc
 101              	.LFE11:
 103              		.align	2
 104              		.globl	_Z3fibm
 106              	_Z3fibm:
 107              	.LFB14:
  65:src/APP.cpp   **** 
  66:src/APP.cpp   **** 
  67:src/APP.cpp   **** void doA(void* p)
  68:src/APP.cpp   **** {
  69:src/APP.cpp   ****     assert(*((int*)p) == 69);
  70:src/APP.cpp   **** 
  71:src/APP.cpp   ****     for(int i=0; i<=5; i++)
  72:src/APP.cpp   ****     {
  73:src/APP.cpp   **** //        putString("A i=");
  74:src/APP.cpp   **** //        putU64(i);
  75:src/APP.cpp   **** //        putNewline();
  76:src/APP.cpp   **** 
  77:src/APP.cpp   ****         assert(fib(i) == test_call(i));
  78:src/APP.cpp   ****         thread_dispatch();
  79:src/APP.cpp   ****     }
  80:src/APP.cpp   **** 
  81:src/APP.cpp   ****     __asm__ volatile("mv x10, x10");
  82:src/APP.cpp   ****     thread_exit();
  83:src/APP.cpp   ****     assert(false);
  84:src/APP.cpp   **** }
  85:src/APP.cpp   **** 
  86:src/APP.cpp   **** void doB(void* p)
  87:src/APP.cpp   **** {
  88:src/APP.cpp   ****     assert(*((int*)p) == 420);
  89:src/APP.cpp   **** 
  90:src/APP.cpp   ****     for(int i=0; i<=10; i++)
  91:src/APP.cpp   ****     {
  92:src/APP.cpp   **** //        putString("B i=");
  93:src/APP.cpp   **** //        putU64(i);
  94:src/APP.cpp   **** //        putNewline();
  95:src/APP.cpp   **** 
  96:src/APP.cpp   ****         assert(fib(i) == test_call(i));
  97:src/APP.cpp   ****         thread_dispatch();
  98:src/APP.cpp   ****     }
  99:src/APP.cpp   **** 
 100:src/APP.cpp   ****     thread_exit();
 101:src/APP.cpp   ****     assert(false);
 102:src/APP.cpp   **** }
 103:src/APP.cpp   **** 
GAS LISTING /tmp/ccEiJpMx.s 			page 5


 104:src/APP.cpp   **** 
 105:src/APP.cpp   **** uint64 fib(uint64 n)
 106:src/APP.cpp   **** {
 108              		.loc 1 106 1 is_stmt 1
 109              		.cfi_startproc
 110              	.LVL8:
 111 00ac 130101FE 		addi	sp,sp,-32
 112              		.cfi_def_cfa_offset 32
 113 00b0 233C1100 		sd	ra,24(sp)
 114 00b4 23388100 		sd	s0,16(sp)
 115 00b8 23349100 		sd	s1,8(sp)
 116 00bc 23302101 		sd	s2,0(sp)
 117              		.cfi_offset 1, -8
 118              		.cfi_offset 8, -16
 119              		.cfi_offset 9, -24
 120              		.cfi_offset 18, -32
 121 00c0 13040102 		addi	s0,sp,32
 122              		.cfi_def_cfa 8, 0
 123 00c4 93040500 		mv	s1,a0
 107:src/APP.cpp   ****     if(n == 1)
 124              		.loc 1 107 5
 125 00c8 93071000 		li	a5,1
 126 00cc 6304F500 		beq	a0,a5,.L4
 108:src/APP.cpp   ****         return 1;
 109:src/APP.cpp   ****     else if (n == 0)
 127              		.loc 1 109 10
 128 00d0 63100502 		bnez	a0,.L6
 129              	.LVL9:
 130              	.L4:
 110:src/APP.cpp   ****         return 0;
 111:src/APP.cpp   ****     else return fib(n-1) + fib(n-2);
 112:src/APP.cpp   **** }
 131              		.loc 1 112 1 is_stmt 0
 132 00d4 13850400 		mv	a0,s1
 133 00d8 83308101 		ld	ra,24(sp)
 134              		.cfi_remember_state
 135              		.cfi_restore 1
 136 00dc 03340101 		ld	s0,16(sp)
 137              		.cfi_restore 8
 138              		.cfi_def_cfa 2, 32
 139 00e0 83348100 		ld	s1,8(sp)
 140              		.cfi_restore 9
 141 00e4 03390100 		ld	s2,0(sp)
 142              		.cfi_restore 18
 143 00e8 13010102 		addi	sp,sp,32
 144              		.cfi_def_cfa_offset 0
 145 00ec 67800000 		jr	ra
 146              	.LVL10:
 147              	.L6:
 148              		.cfi_restore_state
 111:src/APP.cpp   **** }
 149              		.loc 1 111 10 is_stmt 1
 111:src/APP.cpp   **** }
 150              		.loc 1 111 20 is_stmt 0
 151 00f0 1305F5FF 		addi	a0,a0,-1
 152 00f4 97000000 		call	_Z3fibm
 152      E7800000 
GAS LISTING /tmp/ccEiJpMx.s 			page 6


 153              	.LVL11:
 154 00fc 13090500 		mv	s2,a0
 111:src/APP.cpp   **** }
 155              		.loc 1 111 31
 156 0100 1385E4FF 		addi	a0,s1,-2
 157 0104 97000000 		call	_Z3fibm
 157      E7800000 
 158              	.LVL12:
 111:src/APP.cpp   **** }
 159              		.loc 1 111 35
 160 010c B304A900 		add	s1,s2,a0
 161              	.LVL13:
 162 0110 6FF05FFC 		j	.L4
 163              		.cfi_endproc
 164              	.LFE14:
 166              		.section	.rodata.str1.8
 167 0046 0000     		.align	3
 168              	.LC2:
 169 0048 3D3D3D3D 		.string	"===================== ASSERT file: "
 169      3D3D3D3D 
 169      3D3D3D3D 
 169      3D3D3D3D 
 169      3D3D3D3D 
 170 006c 00000000 		.align	3
 171              	.LC3:
 172 0070 7372632F 		.string	"src/APP.cpp"
 172      4150502E 
 172      63707000 
 173 007c 00000000 		.align	3
 174              	.LC4:
 175 0080 20202020 		.string	"    line: "
 175      6C696E65 
 175      3A2000
 176 008b 00000000 		.align	3
 176      00
 177              	.LC5:
 178 0090 2020203D 		.string	"   ==========================="
 178      3D3D3D3D 
 178      3D3D3D3D 
 178      3D3D3D3D 
 178      3D3D3D3D 
 179              		.text
 180              		.align	2
 181              		.globl	_Z3doAPv
 183              	_Z3doAPv:
 184              	.LFB12:
  68:src/APP.cpp   ****     assert(*((int*)p) == 69);
 185              		.loc 1 68 1 is_stmt 1
 186              		.cfi_startproc
 187              	.LVL14:
 188 0114 130101FE 		addi	sp,sp,-32
 189              		.cfi_def_cfa_offset 32
 190 0118 233C1100 		sd	ra,24(sp)
 191 011c 23388100 		sd	s0,16(sp)
 192 0120 23349100 		sd	s1,8(sp)
 193 0124 23302101 		sd	s2,0(sp)
 194              		.cfi_offset 1, -8
GAS LISTING /tmp/ccEiJpMx.s 			page 7


 195              		.cfi_offset 8, -16
 196              		.cfi_offset 9, -24
 197              		.cfi_offset 18, -32
 198 0128 13040102 		addi	s0,sp,32
 199              		.cfi_def_cfa 8, 0
  69:src/APP.cpp   **** 
 200              		.loc 1 69 5
 201 012c 83270500 		lw	a5,0(a0)
 202 0130 9387B7FB 		addi	a5,a5,-69
 203              	.LVL15:
 204              	.LBB9:
 205              	.LBB10:
 206              		.file 2 "src/../h/my_console.h"
   1:src/../h/my_console.h **** #pragma once
   2:src/../h/my_console.h **** 
   3:src/../h/my_console.h **** #include "../h/risc.h"
   4:src/../h/my_console.h **** 
   5:src/../h/my_console.h **** #include "../lib/console.h"
   6:src/../h/my_console.h **** #include "../lib/hw.h"
   7:src/../h/my_console.h **** 
   8:src/../h/my_console.h **** #define __DEBUG_MODE
   9:src/../h/my_console.h **** 
  10:src/../h/my_console.h **** 
  11:src/../h/my_console.h **** void putString(const char* s);
  12:src/../h/my_console.h **** void putInt(int n);
  13:src/../h/my_console.h **** void putNewline();
  14:src/../h/my_console.h **** void putU64(uint64 n);
  15:src/../h/my_console.h **** void putBinary(uint64 n);
  16:src/../h/my_console.h **** 
  17:src/../h/my_console.h **** [[noreturn]] void stopKernel();
  18:src/../h/my_console.h **** 
  19:src/../h/my_console.h **** inline void _assert(bool valid, const char* file, int line) // MUST be inline
  20:src/../h/my_console.h **** {
  21:src/../h/my_console.h ****     if(valid)
 207              		.loc 2 21 5
 208 0134 63900704 		bnez	a5,.L13
 209              	.LBE10:
 210              	.LBE9:
 211              	.LBB12:
  71:src/APP.cpp   ****     {
 212              		.loc 1 71 13 is_stmt 0
 213 0138 93040000 		li	s1,0
 214              	.LVL16:
 215              	.L8:
  71:src/APP.cpp   ****     {
 216              		.loc 1 71 19 is_stmt 1 discriminator 3
 217 013c 93075000 		li	a5,5
 218 0140 63C6970E 		bgt	s1,a5,.L9
  77:src/APP.cpp   ****         thread_dispatch();
 219              		.loc 1 77 9 discriminator 2
 220 0144 13850400 		mv	a0,s1
 221 0148 97000000 		call	_Z3fibm
 221      E7800000 
 222              	.LVL17:
 223 0150 13090500 		mv	s2,a0
 224 0154 13850400 		mv	a0,s1
 225 0158 97000000 		call	_Z9test_callm@plt
GAS LISTING /tmp/ccEiJpMx.s 			page 8


 225      E7800000 
 226              	.LVL18:
 227              	.LBB13:
 228              	.LBB14:
 229              		.loc 2 21 5 discriminator 2
 230 0160 6318A906 		bne	s2,a0,.L14
  22:src/../h/my_console.h ****         return;
 231              		.loc 2 22 9 discriminator 2
 232              	.LVL19:
 233              	.LBE14:
 234              	.LBE13:
  78:src/APP.cpp   ****     }
 235              		.loc 1 78 9 discriminator 2
  78:src/APP.cpp   ****     }
 236              		.loc 1 78 24 is_stmt 0 discriminator 2
 237 0164 97000000 		call	_Z15thread_dispatchv@plt
 237      E7800000 
 238              	.LVL20:
  71:src/APP.cpp   ****     {
 239              		.loc 1 71 5 is_stmt 1 discriminator 2
 240 016c 9B841400 		addiw	s1,s1,1
 241              	.LVL21:
 242 0170 6FF0DFFC 		j	.L8
 243              	.LVL22:
 244              	.L13:
 245              	.LBE12:
 246              	.LBB17:
 247              	.LBB11:
  23:src/../h/my_console.h **** 
  24:src/../h/my_console.h ****     putString("===================== ASSERT file: ");
 248              		.loc 2 24 5
 249              		.loc 2 24 14 is_stmt 0
 250 0174 17050000 		lla	a0,.LC2
 250      13050500 
 251              	.LVL23:
 252 017c 97000000 		call	_Z9putStringPKc@plt
 252      E7800000 
 253              	.LVL24:
  25:src/../h/my_console.h ****     putString(file);
 254              		.loc 2 25 5 is_stmt 1
 255              		.loc 2 25 14 is_stmt 0
 256 0184 17050000 		lla	a0,.LC3
 256      13050500 
 257 018c 97000000 		call	_Z9putStringPKc@plt
 257      E7800000 
 258              	.LVL25:
  26:src/../h/my_console.h ****     putString("    line: ");
 259              		.loc 2 26 5 is_stmt 1
 260              		.loc 2 26 14 is_stmt 0
 261 0194 17050000 		lla	a0,.LC4
 261      13050500 
 262 019c 97000000 		call	_Z9putStringPKc@plt
 262      E7800000 
 263              	.LVL26:
  27:src/../h/my_console.h ****     putInt(line);
 264              		.loc 2 27 5 is_stmt 1
 265              		.loc 2 27 11 is_stmt 0
GAS LISTING /tmp/ccEiJpMx.s 			page 9


 266 01a4 13055004 		li	a0,69
 267 01a8 97000000 		call	_Z6putInti@plt
 267      E7800000 
 268              	.LVL27:
  28:src/../h/my_console.h ****     putString("   ===========================");
 269              		.loc 2 28 5 is_stmt 1
 270              		.loc 2 28 14 is_stmt 0
 271 01b0 17050000 		lla	a0,.LC5
 271      13050500 
 272 01b8 97000000 		call	_Z9putStringPKc@plt
 272      E7800000 
 273              	.LVL28:
  29:src/../h/my_console.h ****     putNewline();
 274              		.loc 2 29 5 is_stmt 1
 275              		.loc 2 29 15 is_stmt 0
 276 01c0 97000000 		call	_Z10putNewlinev@plt
 276      E7800000 
 277              	.LVL29:
  30:src/../h/my_console.h **** 
  31:src/../h/my_console.h ****     stopKernel();
 278              		.loc 2 31 5 is_stmt 1
 279              		.loc 2 31 15 is_stmt 0
 280 01c8 97000000 		call	_Z10stopKernelv@plt
 280      E7800000 
 281              	.LVL30:
 282              	.L14:
 283              	.LBE11:
 284              	.LBE17:
 285              	.LBB18:
 286              	.LBB16:
 287              	.LBB15:
  24:src/../h/my_console.h ****     putString(file);
 288              		.loc 2 24 5 is_stmt 1
  24:src/../h/my_console.h ****     putString(file);
 289              		.loc 2 24 14 is_stmt 0
 290 01d0 17050000 		lla	a0,.LC2
 290      13050500 
 291              	.LVL31:
 292 01d8 97000000 		call	_Z9putStringPKc@plt
 292      E7800000 
 293              	.LVL32:
  25:src/../h/my_console.h ****     putString("    line: ");
 294              		.loc 2 25 5 is_stmt 1
  25:src/../h/my_console.h ****     putString("    line: ");
 295              		.loc 2 25 14 is_stmt 0
 296 01e0 17050000 		lla	a0,.LC3
 296      13050500 
 297 01e8 97000000 		call	_Z9putStringPKc@plt
 297      E7800000 
 298              	.LVL33:
  26:src/../h/my_console.h ****     putInt(line);
 299              		.loc 2 26 5 is_stmt 1
  26:src/../h/my_console.h ****     putInt(line);
 300              		.loc 2 26 14 is_stmt 0
 301 01f0 17050000 		lla	a0,.LC4
 301      13050500 
 302 01f8 97000000 		call	_Z9putStringPKc@plt
GAS LISTING /tmp/ccEiJpMx.s 			page 10


 302      E7800000 
 303              	.LVL34:
  27:src/../h/my_console.h ****     putString("   ===========================");
 304              		.loc 2 27 5 is_stmt 1
  27:src/../h/my_console.h ****     putString("   ===========================");
 305              		.loc 2 27 11 is_stmt 0
 306 0200 1305D004 		li	a0,77
 307 0204 97000000 		call	_Z6putInti@plt
 307      E7800000 
 308              	.LVL35:
  28:src/../h/my_console.h ****     putNewline();
 309              		.loc 2 28 5 is_stmt 1
  28:src/../h/my_console.h ****     putNewline();
 310              		.loc 2 28 14 is_stmt 0
 311 020c 17050000 		lla	a0,.LC5
 311      13050500 
 312 0214 97000000 		call	_Z9putStringPKc@plt
 312      E7800000 
 313              	.LVL36:
  29:src/../h/my_console.h **** 
 314              		.loc 2 29 5 is_stmt 1
  29:src/../h/my_console.h **** 
 315              		.loc 2 29 15 is_stmt 0
 316 021c 97000000 		call	_Z10putNewlinev@plt
 316      E7800000 
 317              	.LVL37:
 318              		.loc 2 31 5 is_stmt 1
 319              		.loc 2 31 15 is_stmt 0
 320 0224 97000000 		call	_Z10stopKernelv@plt
 320      E7800000 
 321              	.LVL38:
 322              	.L9:
 323              	.LBE15:
 324              	.LBE16:
 325              	.LBE18:
  81:src/APP.cpp   ****     thread_exit();
 326              		.loc 1 81 5 is_stmt 1
  81:src/APP.cpp   ****     thread_exit();
 327              		.loc 1 81 36 is_stmt 0
 328              	#APP
 329              	# 81 "src/APP.cpp" 1
  82:src/APP.cpp   ****     assert(false);
 330              		mv x10, x10
 331              	# 0 "" 2
 332              		.loc 1 82 5 is_stmt 1
  82:src/APP.cpp   ****     assert(false);
 333              		.loc 1 82 16 is_stmt 0
 334              	#NO_APP
 335 0230 97000000 		call	_Z11thread_exitv@plt
 335      E7800000 
 336              	.LVL39:
  83:src/APP.cpp   **** }
 337              		.loc 1 83 5 is_stmt 1
 338              	.LBB19:
 339              	.LBB20:
  21:src/../h/my_console.h ****         return;
 340              		.loc 2 21 5
GAS LISTING /tmp/ccEiJpMx.s 			page 11


  24:src/../h/my_console.h ****     putString(file);
 341              		.loc 2 24 5
  24:src/../h/my_console.h ****     putString(file);
 342              		.loc 2 24 14 is_stmt 0
 343 0238 17050000 		lla	a0,.LC2
 343      13050500 
 344 0240 97000000 		call	_Z9putStringPKc@plt
 344      E7800000 
 345              	.LVL40:
  25:src/../h/my_console.h ****     putString("    line: ");
 346              		.loc 2 25 5 is_stmt 1
  25:src/../h/my_console.h ****     putString("    line: ");
 347              		.loc 2 25 14 is_stmt 0
 348 0248 17050000 		lla	a0,.LC3
 348      13050500 
 349 0250 97000000 		call	_Z9putStringPKc@plt
 349      E7800000 
 350              	.LVL41:
  26:src/../h/my_console.h ****     putInt(line);
 351              		.loc 2 26 5 is_stmt 1
  26:src/../h/my_console.h ****     putInt(line);
 352              		.loc 2 26 14 is_stmt 0
 353 0258 17050000 		lla	a0,.LC4
 353      13050500 
 354 0260 97000000 		call	_Z9putStringPKc@plt
 354      E7800000 
 355              	.LVL42:
  27:src/../h/my_console.h ****     putString("   ===========================");
 356              		.loc 2 27 5 is_stmt 1
  27:src/../h/my_console.h ****     putString("   ===========================");
 357              		.loc 2 27 11 is_stmt 0
 358 0268 13053005 		li	a0,83
 359 026c 97000000 		call	_Z6putInti@plt
 359      E7800000 
 360              	.LVL43:
  28:src/../h/my_console.h ****     putNewline();
 361              		.loc 2 28 5 is_stmt 1
  28:src/../h/my_console.h ****     putNewline();
 362              		.loc 2 28 14 is_stmt 0
 363 0274 17050000 		lla	a0,.LC5
 363      13050500 
 364 027c 97000000 		call	_Z9putStringPKc@plt
 364      E7800000 
 365              	.LVL44:
  29:src/../h/my_console.h **** 
 366              		.loc 2 29 5 is_stmt 1
  29:src/../h/my_console.h **** 
 367              		.loc 2 29 15 is_stmt 0
 368 0284 97000000 		call	_Z10putNewlinev@plt
 368      E7800000 
 369              	.LVL45:
 370              		.loc 2 31 5 is_stmt 1
 371              		.loc 2 31 15 is_stmt 0
 372 028c 97000000 		call	_Z10stopKernelv@plt
 372      E7800000 
 373              	.LVL46:
 374              	.LBE20:
GAS LISTING /tmp/ccEiJpMx.s 			page 12


 375              	.LBE19:
 376              		.cfi_endproc
 377              	.LFE12:
 379              		.align	2
 380              		.globl	_Z3doBPv
 382              	_Z3doBPv:
 383              	.LFB13:
  87:src/APP.cpp   ****     assert(*((int*)p) == 420);
 384              		.loc 1 87 1 is_stmt 1
 385              		.cfi_startproc
 386              	.LVL47:
 387 0294 130101FE 		addi	sp,sp,-32
 388              		.cfi_def_cfa_offset 32
 389 0298 233C1100 		sd	ra,24(sp)
 390 029c 23388100 		sd	s0,16(sp)
 391 02a0 23349100 		sd	s1,8(sp)
 392 02a4 23302101 		sd	s2,0(sp)
 393              		.cfi_offset 1, -8
 394              		.cfi_offset 8, -16
 395              		.cfi_offset 9, -24
 396              		.cfi_offset 18, -32
 397 02a8 13040102 		addi	s0,sp,32
 398              		.cfi_def_cfa 8, 0
  88:src/APP.cpp   **** 
 399              		.loc 1 88 5
 400 02ac 83270500 		lw	a5,0(a0)
 401 02b0 9387C7E5 		addi	a5,a5,-420
 402              	.LVL48:
 403              	.LBB28:
 404              	.LBB29:
  21:src/../h/my_console.h ****         return;
 405              		.loc 2 21 5
 406 02b4 63900704 		bnez	a5,.L21
 407              	.LBE29:
 408              	.LBE28:
 409              	.LBB31:
  90:src/APP.cpp   ****     {
 410              		.loc 1 90 13 is_stmt 0
 411 02b8 93040000 		li	s1,0
 412              	.LVL49:
 413              	.L16:
  90:src/APP.cpp   ****     {
 414              		.loc 1 90 19 is_stmt 1 discriminator 3
 415 02bc 9307A000 		li	a5,10
 416 02c0 63C6970E 		bgt	s1,a5,.L17
  96:src/APP.cpp   ****         thread_dispatch();
 417              		.loc 1 96 9 discriminator 2
 418 02c4 13850400 		mv	a0,s1
 419 02c8 97000000 		call	_Z3fibm
 419      E7800000 
 420              	.LVL50:
 421 02d0 13090500 		mv	s2,a0
 422 02d4 13850400 		mv	a0,s1
 423 02d8 97000000 		call	_Z9test_callm@plt
 423      E7800000 
 424              	.LVL51:
 425              	.LBB32:
GAS LISTING /tmp/ccEiJpMx.s 			page 13


 426              	.LBB33:
  21:src/../h/my_console.h ****         return;
 427              		.loc 2 21 5 discriminator 2
 428 02e0 6318A906 		bne	s2,a0,.L22
  22:src/../h/my_console.h **** 
 429              		.loc 2 22 9 discriminator 2
 430              	.LVL52:
 431              	.LBE33:
 432              	.LBE32:
  97:src/APP.cpp   ****     }
 433              		.loc 1 97 9 discriminator 2
  97:src/APP.cpp   ****     }
 434              		.loc 1 97 24 is_stmt 0 discriminator 2
 435 02e4 97000000 		call	_Z15thread_dispatchv@plt
 435      E7800000 
 436              	.LVL53:
  90:src/APP.cpp   ****     {
 437              		.loc 1 90 5 is_stmt 1 discriminator 2
 438 02ec 9B841400 		addiw	s1,s1,1
 439              	.LVL54:
 440 02f0 6FF0DFFC 		j	.L16
 441              	.LVL55:
 442              	.L21:
 443              	.LBE31:
 444              	.LBB36:
 445              	.LBB30:
  24:src/../h/my_console.h ****     putString(file);
 446              		.loc 2 24 5
  24:src/../h/my_console.h ****     putString(file);
 447              		.loc 2 24 14 is_stmt 0
 448 02f4 17050000 		lla	a0,.LC2
 448      13050500 
 449              	.LVL56:
 450 02fc 97000000 		call	_Z9putStringPKc@plt
 450      E7800000 
 451              	.LVL57:
  25:src/../h/my_console.h ****     putString("    line: ");
 452              		.loc 2 25 5 is_stmt 1
  25:src/../h/my_console.h ****     putString("    line: ");
 453              		.loc 2 25 14 is_stmt 0
 454 0304 17050000 		lla	a0,.LC3
 454      13050500 
 455 030c 97000000 		call	_Z9putStringPKc@plt
 455      E7800000 
 456              	.LVL58:
  26:src/../h/my_console.h ****     putInt(line);
 457              		.loc 2 26 5 is_stmt 1
  26:src/../h/my_console.h ****     putInt(line);
 458              		.loc 2 26 14 is_stmt 0
 459 0314 17050000 		lla	a0,.LC4
 459      13050500 
 460 031c 97000000 		call	_Z9putStringPKc@plt
 460      E7800000 
 461              	.LVL59:
  27:src/../h/my_console.h ****     putString("   ===========================");
 462              		.loc 2 27 5 is_stmt 1
  27:src/../h/my_console.h ****     putString("   ===========================");
GAS LISTING /tmp/ccEiJpMx.s 			page 14


 463              		.loc 2 27 11 is_stmt 0
 464 0324 13058005 		li	a0,88
 465 0328 97000000 		call	_Z6putInti@plt
 465      E7800000 
 466              	.LVL60:
  28:src/../h/my_console.h ****     putNewline();
 467              		.loc 2 28 5 is_stmt 1
  28:src/../h/my_console.h ****     putNewline();
 468              		.loc 2 28 14 is_stmt 0
 469 0330 17050000 		lla	a0,.LC5
 469      13050500 
 470 0338 97000000 		call	_Z9putStringPKc@plt
 470      E7800000 
 471              	.LVL61:
  29:src/../h/my_console.h **** 
 472              		.loc 2 29 5 is_stmt 1
  29:src/../h/my_console.h **** 
 473              		.loc 2 29 15 is_stmt 0
 474 0340 97000000 		call	_Z10putNewlinev@plt
 474      E7800000 
 475              	.LVL62:
 476              		.loc 2 31 5 is_stmt 1
 477              		.loc 2 31 15 is_stmt 0
 478 0348 97000000 		call	_Z10stopKernelv@plt
 478      E7800000 
 479              	.LVL63:
 480              	.L22:
 481              	.LBE30:
 482              	.LBE36:
 483              	.LBB37:
 484              	.LBB35:
 485              	.LBB34:
  24:src/../h/my_console.h ****     putString(file);
 486              		.loc 2 24 5 is_stmt 1
  24:src/../h/my_console.h ****     putString(file);
 487              		.loc 2 24 14 is_stmt 0
 488 0350 17050000 		lla	a0,.LC2
 488      13050500 
 489              	.LVL64:
 490 0358 97000000 		call	_Z9putStringPKc@plt
 490      E7800000 
 491              	.LVL65:
  25:src/../h/my_console.h ****     putString("    line: ");
 492              		.loc 2 25 5 is_stmt 1
  25:src/../h/my_console.h ****     putString("    line: ");
 493              		.loc 2 25 14 is_stmt 0
 494 0360 17050000 		lla	a0,.LC3
 494      13050500 
 495 0368 97000000 		call	_Z9putStringPKc@plt
 495      E7800000 
 496              	.LVL66:
  26:src/../h/my_console.h ****     putInt(line);
 497              		.loc 2 26 5 is_stmt 1
  26:src/../h/my_console.h ****     putInt(line);
 498              		.loc 2 26 14 is_stmt 0
 499 0370 17050000 		lla	a0,.LC4
 499      13050500 
GAS LISTING /tmp/ccEiJpMx.s 			page 15


 500 0378 97000000 		call	_Z9putStringPKc@plt
 500      E7800000 
 501              	.LVL67:
  27:src/../h/my_console.h ****     putString("   ===========================");
 502              		.loc 2 27 5 is_stmt 1
  27:src/../h/my_console.h ****     putString("   ===========================");
 503              		.loc 2 27 11 is_stmt 0
 504 0380 13050006 		li	a0,96
 505 0384 97000000 		call	_Z6putInti@plt
 505      E7800000 
 506              	.LVL68:
  28:src/../h/my_console.h ****     putNewline();
 507              		.loc 2 28 5 is_stmt 1
  28:src/../h/my_console.h ****     putNewline();
 508              		.loc 2 28 14 is_stmt 0
 509 038c 17050000 		lla	a0,.LC5
 509      13050500 
 510 0394 97000000 		call	_Z9putStringPKc@plt
 510      E7800000 
 511              	.LVL69:
  29:src/../h/my_console.h **** 
 512              		.loc 2 29 5 is_stmt 1
  29:src/../h/my_console.h **** 
 513              		.loc 2 29 15 is_stmt 0
 514 039c 97000000 		call	_Z10putNewlinev@plt
 514      E7800000 
 515              	.LVL70:
 516              		.loc 2 31 5 is_stmt 1
 517              		.loc 2 31 15 is_stmt 0
 518 03a4 97000000 		call	_Z10stopKernelv@plt
 518      E7800000 
 519              	.LVL71:
 520              	.L17:
 521              	.LBE34:
 522              	.LBE35:
 523              	.LBE37:
 100:src/APP.cpp   ****     assert(false);
 524              		.loc 1 100 5 is_stmt 1
 100:src/APP.cpp   ****     assert(false);
 525              		.loc 1 100 16 is_stmt 0
 526 03ac 97000000 		call	_Z11thread_exitv@plt
 526      E7800000 
 527              	.LVL72:
 101:src/APP.cpp   **** }
 528              		.loc 1 101 5 is_stmt 1
 529              	.LBB38:
 530              	.LBB39:
  21:src/../h/my_console.h ****         return;
 531              		.loc 2 21 5
  24:src/../h/my_console.h ****     putString(file);
 532              		.loc 2 24 5
  24:src/../h/my_console.h ****     putString(file);
 533              		.loc 2 24 14 is_stmt 0
 534 03b4 17050000 		lla	a0,.LC2
 534      13050500 
 535 03bc 97000000 		call	_Z9putStringPKc@plt
 535      E7800000 
GAS LISTING /tmp/ccEiJpMx.s 			page 16


 536              	.LVL73:
  25:src/../h/my_console.h ****     putString("    line: ");
 537              		.loc 2 25 5 is_stmt 1
  25:src/../h/my_console.h ****     putString("    line: ");
 538              		.loc 2 25 14 is_stmt 0
 539 03c4 17050000 		lla	a0,.LC3
 539      13050500 
 540 03cc 97000000 		call	_Z9putStringPKc@plt
 540      E7800000 
 541              	.LVL74:
  26:src/../h/my_console.h ****     putInt(line);
 542              		.loc 2 26 5 is_stmt 1
  26:src/../h/my_console.h ****     putInt(line);
 543              		.loc 2 26 14 is_stmt 0
 544 03d4 17050000 		lla	a0,.LC4
 544      13050500 
 545 03dc 97000000 		call	_Z9putStringPKc@plt
 545      E7800000 
 546              	.LVL75:
  27:src/../h/my_console.h ****     putString("   ===========================");
 547              		.loc 2 27 5 is_stmt 1
  27:src/../h/my_console.h ****     putString("   ===========================");
 548              		.loc 2 27 11 is_stmt 0
 549 03e4 13055006 		li	a0,101
 550 03e8 97000000 		call	_Z6putInti@plt
 550      E7800000 
 551              	.LVL76:
  28:src/../h/my_console.h ****     putNewline();
 552              		.loc 2 28 5 is_stmt 1
  28:src/../h/my_console.h ****     putNewline();
 553              		.loc 2 28 14 is_stmt 0
 554 03f0 17050000 		lla	a0,.LC5
 554      13050500 
 555 03f8 97000000 		call	_Z9putStringPKc@plt
 555      E7800000 
 556              	.LVL77:
  29:src/../h/my_console.h **** 
 557              		.loc 2 29 5 is_stmt 1
  29:src/../h/my_console.h **** 
 558              		.loc 2 29 15 is_stmt 0
 559 0400 97000000 		call	_Z10putNewlinev@plt
 559      E7800000 
 560              	.LVL78:
 561              		.loc 2 31 5 is_stmt 1
 562              		.loc 2 31 15 is_stmt 0
 563 0408 97000000 		call	_Z10stopKernelv@plt
 563      E7800000 
 564              	.LVL79:
 565              	.LBE39:
 566              	.LBE38:
 567              		.cfi_endproc
 568              	.LFE13:
 570              		.section	.rodata.str1.8
 571 00af 00       		.align	3
 572              	.LC6:
 573 00b0 3D3D3D20 		.string	"=== Testing \"testSystemCalls\""
 573      54657374 
GAS LISTING /tmp/ccEiJpMx.s 			page 17


 573      696E6720 
 573      22746573 
 573      74537973 
 574 00ce 0000     		.align	3
 575              	.LC7:
 576 00d0 74657374 		.string	"test_call() error. i="
 576      5F63616C 
 576      6C282920 
 576      6572726F 
 576      722E2069 
 577 00e6 0000     		.align	3
 578              	.LC8:
 579 00e8 20666962 		.string	" fib(i)="
 579      2869293D 
 579      00
 580 00f1 00000000 		.align	3
 580      000000
 581              	.LC9:
 582 00f8 20746573 		.string	" test_call(i)="
 582      745F6361 
 582      6C6C2869 
 582      293D00
 583 0107 00       		.align	3
 584              	.LC10:
 585 0108 3D3D3D20 		.string	"=== Success in testing system calls"
 585      53756363 
 585      65737320 
 585      696E2074 
 585      65737469 
 586              		.text
 587              		.align	2
 588              		.globl	_Z15testSystemCallsv
 590              	_Z15testSystemCallsv:
 591              	.LFB15:
 113:src/APP.cpp   **** 
 114:src/APP.cpp   **** void testSystemCalls()
 115:src/APP.cpp   **** {
 592              		.loc 1 115 1 is_stmt 1
 593              		.cfi_startproc
 594 0410 130101FB 		addi	sp,sp,-80
 595              		.cfi_def_cfa_offset 80
 596 0414 23341104 		sd	ra,72(sp)
 597 0418 23308104 		sd	s0,64(sp)
 598 041c 233C9102 		sd	s1,56(sp)
 599 0420 23382103 		sd	s2,48(sp)
 600 0424 23343103 		sd	s3,40(sp)
 601 0428 23304103 		sd	s4,32(sp)
 602 042c 233C5101 		sd	s5,24(sp)
 603 0430 23386101 		sd	s6,16(sp)
 604 0434 23347101 		sd	s7,8(sp)
 605              		.cfi_offset 1, -8
 606              		.cfi_offset 8, -16
 607              		.cfi_offset 9, -24
 608              		.cfi_offset 18, -32
 609              		.cfi_offset 19, -40
 610              		.cfi_offset 20, -48
 611              		.cfi_offset 21, -56
GAS LISTING /tmp/ccEiJpMx.s 			page 18


 612              		.cfi_offset 22, -64
 613              		.cfi_offset 23, -72
 614 0438 13040105 		addi	s0,sp,80
 615              		.cfi_def_cfa 8, 0
 116:src/APP.cpp   ****     putString("=== Testing \"testSystemCalls\"");
 616              		.loc 1 116 5
 617              		.loc 1 116 14 is_stmt 0
 618 043c 17050000 		lla	a0,.LC6
 618      13050500 
 619 0444 97000000 		call	_Z9putStringPKc@plt
 619      E7800000 
 620              	.LVL80:
 117:src/APP.cpp   ****     putNewline();
 621              		.loc 1 117 5 is_stmt 1
 622              		.loc 1 117 15 is_stmt 0
 623 044c 97000000 		call	_Z10putNewlinev@plt
 623      E7800000 
 624              	.LVL81:
 118:src/APP.cpp   **** 
 119:src/APP.cpp   ****     int a = 0;
 625              		.loc 1 119 5 is_stmt 1
 120:src/APP.cpp   ****     int b = 0;
 626              		.loc 1 120 5
 121:src/APP.cpp   **** 
 122:src/APP.cpp   ****     for(int i=1; i<10; i++)
 627              		.loc 1 122 5
 628              	.LBB48:
 629              		.loc 1 122 13 is_stmt 0
 630 0454 93041000 		li	s1,1
 631              	.LBE48:
 120:src/APP.cpp   ****     int b = 0;
 632              		.loc 1 120 9
 633 0458 930A0000 		li	s5,0
 119:src/APP.cpp   ****     int b = 0;
 634              		.loc 1 119 9
 635 045c 130A0000 		li	s4,0
 636              	.LVL82:
 637              	.L27:
 638              	.LBB58:
 639              		.loc 1 122 19 is_stmt 1 discriminator 1
 640 0460 93079000 		li	a5,9
 641 0464 63CC9714 		bgt	s1,a5,.L24
 642              	.LBB49:
 123:src/APP.cpp   ****     {
 124:src/APP.cpp   ****         a++;
 643              		.loc 1 124 9
 644              		.loc 1 124 10 is_stmt 0
 645 0468 1B0B1A00 		addiw	s6,s4,1
 646              	.LVL83:
 125:src/APP.cpp   ****         b++;
 647              		.loc 1 125 9 is_stmt 1
 648              		.loc 1 125 10 is_stmt 0
 649 046c 9B8B1A00 		addiw	s7,s5,1
 650              	.LVL84:
 126:src/APP.cpp   **** 
 127:src/APP.cpp   ****         uint64 called = test_call(i);
 651              		.loc 1 127 9 is_stmt 1
GAS LISTING /tmp/ccEiJpMx.s 			page 19


 652              		.loc 1 127 34 is_stmt 0
 653 0470 13850400 		mv	a0,s1
 654 0474 97000000 		call	_Z9test_callm@plt
 654      E7800000 
 655              	.LVL85:
 656 047c 13090500 		mv	s2,a0
 657              	.LVL86:
 128:src/APP.cpp   ****         uint64 actual = fib(i);
 658              		.loc 1 128 9 is_stmt 1
 659              		.loc 1 128 28 is_stmt 0
 660 0480 13850400 		mv	a0,s1
 661              	.LVL87:
 662 0484 97000000 		call	_Z3fibm
 662      E7800000 
 663              	.LVL88:
 664 048c 93090500 		mv	s3,a0
 665              	.LVL89:
 129:src/APP.cpp   **** 
 130:src/APP.cpp   ****         if(called != actual)
 666              		.loc 1 130 9 is_stmt 1
 667 0490 631CA900 		bne	s2,a0,.L30
 131:src/APP.cpp   ****         {
 132:src/APP.cpp   ****             putString("test_call() error. i=");
 133:src/APP.cpp   ****             putInt(i);
 134:src/APP.cpp   ****             putString(" fib(i)=");
 135:src/APP.cpp   ****             putU64(actual);
 136:src/APP.cpp   ****             putString(" test_call(i)=");
 137:src/APP.cpp   ****             putU64(called);
 138:src/APP.cpp   ****             putNewline();
 139:src/APP.cpp   ****             assert(false);
 140:src/APP.cpp   ****         }
 141:src/APP.cpp   **** 
 142:src/APP.cpp   ****         assert(a == b);
 668              		.loc 1 142 9 discriminator 2
 669              	.LVL90:
 670              	.LBB50:
 671              	.LBB51:
  21:src/../h/my_console.h ****         return;
 672              		.loc 2 21 5 discriminator 2
 673 0494 63165A0D 		bne	s4,s5,.L31
  22:src/../h/my_console.h **** 
 674              		.loc 2 22 9 discriminator 2
 675              	.LVL91:
 676              	.LBE51:
 677              	.LBE50:
 678              	.LBE49:
 122:src/APP.cpp   ****     {
 679              		.loc 1 122 5 discriminator 2
 680 0498 9B841400 		addiw	s1,s1,1
 681              	.LVL92:
 682              	.LBB56:
 125:src/APP.cpp   **** 
 683              		.loc 1 125 10 is_stmt 0 discriminator 2
 684 049c 938A0B00 		mv	s5,s7
 685              	.LVL93:
 124:src/APP.cpp   ****         b++;
 686              		.loc 1 124 10 discriminator 2
GAS LISTING /tmp/ccEiJpMx.s 			page 20


 687 04a0 130A0B00 		mv	s4,s6
 688              	.LVL94:
 689              	.LBE56:
 122:src/APP.cpp   ****     {
 690              		.loc 1 122 5 discriminator 2
 691 04a4 6FF0DFFB 		j	.L27
 692              	.LVL95:
 693              	.L30:
 694              	.LBB57:
 132:src/APP.cpp   ****             putInt(i);
 695              		.loc 1 132 13 is_stmt 1
 132:src/APP.cpp   ****             putInt(i);
 696              		.loc 1 132 22 is_stmt 0
 697 04a8 17050000 		lla	a0,.LC7
 697      13050500 
 698              	.LVL96:
 699 04b0 97000000 		call	_Z9putStringPKc@plt
 699      E7800000 
 700              	.LVL97:
 133:src/APP.cpp   ****             putString(" fib(i)=");
 701              		.loc 1 133 13 is_stmt 1
 133:src/APP.cpp   ****             putString(" fib(i)=");
 702              		.loc 1 133 19 is_stmt 0
 703 04b8 13850400 		mv	a0,s1
 704 04bc 97000000 		call	_Z6putInti@plt
 704      E7800000 
 705              	.LVL98:
 134:src/APP.cpp   ****             putU64(actual);
 706              		.loc 1 134 13 is_stmt 1
 134:src/APP.cpp   ****             putU64(actual);
 707              		.loc 1 134 22 is_stmt 0
 708 04c4 17050000 		lla	a0,.LC8
 708      13050500 
 709 04cc 97000000 		call	_Z9putStringPKc@plt
 709      E7800000 
 710              	.LVL99:
 135:src/APP.cpp   ****             putString(" test_call(i)=");
 711              		.loc 1 135 13 is_stmt 1
 135:src/APP.cpp   ****             putString(" test_call(i)=");
 712              		.loc 1 135 19 is_stmt 0
 713 04d4 13850900 		mv	a0,s3
 714 04d8 97000000 		call	_Z6putU64m@plt
 714      E7800000 
 715              	.LVL100:
 136:src/APP.cpp   ****             putU64(called);
 716              		.loc 1 136 13 is_stmt 1
 136:src/APP.cpp   ****             putU64(called);
 717              		.loc 1 136 22 is_stmt 0
 718 04e0 17050000 		lla	a0,.LC9
 718      13050500 
 719 04e8 97000000 		call	_Z9putStringPKc@plt
 719      E7800000 
 720              	.LVL101:
 137:src/APP.cpp   ****             putNewline();
 721              		.loc 1 137 13 is_stmt 1
 137:src/APP.cpp   ****             putNewline();
 722              		.loc 1 137 19 is_stmt 0
GAS LISTING /tmp/ccEiJpMx.s 			page 21


 723 04f0 13050900 		mv	a0,s2
 724 04f4 97000000 		call	_Z6putU64m@plt
 724      E7800000 
 725              	.LVL102:
 138:src/APP.cpp   ****             assert(false);
 726              		.loc 1 138 13 is_stmt 1
 138:src/APP.cpp   ****             assert(false);
 727              		.loc 1 138 23 is_stmt 0
 728 04fc 97000000 		call	_Z10putNewlinev@plt
 728      E7800000 
 729              	.LVL103:
 139:src/APP.cpp   ****         }
 730              		.loc 1 139 13 is_stmt 1
 731              	.LBB53:
 732              	.LBB54:
  21:src/../h/my_console.h ****         return;
 733              		.loc 2 21 5
  24:src/../h/my_console.h ****     putString(file);
 734              		.loc 2 24 5
  24:src/../h/my_console.h ****     putString(file);
 735              		.loc 2 24 14 is_stmt 0
 736 0504 17050000 		lla	a0,.LC2
 736      13050500 
 737 050c 97000000 		call	_Z9putStringPKc@plt
 737      E7800000 
 738              	.LVL104:
  25:src/../h/my_console.h ****     putString("    line: ");
 739              		.loc 2 25 5 is_stmt 1
  25:src/../h/my_console.h ****     putString("    line: ");
 740              		.loc 2 25 14 is_stmt 0
 741 0514 17050000 		lla	a0,.LC3
 741      13050500 
 742 051c 97000000 		call	_Z9putStringPKc@plt
 742      E7800000 
 743              	.LVL105:
  26:src/../h/my_console.h ****     putInt(line);
 744              		.loc 2 26 5 is_stmt 1
  26:src/../h/my_console.h ****     putInt(line);
 745              		.loc 2 26 14 is_stmt 0
 746 0524 17050000 		lla	a0,.LC4
 746      13050500 
 747 052c 97000000 		call	_Z9putStringPKc@plt
 747      E7800000 
 748              	.LVL106:
  27:src/../h/my_console.h ****     putString("   ===========================");
 749              		.loc 2 27 5 is_stmt 1
  27:src/../h/my_console.h ****     putString("   ===========================");
 750              		.loc 2 27 11 is_stmt 0
 751 0534 1305B008 		li	a0,139
 752 0538 97000000 		call	_Z6putInti@plt
 752      E7800000 
 753              	.LVL107:
  28:src/../h/my_console.h ****     putNewline();
 754              		.loc 2 28 5 is_stmt 1
  28:src/../h/my_console.h ****     putNewline();
 755              		.loc 2 28 14 is_stmt 0
 756 0540 17050000 		lla	a0,.LC5
GAS LISTING /tmp/ccEiJpMx.s 			page 22


 756      13050500 
 757 0548 97000000 		call	_Z9putStringPKc@plt
 757      E7800000 
 758              	.LVL108:
  29:src/../h/my_console.h **** 
 759              		.loc 2 29 5 is_stmt 1
  29:src/../h/my_console.h **** 
 760              		.loc 2 29 15 is_stmt 0
 761 0550 97000000 		call	_Z10putNewlinev@plt
 761      E7800000 
 762              	.LVL109:
 763              		.loc 2 31 5 is_stmt 1
 764              		.loc 2 31 15 is_stmt 0
 765 0558 97000000 		call	_Z10stopKernelv@plt
 765      E7800000 
 766              	.LVL110:
 767              	.L31:
 768              	.LBE54:
 769              	.LBE53:
 770              	.LBB55:
 771              	.LBB52:
  24:src/../h/my_console.h ****     putString(file);
 772              		.loc 2 24 5 is_stmt 1
  24:src/../h/my_console.h ****     putString(file);
 773              		.loc 2 24 14 is_stmt 0
 774 0560 17050000 		lla	a0,.LC2
 774      13050500 
 775              	.LVL111:
 776 0568 97000000 		call	_Z9putStringPKc@plt
 776      E7800000 
 777              	.LVL112:
  25:src/../h/my_console.h ****     putString("    line: ");
 778              		.loc 2 25 5 is_stmt 1
  25:src/../h/my_console.h ****     putString("    line: ");
 779              		.loc 2 25 14 is_stmt 0
 780 0570 17050000 		lla	a0,.LC3
 780      13050500 
 781 0578 97000000 		call	_Z9putStringPKc@plt
 781      E7800000 
 782              	.LVL113:
  26:src/../h/my_console.h ****     putInt(line);
 783              		.loc 2 26 5 is_stmt 1
  26:src/../h/my_console.h ****     putInt(line);
 784              		.loc 2 26 14 is_stmt 0
 785 0580 17050000 		lla	a0,.LC4
 785      13050500 
 786 0588 97000000 		call	_Z9putStringPKc@plt
 786      E7800000 
 787              	.LVL114:
  27:src/../h/my_console.h ****     putString("   ===========================");
 788              		.loc 2 27 5 is_stmt 1
  27:src/../h/my_console.h ****     putString("   ===========================");
 789              		.loc 2 27 11 is_stmt 0
 790 0590 1305E008 		li	a0,142
 791 0594 97000000 		call	_Z6putInti@plt
 791      E7800000 
 792              	.LVL115:
GAS LISTING /tmp/ccEiJpMx.s 			page 23


  28:src/../h/my_console.h ****     putNewline();
 793              		.loc 2 28 5 is_stmt 1
  28:src/../h/my_console.h ****     putNewline();
 794              		.loc 2 28 14 is_stmt 0
 795 059c 17050000 		lla	a0,.LC5
 795      13050500 
 796 05a4 97000000 		call	_Z9putStringPKc@plt
 796      E7800000 
 797              	.LVL116:
  29:src/../h/my_console.h **** 
 798              		.loc 2 29 5 is_stmt 1
  29:src/../h/my_console.h **** 
 799              		.loc 2 29 15 is_stmt 0
 800 05ac 97000000 		call	_Z10putNewlinev@plt
 800      E7800000 
 801              	.LVL117:
 802              		.loc 2 31 5 is_stmt 1
 803              		.loc 2 31 15 is_stmt 0
 804 05b4 97000000 		call	_Z10stopKernelv@plt
 804      E7800000 
 805              	.LVL118:
 806              	.L24:
 807              	.LBE52:
 808              	.LBE55:
 809              	.LBE57:
 810              	.LBE58:
 143:src/APP.cpp   ****     }
 144:src/APP.cpp   **** 
 145:src/APP.cpp   ****     assert(MemAlloc::get()->getUserlandUsage() == Thread::initialUserMemoryUsage);
 811              		.loc 1 145 5 is_stmt 1
 812 05bc 97000000 		call	_ZN8MemAlloc3getEv@plt
 812      E7800000 
 813              	.LVL119:
 814 05c4 97000000 		call	_ZN8MemAlloc16getUserlandUsageEv@plt
 814      E7800000 
 815              	.LVL120:
 816 05cc 97070000 		la	a5,_ZN6Thread22initialUserMemoryUsageE
 816      83B70700 
 817 05d4 83B70700 		ld	a5,0(a5)
 818              	.LVL121:
 819              	.LBB59:
 820              	.LBB60:
  21:src/../h/my_console.h ****         return;
 821              		.loc 2 21 5
 822 05d8 6394A704 		bne	a5,a0,.L32
  22:src/../h/my_console.h **** 
 823              		.loc 2 22 9
 824              	.LVL122:
 825              	.LBE60:
 826              	.LBE59:
 146:src/APP.cpp   ****     putString("=== Success in testing system calls");
 827              		.loc 1 146 5
 828              		.loc 1 146 14 is_stmt 0
 829 05dc 17050000 		lla	a0,.LC10
 829      13050500 
 830 05e4 97000000 		call	_Z9putStringPKc@plt
 830      E7800000 
GAS LISTING /tmp/ccEiJpMx.s 			page 24


 831              	.LVL123:
 147:src/APP.cpp   ****     putNewline();
 832              		.loc 1 147 5 is_stmt 1
 833              		.loc 1 147 15 is_stmt 0
 834 05ec 97000000 		call	_Z10putNewlinev@plt
 834      E7800000 
 835              	.LVL124:
 148:src/APP.cpp   **** }
 836              		.loc 1 148 1
 837 05f4 83308104 		ld	ra,72(sp)
 838              		.cfi_remember_state
 839              		.cfi_restore 1
 840 05f8 03340104 		ld	s0,64(sp)
 841              		.cfi_restore 8
 842              		.cfi_def_cfa 2, 80
 843 05fc 83348103 		ld	s1,56(sp)
 844              		.cfi_restore 9
 845              	.LVL125:
 846 0600 03390103 		ld	s2,48(sp)
 847              		.cfi_restore 18
 848 0604 83398102 		ld	s3,40(sp)
 849              		.cfi_restore 19
 850 0608 033A0102 		ld	s4,32(sp)
 851              		.cfi_restore 20
 852              	.LVL126:
 853 060c 833A8101 		ld	s5,24(sp)
 854              		.cfi_restore 21
 855              	.LVL127:
 856 0610 033B0101 		ld	s6,16(sp)
 857              		.cfi_restore 22
 858 0614 833B8100 		ld	s7,8(sp)
 859              		.cfi_restore 23
 860 0618 13010105 		addi	sp,sp,80
 861              		.cfi_def_cfa_offset 0
 862 061c 67800000 		jr	ra
 863              	.LVL128:
 864              	.L32:
 865              		.cfi_restore_state
 866              	.LBB62:
 867              	.LBB61:
  24:src/../h/my_console.h ****     putString(file);
 868              		.loc 2 24 5 is_stmt 1
  24:src/../h/my_console.h ****     putString(file);
 869              		.loc 2 24 14 is_stmt 0
 870 0620 17050000 		lla	a0,.LC2
 870      13050500 
 871              	.LVL129:
 872 0628 97000000 		call	_Z9putStringPKc@plt
 872      E7800000 
 873              	.LVL130:
  25:src/../h/my_console.h ****     putString("    line: ");
 874              		.loc 2 25 5 is_stmt 1
  25:src/../h/my_console.h ****     putString("    line: ");
 875              		.loc 2 25 14 is_stmt 0
 876 0630 17050000 		lla	a0,.LC3
 876      13050500 
 877 0638 97000000 		call	_Z9putStringPKc@plt
GAS LISTING /tmp/ccEiJpMx.s 			page 25


 877      E7800000 
 878              	.LVL131:
  26:src/../h/my_console.h ****     putInt(line);
 879              		.loc 2 26 5 is_stmt 1
  26:src/../h/my_console.h ****     putInt(line);
 880              		.loc 2 26 14 is_stmt 0
 881 0640 17050000 		lla	a0,.LC4
 881      13050500 
 882 0648 97000000 		call	_Z9putStringPKc@plt
 882      E7800000 
 883              	.LVL132:
  27:src/../h/my_console.h ****     putString("   ===========================");
 884              		.loc 2 27 5 is_stmt 1
  27:src/../h/my_console.h ****     putString("   ===========================");
 885              		.loc 2 27 11 is_stmt 0
 886 0650 13051009 		li	a0,145
 887 0654 97000000 		call	_Z6putInti@plt
 887      E7800000 
 888              	.LVL133:
  28:src/../h/my_console.h ****     putNewline();
 889              		.loc 2 28 5 is_stmt 1
  28:src/../h/my_console.h ****     putNewline();
 890              		.loc 2 28 14 is_stmt 0
 891 065c 17050000 		lla	a0,.LC5
 891      13050500 
 892 0664 97000000 		call	_Z9putStringPKc@plt
 892      E7800000 
 893              	.LVL134:
  29:src/../h/my_console.h **** 
 894              		.loc 2 29 5 is_stmt 1
  29:src/../h/my_console.h **** 
 895              		.loc 2 29 15 is_stmt 0
 896 066c 97000000 		call	_Z10putNewlinev@plt
 896      E7800000 
 897              	.LVL135:
 898              		.loc 2 31 5 is_stmt 1
 899              		.loc 2 31 15 is_stmt 0
 900 0674 97000000 		call	_Z10stopKernelv@plt
 900      E7800000 
 901              	.LVL136:
 902              	.LBE61:
 903              	.LBE62:
 904              		.cfi_endproc
 905              	.LFE15:
 907              		.section	.rodata.str1.8
 908 012c 00000000 		.align	3
 909              	.LC11:
 910 0130 3D3D3D20 		.string	"=== Testing \"testMemoryAllocator\""
 910      54657374 
 910      696E6720 
 910      22746573 
 910      744D656D 
 911 0152 00000000 		.align	3
 911      0000
 912              	.LC12:
 913 0158 3D3D3D20 		.string	"=== Success in testing memory allocator"
 913      53756363 
GAS LISTING /tmp/ccEiJpMx.s 			page 26


 913      65737320 
 913      696E2074 
 913      65737469 
 914              		.text
 915              		.align	2
 916              		.globl	_Z19testMemoryAllocatorv
 918              	_Z19testMemoryAllocatorv:
 919              	.LFB16:
 149:src/APP.cpp   **** 
 150:src/APP.cpp   **** void testMemoryAllocator()
 151:src/APP.cpp   **** {
 920              		.loc 1 151 1 is_stmt 1
 921              		.cfi_startproc
 922 067c 130101FD 		addi	sp,sp,-48
 923              		.cfi_def_cfa_offset 48
 924 0680 23341102 		sd	ra,40(sp)
 925 0684 23308102 		sd	s0,32(sp)
 926 0688 233C9100 		sd	s1,24(sp)
 927 068c 23382101 		sd	s2,16(sp)
 928 0690 23343101 		sd	s3,8(sp)
 929              		.cfi_offset 1, -8
 930              		.cfi_offset 8, -16
 931              		.cfi_offset 9, -24
 932              		.cfi_offset 18, -32
 933              		.cfi_offset 19, -40
 934 0694 13040103 		addi	s0,sp,48
 935              		.cfi_def_cfa 8, 0
 152:src/APP.cpp   ****     putString("=== Testing \"testMemoryAllocator\"");
 936              		.loc 1 152 5
 937              		.loc 1 152 14 is_stmt 0
 938 0698 17050000 		lla	a0,.LC11
 938      13050500 
 939 06a0 97000000 		call	_Z9putStringPKc@plt
 939      E7800000 
 940              	.LVL137:
 153:src/APP.cpp   ****     putNewline();
 941              		.loc 1 153 5 is_stmt 1
 942              		.loc 1 153 15 is_stmt 0
 943 06a8 97000000 		call	_Z10putNewlinev@plt
 943      E7800000 
 944              	.LVL138:
 154:src/APP.cpp   ****     int n = 1000;
 945              		.loc 1 154 5 is_stmt 1
 155:src/APP.cpp   ****     int **a;
 946              		.loc 1 155 5
 156:src/APP.cpp   ****     a = (int**)mem_alloc(n * sizeof(void*));
 947              		.loc 1 156 5
 948              		.loc 1 156 25 is_stmt 0
 949 06b0 37250000 		li	a0,8192
 950 06b4 130505F4 		addi	a0,a0,-192
 951 06b8 97000000 		call	_Z9mem_allocm@plt
 951      E7800000 
 952              	.LVL139:
 953 06c0 93090500 		mv	s3,a0
 954              	.LVL140:
 157:src/APP.cpp   ****     for(int i=0; i<n; i++)
 955              		.loc 1 157 5 is_stmt 1
GAS LISTING /tmp/ccEiJpMx.s 			page 27


 956              	.LBB74:
 957              		.loc 1 157 13 is_stmt 0
 958 06c4 93040000 		li	s1,0
 959              	.LVL141:
 960              	.L35:
 961              		.loc 1 157 19 is_stmt 1 discriminator 3
 962 06c8 9307703E 		li	a5,999
 963 06cc 63C49702 		bgt	s1,a5,.L42
 158:src/APP.cpp   ****     {
 159:src/APP.cpp   ****         a[i] = (int*)mem_alloc(sizeof(int));
 964              		.loc 1 159 9 discriminator 2
 965              		.loc 1 159 12 is_stmt 0 discriminator 2
 966 06d0 13993400 		slli	s2,s1,3
 967 06d4 33892901 		add	s2,s3,s2
 968              		.loc 1 159 31 discriminator 2
 969 06d8 13054000 		li	a0,4
 970 06dc 97000000 		call	_Z9mem_allocm@plt
 970      E7800000 
 971              	.LVL142:
 972              		.loc 1 159 14 discriminator 2
 973 06e4 2330A900 		sd	a0,0(s2)
 160:src/APP.cpp   ****         *a[i] = i;
 974              		.loc 1 160 9 is_stmt 1 discriminator 2
 975              		.loc 1 160 15 is_stmt 0 discriminator 2
 976 06e8 23209500 		sw	s1,0(a0)
 157:src/APP.cpp   ****     for(int i=0; i<n; i++)
 977              		.loc 1 157 5 is_stmt 1 discriminator 2
 978 06ec 9B841400 		addiw	s1,s1,1
 979              	.LVL143:
 980 06f0 6FF09FFD 		j	.L35
 981              	.LVL144:
 982              	.L42:
 983              	.LBE74:
 984              	.LBB75:
 161:src/APP.cpp   ****     }
 162:src/APP.cpp   **** 
 163:src/APP.cpp   ****     int result = 0;
 164:src/APP.cpp   ****     for(int i=0; i<n; i++)
 985              		.loc 1 164 13 is_stmt 0
 986 06f4 93070000 		li	a5,0
 987              	.LBE75:
 163:src/APP.cpp   ****     for(int i=0; i<n; i++)
 988              		.loc 1 163 9
 989 06f8 93060000 		li	a3,0
 990              	.L34:
 991              	.LVL145:
 992              	.LBB76:
 993              		.loc 1 164 19 is_stmt 1 discriminator 3
 994 06fc 1307703E 		li	a4,999
 995 0700 6340F702 		bgt	a5,a4,.L36
 165:src/APP.cpp   ****     {
 166:src/APP.cpp   ****         result += *a[i];
 996              		.loc 1 166 9 discriminator 2
 997              		.loc 1 166 23 is_stmt 0 discriminator 2
 998 0704 13973700 		slli	a4,a5,3
 999 0708 3387E900 		add	a4,s3,a4
 1000 070c 03370700 		ld	a4,0(a4)
GAS LISTING /tmp/ccEiJpMx.s 			page 28


 1001              		.loc 1 166 19 discriminator 2
 1002 0710 03270700 		lw	a4,0(a4)
 1003              		.loc 1 166 16 discriminator 2
 1004 0714 BB06D700 		addw	a3,a4,a3
 1005              	.LVL146:
 164:src/APP.cpp   ****     {
 1006              		.loc 1 164 5 is_stmt 1 discriminator 2
 1007 0718 9B871700 		addiw	a5,a5,1
 1008              	.LVL147:
 1009 071c 6FF01FFE 		j	.L34
 1010              	.LVL148:
 1011              	.L36:
 1012              	.LBE76:
 167:src/APP.cpp   ****     }
 168:src/APP.cpp   **** 
 169:src/APP.cpp   **** //    uint64 vau = n * sizeof(void*);
 170:src/APP.cpp   **** //    if(n % MEM_BLOCK_SIZE != 0)
 171:src/APP.cpp   **** //        vau +=  MEM_BLOCK_SIZE - ((sizeof(int)* n) % MEM_BLOCK_SIZE);
 172:src/APP.cpp   **** //    vau += MEM_BLOCK_SIZE * n;
 173:src/APP.cpp   **** //    assert(MemAlloc::get()->getUserlandUsage() == vau);
 174:src/APP.cpp   **** 
 175:src/APP.cpp   **** //    putInt(result);
 176:src/APP.cpp   **** //    putNewline();
 177:src/APP.cpp   **** 
 178:src/APP.cpp   ****     assert(result == (n-1) * n / 2);
 1013              		.loc 1 178 5
 1014 0720 B7A70700 		li	a5,499712
 1015              	.LVL149:
 1016 0724 9387C7F2 		addi	a5,a5,-212
 1017              	.LVL150:
 1018              	.LBB77:
 1019              	.LBB78:
  21:src/../h/my_console.h ****         return;
 1020              		.loc 2 21 5
 1021 0728 6398F602 		bne	a3,a5,.L45
 1022              	.LBE78:
 1023              	.LBE77:
 1024              	.LBB80:
 179:src/APP.cpp   **** 
 180:src/APP.cpp   **** //    uint64 oldTaken = MemAlloc::get()->getUserlandUsage();
 181:src/APP.cpp   **** //    uint64 newTaken;
 182:src/APP.cpp   **** 
 183:src/APP.cpp   ****     int t;
 184:src/APP.cpp   ****     for(int i=0; i<n; i++)
 1025              		.loc 1 184 13 is_stmt 0
 1026 072c 93040000 		li	s1,0
 1027              	.LVL151:
 1028              	.L37:
 1029              		.loc 1 184 19 is_stmt 1 discriminator 3
 1030 0730 9307703E 		li	a5,999
 1031 0734 63CE970C 		bgt	s1,a5,.L38
 185:src/APP.cpp   ****     {
 186:src/APP.cpp   ****         t = mem_free(a[i]);
 1032              		.loc 1 186 9 discriminator 2
 1033              		.loc 1 186 25 is_stmt 0 discriminator 2
 1034 0738 93973400 		slli	a5,s1,3
 1035 073c B387F900 		add	a5,s3,a5
GAS LISTING /tmp/ccEiJpMx.s 			page 29


 1036              		.loc 1 186 21 discriminator 2
 1037 0740 03B50700 		ld	a0,0(a5)
 1038 0744 97000000 		call	_Z8mem_freePv@plt
 1038      E7800000 
 1039              	.LVL152:
 187:src/APP.cpp   ****         assert(t == 0);
 1040              		.loc 1 187 9 is_stmt 1 discriminator 2
 1041              	.LBB81:
 1042              	.LBB82:
  21:src/../h/my_console.h ****         return;
 1043              		.loc 2 21 5 discriminator 2
 1044 074c 63140506 		bnez	a0,.L46
  22:src/../h/my_console.h **** 
 1045              		.loc 2 22 9 discriminator 2
 1046              	.LVL153:
 1047              	.LBE82:
 1048              	.LBE81:
 184:src/APP.cpp   ****     {
 1049              		.loc 1 184 5 discriminator 2
 1050 0750 9B841400 		addiw	s1,s1,1
 1051              	.LVL154:
 1052 0754 6FF0DFFD 		j	.L37
 1053              	.LVL155:
 1054              	.L45:
 1055              	.LBE80:
 1056              	.LBB85:
 1057              	.LBB79:
  24:src/../h/my_console.h ****     putString(file);
 1058              		.loc 2 24 5
  24:src/../h/my_console.h ****     putString(file);
 1059              		.loc 2 24 14 is_stmt 0
 1060 0758 17050000 		lla	a0,.LC2
 1060      13050500 
 1061 0760 97000000 		call	_Z9putStringPKc@plt
 1061      E7800000 
 1062              	.LVL156:
  25:src/../h/my_console.h ****     putString("    line: ");
 1063              		.loc 2 25 5 is_stmt 1
  25:src/../h/my_console.h ****     putString("    line: ");
 1064              		.loc 2 25 14 is_stmt 0
 1065 0768 17050000 		lla	a0,.LC3
 1065      13050500 
 1066 0770 97000000 		call	_Z9putStringPKc@plt
 1066      E7800000 
 1067              	.LVL157:
  26:src/../h/my_console.h ****     putInt(line);
 1068              		.loc 2 26 5 is_stmt 1
  26:src/../h/my_console.h ****     putInt(line);
 1069              		.loc 2 26 14 is_stmt 0
 1070 0778 17050000 		lla	a0,.LC4
 1070      13050500 
 1071 0780 97000000 		call	_Z9putStringPKc@plt
 1071      E7800000 
 1072              	.LVL158:
  27:src/../h/my_console.h ****     putString("   ===========================");
 1073              		.loc 2 27 5 is_stmt 1
  27:src/../h/my_console.h ****     putString("   ===========================");
GAS LISTING /tmp/ccEiJpMx.s 			page 30


 1074              		.loc 2 27 11 is_stmt 0
 1075 0788 1305200B 		li	a0,178
 1076 078c 97000000 		call	_Z6putInti@plt
 1076      E7800000 
 1077              	.LVL159:
  28:src/../h/my_console.h ****     putNewline();
 1078              		.loc 2 28 5 is_stmt 1
  28:src/../h/my_console.h ****     putNewline();
 1079              		.loc 2 28 14 is_stmt 0
 1080 0794 17050000 		lla	a0,.LC5
 1080      13050500 
 1081 079c 97000000 		call	_Z9putStringPKc@plt
 1081      E7800000 
 1082              	.LVL160:
  29:src/../h/my_console.h **** 
 1083              		.loc 2 29 5 is_stmt 1
  29:src/../h/my_console.h **** 
 1084              		.loc 2 29 15 is_stmt 0
 1085 07a4 97000000 		call	_Z10putNewlinev@plt
 1085      E7800000 
 1086              	.LVL161:
 1087              		.loc 2 31 5 is_stmt 1
 1088              		.loc 2 31 15 is_stmt 0
 1089 07ac 97000000 		call	_Z10stopKernelv@plt
 1089      E7800000 
 1090              	.LVL162:
 1091              	.L46:
 1092              	.LBE79:
 1093              	.LBE85:
 1094              	.LBB86:
 1095              	.LBB84:
 1096              	.LBB83:
  24:src/../h/my_console.h ****     putString(file);
 1097              		.loc 2 24 5 is_stmt 1
  24:src/../h/my_console.h ****     putString(file);
 1098              		.loc 2 24 14 is_stmt 0
 1099 07b4 17050000 		lla	a0,.LC2
 1099      13050500 
 1100              	.LVL163:
 1101 07bc 97000000 		call	_Z9putStringPKc@plt
 1101      E7800000 
 1102              	.LVL164:
  25:src/../h/my_console.h ****     putString("    line: ");
 1103              		.loc 2 25 5 is_stmt 1
  25:src/../h/my_console.h ****     putString("    line: ");
 1104              		.loc 2 25 14 is_stmt 0
 1105 07c4 17050000 		lla	a0,.LC3
 1105      13050500 
 1106 07cc 97000000 		call	_Z9putStringPKc@plt
 1106      E7800000 
 1107              	.LVL165:
  26:src/../h/my_console.h ****     putInt(line);
 1108              		.loc 2 26 5 is_stmt 1
  26:src/../h/my_console.h ****     putInt(line);
 1109              		.loc 2 26 14 is_stmt 0
 1110 07d4 17050000 		lla	a0,.LC4
 1110      13050500 
GAS LISTING /tmp/ccEiJpMx.s 			page 31


 1111 07dc 97000000 		call	_Z9putStringPKc@plt
 1111      E7800000 
 1112              	.LVL166:
  27:src/../h/my_console.h ****     putString("   ===========================");
 1113              		.loc 2 27 5 is_stmt 1
  27:src/../h/my_console.h ****     putString("   ===========================");
 1114              		.loc 2 27 11 is_stmt 0
 1115 07e4 1305B00B 		li	a0,187
 1116 07e8 97000000 		call	_Z6putInti@plt
 1116      E7800000 
 1117              	.LVL167:
  28:src/../h/my_console.h ****     putNewline();
 1118              		.loc 2 28 5 is_stmt 1
  28:src/../h/my_console.h ****     putNewline();
 1119              		.loc 2 28 14 is_stmt 0
 1120 07f0 17050000 		lla	a0,.LC5
 1120      13050500 
 1121 07f8 97000000 		call	_Z9putStringPKc@plt
 1121      E7800000 
 1122              	.LVL168:
  29:src/../h/my_console.h **** 
 1123              		.loc 2 29 5 is_stmt 1
  29:src/../h/my_console.h **** 
 1124              		.loc 2 29 15 is_stmt 0
 1125 0800 97000000 		call	_Z10putNewlinev@plt
 1125      E7800000 
 1126              	.LVL169:
 1127              		.loc 2 31 5 is_stmt 1
 1128              		.loc 2 31 15 is_stmt 0
 1129 0808 97000000 		call	_Z10stopKernelv@plt
 1129      E7800000 
 1130              	.LVL170:
 1131              	.L38:
 1132              	.LBE83:
 1133              	.LBE84:
 1134              	.LBE86:
 188:src/APP.cpp   **** 
 189:src/APP.cpp   **** //        newTaken = MemAlloc::get()->getUserlandUsage();
 190:src/APP.cpp   **** //        assert(oldTaken - newTaken == MEM_BLOCK_SIZE);
 191:src/APP.cpp   ****     }
 192:src/APP.cpp   **** 
 193:src/APP.cpp   **** //    assert(MemAlloc::get()->getUserlandUsage() == MEM_BLOCK_SIZE);
 194:src/APP.cpp   **** 
 195:src/APP.cpp   ****     t = mem_free(a);
 1135              		.loc 1 195 5 is_stmt 1
 1136              		.loc 1 195 17 is_stmt 0
 1137 0810 13850900 		mv	a0,s3
 1138 0814 97000000 		call	_Z8mem_freePv@plt
 1138      E7800000 
 1139              	.LVL171:
 196:src/APP.cpp   ****     assert(t == 0);
 1140              		.loc 1 196 5 is_stmt 1
 1141              	.LBB87:
 1142              	.LBB88:
  21:src/../h/my_console.h ****         return;
 1143              		.loc 2 21 5
 1144 081c 631C0504 		bnez	a0,.L47
GAS LISTING /tmp/ccEiJpMx.s 			page 32


  22:src/../h/my_console.h **** 
 1145              		.loc 2 22 9
 1146              	.LVL172:
 1147              	.LBE88:
 1148              	.LBE87:
 197:src/APP.cpp   **** 
 198:src/APP.cpp   ****     assert(MemAlloc::get()->getUserlandUsage() == Thread::initialUserMemoryUsage);
 1149              		.loc 1 198 5
 1150 0820 97000000 		call	_ZN8MemAlloc3getEv@plt
 1150      E7800000 
 1151              	.LVL173:
 1152 0828 97000000 		call	_ZN8MemAlloc16getUserlandUsageEv@plt
 1152      E7800000 
 1153              	.LVL174:
 1154 0830 97070000 		la	a5,_ZN6Thread22initialUserMemoryUsageE
 1154      83B70700 
 1155 0838 83B70700 		ld	a5,0(a5)
 1156              	.LVL175:
 1157              	.LBB90:
 1158              	.LBB91:
  21:src/../h/my_console.h ****         return;
 1159              		.loc 2 21 5
 1160 083c 639AA708 		bne	a5,a0,.L48
  22:src/../h/my_console.h **** 
 1161              		.loc 2 22 9
 1162              	.LVL176:
 1163              	.LBE91:
 1164              	.LBE90:
 199:src/APP.cpp   ****     putString("=== Success in testing memory allocator");
 1165              		.loc 1 199 5
 1166              		.loc 1 199 14 is_stmt 0
 1167 0840 17050000 		lla	a0,.LC12
 1167      13050500 
 1168 0848 97000000 		call	_Z9putStringPKc@plt
 1168      E7800000 
 1169              	.LVL177:
 200:src/APP.cpp   ****     putNewline();
 1170              		.loc 1 200 5 is_stmt 1
 1171              		.loc 1 200 15 is_stmt 0
 1172 0850 97000000 		call	_Z10putNewlinev@plt
 1172      E7800000 
 1173              	.LVL178:
 201:src/APP.cpp   **** }
 1174              		.loc 1 201 1
 1175 0858 83308102 		ld	ra,40(sp)
 1176              		.cfi_remember_state
 1177              		.cfi_restore 1
 1178 085c 03340102 		ld	s0,32(sp)
 1179              		.cfi_restore 8
 1180              		.cfi_def_cfa 2, 48
 1181 0860 83348101 		ld	s1,24(sp)
 1182              		.cfi_restore 9
 1183              	.LVL179:
 1184 0864 03390101 		ld	s2,16(sp)
 1185              		.cfi_restore 18
 1186 0868 83398100 		ld	s3,8(sp)
 1187              		.cfi_restore 19
GAS LISTING /tmp/ccEiJpMx.s 			page 33


 1188              	.LVL180:
 1189 086c 13010103 		addi	sp,sp,48
 1190              		.cfi_def_cfa_offset 0
 1191 0870 67800000 		jr	ra
 1192              	.LVL181:
 1193              	.L47:
 1194              		.cfi_restore_state
 1195              	.LBB93:
 1196              	.LBB89:
  24:src/../h/my_console.h ****     putString(file);
 1197              		.loc 2 24 5 is_stmt 1
  24:src/../h/my_console.h ****     putString(file);
 1198              		.loc 2 24 14 is_stmt 0
 1199 0874 17050000 		lla	a0,.LC2
 1199      13050500 
 1200              	.LVL182:
 1201 087c 97000000 		call	_Z9putStringPKc@plt
 1201      E7800000 
 1202              	.LVL183:
  25:src/../h/my_console.h ****     putString("    line: ");
 1203              		.loc 2 25 5 is_stmt 1
  25:src/../h/my_console.h ****     putString("    line: ");
 1204              		.loc 2 25 14 is_stmt 0
 1205 0884 17050000 		lla	a0,.LC3
 1205      13050500 
 1206 088c 97000000 		call	_Z9putStringPKc@plt
 1206      E7800000 
 1207              	.LVL184:
  26:src/../h/my_console.h ****     putInt(line);
 1208              		.loc 2 26 5 is_stmt 1
  26:src/../h/my_console.h ****     putInt(line);
 1209              		.loc 2 26 14 is_stmt 0
 1210 0894 17050000 		lla	a0,.LC4
 1210      13050500 
 1211 089c 97000000 		call	_Z9putStringPKc@plt
 1211      E7800000 
 1212              	.LVL185:
  27:src/../h/my_console.h ****     putString("   ===========================");
 1213              		.loc 2 27 5 is_stmt 1
  27:src/../h/my_console.h ****     putString("   ===========================");
 1214              		.loc 2 27 11 is_stmt 0
 1215 08a4 1305400C 		li	a0,196
 1216 08a8 97000000 		call	_Z6putInti@plt
 1216      E7800000 
 1217              	.LVL186:
  28:src/../h/my_console.h ****     putNewline();
 1218              		.loc 2 28 5 is_stmt 1
  28:src/../h/my_console.h ****     putNewline();
 1219              		.loc 2 28 14 is_stmt 0
 1220 08b0 17050000 		lla	a0,.LC5
 1220      13050500 
 1221 08b8 97000000 		call	_Z9putStringPKc@plt
 1221      E7800000 
 1222              	.LVL187:
  29:src/../h/my_console.h **** 
 1223              		.loc 2 29 5 is_stmt 1
  29:src/../h/my_console.h **** 
GAS LISTING /tmp/ccEiJpMx.s 			page 34


 1224              		.loc 2 29 15 is_stmt 0
 1225 08c0 97000000 		call	_Z10putNewlinev@plt
 1225      E7800000 
 1226              	.LVL188:
 1227              		.loc 2 31 5 is_stmt 1
 1228              		.loc 2 31 15 is_stmt 0
 1229 08c8 97000000 		call	_Z10stopKernelv@plt
 1229      E7800000 
 1230              	.LVL189:
 1231              	.L48:
 1232              	.LBE89:
 1233              	.LBE93:
 1234              	.LBB94:
 1235              	.LBB92:
  24:src/../h/my_console.h ****     putString(file);
 1236              		.loc 2 24 5 is_stmt 1
  24:src/../h/my_console.h ****     putString(file);
 1237              		.loc 2 24 14 is_stmt 0
 1238 08d0 17050000 		lla	a0,.LC2
 1238      13050500 
 1239              	.LVL190:
 1240 08d8 97000000 		call	_Z9putStringPKc@plt
 1240      E7800000 
 1241              	.LVL191:
  25:src/../h/my_console.h ****     putString("    line: ");
 1242              		.loc 2 25 5 is_stmt 1
  25:src/../h/my_console.h ****     putString("    line: ");
 1243              		.loc 2 25 14 is_stmt 0
 1244 08e0 17050000 		lla	a0,.LC3
 1244      13050500 
 1245 08e8 97000000 		call	_Z9putStringPKc@plt
 1245      E7800000 
 1246              	.LVL192:
  26:src/../h/my_console.h ****     putInt(line);
 1247              		.loc 2 26 5 is_stmt 1
  26:src/../h/my_console.h ****     putInt(line);
 1248              		.loc 2 26 14 is_stmt 0
 1249 08f0 17050000 		lla	a0,.LC4
 1249      13050500 
 1250 08f8 97000000 		call	_Z9putStringPKc@plt
 1250      E7800000 
 1251              	.LVL193:
  27:src/../h/my_console.h ****     putString("   ===========================");
 1252              		.loc 2 27 5 is_stmt 1
  27:src/../h/my_console.h ****     putString("   ===========================");
 1253              		.loc 2 27 11 is_stmt 0
 1254 0900 1305600C 		li	a0,198
 1255 0904 97000000 		call	_Z6putInti@plt
 1255      E7800000 
 1256              	.LVL194:
  28:src/../h/my_console.h ****     putNewline();
 1257              		.loc 2 28 5 is_stmt 1
  28:src/../h/my_console.h ****     putNewline();
 1258              		.loc 2 28 14 is_stmt 0
 1259 090c 17050000 		lla	a0,.LC5
 1259      13050500 
 1260 0914 97000000 		call	_Z9putStringPKc@plt
GAS LISTING /tmp/ccEiJpMx.s 			page 35


 1260      E7800000 
 1261              	.LVL195:
  29:src/../h/my_console.h **** 
 1262              		.loc 2 29 5 is_stmt 1
  29:src/../h/my_console.h **** 
 1263              		.loc 2 29 15 is_stmt 0
 1264 091c 97000000 		call	_Z10putNewlinev@plt
 1264      E7800000 
 1265              	.LVL196:
 1266              		.loc 2 31 5 is_stmt 1
 1267              		.loc 2 31 15 is_stmt 0
 1268 0924 97000000 		call	_Z10stopKernelv@plt
 1268      E7800000 
 1269              	.LVL197:
 1270              	.LBE92:
 1271              	.LBE94:
 1272              		.cfi_endproc
 1273              	.LFE16:
 1275              		.section	.rodata.str1.8
 1276              		.align	3
 1277              	.LC13:
 1278 0180 3D3D3D20 		.string	"=== App started"
 1278      41707020 
 1278      73746172 
 1278      74656400 
 1279              		.align	3
 1280              	.LC14:
 1281 0190 3D3D3D20 		.string	"=== App ended"
 1281      41707020 
 1281      656E6465 
 1281      6400
 1282              		.text
 1283              		.align	2
 1284              		.globl	_Z8userMainv
 1286              	_Z8userMainv:
 1287              	.LFB10:
  12:src/APP.cpp   **** //    __asm__ volatile ("csrw sscratch, x1"); // set spie bit to 1. spie signifies that we dont wan
 1288              		.loc 1 12 1 is_stmt 1
 1289              		.cfi_startproc
 1290 092c 130101FF 		addi	sp,sp,-16
 1291              		.cfi_def_cfa_offset 16
 1292 0930 23341100 		sd	ra,8(sp)
 1293 0934 23308100 		sd	s0,0(sp)
 1294              		.cfi_offset 1, -8
 1295              		.cfi_offset 8, -16
 1296 0938 13040101 		addi	s0,sp,16
 1297              		.cfi_def_cfa 8, 0
  15:src/APP.cpp   ****     putNewline();
 1298              		.loc 1 15 5
  15:src/APP.cpp   ****     putNewline();
 1299              		.loc 1 15 14 is_stmt 0
 1300 093c 17050000 		lla	a0,.LC13
 1300      13050500 
 1301 0944 97000000 		call	_Z9putStringPKc@plt
 1301      E7800000 
 1302              	.LVL198:
  16:src/APP.cpp   ****     assert(MemAlloc::get()->getUserlandUsage() == Thread::initialUserMemoryUsage);
GAS LISTING /tmp/ccEiJpMx.s 			page 36


 1303              		.loc 1 16 5 is_stmt 1
  16:src/APP.cpp   ****     assert(MemAlloc::get()->getUserlandUsage() == Thread::initialUserMemoryUsage);
 1304              		.loc 1 16 15 is_stmt 0
 1305 094c 97000000 		call	_Z10putNewlinev@plt
 1305      E7800000 
 1306              	.LVL199:
  17:src/APP.cpp   **** 
 1307              		.loc 1 17 5 is_stmt 1
 1308 0954 97000000 		call	_ZN8MemAlloc3getEv@plt
 1308      E7800000 
 1309              	.LVL200:
 1310 095c 97000000 		call	_ZN8MemAlloc16getUserlandUsageEv@plt
 1310      E7800000 
 1311              	.LVL201:
 1312 0964 97070000 		la	a5,_ZN6Thread22initialUserMemoryUsageE
 1312      83B70700 
 1313 096c 83B70700 		ld	a5,0(a5)
 1314              	.LVL202:
 1315              	.LBB97:
 1316              	.LBB98:
  21:src/../h/my_console.h ****         return;
 1317              		.loc 2 21 5
 1318 0970 6392A704 		bne	a5,a0,.L52
  22:src/../h/my_console.h **** 
 1319              		.loc 2 22 9
 1320              	.LVL203:
 1321              	.LBE98:
 1322              	.LBE97:
  19:src/APP.cpp   ****     testMemoryAllocator();
 1323              		.loc 1 19 5
  19:src/APP.cpp   ****     testMemoryAllocator();
 1324              		.loc 1 19 20 is_stmt 0
 1325 0974 97000000 		call	_Z15testSystemCallsv
 1325      E7800000 
 1326              	.LVL204:
  20:src/APP.cpp   ****     testSyncCall();
 1327              		.loc 1 20 5 is_stmt 1
  20:src/APP.cpp   ****     testSyncCall();
 1328              		.loc 1 20 24 is_stmt 0
 1329 097c 97000000 		call	_Z19testMemoryAllocatorv
 1329      E7800000 
 1330              	.LVL205:
  21:src/APP.cpp   **** 
 1331              		.loc 1 21 5 is_stmt 1
  21:src/APP.cpp   **** 
 1332              		.loc 1 21 17 is_stmt 0
 1333 0984 97000000 		call	_Z12testSyncCallv
 1333      E7800000 
 1334              	.LVL206:
  24:src/APP.cpp   ****     putNewline();
 1335              		.loc 1 24 5 is_stmt 1
  24:src/APP.cpp   ****     putNewline();
 1336              		.loc 1 24 14 is_stmt 0
 1337 098c 17050000 		lla	a0,.LC14
 1337      13050500 
 1338 0994 97000000 		call	_Z9putStringPKc@plt
 1338      E7800000 
GAS LISTING /tmp/ccEiJpMx.s 			page 37


 1339              	.LVL207:
  25:src/APP.cpp   **** }
 1340              		.loc 1 25 5 is_stmt 1
  25:src/APP.cpp   **** }
 1341              		.loc 1 25 15 is_stmt 0
 1342 099c 97000000 		call	_Z10putNewlinev@plt
 1342      E7800000 
 1343              	.LVL208:
  26:src/APP.cpp   **** 
 1344              		.loc 1 26 1
 1345 09a4 83308100 		ld	ra,8(sp)
 1346              		.cfi_remember_state
 1347              		.cfi_restore 1
 1348 09a8 03340100 		ld	s0,0(sp)
 1349              		.cfi_restore 8
 1350              		.cfi_def_cfa 2, 16
 1351 09ac 13010101 		addi	sp,sp,16
 1352              		.cfi_def_cfa_offset 0
 1353 09b0 67800000 		jr	ra
 1354              	.LVL209:
 1355              	.L52:
 1356              		.cfi_restore_state
 1357              	.LBB100:
 1358              	.LBB99:
  24:src/../h/my_console.h ****     putString(file);
 1359              		.loc 2 24 5 is_stmt 1
  24:src/../h/my_console.h ****     putString(file);
 1360              		.loc 2 24 14 is_stmt 0
 1361 09b4 17050000 		lla	a0,.LC2
 1361      13050500 
 1362              	.LVL210:
 1363 09bc 97000000 		call	_Z9putStringPKc@plt
 1363      E7800000 
 1364              	.LVL211:
  25:src/../h/my_console.h ****     putString("    line: ");
 1365              		.loc 2 25 5 is_stmt 1
  25:src/../h/my_console.h ****     putString("    line: ");
 1366              		.loc 2 25 14 is_stmt 0
 1367 09c4 17050000 		lla	a0,.LC3
 1367      13050500 
 1368 09cc 97000000 		call	_Z9putStringPKc@plt
 1368      E7800000 
 1369              	.LVL212:
  26:src/../h/my_console.h ****     putInt(line);
 1370              		.loc 2 26 5 is_stmt 1
  26:src/../h/my_console.h ****     putInt(line);
 1371              		.loc 2 26 14 is_stmt 0
 1372 09d4 17050000 		lla	a0,.LC4
 1372      13050500 
 1373 09dc 97000000 		call	_Z9putStringPKc@plt
 1373      E7800000 
 1374              	.LVL213:
  27:src/../h/my_console.h ****     putString("   ===========================");
 1375              		.loc 2 27 5 is_stmt 1
  27:src/../h/my_console.h ****     putString("   ===========================");
 1376              		.loc 2 27 11 is_stmt 0
 1377 09e4 13051001 		li	a0,17
GAS LISTING /tmp/ccEiJpMx.s 			page 38


 1378 09e8 97000000 		call	_Z6putInti@plt
 1378      E7800000 
 1379              	.LVL214:
  28:src/../h/my_console.h ****     putNewline();
 1380              		.loc 2 28 5 is_stmt 1
  28:src/../h/my_console.h ****     putNewline();
 1381              		.loc 2 28 14 is_stmt 0
 1382 09f0 17050000 		lla	a0,.LC5
 1382      13050500 
 1383 09f8 97000000 		call	_Z9putStringPKc@plt
 1383      E7800000 
 1384              	.LVL215:
  29:src/../h/my_console.h **** 
 1385              		.loc 2 29 5 is_stmt 1
  29:src/../h/my_console.h **** 
 1386              		.loc 2 29 15 is_stmt 0
 1387 0a00 97000000 		call	_Z10putNewlinev@plt
 1387      E7800000 
 1388              	.LVL216:
 1389              		.loc 2 31 5 is_stmt 1
 1390              		.loc 2 31 15 is_stmt 0
 1391 0a08 97000000 		call	_Z10stopKernelv@plt
 1391      E7800000 
 1392              	.LVL217:
 1393              	.LBE99:
 1394              	.LBE100:
 1395              		.cfi_endproc
 1396              	.LFE10:
 1398              	.Letext0:
 1399              		.file 3 "src/../h/../lib/hw.h"
 1400              		.file 4 "src/../h/c_api.h"
 1401              		.file 5 "src/../h/alloc.h"
GAS LISTING /tmp/ccEiJpMx.s 			page 39


DEFINED SYMBOLS
                            *ABS*:0000000000000000 APP.cpp
     /tmp/ccEiJpMx.s:17     .text:0000000000000000 _Z12testSyncCallv
     /tmp/ccEiJpMx.s:21     .text:0000000000000000 .L0 
     /tmp/ccEiJpMx.s:22     .text:0000000000000000 .L0 
     /tmp/ccEiJpMx.s:23     .text:0000000000000004 .L0 
     /tmp/ccEiJpMx.s:26     .text:000000000000000c .L0 
     /tmp/ccEiJpMx.s:27     .text:000000000000000c .L0 
     /tmp/ccEiJpMx.s:29     .text:0000000000000010 .L0 
     /tmp/ccEiJpMx.s:31     .text:0000000000000010 .L0 
     /tmp/ccEiJpMx.s:32     .text:0000000000000010 .L0 
     /tmp/ccEiJpMx.s:36     .text:0000000000000020 .L0 
     /tmp/ccEiJpMx.s:37     .text:0000000000000020 .L0 
     /tmp/ccEiJpMx.s:40     .text:0000000000000028 .L0 
     /tmp/ccEiJpMx.s:41     .text:0000000000000028 .L0 
     /tmp/ccEiJpMx.s:42     .text:0000000000000028 .L0 
     /tmp/ccEiJpMx.s:43     .text:0000000000000028 .L0 
     /tmp/ccEiJpMx.s:46     .text:0000000000000030 .L0 
     /tmp/ccEiJpMx.s:47     .text:0000000000000030 .L0 
     /tmp/ccEiJpMx.s:50     .text:0000000000000038 .L0 
     /tmp/ccEiJpMx.s:51     .text:0000000000000038 .L0 
     /tmp/ccEiJpMx.s:52     .text:0000000000000038 .L0 
     /tmp/ccEiJpMx.s:53     .text:0000000000000038 .L0 
     /tmp/ccEiJpMx.s:183    .text:0000000000000114 _Z3doAPv
     /tmp/ccEiJpMx.s:59     .text:0000000000000050 .L0 
     /tmp/ccEiJpMx.s:60     .text:0000000000000050 .L0 
     /tmp/ccEiJpMx.s:382    .text:0000000000000294 _Z3doBPv
     /tmp/ccEiJpMx.s:66     .text:0000000000000068 .L0 
     /tmp/ccEiJpMx.s:67     .text:0000000000000068 .L0 
     /tmp/ccEiJpMx.s:70     .text:0000000000000070 .L0 
     /tmp/ccEiJpMx.s:71     .text:0000000000000070 .L0 
     /tmp/ccEiJpMx.s:75     .text:000000000000007c .L0 
     /tmp/ccEiJpMx.s:76     .text:000000000000007c .L0 
     /tmp/ccEiJpMx.s:80     .text:0000000000000088 .L0 
         src/APP.cpp:61     .text:0000000000000088 .L0 
     /tmp/ccEiJpMx.s:86     .text:000000000000008c .L0 
     /tmp/ccEiJpMx.s:88     .text:000000000000008c .L0 
     /tmp/ccEiJpMx.s:92     .text:000000000000009c .L0 
     /tmp/ccEiJpMx.s:93     .text:00000000000000a0 .L0 
     /tmp/ccEiJpMx.s:95     .text:00000000000000a4 .L0 
     /tmp/ccEiJpMx.s:96     .text:00000000000000a4 .L0 
     /tmp/ccEiJpMx.s:98     .text:00000000000000a8 .L0 
     /tmp/ccEiJpMx.s:100    .text:00000000000000ac .L0 
     /tmp/ccEiJpMx.s:106    .text:00000000000000ac _Z3fibm
     /tmp/ccEiJpMx.s:109    .text:00000000000000ac .L0 
     /tmp/ccEiJpMx.s:111    .text:00000000000000ac .L0 
     /tmp/ccEiJpMx.s:112    .text:00000000000000b0 .L0 
     /tmp/ccEiJpMx.s:117    .text:00000000000000c0 .L0 
     /tmp/ccEiJpMx.s:118    .text:00000000000000c0 .L0 
     /tmp/ccEiJpMx.s:119    .text:00000000000000c0 .L0 
     /tmp/ccEiJpMx.s:120    .text:00000000000000c0 .L0 
     /tmp/ccEiJpMx.s:122    .text:00000000000000c4 .L0 
     /tmp/ccEiJpMx.s:125    .text:00000000000000c8 .L0 
     /tmp/ccEiJpMx.s:128    .text:00000000000000d0 .L0 
     /tmp/ccEiJpMx.s:132    .text:00000000000000d4 .L0 
     /tmp/ccEiJpMx.s:134    .text:00000000000000dc .L0 
     /tmp/ccEiJpMx.s:135    .text:00000000000000dc .L0 
GAS LISTING /tmp/ccEiJpMx.s 			page 40


     /tmp/ccEiJpMx.s:137    .text:00000000000000e0 .L0 
     /tmp/ccEiJpMx.s:138    .text:00000000000000e0 .L0 
     /tmp/ccEiJpMx.s:140    .text:00000000000000e4 .L0 
     /tmp/ccEiJpMx.s:142    .text:00000000000000e8 .L0 
     /tmp/ccEiJpMx.s:144    .text:00000000000000ec .L0 
     /tmp/ccEiJpMx.s:148    .text:00000000000000f0 .L0 
     /tmp/ccEiJpMx.s:150    .text:00000000000000f0 .L0 
     /tmp/ccEiJpMx.s:151    .text:00000000000000f0 .L0 
     /tmp/ccEiJpMx.s:156    .text:0000000000000100 .L0 
     /tmp/ccEiJpMx.s:160    .text:000000000000010c .L0 
     /tmp/ccEiJpMx.s:163    .text:0000000000000114 .L0 
     /tmp/ccEiJpMx.s:186    .text:0000000000000114 .L0 
     /tmp/ccEiJpMx.s:188    .text:0000000000000114 .L0 
     /tmp/ccEiJpMx.s:189    .text:0000000000000118 .L0 
     /tmp/ccEiJpMx.s:194    .text:0000000000000128 .L0 
     /tmp/ccEiJpMx.s:195    .text:0000000000000128 .L0 
     /tmp/ccEiJpMx.s:196    .text:0000000000000128 .L0 
     /tmp/ccEiJpMx.s:197    .text:0000000000000128 .L0 
     /tmp/ccEiJpMx.s:199    .text:000000000000012c .L0 
     /tmp/ccEiJpMx.s:201    .text:000000000000012c .L0 
     /tmp/ccEiJpMx.s:208    .text:0000000000000134 .L0 
     /tmp/ccEiJpMx.s:213    .text:0000000000000138 .L0 
     /tmp/ccEiJpMx.s:217    .text:000000000000013c .L0 
     /tmp/ccEiJpMx.s:220    .text:0000000000000144 .L0 
     /tmp/ccEiJpMx.s:230    .text:0000000000000160 .L0 
     /tmp/ccEiJpMx.s:235    .text:0000000000000164 .L0 
     /tmp/ccEiJpMx.s:236    .text:0000000000000164 .L0 
     /tmp/ccEiJpMx.s:237    .text:0000000000000164 .L0 
     /tmp/ccEiJpMx.s:240    .text:000000000000016c .L0 
     /tmp/ccEiJpMx.s:249    .text:0000000000000174 .L0 
     /tmp/ccEiJpMx.s:250    .text:0000000000000174 .L0 
     /tmp/ccEiJpMx.s:255    .text:0000000000000184 .L0 
     /tmp/ccEiJpMx.s:256    .text:0000000000000184 .L0 
     /tmp/ccEiJpMx.s:260    .text:0000000000000194 .L0 
     /tmp/ccEiJpMx.s:261    .text:0000000000000194 .L0 
     /tmp/ccEiJpMx.s:265    .text:00000000000001a4 .L0 
     /tmp/ccEiJpMx.s:266    .text:00000000000001a4 .L0 
     /tmp/ccEiJpMx.s:270    .text:00000000000001b0 .L0 
     /tmp/ccEiJpMx.s:271    .text:00000000000001b0 .L0 
     /tmp/ccEiJpMx.s:275    .text:00000000000001c0 .L0 
     /tmp/ccEiJpMx.s:276    .text:00000000000001c0 .L0 
     /tmp/ccEiJpMx.s:279    .text:00000000000001c8 .L0 
     /tmp/ccEiJpMx.s:280    .text:00000000000001c8 .L0 
     /tmp/ccEiJpMx.s:289    .text:00000000000001d0 .L0 
     /tmp/ccEiJpMx.s:290    .text:00000000000001d0 .L0 
     /tmp/ccEiJpMx.s:295    .text:00000000000001e0 .L0 
     /tmp/ccEiJpMx.s:296    .text:00000000000001e0 .L0 
     /tmp/ccEiJpMx.s:300    .text:00000000000001f0 .L0 
     /tmp/ccEiJpMx.s:301    .text:00000000000001f0 .L0 
     /tmp/ccEiJpMx.s:305    .text:0000000000000200 .L0 
     /tmp/ccEiJpMx.s:306    .text:0000000000000200 .L0 
     /tmp/ccEiJpMx.s:310    .text:000000000000020c .L0 
     /tmp/ccEiJpMx.s:311    .text:000000000000020c .L0 
     /tmp/ccEiJpMx.s:315    .text:000000000000021c .L0 
     /tmp/ccEiJpMx.s:316    .text:000000000000021c .L0 
     /tmp/ccEiJpMx.s:319    .text:0000000000000224 .L0 
     /tmp/ccEiJpMx.s:320    .text:0000000000000224 .L0 
GAS LISTING /tmp/ccEiJpMx.s 			page 41


     /tmp/ccEiJpMx.s:327    .text:000000000000022c .L0 
         src/APP.cpp:81     .text:000000000000022c .L0 
     /tmp/ccEiJpMx.s:333    .text:0000000000000230 .L0 
     /tmp/ccEiJpMx.s:335    .text:0000000000000230 .L0 
     /tmp/ccEiJpMx.s:340    .text:0000000000000238 .L0 
     /tmp/ccEiJpMx.s:341    .text:0000000000000238 .L0 
     /tmp/ccEiJpMx.s:342    .text:0000000000000238 .L0 
     /tmp/ccEiJpMx.s:343    .text:0000000000000238 .L0 
     /tmp/ccEiJpMx.s:347    .text:0000000000000248 .L0 
     /tmp/ccEiJpMx.s:348    .text:0000000000000248 .L0 
     /tmp/ccEiJpMx.s:352    .text:0000000000000258 .L0 
     /tmp/ccEiJpMx.s:353    .text:0000000000000258 .L0 
     /tmp/ccEiJpMx.s:357    .text:0000000000000268 .L0 
     /tmp/ccEiJpMx.s:358    .text:0000000000000268 .L0 
     /tmp/ccEiJpMx.s:362    .text:0000000000000274 .L0 
     /tmp/ccEiJpMx.s:363    .text:0000000000000274 .L0 
     /tmp/ccEiJpMx.s:367    .text:0000000000000284 .L0 
     /tmp/ccEiJpMx.s:368    .text:0000000000000284 .L0 
     /tmp/ccEiJpMx.s:371    .text:000000000000028c .L0 
     /tmp/ccEiJpMx.s:372    .text:000000000000028c .L0 
     /tmp/ccEiJpMx.s:376    .text:0000000000000294 .L0 
     /tmp/ccEiJpMx.s:385    .text:0000000000000294 .L0 
     /tmp/ccEiJpMx.s:387    .text:0000000000000294 .L0 
     /tmp/ccEiJpMx.s:388    .text:0000000000000298 .L0 
     /tmp/ccEiJpMx.s:393    .text:00000000000002a8 .L0 
     /tmp/ccEiJpMx.s:394    .text:00000000000002a8 .L0 
     /tmp/ccEiJpMx.s:395    .text:00000000000002a8 .L0 
     /tmp/ccEiJpMx.s:396    .text:00000000000002a8 .L0 
     /tmp/ccEiJpMx.s:398    .text:00000000000002ac .L0 
     /tmp/ccEiJpMx.s:400    .text:00000000000002ac .L0 
     /tmp/ccEiJpMx.s:406    .text:00000000000002b4 .L0 
     /tmp/ccEiJpMx.s:411    .text:00000000000002b8 .L0 
     /tmp/ccEiJpMx.s:415    .text:00000000000002bc .L0 
     /tmp/ccEiJpMx.s:418    .text:00000000000002c4 .L0 
     /tmp/ccEiJpMx.s:428    .text:00000000000002e0 .L0 
     /tmp/ccEiJpMx.s:433    .text:00000000000002e4 .L0 
     /tmp/ccEiJpMx.s:434    .text:00000000000002e4 .L0 
     /tmp/ccEiJpMx.s:435    .text:00000000000002e4 .L0 
     /tmp/ccEiJpMx.s:438    .text:00000000000002ec .L0 
     /tmp/ccEiJpMx.s:447    .text:00000000000002f4 .L0 
     /tmp/ccEiJpMx.s:448    .text:00000000000002f4 .L0 
     /tmp/ccEiJpMx.s:453    .text:0000000000000304 .L0 
     /tmp/ccEiJpMx.s:454    .text:0000000000000304 .L0 
     /tmp/ccEiJpMx.s:458    .text:0000000000000314 .L0 
     /tmp/ccEiJpMx.s:459    .text:0000000000000314 .L0 
     /tmp/ccEiJpMx.s:463    .text:0000000000000324 .L0 
     /tmp/ccEiJpMx.s:464    .text:0000000000000324 .L0 
     /tmp/ccEiJpMx.s:468    .text:0000000000000330 .L0 
     /tmp/ccEiJpMx.s:469    .text:0000000000000330 .L0 
     /tmp/ccEiJpMx.s:473    .text:0000000000000340 .L0 
     /tmp/ccEiJpMx.s:474    .text:0000000000000340 .L0 
     /tmp/ccEiJpMx.s:477    .text:0000000000000348 .L0 
     /tmp/ccEiJpMx.s:478    .text:0000000000000348 .L0 
     /tmp/ccEiJpMx.s:487    .text:0000000000000350 .L0 
     /tmp/ccEiJpMx.s:488    .text:0000000000000350 .L0 
     /tmp/ccEiJpMx.s:493    .text:0000000000000360 .L0 
     /tmp/ccEiJpMx.s:494    .text:0000000000000360 .L0 
GAS LISTING /tmp/ccEiJpMx.s 			page 42


     /tmp/ccEiJpMx.s:498    .text:0000000000000370 .L0 
     /tmp/ccEiJpMx.s:499    .text:0000000000000370 .L0 
     /tmp/ccEiJpMx.s:503    .text:0000000000000380 .L0 
     /tmp/ccEiJpMx.s:504    .text:0000000000000380 .L0 
     /tmp/ccEiJpMx.s:508    .text:000000000000038c .L0 
     /tmp/ccEiJpMx.s:509    .text:000000000000038c .L0 
     /tmp/ccEiJpMx.s:513    .text:000000000000039c .L0 
     /tmp/ccEiJpMx.s:514    .text:000000000000039c .L0 
     /tmp/ccEiJpMx.s:517    .text:00000000000003a4 .L0 
     /tmp/ccEiJpMx.s:518    .text:00000000000003a4 .L0 
     /tmp/ccEiJpMx.s:525    .text:00000000000003ac .L0 
     /tmp/ccEiJpMx.s:526    .text:00000000000003ac .L0 
     /tmp/ccEiJpMx.s:531    .text:00000000000003b4 .L0 
     /tmp/ccEiJpMx.s:532    .text:00000000000003b4 .L0 
     /tmp/ccEiJpMx.s:533    .text:00000000000003b4 .L0 
     /tmp/ccEiJpMx.s:534    .text:00000000000003b4 .L0 
     /tmp/ccEiJpMx.s:538    .text:00000000000003c4 .L0 
     /tmp/ccEiJpMx.s:539    .text:00000000000003c4 .L0 
     /tmp/ccEiJpMx.s:543    .text:00000000000003d4 .L0 
     /tmp/ccEiJpMx.s:544    .text:00000000000003d4 .L0 
     /tmp/ccEiJpMx.s:548    .text:00000000000003e4 .L0 
     /tmp/ccEiJpMx.s:549    .text:00000000000003e4 .L0 
     /tmp/ccEiJpMx.s:553    .text:00000000000003f0 .L0 
     /tmp/ccEiJpMx.s:554    .text:00000000000003f0 .L0 
     /tmp/ccEiJpMx.s:558    .text:0000000000000400 .L0 
     /tmp/ccEiJpMx.s:559    .text:0000000000000400 .L0 
     /tmp/ccEiJpMx.s:562    .text:0000000000000408 .L0 
     /tmp/ccEiJpMx.s:563    .text:0000000000000408 .L0 
     /tmp/ccEiJpMx.s:567    .text:0000000000000410 .L0 
     /tmp/ccEiJpMx.s:590    .text:0000000000000410 _Z15testSystemCallsv
     /tmp/ccEiJpMx.s:593    .text:0000000000000410 .L0 
     /tmp/ccEiJpMx.s:594    .text:0000000000000410 .L0 
     /tmp/ccEiJpMx.s:595    .text:0000000000000414 .L0 
     /tmp/ccEiJpMx.s:605    .text:0000000000000438 .L0 
     /tmp/ccEiJpMx.s:606    .text:0000000000000438 .L0 
     /tmp/ccEiJpMx.s:607    .text:0000000000000438 .L0 
     /tmp/ccEiJpMx.s:608    .text:0000000000000438 .L0 
     /tmp/ccEiJpMx.s:609    .text:0000000000000438 .L0 
     /tmp/ccEiJpMx.s:610    .text:0000000000000438 .L0 
     /tmp/ccEiJpMx.s:611    .text:0000000000000438 .L0 
     /tmp/ccEiJpMx.s:612    .text:0000000000000438 .L0 
     /tmp/ccEiJpMx.s:613    .text:0000000000000438 .L0 
     /tmp/ccEiJpMx.s:615    .text:000000000000043c .L0 
     /tmp/ccEiJpMx.s:617    .text:000000000000043c .L0 
     /tmp/ccEiJpMx.s:618    .text:000000000000043c .L0 
     /tmp/ccEiJpMx.s:622    .text:000000000000044c .L0 
     /tmp/ccEiJpMx.s:623    .text:000000000000044c .L0 
     /tmp/ccEiJpMx.s:626    .text:0000000000000454 .L0 
     /tmp/ccEiJpMx.s:627    .text:0000000000000454 .L0 
     /tmp/ccEiJpMx.s:629    .text:0000000000000454 .L0 
     /tmp/ccEiJpMx.s:630    .text:0000000000000454 .L0 
     /tmp/ccEiJpMx.s:633    .text:0000000000000458 .L0 
     /tmp/ccEiJpMx.s:635    .text:000000000000045c .L0 
     /tmp/ccEiJpMx.s:640    .text:0000000000000460 .L0 
     /tmp/ccEiJpMx.s:644    .text:0000000000000468 .L0 
     /tmp/ccEiJpMx.s:645    .text:0000000000000468 .L0 
     /tmp/ccEiJpMx.s:648    .text:000000000000046c .L0 
GAS LISTING /tmp/ccEiJpMx.s 			page 43


     /tmp/ccEiJpMx.s:649    .text:000000000000046c .L0 
     /tmp/ccEiJpMx.s:652    .text:0000000000000470 .L0 
     /tmp/ccEiJpMx.s:653    .text:0000000000000470 .L0 
     /tmp/ccEiJpMx.s:659    .text:0000000000000480 .L0 
     /tmp/ccEiJpMx.s:660    .text:0000000000000480 .L0 
     /tmp/ccEiJpMx.s:667    .text:0000000000000490 .L0 
     /tmp/ccEiJpMx.s:672    .text:0000000000000494 .L0 
     /tmp/ccEiJpMx.s:673    .text:0000000000000494 .L0 
     /tmp/ccEiJpMx.s:679    .text:0000000000000498 .L0 
     /tmp/ccEiJpMx.s:680    .text:0000000000000498 .L0 
     /tmp/ccEiJpMx.s:684    .text:000000000000049c .L0 
     /tmp/ccEiJpMx.s:687    .text:00000000000004a0 .L0 
     /tmp/ccEiJpMx.s:691    .text:00000000000004a4 .L0 
     /tmp/ccEiJpMx.s:696    .text:00000000000004a8 .L0 
     /tmp/ccEiJpMx.s:697    .text:00000000000004a8 .L0 
     /tmp/ccEiJpMx.s:702    .text:00000000000004b8 .L0 
     /tmp/ccEiJpMx.s:703    .text:00000000000004b8 .L0 
     /tmp/ccEiJpMx.s:707    .text:00000000000004c4 .L0 
     /tmp/ccEiJpMx.s:708    .text:00000000000004c4 .L0 
     /tmp/ccEiJpMx.s:712    .text:00000000000004d4 .L0 
     /tmp/ccEiJpMx.s:713    .text:00000000000004d4 .L0 
     /tmp/ccEiJpMx.s:717    .text:00000000000004e0 .L0 
     /tmp/ccEiJpMx.s:718    .text:00000000000004e0 .L0 
     /tmp/ccEiJpMx.s:722    .text:00000000000004f0 .L0 
     /tmp/ccEiJpMx.s:723    .text:00000000000004f0 .L0 
     /tmp/ccEiJpMx.s:727    .text:00000000000004fc .L0 
     /tmp/ccEiJpMx.s:728    .text:00000000000004fc .L0 
     /tmp/ccEiJpMx.s:733    .text:0000000000000504 .L0 
     /tmp/ccEiJpMx.s:734    .text:0000000000000504 .L0 
     /tmp/ccEiJpMx.s:735    .text:0000000000000504 .L0 
     /tmp/ccEiJpMx.s:736    .text:0000000000000504 .L0 
     /tmp/ccEiJpMx.s:740    .text:0000000000000514 .L0 
     /tmp/ccEiJpMx.s:741    .text:0000000000000514 .L0 
     /tmp/ccEiJpMx.s:745    .text:0000000000000524 .L0 
     /tmp/ccEiJpMx.s:746    .text:0000000000000524 .L0 
     /tmp/ccEiJpMx.s:750    .text:0000000000000534 .L0 
     /tmp/ccEiJpMx.s:751    .text:0000000000000534 .L0 
     /tmp/ccEiJpMx.s:755    .text:0000000000000540 .L0 
     /tmp/ccEiJpMx.s:756    .text:0000000000000540 .L0 
     /tmp/ccEiJpMx.s:760    .text:0000000000000550 .L0 
     /tmp/ccEiJpMx.s:761    .text:0000000000000550 .L0 
     /tmp/ccEiJpMx.s:764    .text:0000000000000558 .L0 
     /tmp/ccEiJpMx.s:765    .text:0000000000000558 .L0 
     /tmp/ccEiJpMx.s:773    .text:0000000000000560 .L0 
     /tmp/ccEiJpMx.s:774    .text:0000000000000560 .L0 
     /tmp/ccEiJpMx.s:779    .text:0000000000000570 .L0 
     /tmp/ccEiJpMx.s:780    .text:0000000000000570 .L0 
     /tmp/ccEiJpMx.s:784    .text:0000000000000580 .L0 
     /tmp/ccEiJpMx.s:785    .text:0000000000000580 .L0 
     /tmp/ccEiJpMx.s:789    .text:0000000000000590 .L0 
     /tmp/ccEiJpMx.s:790    .text:0000000000000590 .L0 
     /tmp/ccEiJpMx.s:794    .text:000000000000059c .L0 
     /tmp/ccEiJpMx.s:795    .text:000000000000059c .L0 
     /tmp/ccEiJpMx.s:799    .text:00000000000005ac .L0 
     /tmp/ccEiJpMx.s:800    .text:00000000000005ac .L0 
     /tmp/ccEiJpMx.s:803    .text:00000000000005b4 .L0 
     /tmp/ccEiJpMx.s:804    .text:00000000000005b4 .L0 
GAS LISTING /tmp/ccEiJpMx.s 			page 44


     /tmp/ccEiJpMx.s:812    .text:00000000000005bc .L0 
     /tmp/ccEiJpMx.s:822    .text:00000000000005d8 .L0 
     /tmp/ccEiJpMx.s:827    .text:00000000000005dc .L0 
     /tmp/ccEiJpMx.s:828    .text:00000000000005dc .L0 
     /tmp/ccEiJpMx.s:829    .text:00000000000005dc .L0 
     /tmp/ccEiJpMx.s:833    .text:00000000000005ec .L0 
     /tmp/ccEiJpMx.s:834    .text:00000000000005ec .L0 
     /tmp/ccEiJpMx.s:837    .text:00000000000005f4 .L0 
     /tmp/ccEiJpMx.s:838    .text:00000000000005f8 .L0 
     /tmp/ccEiJpMx.s:839    .text:00000000000005f8 .L0 
     /tmp/ccEiJpMx.s:841    .text:00000000000005fc .L0 
     /tmp/ccEiJpMx.s:842    .text:00000000000005fc .L0 
     /tmp/ccEiJpMx.s:844    .text:0000000000000600 .L0 
     /tmp/ccEiJpMx.s:847    .text:0000000000000604 .L0 
     /tmp/ccEiJpMx.s:849    .text:0000000000000608 .L0 
     /tmp/ccEiJpMx.s:851    .text:000000000000060c .L0 
     /tmp/ccEiJpMx.s:854    .text:0000000000000610 .L0 
     /tmp/ccEiJpMx.s:857    .text:0000000000000614 .L0 
     /tmp/ccEiJpMx.s:859    .text:0000000000000618 .L0 
     /tmp/ccEiJpMx.s:861    .text:000000000000061c .L0 
     /tmp/ccEiJpMx.s:865    .text:0000000000000620 .L0 
     /tmp/ccEiJpMx.s:869    .text:0000000000000620 .L0 
     /tmp/ccEiJpMx.s:870    .text:0000000000000620 .L0 
     /tmp/ccEiJpMx.s:875    .text:0000000000000630 .L0 
     /tmp/ccEiJpMx.s:876    .text:0000000000000630 .L0 
     /tmp/ccEiJpMx.s:880    .text:0000000000000640 .L0 
     /tmp/ccEiJpMx.s:881    .text:0000000000000640 .L0 
     /tmp/ccEiJpMx.s:885    .text:0000000000000650 .L0 
     /tmp/ccEiJpMx.s:886    .text:0000000000000650 .L0 
     /tmp/ccEiJpMx.s:890    .text:000000000000065c .L0 
     /tmp/ccEiJpMx.s:891    .text:000000000000065c .L0 
     /tmp/ccEiJpMx.s:895    .text:000000000000066c .L0 
     /tmp/ccEiJpMx.s:896    .text:000000000000066c .L0 
     /tmp/ccEiJpMx.s:899    .text:0000000000000674 .L0 
     /tmp/ccEiJpMx.s:900    .text:0000000000000674 .L0 
     /tmp/ccEiJpMx.s:904    .text:000000000000067c .L0 
     /tmp/ccEiJpMx.s:918    .text:000000000000067c _Z19testMemoryAllocatorv
     /tmp/ccEiJpMx.s:921    .text:000000000000067c .L0 
     /tmp/ccEiJpMx.s:922    .text:000000000000067c .L0 
     /tmp/ccEiJpMx.s:923    .text:0000000000000680 .L0 
     /tmp/ccEiJpMx.s:929    .text:0000000000000694 .L0 
     /tmp/ccEiJpMx.s:930    .text:0000000000000694 .L0 
     /tmp/ccEiJpMx.s:931    .text:0000000000000694 .L0 
     /tmp/ccEiJpMx.s:932    .text:0000000000000694 .L0 
     /tmp/ccEiJpMx.s:933    .text:0000000000000694 .L0 
     /tmp/ccEiJpMx.s:935    .text:0000000000000698 .L0 
     /tmp/ccEiJpMx.s:937    .text:0000000000000698 .L0 
     /tmp/ccEiJpMx.s:938    .text:0000000000000698 .L0 
     /tmp/ccEiJpMx.s:942    .text:00000000000006a8 .L0 
     /tmp/ccEiJpMx.s:943    .text:00000000000006a8 .L0 
     /tmp/ccEiJpMx.s:946    .text:00000000000006b0 .L0 
     /tmp/ccEiJpMx.s:947    .text:00000000000006b0 .L0 
     /tmp/ccEiJpMx.s:948    .text:00000000000006b0 .L0 
     /tmp/ccEiJpMx.s:949    .text:00000000000006b0 .L0 
     /tmp/ccEiJpMx.s:957    .text:00000000000006c4 .L0 
     /tmp/ccEiJpMx.s:958    .text:00000000000006c4 .L0 
     /tmp/ccEiJpMx.s:962    .text:00000000000006c8 .L0 
GAS LISTING /tmp/ccEiJpMx.s 			page 45


     /tmp/ccEiJpMx.s:965    .text:00000000000006d0 .L0 
     /tmp/ccEiJpMx.s:966    .text:00000000000006d0 .L0 
     /tmp/ccEiJpMx.s:969    .text:00000000000006d8 .L0 
     /tmp/ccEiJpMx.s:973    .text:00000000000006e4 .L0 
     /tmp/ccEiJpMx.s:975    .text:00000000000006e8 .L0 
     /tmp/ccEiJpMx.s:976    .text:00000000000006e8 .L0 
     /tmp/ccEiJpMx.s:978    .text:00000000000006ec .L0 
     /tmp/ccEiJpMx.s:986    .text:00000000000006f4 .L0 
     /tmp/ccEiJpMx.s:989    .text:00000000000006f8 .L0 
     /tmp/ccEiJpMx.s:994    .text:00000000000006fc .L0 
     /tmp/ccEiJpMx.s:997    .text:0000000000000704 .L0 
     /tmp/ccEiJpMx.s:998    .text:0000000000000704 .L0 
     /tmp/ccEiJpMx.s:1002   .text:0000000000000710 .L0 
     /tmp/ccEiJpMx.s:1004   .text:0000000000000714 .L0 
     /tmp/ccEiJpMx.s:1007   .text:0000000000000718 .L0 
     /tmp/ccEiJpMx.s:1014   .text:0000000000000720 .L0 
     /tmp/ccEiJpMx.s:1021   .text:0000000000000728 .L0 
     /tmp/ccEiJpMx.s:1026   .text:000000000000072c .L0 
     /tmp/ccEiJpMx.s:1030   .text:0000000000000730 .L0 
     /tmp/ccEiJpMx.s:1033   .text:0000000000000738 .L0 
     /tmp/ccEiJpMx.s:1034   .text:0000000000000738 .L0 
     /tmp/ccEiJpMx.s:1037   .text:0000000000000740 .L0 
     /tmp/ccEiJpMx.s:1043   .text:000000000000074c .L0 
     /tmp/ccEiJpMx.s:1044   .text:000000000000074c .L0 
     /tmp/ccEiJpMx.s:1049   .text:0000000000000750 .L0 
     /tmp/ccEiJpMx.s:1050   .text:0000000000000750 .L0 
     /tmp/ccEiJpMx.s:1059   .text:0000000000000758 .L0 
     /tmp/ccEiJpMx.s:1060   .text:0000000000000758 .L0 
     /tmp/ccEiJpMx.s:1064   .text:0000000000000768 .L0 
     /tmp/ccEiJpMx.s:1065   .text:0000000000000768 .L0 
     /tmp/ccEiJpMx.s:1069   .text:0000000000000778 .L0 
     /tmp/ccEiJpMx.s:1070   .text:0000000000000778 .L0 
     /tmp/ccEiJpMx.s:1074   .text:0000000000000788 .L0 
     /tmp/ccEiJpMx.s:1075   .text:0000000000000788 .L0 
     /tmp/ccEiJpMx.s:1079   .text:0000000000000794 .L0 
     /tmp/ccEiJpMx.s:1080   .text:0000000000000794 .L0 
     /tmp/ccEiJpMx.s:1084   .text:00000000000007a4 .L0 
     /tmp/ccEiJpMx.s:1085   .text:00000000000007a4 .L0 
     /tmp/ccEiJpMx.s:1088   .text:00000000000007ac .L0 
     /tmp/ccEiJpMx.s:1089   .text:00000000000007ac .L0 
     /tmp/ccEiJpMx.s:1098   .text:00000000000007b4 .L0 
     /tmp/ccEiJpMx.s:1099   .text:00000000000007b4 .L0 
     /tmp/ccEiJpMx.s:1104   .text:00000000000007c4 .L0 
     /tmp/ccEiJpMx.s:1105   .text:00000000000007c4 .L0 
     /tmp/ccEiJpMx.s:1109   .text:00000000000007d4 .L0 
     /tmp/ccEiJpMx.s:1110   .text:00000000000007d4 .L0 
     /tmp/ccEiJpMx.s:1114   .text:00000000000007e4 .L0 
     /tmp/ccEiJpMx.s:1115   .text:00000000000007e4 .L0 
     /tmp/ccEiJpMx.s:1119   .text:00000000000007f0 .L0 
     /tmp/ccEiJpMx.s:1120   .text:00000000000007f0 .L0 
     /tmp/ccEiJpMx.s:1124   .text:0000000000000800 .L0 
     /tmp/ccEiJpMx.s:1125   .text:0000000000000800 .L0 
     /tmp/ccEiJpMx.s:1128   .text:0000000000000808 .L0 
     /tmp/ccEiJpMx.s:1129   .text:0000000000000808 .L0 
     /tmp/ccEiJpMx.s:1136   .text:0000000000000810 .L0 
     /tmp/ccEiJpMx.s:1137   .text:0000000000000810 .L0 
     /tmp/ccEiJpMx.s:1143   .text:000000000000081c .L0 
GAS LISTING /tmp/ccEiJpMx.s 			page 46


     /tmp/ccEiJpMx.s:1144   .text:000000000000081c .L0 
     /tmp/ccEiJpMx.s:1149   .text:0000000000000820 .L0 
     /tmp/ccEiJpMx.s:1150   .text:0000000000000820 .L0 
     /tmp/ccEiJpMx.s:1160   .text:000000000000083c .L0 
     /tmp/ccEiJpMx.s:1165   .text:0000000000000840 .L0 
     /tmp/ccEiJpMx.s:1166   .text:0000000000000840 .L0 
     /tmp/ccEiJpMx.s:1167   .text:0000000000000840 .L0 
     /tmp/ccEiJpMx.s:1171   .text:0000000000000850 .L0 
     /tmp/ccEiJpMx.s:1172   .text:0000000000000850 .L0 
     /tmp/ccEiJpMx.s:1175   .text:0000000000000858 .L0 
     /tmp/ccEiJpMx.s:1176   .text:000000000000085c .L0 
     /tmp/ccEiJpMx.s:1177   .text:000000000000085c .L0 
     /tmp/ccEiJpMx.s:1179   .text:0000000000000860 .L0 
     /tmp/ccEiJpMx.s:1180   .text:0000000000000860 .L0 
     /tmp/ccEiJpMx.s:1182   .text:0000000000000864 .L0 
     /tmp/ccEiJpMx.s:1185   .text:0000000000000868 .L0 
     /tmp/ccEiJpMx.s:1187   .text:000000000000086c .L0 
     /tmp/ccEiJpMx.s:1190   .text:0000000000000870 .L0 
     /tmp/ccEiJpMx.s:1194   .text:0000000000000874 .L0 
     /tmp/ccEiJpMx.s:1198   .text:0000000000000874 .L0 
     /tmp/ccEiJpMx.s:1199   .text:0000000000000874 .L0 
     /tmp/ccEiJpMx.s:1204   .text:0000000000000884 .L0 
     /tmp/ccEiJpMx.s:1205   .text:0000000000000884 .L0 
     /tmp/ccEiJpMx.s:1209   .text:0000000000000894 .L0 
     /tmp/ccEiJpMx.s:1210   .text:0000000000000894 .L0 
     /tmp/ccEiJpMx.s:1214   .text:00000000000008a4 .L0 
     /tmp/ccEiJpMx.s:1215   .text:00000000000008a4 .L0 
     /tmp/ccEiJpMx.s:1219   .text:00000000000008b0 .L0 
     /tmp/ccEiJpMx.s:1220   .text:00000000000008b0 .L0 
     /tmp/ccEiJpMx.s:1224   .text:00000000000008c0 .L0 
     /tmp/ccEiJpMx.s:1225   .text:00000000000008c0 .L0 
     /tmp/ccEiJpMx.s:1228   .text:00000000000008c8 .L0 
     /tmp/ccEiJpMx.s:1229   .text:00000000000008c8 .L0 
     /tmp/ccEiJpMx.s:1237   .text:00000000000008d0 .L0 
     /tmp/ccEiJpMx.s:1238   .text:00000000000008d0 .L0 
     /tmp/ccEiJpMx.s:1243   .text:00000000000008e0 .L0 
     /tmp/ccEiJpMx.s:1244   .text:00000000000008e0 .L0 
     /tmp/ccEiJpMx.s:1248   .text:00000000000008f0 .L0 
     /tmp/ccEiJpMx.s:1249   .text:00000000000008f0 .L0 
     /tmp/ccEiJpMx.s:1253   .text:0000000000000900 .L0 
     /tmp/ccEiJpMx.s:1254   .text:0000000000000900 .L0 
     /tmp/ccEiJpMx.s:1258   .text:000000000000090c .L0 
     /tmp/ccEiJpMx.s:1259   .text:000000000000090c .L0 
     /tmp/ccEiJpMx.s:1263   .text:000000000000091c .L0 
     /tmp/ccEiJpMx.s:1264   .text:000000000000091c .L0 
     /tmp/ccEiJpMx.s:1267   .text:0000000000000924 .L0 
     /tmp/ccEiJpMx.s:1268   .text:0000000000000924 .L0 
     /tmp/ccEiJpMx.s:1272   .text:000000000000092c .L0 
     /tmp/ccEiJpMx.s:1286   .text:000000000000092c _Z8userMainv
     /tmp/ccEiJpMx.s:1289   .text:000000000000092c .L0 
     /tmp/ccEiJpMx.s:1290   .text:000000000000092c .L0 
     /tmp/ccEiJpMx.s:1291   .text:0000000000000930 .L0 
     /tmp/ccEiJpMx.s:1294   .text:0000000000000938 .L0 
     /tmp/ccEiJpMx.s:1295   .text:0000000000000938 .L0 
     /tmp/ccEiJpMx.s:1297   .text:000000000000093c .L0 
     /tmp/ccEiJpMx.s:1299   .text:000000000000093c .L0 
     /tmp/ccEiJpMx.s:1300   .text:000000000000093c .L0 
GAS LISTING /tmp/ccEiJpMx.s 			page 47


     /tmp/ccEiJpMx.s:1304   .text:000000000000094c .L0 
     /tmp/ccEiJpMx.s:1305   .text:000000000000094c .L0 
     /tmp/ccEiJpMx.s:1308   .text:0000000000000954 .L0 
     /tmp/ccEiJpMx.s:1318   .text:0000000000000970 .L0 
     /tmp/ccEiJpMx.s:1323   .text:0000000000000974 .L0 
     /tmp/ccEiJpMx.s:1324   .text:0000000000000974 .L0 
     /tmp/ccEiJpMx.s:1325   .text:0000000000000974 .L0 
     /tmp/ccEiJpMx.s:1328   .text:000000000000097c .L0 
     /tmp/ccEiJpMx.s:1329   .text:000000000000097c .L0 
     /tmp/ccEiJpMx.s:1332   .text:0000000000000984 .L0 
     /tmp/ccEiJpMx.s:1333   .text:0000000000000984 .L0 
     /tmp/ccEiJpMx.s:1336   .text:000000000000098c .L0 
     /tmp/ccEiJpMx.s:1337   .text:000000000000098c .L0 
     /tmp/ccEiJpMx.s:1341   .text:000000000000099c .L0 
     /tmp/ccEiJpMx.s:1342   .text:000000000000099c .L0 
     /tmp/ccEiJpMx.s:1345   .text:00000000000009a4 .L0 
     /tmp/ccEiJpMx.s:1346   .text:00000000000009a8 .L0 
     /tmp/ccEiJpMx.s:1347   .text:00000000000009a8 .L0 
     /tmp/ccEiJpMx.s:1349   .text:00000000000009ac .L0 
     /tmp/ccEiJpMx.s:1350   .text:00000000000009ac .L0 
     /tmp/ccEiJpMx.s:1352   .text:00000000000009b0 .L0 
     /tmp/ccEiJpMx.s:1356   .text:00000000000009b4 .L0 
     /tmp/ccEiJpMx.s:1360   .text:00000000000009b4 .L0 
     /tmp/ccEiJpMx.s:1361   .text:00000000000009b4 .L0 
     /tmp/ccEiJpMx.s:1366   .text:00000000000009c4 .L0 
     /tmp/ccEiJpMx.s:1367   .text:00000000000009c4 .L0 
     /tmp/ccEiJpMx.s:1371   .text:00000000000009d4 .L0 
     /tmp/ccEiJpMx.s:1372   .text:00000000000009d4 .L0 
     /tmp/ccEiJpMx.s:1376   .text:00000000000009e4 .L0 
     /tmp/ccEiJpMx.s:1377   .text:00000000000009e4 .L0 
     /tmp/ccEiJpMx.s:1381   .text:00000000000009f0 .L0 
     /tmp/ccEiJpMx.s:1382   .text:00000000000009f0 .L0 
     /tmp/ccEiJpMx.s:1386   .text:0000000000000a00 .L0 
     /tmp/ccEiJpMx.s:1387   .text:0000000000000a00 .L0 
     /tmp/ccEiJpMx.s:1390   .text:0000000000000a08 .L0 
     /tmp/ccEiJpMx.s:1391   .text:0000000000000a08 .L0 
     /tmp/ccEiJpMx.s:1395   .text:0000000000000a10 .L0 
     /tmp/ccEiJpMx.s:1402   .text:0000000000000a10 .L0 
     /tmp/ccEiJpMx.s:8      .rodata.str1.8:0000000000000000 .LC0
     /tmp/ccEiJpMx.s:32     .text:0000000000000010 .L0 
     /tmp/ccEiJpMx.s:54     .text:000000000000003c .L0 
     /tmp/ccEiJpMx.s:61     .text:0000000000000054 .L0 
     /tmp/ccEiJpMx.s:11     .rodata.str1.8:0000000000000020 .LC1
     /tmp/ccEiJpMx.s:88     .text:000000000000008c .L0 
     /tmp/ccEiJpMx.s:168    .rodata.str1.8:0000000000000048 .LC2
     /tmp/ccEiJpMx.s:250    .text:0000000000000174 .L0 
     /tmp/ccEiJpMx.s:171    .rodata.str1.8:0000000000000070 .LC3
     /tmp/ccEiJpMx.s:256    .text:0000000000000184 .L0 
     /tmp/ccEiJpMx.s:174    .rodata.str1.8:0000000000000080 .LC4
     /tmp/ccEiJpMx.s:261    .text:0000000000000194 .L0 
     /tmp/ccEiJpMx.s:177    .rodata.str1.8:0000000000000090 .LC5
     /tmp/ccEiJpMx.s:271    .text:00000000000001b0 .L0 
     /tmp/ccEiJpMx.s:290    .text:00000000000001d0 .L0 
     /tmp/ccEiJpMx.s:296    .text:00000000000001e0 .L0 
     /tmp/ccEiJpMx.s:301    .text:00000000000001f0 .L0 
     /tmp/ccEiJpMx.s:311    .text:000000000000020c .L0 
     /tmp/ccEiJpMx.s:343    .text:0000000000000238 .L0 
GAS LISTING /tmp/ccEiJpMx.s 			page 48


     /tmp/ccEiJpMx.s:348    .text:0000000000000248 .L0 
     /tmp/ccEiJpMx.s:353    .text:0000000000000258 .L0 
     /tmp/ccEiJpMx.s:363    .text:0000000000000274 .L0 
     /tmp/ccEiJpMx.s:448    .text:00000000000002f4 .L0 
     /tmp/ccEiJpMx.s:454    .text:0000000000000304 .L0 
     /tmp/ccEiJpMx.s:459    .text:0000000000000314 .L0 
     /tmp/ccEiJpMx.s:469    .text:0000000000000330 .L0 
     /tmp/ccEiJpMx.s:488    .text:0000000000000350 .L0 
     /tmp/ccEiJpMx.s:494    .text:0000000000000360 .L0 
     /tmp/ccEiJpMx.s:499    .text:0000000000000370 .L0 
     /tmp/ccEiJpMx.s:509    .text:000000000000038c .L0 
     /tmp/ccEiJpMx.s:534    .text:00000000000003b4 .L0 
     /tmp/ccEiJpMx.s:539    .text:00000000000003c4 .L0 
     /tmp/ccEiJpMx.s:544    .text:00000000000003d4 .L0 
     /tmp/ccEiJpMx.s:554    .text:00000000000003f0 .L0 
     /tmp/ccEiJpMx.s:572    .rodata.str1.8:00000000000000b0 .LC6
     /tmp/ccEiJpMx.s:618    .text:000000000000043c .L0 
     /tmp/ccEiJpMx.s:575    .rodata.str1.8:00000000000000d0 .LC7
     /tmp/ccEiJpMx.s:697    .text:00000000000004a8 .L0 
     /tmp/ccEiJpMx.s:578    .rodata.str1.8:00000000000000e8 .LC8
     /tmp/ccEiJpMx.s:708    .text:00000000000004c4 .L0 
     /tmp/ccEiJpMx.s:581    .rodata.str1.8:00000000000000f8 .LC9
     /tmp/ccEiJpMx.s:718    .text:00000000000004e0 .L0 
     /tmp/ccEiJpMx.s:736    .text:0000000000000504 .L0 
     /tmp/ccEiJpMx.s:741    .text:0000000000000514 .L0 
     /tmp/ccEiJpMx.s:746    .text:0000000000000524 .L0 
     /tmp/ccEiJpMx.s:756    .text:0000000000000540 .L0 
     /tmp/ccEiJpMx.s:774    .text:0000000000000560 .L0 
     /tmp/ccEiJpMx.s:780    .text:0000000000000570 .L0 
     /tmp/ccEiJpMx.s:785    .text:0000000000000580 .L0 
     /tmp/ccEiJpMx.s:795    .text:000000000000059c .L0 
     /tmp/ccEiJpMx.s:816    .text:00000000000005cc .L0 
     /tmp/ccEiJpMx.s:584    .rodata.str1.8:0000000000000108 .LC10
     /tmp/ccEiJpMx.s:829    .text:00000000000005dc .L0 
     /tmp/ccEiJpMx.s:870    .text:0000000000000620 .L0 
     /tmp/ccEiJpMx.s:876    .text:0000000000000630 .L0 
     /tmp/ccEiJpMx.s:881    .text:0000000000000640 .L0 
     /tmp/ccEiJpMx.s:891    .text:000000000000065c .L0 
     /tmp/ccEiJpMx.s:909    .rodata.str1.8:0000000000000130 .LC11
     /tmp/ccEiJpMx.s:938    .text:0000000000000698 .L0 
     /tmp/ccEiJpMx.s:1060   .text:0000000000000758 .L0 
     /tmp/ccEiJpMx.s:1065   .text:0000000000000768 .L0 
     /tmp/ccEiJpMx.s:1070   .text:0000000000000778 .L0 
     /tmp/ccEiJpMx.s:1080   .text:0000000000000794 .L0 
     /tmp/ccEiJpMx.s:1099   .text:00000000000007b4 .L0 
     /tmp/ccEiJpMx.s:1105   .text:00000000000007c4 .L0 
     /tmp/ccEiJpMx.s:1110   .text:00000000000007d4 .L0 
     /tmp/ccEiJpMx.s:1120   .text:00000000000007f0 .L0 
     /tmp/ccEiJpMx.s:1154   .text:0000000000000830 .L0 
     /tmp/ccEiJpMx.s:912    .rodata.str1.8:0000000000000158 .LC12
     /tmp/ccEiJpMx.s:1167   .text:0000000000000840 .L0 
     /tmp/ccEiJpMx.s:1199   .text:0000000000000874 .L0 
     /tmp/ccEiJpMx.s:1205   .text:0000000000000884 .L0 
     /tmp/ccEiJpMx.s:1210   .text:0000000000000894 .L0 
     /tmp/ccEiJpMx.s:1220   .text:00000000000008b0 .L0 
     /tmp/ccEiJpMx.s:1238   .text:00000000000008d0 .L0 
     /tmp/ccEiJpMx.s:1244   .text:00000000000008e0 .L0 
GAS LISTING /tmp/ccEiJpMx.s 			page 49


     /tmp/ccEiJpMx.s:1249   .text:00000000000008f0 .L0 
     /tmp/ccEiJpMx.s:1259   .text:000000000000090c .L0 
     /tmp/ccEiJpMx.s:1277   .rodata.str1.8:0000000000000180 .LC13
     /tmp/ccEiJpMx.s:1300   .text:000000000000093c .L0 
     /tmp/ccEiJpMx.s:1312   .text:0000000000000964 .L0 
     /tmp/ccEiJpMx.s:1280   .rodata.str1.8:0000000000000190 .LC14
     /tmp/ccEiJpMx.s:1337   .text:000000000000098c .L0 
     /tmp/ccEiJpMx.s:1361   .text:00000000000009b4 .L0 
     /tmp/ccEiJpMx.s:1367   .text:00000000000009c4 .L0 
     /tmp/ccEiJpMx.s:1372   .text:00000000000009d4 .L0 
     /tmp/ccEiJpMx.s:1382   .text:00000000000009f0 .L0 
     /tmp/ccEiJpMx.s:130    .text:00000000000000d4 .L4
     /tmp/ccEiJpMx.s:147    .text:00000000000000f0 .L6
     /tmp/ccEiJpMx.s:244    .text:0000000000000174 .L13
     /tmp/ccEiJpMx.s:322    .text:000000000000022c .L9
     /tmp/ccEiJpMx.s:282    .text:00000000000001d0 .L14
     /tmp/ccEiJpMx.s:215    .text:000000000000013c .L8
     /tmp/ccEiJpMx.s:442    .text:00000000000002f4 .L21
     /tmp/ccEiJpMx.s:520    .text:00000000000003ac .L17
     /tmp/ccEiJpMx.s:480    .text:0000000000000350 .L22
     /tmp/ccEiJpMx.s:413    .text:00000000000002bc .L16
     /tmp/ccEiJpMx.s:806    .text:00000000000005bc .L24
     /tmp/ccEiJpMx.s:693    .text:00000000000004a8 .L30
     /tmp/ccEiJpMx.s:767    .text:0000000000000560 .L31
     /tmp/ccEiJpMx.s:637    .text:0000000000000460 .L27
     /tmp/ccEiJpMx.s:864    .text:0000000000000620 .L32
     /tmp/ccEiJpMx.s:982    .text:00000000000006f4 .L42
     /tmp/ccEiJpMx.s:960    .text:00000000000006c8 .L35
     /tmp/ccEiJpMx.s:1011   .text:0000000000000720 .L36
     /tmp/ccEiJpMx.s:990    .text:00000000000006fc .L34
     /tmp/ccEiJpMx.s:1054   .text:0000000000000758 .L45
     /tmp/ccEiJpMx.s:1131   .text:0000000000000810 .L38
     /tmp/ccEiJpMx.s:1091   .text:00000000000007b4 .L46
     /tmp/ccEiJpMx.s:1028   .text:0000000000000730 .L37
     /tmp/ccEiJpMx.s:1193   .text:0000000000000874 .L47
     /tmp/ccEiJpMx.s:1231   .text:00000000000008d0 .L48
     /tmp/ccEiJpMx.s:1355   .text:00000000000009b4 .L52
     /tmp/ccEiJpMx.s:3636   .debug_abbrev:0000000000000000 .Ldebug_abbrev0
     /tmp/ccEiJpMx.s:5550   .debug_str:000000000000042c .LASF82
     /tmp/ccEiJpMx.s:5508   .debug_str:0000000000000314 .LASF83
     /tmp/ccEiJpMx.s:5520   .debug_str:0000000000000353 .LASF84
     /tmp/ccEiJpMx.s:5      .text:0000000000000000 .Ltext0
     /tmp/ccEiJpMx.s:1398   .text:0000000000000a10 .Letext0
     /tmp/ccEiJpMx.s:5392   .debug_line:0000000000000000 .Ldebug_line0
     /tmp/ccEiJpMx.s:5494   .debug_str:0000000000000298 .LASF0
     /tmp/ccEiJpMx.s:5502   .debug_str:00000000000002dd .LASF1
     /tmp/ccEiJpMx.s:5484   .debug_str:000000000000025e .LASF2
     /tmp/ccEiJpMx.s:5460   .debug_str:00000000000001c4 .LASF4
     /tmp/ccEiJpMx.s:5536   .debug_str:00000000000003cd .LASF3
     /tmp/ccEiJpMx.s:5406   .debug_str:0000000000000068 .LASF5
     /tmp/ccEiJpMx.s:5506   .debug_str:0000000000000301 .LASF6
     /tmp/ccEiJpMx.s:5492   .debug_str:0000000000000285 .LASF7
     /tmp/ccEiJpMx.s:5556   .debug_str:0000000000000510 .LASF8
     /tmp/ccEiJpMx.s:5446   .debug_str:0000000000000178 .LASF9
     /tmp/ccEiJpMx.s:5518   .debug_str:0000000000000344 .LASF10
     /tmp/ccEiJpMx.s:5552   .debug_str:00000000000004f0 .LASF11
     /tmp/ccEiJpMx.s:5408   .debug_str:000000000000006f .LASF12
GAS LISTING /tmp/ccEiJpMx.s 			page 50


     /tmp/ccEiJpMx.s:5402   .debug_str:000000000000004e .LASF13
     /tmp/ccEiJpMx.s:5414   .debug_str:00000000000000a7 .LASF14
     /tmp/ccEiJpMx.s:5532   .debug_str:00000000000003a7 .LASF15
     /tmp/ccEiJpMx.s:5424   .debug_str:00000000000000e6 .LASF16
     /tmp/ccEiJpMx.s:5394   .debug_str:0000000000000000 .LASF17
     /tmp/ccEiJpMx.s:5486   .debug_str:000000000000026c .LASF34
     /tmp/ccEiJpMx.s:5444   .debug_str:0000000000000165 .LASF85
     /tmp/ccEiJpMx.s:5544   .debug_str:0000000000000412 .LASF21
     /tmp/ccEiJpMx.s:5450   .debug_str:000000000000018b .LASF18
     /tmp/ccEiJpMx.s:5546   .debug_str:000000000000041b .LASF19
     /tmp/ccEiJpMx.s:5564   .debug_str:0000000000000541 .LASF20
     /tmp/ccEiJpMx.s:5398   .debug_str:0000000000000010 .LASF23
     /tmp/ccEiJpMx.s:5490   .debug_str:000000000000027b .LASF25
     /tmp/ccEiJpMx.s:5458   .debug_str:00000000000001ba .LASF22
     /tmp/ccEiJpMx.s:5480   .debug_str:000000000000022b .LASF24
     /tmp/ccEiJpMx.s:5436   .debug_str:0000000000000137 .LASF26
     /tmp/ccEiJpMx.s:5562   .debug_str:0000000000000538 .LASF27
     /tmp/ccEiJpMx.s:5412   .debug_str:000000000000008f .LASF29
     /tmp/ccEiJpMx.s:5512   .debug_str:0000000000000325 .LASF28
     /tmp/ccEiJpMx.s:5452   .debug_str:0000000000000191 .LASF30
     /tmp/ccEiJpMx.s:5554   .debug_str:00000000000004ff .LASF31
     /tmp/ccEiJpMx.s:5400   .debug_str:000000000000002d .LASF32
     /tmp/ccEiJpMx.s:5566   .debug_str:0000000000000546 .LASF86
     /tmp/ccEiJpMx.s:5568   .debug_str:0000000000000559 .LASF87
     /tmp/ccEiJpMx.s:5478   .debug_str:000000000000021d .LASF33
     /tmp/ccEiJpMx.s:5500   .debug_str:00000000000002cc .LASF35
     /tmp/ccEiJpMx.s:5510   .debug_str:0000000000000320 .LASF36
     /tmp/ccEiJpMx.s:5438   .debug_str:0000000000000142 .LASF37
     /tmp/ccEiJpMx.s:5434   .debug_str:0000000000000123 .LASF38
     /tmp/ccEiJpMx.s:5540   .debug_str:00000000000003e9 .LASF39
     /tmp/ccEiJpMx.s:919    .text:000000000000067c .LFB16
     /tmp/ccEiJpMx.s:1273   .text:000000000000092c .LFE16
     /tmp/ccEiJpMx.s:4352   .debug_loc:0000000000000000 .LLST31
     /tmp/ccEiJpMx.s:5462   .debug_str:00000000000001cb .LASF40
     /tmp/ccEiJpMx.s:4367   .debug_loc:0000000000000049 .LLST32
     /tmp/ccEiJpMx.s:4382   .debug_loc:0000000000000092 .LLST33
     /tmp/ccEiJpMx.s:956    .text:00000000000006c4 .LBB74
     /tmp/ccEiJpMx.s:983    .text:00000000000006f4 .LBE74
     /tmp/ccEiJpMx.s:4401   .debug_loc:00000000000000ee .LLST34
     /tmp/ccEiJpMx.s:971    .text:00000000000006e4 .LVL142
     /tmp/ccEiJpMx.s:5286   .debug_ranges:0000000000000000 .Ldebug_ranges0
     /tmp/ccEiJpMx.s:4431   .debug_loc:0000000000000164 .LLST35
     /tmp/ccEiJpMx.s:4442   .debug_loc:000000000000019a .LLST39
     /tmp/ccEiJpMx.s:1041   .text:000000000000074c .LBB81
     /tmp/ccEiJpMx.s:4457   .debug_loc:00000000000001e3 .LLST40
     /tmp/ccEiJpMx.s:4472   .debug_loc:000000000000021d .LLST41
     /tmp/ccEiJpMx.s:4487   .debug_loc:0000000000000265 .LLST42
     /tmp/ccEiJpMx.s:1102   .text:00000000000007c4 .LVL164
     /tmp/ccEiJpMx.s:1107   .text:00000000000007d4 .LVL165
     /tmp/ccEiJpMx.s:1112   .text:00000000000007e4 .LVL166
     /tmp/ccEiJpMx.s:1117   .text:00000000000007f0 .LVL167
     /tmp/ccEiJpMx.s:1122   .text:0000000000000800 .LVL168
     /tmp/ccEiJpMx.s:1126   .text:0000000000000808 .LVL169
     /tmp/ccEiJpMx.s:1130   .text:0000000000000810 .LVL170
     /tmp/ccEiJpMx.s:1039   .text:000000000000074c .LVL152
     /tmp/ccEiJpMx.s:1018   .text:0000000000000728 .LBB77
     /tmp/ccEiJpMx.s:4506   .debug_loc:00000000000002a3 .LLST36
GAS LISTING /tmp/ccEiJpMx.s 			page 51


     /tmp/ccEiJpMx.s:4521   .debug_loc:00000000000002dd .LLST37
     /tmp/ccEiJpMx.s:4536   .debug_loc:0000000000000325 .LLST38
     /tmp/ccEiJpMx.s:1062   .text:0000000000000768 .LVL156
     /tmp/ccEiJpMx.s:1067   .text:0000000000000778 .LVL157
     /tmp/ccEiJpMx.s:1072   .text:0000000000000788 .LVL158
     /tmp/ccEiJpMx.s:1077   .text:0000000000000794 .LVL159
     /tmp/ccEiJpMx.s:1082   .text:00000000000007a4 .LVL160
     /tmp/ccEiJpMx.s:1086   .text:00000000000007ac .LVL161
     /tmp/ccEiJpMx.s:1090   .text:00000000000007b4 .LVL162
     /tmp/ccEiJpMx.s:1141   .text:000000000000081c .LBB87
     /tmp/ccEiJpMx.s:4561   .debug_loc:0000000000000369 .LLST43
     /tmp/ccEiJpMx.s:4576   .debug_loc:00000000000003a3 .LLST44
     /tmp/ccEiJpMx.s:4591   .debug_loc:00000000000003eb .LLST45
     /tmp/ccEiJpMx.s:1202   .text:0000000000000884 .LVL183
     /tmp/ccEiJpMx.s:1207   .text:0000000000000894 .LVL184
     /tmp/ccEiJpMx.s:1212   .text:00000000000008a4 .LVL185
     /tmp/ccEiJpMx.s:1217   .text:00000000000008b0 .LVL186
     /tmp/ccEiJpMx.s:1222   .text:00000000000008c0 .LVL187
     /tmp/ccEiJpMx.s:1226   .text:00000000000008c8 .LVL188
     /tmp/ccEiJpMx.s:1230   .text:00000000000008d0 .LVL189
     /tmp/ccEiJpMx.s:1157   .text:000000000000083c .LBB90
     /tmp/ccEiJpMx.s:4610   .debug_loc:0000000000000429 .LLST46
     /tmp/ccEiJpMx.s:4625   .debug_loc:0000000000000463 .LLST47
     /tmp/ccEiJpMx.s:4640   .debug_loc:00000000000004ab .LLST48
     /tmp/ccEiJpMx.s:1241   .text:00000000000008e0 .LVL191
     /tmp/ccEiJpMx.s:1246   .text:00000000000008f0 .LVL192
     /tmp/ccEiJpMx.s:1251   .text:0000000000000900 .LVL193
     /tmp/ccEiJpMx.s:1256   .text:000000000000090c .LVL194
     /tmp/ccEiJpMx.s:1261   .text:000000000000091c .LVL195
     /tmp/ccEiJpMx.s:1265   .text:0000000000000924 .LVL196
     /tmp/ccEiJpMx.s:1269   .text:000000000000092c .LVL197
     /tmp/ccEiJpMx.s:940    .text:00000000000006a8 .LVL137
     /tmp/ccEiJpMx.s:944    .text:00000000000006b0 .LVL138
     /tmp/ccEiJpMx.s:952    .text:00000000000006c0 .LVL139
     /tmp/ccEiJpMx.s:1139   .text:000000000000081c .LVL171
     /tmp/ccEiJpMx.s:1151   .text:0000000000000828 .LVL173
     /tmp/ccEiJpMx.s:1153   .text:0000000000000830 .LVL174
     /tmp/ccEiJpMx.s:1169   .text:0000000000000850 .LVL177
     /tmp/ccEiJpMx.s:1173   .text:0000000000000858 .LVL178
     /tmp/ccEiJpMx.s:5534   .debug_str:00000000000003bd .LASF41
     /tmp/ccEiJpMx.s:5482   .debug_str:0000000000000249 .LASF42
     /tmp/ccEiJpMx.s:591    .text:0000000000000410 .LFB15
     /tmp/ccEiJpMx.s:905    .text:000000000000067c .LFE15
     /tmp/ccEiJpMx.s:4665   .debug_loc:00000000000004ef .LLST17
     /tmp/ccEiJpMx.s:4697   .debug_loc:0000000000000576 .LLST18
     /tmp/ccEiJpMx.s:4729   .debug_loc:00000000000005fd .LLST19
     /tmp/ccEiJpMx.s:5396   .debug_str:0000000000000009 .LASF43
     /tmp/ccEiJpMx.s:4749   .debug_loc:000000000000065a .LLST20
     /tmp/ccEiJpMx.s:5428   .debug_str:000000000000010a .LASF44
     /tmp/ccEiJpMx.s:4760   .debug_loc:0000000000000690 .LLST21
     /tmp/ccEiJpMx.s:670    .text:0000000000000494 .LBB50
     /tmp/ccEiJpMx.s:4779   .debug_loc:00000000000006ec .LLST22
     /tmp/ccEiJpMx.s:4794   .debug_loc:0000000000000726 .LLST23
     /tmp/ccEiJpMx.s:4809   .debug_loc:000000000000076e .LLST24
     /tmp/ccEiJpMx.s:777    .text:0000000000000570 .LVL112
     /tmp/ccEiJpMx.s:782    .text:0000000000000580 .LVL113
     /tmp/ccEiJpMx.s:787    .text:0000000000000590 .LVL114
GAS LISTING /tmp/ccEiJpMx.s 			page 52


     /tmp/ccEiJpMx.s:792    .text:000000000000059c .LVL115
     /tmp/ccEiJpMx.s:797    .text:00000000000005ac .LVL116
     /tmp/ccEiJpMx.s:801    .text:00000000000005b4 .LVL117
     /tmp/ccEiJpMx.s:805    .text:00000000000005bc .LVL118
     /tmp/ccEiJpMx.s:731    .text:0000000000000504 .LBB53
     /tmp/ccEiJpMx.s:769    .text:0000000000000560 .LBE53
     /tmp/ccEiJpMx.s:4834   .debug_loc:00000000000007b2 .LLST25
     /tmp/ccEiJpMx.s:4843   .debug_loc:00000000000007d7 .LLST26
     /tmp/ccEiJpMx.s:4852   .debug_loc:0000000000000803 .LLST27
     /tmp/ccEiJpMx.s:738    .text:0000000000000514 .LVL104
     /tmp/ccEiJpMx.s:743    .text:0000000000000524 .LVL105
     /tmp/ccEiJpMx.s:748    .text:0000000000000534 .LVL106
     /tmp/ccEiJpMx.s:753    .text:0000000000000540 .LVL107
     /tmp/ccEiJpMx.s:758    .text:0000000000000550 .LVL108
     /tmp/ccEiJpMx.s:762    .text:0000000000000558 .LVL109
     /tmp/ccEiJpMx.s:766    .text:0000000000000560 .LVL110
     /tmp/ccEiJpMx.s:655    .text:000000000000047c .LVL85
     /tmp/ccEiJpMx.s:663    .text:000000000000048c .LVL88
     /tmp/ccEiJpMx.s:700    .text:00000000000004b8 .LVL97
     /tmp/ccEiJpMx.s:705    .text:00000000000004c4 .LVL98
     /tmp/ccEiJpMx.s:710    .text:00000000000004d4 .LVL99
     /tmp/ccEiJpMx.s:715    .text:00000000000004e0 .LVL100
     /tmp/ccEiJpMx.s:720    .text:00000000000004f0 .LVL101
     /tmp/ccEiJpMx.s:725    .text:00000000000004fc .LVL102
     /tmp/ccEiJpMx.s:729    .text:0000000000000504 .LVL103
     /tmp/ccEiJpMx.s:819    .text:00000000000005d8 .LBB59
     /tmp/ccEiJpMx.s:4860   .debug_loc:0000000000000827 .LLST28
     /tmp/ccEiJpMx.s:4875   .debug_loc:0000000000000861 .LLST29
     /tmp/ccEiJpMx.s:4890   .debug_loc:00000000000008a9 .LLST30
     /tmp/ccEiJpMx.s:873    .text:0000000000000630 .LVL130
     /tmp/ccEiJpMx.s:878    .text:0000000000000640 .LVL131
     /tmp/ccEiJpMx.s:883    .text:0000000000000650 .LVL132
     /tmp/ccEiJpMx.s:888    .text:000000000000065c .LVL133
     /tmp/ccEiJpMx.s:893    .text:000000000000066c .LVL134
     /tmp/ccEiJpMx.s:897    .text:0000000000000674 .LVL135
     /tmp/ccEiJpMx.s:901    .text:000000000000067c .LVL136
     /tmp/ccEiJpMx.s:620    .text:000000000000044c .LVL80
     /tmp/ccEiJpMx.s:624    .text:0000000000000454 .LVL81
     /tmp/ccEiJpMx.s:813    .text:00000000000005c4 .LVL119
     /tmp/ccEiJpMx.s:815    .text:00000000000005cc .LVL120
     /tmp/ccEiJpMx.s:831    .text:00000000000005ec .LVL123
     /tmp/ccEiJpMx.s:835    .text:00000000000005f4 .LVL124
     /tmp/ccEiJpMx.s:5524   .debug_str:0000000000000377 .LASF88
     /tmp/ccEiJpMx.s:107    .text:00000000000000ac .LFB14
     /tmp/ccEiJpMx.s:164    .text:0000000000000114 .LFE14
     /tmp/ccEiJpMx.s:4915   .debug_loc:00000000000008ed .LLST0
     /tmp/ccEiJpMx.s:153    .text:00000000000000fc .LVL11
     /tmp/ccEiJpMx.s:158    .text:000000000000010c .LVL12
     /tmp/ccEiJpMx.s:5442   .debug_str:000000000000015c .LASF45
     /tmp/ccEiJpMx.s:383    .text:0000000000000294 .LFB13
     /tmp/ccEiJpMx.s:568    .text:0000000000000410 .LFE13
     /tmp/ccEiJpMx.s:4940   .debug_loc:000000000000094f .LLST9
     /tmp/ccEiJpMx.s:4965   .debug_loc:00000000000009b1 .LLST13
     /tmp/ccEiJpMx.s:425    .text:00000000000002e0 .LBB32
     /tmp/ccEiJpMx.s:4976   .debug_loc:00000000000009e7 .LLST14
     /tmp/ccEiJpMx.s:4991   .debug_loc:0000000000000a21 .LLST15
     /tmp/ccEiJpMx.s:5006   .debug_loc:0000000000000a69 .LLST16
GAS LISTING /tmp/ccEiJpMx.s 			page 53


     /tmp/ccEiJpMx.s:491    .text:0000000000000360 .LVL65
     /tmp/ccEiJpMx.s:496    .text:0000000000000370 .LVL66
     /tmp/ccEiJpMx.s:501    .text:0000000000000380 .LVL67
     /tmp/ccEiJpMx.s:506    .text:000000000000038c .LVL68
     /tmp/ccEiJpMx.s:511    .text:000000000000039c .LVL69
     /tmp/ccEiJpMx.s:515    .text:00000000000003a4 .LVL70
     /tmp/ccEiJpMx.s:519    .text:00000000000003ac .LVL71
     /tmp/ccEiJpMx.s:420    .text:00000000000002d0 .LVL50
     /tmp/ccEiJpMx.s:424    .text:00000000000002e0 .LVL51
     /tmp/ccEiJpMx.s:436    .text:00000000000002ec .LVL53
     /tmp/ccEiJpMx.s:403    .text:00000000000002b4 .LBB28
     /tmp/ccEiJpMx.s:5031   .debug_loc:0000000000000aad .LLST10
     /tmp/ccEiJpMx.s:5046   .debug_loc:0000000000000ae7 .LLST11
     /tmp/ccEiJpMx.s:5061   .debug_loc:0000000000000b2f .LLST12
     /tmp/ccEiJpMx.s:451    .text:0000000000000304 .LVL57
     /tmp/ccEiJpMx.s:456    .text:0000000000000314 .LVL58
     /tmp/ccEiJpMx.s:461    .text:0000000000000324 .LVL59
     /tmp/ccEiJpMx.s:466    .text:0000000000000330 .LVL60
     /tmp/ccEiJpMx.s:471    .text:0000000000000340 .LVL61
     /tmp/ccEiJpMx.s:475    .text:0000000000000348 .LVL62
     /tmp/ccEiJpMx.s:479    .text:0000000000000350 .LVL63
     /tmp/ccEiJpMx.s:529    .text:00000000000003b4 .LBB38
     /tmp/ccEiJpMx.s:566    .text:0000000000000410 .LBE38
     /tmp/ccEiJpMx.s:536    .text:00000000000003c4 .LVL73
     /tmp/ccEiJpMx.s:541    .text:00000000000003d4 .LVL74
     /tmp/ccEiJpMx.s:546    .text:00000000000003e4 .LVL75
     /tmp/ccEiJpMx.s:551    .text:00000000000003f0 .LVL76
     /tmp/ccEiJpMx.s:556    .text:0000000000000400 .LVL77
     /tmp/ccEiJpMx.s:560    .text:0000000000000408 .LVL78
     /tmp/ccEiJpMx.s:564    .text:0000000000000410 .LVL79
     /tmp/ccEiJpMx.s:527    .text:00000000000003b4 .LVL72
     /tmp/ccEiJpMx.s:5432   .debug_str:000000000000011a .LASF46
     /tmp/ccEiJpMx.s:184    .text:0000000000000114 .LFB12
     /tmp/ccEiJpMx.s:377    .text:0000000000000294 .LFE12
     /tmp/ccEiJpMx.s:5080   .debug_loc:0000000000000b6d .LLST1
     /tmp/ccEiJpMx.s:5105   .debug_loc:0000000000000bcf .LLST5
     /tmp/ccEiJpMx.s:227    .text:0000000000000160 .LBB13
     /tmp/ccEiJpMx.s:5116   .debug_loc:0000000000000c05 .LLST6
     /tmp/ccEiJpMx.s:5131   .debug_loc:0000000000000c3f .LLST7
     /tmp/ccEiJpMx.s:5146   .debug_loc:0000000000000c87 .LLST8
     /tmp/ccEiJpMx.s:293    .text:00000000000001e0 .LVL32
     /tmp/ccEiJpMx.s:298    .text:00000000000001f0 .LVL33
     /tmp/ccEiJpMx.s:303    .text:0000000000000200 .LVL34
     /tmp/ccEiJpMx.s:308    .text:000000000000020c .LVL35
     /tmp/ccEiJpMx.s:313    .text:000000000000021c .LVL36
     /tmp/ccEiJpMx.s:317    .text:0000000000000224 .LVL37
     /tmp/ccEiJpMx.s:321    .text:000000000000022c .LVL38
     /tmp/ccEiJpMx.s:222    .text:0000000000000150 .LVL17
     /tmp/ccEiJpMx.s:226    .text:0000000000000160 .LVL18
     /tmp/ccEiJpMx.s:238    .text:000000000000016c .LVL20
     /tmp/ccEiJpMx.s:204    .text:0000000000000134 .LBB9
     /tmp/ccEiJpMx.s:5171   .debug_loc:0000000000000ccb .LLST2
     /tmp/ccEiJpMx.s:5186   .debug_loc:0000000000000d05 .LLST3
     /tmp/ccEiJpMx.s:5201   .debug_loc:0000000000000d4d .LLST4
     /tmp/ccEiJpMx.s:253    .text:0000000000000184 .LVL24
     /tmp/ccEiJpMx.s:258    .text:0000000000000194 .LVL25
     /tmp/ccEiJpMx.s:263    .text:00000000000001a4 .LVL26
GAS LISTING /tmp/ccEiJpMx.s 			page 54


     /tmp/ccEiJpMx.s:268    .text:00000000000001b0 .LVL27
     /tmp/ccEiJpMx.s:273    .text:00000000000001c0 .LVL28
     /tmp/ccEiJpMx.s:277    .text:00000000000001c8 .LVL29
     /tmp/ccEiJpMx.s:281    .text:00000000000001d0 .LVL30
     /tmp/ccEiJpMx.s:338    .text:0000000000000238 .LBB19
     /tmp/ccEiJpMx.s:375    .text:0000000000000294 .LBE19
     /tmp/ccEiJpMx.s:345    .text:0000000000000248 .LVL40
     /tmp/ccEiJpMx.s:350    .text:0000000000000258 .LVL41
     /tmp/ccEiJpMx.s:355    .text:0000000000000268 .LVL42
     /tmp/ccEiJpMx.s:360    .text:0000000000000274 .LVL43
     /tmp/ccEiJpMx.s:365    .text:0000000000000284 .LVL44
     /tmp/ccEiJpMx.s:369    .text:000000000000028c .LVL45
     /tmp/ccEiJpMx.s:373    .text:0000000000000294 .LVL46
     /tmp/ccEiJpMx.s:336    .text:0000000000000238 .LVL39
     /tmp/ccEiJpMx.s:5558   .debug_str:0000000000000520 .LASF47
     /tmp/ccEiJpMx.s:5528   .debug_str:000000000000038d .LASF48
     /tmp/ccEiJpMx.s:18     .text:0000000000000000 .LFB11
     /tmp/ccEiJpMx.s:101    .text:00000000000000ac .LFE11
     /tmp/ccEiJpMx.s:5456   .debug_str:00000000000001b5 .LASF49
     /tmp/ccEiJpMx.s:5448   .debug_str:0000000000000186 .LASF50
     /tmp/ccEiJpMx.s:34     .text:0000000000000020 .LVL0
     /tmp/ccEiJpMx.s:38     .text:0000000000000028 .LVL1
     /tmp/ccEiJpMx.s:57     .text:0000000000000050 .LVL2
     /tmp/ccEiJpMx.s:64     .text:0000000000000068 .LVL3
     /tmp/ccEiJpMx.s:68     .text:0000000000000070 .LVL4
     /tmp/ccEiJpMx.s:73     .text:000000000000007c .LVL5
     /tmp/ccEiJpMx.s:78     .text:0000000000000088 .LVL6
     /tmp/ccEiJpMx.s:90     .text:000000000000009c .LVL7
     /tmp/ccEiJpMx.s:5516   .debug_str:000000000000033b .LASF51
     /tmp/ccEiJpMx.s:5470   .debug_str:00000000000001f9 .LASF52
     /tmp/ccEiJpMx.s:1287   .text:000000000000092c .LFB10
     /tmp/ccEiJpMx.s:1396   .text:0000000000000a10 .LFE10
     /tmp/ccEiJpMx.s:1315   .text:0000000000000970 .LBB97
     /tmp/ccEiJpMx.s:5220   .debug_loc:0000000000000d8b .LLST49
     /tmp/ccEiJpMx.s:5233   .debug_loc:0000000000000dc3 .LLST50
     /tmp/ccEiJpMx.s:5248   .debug_loc:0000000000000e0b .LLST51
     /tmp/ccEiJpMx.s:1364   .text:00000000000009c4 .LVL211
     /tmp/ccEiJpMx.s:1369   .text:00000000000009d4 .LVL212
     /tmp/ccEiJpMx.s:1374   .text:00000000000009e4 .LVL213
     /tmp/ccEiJpMx.s:1379   .text:00000000000009f0 .LVL214
     /tmp/ccEiJpMx.s:1384   .text:0000000000000a00 .LVL215
     /tmp/ccEiJpMx.s:1388   .text:0000000000000a08 .LVL216
     /tmp/ccEiJpMx.s:1392   .text:0000000000000a10 .LVL217
     /tmp/ccEiJpMx.s:1302   .text:000000000000094c .LVL198
     /tmp/ccEiJpMx.s:1306   .text:0000000000000954 .LVL199
     /tmp/ccEiJpMx.s:1309   .text:000000000000095c .LVL200
     /tmp/ccEiJpMx.s:1311   .text:0000000000000964 .LVL201
     /tmp/ccEiJpMx.s:1326   .text:000000000000097c .LVL204
     /tmp/ccEiJpMx.s:1330   .text:0000000000000984 .LVL205
     /tmp/ccEiJpMx.s:1334   .text:000000000000098c .LVL206
     /tmp/ccEiJpMx.s:1339   .text:000000000000099c .LVL207
     /tmp/ccEiJpMx.s:1343   .text:00000000000009a4 .LVL208
     /tmp/ccEiJpMx.s:5530   .debug_str:000000000000039f .LASF53
     /tmp/ccEiJpMx.s:5422   .debug_str:00000000000000d6 .LASF54
     /tmp/ccEiJpMx.s:5488   .debug_str:0000000000000275 .LASF55
     /tmp/ccEiJpMx.s:5418   .debug_str:00000000000000c3 .LASF56
     /tmp/ccEiJpMx.s:5472   .debug_str:0000000000000206 .LASF57
GAS LISTING /tmp/ccEiJpMx.s 			page 55


     /tmp/ccEiJpMx.s:5420   .debug_str:00000000000000c8 .LASF58
     /tmp/ccEiJpMx.s:5538   .debug_str:00000000000003df .LASF60
     /tmp/ccEiJpMx.s:5410   .debug_str:000000000000007f .LASF59
     /tmp/ccEiJpMx.s:5404   .debug_str:000000000000005e .LASF61
     /tmp/ccEiJpMx.s:5464   .debug_str:00000000000001d2 .LASF62
     /tmp/ccEiJpMx.s:5570   .debug_str:000000000000057c .LASF63
     /tmp/ccEiJpMx.s:5542   .debug_str:0000000000000402 .LASF64
     /tmp/ccEiJpMx.s:5466   .debug_str:00000000000001dd .LASF65
     /tmp/ccEiJpMx.s:5522   .debug_str:0000000000000367 .LASF66
     /tmp/ccEiJpMx.s:5476   .debug_str:0000000000000212 .LASF67
     /tmp/ccEiJpMx.s:5514   .debug_str:000000000000032d .LASF68
     /tmp/ccEiJpMx.s:5430   .debug_str:0000000000000111 .LASF69
     /tmp/ccEiJpMx.s:5526   .debug_str:000000000000037f .LASF70
     /tmp/ccEiJpMx.s:5498   .debug_str:00000000000002c2 .LASF71
     /tmp/ccEiJpMx.s:5560   .debug_str:000000000000052d .LASF72
     /tmp/ccEiJpMx.s:5474   .debug_str:000000000000020b .LASF73
     /tmp/ccEiJpMx.s:5440   .debug_str:0000000000000147 .LASF74
     /tmp/ccEiJpMx.s:5416   .debug_str:00000000000000b3 .LASF75
     /tmp/ccEiJpMx.s:5504   .debug_str:00000000000002f0 .LASF76
     /tmp/ccEiJpMx.s:5454   .debug_str:00000000000001a9 .LASF77
     /tmp/ccEiJpMx.s:5496   .debug_str:00000000000002a5 .LASF78
     /tmp/ccEiJpMx.s:5426   .debug_str:00000000000000fc .LASF79
     /tmp/ccEiJpMx.s:5468   .debug_str:00000000000001e8 .LASF80
     /tmp/ccEiJpMx.s:5548   .debug_str:0000000000000420 .LASF81
     /tmp/ccEiJpMx.s:954    .text:00000000000006c4 .LVL140
     /tmp/ccEiJpMx.s:959    .text:00000000000006c8 .LVL141
     /tmp/ccEiJpMx.s:1188   .text:000000000000086c .LVL180
     /tmp/ccEiJpMx.s:1192   .text:0000000000000874 .LVL181
     /tmp/ccEiJpMx.s:991    .text:00000000000006fc .LVL145
     /tmp/ccEiJpMx.s:1005   .text:0000000000000718 .LVL146
     /tmp/ccEiJpMx.s:1010   .text:0000000000000720 .LVL148
     /tmp/ccEiJpMx.s:1027   .text:0000000000000730 .LVL151
     /tmp/ccEiJpMx.s:1053   .text:0000000000000758 .LVL155
     /tmp/ccEiJpMx.s:1100   .text:00000000000007bc .LVL163
     /tmp/ccEiJpMx.s:1200   .text:000000000000087c .LVL182
     /tmp/ccEiJpMx.s:979    .text:00000000000006f0 .LVL143
     /tmp/ccEiJpMx.s:981    .text:00000000000006f4 .LVL144
     /tmp/ccEiJpMx.s:1008   .text:000000000000071c .LVL147
     /tmp/ccEiJpMx.s:1015   .text:0000000000000724 .LVL149
     /tmp/ccEiJpMx.s:1051   .text:0000000000000754 .LVL154
     /tmp/ccEiJpMx.s:1183   .text:0000000000000864 .LVL179
     /tmp/ccEiJpMx.s:1046   .text:0000000000000750 .LVL153
     /tmp/ccEiJpMx.s:1017   .text:0000000000000728 .LVL150
     /tmp/ccEiJpMx.s:1146   .text:0000000000000820 .LVL172
     /tmp/ccEiJpMx.s:1156   .text:000000000000083c .LVL175
     /tmp/ccEiJpMx.s:1162   .text:0000000000000840 .LVL176
     /tmp/ccEiJpMx.s:1239   .text:00000000000008d8 .LVL190
     /tmp/ccEiJpMx.s:636    .text:0000000000000460 .LVL82
     /tmp/ccEiJpMx.s:646    .text:000000000000046c .LVL83
     /tmp/ccEiJpMx.s:688    .text:00000000000004a4 .LVL94
     /tmp/ccEiJpMx.s:692    .text:00000000000004a8 .LVL95
     /tmp/ccEiJpMx.s:852    .text:000000000000060c .LVL126
     /tmp/ccEiJpMx.s:863    .text:0000000000000620 .LVL128
     /tmp/ccEiJpMx.s:650    .text:0000000000000470 .LVL84
     /tmp/ccEiJpMx.s:685    .text:00000000000004a0 .LVL93
     /tmp/ccEiJpMx.s:855    .text:0000000000000610 .LVL127
     /tmp/ccEiJpMx.s:681    .text:000000000000049c .LVL92
GAS LISTING /tmp/ccEiJpMx.s 			page 56


     /tmp/ccEiJpMx.s:845    .text:0000000000000600 .LVL125
     /tmp/ccEiJpMx.s:657    .text:0000000000000480 .LVL86
     /tmp/ccEiJpMx.s:661    .text:0000000000000484 .LVL87
     /tmp/ccEiJpMx.s:665    .text:0000000000000490 .LVL89
     /tmp/ccEiJpMx.s:698    .text:00000000000004b0 .LVL96
     /tmp/ccEiJpMx.s:775    .text:0000000000000568 .LVL111
     /tmp/ccEiJpMx.s:669    .text:0000000000000494 .LVL90
     /tmp/ccEiJpMx.s:675    .text:0000000000000498 .LVL91
     /tmp/ccEiJpMx.s:818    .text:00000000000005d8 .LVL121
     /tmp/ccEiJpMx.s:824    .text:00000000000005dc .LVL122
     /tmp/ccEiJpMx.s:871    .text:0000000000000628 .LVL129
     /tmp/ccEiJpMx.s:110    .text:00000000000000ac .LVL8
     /tmp/ccEiJpMx.s:129    .text:00000000000000d4 .LVL9
     /tmp/ccEiJpMx.s:146    .text:00000000000000f0 .LVL10
     /tmp/ccEiJpMx.s:161    .text:0000000000000110 .LVL13
     /tmp/ccEiJpMx.s:386    .text:0000000000000294 .LVL47
     /tmp/ccEiJpMx.s:412    .text:00000000000002bc .LVL49
     /tmp/ccEiJpMx.s:441    .text:00000000000002f4 .LVL55
     /tmp/ccEiJpMx.s:449    .text:00000000000002fc .LVL56
     /tmp/ccEiJpMx.s:439    .text:00000000000002f0 .LVL54
     /tmp/ccEiJpMx.s:430    .text:00000000000002e4 .LVL52
     /tmp/ccEiJpMx.s:489    .text:0000000000000358 .LVL64
     /tmp/ccEiJpMx.s:402    .text:00000000000002b4 .LVL48
     /tmp/ccEiJpMx.s:187    .text:0000000000000114 .LVL14
     /tmp/ccEiJpMx.s:214    .text:000000000000013c .LVL16
     /tmp/ccEiJpMx.s:243    .text:0000000000000174 .LVL22
     /tmp/ccEiJpMx.s:251    .text:000000000000017c .LVL23
     /tmp/ccEiJpMx.s:241    .text:0000000000000170 .LVL21
     /tmp/ccEiJpMx.s:232    .text:0000000000000164 .LVL19
     /tmp/ccEiJpMx.s:291    .text:00000000000001d8 .LVL31
     /tmp/ccEiJpMx.s:203    .text:0000000000000134 .LVL15
     /tmp/ccEiJpMx.s:1314   .text:0000000000000970 .LVL202
     /tmp/ccEiJpMx.s:1320   .text:0000000000000974 .LVL203
     /tmp/ccEiJpMx.s:1354   .text:00000000000009b4 .LVL209
     /tmp/ccEiJpMx.s:1362   .text:00000000000009bc .LVL210
     /tmp/ccEiJpMx.s:1403   .debug_info:0000000000000000 .Ldebug_info0
     /tmp/ccEiJpMx.s:210    .text:0000000000000138 .LBE9
     /tmp/ccEiJpMx.s:246    .text:0000000000000174 .LBB17
     /tmp/ccEiJpMx.s:284    .text:00000000000001d0 .LBE17
     /tmp/ccEiJpMx.s:211    .text:0000000000000138 .LBB12
     /tmp/ccEiJpMx.s:245    .text:0000000000000174 .LBE12
     /tmp/ccEiJpMx.s:285    .text:00000000000001d0 .LBB18
     /tmp/ccEiJpMx.s:325    .text:000000000000022c .LBE18
     /tmp/ccEiJpMx.s:234    .text:0000000000000164 .LBE13
     /tmp/ccEiJpMx.s:286    .text:00000000000001d0 .LBB16
     /tmp/ccEiJpMx.s:324    .text:000000000000022c .LBE16
     /tmp/ccEiJpMx.s:408    .text:00000000000002b8 .LBE28
     /tmp/ccEiJpMx.s:444    .text:00000000000002f4 .LBB36
     /tmp/ccEiJpMx.s:482    .text:0000000000000350 .LBE36
     /tmp/ccEiJpMx.s:409    .text:00000000000002b8 .LBB31
     /tmp/ccEiJpMx.s:443    .text:00000000000002f4 .LBE31
     /tmp/ccEiJpMx.s:483    .text:0000000000000350 .LBB37
     /tmp/ccEiJpMx.s:523    .text:00000000000003ac .LBE37
     /tmp/ccEiJpMx.s:432    .text:00000000000002e4 .LBE32
     /tmp/ccEiJpMx.s:484    .text:0000000000000350 .LBB35
     /tmp/ccEiJpMx.s:522    .text:00000000000003ac .LBE35
     /tmp/ccEiJpMx.s:628    .text:0000000000000454 .LBB48
GAS LISTING /tmp/ccEiJpMx.s 			page 57


     /tmp/ccEiJpMx.s:631    .text:0000000000000458 .LBE48
     /tmp/ccEiJpMx.s:638    .text:0000000000000460 .LBB58
     /tmp/ccEiJpMx.s:810    .text:00000000000005bc .LBE58
     /tmp/ccEiJpMx.s:642    .text:0000000000000468 .LBB49
     /tmp/ccEiJpMx.s:678    .text:0000000000000498 .LBE49
     /tmp/ccEiJpMx.s:682    .text:000000000000049c .LBB56
     /tmp/ccEiJpMx.s:689    .text:00000000000004a4 .LBE56
     /tmp/ccEiJpMx.s:694    .text:00000000000004a8 .LBB57
     /tmp/ccEiJpMx.s:809    .text:00000000000005bc .LBE57
     /tmp/ccEiJpMx.s:677    .text:0000000000000498 .LBE50
     /tmp/ccEiJpMx.s:770    .text:0000000000000560 .LBB55
     /tmp/ccEiJpMx.s:808    .text:00000000000005bc .LBE55
     /tmp/ccEiJpMx.s:826    .text:00000000000005dc .LBE59
     /tmp/ccEiJpMx.s:866    .text:0000000000000620 .LBB62
     /tmp/ccEiJpMx.s:903    .text:000000000000067c .LBE62
     /tmp/ccEiJpMx.s:984    .text:00000000000006f4 .LBB75
     /tmp/ccEiJpMx.s:987    .text:00000000000006f8 .LBE75
     /tmp/ccEiJpMx.s:992    .text:00000000000006fc .LBB76
     /tmp/ccEiJpMx.s:1012   .text:0000000000000720 .LBE76
     /tmp/ccEiJpMx.s:1023   .text:000000000000072c .LBE77
     /tmp/ccEiJpMx.s:1056   .text:0000000000000758 .LBB85
     /tmp/ccEiJpMx.s:1093   .text:00000000000007b4 .LBE85
     /tmp/ccEiJpMx.s:1024   .text:000000000000072c .LBB80
     /tmp/ccEiJpMx.s:1055   .text:0000000000000758 .LBE80
     /tmp/ccEiJpMx.s:1094   .text:00000000000007b4 .LBB86
     /tmp/ccEiJpMx.s:1134   .text:0000000000000810 .LBE86
     /tmp/ccEiJpMx.s:1048   .text:0000000000000750 .LBE81
     /tmp/ccEiJpMx.s:1095   .text:00000000000007b4 .LBB84
     /tmp/ccEiJpMx.s:1133   .text:0000000000000810 .LBE84
     /tmp/ccEiJpMx.s:1148   .text:0000000000000820 .LBE87
     /tmp/ccEiJpMx.s:1195   .text:0000000000000874 .LBB93
     /tmp/ccEiJpMx.s:1233   .text:00000000000008d0 .LBE93
     /tmp/ccEiJpMx.s:1164   .text:0000000000000840 .LBE90
     /tmp/ccEiJpMx.s:1234   .text:00000000000008d0 .LBB94
     /tmp/ccEiJpMx.s:1271   .text:000000000000092c .LBE94
     /tmp/ccEiJpMx.s:1322   .text:0000000000000974 .LBE97
     /tmp/ccEiJpMx.s:1357   .text:00000000000009b4 .LBB100
     /tmp/ccEiJpMx.s:1394   .text:0000000000000a10 .LBE100

UNDEFINED SYMBOLS
_Z9putStringPKc
_Z10putNewlinev
_Z13thread_createPmPFvPvES0_
_Z15thread_dispatchv
_Z11thread_joinm
_Z9test_callm
_Z6putInti
_Z10stopKernelv
_Z11thread_exitv
_Z6putU64m
_ZN8MemAlloc3getEv
_ZN8MemAlloc16getUserlandUsageEv
_ZN6Thread22initialUserMemoryUsageE
_Z9mem_allocm
_Z8mem_freePv
