GAS LISTING /tmp/cccICcq7.s 			page 1


   1              		.file	"APP.cpp"
   2              		.option pic
   3              		.option norelax
   4              		.text
   5              	.Ltext0:
   6              		.section	.rodata.str1.8,"aMS",@progbits,1
   7              		.align	3
   8              	.LC0:
   9 0000 3D3D3D20 		.string	"=== App ended"
   9      41707020 
   9      656E6465 
   9      6400
  10              		.text
  11              		.align	2
  12              		.globl	_Z10myUserMainv
  14              	_Z10myUserMainv:
  15              	.LFB10:
  16              		.file 1 "src/APP.cpp"
   1:src/APP.cpp   **** #include "../h/my_console.h"
   2:src/APP.cpp   **** #include "../h/syscall_c.hpp"
   3:src/APP.cpp   **** #include "../h/alloc.h"
   4:src/APP.cpp   **** #include "../h/thread.h"
   5:src/APP.cpp   **** 
   6:src/APP.cpp   **** void testSystemCalls();
   7:src/APP.cpp   **** void testMemoryAllocator();
   8:src/APP.cpp   **** void testSyncCall();
   9:src/APP.cpp   **** uint64 fib(uint64);
  10:src/APP.cpp   **** extern uint64 gTimer;
  11:src/APP.cpp   **** 
  12:src/APP.cpp   **** void myUserMain()
  13:src/APP.cpp   **** {
  17              		.loc 1 13 1
  18              		.cfi_startproc
  19 0000 130101FF 		addi	sp,sp,-16
  20              		.cfi_def_cfa_offset 16
  21 0004 23341100 		sd	ra,8(sp)
  22 0008 23308100 		sd	s0,0(sp)
  23              		.cfi_offset 1, -8
  24              		.cfi_offset 8, -16
  25 000c 13040101 		addi	s0,sp,16
  26              		.cfi_def_cfa 8, 0
  14:src/APP.cpp   **** //    __asm__ volatile ("csrw sscratch, x1"); // set spie bit to 1. spie signifies that we dont wan
  15:src/APP.cpp   **** 
  16:src/APP.cpp   ****     __asm__ volatile ("mv x10, x10");
  27              		.loc 1 16 5
  28              		.loc 1 16 37 is_stmt 0
  29              	#APP
  30              	# 16 "src/APP.cpp" 1
  17              	
  18:src/APP.cpp   ****     void testTimeSlice();
  31              		mv x10, x10
  32              	# 0 "" 2
  33              		.loc 1 18 5 is_stmt 1
  19:src/APP.cpp   ****     testTimeSlice();
  34              		.loc 1 19 5
  35              		.loc 1 19 18 is_stmt 0
  36              	#NO_APP
GAS LISTING /tmp/cccICcq7.s 			page 2


  37 0014 97000000 		call	_Z13testTimeSlicev@plt
  37      E7800000 
  38              	.LVL0:
  20:src/APP.cpp   **** //    putString("=== App started");
  21:src/APP.cpp   **** //    putNewline();
  22:src/APP.cpp   **** 
  23:src/APP.cpp   **** //    testSystemCalls();
  24:src/APP.cpp   **** //    testMemoryAllocator();
  25:src/APP.cpp   **** //    testSyncCall();
  26:src/APP.cpp   **** 
  27:src/APP.cpp   **** 
  28:src/APP.cpp   ****     putString("=== App ended");
  39              		.loc 1 28 5 is_stmt 1
  40              		.loc 1 28 14 is_stmt 0
  41 001c 17050000 		lla	a0,.LC0
  41      13050500 
  42 0024 97000000 		call	_Z9putStringPKc@plt
  42      E7800000 
  43              	.LVL1:
  29:src/APP.cpp   ****     putNewline();
  44              		.loc 1 29 5 is_stmt 1
  45              		.loc 1 29 15 is_stmt 0
  46 002c 97000000 		call	_Z10putNewlinev@plt
  46      E7800000 
  47              	.LVL2:
  30:src/APP.cpp   **** }
  48              		.loc 1 30 1
  49 0034 83308100 		ld	ra,8(sp)
  50              		.cfi_restore 1
  51 0038 03340100 		ld	s0,0(sp)
  52              		.cfi_restore 8
  53              		.cfi_def_cfa 2, 16
  54 003c 13010101 		addi	sp,sp,16
  55              		.cfi_def_cfa_offset 0
  56 0040 67800000 		jr	ra
  57              		.cfi_endproc
  58              	.LFE10:
  60              		.section	.rodata.str1.8
  61 000e 0000     		.align	3
  62              	.LC1:
  63 0010 3D3D3D3D 		.string	"===================== ASSERT file: "
  63      3D3D3D3D 
  63      3D3D3D3D 
  63      3D3D3D3D 
  63      3D3D3D3D 
  64 0034 00000000 		.align	3
  65              	.LC2:
  66 0038 7372632F 		.string	"src/APP.cpp"
  66      4150502E 
  66      63707000 
  67 0044 00000000 		.align	3
  68              	.LC3:
  69 0048 20202020 		.string	"    line: "
  69      6C696E65 
  69      3A2000
  70 0053 00000000 		.align	3
  70      00
GAS LISTING /tmp/cccICcq7.s 			page 3


  71              	.LC4:
  72 0058 2020203D 		.string	"   ==========================="
  72      3D3D3D3D 
  72      3D3D3D3D 
  72      3D3D3D3D 
  72      3D3D3D3D 
  73              		.text
  74              		.align	2
  75              		.globl	_Z13testTimeSlicev
  77              	_Z13testTimeSlicev:
  78              	.LFB11:
  31:src/APP.cpp   **** 
  32:src/APP.cpp   **** int sliceFirstCounter = 0;
  33:src/APP.cpp   **** int sliceSecondCounter = 0;
  34:src/APP.cpp   **** 
  35:src/APP.cpp   **** void testTimeSlice()
  36:src/APP.cpp   **** {
  79              		.loc 1 36 1 is_stmt 1
  80              		.cfi_startproc
  81 0044 130101FC 		addi	sp,sp,-64
  82              		.cfi_def_cfa_offset 64
  83 0048 233C1102 		sd	ra,56(sp)
  84 004c 23388102 		sd	s0,48(sp)
  85 0050 23349102 		sd	s1,40(sp)
  86              		.cfi_offset 1, -8
  87              		.cfi_offset 8, -16
  88              		.cfi_offset 9, -24
  89 0054 13040104 		addi	s0,sp,64
  90              		.cfi_def_cfa 8, 0
  37:src/APP.cpp   ****     void doP(void*);
  91              		.loc 1 37 5
  38:src/APP.cpp   ****     void doQ(void*);
  92              		.loc 1 38 5
  39:src/APP.cpp   **** 
  40:src/APP.cpp   ****     uint64 n = 100000000;
  93              		.loc 1 40 5
  94              		.loc 1 40 12 is_stmt 0
  95 0058 B7E7F505 		li	a5,99999744
  96 005c 93870710 		addi	a5,a5,256
  97 0060 233CF4FC 		sd	a5,-40(s0)
  41:src/APP.cpp   **** 
  42:src/APP.cpp   ****     void doSliceFirst(void*);
  98              		.loc 1 42 5 is_stmt 1
  43:src/APP.cpp   ****     void doSliceSecond(void*);
  99              		.loc 1 43 5
  44:src/APP.cpp   **** 
  45:src/APP.cpp   ****     thread_t sliceFirst;
 100              		.loc 1 45 5
  46:src/APP.cpp   ****     thread_create(&sliceFirst, &doSliceFirst, &n);
 101              		.loc 1 46 5
 102              		.loc 1 46 18 is_stmt 0
 103 0064 930484FD 		addi	s1,s0,-40
 104 0068 13860400 		mv	a2,s1
 105 006c 97050000 		la	a1,_Z12doSliceFirstPv
 105      83B50500 
 106 0074 130504FD 		addi	a0,s0,-48
 107 0078 97000000 		call	_Z13thread_createPmPFvPvES0_@plt
GAS LISTING /tmp/cccICcq7.s 			page 4


 107      E7800000 
 108              	.LVL3:
  47:src/APP.cpp   **** 
  48:src/APP.cpp   ****     thread_t sliceSecond;
 109              		.loc 1 48 5 is_stmt 1
  49:src/APP.cpp   ****     thread_create(&sliceSecond, &doSliceSecond, &n);
 110              		.loc 1 49 5
 111              		.loc 1 49 18 is_stmt 0
 112 0080 13860400 		mv	a2,s1
 113 0084 97050000 		la	a1,_Z13doSliceSecondPv
 113      83B50500 
 114 008c 130584FC 		addi	a0,s0,-56
 115 0090 97000000 		call	_Z13thread_createPmPFvPvES0_@plt
 115      E7800000 
 116              	.LVL4:
  50:src/APP.cpp   **** 
  51:src/APP.cpp   ****     thread_join(sliceFirst);
 117              		.loc 1 51 5 is_stmt 1
 118              		.loc 1 51 16 is_stmt 0
 119 0098 033504FD 		ld	a0,-48(s0)
 120 009c 97000000 		call	_Z11thread_joinm@plt
 120      E7800000 
 121              	.LVL5:
  52:src/APP.cpp   ****     thread_join(sliceSecond);
 122              		.loc 1 52 5 is_stmt 1
 123              		.loc 1 52 16 is_stmt 0
 124 00a4 033584FC 		ld	a0,-56(s0)
 125 00a8 97000000 		call	_Z11thread_joinm@plt
 125      E7800000 
 126              	.LVL6:
  53:src/APP.cpp   **** 
  54:src/APP.cpp   ****     assert(sliceFirstCounter == sliceSecondCounter); // TODO: namesti da bude signurniji check
 127              		.loc 1 54 5 is_stmt 1
 128 00b0 97070000 		lla	a5,.LANCHOR0
 128      93870700 
 129 00b8 03A70700 		lw	a4,0(a5)
 130 00bc 83A74700 		lw	a5,4(a5)
 131              	.LVL7:
 132              	.LBB4:
 133              	.LBB5:
 134              		.file 2 "src/../h/my_console.h"
   1:src/../h/my_console.h **** #pragma once
   2:src/../h/my_console.h **** 
   3:src/../h/my_console.h **** #include "../h/risc.h"
   4:src/../h/my_console.h **** 
   5:src/../h/my_console.h **** #include "../lib/hw.h"
   6:src/../h/my_console.h **** 
   7:src/../h/my_console.h **** #define __DEBUG_MODE
   8:src/../h/my_console.h **** 
   9:src/../h/my_console.h **** 
  10:src/../h/my_console.h **** void putString(const char* s);
  11:src/../h/my_console.h **** void putInt(int n);
  12:src/../h/my_console.h **** void putNewline();
  13:src/../h/my_console.h **** void putU64(uint64 n);
  14:src/../h/my_console.h **** void putBinary(uint64 n);
  15:src/../h/my_console.h **** 
  16:src/../h/my_console.h **** [[noreturn]] void stopKernel();
GAS LISTING /tmp/cccICcq7.s 			page 5


  17:src/../h/my_console.h **** 
  18:src/../h/my_console.h **** inline void _assert(bool valid, const char* file, int line) // MUST be inline
  19:src/../h/my_console.h **** {
  20:src/../h/my_console.h ****     if(valid)
 135              		.loc 2 20 5
 136 00c0 631CF700 		bne	a4,a5,.L6
 137              	.LBE5:
 138              	.LBE4:
  55:src/APP.cpp   **** }
 139              		.loc 1 55 1 is_stmt 0
 140 00c4 83308103 		ld	ra,56(sp)
 141              		.cfi_remember_state
 142              		.cfi_restore 1
 143 00c8 03340103 		ld	s0,48(sp)
 144              		.cfi_restore 8
 145              		.cfi_def_cfa 2, 64
 146 00cc 83348102 		ld	s1,40(sp)
 147              		.cfi_restore 9
 148 00d0 13010104 		addi	sp,sp,64
 149              		.cfi_def_cfa_offset 0
 150 00d4 67800000 		jr	ra
 151              	.L6:
 152              		.cfi_restore_state
 153              	.LBB7:
 154              	.LBB6:
  21:src/../h/my_console.h ****         return;
  22:src/../h/my_console.h **** 
  23:src/../h/my_console.h ****     putString("===================== ASSERT file: ");
 155              		.loc 2 23 5 is_stmt 1
 156              		.loc 2 23 14 is_stmt 0
 157 00d8 17050000 		lla	a0,.LC1
 157      13050500 
 158 00e0 97000000 		call	_Z9putStringPKc@plt
 158      E7800000 
 159              	.LVL8:
  24:src/../h/my_console.h ****     putString(file);
 160              		.loc 2 24 5 is_stmt 1
 161              		.loc 2 24 14 is_stmt 0
 162 00e8 17050000 		lla	a0,.LC2
 162      13050500 
 163 00f0 97000000 		call	_Z9putStringPKc@plt
 163      E7800000 
 164              	.LVL9:
  25:src/../h/my_console.h ****     putString("    line: ");
 165              		.loc 2 25 5 is_stmt 1
 166              		.loc 2 25 14 is_stmt 0
 167 00f8 17050000 		lla	a0,.LC3
 167      13050500 
 168 0100 97000000 		call	_Z9putStringPKc@plt
 168      E7800000 
 169              	.LVL10:
  26:src/../h/my_console.h ****     putInt(line);
 170              		.loc 2 26 5 is_stmt 1
 171              		.loc 2 26 11 is_stmt 0
 172 0108 13056003 		li	a0,54
 173 010c 97000000 		call	_Z6putInti@plt
 173      E7800000 
GAS LISTING /tmp/cccICcq7.s 			page 6


 174              	.LVL11:
  27:src/../h/my_console.h ****     putString("   ===========================");
 175              		.loc 2 27 5 is_stmt 1
 176              		.loc 2 27 14 is_stmt 0
 177 0114 17050000 		lla	a0,.LC4
 177      13050500 
 178 011c 97000000 		call	_Z9putStringPKc@plt
 178      E7800000 
 179              	.LVL12:
  28:src/../h/my_console.h ****     putNewline();
 180              		.loc 2 28 5 is_stmt 1
 181              		.loc 2 28 15 is_stmt 0
 182 0124 97000000 		call	_Z10putNewlinev@plt
 182      E7800000 
 183              	.LVL13:
  29:src/../h/my_console.h **** 
  30:src/../h/my_console.h ****     stopKernel();
 184              		.loc 2 30 5 is_stmt 1
 185              		.loc 2 30 15 is_stmt 0
 186 012c 97000000 		call	_Z10stopKernelv@plt
 186      E7800000 
 187              	.LVL14:
 188              	.LBE6:
 189              	.LBE7:
 190              		.cfi_endproc
 191              	.LFE11:
 193              		.align	2
 194              		.globl	_Z12doSliceFirstPv
 196              	_Z12doSliceFirstPv:
 197              	.LFB12:
  56:src/APP.cpp   **** 
  57:src/APP.cpp   **** 
  58:src/APP.cpp   **** void doSliceFirst(void* n)
  59:src/APP.cpp   **** {
 198              		.loc 1 59 1 is_stmt 1
 199              		.cfi_startproc
 200              	.LVL15:
  60:src/APP.cpp   ****     uint64 oldTimer = gTimer;
 201              		.loc 1 60 5
 202              		.loc 1 60 12 is_stmt 0
 203 0134 97070000 		la	a5,gTimer
 203      83B70700 
 204 013c 83B60700 		ld	a3,0(a5)
 205              	.LVL16:
  61:src/APP.cpp   ****     for(uint64 i=0; i<*(uint64*)n; i++)
 206              		.loc 1 61 5 is_stmt 1
 207              	.LBB11:
 208              		.loc 1 61 16 is_stmt 0
 209 0140 93070000 		li	a5,0
 210 0144 6F00C002 		j	.L10
 211              	.LVL17:
 212              	.L15:
  62:src/APP.cpp   ****     {
  63:src/APP.cpp   ****         if(oldTimer != gTimer)
  64:src/APP.cpp   ****         {
  65:src/APP.cpp   ****             __asm__ volatile("mv x10, x10");
 213              		.loc 1 65 13 is_stmt 1
GAS LISTING /tmp/cccICcq7.s 			page 7


 214              		.loc 1 65 44 is_stmt 0
 215              	#APP
 216              	# 65 "src/APP.cpp" 1
  66              	
  67:src/APP.cpp   ****             sliceFirstCounter++;
 217              		mv x10, x10
 218              	# 0 "" 2
 219              		.loc 1 67 13 is_stmt 1
 220              		.loc 1 67 30 is_stmt 0
 221              	#NO_APP
 222 014c 97060000 		lla	a3,.LANCHOR0
 222      93860600 
 223              	.LVL18:
 224 0154 03A70600 		lw	a4,0(a3)
 225 0158 1B071700 		addiw	a4,a4,1
 226 015c 23A0E600 		sw	a4,0(a3)
  68:src/APP.cpp   ****             oldTimer = gTimer;
 227              		.loc 1 68 13 is_stmt 1
 228              		.loc 1 68 22 is_stmt 0
 229 0160 17070000 		la	a4,gTimer
 229      03370700 
 230              	.LVL19:
 231 0168 83360700 		ld	a3,0(a4)
 232              	.LVL20:
 233              	.L9:
  61:src/APP.cpp   ****     {
 234              		.loc 1 61 5 is_stmt 1 discriminator 2
 235 016c 93871700 		addi	a5,a5,1
 236              	.LVL21:
 237              	.L10:
  61:src/APP.cpp   ****     {
 238              		.loc 1 61 22 discriminator 1
  61:src/APP.cpp   ****     {
 239              		.loc 1 61 23 is_stmt 0 discriminator 1
 240 0170 03370500 		ld	a4,0(a0)
  61:src/APP.cpp   ****     {
 241              		.loc 1 61 22 discriminator 1
 242 0174 63FCE700 		bleu	a4,a5,.L8
  63:src/APP.cpp   ****         {
 243              		.loc 1 63 9 is_stmt 1
  63:src/APP.cpp   ****         {
 244              		.loc 1 63 21 is_stmt 0
 245 0178 17070000 		la	a4,gTimer
 245      03370700 
 246 0180 03370700 		ld	a4,0(a4)
  63:src/APP.cpp   ****         {
 247              		.loc 1 63 9
 248 0184 E312D7FC 		bne	a4,a3,.L15
 249 0188 6FF05FFE 		j	.L9
 250              	.L8:
 251              	.LBE11:
  69:src/APP.cpp   ****         }
  70:src/APP.cpp   ****     }
  71:src/APP.cpp   ****     assert(sliceFirstCounter > 0); // "n" in test too small probably
 252              		.loc 1 71 5 is_stmt 1
 253 018c 97070000 		lw	a5,.LANCHOR0
 253      83A70700 
GAS LISTING /tmp/cccICcq7.s 			page 8


 254              	.LVL22:
 255              	.LBB12:
 256              	.LBB13:
  20:src/../h/my_console.h ****         return;
 257              		.loc 2 20 5
 258 0194 6354F000 		blez	a5,.L16
 259 0198 67800000 		ret
 260              	.L16:
 261              	.LBE13:
 262              	.LBE12:
  59:src/APP.cpp   ****     uint64 oldTimer = gTimer;
 263              		.loc 1 59 1 is_stmt 0
 264 019c 130101FF 		addi	sp,sp,-16
 265              		.cfi_def_cfa_offset 16
 266 01a0 23341100 		sd	ra,8(sp)
 267 01a4 23308100 		sd	s0,0(sp)
 268              		.cfi_offset 1, -8
 269              		.cfi_offset 8, -16
 270 01a8 13040101 		addi	s0,sp,16
 271              		.cfi_def_cfa 8, 0
 272              	.LBB15:
 273              	.LBB14:
  23:src/../h/my_console.h ****     putString(file);
 274              		.loc 2 23 5 is_stmt 1
  23:src/../h/my_console.h ****     putString(file);
 275              		.loc 2 23 14 is_stmt 0
 276 01ac 17050000 		lla	a0,.LC1
 276      13050500 
 277              	.LVL23:
 278 01b4 97000000 		call	_Z9putStringPKc@plt
 278      E7800000 
 279              	.LVL24:
  24:src/../h/my_console.h ****     putString("    line: ");
 280              		.loc 2 24 5 is_stmt 1
  24:src/../h/my_console.h ****     putString("    line: ");
 281              		.loc 2 24 14 is_stmt 0
 282 01bc 17050000 		lla	a0,.LC2
 282      13050500 
 283 01c4 97000000 		call	_Z9putStringPKc@plt
 283      E7800000 
 284              	.LVL25:
  25:src/../h/my_console.h ****     putInt(line);
 285              		.loc 2 25 5 is_stmt 1
  25:src/../h/my_console.h ****     putInt(line);
 286              		.loc 2 25 14 is_stmt 0
 287 01cc 17050000 		lla	a0,.LC3
 287      13050500 
 288 01d4 97000000 		call	_Z9putStringPKc@plt
 288      E7800000 
 289              	.LVL26:
  26:src/../h/my_console.h ****     putString("   ===========================");
 290              		.loc 2 26 5 is_stmt 1
  26:src/../h/my_console.h ****     putString("   ===========================");
 291              		.loc 2 26 11 is_stmt 0
 292 01dc 13057004 		li	a0,71
 293 01e0 97000000 		call	_Z6putInti@plt
 293      E7800000 
GAS LISTING /tmp/cccICcq7.s 			page 9


 294              	.LVL27:
  27:src/../h/my_console.h ****     putNewline();
 295              		.loc 2 27 5 is_stmt 1
  27:src/../h/my_console.h ****     putNewline();
 296              		.loc 2 27 14 is_stmt 0
 297 01e8 17050000 		lla	a0,.LC4
 297      13050500 
 298 01f0 97000000 		call	_Z9putStringPKc@plt
 298      E7800000 
 299              	.LVL28:
  28:src/../h/my_console.h **** 
 300              		.loc 2 28 5 is_stmt 1
  28:src/../h/my_console.h **** 
 301              		.loc 2 28 15 is_stmt 0
 302 01f8 97000000 		call	_Z10putNewlinev@plt
 302      E7800000 
 303              	.LVL29:
 304              		.loc 2 30 5 is_stmt 1
 305              		.loc 2 30 15 is_stmt 0
 306 0200 97000000 		call	_Z10stopKernelv@plt
 306      E7800000 
 307              	.LVL30:
 308              	.LBE14:
 309              	.LBE15:
 310              		.cfi_endproc
 311              	.LFE12:
 313              		.align	2
 314              		.globl	_Z13doSliceSecondPv
 316              	_Z13doSliceSecondPv:
 317              	.LFB13:
  72:src/APP.cpp   **** }
  73:src/APP.cpp   **** 
  74:src/APP.cpp   **** void doSliceSecond(void* n)
  75:src/APP.cpp   **** {
 318              		.loc 1 75 1 is_stmt 1
 319              		.cfi_startproc
 320              	.LVL31:
 321 0208 130101FF 		addi	sp,sp,-16
 322              		.cfi_def_cfa_offset 16
 323 020c 23341100 		sd	ra,8(sp)
 324 0210 23308100 		sd	s0,0(sp)
 325              		.cfi_offset 1, -8
 326              		.cfi_offset 8, -16
 327 0214 13040101 		addi	s0,sp,16
 328              		.cfi_def_cfa 8, 0
  76:src/APP.cpp   ****     uint64 oldTimer = gTimer;
 329              		.loc 1 76 5
 330              		.loc 1 76 12 is_stmt 0
 331 0218 97070000 		la	a5,gTimer
 331      83B70700 
 332 0220 83B60700 		ld	a3,0(a5)
 333              	.LVL32:
  77:src/APP.cpp   ****     for(uint64 i=0; i<*(uint64*)n; i++)
 334              		.loc 1 77 5 is_stmt 1
 335              	.LBB21:
 336              		.loc 1 77 16 is_stmt 0
 337 0224 93070000 		li	a5,0
GAS LISTING /tmp/cccICcq7.s 			page 10


 338 0228 6F004006 		j	.L21
 339              	.LVL33:
 340              	.L24:
 341              	.LBB22:
 342              	.LBB23:
  23:src/../h/my_console.h ****     putString(file);
 343              		.loc 2 23 5 is_stmt 1
  23:src/../h/my_console.h ****     putString(file);
 344              		.loc 2 23 14 is_stmt 0
 345 022c 17050000 		lla	a0,.LC1
 345      13050500 
 346              	.LVL34:
 347 0234 97000000 		call	_Z9putStringPKc@plt
 347      E7800000 
 348              	.LVL35:
  24:src/../h/my_console.h ****     putString("    line: ");
 349              		.loc 2 24 5 is_stmt 1
  24:src/../h/my_console.h ****     putString("    line: ");
 350              		.loc 2 24 14 is_stmt 0
 351 023c 17050000 		lla	a0,.LC2
 351      13050500 
 352 0244 97000000 		call	_Z9putStringPKc@plt
 352      E7800000 
 353              	.LVL36:
  25:src/../h/my_console.h ****     putInt(line);
 354              		.loc 2 25 5 is_stmt 1
  25:src/../h/my_console.h ****     putInt(line);
 355              		.loc 2 25 14 is_stmt 0
 356 024c 17050000 		lla	a0,.LC3
 356      13050500 
 357 0254 97000000 		call	_Z9putStringPKc@plt
 357      E7800000 
 358              	.LVL37:
  26:src/../h/my_console.h ****     putString("   ===========================");
 359              		.loc 2 26 5 is_stmt 1
  26:src/../h/my_console.h ****     putString("   ===========================");
 360              		.loc 2 26 11 is_stmt 0
 361 025c 13054005 		li	a0,84
 362 0260 97000000 		call	_Z6putInti@plt
 362      E7800000 
 363              	.LVL38:
  27:src/../h/my_console.h ****     putNewline();
 364              		.loc 2 27 5 is_stmt 1
  27:src/../h/my_console.h ****     putNewline();
 365              		.loc 2 27 14 is_stmt 0
 366 0268 17050000 		lla	a0,.LC4
 366      13050500 
 367 0270 97000000 		call	_Z9putStringPKc@plt
 367      E7800000 
 368              	.LVL39:
  28:src/../h/my_console.h **** 
 369              		.loc 2 28 5 is_stmt 1
  28:src/../h/my_console.h **** 
 370              		.loc 2 28 15 is_stmt 0
 371 0278 97000000 		call	_Z10putNewlinev@plt
 371      E7800000 
 372              	.LVL40:
GAS LISTING /tmp/cccICcq7.s 			page 11


 373              		.loc 2 30 5 is_stmt 1
 374              		.loc 2 30 15 is_stmt 0
 375 0280 97000000 		call	_Z10stopKernelv@plt
 375      E7800000 
 376              	.LVL41:
 377              	.L19:
 378              	.LBE23:
 379              	.LBE22:
 380              		.loc 1 77 5 is_stmt 1 discriminator 2
 381 0288 93871700 		addi	a5,a5,1
 382              	.LVL42:
 383              	.L21:
 384              		.loc 1 77 22 discriminator 1
 385              		.loc 1 77 23 is_stmt 0 discriminator 1
 386 028c 03370500 		ld	a4,0(a0)
 387              		.loc 1 77 22 discriminator 1
 388 0290 63F6E704 		bleu	a4,a5,.L18
  78:src/APP.cpp   ****     {
  79:src/APP.cpp   ****         if(oldTimer != gTimer)
 389              		.loc 1 79 9 is_stmt 1
 390              		.loc 1 79 21 is_stmt 0
 391 0294 17070000 		la	a4,gTimer
 391      03370700 
 392 029c 03370700 		ld	a4,0(a4)
 393              		.loc 1 79 9
 394 02a0 E304D7FE 		beq	a4,a3,.L19
  80:src/APP.cpp   ****         {
  81:src/APP.cpp   ****             __asm__ volatile("mv x10, x10");
 395              		.loc 1 81 13 is_stmt 1
 396              		.loc 1 81 44 is_stmt 0
 397              	#APP
 398              	# 81 "src/APP.cpp" 1
  82              	
  83:src/APP.cpp   ****             sliceSecondCounter++;
 399              		mv x10, x10
 400              	# 0 "" 2
 401              		.loc 1 83 13 is_stmt 1
 402              		.loc 1 83 31 is_stmt 0
 403              	#NO_APP
 404 02a8 17060000 		lla	a2,.LANCHOR0
 404      13060600 
 405 02b0 03274600 		lw	a4,4(a2)
 406 02b4 9B061700 		addiw	a3,a4,1
 407              	.LVL43:
 408 02b8 2322D600 		sw	a3,4(a2)
  84:src/APP.cpp   ****             assert((((int)sliceFirstCounter) - ((int)sliceSecondCounter)) <= 1);
 409              		.loc 1 84 13 is_stmt 1
 410 02bc 03270600 		lw	a4,0(a2)
 411 02c0 3B07D740 		subw	a4,a4,a3
 412 02c4 13272700 		slti	a4,a4,2
 413              	.LVL44:
 414              	.LBB25:
 415              	.LBB24:
  20:src/../h/my_console.h ****         return;
 416              		.loc 2 20 5
 417 02c8 E30207F6 		beqz	a4,.L24
  21:src/../h/my_console.h **** 
GAS LISTING /tmp/cccICcq7.s 			page 12


 418              		.loc 2 21 9
 419              	.LVL45:
 420              	.LBE24:
 421              	.LBE25:
  85:src/APP.cpp   ****             oldTimer = gTimer;
 422              		.loc 1 85 13
 423              		.loc 1 85 22 is_stmt 0
 424 02cc 17070000 		la	a4,gTimer
 424      03370700 
 425              	.LVL46:
 426 02d4 83360700 		ld	a3,0(a4)
 427              	.LVL47:
 428 02d8 6FF01FFB 		j	.L19
 429              	.L18:
 430              	.LBE21:
  86:src/APP.cpp   ****         }
  87:src/APP.cpp   ****     }
  88:src/APP.cpp   **** 
  89:src/APP.cpp   ****     assert(sliceSecondCounter > 0); // "n" in test too small probably
 431              		.loc 1 89 5 is_stmt 1
 432 02dc 97070000 		lw	a5,.LANCHOR0+4
 432      83A70700 
 433              	.LVL48:
 434              	.LBB26:
 435              	.LBB27:
  20:src/../h/my_console.h ****         return;
 436              		.loc 2 20 5
 437 02e4 635AF000 		blez	a5,.L25
 438              	.LBE27:
 439              	.LBE26:
  90:src/APP.cpp   **** }
 440              		.loc 1 90 1 is_stmt 0
 441 02e8 83308100 		ld	ra,8(sp)
 442              		.cfi_remember_state
 443              		.cfi_restore 1
 444 02ec 03340100 		ld	s0,0(sp)
 445              		.cfi_restore 8
 446              		.cfi_def_cfa 2, 16
 447 02f0 13010101 		addi	sp,sp,16
 448              		.cfi_def_cfa_offset 0
 449 02f4 67800000 		jr	ra
 450              	.L25:
 451              		.cfi_restore_state
 452              	.LBB29:
 453              	.LBB28:
  23:src/../h/my_console.h ****     putString(file);
 454              		.loc 2 23 5 is_stmt 1
  23:src/../h/my_console.h ****     putString(file);
 455              		.loc 2 23 14 is_stmt 0
 456 02f8 17050000 		lla	a0,.LC1
 456      13050500 
 457              	.LVL49:
 458 0300 97000000 		call	_Z9putStringPKc@plt
 458      E7800000 
 459              	.LVL50:
  24:src/../h/my_console.h ****     putString("    line: ");
 460              		.loc 2 24 5 is_stmt 1
GAS LISTING /tmp/cccICcq7.s 			page 13


  24:src/../h/my_console.h ****     putString("    line: ");
 461              		.loc 2 24 14 is_stmt 0
 462 0308 17050000 		lla	a0,.LC2
 462      13050500 
 463 0310 97000000 		call	_Z9putStringPKc@plt
 463      E7800000 
 464              	.LVL51:
  25:src/../h/my_console.h ****     putInt(line);
 465              		.loc 2 25 5 is_stmt 1
  25:src/../h/my_console.h ****     putInt(line);
 466              		.loc 2 25 14 is_stmt 0
 467 0318 17050000 		lla	a0,.LC3
 467      13050500 
 468 0320 97000000 		call	_Z9putStringPKc@plt
 468      E7800000 
 469              	.LVL52:
  26:src/../h/my_console.h ****     putString("   ===========================");
 470              		.loc 2 26 5 is_stmt 1
  26:src/../h/my_console.h ****     putString("   ===========================");
 471              		.loc 2 26 11 is_stmt 0
 472 0328 13059005 		li	a0,89
 473 032c 97000000 		call	_Z6putInti@plt
 473      E7800000 
 474              	.LVL53:
  27:src/../h/my_console.h ****     putNewline();
 475              		.loc 2 27 5 is_stmt 1
  27:src/../h/my_console.h ****     putNewline();
 476              		.loc 2 27 14 is_stmt 0
 477 0334 17050000 		lla	a0,.LC4
 477      13050500 
 478 033c 97000000 		call	_Z9putStringPKc@plt
 478      E7800000 
 479              	.LVL54:
  28:src/../h/my_console.h **** 
 480              		.loc 2 28 5 is_stmt 1
  28:src/../h/my_console.h **** 
 481              		.loc 2 28 15 is_stmt 0
 482 0344 97000000 		call	_Z10putNewlinev@plt
 482      E7800000 
 483              	.LVL55:
 484              		.loc 2 30 5 is_stmt 1
 485              		.loc 2 30 15 is_stmt 0
 486 034c 97000000 		call	_Z10stopKernelv@plt
 486      E7800000 
 487              	.LVL56:
 488              	.LBE28:
 489              	.LBE29:
 490              		.cfi_endproc
 491              	.LFE13:
 493              		.section	.rodata.str1.8
 494 0077 00       		.align	3
 495              	.LC5:
 496 0078 3D3D3D20 		.string	"=== Testing \"testSyncCall\""
 496      54657374 
 496      696E6720 
 496      22746573 
 496      7453796E 
GAS LISTING /tmp/cccICcq7.s 			page 14


 497 0093 00000000 		.align	3
 497      00
 498              	.LC6:
 499 0098 3D3D3D20 		.string	"=== Success in testing \"testSyncCall\""
 499      53756363 
 499      65737320 
 499      696E2074 
 499      65737469 
 500              		.text
 501              		.align	2
 502              		.globl	_Z12testSyncCallv
 504              	_Z12testSyncCallv:
 505              	.LFB14:
  91:src/APP.cpp   **** 
  92:src/APP.cpp   **** void testSyncCall()
  93:src/APP.cpp   **** {
 506              		.loc 1 93 1 is_stmt 1
 507              		.cfi_startproc
 508 0354 130101FD 		addi	sp,sp,-48
 509              		.cfi_def_cfa_offset 48
 510 0358 23341102 		sd	ra,40(sp)
 511 035c 23308102 		sd	s0,32(sp)
 512              		.cfi_offset 1, -8
 513              		.cfi_offset 8, -16
 514 0360 13040103 		addi	s0,sp,48
 515              		.cfi_def_cfa 8, 0
  94:src/APP.cpp   **** //    disableExternalInterrupts();
  95:src/APP.cpp   **** 
  96:src/APP.cpp   **** //    assert(MemAlloc::get()->getUserlandUsage() == IThread::initialUserMemoryUsage);
  97:src/APP.cpp   **** 
  98:src/APP.cpp   ****     putString("=== Testing \"testSyncCall\"");
 516              		.loc 1 98 5
 517              		.loc 1 98 14 is_stmt 0
 518 0364 17050000 		lla	a0,.LC5
 518      13050500 
 519 036c 97000000 		call	_Z9putStringPKc@plt
 519      E7800000 
 520              	.LVL57:
  99:src/APP.cpp   ****     putNewline();
 521              		.loc 1 99 5 is_stmt 1
 522              		.loc 1 99 15 is_stmt 0
 523 0374 97000000 		call	_Z10putNewlinev@plt
 523      E7800000 
 524              	.LVL58:
 100:src/APP.cpp   **** 
 101:src/APP.cpp   ****     void doA(void*);
 525              		.loc 1 101 5 is_stmt 1
 102:src/APP.cpp   ****     void doB(void*);
 526              		.loc 1 102 5
 103:src/APP.cpp   **** 
 104:src/APP.cpp   ****     int argA = 69;
 527              		.loc 1 104 5
 528              		.loc 1 104 9 is_stmt 0
 529 037c 93075004 		li	a5,69
 530 0380 2326F4FE 		sw	a5,-20(s0)
 105:src/APP.cpp   ****     int argB = 420;
 531              		.loc 1 105 5 is_stmt 1
GAS LISTING /tmp/cccICcq7.s 			page 15


 532              		.loc 1 105 9 is_stmt 0
 533 0384 9307401A 		li	a5,420
 534 0388 2324F4FE 		sw	a5,-24(s0)
 106:src/APP.cpp   ****     thread_t a;
 535              		.loc 1 106 5 is_stmt 1
 107:src/APP.cpp   ****     thread_t b;
 536              		.loc 1 107 5
 108:src/APP.cpp   ****     thread_create(&a, doA, &argA);
 537              		.loc 1 108 5
 538              		.loc 1 108 18 is_stmt 0
 539 038c 1306C4FE 		addi	a2,s0,-20
 540 0390 97050000 		la	a1,_Z3doAPv
 540      83B50500 
 541 0398 130504FE 		addi	a0,s0,-32
 542 039c 97000000 		call	_Z13thread_createPmPFvPvES0_@plt
 542      E7800000 
 543              	.LVL59:
 109:src/APP.cpp   ****     thread_create(&b, doB, &argB);
 544              		.loc 1 109 5 is_stmt 1
 545              		.loc 1 109 18 is_stmt 0
 546 03a4 130684FE 		addi	a2,s0,-24
 547 03a8 97050000 		la	a1,_Z3doBPv
 547      83B50500 
 548 03b0 130584FD 		addi	a0,s0,-40
 549 03b4 97000000 		call	_Z13thread_createPmPFvPvES0_@plt
 549      E7800000 
 550              	.LVL60:
 110:src/APP.cpp   ****     thread_dispatch();
 551              		.loc 1 110 5 is_stmt 1
 552              		.loc 1 110 20 is_stmt 0
 553 03bc 97000000 		call	_Z15thread_dispatchv@plt
 553      E7800000 
 554              	.LVL61:
 111:src/APP.cpp   **** 
 112:src/APP.cpp   ****     thread_join(b);
 555              		.loc 1 112 5 is_stmt 1
 556              		.loc 1 112 16 is_stmt 0
 557 03c4 033584FD 		ld	a0,-40(s0)
 558 03c8 97000000 		call	_Z11thread_joinm@plt
 558      E7800000 
 559              	.LVL62:
 113:src/APP.cpp   ****     thread_join(a);
 560              		.loc 1 113 5 is_stmt 1
 561              		.loc 1 113 16 is_stmt 0
 562 03d0 033504FE 		ld	a0,-32(s0)
 563 03d4 97000000 		call	_Z11thread_joinm@plt
 563      E7800000 
 564              	.LVL63:
 114:src/APP.cpp   **** 
 115:src/APP.cpp   **** //    enableExternalInterrupts();
 116:src/APP.cpp   **** 
 117:src/APP.cpp   ****     putString("=== Success in testing \"testSyncCall\"");
 565              		.loc 1 117 5 is_stmt 1
 566              		.loc 1 117 14 is_stmt 0
 567 03dc 17050000 		lla	a0,.LC6
 567      13050500 
 568 03e4 97000000 		call	_Z9putStringPKc@plt
GAS LISTING /tmp/cccICcq7.s 			page 16


 568      E7800000 
 569              	.LVL64:
 118:src/APP.cpp   ****     putNewline();
 570              		.loc 1 118 5 is_stmt 1
 571              		.loc 1 118 15 is_stmt 0
 572 03ec 97000000 		call	_Z10putNewlinev@plt
 572      E7800000 
 573              	.LVL65:
 119:src/APP.cpp   **** }
 574              		.loc 1 119 1
 575 03f4 83308102 		ld	ra,40(sp)
 576              		.cfi_restore 1
 577 03f8 03340102 		ld	s0,32(sp)
 578              		.cfi_restore 8
 579              		.cfi_def_cfa 2, 48
 580 03fc 13010103 		addi	sp,sp,48
 581              		.cfi_def_cfa_offset 0
 582 0400 67800000 		jr	ra
 583              		.cfi_endproc
 584              	.LFE14:
 586              		.align	2
 587              		.globl	_Z3fibm
 589              	_Z3fibm:
 590              	.LFB17:
 120:src/APP.cpp   **** 
 121:src/APP.cpp   **** 
 122:src/APP.cpp   **** void doA(void* p)
 123:src/APP.cpp   **** {
 124:src/APP.cpp   ****     assert(*((int*)p) == 69);
 125:src/APP.cpp   **** 
 126:src/APP.cpp   ****     for(int i=0; i<=5; i++)
 127:src/APP.cpp   ****     {
 128:src/APP.cpp   ****         assert(fib(i) == test_call(i));
 129:src/APP.cpp   ****         thread_dispatch();
 130:src/APP.cpp   ****     }
 131:src/APP.cpp   **** 
 132:src/APP.cpp   ****     __asm__ volatile("mv x10, x10");
 133:src/APP.cpp   ****     thread_exit();
 134:src/APP.cpp   ****     assert(false);
 135:src/APP.cpp   **** }
 136:src/APP.cpp   **** 
 137:src/APP.cpp   **** void doB(void* p)
 138:src/APP.cpp   **** {
 139:src/APP.cpp   ****     assert(*((int*)p) == 420);
 140:src/APP.cpp   **** 
 141:src/APP.cpp   ****     for(int i=0; i<=10; i++)
 142:src/APP.cpp   ****     {
 143:src/APP.cpp   ****         assert(fib(i) == test_call(i));
 144:src/APP.cpp   ****         thread_dispatch();
 145:src/APP.cpp   ****     }
 146:src/APP.cpp   **** 
 147:src/APP.cpp   ****     thread_exit();
 148:src/APP.cpp   ****     assert(false);
 149:src/APP.cpp   **** }
 150:src/APP.cpp   **** 
 151:src/APP.cpp   **** 
 152:src/APP.cpp   **** uint64 fib(uint64 n)
GAS LISTING /tmp/cccICcq7.s 			page 17


 153:src/APP.cpp   **** {
 591              		.loc 1 153 1 is_stmt 1
 592              		.cfi_startproc
 593              	.LVL66:
 594 0404 130101FE 		addi	sp,sp,-32
 595              		.cfi_def_cfa_offset 32
 596 0408 233C1100 		sd	ra,24(sp)
 597 040c 23388100 		sd	s0,16(sp)
 598 0410 23349100 		sd	s1,8(sp)
 599 0414 23302101 		sd	s2,0(sp)
 600              		.cfi_offset 1, -8
 601              		.cfi_offset 8, -16
 602              		.cfi_offset 9, -24
 603              		.cfi_offset 18, -32
 604 0418 13040102 		addi	s0,sp,32
 605              		.cfi_def_cfa 8, 0
 606 041c 93040500 		mv	s1,a0
 154:src/APP.cpp   ****     if(n == 1)
 607              		.loc 1 154 5
 608 0420 93071000 		li	a5,1
 609 0424 6304F500 		beq	a0,a5,.L29
 155:src/APP.cpp   ****         return 1;
 156:src/APP.cpp   ****     else if (n == 0)
 610              		.loc 1 156 10
 611 0428 63100502 		bnez	a0,.L31
 612              	.LVL67:
 613              	.L29:
 157:src/APP.cpp   ****         return 0;
 158:src/APP.cpp   ****     else return fib(n-1) + fib(n-2);
 159:src/APP.cpp   **** }
 614              		.loc 1 159 1 is_stmt 0
 615 042c 13850400 		mv	a0,s1
 616 0430 83308101 		ld	ra,24(sp)
 617              		.cfi_remember_state
 618              		.cfi_restore 1
 619 0434 03340101 		ld	s0,16(sp)
 620              		.cfi_restore 8
 621              		.cfi_def_cfa 2, 32
 622 0438 83348100 		ld	s1,8(sp)
 623              		.cfi_restore 9
 624 043c 03390100 		ld	s2,0(sp)
 625              		.cfi_restore 18
 626 0440 13010102 		addi	sp,sp,32
 627              		.cfi_def_cfa_offset 0
 628 0444 67800000 		jr	ra
 629              	.LVL68:
 630              	.L31:
 631              		.cfi_restore_state
 158:src/APP.cpp   **** }
 632              		.loc 1 158 10 is_stmt 1
 158:src/APP.cpp   **** }
 633              		.loc 1 158 20 is_stmt 0
 634 0448 1305F5FF 		addi	a0,a0,-1
 635 044c 97000000 		call	_Z3fibm
 635      E7800000 
 636              	.LVL69:
 637 0454 13090500 		mv	s2,a0
GAS LISTING /tmp/cccICcq7.s 			page 18


 158:src/APP.cpp   **** }
 638              		.loc 1 158 31
 639 0458 1385E4FF 		addi	a0,s1,-2
 640 045c 97000000 		call	_Z3fibm
 640      E7800000 
 641              	.LVL70:
 158:src/APP.cpp   **** }
 642              		.loc 1 158 35
 643 0464 B304A900 		add	s1,s2,a0
 644              	.LVL71:
 645 0468 6FF05FFC 		j	.L29
 646              		.cfi_endproc
 647              	.LFE17:
 649              		.align	2
 650              		.globl	_Z3doAPv
 652              	_Z3doAPv:
 653              	.LFB15:
 123:src/APP.cpp   ****     assert(*((int*)p) == 69);
 654              		.loc 1 123 1 is_stmt 1
 655              		.cfi_startproc
 656              	.LVL72:
 657 046c 130101FE 		addi	sp,sp,-32
 658              		.cfi_def_cfa_offset 32
 659 0470 233C1100 		sd	ra,24(sp)
 660 0474 23388100 		sd	s0,16(sp)
 661 0478 23349100 		sd	s1,8(sp)
 662 047c 23302101 		sd	s2,0(sp)
 663              		.cfi_offset 1, -8
 664              		.cfi_offset 8, -16
 665              		.cfi_offset 9, -24
 666              		.cfi_offset 18, -32
 667 0480 13040102 		addi	s0,sp,32
 668              		.cfi_def_cfa 8, 0
 124:src/APP.cpp   **** 
 669              		.loc 1 124 5
 670 0484 83270500 		lw	a5,0(a0)
 671 0488 9387B7FB 		addi	a5,a5,-69
 672              	.LVL73:
 673              	.LBB37:
 674              	.LBB38:
  20:src/../h/my_console.h ****         return;
 675              		.loc 2 20 5
 676 048c 63900704 		bnez	a5,.L38
 677              	.LBE38:
 678              	.LBE37:
 679              	.LBB40:
 126:src/APP.cpp   ****     {
 680              		.loc 1 126 13 is_stmt 0
 681 0490 93040000 		li	s1,0
 682              	.LVL74:
 683              	.L33:
 126:src/APP.cpp   ****     {
 684              		.loc 1 126 19 is_stmt 1 discriminator 3
 685 0494 93075000 		li	a5,5
 686 0498 63C6970E 		bgt	s1,a5,.L34
 128:src/APP.cpp   ****         thread_dispatch();
 687              		.loc 1 128 9 discriminator 2
GAS LISTING /tmp/cccICcq7.s 			page 19


 688 049c 13850400 		mv	a0,s1
 689 04a0 97000000 		call	_Z3fibm
 689      E7800000 
 690              	.LVL75:
 691 04a8 13090500 		mv	s2,a0
 692 04ac 13850400 		mv	a0,s1
 693 04b0 97000000 		call	_Z9test_callm@plt
 693      E7800000 
 694              	.LVL76:
 695              	.LBB41:
 696              	.LBB42:
  20:src/../h/my_console.h ****         return;
 697              		.loc 2 20 5 discriminator 2
 698 04b8 6318A906 		bne	s2,a0,.L39
  21:src/../h/my_console.h **** 
 699              		.loc 2 21 9 discriminator 2
 700              	.LVL77:
 701              	.LBE42:
 702              	.LBE41:
 129:src/APP.cpp   ****     }
 703              		.loc 1 129 9 discriminator 2
 129:src/APP.cpp   ****     }
 704              		.loc 1 129 24 is_stmt 0 discriminator 2
 705 04bc 97000000 		call	_Z15thread_dispatchv@plt
 705      E7800000 
 706              	.LVL78:
 126:src/APP.cpp   ****     {
 707              		.loc 1 126 5 is_stmt 1 discriminator 2
 708 04c4 9B841400 		addiw	s1,s1,1
 709              	.LVL79:
 710 04c8 6FF0DFFC 		j	.L33
 711              	.LVL80:
 712              	.L38:
 713              	.LBE40:
 714              	.LBB45:
 715              	.LBB39:
  23:src/../h/my_console.h ****     putString(file);
 716              		.loc 2 23 5
  23:src/../h/my_console.h ****     putString(file);
 717              		.loc 2 23 14 is_stmt 0
 718 04cc 17050000 		lla	a0,.LC1
 718      13050500 
 719              	.LVL81:
 720 04d4 97000000 		call	_Z9putStringPKc@plt
 720      E7800000 
 721              	.LVL82:
  24:src/../h/my_console.h ****     putString("    line: ");
 722              		.loc 2 24 5 is_stmt 1
  24:src/../h/my_console.h ****     putString("    line: ");
 723              		.loc 2 24 14 is_stmt 0
 724 04dc 17050000 		lla	a0,.LC2
 724      13050500 
 725 04e4 97000000 		call	_Z9putStringPKc@plt
 725      E7800000 
 726              	.LVL83:
  25:src/../h/my_console.h ****     putInt(line);
 727              		.loc 2 25 5 is_stmt 1
GAS LISTING /tmp/cccICcq7.s 			page 20


  25:src/../h/my_console.h ****     putInt(line);
 728              		.loc 2 25 14 is_stmt 0
 729 04ec 17050000 		lla	a0,.LC3
 729      13050500 
 730 04f4 97000000 		call	_Z9putStringPKc@plt
 730      E7800000 
 731              	.LVL84:
  26:src/../h/my_console.h ****     putString("   ===========================");
 732              		.loc 2 26 5 is_stmt 1
  26:src/../h/my_console.h ****     putString("   ===========================");
 733              		.loc 2 26 11 is_stmt 0
 734 04fc 1305C007 		li	a0,124
 735 0500 97000000 		call	_Z6putInti@plt
 735      E7800000 
 736              	.LVL85:
  27:src/../h/my_console.h ****     putNewline();
 737              		.loc 2 27 5 is_stmt 1
  27:src/../h/my_console.h ****     putNewline();
 738              		.loc 2 27 14 is_stmt 0
 739 0508 17050000 		lla	a0,.LC4
 739      13050500 
 740 0510 97000000 		call	_Z9putStringPKc@plt
 740      E7800000 
 741              	.LVL86:
  28:src/../h/my_console.h **** 
 742              		.loc 2 28 5 is_stmt 1
  28:src/../h/my_console.h **** 
 743              		.loc 2 28 15 is_stmt 0
 744 0518 97000000 		call	_Z10putNewlinev@plt
 744      E7800000 
 745              	.LVL87:
 746              		.loc 2 30 5 is_stmt 1
 747              		.loc 2 30 15 is_stmt 0
 748 0520 97000000 		call	_Z10stopKernelv@plt
 748      E7800000 
 749              	.LVL88:
 750              	.L39:
 751              	.LBE39:
 752              	.LBE45:
 753              	.LBB46:
 754              	.LBB44:
 755              	.LBB43:
  23:src/../h/my_console.h ****     putString(file);
 756              		.loc 2 23 5 is_stmt 1
  23:src/../h/my_console.h ****     putString(file);
 757              		.loc 2 23 14 is_stmt 0
 758 0528 17050000 		lla	a0,.LC1
 758      13050500 
 759              	.LVL89:
 760 0530 97000000 		call	_Z9putStringPKc@plt
 760      E7800000 
 761              	.LVL90:
  24:src/../h/my_console.h ****     putString("    line: ");
 762              		.loc 2 24 5 is_stmt 1
  24:src/../h/my_console.h ****     putString("    line: ");
 763              		.loc 2 24 14 is_stmt 0
 764 0538 17050000 		lla	a0,.LC2
GAS LISTING /tmp/cccICcq7.s 			page 21


 764      13050500 
 765 0540 97000000 		call	_Z9putStringPKc@plt
 765      E7800000 
 766              	.LVL91:
  25:src/../h/my_console.h ****     putInt(line);
 767              		.loc 2 25 5 is_stmt 1
  25:src/../h/my_console.h ****     putInt(line);
 768              		.loc 2 25 14 is_stmt 0
 769 0548 17050000 		lla	a0,.LC3
 769      13050500 
 770 0550 97000000 		call	_Z9putStringPKc@plt
 770      E7800000 
 771              	.LVL92:
  26:src/../h/my_console.h ****     putString("   ===========================");
 772              		.loc 2 26 5 is_stmt 1
  26:src/../h/my_console.h ****     putString("   ===========================");
 773              		.loc 2 26 11 is_stmt 0
 774 0558 13050008 		li	a0,128
 775 055c 97000000 		call	_Z6putInti@plt
 775      E7800000 
 776              	.LVL93:
  27:src/../h/my_console.h ****     putNewline();
 777              		.loc 2 27 5 is_stmt 1
  27:src/../h/my_console.h ****     putNewline();
 778              		.loc 2 27 14 is_stmt 0
 779 0564 17050000 		lla	a0,.LC4
 779      13050500 
 780 056c 97000000 		call	_Z9putStringPKc@plt
 780      E7800000 
 781              	.LVL94:
  28:src/../h/my_console.h **** 
 782              		.loc 2 28 5 is_stmt 1
  28:src/../h/my_console.h **** 
 783              		.loc 2 28 15 is_stmt 0
 784 0574 97000000 		call	_Z10putNewlinev@plt
 784      E7800000 
 785              	.LVL95:
 786              		.loc 2 30 5 is_stmt 1
 787              		.loc 2 30 15 is_stmt 0
 788 057c 97000000 		call	_Z10stopKernelv@plt
 788      E7800000 
 789              	.LVL96:
 790              	.L34:
 791              	.LBE43:
 792              	.LBE44:
 793              	.LBE46:
 132:src/APP.cpp   ****     thread_exit();
 794              		.loc 1 132 5 is_stmt 1
 132:src/APP.cpp   ****     thread_exit();
 795              		.loc 1 132 36 is_stmt 0
 796              	#APP
 797              	# 132 "src/APP.cpp" 1
 133:src/APP.cpp   ****     assert(false);
 798              		mv x10, x10
 799              	# 0 "" 2
 800              		.loc 1 133 5 is_stmt 1
 133:src/APP.cpp   ****     assert(false);
GAS LISTING /tmp/cccICcq7.s 			page 22


 801              		.loc 1 133 16 is_stmt 0
 802              	#NO_APP
 803 0588 97000000 		call	_Z11thread_exitv@plt
 803      E7800000 
 804              	.LVL97:
 134:src/APP.cpp   **** }
 805              		.loc 1 134 5 is_stmt 1
 806              	.LBB47:
 807              	.LBB48:
  20:src/../h/my_console.h ****         return;
 808              		.loc 2 20 5
  23:src/../h/my_console.h ****     putString(file);
 809              		.loc 2 23 5
  23:src/../h/my_console.h ****     putString(file);
 810              		.loc 2 23 14 is_stmt 0
 811 0590 17050000 		lla	a0,.LC1
 811      13050500 
 812 0598 97000000 		call	_Z9putStringPKc@plt
 812      E7800000 
 813              	.LVL98:
  24:src/../h/my_console.h ****     putString("    line: ");
 814              		.loc 2 24 5 is_stmt 1
  24:src/../h/my_console.h ****     putString("    line: ");
 815              		.loc 2 24 14 is_stmt 0
 816 05a0 17050000 		lla	a0,.LC2
 816      13050500 
 817 05a8 97000000 		call	_Z9putStringPKc@plt
 817      E7800000 
 818              	.LVL99:
  25:src/../h/my_console.h ****     putInt(line);
 819              		.loc 2 25 5 is_stmt 1
  25:src/../h/my_console.h ****     putInt(line);
 820              		.loc 2 25 14 is_stmt 0
 821 05b0 17050000 		lla	a0,.LC3
 821      13050500 
 822 05b8 97000000 		call	_Z9putStringPKc@plt
 822      E7800000 
 823              	.LVL100:
  26:src/../h/my_console.h ****     putString("   ===========================");
 824              		.loc 2 26 5 is_stmt 1
  26:src/../h/my_console.h ****     putString("   ===========================");
 825              		.loc 2 26 11 is_stmt 0
 826 05c0 13056008 		li	a0,134
 827 05c4 97000000 		call	_Z6putInti@plt
 827      E7800000 
 828              	.LVL101:
  27:src/../h/my_console.h ****     putNewline();
 829              		.loc 2 27 5 is_stmt 1
  27:src/../h/my_console.h ****     putNewline();
 830              		.loc 2 27 14 is_stmt 0
 831 05cc 17050000 		lla	a0,.LC4
 831      13050500 
 832 05d4 97000000 		call	_Z9putStringPKc@plt
 832      E7800000 
 833              	.LVL102:
  28:src/../h/my_console.h **** 
 834              		.loc 2 28 5 is_stmt 1
GAS LISTING /tmp/cccICcq7.s 			page 23


  28:src/../h/my_console.h **** 
 835              		.loc 2 28 15 is_stmt 0
 836 05dc 97000000 		call	_Z10putNewlinev@plt
 836      E7800000 
 837              	.LVL103:
 838              		.loc 2 30 5 is_stmt 1
 839              		.loc 2 30 15 is_stmt 0
 840 05e4 97000000 		call	_Z10stopKernelv@plt
 840      E7800000 
 841              	.LVL104:
 842              	.LBE48:
 843              	.LBE47:
 844              		.cfi_endproc
 845              	.LFE15:
 847              		.align	2
 848              		.globl	_Z3doBPv
 850              	_Z3doBPv:
 851              	.LFB16:
 138:src/APP.cpp   ****     assert(*((int*)p) == 420);
 852              		.loc 1 138 1 is_stmt 1
 853              		.cfi_startproc
 854              	.LVL105:
 855 05ec 130101FE 		addi	sp,sp,-32
 856              		.cfi_def_cfa_offset 32
 857 05f0 233C1100 		sd	ra,24(sp)
 858 05f4 23388100 		sd	s0,16(sp)
 859 05f8 23349100 		sd	s1,8(sp)
 860 05fc 23302101 		sd	s2,0(sp)
 861              		.cfi_offset 1, -8
 862              		.cfi_offset 8, -16
 863              		.cfi_offset 9, -24
 864              		.cfi_offset 18, -32
 865 0600 13040102 		addi	s0,sp,32
 866              		.cfi_def_cfa 8, 0
 139:src/APP.cpp   **** 
 867              		.loc 1 139 5
 868 0604 83270500 		lw	a5,0(a0)
 869 0608 9387C7E5 		addi	a5,a5,-420
 870              	.LVL106:
 871              	.LBB56:
 872              	.LBB57:
  20:src/../h/my_console.h ****         return;
 873              		.loc 2 20 5
 874 060c 63900704 		bnez	a5,.L46
 875              	.LBE57:
 876              	.LBE56:
 877              	.LBB59:
 141:src/APP.cpp   ****     {
 878              		.loc 1 141 13 is_stmt 0
 879 0610 93040000 		li	s1,0
 880              	.LVL107:
 881              	.L41:
 141:src/APP.cpp   ****     {
 882              		.loc 1 141 19 is_stmt 1 discriminator 3
 883 0614 9307A000 		li	a5,10
 884 0618 63C6970E 		bgt	s1,a5,.L42
 143:src/APP.cpp   ****         thread_dispatch();
GAS LISTING /tmp/cccICcq7.s 			page 24


 885              		.loc 1 143 9 discriminator 2
 886 061c 13850400 		mv	a0,s1
 887 0620 97000000 		call	_Z3fibm
 887      E7800000 
 888              	.LVL108:
 889 0628 13090500 		mv	s2,a0
 890 062c 13850400 		mv	a0,s1
 891 0630 97000000 		call	_Z9test_callm@plt
 891      E7800000 
 892              	.LVL109:
 893              	.LBB60:
 894              	.LBB61:
  20:src/../h/my_console.h ****         return;
 895              		.loc 2 20 5 discriminator 2
 896 0638 6318A906 		bne	s2,a0,.L47
  21:src/../h/my_console.h **** 
 897              		.loc 2 21 9 discriminator 2
 898              	.LVL110:
 899              	.LBE61:
 900              	.LBE60:
 144:src/APP.cpp   ****     }
 901              		.loc 1 144 9 discriminator 2
 144:src/APP.cpp   ****     }
 902              		.loc 1 144 24 is_stmt 0 discriminator 2
 903 063c 97000000 		call	_Z15thread_dispatchv@plt
 903      E7800000 
 904              	.LVL111:
 141:src/APP.cpp   ****     {
 905              		.loc 1 141 5 is_stmt 1 discriminator 2
 906 0644 9B841400 		addiw	s1,s1,1
 907              	.LVL112:
 908 0648 6FF0DFFC 		j	.L41
 909              	.LVL113:
 910              	.L46:
 911              	.LBE59:
 912              	.LBB64:
 913              	.LBB58:
  23:src/../h/my_console.h ****     putString(file);
 914              		.loc 2 23 5
  23:src/../h/my_console.h ****     putString(file);
 915              		.loc 2 23 14 is_stmt 0
 916 064c 17050000 		lla	a0,.LC1
 916      13050500 
 917              	.LVL114:
 918 0654 97000000 		call	_Z9putStringPKc@plt
 918      E7800000 
 919              	.LVL115:
  24:src/../h/my_console.h ****     putString("    line: ");
 920              		.loc 2 24 5 is_stmt 1
  24:src/../h/my_console.h ****     putString("    line: ");
 921              		.loc 2 24 14 is_stmt 0
 922 065c 17050000 		lla	a0,.LC2
 922      13050500 
 923 0664 97000000 		call	_Z9putStringPKc@plt
 923      E7800000 
 924              	.LVL116:
  25:src/../h/my_console.h ****     putInt(line);
GAS LISTING /tmp/cccICcq7.s 			page 25


 925              		.loc 2 25 5 is_stmt 1
  25:src/../h/my_console.h ****     putInt(line);
 926              		.loc 2 25 14 is_stmt 0
 927 066c 17050000 		lla	a0,.LC3
 927      13050500 
 928 0674 97000000 		call	_Z9putStringPKc@plt
 928      E7800000 
 929              	.LVL117:
  26:src/../h/my_console.h ****     putString("   ===========================");
 930              		.loc 2 26 5 is_stmt 1
  26:src/../h/my_console.h ****     putString("   ===========================");
 931              		.loc 2 26 11 is_stmt 0
 932 067c 1305B008 		li	a0,139
 933 0680 97000000 		call	_Z6putInti@plt
 933      E7800000 
 934              	.LVL118:
  27:src/../h/my_console.h ****     putNewline();
 935              		.loc 2 27 5 is_stmt 1
  27:src/../h/my_console.h ****     putNewline();
 936              		.loc 2 27 14 is_stmt 0
 937 0688 17050000 		lla	a0,.LC4
 937      13050500 
 938 0690 97000000 		call	_Z9putStringPKc@plt
 938      E7800000 
 939              	.LVL119:
  28:src/../h/my_console.h **** 
 940              		.loc 2 28 5 is_stmt 1
  28:src/../h/my_console.h **** 
 941              		.loc 2 28 15 is_stmt 0
 942 0698 97000000 		call	_Z10putNewlinev@plt
 942      E7800000 
 943              	.LVL120:
 944              		.loc 2 30 5 is_stmt 1
 945              		.loc 2 30 15 is_stmt 0
 946 06a0 97000000 		call	_Z10stopKernelv@plt
 946      E7800000 
 947              	.LVL121:
 948              	.L47:
 949              	.LBE58:
 950              	.LBE64:
 951              	.LBB65:
 952              	.LBB63:
 953              	.LBB62:
  23:src/../h/my_console.h ****     putString(file);
 954              		.loc 2 23 5 is_stmt 1
  23:src/../h/my_console.h ****     putString(file);
 955              		.loc 2 23 14 is_stmt 0
 956 06a8 17050000 		lla	a0,.LC1
 956      13050500 
 957              	.LVL122:
 958 06b0 97000000 		call	_Z9putStringPKc@plt
 958      E7800000 
 959              	.LVL123:
  24:src/../h/my_console.h ****     putString("    line: ");
 960              		.loc 2 24 5 is_stmt 1
  24:src/../h/my_console.h ****     putString("    line: ");
 961              		.loc 2 24 14 is_stmt 0
GAS LISTING /tmp/cccICcq7.s 			page 26


 962 06b8 17050000 		lla	a0,.LC2
 962      13050500 
 963 06c0 97000000 		call	_Z9putStringPKc@plt
 963      E7800000 
 964              	.LVL124:
  25:src/../h/my_console.h ****     putInt(line);
 965              		.loc 2 25 5 is_stmt 1
  25:src/../h/my_console.h ****     putInt(line);
 966              		.loc 2 25 14 is_stmt 0
 967 06c8 17050000 		lla	a0,.LC3
 967      13050500 
 968 06d0 97000000 		call	_Z9putStringPKc@plt
 968      E7800000 
 969              	.LVL125:
  26:src/../h/my_console.h ****     putString("   ===========================");
 970              		.loc 2 26 5 is_stmt 1
  26:src/../h/my_console.h ****     putString("   ===========================");
 971              		.loc 2 26 11 is_stmt 0
 972 06d8 1305F008 		li	a0,143
 973 06dc 97000000 		call	_Z6putInti@plt
 973      E7800000 
 974              	.LVL126:
  27:src/../h/my_console.h ****     putNewline();
 975              		.loc 2 27 5 is_stmt 1
  27:src/../h/my_console.h ****     putNewline();
 976              		.loc 2 27 14 is_stmt 0
 977 06e4 17050000 		lla	a0,.LC4
 977      13050500 
 978 06ec 97000000 		call	_Z9putStringPKc@plt
 978      E7800000 
 979              	.LVL127:
  28:src/../h/my_console.h **** 
 980              		.loc 2 28 5 is_stmt 1
  28:src/../h/my_console.h **** 
 981              		.loc 2 28 15 is_stmt 0
 982 06f4 97000000 		call	_Z10putNewlinev@plt
 982      E7800000 
 983              	.LVL128:
 984              		.loc 2 30 5 is_stmt 1
 985              		.loc 2 30 15 is_stmt 0
 986 06fc 97000000 		call	_Z10stopKernelv@plt
 986      E7800000 
 987              	.LVL129:
 988              	.L42:
 989              	.LBE62:
 990              	.LBE63:
 991              	.LBE65:
 147:src/APP.cpp   ****     assert(false);
 992              		.loc 1 147 5 is_stmt 1
 147:src/APP.cpp   ****     assert(false);
 993              		.loc 1 147 16 is_stmt 0
 994 0704 97000000 		call	_Z11thread_exitv@plt
 994      E7800000 
 995              	.LVL130:
 148:src/APP.cpp   **** }
 996              		.loc 1 148 5 is_stmt 1
 997              	.LBB66:
GAS LISTING /tmp/cccICcq7.s 			page 27


 998              	.LBB67:
  20:src/../h/my_console.h ****         return;
 999              		.loc 2 20 5
  23:src/../h/my_console.h ****     putString(file);
 1000              		.loc 2 23 5
  23:src/../h/my_console.h ****     putString(file);
 1001              		.loc 2 23 14 is_stmt 0
 1002 070c 17050000 		lla	a0,.LC1
 1002      13050500 
 1003 0714 97000000 		call	_Z9putStringPKc@plt
 1003      E7800000 
 1004              	.LVL131:
  24:src/../h/my_console.h ****     putString("    line: ");
 1005              		.loc 2 24 5 is_stmt 1
  24:src/../h/my_console.h ****     putString("    line: ");
 1006              		.loc 2 24 14 is_stmt 0
 1007 071c 17050000 		lla	a0,.LC2
 1007      13050500 
 1008 0724 97000000 		call	_Z9putStringPKc@plt
 1008      E7800000 
 1009              	.LVL132:
  25:src/../h/my_console.h ****     putInt(line);
 1010              		.loc 2 25 5 is_stmt 1
  25:src/../h/my_console.h ****     putInt(line);
 1011              		.loc 2 25 14 is_stmt 0
 1012 072c 17050000 		lla	a0,.LC3
 1012      13050500 
 1013 0734 97000000 		call	_Z9putStringPKc@plt
 1013      E7800000 
 1014              	.LVL133:
  26:src/../h/my_console.h ****     putString("   ===========================");
 1015              		.loc 2 26 5 is_stmt 1
  26:src/../h/my_console.h ****     putString("   ===========================");
 1016              		.loc 2 26 11 is_stmt 0
 1017 073c 13054009 		li	a0,148
 1018 0740 97000000 		call	_Z6putInti@plt
 1018      E7800000 
 1019              	.LVL134:
  27:src/../h/my_console.h ****     putNewline();
 1020              		.loc 2 27 5 is_stmt 1
  27:src/../h/my_console.h ****     putNewline();
 1021              		.loc 2 27 14 is_stmt 0
 1022 0748 17050000 		lla	a0,.LC4
 1022      13050500 
 1023 0750 97000000 		call	_Z9putStringPKc@plt
 1023      E7800000 
 1024              	.LVL135:
  28:src/../h/my_console.h **** 
 1025              		.loc 2 28 5 is_stmt 1
  28:src/../h/my_console.h **** 
 1026              		.loc 2 28 15 is_stmt 0
 1027 0758 97000000 		call	_Z10putNewlinev@plt
 1027      E7800000 
 1028              	.LVL136:
 1029              		.loc 2 30 5 is_stmt 1
 1030              		.loc 2 30 15 is_stmt 0
 1031 0760 97000000 		call	_Z10stopKernelv@plt
GAS LISTING /tmp/cccICcq7.s 			page 28


 1031      E7800000 
 1032              	.LVL137:
 1033              	.LBE67:
 1034              	.LBE66:
 1035              		.cfi_endproc
 1036              	.LFE16:
 1038              		.section	.rodata.str1.8
 1039 00be 0000     		.align	3
 1040              	.LC7:
 1041 00c0 3D3D3D20 		.string	"=== Testing \"testSystemCalls\""
 1041      54657374 
 1041      696E6720 
 1041      22746573 
 1041      74537973 
 1042 00de 0000     		.align	3
 1043              	.LC8:
 1044 00e0 74657374 		.string	"test_call() error. i="
 1044      5F63616C 
 1044      6C282920 
 1044      6572726F 
 1044      722E2069 
 1045 00f6 0000     		.align	3
 1046              	.LC9:
 1047 00f8 20666962 		.string	" fib(i)="
 1047      2869293D 
 1047      00
 1048 0101 00000000 		.align	3
 1048      000000
 1049              	.LC10:
 1050 0108 20746573 		.string	" test_call(i)="
 1050      745F6361 
 1050      6C6C2869 
 1050      293D00
 1051 0117 00       		.align	3
 1052              	.LC11:
 1053 0118 3D3D3D20 		.string	"=== Success in testing system calls"
 1053      53756363 
 1053      65737320 
 1053      696E2074 
 1053      65737469 
 1054              		.text
 1055              		.align	2
 1056              		.globl	_Z15testSystemCallsv
 1058              	_Z15testSystemCallsv:
 1059              	.LFB18:
 160:src/APP.cpp   **** 
 161:src/APP.cpp   **** void testSystemCalls()
 162:src/APP.cpp   **** {
 1060              		.loc 1 162 1 is_stmt 1
 1061              		.cfi_startproc
 1062 0768 130101FB 		addi	sp,sp,-80
 1063              		.cfi_def_cfa_offset 80
 1064 076c 23341104 		sd	ra,72(sp)
 1065 0770 23308104 		sd	s0,64(sp)
 1066 0774 233C9102 		sd	s1,56(sp)
 1067 0778 23382103 		sd	s2,48(sp)
 1068 077c 23343103 		sd	s3,40(sp)
GAS LISTING /tmp/cccICcq7.s 			page 29


 1069 0780 23304103 		sd	s4,32(sp)
 1070 0784 233C5101 		sd	s5,24(sp)
 1071 0788 23386101 		sd	s6,16(sp)
 1072 078c 23347101 		sd	s7,8(sp)
 1073              		.cfi_offset 1, -8
 1074              		.cfi_offset 8, -16
 1075              		.cfi_offset 9, -24
 1076              		.cfi_offset 18, -32
 1077              		.cfi_offset 19, -40
 1078              		.cfi_offset 20, -48
 1079              		.cfi_offset 21, -56
 1080              		.cfi_offset 22, -64
 1081              		.cfi_offset 23, -72
 1082 0790 13040105 		addi	s0,sp,80
 1083              		.cfi_def_cfa 8, 0
 163:src/APP.cpp   ****     putString("=== Testing \"testSystemCalls\"");
 1084              		.loc 1 163 5
 1085              		.loc 1 163 14 is_stmt 0
 1086 0794 17050000 		lla	a0,.LC7
 1086      13050500 
 1087 079c 97000000 		call	_Z9putStringPKc@plt
 1087      E7800000 
 1088              	.LVL138:
 164:src/APP.cpp   ****     putNewline();
 1089              		.loc 1 164 5 is_stmt 1
 1090              		.loc 1 164 15 is_stmt 0
 1091 07a4 97000000 		call	_Z10putNewlinev@plt
 1091      E7800000 
 1092              	.LVL139:
 165:src/APP.cpp   **** 
 166:src/APP.cpp   ****     int a = 0;
 1093              		.loc 1 166 5 is_stmt 1
 167:src/APP.cpp   ****     int b = 0;
 1094              		.loc 1 167 5
 168:src/APP.cpp   **** 
 169:src/APP.cpp   ****     for(int i=1; i<10; i++)
 1095              		.loc 1 169 5
 1096              	.LBB74:
 1097              		.loc 1 169 13 is_stmt 0
 1098 07ac 93041000 		li	s1,1
 1099              	.LBE74:
 167:src/APP.cpp   ****     int b = 0;
 1100              		.loc 1 167 9
 1101 07b0 930A0000 		li	s5,0
 166:src/APP.cpp   ****     int b = 0;
 1102              		.loc 1 166 9
 1103 07b4 130A0000 		li	s4,0
 1104              	.LVL140:
 1105              	.L52:
 1106              	.LBB84:
 1107              		.loc 1 169 19 is_stmt 1 discriminator 1
 1108 07b8 93079000 		li	a5,9
 1109 07bc 63CC9714 		bgt	s1,a5,.L49
 1110              	.LBB75:
 170:src/APP.cpp   ****     {
 171:src/APP.cpp   ****         a++;
 1111              		.loc 1 171 9
GAS LISTING /tmp/cccICcq7.s 			page 30


 1112              		.loc 1 171 10 is_stmt 0
 1113 07c0 1B0B1A00 		addiw	s6,s4,1
 1114              	.LVL141:
 172:src/APP.cpp   ****         b++;
 1115              		.loc 1 172 9 is_stmt 1
 1116              		.loc 1 172 10 is_stmt 0
 1117 07c4 9B8B1A00 		addiw	s7,s5,1
 1118              	.LVL142:
 173:src/APP.cpp   **** 
 174:src/APP.cpp   ****         uint64 called = test_call(i);
 1119              		.loc 1 174 9 is_stmt 1
 1120              		.loc 1 174 34 is_stmt 0
 1121 07c8 13850400 		mv	a0,s1
 1122 07cc 97000000 		call	_Z9test_callm@plt
 1122      E7800000 
 1123              	.LVL143:
 1124 07d4 13090500 		mv	s2,a0
 1125              	.LVL144:
 175:src/APP.cpp   ****         uint64 actual = fib(i);
 1126              		.loc 1 175 9 is_stmt 1
 1127              		.loc 1 175 28 is_stmt 0
 1128 07d8 13850400 		mv	a0,s1
 1129              	.LVL145:
 1130 07dc 97000000 		call	_Z3fibm
 1130      E7800000 
 1131              	.LVL146:
 1132 07e4 93090500 		mv	s3,a0
 1133              	.LVL147:
 176:src/APP.cpp   **** 
 177:src/APP.cpp   ****         if(called != actual)
 1134              		.loc 1 177 9 is_stmt 1
 1135 07e8 631CA900 		bne	s2,a0,.L54
 178:src/APP.cpp   ****         {
 179:src/APP.cpp   ****             putString("test_call() error. i=");
 180:src/APP.cpp   ****             putInt(i);
 181:src/APP.cpp   ****             putString(" fib(i)=");
 182:src/APP.cpp   ****             putU64(actual);
 183:src/APP.cpp   ****             putString(" test_call(i)=");
 184:src/APP.cpp   ****             putU64(called);
 185:src/APP.cpp   ****             putNewline();
 186:src/APP.cpp   ****             assert(false);
 187:src/APP.cpp   ****         }
 188:src/APP.cpp   **** 
 189:src/APP.cpp   ****         assert(a == b);
 1136              		.loc 1 189 9 discriminator 2
 1137              	.LVL148:
 1138              	.LBB76:
 1139              	.LBB77:
  20:src/../h/my_console.h ****         return;
 1140              		.loc 2 20 5 discriminator 2
 1141 07ec 63165A0D 		bne	s4,s5,.L55
  21:src/../h/my_console.h **** 
 1142              		.loc 2 21 9 discriminator 2
 1143              	.LVL149:
 1144              	.LBE77:
 1145              	.LBE76:
 1146              	.LBE75:
GAS LISTING /tmp/cccICcq7.s 			page 31


 169:src/APP.cpp   ****     {
 1147              		.loc 1 169 5 discriminator 2
 1148 07f0 9B841400 		addiw	s1,s1,1
 1149              	.LVL150:
 1150              	.LBB82:
 172:src/APP.cpp   **** 
 1151              		.loc 1 172 10 is_stmt 0 discriminator 2
 1152 07f4 938A0B00 		mv	s5,s7
 1153              	.LVL151:
 171:src/APP.cpp   ****         b++;
 1154              		.loc 1 171 10 discriminator 2
 1155 07f8 130A0B00 		mv	s4,s6
 1156              	.LVL152:
 1157              	.LBE82:
 169:src/APP.cpp   ****     {
 1158              		.loc 1 169 5 discriminator 2
 1159 07fc 6FF0DFFB 		j	.L52
 1160              	.LVL153:
 1161              	.L54:
 1162              	.LBB83:
 179:src/APP.cpp   ****             putInt(i);
 1163              		.loc 1 179 13 is_stmt 1
 179:src/APP.cpp   ****             putInt(i);
 1164              		.loc 1 179 22 is_stmt 0
 1165 0800 17050000 		lla	a0,.LC8
 1165      13050500 
 1166              	.LVL154:
 1167 0808 97000000 		call	_Z9putStringPKc@plt
 1167      E7800000 
 1168              	.LVL155:
 180:src/APP.cpp   ****             putString(" fib(i)=");
 1169              		.loc 1 180 13 is_stmt 1
 180:src/APP.cpp   ****             putString(" fib(i)=");
 1170              		.loc 1 180 19 is_stmt 0
 1171 0810 13850400 		mv	a0,s1
 1172 0814 97000000 		call	_Z6putInti@plt
 1172      E7800000 
 1173              	.LVL156:
 181:src/APP.cpp   ****             putU64(actual);
 1174              		.loc 1 181 13 is_stmt 1
 181:src/APP.cpp   ****             putU64(actual);
 1175              		.loc 1 181 22 is_stmt 0
 1176 081c 17050000 		lla	a0,.LC9
 1176      13050500 
 1177 0824 97000000 		call	_Z9putStringPKc@plt
 1177      E7800000 
 1178              	.LVL157:
 182:src/APP.cpp   ****             putString(" test_call(i)=");
 1179              		.loc 1 182 13 is_stmt 1
 182:src/APP.cpp   ****             putString(" test_call(i)=");
 1180              		.loc 1 182 19 is_stmt 0
 1181 082c 13850900 		mv	a0,s3
 1182 0830 97000000 		call	_Z6putU64m@plt
 1182      E7800000 
 1183              	.LVL158:
 183:src/APP.cpp   ****             putU64(called);
 1184              		.loc 1 183 13 is_stmt 1
GAS LISTING /tmp/cccICcq7.s 			page 32


 183:src/APP.cpp   ****             putU64(called);
 1185              		.loc 1 183 22 is_stmt 0
 1186 0838 17050000 		lla	a0,.LC10
 1186      13050500 
 1187 0840 97000000 		call	_Z9putStringPKc@plt
 1187      E7800000 
 1188              	.LVL159:
 184:src/APP.cpp   ****             putNewline();
 1189              		.loc 1 184 13 is_stmt 1
 184:src/APP.cpp   ****             putNewline();
 1190              		.loc 1 184 19 is_stmt 0
 1191 0848 13050900 		mv	a0,s2
 1192 084c 97000000 		call	_Z6putU64m@plt
 1192      E7800000 
 1193              	.LVL160:
 185:src/APP.cpp   ****             assert(false);
 1194              		.loc 1 185 13 is_stmt 1
 185:src/APP.cpp   ****             assert(false);
 1195              		.loc 1 185 23 is_stmt 0
 1196 0854 97000000 		call	_Z10putNewlinev@plt
 1196      E7800000 
 1197              	.LVL161:
 186:src/APP.cpp   ****         }
 1198              		.loc 1 186 13 is_stmt 1
 1199              	.LBB79:
 1200              	.LBB80:
  20:src/../h/my_console.h ****         return;
 1201              		.loc 2 20 5
  23:src/../h/my_console.h ****     putString(file);
 1202              		.loc 2 23 5
  23:src/../h/my_console.h ****     putString(file);
 1203              		.loc 2 23 14 is_stmt 0
 1204 085c 17050000 		lla	a0,.LC1
 1204      13050500 
 1205 0864 97000000 		call	_Z9putStringPKc@plt
 1205      E7800000 
 1206              	.LVL162:
  24:src/../h/my_console.h ****     putString("    line: ");
 1207              		.loc 2 24 5 is_stmt 1
  24:src/../h/my_console.h ****     putString("    line: ");
 1208              		.loc 2 24 14 is_stmt 0
 1209 086c 17050000 		lla	a0,.LC2
 1209      13050500 
 1210 0874 97000000 		call	_Z9putStringPKc@plt
 1210      E7800000 
 1211              	.LVL163:
  25:src/../h/my_console.h ****     putInt(line);
 1212              		.loc 2 25 5 is_stmt 1
  25:src/../h/my_console.h ****     putInt(line);
 1213              		.loc 2 25 14 is_stmt 0
 1214 087c 17050000 		lla	a0,.LC3
 1214      13050500 
 1215 0884 97000000 		call	_Z9putStringPKc@plt
 1215      E7800000 
 1216              	.LVL164:
  26:src/../h/my_console.h ****     putString("   ===========================");
 1217              		.loc 2 26 5 is_stmt 1
GAS LISTING /tmp/cccICcq7.s 			page 33


  26:src/../h/my_console.h ****     putString("   ===========================");
 1218              		.loc 2 26 11 is_stmt 0
 1219 088c 1305A00B 		li	a0,186
 1220 0890 97000000 		call	_Z6putInti@plt
 1220      E7800000 
 1221              	.LVL165:
  27:src/../h/my_console.h ****     putNewline();
 1222              		.loc 2 27 5 is_stmt 1
  27:src/../h/my_console.h ****     putNewline();
 1223              		.loc 2 27 14 is_stmt 0
 1224 0898 17050000 		lla	a0,.LC4
 1224      13050500 
 1225 08a0 97000000 		call	_Z9putStringPKc@plt
 1225      E7800000 
 1226              	.LVL166:
  28:src/../h/my_console.h **** 
 1227              		.loc 2 28 5 is_stmt 1
  28:src/../h/my_console.h **** 
 1228              		.loc 2 28 15 is_stmt 0
 1229 08a8 97000000 		call	_Z10putNewlinev@plt
 1229      E7800000 
 1230              	.LVL167:
 1231              		.loc 2 30 5 is_stmt 1
 1232              		.loc 2 30 15 is_stmt 0
 1233 08b0 97000000 		call	_Z10stopKernelv@plt
 1233      E7800000 
 1234              	.LVL168:
 1235              	.L55:
 1236              	.LBE80:
 1237              	.LBE79:
 1238              	.LBB81:
 1239              	.LBB78:
  23:src/../h/my_console.h ****     putString(file);
 1240              		.loc 2 23 5 is_stmt 1
  23:src/../h/my_console.h ****     putString(file);
 1241              		.loc 2 23 14 is_stmt 0
 1242 08b8 17050000 		lla	a0,.LC1
 1242      13050500 
 1243              	.LVL169:
 1244 08c0 97000000 		call	_Z9putStringPKc@plt
 1244      E7800000 
 1245              	.LVL170:
  24:src/../h/my_console.h ****     putString("    line: ");
 1246              		.loc 2 24 5 is_stmt 1
  24:src/../h/my_console.h ****     putString("    line: ");
 1247              		.loc 2 24 14 is_stmt 0
 1248 08c8 17050000 		lla	a0,.LC2
 1248      13050500 
 1249 08d0 97000000 		call	_Z9putStringPKc@plt
 1249      E7800000 
 1250              	.LVL171:
  25:src/../h/my_console.h ****     putInt(line);
 1251              		.loc 2 25 5 is_stmt 1
  25:src/../h/my_console.h ****     putInt(line);
 1252              		.loc 2 25 14 is_stmt 0
 1253 08d8 17050000 		lla	a0,.LC3
 1253      13050500 
GAS LISTING /tmp/cccICcq7.s 			page 34


 1254 08e0 97000000 		call	_Z9putStringPKc@plt
 1254      E7800000 
 1255              	.LVL172:
  26:src/../h/my_console.h ****     putString("   ===========================");
 1256              		.loc 2 26 5 is_stmt 1
  26:src/../h/my_console.h ****     putString("   ===========================");
 1257              		.loc 2 26 11 is_stmt 0
 1258 08e8 1305D00B 		li	a0,189
 1259 08ec 97000000 		call	_Z6putInti@plt
 1259      E7800000 
 1260              	.LVL173:
  27:src/../h/my_console.h ****     putNewline();
 1261              		.loc 2 27 5 is_stmt 1
  27:src/../h/my_console.h ****     putNewline();
 1262              		.loc 2 27 14 is_stmt 0
 1263 08f4 17050000 		lla	a0,.LC4
 1263      13050500 
 1264 08fc 97000000 		call	_Z9putStringPKc@plt
 1264      E7800000 
 1265              	.LVL174:
  28:src/../h/my_console.h **** 
 1266              		.loc 2 28 5 is_stmt 1
  28:src/../h/my_console.h **** 
 1267              		.loc 2 28 15 is_stmt 0
 1268 0904 97000000 		call	_Z10putNewlinev@plt
 1268      E7800000 
 1269              	.LVL175:
 1270              		.loc 2 30 5 is_stmt 1
 1271              		.loc 2 30 15 is_stmt 0
 1272 090c 97000000 		call	_Z10stopKernelv@plt
 1272      E7800000 
 1273              	.LVL176:
 1274              	.L49:
 1275              	.LBE78:
 1276              	.LBE81:
 1277              	.LBE83:
 1278              	.LBE84:
 190:src/APP.cpp   ****     }
 191:src/APP.cpp   **** 
 192:src/APP.cpp   **** //    assert(MemAlloc::get()->getUserlandUsage() == IThread::initialUserMemoryUsage);
 193:src/APP.cpp   ****     putString("=== Success in testing system calls");
 1279              		.loc 1 193 5 is_stmt 1
 1280              		.loc 1 193 14 is_stmt 0
 1281 0914 17050000 		lla	a0,.LC11
 1281      13050500 
 1282 091c 97000000 		call	_Z9putStringPKc@plt
 1282      E7800000 
 1283              	.LVL177:
 194:src/APP.cpp   ****     putNewline();
 1284              		.loc 1 194 5 is_stmt 1
 1285              		.loc 1 194 15 is_stmt 0
 1286 0924 97000000 		call	_Z10putNewlinev@plt
 1286      E7800000 
 1287              	.LVL178:
 195:src/APP.cpp   **** }
 1288              		.loc 1 195 1
 1289 092c 83308104 		ld	ra,72(sp)
GAS LISTING /tmp/cccICcq7.s 			page 35


 1290              		.cfi_restore 1
 1291 0930 03340104 		ld	s0,64(sp)
 1292              		.cfi_restore 8
 1293              		.cfi_def_cfa 2, 80
 1294 0934 83348103 		ld	s1,56(sp)
 1295              		.cfi_restore 9
 1296              	.LVL179:
 1297 0938 03390103 		ld	s2,48(sp)
 1298              		.cfi_restore 18
 1299 093c 83398102 		ld	s3,40(sp)
 1300              		.cfi_restore 19
 1301 0940 033A0102 		ld	s4,32(sp)
 1302              		.cfi_restore 20
 1303              	.LVL180:
 1304 0944 833A8101 		ld	s5,24(sp)
 1305              		.cfi_restore 21
 1306              	.LVL181:
 1307 0948 033B0101 		ld	s6,16(sp)
 1308              		.cfi_restore 22
 1309 094c 833B8100 		ld	s7,8(sp)
 1310              		.cfi_restore 23
 1311 0950 13010105 		addi	sp,sp,80
 1312              		.cfi_def_cfa_offset 0
 1313 0954 67800000 		jr	ra
 1314              		.cfi_endproc
 1315              	.LFE18:
 1317              		.section	.rodata.str1.8
 1318 013c 00000000 		.align	3
 1319              	.LC12:
 1320 0140 3D3D3D20 		.string	"=== Testing \"testMemoryAllocator\""
 1320      54657374 
 1320      696E6720 
 1320      22746573 
 1320      744D656D 
 1321 0162 00000000 		.align	3
 1321      0000
 1322              	.LC13:
 1323 0168 3D3D3D20 		.string	"=== Success in testing memory allocator"
 1323      53756363 
 1323      65737320 
 1323      696E2074 
 1323      65737469 
 1324              		.text
 1325              		.align	2
 1326              		.globl	_Z19testMemoryAllocatorv
 1328              	_Z19testMemoryAllocatorv:
 1329              	.LFB19:
 196:src/APP.cpp   **** 
 197:src/APP.cpp   **** void testMemoryAllocator()
 198:src/APP.cpp   **** {
 1330              		.loc 1 198 1 is_stmt 1
 1331              		.cfi_startproc
 1332 0958 130101FD 		addi	sp,sp,-48
 1333              		.cfi_def_cfa_offset 48
 1334 095c 23341102 		sd	ra,40(sp)
 1335 0960 23308102 		sd	s0,32(sp)
 1336 0964 233C9100 		sd	s1,24(sp)
GAS LISTING /tmp/cccICcq7.s 			page 36


 1337 0968 23382101 		sd	s2,16(sp)
 1338 096c 23343101 		sd	s3,8(sp)
 1339              		.cfi_offset 1, -8
 1340              		.cfi_offset 8, -16
 1341              		.cfi_offset 9, -24
 1342              		.cfi_offset 18, -32
 1343              		.cfi_offset 19, -40
 1344 0970 13040103 		addi	s0,sp,48
 1345              		.cfi_def_cfa 8, 0
 199:src/APP.cpp   ****     putString("=== Testing \"testMemoryAllocator\"");
 1346              		.loc 1 199 5
 1347              		.loc 1 199 14 is_stmt 0
 1348 0974 17050000 		lla	a0,.LC12
 1348      13050500 
 1349 097c 97000000 		call	_Z9putStringPKc@plt
 1349      E7800000 
 1350              	.LVL182:
 200:src/APP.cpp   ****     putNewline();
 1351              		.loc 1 200 5 is_stmt 1
 1352              		.loc 1 200 15 is_stmt 0
 1353 0984 97000000 		call	_Z10putNewlinev@plt
 1353      E7800000 
 1354              	.LVL183:
 201:src/APP.cpp   ****     int n = 1000;
 1355              		.loc 1 201 5 is_stmt 1
 202:src/APP.cpp   ****     int **a;
 1356              		.loc 1 202 5
 203:src/APP.cpp   ****     a = (int**)mem_alloc(n * sizeof(void*));
 1357              		.loc 1 203 5
 1358              		.loc 1 203 25 is_stmt 0
 1359 098c 37250000 		li	a0,8192
 1360 0990 130505F4 		addi	a0,a0,-192
 1361 0994 97000000 		call	_Z9mem_allocm@plt
 1361      E7800000 
 1362              	.LVL184:
 1363 099c 93090500 		mv	s3,a0
 1364              	.LVL185:
 204:src/APP.cpp   ****     for(int i=0; i<n; i++)
 1365              		.loc 1 204 5 is_stmt 1
 1366              	.LBB94:
 1367              		.loc 1 204 13 is_stmt 0
 1368 09a0 93040000 		li	s1,0
 1369              	.LVL186:
 1370              	.L58:
 1371              		.loc 1 204 19 is_stmt 1 discriminator 3
 1372 09a4 9307703E 		li	a5,999
 1373 09a8 63C49702 		bgt	s1,a5,.L64
 205:src/APP.cpp   ****     {
 206:src/APP.cpp   ****         a[i] = (int*)mem_alloc(sizeof(int));
 1374              		.loc 1 206 9 discriminator 2
 1375              		.loc 1 206 12 is_stmt 0 discriminator 2
 1376 09ac 13993400 		slli	s2,s1,3
 1377 09b0 33892901 		add	s2,s3,s2
 1378              		.loc 1 206 31 discriminator 2
 1379 09b4 13054000 		li	a0,4
 1380 09b8 97000000 		call	_Z9mem_allocm@plt
 1380      E7800000 
GAS LISTING /tmp/cccICcq7.s 			page 37


 1381              	.LVL187:
 1382              		.loc 1 206 14 discriminator 2
 1383 09c0 2330A900 		sd	a0,0(s2)
 207:src/APP.cpp   ****         *a[i] = i;
 1384              		.loc 1 207 9 is_stmt 1 discriminator 2
 1385              		.loc 1 207 15 is_stmt 0 discriminator 2
 1386 09c4 23209500 		sw	s1,0(a0)
 204:src/APP.cpp   ****     for(int i=0; i<n; i++)
 1387              		.loc 1 204 5 is_stmt 1 discriminator 2
 1388 09c8 9B841400 		addiw	s1,s1,1
 1389              	.LVL188:
 1390 09cc 6FF09FFD 		j	.L58
 1391              	.LVL189:
 1392              	.L64:
 1393              	.LBE94:
 1394              	.LBB95:
 208:src/APP.cpp   ****     }
 209:src/APP.cpp   **** 
 210:src/APP.cpp   ****     int result = 0;
 211:src/APP.cpp   ****     for(int i=0; i<n; i++)
 1395              		.loc 1 211 13 is_stmt 0
 1396 09d0 93070000 		li	a5,0
 1397              	.LBE95:
 210:src/APP.cpp   ****     for(int i=0; i<n; i++)
 1398              		.loc 1 210 9
 1399 09d4 93060000 		li	a3,0
 1400              	.L57:
 1401              	.LVL190:
 1402              	.LBB96:
 1403              		.loc 1 211 19 is_stmt 1 discriminator 3
 1404 09d8 1307703E 		li	a4,999
 1405 09dc 6340F702 		bgt	a5,a4,.L59
 212:src/APP.cpp   ****     {
 213:src/APP.cpp   ****         result += *a[i];
 1406              		.loc 1 213 9 discriminator 2
 1407              		.loc 1 213 23 is_stmt 0 discriminator 2
 1408 09e0 13973700 		slli	a4,a5,3
 1409 09e4 3387E900 		add	a4,s3,a4
 1410 09e8 03370700 		ld	a4,0(a4)
 1411              		.loc 1 213 19 discriminator 2
 1412 09ec 03270700 		lw	a4,0(a4)
 1413              		.loc 1 213 16 discriminator 2
 1414 09f0 BB06D700 		addw	a3,a4,a3
 1415              	.LVL191:
 211:src/APP.cpp   ****     {
 1416              		.loc 1 211 5 is_stmt 1 discriminator 2
 1417 09f4 9B871700 		addiw	a5,a5,1
 1418              	.LVL192:
 1419 09f8 6FF01FFE 		j	.L57
 1420              	.LVL193:
 1421              	.L59:
 1422              	.LBE96:
 214:src/APP.cpp   ****     }
 215:src/APP.cpp   **** 
 216:src/APP.cpp   **** //    uint64 vau = n * sizeof(void*);
 217:src/APP.cpp   **** //    if(n % MEM_BLOCK_SIZE != 0)
 218:src/APP.cpp   **** //        vau +=  MEM_BLOCK_SIZE - ((sizeof(int)* n) % MEM_BLOCK_SIZE);
GAS LISTING /tmp/cccICcq7.s 			page 38


 219:src/APP.cpp   **** //    vau += MEM_BLOCK_SIZE * n;
 220:src/APP.cpp   **** //    assert(MemAlloc::get()->getUserlandUsage() == vau);
 221:src/APP.cpp   **** 
 222:src/APP.cpp   **** //    putInt(result);
 223:src/APP.cpp   **** //    putNewline();
 224:src/APP.cpp   **** 
 225:src/APP.cpp   ****     assert(result == (n-1) * n / 2);
 1423              		.loc 1 225 5
 1424 09fc B7A70700 		li	a5,499712
 1425              	.LVL194:
 1426 0a00 9387C7F2 		addi	a5,a5,-212
 1427              	.LVL195:
 1428              	.LBB97:
 1429              	.LBB98:
  20:src/../h/my_console.h ****         return;
 1430              		.loc 2 20 5
 1431 0a04 6398F602 		bne	a3,a5,.L67
 1432              	.LBE98:
 1433              	.LBE97:
 1434              	.LBB100:
 226:src/APP.cpp   **** 
 227:src/APP.cpp   **** //    uint64 oldTaken = MemAlloc::get()->getUserlandUsage();
 228:src/APP.cpp   **** //    uint64 newTaken;
 229:src/APP.cpp   **** 
 230:src/APP.cpp   ****     int t;
 231:src/APP.cpp   ****     for(int i=0; i<n; i++)
 1435              		.loc 1 231 13 is_stmt 0
 1436 0a08 93040000 		li	s1,0
 1437              	.LVL196:
 1438              	.L60:
 1439              		.loc 1 231 19 is_stmt 1 discriminator 3
 1440 0a0c 9307703E 		li	a5,999
 1441 0a10 63CE970C 		bgt	s1,a5,.L61
 232:src/APP.cpp   ****     {
 233:src/APP.cpp   ****         t = mem_free(a[i]);
 1442              		.loc 1 233 9 discriminator 2
 1443              		.loc 1 233 25 is_stmt 0 discriminator 2
 1444 0a14 93973400 		slli	a5,s1,3
 1445 0a18 B387F900 		add	a5,s3,a5
 1446              		.loc 1 233 21 discriminator 2
 1447 0a1c 03B50700 		ld	a0,0(a5)
 1448 0a20 97000000 		call	_Z8mem_freePv@plt
 1448      E7800000 
 1449              	.LVL197:
 234:src/APP.cpp   ****         assert(t == 0);
 1450              		.loc 1 234 9 is_stmt 1 discriminator 2
 1451              	.LBB101:
 1452              	.LBB102:
  20:src/../h/my_console.h ****         return;
 1453              		.loc 2 20 5 discriminator 2
 1454 0a28 63140506 		bnez	a0,.L68
  21:src/../h/my_console.h **** 
 1455              		.loc 2 21 9 discriminator 2
 1456              	.LVL198:
 1457              	.LBE102:
 1458              	.LBE101:
 231:src/APP.cpp   ****     {
GAS LISTING /tmp/cccICcq7.s 			page 39


 1459              		.loc 1 231 5 discriminator 2
 1460 0a2c 9B841400 		addiw	s1,s1,1
 1461              	.LVL199:
 1462 0a30 6FF0DFFD 		j	.L60
 1463              	.LVL200:
 1464              	.L67:
 1465              	.LBE100:
 1466              	.LBB105:
 1467              	.LBB99:
  23:src/../h/my_console.h ****     putString(file);
 1468              		.loc 2 23 5
  23:src/../h/my_console.h ****     putString(file);
 1469              		.loc 2 23 14 is_stmt 0
 1470 0a34 17050000 		lla	a0,.LC1
 1470      13050500 
 1471 0a3c 97000000 		call	_Z9putStringPKc@plt
 1471      E7800000 
 1472              	.LVL201:
  24:src/../h/my_console.h ****     putString("    line: ");
 1473              		.loc 2 24 5 is_stmt 1
  24:src/../h/my_console.h ****     putString("    line: ");
 1474              		.loc 2 24 14 is_stmt 0
 1475 0a44 17050000 		lla	a0,.LC2
 1475      13050500 
 1476 0a4c 97000000 		call	_Z9putStringPKc@plt
 1476      E7800000 
 1477              	.LVL202:
  25:src/../h/my_console.h ****     putInt(line);
 1478              		.loc 2 25 5 is_stmt 1
  25:src/../h/my_console.h ****     putInt(line);
 1479              		.loc 2 25 14 is_stmt 0
 1480 0a54 17050000 		lla	a0,.LC3
 1480      13050500 
 1481 0a5c 97000000 		call	_Z9putStringPKc@plt
 1481      E7800000 
 1482              	.LVL203:
  26:src/../h/my_console.h ****     putString("   ===========================");
 1483              		.loc 2 26 5 is_stmt 1
  26:src/../h/my_console.h ****     putString("   ===========================");
 1484              		.loc 2 26 11 is_stmt 0
 1485 0a64 1305100E 		li	a0,225
 1486 0a68 97000000 		call	_Z6putInti@plt
 1486      E7800000 
 1487              	.LVL204:
  27:src/../h/my_console.h ****     putNewline();
 1488              		.loc 2 27 5 is_stmt 1
  27:src/../h/my_console.h ****     putNewline();
 1489              		.loc 2 27 14 is_stmt 0
 1490 0a70 17050000 		lla	a0,.LC4
 1490      13050500 
 1491 0a78 97000000 		call	_Z9putStringPKc@plt
 1491      E7800000 
 1492              	.LVL205:
  28:src/../h/my_console.h **** 
 1493              		.loc 2 28 5 is_stmt 1
  28:src/../h/my_console.h **** 
 1494              		.loc 2 28 15 is_stmt 0
GAS LISTING /tmp/cccICcq7.s 			page 40


 1495 0a80 97000000 		call	_Z10putNewlinev@plt
 1495      E7800000 
 1496              	.LVL206:
 1497              		.loc 2 30 5 is_stmt 1
 1498              		.loc 2 30 15 is_stmt 0
 1499 0a88 97000000 		call	_Z10stopKernelv@plt
 1499      E7800000 
 1500              	.LVL207:
 1501              	.L68:
 1502              	.LBE99:
 1503              	.LBE105:
 1504              	.LBB106:
 1505              	.LBB104:
 1506              	.LBB103:
  23:src/../h/my_console.h ****     putString(file);
 1507              		.loc 2 23 5 is_stmt 1
  23:src/../h/my_console.h ****     putString(file);
 1508              		.loc 2 23 14 is_stmt 0
 1509 0a90 17050000 		lla	a0,.LC1
 1509      13050500 
 1510              	.LVL208:
 1511 0a98 97000000 		call	_Z9putStringPKc@plt
 1511      E7800000 
 1512              	.LVL209:
  24:src/../h/my_console.h ****     putString("    line: ");
 1513              		.loc 2 24 5 is_stmt 1
  24:src/../h/my_console.h ****     putString("    line: ");
 1514              		.loc 2 24 14 is_stmt 0
 1515 0aa0 17050000 		lla	a0,.LC2
 1515      13050500 
 1516 0aa8 97000000 		call	_Z9putStringPKc@plt
 1516      E7800000 
 1517              	.LVL210:
  25:src/../h/my_console.h ****     putInt(line);
 1518              		.loc 2 25 5 is_stmt 1
  25:src/../h/my_console.h ****     putInt(line);
 1519              		.loc 2 25 14 is_stmt 0
 1520 0ab0 17050000 		lla	a0,.LC3
 1520      13050500 
 1521 0ab8 97000000 		call	_Z9putStringPKc@plt
 1521      E7800000 
 1522              	.LVL211:
  26:src/../h/my_console.h ****     putString("   ===========================");
 1523              		.loc 2 26 5 is_stmt 1
  26:src/../h/my_console.h ****     putString("   ===========================");
 1524              		.loc 2 26 11 is_stmt 0
 1525 0ac0 1305A00E 		li	a0,234
 1526 0ac4 97000000 		call	_Z6putInti@plt
 1526      E7800000 
 1527              	.LVL212:
  27:src/../h/my_console.h ****     putNewline();
 1528              		.loc 2 27 5 is_stmt 1
  27:src/../h/my_console.h ****     putNewline();
 1529              		.loc 2 27 14 is_stmt 0
 1530 0acc 17050000 		lla	a0,.LC4
 1530      13050500 
 1531 0ad4 97000000 		call	_Z9putStringPKc@plt
GAS LISTING /tmp/cccICcq7.s 			page 41


 1531      E7800000 
 1532              	.LVL213:
  28:src/../h/my_console.h **** 
 1533              		.loc 2 28 5 is_stmt 1
  28:src/../h/my_console.h **** 
 1534              		.loc 2 28 15 is_stmt 0
 1535 0adc 97000000 		call	_Z10putNewlinev@plt
 1535      E7800000 
 1536              	.LVL214:
 1537              		.loc 2 30 5 is_stmt 1
 1538              		.loc 2 30 15 is_stmt 0
 1539 0ae4 97000000 		call	_Z10stopKernelv@plt
 1539      E7800000 
 1540              	.LVL215:
 1541              	.L61:
 1542              	.LBE103:
 1543              	.LBE104:
 1544              	.LBE106:
 235:src/APP.cpp   **** 
 236:src/APP.cpp   **** //        newTaken = MemAlloc::get()->getUserlandUsage();
 237:src/APP.cpp   **** //        assert(oldTaken - newTaken == MEM_BLOCK_SIZE);
 238:src/APP.cpp   ****     }
 239:src/APP.cpp   **** 
 240:src/APP.cpp   **** //    assert(MemAlloc::get()->getUserlandUsage() == MEM_BLOCK_SIZE);
 241:src/APP.cpp   **** 
 242:src/APP.cpp   ****     t = mem_free(a);
 1545              		.loc 1 242 5 is_stmt 1
 1546              		.loc 1 242 17 is_stmt 0
 1547 0aec 13850900 		mv	a0,s3
 1548 0af0 97000000 		call	_Z8mem_freePv@plt
 1548      E7800000 
 1549              	.LVL216:
 243:src/APP.cpp   ****     assert(t == 0);
 1550              		.loc 1 243 5 is_stmt 1
 1551              	.LBB107:
 1552              	.LBB108:
  20:src/../h/my_console.h ****         return;
 1553              		.loc 2 20 5
 1554 0af8 631C0502 		bnez	a0,.L69
  21:src/../h/my_console.h **** 
 1555              		.loc 2 21 9
 1556              	.LVL217:
 1557              	.LBE108:
 1558              	.LBE107:
 244:src/APP.cpp   **** 
 245:src/APP.cpp   **** //    assert(MemAlloc::get()->getUserlandUsage() == IThread::initialUserMemoryUsage);
 246:src/APP.cpp   ****     putString("=== Success in testing memory allocator");
 1559              		.loc 1 246 5
 1560              		.loc 1 246 14 is_stmt 0
 1561 0afc 17050000 		lla	a0,.LC13
 1561      13050500 
 1562              	.LVL218:
 1563 0b04 97000000 		call	_Z9putStringPKc@plt
 1563      E7800000 
 1564              	.LVL219:
 247:src/APP.cpp   ****     putNewline();
 1565              		.loc 1 247 5 is_stmt 1
GAS LISTING /tmp/cccICcq7.s 			page 42


 1566              		.loc 1 247 15 is_stmt 0
 1567 0b0c 97000000 		call	_Z10putNewlinev@plt
 1567      E7800000 
 1568              	.LVL220:
 248:src/APP.cpp   **** }
 1569              		.loc 1 248 1
 1570 0b14 83308102 		ld	ra,40(sp)
 1571              		.cfi_remember_state
 1572              		.cfi_restore 1
 1573 0b18 03340102 		ld	s0,32(sp)
 1574              		.cfi_restore 8
 1575              		.cfi_def_cfa 2, 48
 1576 0b1c 83348101 		ld	s1,24(sp)
 1577              		.cfi_restore 9
 1578              	.LVL221:
 1579 0b20 03390101 		ld	s2,16(sp)
 1580              		.cfi_restore 18
 1581 0b24 83398100 		ld	s3,8(sp)
 1582              		.cfi_restore 19
 1583              	.LVL222:
 1584 0b28 13010103 		addi	sp,sp,48
 1585              		.cfi_def_cfa_offset 0
 1586 0b2c 67800000 		jr	ra
 1587              	.LVL223:
 1588              	.L69:
 1589              		.cfi_restore_state
 1590              	.LBB110:
 1591              	.LBB109:
  23:src/../h/my_console.h ****     putString(file);
 1592              		.loc 2 23 5 is_stmt 1
  23:src/../h/my_console.h ****     putString(file);
 1593              		.loc 2 23 14 is_stmt 0
 1594 0b30 17050000 		lla	a0,.LC1
 1594      13050500 
 1595              	.LVL224:
 1596 0b38 97000000 		call	_Z9putStringPKc@plt
 1596      E7800000 
 1597              	.LVL225:
  24:src/../h/my_console.h ****     putString("    line: ");
 1598              		.loc 2 24 5 is_stmt 1
  24:src/../h/my_console.h ****     putString("    line: ");
 1599              		.loc 2 24 14 is_stmt 0
 1600 0b40 17050000 		lla	a0,.LC2
 1600      13050500 
 1601 0b48 97000000 		call	_Z9putStringPKc@plt
 1601      E7800000 
 1602              	.LVL226:
  25:src/../h/my_console.h ****     putInt(line);
 1603              		.loc 2 25 5 is_stmt 1
  25:src/../h/my_console.h ****     putInt(line);
 1604              		.loc 2 25 14 is_stmt 0
 1605 0b50 17050000 		lla	a0,.LC3
 1605      13050500 
 1606 0b58 97000000 		call	_Z9putStringPKc@plt
 1606      E7800000 
 1607              	.LVL227:
  26:src/../h/my_console.h ****     putString("   ===========================");
GAS LISTING /tmp/cccICcq7.s 			page 43


 1608              		.loc 2 26 5 is_stmt 1
  26:src/../h/my_console.h ****     putString("   ===========================");
 1609              		.loc 2 26 11 is_stmt 0
 1610 0b60 1305300F 		li	a0,243
 1611 0b64 97000000 		call	_Z6putInti@plt
 1611      E7800000 
 1612              	.LVL228:
  27:src/../h/my_console.h ****     putNewline();
 1613              		.loc 2 27 5 is_stmt 1
  27:src/../h/my_console.h ****     putNewline();
 1614              		.loc 2 27 14 is_stmt 0
 1615 0b6c 17050000 		lla	a0,.LC4
 1615      13050500 
 1616 0b74 97000000 		call	_Z9putStringPKc@plt
 1616      E7800000 
 1617              	.LVL229:
  28:src/../h/my_console.h **** 
 1618              		.loc 2 28 5 is_stmt 1
  28:src/../h/my_console.h **** 
 1619              		.loc 2 28 15 is_stmt 0
 1620 0b7c 97000000 		call	_Z10putNewlinev@plt
 1620      E7800000 
 1621              	.LVL230:
 1622              		.loc 2 30 5 is_stmt 1
 1623              		.loc 2 30 15 is_stmt 0
 1624 0b84 97000000 		call	_Z10stopKernelv@plt
 1624      E7800000 
 1625              	.LVL231:
 1626              	.LBE109:
 1627              	.LBE110:
 1628              		.cfi_endproc
 1629              	.LFE19:
 1631              		.globl	sliceSecondCounter
 1632              		.globl	sliceFirstCounter
 1633              		.bss
 1634              		.align	2
 1635              		.set	.LANCHOR0,. + 0
 1638              	sliceFirstCounter:
 1639 0000 00000000 		.zero	4
 1642              	sliceSecondCounter:
 1643 0004 00000000 		.zero	4
 1644              		.text
 1645              	.Letext0:
 1646              		.file 3 "src/../h/../lib/hw.h"
 1647              		.file 4 "src/../h/syscall_c.hpp"
GAS LISTING /tmp/cccICcq7.s 			page 44


DEFINED SYMBOLS
                            *ABS*:0000000000000000 APP.cpp
     /tmp/cccICcq7.s:14     .text:0000000000000000 _Z10myUserMainv
     /tmp/cccICcq7.s:18     .text:0000000000000000 .L0 
     /tmp/cccICcq7.s:19     .text:0000000000000000 .L0 
     /tmp/cccICcq7.s:20     .text:0000000000000004 .L0 
     /tmp/cccICcq7.s:23     .text:000000000000000c .L0 
     /tmp/cccICcq7.s:24     .text:000000000000000c .L0 
     /tmp/cccICcq7.s:26     .text:0000000000000010 .L0 
     /tmp/cccICcq7.s:28     .text:0000000000000010 .L0 
         src/APP.cpp:16     .text:0000000000000010 .L0 
     /tmp/cccICcq7.s:34     .text:0000000000000014 .L0 
     /tmp/cccICcq7.s:35     .text:0000000000000014 .L0 
     /tmp/cccICcq7.s:77     .text:0000000000000044 _Z13testTimeSlicev
     /tmp/cccICcq7.s:37     .text:0000000000000014 .L0 
     /tmp/cccICcq7.s:40     .text:000000000000001c .L0 
     /tmp/cccICcq7.s:41     .text:000000000000001c .L0 
     /tmp/cccICcq7.s:45     .text:000000000000002c .L0 
     /tmp/cccICcq7.s:46     .text:000000000000002c .L0 
     /tmp/cccICcq7.s:49     .text:0000000000000034 .L0 
     /tmp/cccICcq7.s:50     .text:0000000000000038 .L0 
     /tmp/cccICcq7.s:52     .text:000000000000003c .L0 
     /tmp/cccICcq7.s:53     .text:000000000000003c .L0 
     /tmp/cccICcq7.s:55     .text:0000000000000040 .L0 
     /tmp/cccICcq7.s:57     .text:0000000000000044 .L0 
     /tmp/cccICcq7.s:80     .text:0000000000000044 .L0 
     /tmp/cccICcq7.s:81     .text:0000000000000044 .L0 
     /tmp/cccICcq7.s:82     .text:0000000000000048 .L0 
     /tmp/cccICcq7.s:86     .text:0000000000000054 .L0 
     /tmp/cccICcq7.s:87     .text:0000000000000054 .L0 
     /tmp/cccICcq7.s:88     .text:0000000000000054 .L0 
     /tmp/cccICcq7.s:90     .text:0000000000000058 .L0 
     /tmp/cccICcq7.s:92     .text:0000000000000058 .L0 
     /tmp/cccICcq7.s:93     .text:0000000000000058 .L0 
     /tmp/cccICcq7.s:94     .text:0000000000000058 .L0 
     /tmp/cccICcq7.s:95     .text:0000000000000058 .L0 
     /tmp/cccICcq7.s:99     .text:0000000000000064 .L0 
     /tmp/cccICcq7.s:100    .text:0000000000000064 .L0 
     /tmp/cccICcq7.s:101    .text:0000000000000064 .L0 
     /tmp/cccICcq7.s:102    .text:0000000000000064 .L0 
     /tmp/cccICcq7.s:103    .text:0000000000000064 .L0 
     /tmp/cccICcq7.s:196    .text:0000000000000134 _Z12doSliceFirstPv
     /tmp/cccICcq7.s:110    .text:0000000000000080 .L0 
     /tmp/cccICcq7.s:111    .text:0000000000000080 .L0 
     /tmp/cccICcq7.s:112    .text:0000000000000080 .L0 
     /tmp/cccICcq7.s:316    .text:0000000000000208 _Z13doSliceSecondPv
     /tmp/cccICcq7.s:118    .text:0000000000000098 .L0 
     /tmp/cccICcq7.s:119    .text:0000000000000098 .L0 
     /tmp/cccICcq7.s:123    .text:00000000000000a4 .L0 
     /tmp/cccICcq7.s:124    .text:00000000000000a4 .L0 
     /tmp/cccICcq7.s:128    .text:00000000000000b0 .L0 
     /tmp/cccICcq7.s:136    .text:00000000000000c0 .L0 
     /tmp/cccICcq7.s:140    .text:00000000000000c4 .L0 
     /tmp/cccICcq7.s:141    .text:00000000000000c8 .L0 
     /tmp/cccICcq7.s:142    .text:00000000000000c8 .L0 
     /tmp/cccICcq7.s:144    .text:00000000000000cc .L0 
     /tmp/cccICcq7.s:145    .text:00000000000000cc .L0 
GAS LISTING /tmp/cccICcq7.s 			page 45


     /tmp/cccICcq7.s:147    .text:00000000000000d0 .L0 
     /tmp/cccICcq7.s:149    .text:00000000000000d4 .L0 
     /tmp/cccICcq7.s:152    .text:00000000000000d8 .L0 
     /tmp/cccICcq7.s:156    .text:00000000000000d8 .L0 
     /tmp/cccICcq7.s:157    .text:00000000000000d8 .L0 
     /tmp/cccICcq7.s:161    .text:00000000000000e8 .L0 
     /tmp/cccICcq7.s:162    .text:00000000000000e8 .L0 
     /tmp/cccICcq7.s:166    .text:00000000000000f8 .L0 
     /tmp/cccICcq7.s:167    .text:00000000000000f8 .L0 
     /tmp/cccICcq7.s:171    .text:0000000000000108 .L0 
     /tmp/cccICcq7.s:172    .text:0000000000000108 .L0 
     /tmp/cccICcq7.s:176    .text:0000000000000114 .L0 
     /tmp/cccICcq7.s:177    .text:0000000000000114 .L0 
     /tmp/cccICcq7.s:181    .text:0000000000000124 .L0 
     /tmp/cccICcq7.s:182    .text:0000000000000124 .L0 
     /tmp/cccICcq7.s:185    .text:000000000000012c .L0 
     /tmp/cccICcq7.s:186    .text:000000000000012c .L0 
     /tmp/cccICcq7.s:190    .text:0000000000000134 .L0 
     /tmp/cccICcq7.s:199    .text:0000000000000134 .L0 
     /tmp/cccICcq7.s:201    .text:0000000000000134 .L0 
     /tmp/cccICcq7.s:202    .text:0000000000000134 .L0 
     /tmp/cccICcq7.s:203    .text:0000000000000134 .L0 
     /tmp/cccICcq7.s:208    .text:0000000000000140 .L0 
     /tmp/cccICcq7.s:209    .text:0000000000000140 .L0 
     /tmp/cccICcq7.s:214    .text:0000000000000148 .L0 
         src/APP.cpp:65     .text:0000000000000148 .L0 
     /tmp/cccICcq7.s:220    .text:000000000000014c .L0 
     /tmp/cccICcq7.s:222    .text:000000000000014c .L0 
     /tmp/cccICcq7.s:228    .text:0000000000000160 .L0 
     /tmp/cccICcq7.s:229    .text:0000000000000160 .L0 
     /tmp/cccICcq7.s:235    .text:000000000000016c .L0 
     /tmp/cccICcq7.s:239    .text:0000000000000170 .L0 
     /tmp/cccICcq7.s:240    .text:0000000000000170 .L0 
     /tmp/cccICcq7.s:242    .text:0000000000000174 .L0 
     /tmp/cccICcq7.s:244    .text:0000000000000178 .L0 
     /tmp/cccICcq7.s:245    .text:0000000000000178 .L0 
     /tmp/cccICcq7.s:248    .text:0000000000000184 .L0 
     /tmp/cccICcq7.s:253    .text:000000000000018c .L0 
     /tmp/cccICcq7.s:258    .text:0000000000000194 .L0 
     /tmp/cccICcq7.s:264    .text:000000000000019c .L0 
     /tmp/cccICcq7.s:265    .text:00000000000001a0 .L0 
     /tmp/cccICcq7.s:268    .text:00000000000001a8 .L0 
     /tmp/cccICcq7.s:269    .text:00000000000001a8 .L0 
     /tmp/cccICcq7.s:271    .text:00000000000001ac .L0 
     /tmp/cccICcq7.s:275    .text:00000000000001ac .L0 
     /tmp/cccICcq7.s:276    .text:00000000000001ac .L0 
     /tmp/cccICcq7.s:281    .text:00000000000001bc .L0 
     /tmp/cccICcq7.s:282    .text:00000000000001bc .L0 
     /tmp/cccICcq7.s:286    .text:00000000000001cc .L0 
     /tmp/cccICcq7.s:287    .text:00000000000001cc .L0 
     /tmp/cccICcq7.s:291    .text:00000000000001dc .L0 
     /tmp/cccICcq7.s:292    .text:00000000000001dc .L0 
     /tmp/cccICcq7.s:296    .text:00000000000001e8 .L0 
     /tmp/cccICcq7.s:297    .text:00000000000001e8 .L0 
     /tmp/cccICcq7.s:301    .text:00000000000001f8 .L0 
     /tmp/cccICcq7.s:302    .text:00000000000001f8 .L0 
     /tmp/cccICcq7.s:305    .text:0000000000000200 .L0 
GAS LISTING /tmp/cccICcq7.s 			page 46


     /tmp/cccICcq7.s:306    .text:0000000000000200 .L0 
     /tmp/cccICcq7.s:310    .text:0000000000000208 .L0 
     /tmp/cccICcq7.s:319    .text:0000000000000208 .L0 
     /tmp/cccICcq7.s:321    .text:0000000000000208 .L0 
     /tmp/cccICcq7.s:322    .text:000000000000020c .L0 
     /tmp/cccICcq7.s:325    .text:0000000000000214 .L0 
     /tmp/cccICcq7.s:326    .text:0000000000000214 .L0 
     /tmp/cccICcq7.s:328    .text:0000000000000218 .L0 
     /tmp/cccICcq7.s:330    .text:0000000000000218 .L0 
     /tmp/cccICcq7.s:331    .text:0000000000000218 .L0 
     /tmp/cccICcq7.s:336    .text:0000000000000224 .L0 
     /tmp/cccICcq7.s:337    .text:0000000000000224 .L0 
     /tmp/cccICcq7.s:344    .text:000000000000022c .L0 
     /tmp/cccICcq7.s:345    .text:000000000000022c .L0 
     /tmp/cccICcq7.s:350    .text:000000000000023c .L0 
     /tmp/cccICcq7.s:351    .text:000000000000023c .L0 
     /tmp/cccICcq7.s:355    .text:000000000000024c .L0 
     /tmp/cccICcq7.s:356    .text:000000000000024c .L0 
     /tmp/cccICcq7.s:360    .text:000000000000025c .L0 
     /tmp/cccICcq7.s:361    .text:000000000000025c .L0 
     /tmp/cccICcq7.s:365    .text:0000000000000268 .L0 
     /tmp/cccICcq7.s:366    .text:0000000000000268 .L0 
     /tmp/cccICcq7.s:370    .text:0000000000000278 .L0 
     /tmp/cccICcq7.s:371    .text:0000000000000278 .L0 
     /tmp/cccICcq7.s:374    .text:0000000000000280 .L0 
     /tmp/cccICcq7.s:375    .text:0000000000000280 .L0 
     /tmp/cccICcq7.s:381    .text:0000000000000288 .L0 
     /tmp/cccICcq7.s:385    .text:000000000000028c .L0 
     /tmp/cccICcq7.s:386    .text:000000000000028c .L0 
     /tmp/cccICcq7.s:388    .text:0000000000000290 .L0 
     /tmp/cccICcq7.s:390    .text:0000000000000294 .L0 
     /tmp/cccICcq7.s:391    .text:0000000000000294 .L0 
     /tmp/cccICcq7.s:394    .text:00000000000002a0 .L0 
     /tmp/cccICcq7.s:396    .text:00000000000002a4 .L0 
         src/APP.cpp:81     .text:00000000000002a4 .L0 
     /tmp/cccICcq7.s:402    .text:00000000000002a8 .L0 
     /tmp/cccICcq7.s:404    .text:00000000000002a8 .L0 
     /tmp/cccICcq7.s:410    .text:00000000000002bc .L0 
     /tmp/cccICcq7.s:417    .text:00000000000002c8 .L0 
     /tmp/cccICcq7.s:422    .text:00000000000002cc .L0 
     /tmp/cccICcq7.s:423    .text:00000000000002cc .L0 
     /tmp/cccICcq7.s:424    .text:00000000000002cc .L0 
     /tmp/cccICcq7.s:432    .text:00000000000002dc .L0 
     /tmp/cccICcq7.s:437    .text:00000000000002e4 .L0 
     /tmp/cccICcq7.s:441    .text:00000000000002e8 .L0 
     /tmp/cccICcq7.s:442    .text:00000000000002ec .L0 
     /tmp/cccICcq7.s:443    .text:00000000000002ec .L0 
     /tmp/cccICcq7.s:445    .text:00000000000002f0 .L0 
     /tmp/cccICcq7.s:446    .text:00000000000002f0 .L0 
     /tmp/cccICcq7.s:448    .text:00000000000002f4 .L0 
     /tmp/cccICcq7.s:451    .text:00000000000002f8 .L0 
     /tmp/cccICcq7.s:455    .text:00000000000002f8 .L0 
     /tmp/cccICcq7.s:456    .text:00000000000002f8 .L0 
     /tmp/cccICcq7.s:461    .text:0000000000000308 .L0 
     /tmp/cccICcq7.s:462    .text:0000000000000308 .L0 
     /tmp/cccICcq7.s:466    .text:0000000000000318 .L0 
     /tmp/cccICcq7.s:467    .text:0000000000000318 .L0 
GAS LISTING /tmp/cccICcq7.s 			page 47


     /tmp/cccICcq7.s:471    .text:0000000000000328 .L0 
     /tmp/cccICcq7.s:472    .text:0000000000000328 .L0 
     /tmp/cccICcq7.s:476    .text:0000000000000334 .L0 
     /tmp/cccICcq7.s:477    .text:0000000000000334 .L0 
     /tmp/cccICcq7.s:481    .text:0000000000000344 .L0 
     /tmp/cccICcq7.s:482    .text:0000000000000344 .L0 
     /tmp/cccICcq7.s:485    .text:000000000000034c .L0 
     /tmp/cccICcq7.s:486    .text:000000000000034c .L0 
     /tmp/cccICcq7.s:490    .text:0000000000000354 .L0 
     /tmp/cccICcq7.s:504    .text:0000000000000354 _Z12testSyncCallv
     /tmp/cccICcq7.s:507    .text:0000000000000354 .L0 
     /tmp/cccICcq7.s:508    .text:0000000000000354 .L0 
     /tmp/cccICcq7.s:509    .text:0000000000000358 .L0 
     /tmp/cccICcq7.s:512    .text:0000000000000360 .L0 
     /tmp/cccICcq7.s:513    .text:0000000000000360 .L0 
     /tmp/cccICcq7.s:515    .text:0000000000000364 .L0 
     /tmp/cccICcq7.s:517    .text:0000000000000364 .L0 
     /tmp/cccICcq7.s:518    .text:0000000000000364 .L0 
     /tmp/cccICcq7.s:522    .text:0000000000000374 .L0 
     /tmp/cccICcq7.s:523    .text:0000000000000374 .L0 
     /tmp/cccICcq7.s:526    .text:000000000000037c .L0 
     /tmp/cccICcq7.s:527    .text:000000000000037c .L0 
     /tmp/cccICcq7.s:528    .text:000000000000037c .L0 
     /tmp/cccICcq7.s:529    .text:000000000000037c .L0 
     /tmp/cccICcq7.s:532    .text:0000000000000384 .L0 
     /tmp/cccICcq7.s:533    .text:0000000000000384 .L0 
     /tmp/cccICcq7.s:536    .text:000000000000038c .L0 
     /tmp/cccICcq7.s:537    .text:000000000000038c .L0 
     /tmp/cccICcq7.s:538    .text:000000000000038c .L0 
     /tmp/cccICcq7.s:539    .text:000000000000038c .L0 
     /tmp/cccICcq7.s:652    .text:000000000000046c _Z3doAPv
     /tmp/cccICcq7.s:545    .text:00000000000003a4 .L0 
     /tmp/cccICcq7.s:546    .text:00000000000003a4 .L0 
     /tmp/cccICcq7.s:850    .text:00000000000005ec _Z3doBPv
     /tmp/cccICcq7.s:552    .text:00000000000003bc .L0 
     /tmp/cccICcq7.s:553    .text:00000000000003bc .L0 
     /tmp/cccICcq7.s:556    .text:00000000000003c4 .L0 
     /tmp/cccICcq7.s:557    .text:00000000000003c4 .L0 
     /tmp/cccICcq7.s:561    .text:00000000000003d0 .L0 
     /tmp/cccICcq7.s:562    .text:00000000000003d0 .L0 
     /tmp/cccICcq7.s:566    .text:00000000000003dc .L0 
     /tmp/cccICcq7.s:567    .text:00000000000003dc .L0 
     /tmp/cccICcq7.s:571    .text:00000000000003ec .L0 
     /tmp/cccICcq7.s:572    .text:00000000000003ec .L0 
     /tmp/cccICcq7.s:575    .text:00000000000003f4 .L0 
     /tmp/cccICcq7.s:576    .text:00000000000003f8 .L0 
     /tmp/cccICcq7.s:578    .text:00000000000003fc .L0 
     /tmp/cccICcq7.s:579    .text:00000000000003fc .L0 
     /tmp/cccICcq7.s:581    .text:0000000000000400 .L0 
     /tmp/cccICcq7.s:583    .text:0000000000000404 .L0 
     /tmp/cccICcq7.s:589    .text:0000000000000404 _Z3fibm
     /tmp/cccICcq7.s:592    .text:0000000000000404 .L0 
     /tmp/cccICcq7.s:594    .text:0000000000000404 .L0 
     /tmp/cccICcq7.s:595    .text:0000000000000408 .L0 
     /tmp/cccICcq7.s:600    .text:0000000000000418 .L0 
     /tmp/cccICcq7.s:601    .text:0000000000000418 .L0 
     /tmp/cccICcq7.s:602    .text:0000000000000418 .L0 
GAS LISTING /tmp/cccICcq7.s 			page 48


     /tmp/cccICcq7.s:603    .text:0000000000000418 .L0 
     /tmp/cccICcq7.s:605    .text:000000000000041c .L0 
     /tmp/cccICcq7.s:608    .text:0000000000000420 .L0 
     /tmp/cccICcq7.s:611    .text:0000000000000428 .L0 
     /tmp/cccICcq7.s:615    .text:000000000000042c .L0 
     /tmp/cccICcq7.s:617    .text:0000000000000434 .L0 
     /tmp/cccICcq7.s:618    .text:0000000000000434 .L0 
     /tmp/cccICcq7.s:620    .text:0000000000000438 .L0 
     /tmp/cccICcq7.s:621    .text:0000000000000438 .L0 
     /tmp/cccICcq7.s:623    .text:000000000000043c .L0 
     /tmp/cccICcq7.s:625    .text:0000000000000440 .L0 
     /tmp/cccICcq7.s:627    .text:0000000000000444 .L0 
     /tmp/cccICcq7.s:631    .text:0000000000000448 .L0 
     /tmp/cccICcq7.s:633    .text:0000000000000448 .L0 
     /tmp/cccICcq7.s:634    .text:0000000000000448 .L0 
     /tmp/cccICcq7.s:639    .text:0000000000000458 .L0 
     /tmp/cccICcq7.s:643    .text:0000000000000464 .L0 
     /tmp/cccICcq7.s:646    .text:000000000000046c .L0 
     /tmp/cccICcq7.s:655    .text:000000000000046c .L0 
     /tmp/cccICcq7.s:657    .text:000000000000046c .L0 
     /tmp/cccICcq7.s:658    .text:0000000000000470 .L0 
     /tmp/cccICcq7.s:663    .text:0000000000000480 .L0 
     /tmp/cccICcq7.s:664    .text:0000000000000480 .L0 
     /tmp/cccICcq7.s:665    .text:0000000000000480 .L0 
     /tmp/cccICcq7.s:666    .text:0000000000000480 .L0 
     /tmp/cccICcq7.s:668    .text:0000000000000484 .L0 
     /tmp/cccICcq7.s:670    .text:0000000000000484 .L0 
     /tmp/cccICcq7.s:676    .text:000000000000048c .L0 
     /tmp/cccICcq7.s:681    .text:0000000000000490 .L0 
     /tmp/cccICcq7.s:685    .text:0000000000000494 .L0 
     /tmp/cccICcq7.s:688    .text:000000000000049c .L0 
     /tmp/cccICcq7.s:698    .text:00000000000004b8 .L0 
     /tmp/cccICcq7.s:703    .text:00000000000004bc .L0 
     /tmp/cccICcq7.s:704    .text:00000000000004bc .L0 
     /tmp/cccICcq7.s:705    .text:00000000000004bc .L0 
     /tmp/cccICcq7.s:708    .text:00000000000004c4 .L0 
     /tmp/cccICcq7.s:717    .text:00000000000004cc .L0 
     /tmp/cccICcq7.s:718    .text:00000000000004cc .L0 
     /tmp/cccICcq7.s:723    .text:00000000000004dc .L0 
     /tmp/cccICcq7.s:724    .text:00000000000004dc .L0 
     /tmp/cccICcq7.s:728    .text:00000000000004ec .L0 
     /tmp/cccICcq7.s:729    .text:00000000000004ec .L0 
     /tmp/cccICcq7.s:733    .text:00000000000004fc .L0 
     /tmp/cccICcq7.s:734    .text:00000000000004fc .L0 
     /tmp/cccICcq7.s:738    .text:0000000000000508 .L0 
     /tmp/cccICcq7.s:739    .text:0000000000000508 .L0 
     /tmp/cccICcq7.s:743    .text:0000000000000518 .L0 
     /tmp/cccICcq7.s:744    .text:0000000000000518 .L0 
     /tmp/cccICcq7.s:747    .text:0000000000000520 .L0 
     /tmp/cccICcq7.s:748    .text:0000000000000520 .L0 
     /tmp/cccICcq7.s:757    .text:0000000000000528 .L0 
     /tmp/cccICcq7.s:758    .text:0000000000000528 .L0 
     /tmp/cccICcq7.s:763    .text:0000000000000538 .L0 
     /tmp/cccICcq7.s:764    .text:0000000000000538 .L0 
     /tmp/cccICcq7.s:768    .text:0000000000000548 .L0 
     /tmp/cccICcq7.s:769    .text:0000000000000548 .L0 
     /tmp/cccICcq7.s:773    .text:0000000000000558 .L0 
GAS LISTING /tmp/cccICcq7.s 			page 49


     /tmp/cccICcq7.s:774    .text:0000000000000558 .L0 
     /tmp/cccICcq7.s:778    .text:0000000000000564 .L0 
     /tmp/cccICcq7.s:779    .text:0000000000000564 .L0 
     /tmp/cccICcq7.s:783    .text:0000000000000574 .L0 
     /tmp/cccICcq7.s:784    .text:0000000000000574 .L0 
     /tmp/cccICcq7.s:787    .text:000000000000057c .L0 
     /tmp/cccICcq7.s:788    .text:000000000000057c .L0 
     /tmp/cccICcq7.s:795    .text:0000000000000584 .L0 
         src/APP.cpp:132    .text:0000000000000584 .L0 
     /tmp/cccICcq7.s:801    .text:0000000000000588 .L0 
     /tmp/cccICcq7.s:803    .text:0000000000000588 .L0 
     /tmp/cccICcq7.s:808    .text:0000000000000590 .L0 
     /tmp/cccICcq7.s:809    .text:0000000000000590 .L0 
     /tmp/cccICcq7.s:810    .text:0000000000000590 .L0 
     /tmp/cccICcq7.s:811    .text:0000000000000590 .L0 
     /tmp/cccICcq7.s:815    .text:00000000000005a0 .L0 
     /tmp/cccICcq7.s:816    .text:00000000000005a0 .L0 
     /tmp/cccICcq7.s:820    .text:00000000000005b0 .L0 
     /tmp/cccICcq7.s:821    .text:00000000000005b0 .L0 
     /tmp/cccICcq7.s:825    .text:00000000000005c0 .L0 
     /tmp/cccICcq7.s:826    .text:00000000000005c0 .L0 
     /tmp/cccICcq7.s:830    .text:00000000000005cc .L0 
     /tmp/cccICcq7.s:831    .text:00000000000005cc .L0 
     /tmp/cccICcq7.s:835    .text:00000000000005dc .L0 
     /tmp/cccICcq7.s:836    .text:00000000000005dc .L0 
     /tmp/cccICcq7.s:839    .text:00000000000005e4 .L0 
     /tmp/cccICcq7.s:840    .text:00000000000005e4 .L0 
     /tmp/cccICcq7.s:844    .text:00000000000005ec .L0 
     /tmp/cccICcq7.s:853    .text:00000000000005ec .L0 
     /tmp/cccICcq7.s:855    .text:00000000000005ec .L0 
     /tmp/cccICcq7.s:856    .text:00000000000005f0 .L0 
     /tmp/cccICcq7.s:861    .text:0000000000000600 .L0 
     /tmp/cccICcq7.s:862    .text:0000000000000600 .L0 
     /tmp/cccICcq7.s:863    .text:0000000000000600 .L0 
     /tmp/cccICcq7.s:864    .text:0000000000000600 .L0 
     /tmp/cccICcq7.s:866    .text:0000000000000604 .L0 
     /tmp/cccICcq7.s:868    .text:0000000000000604 .L0 
     /tmp/cccICcq7.s:874    .text:000000000000060c .L0 
     /tmp/cccICcq7.s:879    .text:0000000000000610 .L0 
     /tmp/cccICcq7.s:883    .text:0000000000000614 .L0 
     /tmp/cccICcq7.s:886    .text:000000000000061c .L0 
     /tmp/cccICcq7.s:896    .text:0000000000000638 .L0 
     /tmp/cccICcq7.s:901    .text:000000000000063c .L0 
     /tmp/cccICcq7.s:902    .text:000000000000063c .L0 
     /tmp/cccICcq7.s:903    .text:000000000000063c .L0 
     /tmp/cccICcq7.s:906    .text:0000000000000644 .L0 
     /tmp/cccICcq7.s:915    .text:000000000000064c .L0 
     /tmp/cccICcq7.s:916    .text:000000000000064c .L0 
     /tmp/cccICcq7.s:921    .text:000000000000065c .L0 
     /tmp/cccICcq7.s:922    .text:000000000000065c .L0 
     /tmp/cccICcq7.s:926    .text:000000000000066c .L0 
     /tmp/cccICcq7.s:927    .text:000000000000066c .L0 
     /tmp/cccICcq7.s:931    .text:000000000000067c .L0 
     /tmp/cccICcq7.s:932    .text:000000000000067c .L0 
     /tmp/cccICcq7.s:936    .text:0000000000000688 .L0 
     /tmp/cccICcq7.s:937    .text:0000000000000688 .L0 
     /tmp/cccICcq7.s:941    .text:0000000000000698 .L0 
GAS LISTING /tmp/cccICcq7.s 			page 50


     /tmp/cccICcq7.s:942    .text:0000000000000698 .L0 
     /tmp/cccICcq7.s:945    .text:00000000000006a0 .L0 
     /tmp/cccICcq7.s:946    .text:00000000000006a0 .L0 
     /tmp/cccICcq7.s:955    .text:00000000000006a8 .L0 
     /tmp/cccICcq7.s:956    .text:00000000000006a8 .L0 
     /tmp/cccICcq7.s:961    .text:00000000000006b8 .L0 
     /tmp/cccICcq7.s:962    .text:00000000000006b8 .L0 
     /tmp/cccICcq7.s:966    .text:00000000000006c8 .L0 
     /tmp/cccICcq7.s:967    .text:00000000000006c8 .L0 
     /tmp/cccICcq7.s:971    .text:00000000000006d8 .L0 
     /tmp/cccICcq7.s:972    .text:00000000000006d8 .L0 
     /tmp/cccICcq7.s:976    .text:00000000000006e4 .L0 
     /tmp/cccICcq7.s:977    .text:00000000000006e4 .L0 
     /tmp/cccICcq7.s:981    .text:00000000000006f4 .L0 
     /tmp/cccICcq7.s:982    .text:00000000000006f4 .L0 
     /tmp/cccICcq7.s:985    .text:00000000000006fc .L0 
     /tmp/cccICcq7.s:986    .text:00000000000006fc .L0 
     /tmp/cccICcq7.s:993    .text:0000000000000704 .L0 
     /tmp/cccICcq7.s:994    .text:0000000000000704 .L0 
     /tmp/cccICcq7.s:999    .text:000000000000070c .L0 
     /tmp/cccICcq7.s:1000   .text:000000000000070c .L0 
     /tmp/cccICcq7.s:1001   .text:000000000000070c .L0 
     /tmp/cccICcq7.s:1002   .text:000000000000070c .L0 
     /tmp/cccICcq7.s:1006   .text:000000000000071c .L0 
     /tmp/cccICcq7.s:1007   .text:000000000000071c .L0 
     /tmp/cccICcq7.s:1011   .text:000000000000072c .L0 
     /tmp/cccICcq7.s:1012   .text:000000000000072c .L0 
     /tmp/cccICcq7.s:1016   .text:000000000000073c .L0 
     /tmp/cccICcq7.s:1017   .text:000000000000073c .L0 
     /tmp/cccICcq7.s:1021   .text:0000000000000748 .L0 
     /tmp/cccICcq7.s:1022   .text:0000000000000748 .L0 
     /tmp/cccICcq7.s:1026   .text:0000000000000758 .L0 
     /tmp/cccICcq7.s:1027   .text:0000000000000758 .L0 
     /tmp/cccICcq7.s:1030   .text:0000000000000760 .L0 
     /tmp/cccICcq7.s:1031   .text:0000000000000760 .L0 
     /tmp/cccICcq7.s:1035   .text:0000000000000768 .L0 
     /tmp/cccICcq7.s:1058   .text:0000000000000768 _Z15testSystemCallsv
     /tmp/cccICcq7.s:1061   .text:0000000000000768 .L0 
     /tmp/cccICcq7.s:1062   .text:0000000000000768 .L0 
     /tmp/cccICcq7.s:1063   .text:000000000000076c .L0 
     /tmp/cccICcq7.s:1073   .text:0000000000000790 .L0 
     /tmp/cccICcq7.s:1074   .text:0000000000000790 .L0 
     /tmp/cccICcq7.s:1075   .text:0000000000000790 .L0 
     /tmp/cccICcq7.s:1076   .text:0000000000000790 .L0 
     /tmp/cccICcq7.s:1077   .text:0000000000000790 .L0 
     /tmp/cccICcq7.s:1078   .text:0000000000000790 .L0 
     /tmp/cccICcq7.s:1079   .text:0000000000000790 .L0 
     /tmp/cccICcq7.s:1080   .text:0000000000000790 .L0 
     /tmp/cccICcq7.s:1081   .text:0000000000000790 .L0 
     /tmp/cccICcq7.s:1083   .text:0000000000000794 .L0 
     /tmp/cccICcq7.s:1085   .text:0000000000000794 .L0 
     /tmp/cccICcq7.s:1086   .text:0000000000000794 .L0 
     /tmp/cccICcq7.s:1090   .text:00000000000007a4 .L0 
     /tmp/cccICcq7.s:1091   .text:00000000000007a4 .L0 
     /tmp/cccICcq7.s:1094   .text:00000000000007ac .L0 
     /tmp/cccICcq7.s:1095   .text:00000000000007ac .L0 
     /tmp/cccICcq7.s:1097   .text:00000000000007ac .L0 
GAS LISTING /tmp/cccICcq7.s 			page 51


     /tmp/cccICcq7.s:1098   .text:00000000000007ac .L0 
     /tmp/cccICcq7.s:1101   .text:00000000000007b0 .L0 
     /tmp/cccICcq7.s:1103   .text:00000000000007b4 .L0 
     /tmp/cccICcq7.s:1108   .text:00000000000007b8 .L0 
     /tmp/cccICcq7.s:1112   .text:00000000000007c0 .L0 
     /tmp/cccICcq7.s:1113   .text:00000000000007c0 .L0 
     /tmp/cccICcq7.s:1116   .text:00000000000007c4 .L0 
     /tmp/cccICcq7.s:1117   .text:00000000000007c4 .L0 
     /tmp/cccICcq7.s:1120   .text:00000000000007c8 .L0 
     /tmp/cccICcq7.s:1121   .text:00000000000007c8 .L0 
     /tmp/cccICcq7.s:1127   .text:00000000000007d8 .L0 
     /tmp/cccICcq7.s:1128   .text:00000000000007d8 .L0 
     /tmp/cccICcq7.s:1135   .text:00000000000007e8 .L0 
     /tmp/cccICcq7.s:1140   .text:00000000000007ec .L0 
     /tmp/cccICcq7.s:1141   .text:00000000000007ec .L0 
     /tmp/cccICcq7.s:1147   .text:00000000000007f0 .L0 
     /tmp/cccICcq7.s:1148   .text:00000000000007f0 .L0 
     /tmp/cccICcq7.s:1152   .text:00000000000007f4 .L0 
     /tmp/cccICcq7.s:1155   .text:00000000000007f8 .L0 
     /tmp/cccICcq7.s:1159   .text:00000000000007fc .L0 
     /tmp/cccICcq7.s:1164   .text:0000000000000800 .L0 
     /tmp/cccICcq7.s:1165   .text:0000000000000800 .L0 
     /tmp/cccICcq7.s:1170   .text:0000000000000810 .L0 
     /tmp/cccICcq7.s:1171   .text:0000000000000810 .L0 
     /tmp/cccICcq7.s:1175   .text:000000000000081c .L0 
     /tmp/cccICcq7.s:1176   .text:000000000000081c .L0 
     /tmp/cccICcq7.s:1180   .text:000000000000082c .L0 
     /tmp/cccICcq7.s:1181   .text:000000000000082c .L0 
     /tmp/cccICcq7.s:1185   .text:0000000000000838 .L0 
     /tmp/cccICcq7.s:1186   .text:0000000000000838 .L0 
     /tmp/cccICcq7.s:1190   .text:0000000000000848 .L0 
     /tmp/cccICcq7.s:1191   .text:0000000000000848 .L0 
     /tmp/cccICcq7.s:1195   .text:0000000000000854 .L0 
     /tmp/cccICcq7.s:1196   .text:0000000000000854 .L0 
     /tmp/cccICcq7.s:1201   .text:000000000000085c .L0 
     /tmp/cccICcq7.s:1202   .text:000000000000085c .L0 
     /tmp/cccICcq7.s:1203   .text:000000000000085c .L0 
     /tmp/cccICcq7.s:1204   .text:000000000000085c .L0 
     /tmp/cccICcq7.s:1208   .text:000000000000086c .L0 
     /tmp/cccICcq7.s:1209   .text:000000000000086c .L0 
     /tmp/cccICcq7.s:1213   .text:000000000000087c .L0 
     /tmp/cccICcq7.s:1214   .text:000000000000087c .L0 
     /tmp/cccICcq7.s:1218   .text:000000000000088c .L0 
     /tmp/cccICcq7.s:1219   .text:000000000000088c .L0 
     /tmp/cccICcq7.s:1223   .text:0000000000000898 .L0 
     /tmp/cccICcq7.s:1224   .text:0000000000000898 .L0 
     /tmp/cccICcq7.s:1228   .text:00000000000008a8 .L0 
     /tmp/cccICcq7.s:1229   .text:00000000000008a8 .L0 
     /tmp/cccICcq7.s:1232   .text:00000000000008b0 .L0 
     /tmp/cccICcq7.s:1233   .text:00000000000008b0 .L0 
     /tmp/cccICcq7.s:1241   .text:00000000000008b8 .L0 
     /tmp/cccICcq7.s:1242   .text:00000000000008b8 .L0 
     /tmp/cccICcq7.s:1247   .text:00000000000008c8 .L0 
     /tmp/cccICcq7.s:1248   .text:00000000000008c8 .L0 
     /tmp/cccICcq7.s:1252   .text:00000000000008d8 .L0 
     /tmp/cccICcq7.s:1253   .text:00000000000008d8 .L0 
     /tmp/cccICcq7.s:1257   .text:00000000000008e8 .L0 
GAS LISTING /tmp/cccICcq7.s 			page 52


     /tmp/cccICcq7.s:1258   .text:00000000000008e8 .L0 
     /tmp/cccICcq7.s:1262   .text:00000000000008f4 .L0 
     /tmp/cccICcq7.s:1263   .text:00000000000008f4 .L0 
     /tmp/cccICcq7.s:1267   .text:0000000000000904 .L0 
     /tmp/cccICcq7.s:1268   .text:0000000000000904 .L0 
     /tmp/cccICcq7.s:1271   .text:000000000000090c .L0 
     /tmp/cccICcq7.s:1272   .text:000000000000090c .L0 
     /tmp/cccICcq7.s:1280   .text:0000000000000914 .L0 
     /tmp/cccICcq7.s:1281   .text:0000000000000914 .L0 
     /tmp/cccICcq7.s:1285   .text:0000000000000924 .L0 
     /tmp/cccICcq7.s:1286   .text:0000000000000924 .L0 
     /tmp/cccICcq7.s:1289   .text:000000000000092c .L0 
     /tmp/cccICcq7.s:1290   .text:0000000000000930 .L0 
     /tmp/cccICcq7.s:1292   .text:0000000000000934 .L0 
     /tmp/cccICcq7.s:1293   .text:0000000000000934 .L0 
     /tmp/cccICcq7.s:1295   .text:0000000000000938 .L0 
     /tmp/cccICcq7.s:1298   .text:000000000000093c .L0 
     /tmp/cccICcq7.s:1300   .text:0000000000000940 .L0 
     /tmp/cccICcq7.s:1302   .text:0000000000000944 .L0 
     /tmp/cccICcq7.s:1305   .text:0000000000000948 .L0 
     /tmp/cccICcq7.s:1308   .text:000000000000094c .L0 
     /tmp/cccICcq7.s:1310   .text:0000000000000950 .L0 
     /tmp/cccICcq7.s:1312   .text:0000000000000954 .L0 
     /tmp/cccICcq7.s:1314   .text:0000000000000958 .L0 
     /tmp/cccICcq7.s:1328   .text:0000000000000958 _Z19testMemoryAllocatorv
     /tmp/cccICcq7.s:1331   .text:0000000000000958 .L0 
     /tmp/cccICcq7.s:1332   .text:0000000000000958 .L0 
     /tmp/cccICcq7.s:1333   .text:000000000000095c .L0 
     /tmp/cccICcq7.s:1339   .text:0000000000000970 .L0 
     /tmp/cccICcq7.s:1340   .text:0000000000000970 .L0 
     /tmp/cccICcq7.s:1341   .text:0000000000000970 .L0 
     /tmp/cccICcq7.s:1342   .text:0000000000000970 .L0 
     /tmp/cccICcq7.s:1343   .text:0000000000000970 .L0 
     /tmp/cccICcq7.s:1345   .text:0000000000000974 .L0 
     /tmp/cccICcq7.s:1347   .text:0000000000000974 .L0 
     /tmp/cccICcq7.s:1348   .text:0000000000000974 .L0 
     /tmp/cccICcq7.s:1352   .text:0000000000000984 .L0 
     /tmp/cccICcq7.s:1353   .text:0000000000000984 .L0 
     /tmp/cccICcq7.s:1356   .text:000000000000098c .L0 
     /tmp/cccICcq7.s:1357   .text:000000000000098c .L0 
     /tmp/cccICcq7.s:1358   .text:000000000000098c .L0 
     /tmp/cccICcq7.s:1359   .text:000000000000098c .L0 
     /tmp/cccICcq7.s:1367   .text:00000000000009a0 .L0 
     /tmp/cccICcq7.s:1368   .text:00000000000009a0 .L0 
     /tmp/cccICcq7.s:1372   .text:00000000000009a4 .L0 
     /tmp/cccICcq7.s:1375   .text:00000000000009ac .L0 
     /tmp/cccICcq7.s:1376   .text:00000000000009ac .L0 
     /tmp/cccICcq7.s:1379   .text:00000000000009b4 .L0 
     /tmp/cccICcq7.s:1383   .text:00000000000009c0 .L0 
     /tmp/cccICcq7.s:1385   .text:00000000000009c4 .L0 
     /tmp/cccICcq7.s:1386   .text:00000000000009c4 .L0 
     /tmp/cccICcq7.s:1388   .text:00000000000009c8 .L0 
     /tmp/cccICcq7.s:1396   .text:00000000000009d0 .L0 
     /tmp/cccICcq7.s:1399   .text:00000000000009d4 .L0 
     /tmp/cccICcq7.s:1404   .text:00000000000009d8 .L0 
     /tmp/cccICcq7.s:1407   .text:00000000000009e0 .L0 
     /tmp/cccICcq7.s:1408   .text:00000000000009e0 .L0 
GAS LISTING /tmp/cccICcq7.s 			page 53


     /tmp/cccICcq7.s:1412   .text:00000000000009ec .L0 
     /tmp/cccICcq7.s:1414   .text:00000000000009f0 .L0 
     /tmp/cccICcq7.s:1417   .text:00000000000009f4 .L0 
     /tmp/cccICcq7.s:1424   .text:00000000000009fc .L0 
     /tmp/cccICcq7.s:1431   .text:0000000000000a04 .L0 
     /tmp/cccICcq7.s:1436   .text:0000000000000a08 .L0 
     /tmp/cccICcq7.s:1440   .text:0000000000000a0c .L0 
     /tmp/cccICcq7.s:1443   .text:0000000000000a14 .L0 
     /tmp/cccICcq7.s:1444   .text:0000000000000a14 .L0 
     /tmp/cccICcq7.s:1447   .text:0000000000000a1c .L0 
     /tmp/cccICcq7.s:1453   .text:0000000000000a28 .L0 
     /tmp/cccICcq7.s:1454   .text:0000000000000a28 .L0 
     /tmp/cccICcq7.s:1459   .text:0000000000000a2c .L0 
     /tmp/cccICcq7.s:1460   .text:0000000000000a2c .L0 
     /tmp/cccICcq7.s:1469   .text:0000000000000a34 .L0 
     /tmp/cccICcq7.s:1470   .text:0000000000000a34 .L0 
     /tmp/cccICcq7.s:1474   .text:0000000000000a44 .L0 
     /tmp/cccICcq7.s:1475   .text:0000000000000a44 .L0 
     /tmp/cccICcq7.s:1479   .text:0000000000000a54 .L0 
     /tmp/cccICcq7.s:1480   .text:0000000000000a54 .L0 
     /tmp/cccICcq7.s:1484   .text:0000000000000a64 .L0 
     /tmp/cccICcq7.s:1485   .text:0000000000000a64 .L0 
     /tmp/cccICcq7.s:1489   .text:0000000000000a70 .L0 
     /tmp/cccICcq7.s:1490   .text:0000000000000a70 .L0 
     /tmp/cccICcq7.s:1494   .text:0000000000000a80 .L0 
     /tmp/cccICcq7.s:1495   .text:0000000000000a80 .L0 
     /tmp/cccICcq7.s:1498   .text:0000000000000a88 .L0 
     /tmp/cccICcq7.s:1499   .text:0000000000000a88 .L0 
     /tmp/cccICcq7.s:1508   .text:0000000000000a90 .L0 
     /tmp/cccICcq7.s:1509   .text:0000000000000a90 .L0 
     /tmp/cccICcq7.s:1514   .text:0000000000000aa0 .L0 
     /tmp/cccICcq7.s:1515   .text:0000000000000aa0 .L0 
     /tmp/cccICcq7.s:1519   .text:0000000000000ab0 .L0 
     /tmp/cccICcq7.s:1520   .text:0000000000000ab0 .L0 
     /tmp/cccICcq7.s:1524   .text:0000000000000ac0 .L0 
     /tmp/cccICcq7.s:1525   .text:0000000000000ac0 .L0 
     /tmp/cccICcq7.s:1529   .text:0000000000000acc .L0 
     /tmp/cccICcq7.s:1530   .text:0000000000000acc .L0 
     /tmp/cccICcq7.s:1534   .text:0000000000000adc .L0 
     /tmp/cccICcq7.s:1535   .text:0000000000000adc .L0 
     /tmp/cccICcq7.s:1538   .text:0000000000000ae4 .L0 
     /tmp/cccICcq7.s:1539   .text:0000000000000ae4 .L0 
     /tmp/cccICcq7.s:1546   .text:0000000000000aec .L0 
     /tmp/cccICcq7.s:1547   .text:0000000000000aec .L0 
     /tmp/cccICcq7.s:1553   .text:0000000000000af8 .L0 
     /tmp/cccICcq7.s:1554   .text:0000000000000af8 .L0 
     /tmp/cccICcq7.s:1559   .text:0000000000000afc .L0 
     /tmp/cccICcq7.s:1560   .text:0000000000000afc .L0 
     /tmp/cccICcq7.s:1561   .text:0000000000000afc .L0 
     /tmp/cccICcq7.s:1566   .text:0000000000000b0c .L0 
     /tmp/cccICcq7.s:1567   .text:0000000000000b0c .L0 
     /tmp/cccICcq7.s:1570   .text:0000000000000b14 .L0 
     /tmp/cccICcq7.s:1571   .text:0000000000000b18 .L0 
     /tmp/cccICcq7.s:1572   .text:0000000000000b18 .L0 
     /tmp/cccICcq7.s:1574   .text:0000000000000b1c .L0 
     /tmp/cccICcq7.s:1575   .text:0000000000000b1c .L0 
     /tmp/cccICcq7.s:1577   .text:0000000000000b20 .L0 
GAS LISTING /tmp/cccICcq7.s 			page 54


     /tmp/cccICcq7.s:1580   .text:0000000000000b24 .L0 
     /tmp/cccICcq7.s:1582   .text:0000000000000b28 .L0 
     /tmp/cccICcq7.s:1585   .text:0000000000000b2c .L0 
     /tmp/cccICcq7.s:1589   .text:0000000000000b30 .L0 
     /tmp/cccICcq7.s:1593   .text:0000000000000b30 .L0 
     /tmp/cccICcq7.s:1594   .text:0000000000000b30 .L0 
     /tmp/cccICcq7.s:1599   .text:0000000000000b40 .L0 
     /tmp/cccICcq7.s:1600   .text:0000000000000b40 .L0 
     /tmp/cccICcq7.s:1604   .text:0000000000000b50 .L0 
     /tmp/cccICcq7.s:1605   .text:0000000000000b50 .L0 
     /tmp/cccICcq7.s:1609   .text:0000000000000b60 .L0 
     /tmp/cccICcq7.s:1610   .text:0000000000000b60 .L0 
     /tmp/cccICcq7.s:1614   .text:0000000000000b6c .L0 
     /tmp/cccICcq7.s:1615   .text:0000000000000b6c .L0 
     /tmp/cccICcq7.s:1619   .text:0000000000000b7c .L0 
     /tmp/cccICcq7.s:1620   .text:0000000000000b7c .L0 
     /tmp/cccICcq7.s:1623   .text:0000000000000b84 .L0 
     /tmp/cccICcq7.s:1624   .text:0000000000000b84 .L0 
     /tmp/cccICcq7.s:1628   .text:0000000000000b8c .L0 
     /tmp/cccICcq7.s:1642   .bss:0000000000000004 sliceSecondCounter
     /tmp/cccICcq7.s:1638   .bss:0000000000000000 sliceFirstCounter
     /tmp/cccICcq7.s:1635   .bss:0000000000000000 .LANCHOR0
     /tmp/cccICcq7.s:1648   .text:0000000000000b8c .L0 
     /tmp/cccICcq7.s:8      .rodata.str1.8:0000000000000000 .LC0
     /tmp/cccICcq7.s:41     .text:000000000000001c .L0 
     /tmp/cccICcq7.s:105    .text:000000000000006c .L0 
     /tmp/cccICcq7.s:113    .text:0000000000000084 .L0 
     /tmp/cccICcq7.s:128    .text:00000000000000b0 .L0 
     /tmp/cccICcq7.s:62     .rodata.str1.8:0000000000000010 .LC1
     /tmp/cccICcq7.s:157    .text:00000000000000d8 .L0 
     /tmp/cccICcq7.s:65     .rodata.str1.8:0000000000000038 .LC2
     /tmp/cccICcq7.s:162    .text:00000000000000e8 .L0 
     /tmp/cccICcq7.s:68     .rodata.str1.8:0000000000000048 .LC3
     /tmp/cccICcq7.s:167    .text:00000000000000f8 .L0 
     /tmp/cccICcq7.s:71     .rodata.str1.8:0000000000000058 .LC4
     /tmp/cccICcq7.s:177    .text:0000000000000114 .L0 
     /tmp/cccICcq7.s:203    .text:0000000000000134 .L0 
     /tmp/cccICcq7.s:222    .text:000000000000014c .L0 
     /tmp/cccICcq7.s:229    .text:0000000000000160 .L0 
     /tmp/cccICcq7.s:245    .text:0000000000000178 .L0 
     /tmp/cccICcq7.s:253    .text:000000000000018c .L0 
     /tmp/cccICcq7.s:276    .text:00000000000001ac .L0 
     /tmp/cccICcq7.s:282    .text:00000000000001bc .L0 
     /tmp/cccICcq7.s:287    .text:00000000000001cc .L0 
     /tmp/cccICcq7.s:297    .text:00000000000001e8 .L0 
     /tmp/cccICcq7.s:331    .text:0000000000000218 .L0 
     /tmp/cccICcq7.s:345    .text:000000000000022c .L0 
     /tmp/cccICcq7.s:351    .text:000000000000023c .L0 
     /tmp/cccICcq7.s:356    .text:000000000000024c .L0 
     /tmp/cccICcq7.s:366    .text:0000000000000268 .L0 
     /tmp/cccICcq7.s:391    .text:0000000000000294 .L0 
     /tmp/cccICcq7.s:404    .text:00000000000002a8 .L0 
     /tmp/cccICcq7.s:424    .text:00000000000002cc .L0 
     /tmp/cccICcq7.s:432    .text:00000000000002dc .L0 
     /tmp/cccICcq7.s:456    .text:00000000000002f8 .L0 
     /tmp/cccICcq7.s:462    .text:0000000000000308 .L0 
     /tmp/cccICcq7.s:467    .text:0000000000000318 .L0 
GAS LISTING /tmp/cccICcq7.s 			page 55


     /tmp/cccICcq7.s:477    .text:0000000000000334 .L0 
     /tmp/cccICcq7.s:495    .rodata.str1.8:0000000000000078 .LC5
     /tmp/cccICcq7.s:518    .text:0000000000000364 .L0 
     /tmp/cccICcq7.s:540    .text:0000000000000390 .L0 
     /tmp/cccICcq7.s:547    .text:00000000000003a8 .L0 
     /tmp/cccICcq7.s:498    .rodata.str1.8:0000000000000098 .LC6
     /tmp/cccICcq7.s:567    .text:00000000000003dc .L0 
     /tmp/cccICcq7.s:718    .text:00000000000004cc .L0 
     /tmp/cccICcq7.s:724    .text:00000000000004dc .L0 
     /tmp/cccICcq7.s:729    .text:00000000000004ec .L0 
     /tmp/cccICcq7.s:739    .text:0000000000000508 .L0 
     /tmp/cccICcq7.s:758    .text:0000000000000528 .L0 
     /tmp/cccICcq7.s:764    .text:0000000000000538 .L0 
     /tmp/cccICcq7.s:769    .text:0000000000000548 .L0 
     /tmp/cccICcq7.s:779    .text:0000000000000564 .L0 
     /tmp/cccICcq7.s:811    .text:0000000000000590 .L0 
     /tmp/cccICcq7.s:816    .text:00000000000005a0 .L0 
     /tmp/cccICcq7.s:821    .text:00000000000005b0 .L0 
     /tmp/cccICcq7.s:831    .text:00000000000005cc .L0 
     /tmp/cccICcq7.s:916    .text:000000000000064c .L0 
     /tmp/cccICcq7.s:922    .text:000000000000065c .L0 
     /tmp/cccICcq7.s:927    .text:000000000000066c .L0 
     /tmp/cccICcq7.s:937    .text:0000000000000688 .L0 
     /tmp/cccICcq7.s:956    .text:00000000000006a8 .L0 
     /tmp/cccICcq7.s:962    .text:00000000000006b8 .L0 
     /tmp/cccICcq7.s:967    .text:00000000000006c8 .L0 
     /tmp/cccICcq7.s:977    .text:00000000000006e4 .L0 
     /tmp/cccICcq7.s:1002   .text:000000000000070c .L0 
     /tmp/cccICcq7.s:1007   .text:000000000000071c .L0 
     /tmp/cccICcq7.s:1012   .text:000000000000072c .L0 
     /tmp/cccICcq7.s:1022   .text:0000000000000748 .L0 
     /tmp/cccICcq7.s:1040   .rodata.str1.8:00000000000000c0 .LC7
     /tmp/cccICcq7.s:1086   .text:0000000000000794 .L0 
     /tmp/cccICcq7.s:1043   .rodata.str1.8:00000000000000e0 .LC8
     /tmp/cccICcq7.s:1165   .text:0000000000000800 .L0 
     /tmp/cccICcq7.s:1046   .rodata.str1.8:00000000000000f8 .LC9
     /tmp/cccICcq7.s:1176   .text:000000000000081c .L0 
     /tmp/cccICcq7.s:1049   .rodata.str1.8:0000000000000108 .LC10
     /tmp/cccICcq7.s:1186   .text:0000000000000838 .L0 
     /tmp/cccICcq7.s:1204   .text:000000000000085c .L0 
     /tmp/cccICcq7.s:1209   .text:000000000000086c .L0 
     /tmp/cccICcq7.s:1214   .text:000000000000087c .L0 
     /tmp/cccICcq7.s:1224   .text:0000000000000898 .L0 
     /tmp/cccICcq7.s:1242   .text:00000000000008b8 .L0 
     /tmp/cccICcq7.s:1248   .text:00000000000008c8 .L0 
     /tmp/cccICcq7.s:1253   .text:00000000000008d8 .L0 
     /tmp/cccICcq7.s:1263   .text:00000000000008f4 .L0 
     /tmp/cccICcq7.s:1052   .rodata.str1.8:0000000000000118 .LC11
     /tmp/cccICcq7.s:1281   .text:0000000000000914 .L0 
     /tmp/cccICcq7.s:1319   .rodata.str1.8:0000000000000140 .LC12
     /tmp/cccICcq7.s:1348   .text:0000000000000974 .L0 
     /tmp/cccICcq7.s:1470   .text:0000000000000a34 .L0 
     /tmp/cccICcq7.s:1475   .text:0000000000000a44 .L0 
     /tmp/cccICcq7.s:1480   .text:0000000000000a54 .L0 
     /tmp/cccICcq7.s:1490   .text:0000000000000a70 .L0 
     /tmp/cccICcq7.s:1509   .text:0000000000000a90 .L0 
     /tmp/cccICcq7.s:1515   .text:0000000000000aa0 .L0 
GAS LISTING /tmp/cccICcq7.s 			page 56


     /tmp/cccICcq7.s:1520   .text:0000000000000ab0 .L0 
     /tmp/cccICcq7.s:1530   .text:0000000000000acc .L0 
     /tmp/cccICcq7.s:1322   .rodata.str1.8:0000000000000168 .LC13
     /tmp/cccICcq7.s:1561   .text:0000000000000afc .L0 
     /tmp/cccICcq7.s:1594   .text:0000000000000b30 .L0 
     /tmp/cccICcq7.s:1600   .text:0000000000000b40 .L0 
     /tmp/cccICcq7.s:1605   .text:0000000000000b50 .L0 
     /tmp/cccICcq7.s:1615   .text:0000000000000b6c .L0 
     /tmp/cccICcq7.s:151    .text:00000000000000d8 .L6
     /tmp/cccICcq7.s:237    .text:0000000000000170 .L10
     /tmp/cccICcq7.s:250    .text:000000000000018c .L8
     /tmp/cccICcq7.s:212    .text:0000000000000148 .L15
     /tmp/cccICcq7.s:233    .text:000000000000016c .L9
     /tmp/cccICcq7.s:260    .text:000000000000019c .L16
     /tmp/cccICcq7.s:383    .text:000000000000028c .L21
     /tmp/cccICcq7.s:429    .text:00000000000002dc .L18
     /tmp/cccICcq7.s:377    .text:0000000000000288 .L19
     /tmp/cccICcq7.s:340    .text:000000000000022c .L24
     /tmp/cccICcq7.s:450    .text:00000000000002f8 .L25
     /tmp/cccICcq7.s:613    .text:000000000000042c .L29
     /tmp/cccICcq7.s:630    .text:0000000000000448 .L31
     /tmp/cccICcq7.s:712    .text:00000000000004cc .L38
     /tmp/cccICcq7.s:790    .text:0000000000000584 .L34
     /tmp/cccICcq7.s:750    .text:0000000000000528 .L39
     /tmp/cccICcq7.s:683    .text:0000000000000494 .L33
     /tmp/cccICcq7.s:910    .text:000000000000064c .L46
     /tmp/cccICcq7.s:988    .text:0000000000000704 .L42
     /tmp/cccICcq7.s:948    .text:00000000000006a8 .L47
     /tmp/cccICcq7.s:881    .text:0000000000000614 .L41
     /tmp/cccICcq7.s:1274   .text:0000000000000914 .L49
     /tmp/cccICcq7.s:1161   .text:0000000000000800 .L54
     /tmp/cccICcq7.s:1235   .text:00000000000008b8 .L55
     /tmp/cccICcq7.s:1105   .text:00000000000007b8 .L52
     /tmp/cccICcq7.s:1392   .text:00000000000009d0 .L64
     /tmp/cccICcq7.s:1370   .text:00000000000009a4 .L58
     /tmp/cccICcq7.s:1421   .text:00000000000009fc .L59
     /tmp/cccICcq7.s:1400   .text:00000000000009d8 .L57
     /tmp/cccICcq7.s:1464   .text:0000000000000a34 .L67
     /tmp/cccICcq7.s:1541   .text:0000000000000aec .L61
     /tmp/cccICcq7.s:1501   .text:0000000000000a90 .L68
     /tmp/cccICcq7.s:1438   .text:0000000000000a0c .L60
     /tmp/cccICcq7.s:1588   .text:0000000000000b30 .L69
     /tmp/cccICcq7.s:3967   .debug_abbrev:0000000000000000 .Ldebug_abbrev0
     /tmp/cccICcq7.s:5826   .debug_str:00000000000003b1 .LASF78
     /tmp/cccICcq7.s:5784   .debug_str:0000000000000293 .LASF79
     /tmp/cccICcq7.s:5794   .debug_str:00000000000002cc .LASF80
     /tmp/cccICcq7.s:5      .text:0000000000000000 .Ltext0
     /tmp/cccICcq7.s:1645   .text:0000000000000b8c .Letext0
     /tmp/cccICcq7.s:5680   .debug_line:0000000000000000 .Ldebug_line0
     /tmp/cccICcq7.s:5770   .debug_str:000000000000021f .LASF0
     /tmp/cccICcq7.s:5778   .debug_str:000000000000025c .LASF1
     /tmp/cccICcq7.s:5760   .debug_str:00000000000001d8 .LASF2
     /tmp/cccICcq7.s:5740   .debug_str:0000000000000158 .LASF4
     /tmp/cccICcq7.s:5812   .debug_str:0000000000000341 .LASF3
     /tmp/cccICcq7.s:5694   .debug_str:0000000000000038 .LASF5
     /tmp/cccICcq7.s:5782   .debug_str:0000000000000280 .LASF6
     /tmp/cccICcq7.s:5768   .debug_str:000000000000020c .LASF7
GAS LISTING /tmp/cccICcq7.s 			page 57


     /tmp/cccICcq7.s:5834   .debug_str:00000000000004a5 .LASF8
     /tmp/cccICcq7.s:5728   .debug_str:0000000000000112 .LASF9
     /tmp/cccICcq7.s:5792   .debug_str:00000000000002bd .LASF10
     /tmp/cccICcq7.s:5828   .debug_str:0000000000000475 .LASF11
     /tmp/cccICcq7.s:5696   .debug_str:000000000000003f .LASF12
     /tmp/cccICcq7.s:5688   .debug_str:0000000000000017 .LASF13
     /tmp/cccICcq7.s:5700   .debug_str:000000000000005f .LASF14
     /tmp/cccICcq7.s:5808   .debug_str:0000000000000320 .LASF15
     /tmp/cccICcq7.s:5710   .debug_str:000000000000009e .LASF16
     /tmp/cccICcq7.s:5682   .debug_str:0000000000000000 .LASF17
     /tmp/cccICcq7.s:5786   .debug_str:000000000000029f .LASF18
     /tmp/cccICcq7.s:5722   .debug_str:00000000000000ef .LASF19
     /tmp/cccICcq7.s:5692   .debug_str:0000000000000031 .LASF20
     /tmp/cccICcq7.s:5742   .debug_str:000000000000015f .LASF21
     /tmp/cccICcq7.s:5830   .debug_str:0000000000000484 .LASF22
     /tmp/cccICcq7.s:5720   .debug_str:00000000000000db .LASF24
     /tmp/cccICcq7.s:5816   .debug_str:000000000000035d .LASF26
     /tmp/cccICcq7.s:1329   .text:0000000000000958 .LFB19
     /tmp/cccICcq7.s:1629   .text:0000000000000b8c .LFE19
     /tmp/cccICcq7.s:4599   .debug_loc:0000000000000000 .LLST40
     /tmp/cccICcq7.s:5686   .debug_str:0000000000000010 .LASF23
     /tmp/cccICcq7.s:4614   .debug_loc:0000000000000049 .LLST41
     /tmp/cccICcq7.s:4629   .debug_loc:0000000000000092 .LLST42
     /tmp/cccICcq7.s:1366   .text:00000000000009a0 .LBB94
     /tmp/cccICcq7.s:1393   .text:00000000000009d0 .LBE94
     /tmp/cccICcq7.s:4648   .debug_loc:00000000000000ee .LLST43
     /tmp/cccICcq7.s:1381   .text:00000000000009c0 .LVL187
     /tmp/cccICcq7.s:5568   .debug_ranges:0000000000000000 .Ldebug_ranges0
     /tmp/cccICcq7.s:4678   .debug_loc:0000000000000164 .LLST44
     /tmp/cccICcq7.s:4689   .debug_loc:000000000000019a .LLST48
     /tmp/cccICcq7.s:1451   .text:0000000000000a28 .LBB101
     /tmp/cccICcq7.s:4704   .debug_loc:00000000000001e3 .LLST49
     /tmp/cccICcq7.s:4719   .debug_loc:000000000000021d .LLST50
     /tmp/cccICcq7.s:4734   .debug_loc:0000000000000265 .LLST51
     /tmp/cccICcq7.s:1512   .text:0000000000000aa0 .LVL209
     /tmp/cccICcq7.s:1517   .text:0000000000000ab0 .LVL210
     /tmp/cccICcq7.s:1522   .text:0000000000000ac0 .LVL211
     /tmp/cccICcq7.s:1527   .text:0000000000000acc .LVL212
     /tmp/cccICcq7.s:1532   .text:0000000000000adc .LVL213
     /tmp/cccICcq7.s:1536   .text:0000000000000ae4 .LVL214
     /tmp/cccICcq7.s:1540   .text:0000000000000aec .LVL215
     /tmp/cccICcq7.s:1449   .text:0000000000000a28 .LVL197
     /tmp/cccICcq7.s:1428   .text:0000000000000a04 .LBB97
     /tmp/cccICcq7.s:4753   .debug_loc:00000000000002a3 .LLST45
     /tmp/cccICcq7.s:4768   .debug_loc:00000000000002dd .LLST46
     /tmp/cccICcq7.s:4783   .debug_loc:0000000000000325 .LLST47
     /tmp/cccICcq7.s:1472   .text:0000000000000a44 .LVL201
     /tmp/cccICcq7.s:1477   .text:0000000000000a54 .LVL202
     /tmp/cccICcq7.s:1482   .text:0000000000000a64 .LVL203
     /tmp/cccICcq7.s:1487   .text:0000000000000a70 .LVL204
     /tmp/cccICcq7.s:1492   .text:0000000000000a80 .LVL205
     /tmp/cccICcq7.s:1496   .text:0000000000000a88 .LVL206
     /tmp/cccICcq7.s:1500   .text:0000000000000a90 .LVL207
     /tmp/cccICcq7.s:1551   .text:0000000000000af8 .LBB107
     /tmp/cccICcq7.s:4808   .debug_loc:0000000000000369 .LLST52
     /tmp/cccICcq7.s:4823   .debug_loc:00000000000003a3 .LLST53
     /tmp/cccICcq7.s:4838   .debug_loc:00000000000003eb .LLST54
GAS LISTING /tmp/cccICcq7.s 			page 58


     /tmp/cccICcq7.s:1597   .text:0000000000000b40 .LVL225
     /tmp/cccICcq7.s:1602   .text:0000000000000b50 .LVL226
     /tmp/cccICcq7.s:1607   .text:0000000000000b60 .LVL227
     /tmp/cccICcq7.s:1612   .text:0000000000000b6c .LVL228
     /tmp/cccICcq7.s:1617   .text:0000000000000b7c .LVL229
     /tmp/cccICcq7.s:1621   .text:0000000000000b84 .LVL230
     /tmp/cccICcq7.s:1625   .text:0000000000000b8c .LVL231
     /tmp/cccICcq7.s:1350   .text:0000000000000984 .LVL182
     /tmp/cccICcq7.s:1354   .text:000000000000098c .LVL183
     /tmp/cccICcq7.s:1362   .text:000000000000099c .LVL184
     /tmp/cccICcq7.s:1549   .text:0000000000000af8 .LVL216
     /tmp/cccICcq7.s:1564   .text:0000000000000b0c .LVL219
     /tmp/cccICcq7.s:1568   .text:0000000000000b14 .LVL220
     /tmp/cccICcq7.s:5730   .debug_str:0000000000000120 .LASF25
     /tmp/cccICcq7.s:5758   .debug_str:00000000000001c3 .LASF27
     /tmp/cccICcq7.s:1059   .text:0000000000000768 .LFB18
     /tmp/cccICcq7.s:1315   .text:0000000000000958 .LFE18
     /tmp/cccICcq7.s:4857   .debug_loc:0000000000000429 .LLST29
     /tmp/cccICcq7.s:4885   .debug_loc:000000000000049d .LLST30
     /tmp/cccICcq7.s:4913   .debug_loc:0000000000000511 .LLST31
     /tmp/cccICcq7.s:5684   .debug_str:0000000000000009 .LASF28
     /tmp/cccICcq7.s:4929   .debug_loc:000000000000055b .LLST32
     /tmp/cccICcq7.s:5714   .debug_str:00000000000000c2 .LASF29
     /tmp/cccICcq7.s:4940   .debug_loc:0000000000000591 .LLST33
     /tmp/cccICcq7.s:1138   .text:00000000000007ec .LBB76
     /tmp/cccICcq7.s:4959   .debug_loc:00000000000005ed .LLST34
     /tmp/cccICcq7.s:4974   .debug_loc:0000000000000627 .LLST35
     /tmp/cccICcq7.s:4989   .debug_loc:000000000000066f .LLST36
     /tmp/cccICcq7.s:1245   .text:00000000000008c8 .LVL170
     /tmp/cccICcq7.s:1250   .text:00000000000008d8 .LVL171
     /tmp/cccICcq7.s:1255   .text:00000000000008e8 .LVL172
     /tmp/cccICcq7.s:1260   .text:00000000000008f4 .LVL173
     /tmp/cccICcq7.s:1265   .text:0000000000000904 .LVL174
     /tmp/cccICcq7.s:1269   .text:000000000000090c .LVL175
     /tmp/cccICcq7.s:1273   .text:0000000000000914 .LVL176
     /tmp/cccICcq7.s:1199   .text:000000000000085c .LBB79
     /tmp/cccICcq7.s:1237   .text:00000000000008b8 .LBE79
     /tmp/cccICcq7.s:5014   .debug_loc:00000000000006b3 .LLST37
     /tmp/cccICcq7.s:5023   .debug_loc:00000000000006d8 .LLST38
     /tmp/cccICcq7.s:5032   .debug_loc:0000000000000704 .LLST39
     /tmp/cccICcq7.s:1206   .text:000000000000086c .LVL162
     /tmp/cccICcq7.s:1211   .text:000000000000087c .LVL163
     /tmp/cccICcq7.s:1216   .text:000000000000088c .LVL164
     /tmp/cccICcq7.s:1221   .text:0000000000000898 .LVL165
     /tmp/cccICcq7.s:1226   .text:00000000000008a8 .LVL166
     /tmp/cccICcq7.s:1230   .text:00000000000008b0 .LVL167
     /tmp/cccICcq7.s:1234   .text:00000000000008b8 .LVL168
     /tmp/cccICcq7.s:1123   .text:00000000000007d4 .LVL143
     /tmp/cccICcq7.s:1131   .text:00000000000007e4 .LVL146
     /tmp/cccICcq7.s:1168   .text:0000000000000810 .LVL155
     /tmp/cccICcq7.s:1173   .text:000000000000081c .LVL156
     /tmp/cccICcq7.s:1178   .text:000000000000082c .LVL157
     /tmp/cccICcq7.s:1183   .text:0000000000000838 .LVL158
     /tmp/cccICcq7.s:1188   .text:0000000000000848 .LVL159
     /tmp/cccICcq7.s:1193   .text:0000000000000854 .LVL160
     /tmp/cccICcq7.s:1197   .text:000000000000085c .LVL161
     /tmp/cccICcq7.s:1088   .text:00000000000007a4 .LVL138
GAS LISTING /tmp/cccICcq7.s 			page 59


     /tmp/cccICcq7.s:1092   .text:00000000000007ac .LVL139
     /tmp/cccICcq7.s:1283   .text:0000000000000924 .LVL177
     /tmp/cccICcq7.s:1287   .text:000000000000092c .LVL178
     /tmp/cccICcq7.s:5800   .debug_str:00000000000002f9 .LASF81
     /tmp/cccICcq7.s:590    .text:0000000000000404 .LFB17
     /tmp/cccICcq7.s:647    .text:000000000000046c .LFE17
     /tmp/cccICcq7.s:5040   .debug_loc:0000000000000728 .LLST12
     /tmp/cccICcq7.s:636    .text:0000000000000454 .LVL69
     /tmp/cccICcq7.s:641    .text:0000000000000464 .LVL70
     /tmp/cccICcq7.s:5726   .debug_str:0000000000000109 .LASF30
     /tmp/cccICcq7.s:851    .text:00000000000005ec .LFB16
     /tmp/cccICcq7.s:1036   .text:0000000000000768 .LFE16
     /tmp/cccICcq7.s:5065   .debug_loc:000000000000078a .LLST21
     /tmp/cccICcq7.s:5090   .debug_loc:00000000000007ec .LLST25
     /tmp/cccICcq7.s:893    .text:0000000000000638 .LBB60
     /tmp/cccICcq7.s:5101   .debug_loc:0000000000000822 .LLST26
     /tmp/cccICcq7.s:5116   .debug_loc:000000000000085c .LLST27
     /tmp/cccICcq7.s:5131   .debug_loc:00000000000008a4 .LLST28
     /tmp/cccICcq7.s:959    .text:00000000000006b8 .LVL123
     /tmp/cccICcq7.s:964    .text:00000000000006c8 .LVL124
     /tmp/cccICcq7.s:969    .text:00000000000006d8 .LVL125
     /tmp/cccICcq7.s:974    .text:00000000000006e4 .LVL126
     /tmp/cccICcq7.s:979    .text:00000000000006f4 .LVL127
     /tmp/cccICcq7.s:983    .text:00000000000006fc .LVL128
     /tmp/cccICcq7.s:987    .text:0000000000000704 .LVL129
     /tmp/cccICcq7.s:888    .text:0000000000000628 .LVL108
     /tmp/cccICcq7.s:892    .text:0000000000000638 .LVL109
     /tmp/cccICcq7.s:904    .text:0000000000000644 .LVL111
     /tmp/cccICcq7.s:871    .text:000000000000060c .LBB56
     /tmp/cccICcq7.s:5156   .debug_loc:00000000000008e8 .LLST22
     /tmp/cccICcq7.s:5171   .debug_loc:0000000000000922 .LLST23
     /tmp/cccICcq7.s:5186   .debug_loc:000000000000096a .LLST24
     /tmp/cccICcq7.s:919    .text:000000000000065c .LVL115
     /tmp/cccICcq7.s:924    .text:000000000000066c .LVL116
     /tmp/cccICcq7.s:929    .text:000000000000067c .LVL117
     /tmp/cccICcq7.s:934    .text:0000000000000688 .LVL118
     /tmp/cccICcq7.s:939    .text:0000000000000698 .LVL119
     /tmp/cccICcq7.s:943    .text:00000000000006a0 .LVL120
     /tmp/cccICcq7.s:947    .text:00000000000006a8 .LVL121
     /tmp/cccICcq7.s:997    .text:000000000000070c .LBB66
     /tmp/cccICcq7.s:1034   .text:0000000000000768 .LBE66
     /tmp/cccICcq7.s:1004   .text:000000000000071c .LVL131
     /tmp/cccICcq7.s:1009   .text:000000000000072c .LVL132
     /tmp/cccICcq7.s:1014   .text:000000000000073c .LVL133
     /tmp/cccICcq7.s:1019   .text:0000000000000748 .LVL134
     /tmp/cccICcq7.s:1024   .text:0000000000000758 .LVL135
     /tmp/cccICcq7.s:1028   .text:0000000000000760 .LVL136
     /tmp/cccICcq7.s:1032   .text:0000000000000768 .LVL137
     /tmp/cccICcq7.s:995    .text:000000000000070c .LVL130
     /tmp/cccICcq7.s:5718   .debug_str:00000000000000d2 .LASF31
     /tmp/cccICcq7.s:653    .text:000000000000046c .LFB15
     /tmp/cccICcq7.s:845    .text:00000000000005ec .LFE15
     /tmp/cccICcq7.s:5205   .debug_loc:00000000000009a8 .LLST13
     /tmp/cccICcq7.s:5230   .debug_loc:0000000000000a0a .LLST17
     /tmp/cccICcq7.s:695    .text:00000000000004b8 .LBB41
     /tmp/cccICcq7.s:5241   .debug_loc:0000000000000a40 .LLST18
     /tmp/cccICcq7.s:5256   .debug_loc:0000000000000a7a .LLST19
GAS LISTING /tmp/cccICcq7.s 			page 60


     /tmp/cccICcq7.s:5271   .debug_loc:0000000000000ac2 .LLST20
     /tmp/cccICcq7.s:761    .text:0000000000000538 .LVL90
     /tmp/cccICcq7.s:766    .text:0000000000000548 .LVL91
     /tmp/cccICcq7.s:771    .text:0000000000000558 .LVL92
     /tmp/cccICcq7.s:776    .text:0000000000000564 .LVL93
     /tmp/cccICcq7.s:781    .text:0000000000000574 .LVL94
     /tmp/cccICcq7.s:785    .text:000000000000057c .LVL95
     /tmp/cccICcq7.s:789    .text:0000000000000584 .LVL96
     /tmp/cccICcq7.s:690    .text:00000000000004a8 .LVL75
     /tmp/cccICcq7.s:694    .text:00000000000004b8 .LVL76
     /tmp/cccICcq7.s:706    .text:00000000000004c4 .LVL78
     /tmp/cccICcq7.s:673    .text:000000000000048c .LBB37
     /tmp/cccICcq7.s:5296   .debug_loc:0000000000000b06 .LLST14
     /tmp/cccICcq7.s:5311   .debug_loc:0000000000000b40 .LLST15
     /tmp/cccICcq7.s:5326   .debug_loc:0000000000000b88 .LLST16
     /tmp/cccICcq7.s:721    .text:00000000000004dc .LVL82
     /tmp/cccICcq7.s:726    .text:00000000000004ec .LVL83
     /tmp/cccICcq7.s:731    .text:00000000000004fc .LVL84
     /tmp/cccICcq7.s:736    .text:0000000000000508 .LVL85
     /tmp/cccICcq7.s:741    .text:0000000000000518 .LVL86
     /tmp/cccICcq7.s:745    .text:0000000000000520 .LVL87
     /tmp/cccICcq7.s:749    .text:0000000000000528 .LVL88
     /tmp/cccICcq7.s:806    .text:0000000000000590 .LBB47
     /tmp/cccICcq7.s:843    .text:00000000000005ec .LBE47
     /tmp/cccICcq7.s:813    .text:00000000000005a0 .LVL98
     /tmp/cccICcq7.s:818    .text:00000000000005b0 .LVL99
     /tmp/cccICcq7.s:823    .text:00000000000005c0 .LVL100
     /tmp/cccICcq7.s:828    .text:00000000000005cc .LVL101
     /tmp/cccICcq7.s:833    .text:00000000000005dc .LVL102
     /tmp/cccICcq7.s:837    .text:00000000000005e4 .LVL103
     /tmp/cccICcq7.s:841    .text:00000000000005ec .LVL104
     /tmp/cccICcq7.s:804    .text:0000000000000590 .LVL97
     /tmp/cccICcq7.s:5836   .debug_str:00000000000004b5 .LASF32
     /tmp/cccICcq7.s:5732   .debug_str:0000000000000130 .LASF33
     /tmp/cccICcq7.s:505    .text:0000000000000354 .LFB14
     /tmp/cccICcq7.s:584    .text:0000000000000404 .LFE14
     /tmp/cccICcq7.s:5736   .debug_str:000000000000014e .LASF34
     /tmp/cccICcq7.s:5738   .debug_str:0000000000000153 .LASF35
     /tmp/cccICcq7.s:520    .text:0000000000000374 .LVL57
     /tmp/cccICcq7.s:524    .text:000000000000037c .LVL58
     /tmp/cccICcq7.s:543    .text:00000000000003a4 .LVL59
     /tmp/cccICcq7.s:550    .text:00000000000003bc .LVL60
     /tmp/cccICcq7.s:554    .text:00000000000003c4 .LVL61
     /tmp/cccICcq7.s:559    .text:00000000000003d0 .LVL62
     /tmp/cccICcq7.s:564    .text:00000000000003dc .LVL63
     /tmp/cccICcq7.s:569    .text:00000000000003ec .LVL64
     /tmp/cccICcq7.s:573    .text:00000000000003f4 .LVL65
     /tmp/cccICcq7.s:5844   .debug_str:00000000000004e4 .LASF36
     /tmp/cccICcq7.s:5820   .debug_str:0000000000000386 .LASF37
     /tmp/cccICcq7.s:317    .text:0000000000000208 .LFB13
     /tmp/cccICcq7.s:491    .text:0000000000000354 .LFE13
     /tmp/cccICcq7.s:5345   .debug_loc:0000000000000bc6 .LLST5
     /tmp/cccICcq7.s:5802   .debug_str:0000000000000301 .LASF38
     /tmp/cccICcq7.s:5370   .debug_loc:0000000000000c28 .LLST6
     /tmp/cccICcq7.s:335    .text:0000000000000224 .LBB21
     /tmp/cccICcq7.s:430    .text:00000000000002dc .LBE21
     /tmp/cccICcq7.s:5390   .debug_loc:0000000000000c85 .LLST7
GAS LISTING /tmp/cccICcq7.s 			page 61


     /tmp/cccICcq7.s:341    .text:000000000000022c .LBB22
     /tmp/cccICcq7.s:5406   .debug_loc:0000000000000ccf .LLST8
     /tmp/cccICcq7.s:5421   .debug_loc:0000000000000d09 .LLST9
     /tmp/cccICcq7.s:5436   .debug_loc:0000000000000d51 .LLST10
     /tmp/cccICcq7.s:348    .text:000000000000023c .LVL35
     /tmp/cccICcq7.s:353    .text:000000000000024c .LVL36
     /tmp/cccICcq7.s:358    .text:000000000000025c .LVL37
     /tmp/cccICcq7.s:363    .text:0000000000000268 .LVL38
     /tmp/cccICcq7.s:368    .text:0000000000000278 .LVL39
     /tmp/cccICcq7.s:372    .text:0000000000000280 .LVL40
     /tmp/cccICcq7.s:376    .text:0000000000000288 .LVL41
     /tmp/cccICcq7.s:434    .text:00000000000002e4 .LBB26
     /tmp/cccICcq7.s:5477   .debug_loc:0000000000000db3 .LLST11
     /tmp/cccICcq7.s:459    .text:0000000000000308 .LVL50
     /tmp/cccICcq7.s:464    .text:0000000000000318 .LVL51
     /tmp/cccICcq7.s:469    .text:0000000000000328 .LVL52
     /tmp/cccICcq7.s:474    .text:0000000000000334 .LVL53
     /tmp/cccICcq7.s:479    .text:0000000000000344 .LVL54
     /tmp/cccICcq7.s:483    .text:000000000000034c .LVL55
     /tmp/cccICcq7.s:487    .text:0000000000000354 .LVL56
     /tmp/cccICcq7.s:5766   .debug_str:00000000000001ff .LASF39
     /tmp/cccICcq7.s:5762   .debug_str:00000000000001e6 .LASF40
     /tmp/cccICcq7.s:197    .text:0000000000000134 .LFB12
     /tmp/cccICcq7.s:311    .text:0000000000000208 .LFE12
     /tmp/cccICcq7.s:5488   .debug_loc:0000000000000dda .LLST1
     /tmp/cccICcq7.s:5502   .debug_loc:0000000000000e13 .LLST2
     /tmp/cccICcq7.s:207    .text:0000000000000140 .LBB11
     /tmp/cccICcq7.s:251    .text:000000000000018c .LBE11
     /tmp/cccICcq7.s:5518   .debug_loc:0000000000000e5d .LLST3
     /tmp/cccICcq7.s:255    .text:0000000000000194 .LBB12
     /tmp/cccICcq7.s:5530   .debug_loc:0000000000000e94 .LLST4
     /tmp/cccICcq7.s:279    .text:00000000000001bc .LVL24
     /tmp/cccICcq7.s:284    .text:00000000000001cc .LVL25
     /tmp/cccICcq7.s:289    .text:00000000000001dc .LVL26
     /tmp/cccICcq7.s:294    .text:00000000000001e8 .LVL27
     /tmp/cccICcq7.s:299    .text:00000000000001f8 .LVL28
     /tmp/cccICcq7.s:303    .text:0000000000000200 .LVL29
     /tmp/cccICcq7.s:307    .text:0000000000000208 .LVL30
     /tmp/cccICcq7.s:5832   .debug_str:0000000000000497 .LASF41
     /tmp/cccICcq7.s:5756   .debug_str:00000000000001b0 .LASF42
     /tmp/cccICcq7.s:78     .text:0000000000000044 .LFB11
     /tmp/cccICcq7.s:191    .text:0000000000000134 .LFE11
     /tmp/cccICcq7.s:5796   .debug_str:00000000000002e0 .LASF43
     /tmp/cccICcq7.s:5772   .debug_str:000000000000022c .LASF44
     /tmp/cccICcq7.s:5788   .debug_str:00000000000002a4 .LASF45
     /tmp/cccICcq7.s:5752   .debug_str:0000000000000199 .LASF46
     /tmp/cccICcq7.s:132    .text:00000000000000c0 .LBB4
     /tmp/cccICcq7.s:5541   .debug_loc:0000000000000ebb .LLST0
     /tmp/cccICcq7.s:159    .text:00000000000000e8 .LVL8
     /tmp/cccICcq7.s:164    .text:00000000000000f8 .LVL9
     /tmp/cccICcq7.s:169    .text:0000000000000108 .LVL10
     /tmp/cccICcq7.s:174    .text:0000000000000114 .LVL11
     /tmp/cccICcq7.s:179    .text:0000000000000124 .LVL12
     /tmp/cccICcq7.s:183    .text:000000000000012c .LVL13
     /tmp/cccICcq7.s:187    .text:0000000000000134 .LVL14
     /tmp/cccICcq7.s:108    .text:0000000000000080 .LVL3
     /tmp/cccICcq7.s:116    .text:0000000000000098 .LVL4
GAS LISTING /tmp/cccICcq7.s 			page 62


     /tmp/cccICcq7.s:121    .text:00000000000000a4 .LVL5
     /tmp/cccICcq7.s:126    .text:00000000000000b0 .LVL6
     /tmp/cccICcq7.s:5754   .debug_str:00000000000001a5 .LASF47
     /tmp/cccICcq7.s:5840   .debug_str:00000000000004cd .LASF48
     /tmp/cccICcq7.s:15     .text:0000000000000000 .LFB10
     /tmp/cccICcq7.s:58     .text:0000000000000044 .LFE10
     /tmp/cccICcq7.s:38     .text:000000000000001c .LVL0
     /tmp/cccICcq7.s:43     .text:000000000000002c .LVL1
     /tmp/cccICcq7.s:47     .text:0000000000000034 .LVL2
     /tmp/cccICcq7.s:5806   .debug_str:0000000000000318 .LASF49
     /tmp/cccICcq7.s:5708   .debug_str:000000000000008e .LASF50
     /tmp/cccICcq7.s:5764   .debug_str:00000000000001f9 .LASF51
     /tmp/cccICcq7.s:5704   .debug_str:000000000000007b .LASF52
     /tmp/cccICcq7.s:5746   .debug_str:0000000000000182 .LASF53
     /tmp/cccICcq7.s:5706   .debug_str:0000000000000080 .LASF54
     /tmp/cccICcq7.s:5814   .debug_str:0000000000000353 .LASF56
     /tmp/cccICcq7.s:5698   .debug_str:000000000000004f .LASF55
     /tmp/cccICcq7.s:5690   .debug_str:0000000000000027 .LASF57
     /tmp/cccICcq7.s:5822   .debug_str:000000000000039a .LASF58
     /tmp/cccICcq7.s:5842   .debug_str:00000000000004dd .LASF59
     /tmp/cccICcq7.s:5818   .debug_str:0000000000000376 .LASF60
     /tmp/cccICcq7.s:5810   .debug_str:0000000000000336 .LASF61
     /tmp/cccICcq7.s:5798   .debug_str:00000000000002e9 .LASF62
     /tmp/cccICcq7.s:5750   .debug_str:000000000000018e .LASF63
     /tmp/cccICcq7.s:5790   .debug_str:00000000000002af .LASF64
     /tmp/cccICcq7.s:5716   .debug_str:00000000000000c9 .LASF65
     /tmp/cccICcq7.s:5804   .debug_str:000000000000030a .LASF66
     /tmp/cccICcq7.s:5776   .debug_str:0000000000000252 .LASF67
     /tmp/cccICcq7.s:5838   .debug_str:00000000000004c2 .LASF68
     /tmp/cccICcq7.s:5748   .debug_str:0000000000000187 .LASF69
     /tmp/cccICcq7.s:5724   .debug_str:00000000000000f4 .LASF70
     /tmp/cccICcq7.s:5702   .debug_str:000000000000006b .LASF71
     /tmp/cccICcq7.s:5780   .debug_str:000000000000026f .LASF72
     /tmp/cccICcq7.s:5734   .debug_str:0000000000000142 .LASF73
     /tmp/cccICcq7.s:5774   .debug_str:0000000000000235 .LASF74
     /tmp/cccICcq7.s:5712   .debug_str:00000000000000b4 .LASF75
     /tmp/cccICcq7.s:5744   .debug_str:0000000000000171 .LASF76
     /tmp/cccICcq7.s:5824   .debug_str:00000000000003a5 .LASF77
     /tmp/cccICcq7.s:1364   .text:00000000000009a0 .LVL185
     /tmp/cccICcq7.s:1369   .text:00000000000009a4 .LVL186
     /tmp/cccICcq7.s:1583   .text:0000000000000b28 .LVL222
     /tmp/cccICcq7.s:1587   .text:0000000000000b30 .LVL223
     /tmp/cccICcq7.s:1401   .text:00000000000009d8 .LVL190
     /tmp/cccICcq7.s:1415   .text:00000000000009f4 .LVL191
     /tmp/cccICcq7.s:1420   .text:00000000000009fc .LVL193
     /tmp/cccICcq7.s:1437   .text:0000000000000a0c .LVL196
     /tmp/cccICcq7.s:1463   .text:0000000000000a34 .LVL200
     /tmp/cccICcq7.s:1510   .text:0000000000000a98 .LVL208
     /tmp/cccICcq7.s:1562   .text:0000000000000b04 .LVL218
     /tmp/cccICcq7.s:1595   .text:0000000000000b38 .LVL224
     /tmp/cccICcq7.s:1389   .text:00000000000009cc .LVL188
     /tmp/cccICcq7.s:1391   .text:00000000000009d0 .LVL189
     /tmp/cccICcq7.s:1418   .text:00000000000009f8 .LVL192
     /tmp/cccICcq7.s:1425   .text:0000000000000a00 .LVL194
     /tmp/cccICcq7.s:1461   .text:0000000000000a30 .LVL199
     /tmp/cccICcq7.s:1578   .text:0000000000000b20 .LVL221
     /tmp/cccICcq7.s:1456   .text:0000000000000a2c .LVL198
GAS LISTING /tmp/cccICcq7.s 			page 63


     /tmp/cccICcq7.s:1427   .text:0000000000000a04 .LVL195
     /tmp/cccICcq7.s:1556   .text:0000000000000afc .LVL217
     /tmp/cccICcq7.s:1104   .text:00000000000007b8 .LVL140
     /tmp/cccICcq7.s:1114   .text:00000000000007c4 .LVL141
     /tmp/cccICcq7.s:1156   .text:00000000000007fc .LVL152
     /tmp/cccICcq7.s:1160   .text:0000000000000800 .LVL153
     /tmp/cccICcq7.s:1303   .text:0000000000000944 .LVL180
     /tmp/cccICcq7.s:1118   .text:00000000000007c8 .LVL142
     /tmp/cccICcq7.s:1153   .text:00000000000007f8 .LVL151
     /tmp/cccICcq7.s:1306   .text:0000000000000948 .LVL181
     /tmp/cccICcq7.s:1149   .text:00000000000007f4 .LVL150
     /tmp/cccICcq7.s:1296   .text:0000000000000938 .LVL179
     /tmp/cccICcq7.s:1125   .text:00000000000007d8 .LVL144
     /tmp/cccICcq7.s:1129   .text:00000000000007dc .LVL145
     /tmp/cccICcq7.s:1133   .text:00000000000007e8 .LVL147
     /tmp/cccICcq7.s:1166   .text:0000000000000808 .LVL154
     /tmp/cccICcq7.s:1243   .text:00000000000008c0 .LVL169
     /tmp/cccICcq7.s:1137   .text:00000000000007ec .LVL148
     /tmp/cccICcq7.s:1143   .text:00000000000007f0 .LVL149
     /tmp/cccICcq7.s:593    .text:0000000000000404 .LVL66
     /tmp/cccICcq7.s:612    .text:000000000000042c .LVL67
     /tmp/cccICcq7.s:629    .text:0000000000000448 .LVL68
     /tmp/cccICcq7.s:644    .text:0000000000000468 .LVL71
     /tmp/cccICcq7.s:854    .text:00000000000005ec .LVL105
     /tmp/cccICcq7.s:880    .text:0000000000000614 .LVL107
     /tmp/cccICcq7.s:909    .text:000000000000064c .LVL113
     /tmp/cccICcq7.s:917    .text:0000000000000654 .LVL114
     /tmp/cccICcq7.s:907    .text:0000000000000648 .LVL112
     /tmp/cccICcq7.s:898    .text:000000000000063c .LVL110
     /tmp/cccICcq7.s:957    .text:00000000000006b0 .LVL122
     /tmp/cccICcq7.s:870    .text:000000000000060c .LVL106
     /tmp/cccICcq7.s:656    .text:000000000000046c .LVL72
     /tmp/cccICcq7.s:682    .text:0000000000000494 .LVL74
     /tmp/cccICcq7.s:711    .text:00000000000004cc .LVL80
     /tmp/cccICcq7.s:719    .text:00000000000004d4 .LVL81
     /tmp/cccICcq7.s:709    .text:00000000000004c8 .LVL79
     /tmp/cccICcq7.s:700    .text:00000000000004bc .LVL77
     /tmp/cccICcq7.s:759    .text:0000000000000530 .LVL89
     /tmp/cccICcq7.s:672    .text:000000000000048c .LVL73
     /tmp/cccICcq7.s:320    .text:0000000000000208 .LVL31
     /tmp/cccICcq7.s:346    .text:0000000000000234 .LVL34
     /tmp/cccICcq7.s:457    .text:0000000000000300 .LVL49
     /tmp/cccICcq7.s:333    .text:0000000000000224 .LVL32
     /tmp/cccICcq7.s:339    .text:000000000000022c .LVL33
     /tmp/cccICcq7.s:407    .text:00000000000002b8 .LVL43
     /tmp/cccICcq7.s:425    .text:00000000000002d4 .LVL46
     /tmp/cccICcq7.s:427    .text:00000000000002d8 .LVL47
     /tmp/cccICcq7.s:433    .text:00000000000002e4 .LVL48
     /tmp/cccICcq7.s:413    .text:00000000000002c8 .LVL44
     /tmp/cccICcq7.s:419    .text:00000000000002cc .LVL45
     /tmp/cccICcq7.s:200    .text:0000000000000134 .LVL15
     /tmp/cccICcq7.s:277    .text:00000000000001b4 .LVL23
     /tmp/cccICcq7.s:205    .text:0000000000000140 .LVL16
     /tmp/cccICcq7.s:223    .text:0000000000000154 .LVL18
     /tmp/cccICcq7.s:230    .text:0000000000000168 .LVL19
     /tmp/cccICcq7.s:232    .text:000000000000016c .LVL20
     /tmp/cccICcq7.s:211    .text:0000000000000148 .LVL17
GAS LISTING /tmp/cccICcq7.s 			page 64


     /tmp/cccICcq7.s:254    .text:0000000000000194 .LVL22
     /tmp/cccICcq7.s:131    .text:00000000000000c0 .LVL7
     /tmp/cccICcq7.s:1649   .debug_info:0000000000000000 .Ldebug_info0
     /tmp/cccICcq7.s:138    .text:00000000000000c4 .LBE4
     /tmp/cccICcq7.s:153    .text:00000000000000d8 .LBB7
     /tmp/cccICcq7.s:189    .text:0000000000000134 .LBE7
     /tmp/cccICcq7.s:262    .text:000000000000019c .LBE12
     /tmp/cccICcq7.s:272    .text:00000000000001ac .LBB15
     /tmp/cccICcq7.s:309    .text:0000000000000208 .LBE15
     /tmp/cccICcq7.s:379    .text:0000000000000288 .LBE22
     /tmp/cccICcq7.s:414    .text:00000000000002c8 .LBB25
     /tmp/cccICcq7.s:421    .text:00000000000002cc .LBE25
     /tmp/cccICcq7.s:439    .text:00000000000002e8 .LBE26
     /tmp/cccICcq7.s:452    .text:00000000000002f8 .LBB29
     /tmp/cccICcq7.s:489    .text:0000000000000354 .LBE29
     /tmp/cccICcq7.s:678    .text:0000000000000490 .LBE37
     /tmp/cccICcq7.s:714    .text:00000000000004cc .LBB45
     /tmp/cccICcq7.s:752    .text:0000000000000528 .LBE45
     /tmp/cccICcq7.s:679    .text:0000000000000490 .LBB40
     /tmp/cccICcq7.s:713    .text:00000000000004cc .LBE40
     /tmp/cccICcq7.s:753    .text:0000000000000528 .LBB46
     /tmp/cccICcq7.s:793    .text:0000000000000584 .LBE46
     /tmp/cccICcq7.s:702    .text:00000000000004bc .LBE41
     /tmp/cccICcq7.s:754    .text:0000000000000528 .LBB44
     /tmp/cccICcq7.s:792    .text:0000000000000584 .LBE44
     /tmp/cccICcq7.s:876    .text:0000000000000610 .LBE56
     /tmp/cccICcq7.s:912    .text:000000000000064c .LBB64
     /tmp/cccICcq7.s:950    .text:00000000000006a8 .LBE64
     /tmp/cccICcq7.s:877    .text:0000000000000610 .LBB59
     /tmp/cccICcq7.s:911    .text:000000000000064c .LBE59
     /tmp/cccICcq7.s:951    .text:00000000000006a8 .LBB65
     /tmp/cccICcq7.s:991    .text:0000000000000704 .LBE65
     /tmp/cccICcq7.s:900    .text:000000000000063c .LBE60
     /tmp/cccICcq7.s:952    .text:00000000000006a8 .LBB63
     /tmp/cccICcq7.s:990    .text:0000000000000704 .LBE63
     /tmp/cccICcq7.s:1096   .text:00000000000007ac .LBB74
     /tmp/cccICcq7.s:1099   .text:00000000000007b0 .LBE74
     /tmp/cccICcq7.s:1106   .text:00000000000007b8 .LBB84
     /tmp/cccICcq7.s:1278   .text:0000000000000914 .LBE84
     /tmp/cccICcq7.s:1110   .text:00000000000007c0 .LBB75
     /tmp/cccICcq7.s:1146   .text:00000000000007f0 .LBE75
     /tmp/cccICcq7.s:1150   .text:00000000000007f4 .LBB82
     /tmp/cccICcq7.s:1157   .text:00000000000007fc .LBE82
     /tmp/cccICcq7.s:1162   .text:0000000000000800 .LBB83
     /tmp/cccICcq7.s:1277   .text:0000000000000914 .LBE83
     /tmp/cccICcq7.s:1145   .text:00000000000007f0 .LBE76
     /tmp/cccICcq7.s:1238   .text:00000000000008b8 .LBB81
     /tmp/cccICcq7.s:1276   .text:0000000000000914 .LBE81
     /tmp/cccICcq7.s:1394   .text:00000000000009d0 .LBB95
     /tmp/cccICcq7.s:1397   .text:00000000000009d4 .LBE95
     /tmp/cccICcq7.s:1402   .text:00000000000009d8 .LBB96
     /tmp/cccICcq7.s:1422   .text:00000000000009fc .LBE96
     /tmp/cccICcq7.s:1433   .text:0000000000000a08 .LBE97
     /tmp/cccICcq7.s:1466   .text:0000000000000a34 .LBB105
     /tmp/cccICcq7.s:1503   .text:0000000000000a90 .LBE105
     /tmp/cccICcq7.s:1434   .text:0000000000000a08 .LBB100
     /tmp/cccICcq7.s:1465   .text:0000000000000a34 .LBE100
GAS LISTING /tmp/cccICcq7.s 			page 65


     /tmp/cccICcq7.s:1504   .text:0000000000000a90 .LBB106
     /tmp/cccICcq7.s:1544   .text:0000000000000aec .LBE106
     /tmp/cccICcq7.s:1458   .text:0000000000000a2c .LBE101
     /tmp/cccICcq7.s:1505   .text:0000000000000a90 .LBB104
     /tmp/cccICcq7.s:1543   .text:0000000000000aec .LBE104
     /tmp/cccICcq7.s:1558   .text:0000000000000afc .LBE107
     /tmp/cccICcq7.s:1590   .text:0000000000000b30 .LBB110
     /tmp/cccICcq7.s:1627   .text:0000000000000b8c .LBE110

UNDEFINED SYMBOLS
_Z9putStringPKc
_Z10putNewlinev
_Z13thread_createPmPFvPvES0_
_Z11thread_joinm
_Z6putInti
_Z10stopKernelv
gTimer
_Z15thread_dispatchv
_Z9test_callm
_Z11thread_exitv
_Z6putU64m
_Z9mem_allocm
_Z8mem_freePv
