GAS LISTING /tmp/ccJoyKRG.s 			page 1


   1              		.file	"APP.cpp"
   2              		.option pic
   3              		.option norelax
   4              		.text
   5              	.Ltext0:
   6              		.section	.rodata.str1.8,"aMS",@progbits,1
   7              		.align	3
   8              	.LC0:
   9 0000 3D3D3D3D 		.string	"===================== ASSERT file: "
   9      3D3D3D3D 
   9      3D3D3D3D 
   9      3D3D3D3D 
   9      3D3D3D3D 
  10 0024 00000000 		.align	3
  11              	.LC1:
  12 0028 7372632F 		.string	"src/APP.cpp"
  12      4150502E 
  12      63707000 
  13 0034 00000000 		.align	3
  14              	.LC2:
  15 0038 20202020 		.string	"    line: "
  15      6C696E65 
  15      3A2000
  16 0043 00000000 		.align	3
  16      00
  17              	.LC3:
  18 0048 2020203D 		.string	"   ==========================="
  18      3D3D3D3D 
  18      3D3D3D3D 
  18      3D3D3D3D 
  18      3D3D3D3D 
  19              		.text
  20              		.align	2
  21              		.globl	_Z3fooPv
  23              	_Z3fooPv:
  24              	.LFB11:
  25              		.file 1 "src/APP.cpp"
   1:src/APP.cpp   **** #include "../h/my_console.h"
   2:src/APP.cpp   **** #include "../h/syscall_c.hpp"
   3:src/APP.cpp   **** #include "../h/alloc.h"
   4:src/APP.cpp   **** #include "../h/thread.h"
   5:src/APP.cpp   **** 
   6:src/APP.cpp   **** void testSystemCalls();
   7:src/APP.cpp   **** void testMemoryAllocator();
   8:src/APP.cpp   **** void testSyncCall();
   9:src/APP.cpp   **** void testTimeSlice();
  10:src/APP.cpp   **** uint64 fib(uint64);
  11:src/APP.cpp   **** extern uint64 gTimer;
  12:src/APP.cpp   **** 
  13:src/APP.cpp   **** void myUserMain()
  14:src/APP.cpp   **** {
  15:src/APP.cpp   **** //    __asm__ volatile ("csrw sscratch, x1"); // set spie bit to 1. spie signifies that we dont wan
  16:src/APP.cpp   **** 
  17:src/APP.cpp   ****     __asm__ volatile ("mv x10, x10");
  18:src/APP.cpp   **** 
  19:src/APP.cpp   ****     putString("=== App started");
  20:src/APP.cpp   ****     putNewline();
GAS LISTING /tmp/ccJoyKRG.s 			page 2


  21:src/APP.cpp   **** 
  22:src/APP.cpp   ****     testSystemCalls();
  23:src/APP.cpp   ****     testMemoryAllocator();
  24:src/APP.cpp   ****     testSyncCall();
  25:src/APP.cpp   ****     testTimeSlice();
  26:src/APP.cpp   **** 
  27:src/APP.cpp   ****     putString("=== App ended");
  28:src/APP.cpp   ****     putNewline();
  29:src/APP.cpp   **** }
  30:src/APP.cpp   **** 
  31:src/APP.cpp   **** void foo(void* f)
  32:src/APP.cpp   **** {
  26              		.loc 1 32 1
  27              		.cfi_startproc
  28              	.LVL0:
  33:src/APP.cpp   ****     for(int i=0; i<100000000; i++)
  29              		.loc 1 33 5
  30              	.LBB5:
  31              		.loc 1 33 13 is_stmt 0
  32 0000 13070000 		li	a4,0
  33              	.LVL1:
  34              	.L4:
  35              		.loc 1 33 19 is_stmt 1 discriminator 3
  36 0004 B7E7F505 		li	a5,99999744
  37 0008 9387F70F 		addi	a5,a5,255
  38 000c 63C2E708 		bgt	a4,a5,.L2
  34:src/APP.cpp   ****     {
  35:src/APP.cpp   ****         assert(*(uint64*)f == 69);
  39              		.loc 1 35 9 discriminator 2
  40 0010 83370500 		ld	a5,0(a0)
  41 0014 9387B7FB 		addi	a5,a5,-69
  42              	.LVL2:
  43              	.LBB6:
  44              	.LBB7:
  45              		.file 2 "src/../h/my_console.h"
   1:src/../h/my_console.h **** #pragma once
   2:src/../h/my_console.h **** 
   3:src/../h/my_console.h **** #include "../h/risc.h"
   4:src/../h/my_console.h **** 
   5:src/../h/my_console.h **** #include "../lib/hw.h"
   6:src/../h/my_console.h **** 
   7:src/../h/my_console.h **** #define __DEBUG_MODE
   8:src/../h/my_console.h **** 
   9:src/../h/my_console.h **** 
  10:src/../h/my_console.h **** void putString(const char* s);
  11:src/../h/my_console.h **** void putInt(int n);
  12:src/../h/my_console.h **** void putNewline();
  13:src/../h/my_console.h **** void putU64(uint64 n);
  14:src/../h/my_console.h **** void putBinary(uint64 n);
  15:src/../h/my_console.h **** 
  16:src/../h/my_console.h **** [[noreturn]] void stopKernel();
  17:src/../h/my_console.h **** 
  18:src/../h/my_console.h **** inline void _assert(bool valid, const char* file, int line) // MUST be inline
  19:src/../h/my_console.h **** {
  20:src/../h/my_console.h ****     if(valid)
  46              		.loc 2 20 5 discriminator 2
  47 0018 63960700 		bnez	a5,.L8
GAS LISTING /tmp/ccJoyKRG.s 			page 3


  21:src/../h/my_console.h ****         return;
  48              		.loc 2 21 9 discriminator 2
  49              	.LVL3:
  50              	.LBE7:
  51              	.LBE6:
  33:src/APP.cpp   ****     {
  52              		.loc 1 33 5 discriminator 2
  53 001c 1B071700 		addiw	a4,a4,1
  54              	.LVL4:
  55 0020 6FF05FFE 		j	.L4
  56              	.LVL5:
  57              	.L8:
  58              	.LBE5:
  32:src/APP.cpp   ****     for(int i=0; i<100000000; i++)
  59              		.loc 1 32 1 is_stmt 0
  60 0024 130101FF 		addi	sp,sp,-16
  61              		.cfi_def_cfa_offset 16
  62 0028 23341100 		sd	ra,8(sp)
  63 002c 23308100 		sd	s0,0(sp)
  64              		.cfi_offset 1, -8
  65              		.cfi_offset 8, -16
  66 0030 13040101 		addi	s0,sp,16
  67              		.cfi_def_cfa 8, 0
  68              	.LBB10:
  69              	.LBB9:
  70              	.LBB8:
  22:src/../h/my_console.h **** 
  23:src/../h/my_console.h ****     putString("===================== ASSERT file: ");
  71              		.loc 2 23 5 is_stmt 1
  72              		.loc 2 23 14 is_stmt 0
  73 0034 17050000 		lla	a0,.LC0
  73      13050500 
  74              	.LVL6:
  75 003c 97000000 		call	_Z9putStringPKc@plt
  75      E7800000 
  76              	.LVL7:
  24:src/../h/my_console.h ****     putString(file);
  77              		.loc 2 24 5 is_stmt 1
  78              		.loc 2 24 14 is_stmt 0
  79 0044 17050000 		lla	a0,.LC1
  79      13050500 
  80 004c 97000000 		call	_Z9putStringPKc@plt
  80      E7800000 
  81              	.LVL8:
  25:src/../h/my_console.h ****     putString("    line: ");
  82              		.loc 2 25 5 is_stmt 1
  83              		.loc 2 25 14 is_stmt 0
  84 0054 17050000 		lla	a0,.LC2
  84      13050500 
  85 005c 97000000 		call	_Z9putStringPKc@plt
  85      E7800000 
  86              	.LVL9:
  26:src/../h/my_console.h ****     putInt(line);
  87              		.loc 2 26 5 is_stmt 1
  88              		.loc 2 26 11 is_stmt 0
  89 0064 13053002 		li	a0,35
  90 0068 97000000 		call	_Z6putInti@plt
GAS LISTING /tmp/ccJoyKRG.s 			page 4


  90      E7800000 
  91              	.LVL10:
  27:src/../h/my_console.h ****     putString("   ===========================");
  92              		.loc 2 27 5 is_stmt 1
  93              		.loc 2 27 14 is_stmt 0
  94 0070 17050000 		lla	a0,.LC3
  94      13050500 
  95 0078 97000000 		call	_Z9putStringPKc@plt
  95      E7800000 
  96              	.LVL11:
  28:src/../h/my_console.h ****     putNewline();
  97              		.loc 2 28 5 is_stmt 1
  98              		.loc 2 28 15 is_stmt 0
  99 0080 97000000 		call	_Z10putNewlinev@plt
  99      E7800000 
 100              	.LVL12:
  29:src/../h/my_console.h **** 
  30:src/../h/my_console.h ****     stopKernel();
 101              		.loc 2 30 5 is_stmt 1
 102              		.loc 2 30 15 is_stmt 0
 103 0088 97000000 		call	_Z10stopKernelv@plt
 103      E7800000 
 104              	.LVL13:
 105              	.L2:
 106              		.cfi_def_cfa_register 2
 107              		.cfi_restore 1
 108              		.cfi_restore 8
 109              	.LBE8:
 110              	.LBE9:
 111              	.LBE10:
  36:src/APP.cpp   ****     }
  37:src/APP.cpp   **** 
  38:src/APP.cpp   ****     __asm__ volatile ("mv x10, x10");
 112              		.loc 1 38 5 is_stmt 1
 113              		.loc 1 38 37 is_stmt 0
 114              	#APP
 115              	# 38 "src/APP.cpp" 1
  39              	}
 116              		mv x10, x10
 117              	# 0 "" 2
 118              	#NO_APP
 119 0094 67800000 		ret
 120              		.cfi_endproc
 121              	.LFE11:
 123              		.align	2
 124              		.globl	_Z3barPv
 126              	_Z3barPv:
 127              	.LFB12:
  40:src/APP.cpp   **** 
  41:src/APP.cpp   **** void bar(void* f)
  42:src/APP.cpp   **** {
 128              		.loc 1 42 1 is_stmt 1
 129              		.cfi_startproc
 130              	.LVL14:
  43:src/APP.cpp   ****     for(int i=0; i<1000000;i++)
 131              		.loc 1 43 5
 132              	.LBB14:
GAS LISTING /tmp/ccJoyKRG.s 			page 5


 133              		.loc 1 43 13 is_stmt 0
 134 0098 13070000 		li	a4,0
 135              	.LVL15:
 136              	.L12:
 137              		.loc 1 43 19 is_stmt 1 discriminator 3
 138 009c B7470F00 		li	a5,999424
 139 00a0 9387F723 		addi	a5,a5,575
 140 00a4 63C2E708 		bgt	a4,a5,.L10
  44:src/APP.cpp   ****     {
  45:src/APP.cpp   ****         assert(*(uint64*)f == 420);
 141              		.loc 1 45 9 discriminator 2
 142 00a8 83370500 		ld	a5,0(a0)
 143 00ac 9387C7E5 		addi	a5,a5,-420
 144              	.LVL16:
 145              	.LBB15:
 146              	.LBB16:
  20:src/../h/my_console.h ****         return;
 147              		.loc 2 20 5 discriminator 2
 148 00b0 63960700 		bnez	a5,.L16
  21:src/../h/my_console.h **** 
 149              		.loc 2 21 9 discriminator 2
 150              	.LVL17:
 151              	.LBE16:
 152              	.LBE15:
  43:src/APP.cpp   ****     {
 153              		.loc 1 43 5 discriminator 2
 154 00b4 1B071700 		addiw	a4,a4,1
 155              	.LVL18:
 156 00b8 6FF05FFE 		j	.L12
 157              	.LVL19:
 158              	.L16:
 159              	.LBE14:
  42:src/APP.cpp   ****     for(int i=0; i<1000000;i++)
 160              		.loc 1 42 1 is_stmt 0
 161 00bc 130101FF 		addi	sp,sp,-16
 162              		.cfi_def_cfa_offset 16
 163 00c0 23341100 		sd	ra,8(sp)
 164 00c4 23308100 		sd	s0,0(sp)
 165              		.cfi_offset 1, -8
 166              		.cfi_offset 8, -16
 167 00c8 13040101 		addi	s0,sp,16
 168              		.cfi_def_cfa 8, 0
 169              	.LBB19:
 170              	.LBB18:
 171              	.LBB17:
  23:src/../h/my_console.h ****     putString(file);
 172              		.loc 2 23 5 is_stmt 1
  23:src/../h/my_console.h ****     putString(file);
 173              		.loc 2 23 14 is_stmt 0
 174 00cc 17050000 		lla	a0,.LC0
 174      13050500 
 175              	.LVL20:
 176 00d4 97000000 		call	_Z9putStringPKc@plt
 176      E7800000 
 177              	.LVL21:
  24:src/../h/my_console.h ****     putString("    line: ");
 178              		.loc 2 24 5 is_stmt 1
GAS LISTING /tmp/ccJoyKRG.s 			page 6


  24:src/../h/my_console.h ****     putString("    line: ");
 179              		.loc 2 24 14 is_stmt 0
 180 00dc 17050000 		lla	a0,.LC1
 180      13050500 
 181 00e4 97000000 		call	_Z9putStringPKc@plt
 181      E7800000 
 182              	.LVL22:
  25:src/../h/my_console.h ****     putInt(line);
 183              		.loc 2 25 5 is_stmt 1
  25:src/../h/my_console.h ****     putInt(line);
 184              		.loc 2 25 14 is_stmt 0
 185 00ec 17050000 		lla	a0,.LC2
 185      13050500 
 186 00f4 97000000 		call	_Z9putStringPKc@plt
 186      E7800000 
 187              	.LVL23:
  26:src/../h/my_console.h ****     putString("   ===========================");
 188              		.loc 2 26 5 is_stmt 1
  26:src/../h/my_console.h ****     putString("   ===========================");
 189              		.loc 2 26 11 is_stmt 0
 190 00fc 1305D002 		li	a0,45
 191 0100 97000000 		call	_Z6putInti@plt
 191      E7800000 
 192              	.LVL24:
  27:src/../h/my_console.h ****     putNewline();
 193              		.loc 2 27 5 is_stmt 1
  27:src/../h/my_console.h ****     putNewline();
 194              		.loc 2 27 14 is_stmt 0
 195 0108 17050000 		lla	a0,.LC3
 195      13050500 
 196 0110 97000000 		call	_Z9putStringPKc@plt
 196      E7800000 
 197              	.LVL25:
  28:src/../h/my_console.h **** 
 198              		.loc 2 28 5 is_stmt 1
  28:src/../h/my_console.h **** 
 199              		.loc 2 28 15 is_stmt 0
 200 0118 97000000 		call	_Z10putNewlinev@plt
 200      E7800000 
 201              	.LVL26:
 202              		.loc 2 30 5 is_stmt 1
 203              		.loc 2 30 15 is_stmt 0
 204 0120 97000000 		call	_Z10stopKernelv@plt
 204      E7800000 
 205              	.LVL27:
 206              	.L10:
 207              		.cfi_def_cfa_register 2
 208              		.cfi_restore 1
 209              		.cfi_restore 8
 210              	.LBE17:
 211              	.LBE18:
 212              	.LBE19:
  46:src/APP.cpp   ****     }
  47:src/APP.cpp   **** 
  48:src/APP.cpp   ****     __asm__ volatile ("mv x10, x10");
 213              		.loc 1 48 5 is_stmt 1
 214              		.loc 1 48 37 is_stmt 0
GAS LISTING /tmp/ccJoyKRG.s 			page 7


 215              	#APP
 216              	# 48 "src/APP.cpp" 1
  49              	}
 217              		mv x10, x10
 218              	# 0 "" 2
 219              	#NO_APP
 220 012c 67800000 		ret
 221              		.cfi_endproc
 222              	.LFE12:
 224              		.section	.rodata.str1.8
 225 0067 00       		.align	3
 226              	.LC4:
 227 0068 3D3D3D20 		.string	"=== Testing \"testTimeSlice\""
 227      54657374 
 227      696E6720 
 227      22746573 
 227      7454696D 
 228 0084 00000000 		.align	3
 229              	.LC5:
 230 0088 3D3D3D20 		.string	"=== PASS in testing \"testTimeSlice\""
 230      50415353 
 230      20696E20 
 230      74657374 
 230      696E6720 
 231              		.text
 232              		.align	2
 233              		.globl	_Z13testTimeSlicev
 235              	_Z13testTimeSlicev:
 236              	.LFB13:
  50:src/APP.cpp   **** 
  51:src/APP.cpp   **** int sliceFirstCounter = 0;
  52:src/APP.cpp   **** int sliceSecondCounter = 0;
  53:src/APP.cpp   **** 
  54:src/APP.cpp   **** void testTimeSlice()
  55:src/APP.cpp   **** {
 237              		.loc 1 55 1 is_stmt 1
 238              		.cfi_startproc
 239 0130 130101FC 		addi	sp,sp,-64
 240              		.cfi_def_cfa_offset 64
 241 0134 233C1102 		sd	ra,56(sp)
 242 0138 23388102 		sd	s0,48(sp)
 243 013c 23349102 		sd	s1,40(sp)
 244              		.cfi_offset 1, -8
 245              		.cfi_offset 8, -16
 246              		.cfi_offset 9, -24
 247 0140 13040104 		addi	s0,sp,64
 248              		.cfi_def_cfa 8, 0
  56:src/APP.cpp   ****     putString("=== Testing \"testTimeSlice\"");
 249              		.loc 1 56 5
 250              		.loc 1 56 14 is_stmt 0
 251 0144 17050000 		lla	a0,.LC4
 251      13050500 
 252 014c 97000000 		call	_Z9putStringPKc@plt
 252      E7800000 
 253              	.LVL28:
  57:src/APP.cpp   ****     putNewline();
 254              		.loc 1 57 5 is_stmt 1
GAS LISTING /tmp/ccJoyKRG.s 			page 8


 255              		.loc 1 57 15 is_stmt 0
 256 0154 97000000 		call	_Z10putNewlinev@plt
 256      E7800000 
 257              	.LVL29:
  58:src/APP.cpp   **** 
  59:src/APP.cpp   ****     void doP(void*);
 258              		.loc 1 59 5 is_stmt 1
  60:src/APP.cpp   ****     void doQ(void*);
 259              		.loc 1 60 5
  61:src/APP.cpp   **** 
  62:src/APP.cpp   ****     uint64 n = 150000000;
 260              		.loc 1 62 5
 261              		.loc 1 62 12 is_stmt 0
 262 015c B7D7F008 		li	a5,149999616
 263 0160 93870718 		addi	a5,a5,384
 264 0164 233CF4FC 		sd	a5,-40(s0)
  63:src/APP.cpp   **** 
  64:src/APP.cpp   ****     void doSliceFirst(void*);
 265              		.loc 1 64 5 is_stmt 1
  65:src/APP.cpp   ****     void doSliceSecond(void*);
 266              		.loc 1 65 5
  66:src/APP.cpp   **** 
  67:src/APP.cpp   ****     thread_t sliceFirst;
 267              		.loc 1 67 5
  68:src/APP.cpp   ****     thread_create(&sliceFirst, &doSliceFirst, &n);
 268              		.loc 1 68 5
 269              		.loc 1 68 18 is_stmt 0
 270 0168 930484FD 		addi	s1,s0,-40
 271 016c 13860400 		mv	a2,s1
 272 0170 97050000 		la	a1,_Z12doSliceFirstPv
 272      83B50500 
 273 0178 130504FD 		addi	a0,s0,-48
 274 017c 97000000 		call	_Z13thread_createPmPFvPvES0_@plt
 274      E7800000 
 275              	.LVL30:
  69:src/APP.cpp   **** 
  70:src/APP.cpp   ****     thread_t sliceSecond;
 276              		.loc 1 70 5 is_stmt 1
  71:src/APP.cpp   ****     thread_create(&sliceSecond, &doSliceSecond, &n);
 277              		.loc 1 71 5
 278              		.loc 1 71 18 is_stmt 0
 279 0184 13860400 		mv	a2,s1
 280 0188 97050000 		la	a1,_Z13doSliceSecondPv
 280      83B50500 
 281 0190 130584FC 		addi	a0,s0,-56
 282 0194 97000000 		call	_Z13thread_createPmPFvPvES0_@plt
 282      E7800000 
 283              	.LVL31:
  72:src/APP.cpp   **** 
  73:src/APP.cpp   ****     thread_join(sliceFirst);
 284              		.loc 1 73 5 is_stmt 1
 285              		.loc 1 73 16 is_stmt 0
 286 019c 033504FD 		ld	a0,-48(s0)
 287 01a0 97000000 		call	_Z11thread_joinm@plt
 287      E7800000 
 288              	.LVL32:
  74:src/APP.cpp   ****     thread_join(sliceSecond);
GAS LISTING /tmp/ccJoyKRG.s 			page 9


 289              		.loc 1 74 5 is_stmt 1
 290              		.loc 1 74 16 is_stmt 0
 291 01a8 033584FC 		ld	a0,-56(s0)
 292 01ac 97000000 		call	_Z11thread_joinm@plt
 292      E7800000 
 293              	.LVL33:
  75:src/APP.cpp   **** 
  76:src/APP.cpp   ****     int dif = (sliceFirstCounter - sliceSecondCounter);
 294              		.loc 1 76 5 is_stmt 1
 295              		.loc 1 76 34 is_stmt 0
 296 01b4 17070000 		lla	a4,.LANCHOR0
 296      13070700 
 297 01bc 83270700 		lw	a5,0(a4)
 298 01c0 83264700 		lw	a3,4(a4)
 299              		.loc 1 76 9
 300 01c4 3B87D740 		subw	a4,a5,a3
 301              	.LVL34:
  77:src/APP.cpp   ****     if(dif < 0) // dif = abs(dif);
 302              		.loc 1 77 5 is_stmt 1
 303 01c8 63400704 		bltz	a4,.L21
 304              	.LVL35:
 305              	.L18:
  78:src/APP.cpp   ****         dif = -dif;
  79:src/APP.cpp   **** 
  80:src/APP.cpp   ****     assert(dif < sliceFirstCounter * 8/10); // WARNING: not 100% check, depends on "n" and many oth
 306              		.loc 1 80 5
 307 01cc 9B973700 		slliw	a5,a5,3
 308 01d0 9306A000 		li	a3,10
 309 01d4 BBC7D702 		divw	a5,a5,a3
 310              	.LVL36:
 311              	.LBB22:
 312              	.LBB23:
  20:src/../h/my_console.h ****         return;
 313              		.loc 2 20 5
 314 01d8 635CF702 		ble	a5,a4,.L22
  21:src/../h/my_console.h **** 
 315              		.loc 2 21 9
 316              	.LVL37:
 317              	.LBE23:
 318              	.LBE22:
  81:src/APP.cpp   **** 
  82:src/APP.cpp   ****     putString("=== PASS in testing \"testTimeSlice\"");
 319              		.loc 1 82 5
 320              		.loc 1 82 14 is_stmt 0
 321 01dc 17050000 		lla	a0,.LC5
 321      13050500 
 322 01e4 97000000 		call	_Z9putStringPKc@plt
 322      E7800000 
 323              	.LVL38:
  83:src/APP.cpp   ****     putNewline();
 324              		.loc 1 83 5 is_stmt 1
 325              		.loc 1 83 15 is_stmt 0
 326 01ec 97000000 		call	_Z10putNewlinev@plt
 326      E7800000 
 327              	.LVL39:
  84:src/APP.cpp   **** }
 328              		.loc 1 84 1
GAS LISTING /tmp/ccJoyKRG.s 			page 10


 329 01f4 83308103 		ld	ra,56(sp)
 330              		.cfi_remember_state
 331              		.cfi_restore 1
 332 01f8 03340103 		ld	s0,48(sp)
 333              		.cfi_restore 8
 334              		.cfi_def_cfa 2, 64
 335 01fc 83348102 		ld	s1,40(sp)
 336              		.cfi_restore 9
 337 0200 13010104 		addi	sp,sp,64
 338              		.cfi_def_cfa_offset 0
 339 0204 67800000 		jr	ra
 340              	.LVL40:
 341              	.L21:
 342              		.cfi_restore_state
  78:src/APP.cpp   **** 
 343              		.loc 1 78 9 is_stmt 1
  78:src/APP.cpp   **** 
 344              		.loc 1 78 13 is_stmt 0
 345 0208 3B87F640 		subw	a4,a3,a5
 346              	.LVL41:
 347 020c 6FF01FFC 		j	.L18
 348              	.LVL42:
 349              	.L22:
 350              	.LBB25:
 351              	.LBB24:
  23:src/../h/my_console.h ****     putString(file);
 352              		.loc 2 23 5 is_stmt 1
  23:src/../h/my_console.h ****     putString(file);
 353              		.loc 2 23 14 is_stmt 0
 354 0210 17050000 		lla	a0,.LC0
 354      13050500 
 355 0218 97000000 		call	_Z9putStringPKc@plt
 355      E7800000 
 356              	.LVL43:
  24:src/../h/my_console.h ****     putString("    line: ");
 357              		.loc 2 24 5 is_stmt 1
  24:src/../h/my_console.h ****     putString("    line: ");
 358              		.loc 2 24 14 is_stmt 0
 359 0220 17050000 		lla	a0,.LC1
 359      13050500 
 360 0228 97000000 		call	_Z9putStringPKc@plt
 360      E7800000 
 361              	.LVL44:
  25:src/../h/my_console.h ****     putInt(line);
 362              		.loc 2 25 5 is_stmt 1
  25:src/../h/my_console.h ****     putInt(line);
 363              		.loc 2 25 14 is_stmt 0
 364 0230 17050000 		lla	a0,.LC2
 364      13050500 
 365 0238 97000000 		call	_Z9putStringPKc@plt
 365      E7800000 
 366              	.LVL45:
  26:src/../h/my_console.h ****     putString("   ===========================");
 367              		.loc 2 26 5 is_stmt 1
  26:src/../h/my_console.h ****     putString("   ===========================");
 368              		.loc 2 26 11 is_stmt 0
 369 0240 13050005 		li	a0,80
GAS LISTING /tmp/ccJoyKRG.s 			page 11


 370 0244 97000000 		call	_Z6putInti@plt
 370      E7800000 
 371              	.LVL46:
  27:src/../h/my_console.h ****     putNewline();
 372              		.loc 2 27 5 is_stmt 1
  27:src/../h/my_console.h ****     putNewline();
 373              		.loc 2 27 14 is_stmt 0
 374 024c 17050000 		lla	a0,.LC3
 374      13050500 
 375 0254 97000000 		call	_Z9putStringPKc@plt
 375      E7800000 
 376              	.LVL47:
  28:src/../h/my_console.h **** 
 377              		.loc 2 28 5 is_stmt 1
  28:src/../h/my_console.h **** 
 378              		.loc 2 28 15 is_stmt 0
 379 025c 97000000 		call	_Z10putNewlinev@plt
 379      E7800000 
 380              	.LVL48:
 381              		.loc 2 30 5 is_stmt 1
 382              		.loc 2 30 15 is_stmt 0
 383 0264 97000000 		call	_Z10stopKernelv@plt
 383      E7800000 
 384              	.LVL49:
 385              	.LBE24:
 386              	.LBE25:
 387              		.cfi_endproc
 388              	.LFE13:
 390              		.align	2
 391              		.globl	_Z12doSliceFirstPv
 393              	_Z12doSliceFirstPv:
 394              	.LFB14:
  85:src/APP.cpp   **** 
  86:src/APP.cpp   **** 
  87:src/APP.cpp   **** void doSliceFirst(void* n)
  88:src/APP.cpp   **** {
 395              		.loc 1 88 1 is_stmt 1
 396              		.cfi_startproc
 397              	.LVL50:
  89:src/APP.cpp   ****     uint64 oldTimer = gTimer;
 398              		.loc 1 89 5
 399              		.loc 1 89 12 is_stmt 0
 400 026c 97070000 		la	a5,gTimer
 400      83B70700 
 401 0274 83B60700 		ld	a3,0(a5)
 402              	.LVL51:
  90:src/APP.cpp   ****     for(uint64 i=0; i<(*((uint64*)n)); i++)
 403              		.loc 1 90 5 is_stmt 1
 404              	.LBB29:
 405              		.loc 1 90 16 is_stmt 0
 406 0278 93070000 		li	a5,0
 407 027c 6F00C002 		j	.L26
 408              	.LVL52:
 409              	.L31:
  91:src/APP.cpp   ****     {
  92:src/APP.cpp   ****         if(oldTimer != gTimer)
  93:src/APP.cpp   ****         {
GAS LISTING /tmp/ccJoyKRG.s 			page 12


  94:src/APP.cpp   ****             __asm__ volatile("mv x10, x10");
 410              		.loc 1 94 13 is_stmt 1
 411              		.loc 1 94 44 is_stmt 0
 412              	#APP
 413              	# 94 "src/APP.cpp" 1
  95              	
  96:src/APP.cpp   ****             sliceFirstCounter++;
 414              		mv x10, x10
 415              	# 0 "" 2
 416              		.loc 1 96 13 is_stmt 1
 417              		.loc 1 96 30 is_stmt 0
 418              	#NO_APP
 419 0284 97060000 		lla	a3,.LANCHOR0
 419      93860600 
 420              	.LVL53:
 421 028c 03A70600 		lw	a4,0(a3)
 422 0290 1B071700 		addiw	a4,a4,1
 423 0294 23A0E600 		sw	a4,0(a3)
  97:src/APP.cpp   ****             oldTimer = gTimer;
 424              		.loc 1 97 13 is_stmt 1
 425              		.loc 1 97 22 is_stmt 0
 426 0298 17070000 		la	a4,gTimer
 426      03370700 
 427              	.LVL54:
 428 02a0 83360700 		ld	a3,0(a4)
 429              	.LVL55:
 430              	.L25:
  90:src/APP.cpp   ****     {
 431              		.loc 1 90 5 is_stmt 1 discriminator 2
 432 02a4 93871700 		addi	a5,a5,1
 433              	.LVL56:
 434              	.L26:
  90:src/APP.cpp   ****     {
 435              		.loc 1 90 22 discriminator 1
  90:src/APP.cpp   ****     {
 436              		.loc 1 90 24 is_stmt 0 discriminator 1
 437 02a8 03370500 		ld	a4,0(a0)
  90:src/APP.cpp   ****     {
 438              		.loc 1 90 22 discriminator 1
 439 02ac 63FCE700 		bleu	a4,a5,.L24
  92:src/APP.cpp   ****         {
 440              		.loc 1 92 9 is_stmt 1
  92:src/APP.cpp   ****         {
 441              		.loc 1 92 21 is_stmt 0
 442 02b0 17070000 		la	a4,gTimer
 442      03370700 
 443 02b8 03370700 		ld	a4,0(a4)
  92:src/APP.cpp   ****         {
 444              		.loc 1 92 9
 445 02bc E312D7FC 		bne	a4,a3,.L31
 446 02c0 6FF05FFE 		j	.L25
 447              	.L24:
 448              	.LBE29:
  98:src/APP.cpp   ****         }
  99:src/APP.cpp   ****     }
 100:src/APP.cpp   ****     assert(sliceFirstCounter > 0); // "n" in test too small probably
 449              		.loc 1 100 5 is_stmt 1
GAS LISTING /tmp/ccJoyKRG.s 			page 13


 450 02c4 97070000 		lw	a5,.LANCHOR0
 450      83A70700 
 451              	.LVL57:
 452              	.LBB30:
 453              	.LBB31:
  20:src/../h/my_console.h ****         return;
 454              		.loc 2 20 5
 455 02cc 6354F000 		blez	a5,.L32
 456 02d0 67800000 		ret
 457              	.L32:
 458              	.LBE31:
 459              	.LBE30:
  88:src/APP.cpp   ****     uint64 oldTimer = gTimer;
 460              		.loc 1 88 1 is_stmt 0
 461 02d4 130101FF 		addi	sp,sp,-16
 462              		.cfi_def_cfa_offset 16
 463 02d8 23341100 		sd	ra,8(sp)
 464 02dc 23308100 		sd	s0,0(sp)
 465              		.cfi_offset 1, -8
 466              		.cfi_offset 8, -16
 467 02e0 13040101 		addi	s0,sp,16
 468              		.cfi_def_cfa 8, 0
 469              	.LBB33:
 470              	.LBB32:
  23:src/../h/my_console.h ****     putString(file);
 471              		.loc 2 23 5 is_stmt 1
  23:src/../h/my_console.h ****     putString(file);
 472              		.loc 2 23 14 is_stmt 0
 473 02e4 17050000 		lla	a0,.LC0
 473      13050500 
 474              	.LVL58:
 475 02ec 97000000 		call	_Z9putStringPKc@plt
 475      E7800000 
 476              	.LVL59:
  24:src/../h/my_console.h ****     putString("    line: ");
 477              		.loc 2 24 5 is_stmt 1
  24:src/../h/my_console.h ****     putString("    line: ");
 478              		.loc 2 24 14 is_stmt 0
 479 02f4 17050000 		lla	a0,.LC1
 479      13050500 
 480 02fc 97000000 		call	_Z9putStringPKc@plt
 480      E7800000 
 481              	.LVL60:
  25:src/../h/my_console.h ****     putInt(line);
 482              		.loc 2 25 5 is_stmt 1
  25:src/../h/my_console.h ****     putInt(line);
 483              		.loc 2 25 14 is_stmt 0
 484 0304 17050000 		lla	a0,.LC2
 484      13050500 
 485 030c 97000000 		call	_Z9putStringPKc@plt
 485      E7800000 
 486              	.LVL61:
  26:src/../h/my_console.h ****     putString("   ===========================");
 487              		.loc 2 26 5 is_stmt 1
  26:src/../h/my_console.h ****     putString("   ===========================");
 488              		.loc 2 26 11 is_stmt 0
 489 0314 13054006 		li	a0,100
GAS LISTING /tmp/ccJoyKRG.s 			page 14


 490 0318 97000000 		call	_Z6putInti@plt
 490      E7800000 
 491              	.LVL62:
  27:src/../h/my_console.h ****     putNewline();
 492              		.loc 2 27 5 is_stmt 1
  27:src/../h/my_console.h ****     putNewline();
 493              		.loc 2 27 14 is_stmt 0
 494 0320 17050000 		lla	a0,.LC3
 494      13050500 
 495 0328 97000000 		call	_Z9putStringPKc@plt
 495      E7800000 
 496              	.LVL63:
  28:src/../h/my_console.h **** 
 497              		.loc 2 28 5 is_stmt 1
  28:src/../h/my_console.h **** 
 498              		.loc 2 28 15 is_stmt 0
 499 0330 97000000 		call	_Z10putNewlinev@plt
 499      E7800000 
 500              	.LVL64:
 501              		.loc 2 30 5 is_stmt 1
 502              		.loc 2 30 15 is_stmt 0
 503 0338 97000000 		call	_Z10stopKernelv@plt
 503      E7800000 
 504              	.LVL65:
 505              	.LBE32:
 506              	.LBE33:
 507              		.cfi_endproc
 508              	.LFE14:
 510              		.align	2
 511              		.globl	_Z13doSliceSecondPv
 513              	_Z13doSliceSecondPv:
 514              	.LFB15:
 101:src/APP.cpp   **** }
 102:src/APP.cpp   **** 
 103:src/APP.cpp   **** void doSliceSecond(void* n)
 104:src/APP.cpp   **** {
 515              		.loc 1 104 1 is_stmt 1
 516              		.cfi_startproc
 517              	.LVL66:
 518 0340 130101FF 		addi	sp,sp,-16
 519              		.cfi_def_cfa_offset 16
 520 0344 23341100 		sd	ra,8(sp)
 521 0348 23308100 		sd	s0,0(sp)
 522              		.cfi_offset 1, -8
 523              		.cfi_offset 8, -16
 524 034c 13040101 		addi	s0,sp,16
 525              		.cfi_def_cfa 8, 0
 105:src/APP.cpp   ****     uint64 newN = *(uint64*)n;
 526              		.loc 1 105 5
 527              		.loc 1 105 12 is_stmt 0
 528 0350 03360500 		ld	a2,0(a0)
 529              	.LVL67:
 106:src/APP.cpp   **** 
 107:src/APP.cpp   ****     uint64 oldTimer = gTimer;
 530              		.loc 1 107 5 is_stmt 1
 531              		.loc 1 107 12 is_stmt 0
 532 0354 97070000 		la	a5,gTimer
GAS LISTING /tmp/ccJoyKRG.s 			page 15


 532      83B70700 
 533 035c 83B60700 		ld	a3,0(a5)
 534              	.LVL68:
 108:src/APP.cpp   ****     for(uint64 i=0; i<newN; i++)
 535              		.loc 1 108 5 is_stmt 1
 536              	.LBB41:
 537              		.loc 1 108 16 is_stmt 0
 538 0360 93070000 		li	a5,0
 539 0364 6F00400C 		j	.L38
 540              	.LVL69:
 541              	.L41:
 542              	.LBB42:
 543              	.LBB43:
  23:src/../h/my_console.h ****     putString(file);
 544              		.loc 2 23 5 is_stmt 1
  23:src/../h/my_console.h ****     putString(file);
 545              		.loc 2 23 14 is_stmt 0
 546 0368 17050000 		lla	a0,.LC0
 546      13050500 
 547              	.LVL70:
 548 0370 97000000 		call	_Z9putStringPKc@plt
 548      E7800000 
 549              	.LVL71:
  24:src/../h/my_console.h ****     putString("    line: ");
 550              		.loc 2 24 5 is_stmt 1
  24:src/../h/my_console.h ****     putString("    line: ");
 551              		.loc 2 24 14 is_stmt 0
 552 0378 17050000 		lla	a0,.LC1
 552      13050500 
 553 0380 97000000 		call	_Z9putStringPKc@plt
 553      E7800000 
 554              	.LVL72:
  25:src/../h/my_console.h ****     putInt(line);
 555              		.loc 2 25 5 is_stmt 1
  25:src/../h/my_console.h ****     putInt(line);
 556              		.loc 2 25 14 is_stmt 0
 557 0388 17050000 		lla	a0,.LC2
 557      13050500 
 558 0390 97000000 		call	_Z9putStringPKc@plt
 558      E7800000 
 559              	.LVL73:
  26:src/../h/my_console.h ****     putString("   ===========================");
 560              		.loc 2 26 5 is_stmt 1
  26:src/../h/my_console.h ****     putString("   ===========================");
 561              		.loc 2 26 11 is_stmt 0
 562 0398 1305F006 		li	a0,111
 563 039c 97000000 		call	_Z6putInti@plt
 563      E7800000 
 564              	.LVL74:
  27:src/../h/my_console.h ****     putNewline();
 565              		.loc 2 27 5 is_stmt 1
  27:src/../h/my_console.h ****     putNewline();
 566              		.loc 2 27 14 is_stmt 0
 567 03a4 17050000 		lla	a0,.LC3
 567      13050500 
 568 03ac 97000000 		call	_Z9putStringPKc@plt
 568      E7800000 
GAS LISTING /tmp/ccJoyKRG.s 			page 16


 569              	.LVL75:
  28:src/../h/my_console.h **** 
 570              		.loc 2 28 5 is_stmt 1
  28:src/../h/my_console.h **** 
 571              		.loc 2 28 15 is_stmt 0
 572 03b4 97000000 		call	_Z10putNewlinev@plt
 572      E7800000 
 573              	.LVL76:
 574              		.loc 2 30 5 is_stmt 1
 575              		.loc 2 30 15 is_stmt 0
 576 03bc 97000000 		call	_Z10stopKernelv@plt
 576      E7800000 
 577              	.LVL77:
 578              	.L42:
 579              	.LBE43:
 580              	.LBE42:
 581              	.LBB45:
 582              	.LBB46:
  23:src/../h/my_console.h ****     putString(file);
 583              		.loc 2 23 5 is_stmt 1
  23:src/../h/my_console.h ****     putString(file);
 584              		.loc 2 23 14 is_stmt 0
 585 03c4 17050000 		lla	a0,.LC0
 585      13050500 
 586              	.LVL78:
 587 03cc 97000000 		call	_Z9putStringPKc@plt
 587      E7800000 
 588              	.LVL79:
  24:src/../h/my_console.h ****     putString("    line: ");
 589              		.loc 2 24 5 is_stmt 1
  24:src/../h/my_console.h ****     putString("    line: ");
 590              		.loc 2 24 14 is_stmt 0
 591 03d4 17050000 		lla	a0,.LC1
 591      13050500 
 592 03dc 97000000 		call	_Z9putStringPKc@plt
 592      E7800000 
 593              	.LVL80:
  25:src/../h/my_console.h ****     putInt(line);
 594              		.loc 2 25 5 is_stmt 1
  25:src/../h/my_console.h ****     putInt(line);
 595              		.loc 2 25 14 is_stmt 0
 596 03e4 17050000 		lla	a0,.LC2
 596      13050500 
 597 03ec 97000000 		call	_Z9putStringPKc@plt
 597      E7800000 
 598              	.LVL81:
  26:src/../h/my_console.h ****     putString("   ===========================");
 599              		.loc 2 26 5 is_stmt 1
  26:src/../h/my_console.h ****     putString("   ===========================");
 600              		.loc 2 26 11 is_stmt 0
 601 03f4 13056007 		li	a0,118
 602 03f8 97000000 		call	_Z6putInti@plt
 602      E7800000 
 603              	.LVL82:
  27:src/../h/my_console.h ****     putNewline();
 604              		.loc 2 27 5 is_stmt 1
  27:src/../h/my_console.h ****     putNewline();
GAS LISTING /tmp/ccJoyKRG.s 			page 17


 605              		.loc 2 27 14 is_stmt 0
 606 0400 17050000 		lla	a0,.LC3
 606      13050500 
 607 0408 97000000 		call	_Z9putStringPKc@plt
 607      E7800000 
 608              	.LVL83:
  28:src/../h/my_console.h **** 
 609              		.loc 2 28 5 is_stmt 1
  28:src/../h/my_console.h **** 
 610              		.loc 2 28 15 is_stmt 0
 611 0410 97000000 		call	_Z10putNewlinev@plt
 611      E7800000 
 612              	.LVL84:
 613              		.loc 2 30 5 is_stmt 1
 614              		.loc 2 30 15 is_stmt 0
 615 0418 97000000 		call	_Z10stopKernelv@plt
 615      E7800000 
 616              	.LVL85:
 617              	.L36:
 618              	.LBE46:
 619              	.LBE45:
 109:src/APP.cpp   ****     {
 110:src/APP.cpp   ****         __asm__ volatile("mv x10, x10");
 111:src/APP.cpp   ****         assert((*((uint64*)n)) == newN);
 112:src/APP.cpp   **** 
 113:src/APP.cpp   ****         if(oldTimer != gTimer)
 114:src/APP.cpp   ****         {
 115:src/APP.cpp   ****             __asm__ volatile("mv x10, x10");
 116:src/APP.cpp   **** 
 117:src/APP.cpp   ****             sliceSecondCounter++;
 118:src/APP.cpp   ****             assert((((int)sliceFirstCounter) - ((int)sliceSecondCounter)) <= 1);
 119:src/APP.cpp   ****             oldTimer = gTimer;
 120:src/APP.cpp   ****         }
 121:src/APP.cpp   **** 
 122:src/APP.cpp   ****         __asm__ volatile("mv x10, x10");
 620              		.loc 1 122 9 is_stmt 1 discriminator 2
 621              		.loc 1 122 40 is_stmt 0 discriminator 2
 622              	#APP
 623              	# 122 "src/APP.cpp" 1
 123              	    }
 108:src/APP.cpp   ****     {
 624              		mv x10, x10
 625              	# 0 "" 2
 626              		.loc 1 108 5 is_stmt 1 discriminator 2
 627              	#NO_APP
 628 0424 93871700 		addi	a5,a5,1
 629              	.LVL86:
 630              	.L38:
 108:src/APP.cpp   ****     {
 631              		.loc 1 108 22 discriminator 1
 632 0428 63FCC704 		bgeu	a5,a2,.L34
 110:src/APP.cpp   ****         assert((*((uint64*)n)) == newN);
 633              		.loc 1 110 9
 110:src/APP.cpp   ****         assert((*((uint64*)n)) == newN);
 634              		.loc 1 110 40 is_stmt 0
 635              	#APP
 636              	# 110 "src/APP.cpp" 1
GAS LISTING /tmp/ccJoyKRG.s 			page 18


 111:src/APP.cpp   **** 
 637              		mv x10, x10
 638              	# 0 "" 2
 639              		.loc 1 111 9 is_stmt 1
 640              	#NO_APP
 641 0430 03370500 		ld	a4,0(a0)
 642              	.LVL87:
 643              	.LBB48:
 644              	.LBB44:
  20:src/../h/my_console.h ****         return;
 645              		.loc 2 20 5
 646 0434 E31AC7F2 		bne	a4,a2,.L41
  21:src/../h/my_console.h **** 
 647              		.loc 2 21 9
 648              	.LVL88:
 649              	.LBE44:
 650              	.LBE48:
 113:src/APP.cpp   ****         {
 651              		.loc 1 113 9
 113:src/APP.cpp   ****         {
 652              		.loc 1 113 21 is_stmt 0
 653 0438 17070000 		la	a4,gTimer
 653      03370700 
 654 0440 03370700 		ld	a4,0(a4)
 113:src/APP.cpp   ****         {
 655              		.loc 1 113 9
 656 0444 E30ED7FC 		beq	a4,a3,.L36
 115:src/APP.cpp   **** 
 657              		.loc 1 115 13 is_stmt 1
 115:src/APP.cpp   **** 
 658              		.loc 1 115 44 is_stmt 0
 659              	#APP
 660              	# 115 "src/APP.cpp" 1
 117:src/APP.cpp   ****             assert((((int)sliceFirstCounter) - ((int)sliceSecondCounter)) <= 1);
 661              		mv x10, x10
 662              	# 0 "" 2
 663              		.loc 1 117 13 is_stmt 1
 117:src/APP.cpp   ****             assert((((int)sliceFirstCounter) - ((int)sliceSecondCounter)) <= 1);
 664              		.loc 1 117 31 is_stmt 0
 665              	#NO_APP
 666 044c 97050000 		lla	a1,.LANCHOR0
 666      93850500 
 667 0454 03A74500 		lw	a4,4(a1)
 668 0458 9B061700 		addiw	a3,a4,1
 669              	.LVL89:
 670 045c 23A2D500 		sw	a3,4(a1)
 118:src/APP.cpp   ****             oldTimer = gTimer;
 671              		.loc 1 118 13 is_stmt 1
 672 0460 03A70500 		lw	a4,0(a1)
 673 0464 3B07D740 		subw	a4,a4,a3
 674 0468 13272700 		slti	a4,a4,2
 675              	.LVL90:
 676              	.LBB49:
 677              	.LBB47:
  20:src/../h/my_console.h ****         return;
 678              		.loc 2 20 5
 679 046c E30C07F4 		beqz	a4,.L42
GAS LISTING /tmp/ccJoyKRG.s 			page 19


  21:src/../h/my_console.h **** 
 680              		.loc 2 21 9
 681              	.LVL91:
 682              	.LBE47:
 683              	.LBE49:
 119:src/APP.cpp   ****         }
 684              		.loc 1 119 13
 119:src/APP.cpp   ****         }
 685              		.loc 1 119 22 is_stmt 0
 686 0470 17070000 		la	a4,gTimer
 686      03370700 
 687              	.LVL92:
 688 0478 83360700 		ld	a3,0(a4)
 689              	.LVL93:
 690 047c 6FF05FFA 		j	.L36
 691              	.L34:
 692              	.LBE41:
 124:src/APP.cpp   **** 
 125:src/APP.cpp   ****     assert(sliceSecondCounter > 0); // "n" in test too small probably
 693              		.loc 1 125 5 is_stmt 1
 694 0480 97070000 		lw	a5,.LANCHOR0+4
 694      83A70700 
 695              	.LVL94:
 696              	.LBB50:
 697              	.LBB51:
  20:src/../h/my_console.h ****         return;
 698              		.loc 2 20 5
 699 0488 635AF000 		blez	a5,.L43
 700              	.LBE51:
 701              	.LBE50:
 126:src/APP.cpp   **** }
 702              		.loc 1 126 1 is_stmt 0
 703 048c 83308100 		ld	ra,8(sp)
 704              		.cfi_remember_state
 705              		.cfi_restore 1
 706 0490 03340100 		ld	s0,0(sp)
 707              		.cfi_restore 8
 708              		.cfi_def_cfa 2, 16
 709 0494 13010101 		addi	sp,sp,16
 710              		.cfi_def_cfa_offset 0
 711 0498 67800000 		jr	ra
 712              	.L43:
 713              		.cfi_restore_state
 714              	.LBB53:
 715              	.LBB52:
  23:src/../h/my_console.h ****     putString(file);
 716              		.loc 2 23 5 is_stmt 1
  23:src/../h/my_console.h ****     putString(file);
 717              		.loc 2 23 14 is_stmt 0
 718 049c 17050000 		lla	a0,.LC0
 718      13050500 
 719              	.LVL95:
 720 04a4 97000000 		call	_Z9putStringPKc@plt
 720      E7800000 
 721              	.LVL96:
  24:src/../h/my_console.h ****     putString("    line: ");
 722              		.loc 2 24 5 is_stmt 1
GAS LISTING /tmp/ccJoyKRG.s 			page 20


  24:src/../h/my_console.h ****     putString("    line: ");
 723              		.loc 2 24 14 is_stmt 0
 724 04ac 17050000 		lla	a0,.LC1
 724      13050500 
 725 04b4 97000000 		call	_Z9putStringPKc@plt
 725      E7800000 
 726              	.LVL97:
  25:src/../h/my_console.h ****     putInt(line);
 727              		.loc 2 25 5 is_stmt 1
  25:src/../h/my_console.h ****     putInt(line);
 728              		.loc 2 25 14 is_stmt 0
 729 04bc 17050000 		lla	a0,.LC2
 729      13050500 
 730 04c4 97000000 		call	_Z9putStringPKc@plt
 730      E7800000 
 731              	.LVL98:
  26:src/../h/my_console.h ****     putString("   ===========================");
 732              		.loc 2 26 5 is_stmt 1
  26:src/../h/my_console.h ****     putString("   ===========================");
 733              		.loc 2 26 11 is_stmt 0
 734 04cc 1305D007 		li	a0,125
 735 04d0 97000000 		call	_Z6putInti@plt
 735      E7800000 
 736              	.LVL99:
  27:src/../h/my_console.h ****     putNewline();
 737              		.loc 2 27 5 is_stmt 1
  27:src/../h/my_console.h ****     putNewline();
 738              		.loc 2 27 14 is_stmt 0
 739 04d8 17050000 		lla	a0,.LC3
 739      13050500 
 740 04e0 97000000 		call	_Z9putStringPKc@plt
 740      E7800000 
 741              	.LVL100:
  28:src/../h/my_console.h **** 
 742              		.loc 2 28 5 is_stmt 1
  28:src/../h/my_console.h **** 
 743              		.loc 2 28 15 is_stmt 0
 744 04e8 97000000 		call	_Z10putNewlinev@plt
 744      E7800000 
 745              	.LVL101:
 746              		.loc 2 30 5 is_stmt 1
 747              		.loc 2 30 15 is_stmt 0
 748 04f0 97000000 		call	_Z10stopKernelv@plt
 748      E7800000 
 749              	.LVL102:
 750              	.LBE52:
 751              	.LBE53:
 752              		.cfi_endproc
 753              	.LFE15:
 755              		.section	.rodata.str1.8
 756 00ac 00000000 		.align	3
 757              	.LC6:
 758 00b0 3D3D3D20 		.string	"=== Testing \"testSyncCall\""
 758      54657374 
 758      696E6720 
 758      22746573 
 758      7453796E 
GAS LISTING /tmp/ccJoyKRG.s 			page 21


 759 00cb 00000000 		.align	3
 759      00
 760              	.LC7:
 761 00d0 3D3D3D20 		.string	"=== PASS in testing \"testSyncCall\""
 761      50415353 
 761      20696E20 
 761      74657374 
 761      696E6720 
 762              		.text
 763              		.align	2
 764              		.globl	_Z12testSyncCallv
 766              	_Z12testSyncCallv:
 767              	.LFB16:
 127:src/APP.cpp   **** 
 128:src/APP.cpp   **** void testSyncCall()
 129:src/APP.cpp   **** {
 768              		.loc 1 129 1 is_stmt 1
 769              		.cfi_startproc
 770 04f8 130101FD 		addi	sp,sp,-48
 771              		.cfi_def_cfa_offset 48
 772 04fc 23341102 		sd	ra,40(sp)
 773 0500 23308102 		sd	s0,32(sp)
 774              		.cfi_offset 1, -8
 775              		.cfi_offset 8, -16
 776 0504 13040103 		addi	s0,sp,48
 777              		.cfi_def_cfa 8, 0
 130:src/APP.cpp   ****     disableExternalInterrupts();
 778              		.loc 1 130 5
 779              		.loc 1 130 30 is_stmt 0
 780 0508 97000000 		call	_Z25disableExternalInterruptsv@plt
 780      E7800000 
 781              	.LVL103:
 131:src/APP.cpp   **** 
 132:src/APP.cpp   **** //    assert(MemAlloc::get()->getUserlandUsage() == IThread::initialUserMemoryUsage);
 133:src/APP.cpp   **** 
 134:src/APP.cpp   ****     putString("=== Testing \"testSyncCall\"");
 782              		.loc 1 134 5 is_stmt 1
 783              		.loc 1 134 14 is_stmt 0
 784 0510 17050000 		lla	a0,.LC6
 784      13050500 
 785 0518 97000000 		call	_Z9putStringPKc@plt
 785      E7800000 
 786              	.LVL104:
 135:src/APP.cpp   ****     putNewline();
 787              		.loc 1 135 5 is_stmt 1
 788              		.loc 1 135 15 is_stmt 0
 789 0520 97000000 		call	_Z10putNewlinev@plt
 789      E7800000 
 790              	.LVL105:
 136:src/APP.cpp   **** 
 137:src/APP.cpp   ****     void doA(void*);
 791              		.loc 1 137 5 is_stmt 1
 138:src/APP.cpp   ****     void doB(void*);
 792              		.loc 1 138 5
 139:src/APP.cpp   **** 
 140:src/APP.cpp   ****     int argA = 69;
 793              		.loc 1 140 5
GAS LISTING /tmp/ccJoyKRG.s 			page 22


 794              		.loc 1 140 9 is_stmt 0
 795 0528 93075004 		li	a5,69
 796 052c 2326F4FE 		sw	a5,-20(s0)
 141:src/APP.cpp   ****     int argB = 420;
 797              		.loc 1 141 5 is_stmt 1
 798              		.loc 1 141 9 is_stmt 0
 799 0530 9307401A 		li	a5,420
 800 0534 2324F4FE 		sw	a5,-24(s0)
 142:src/APP.cpp   ****     thread_t a;
 801              		.loc 1 142 5 is_stmt 1
 143:src/APP.cpp   ****     thread_t b;
 802              		.loc 1 143 5
 144:src/APP.cpp   ****     thread_create(&a, doA, &argA);
 803              		.loc 1 144 5
 804              		.loc 1 144 18 is_stmt 0
 805 0538 1306C4FE 		addi	a2,s0,-20
 806 053c 97050000 		la	a1,_Z3doAPv
 806      83B50500 
 807 0544 130504FE 		addi	a0,s0,-32
 808 0548 97000000 		call	_Z13thread_createPmPFvPvES0_@plt
 808      E7800000 
 809              	.LVL106:
 145:src/APP.cpp   ****     thread_create(&b, doB, &argB);
 810              		.loc 1 145 5 is_stmt 1
 811              		.loc 1 145 18 is_stmt 0
 812 0550 130684FE 		addi	a2,s0,-24
 813 0554 97050000 		la	a1,_Z3doBPv
 813      83B50500 
 814 055c 130584FD 		addi	a0,s0,-40
 815 0560 97000000 		call	_Z13thread_createPmPFvPvES0_@plt
 815      E7800000 
 816              	.LVL107:
 146:src/APP.cpp   ****     thread_dispatch();
 817              		.loc 1 146 5 is_stmt 1
 818              		.loc 1 146 20 is_stmt 0
 819 0568 97000000 		call	_Z15thread_dispatchv@plt
 819      E7800000 
 820              	.LVL108:
 147:src/APP.cpp   **** 
 148:src/APP.cpp   ****     thread_join(b);
 821              		.loc 1 148 5 is_stmt 1
 822              		.loc 1 148 16 is_stmt 0
 823 0570 033584FD 		ld	a0,-40(s0)
 824 0574 97000000 		call	_Z11thread_joinm@plt
 824      E7800000 
 825              	.LVL109:
 149:src/APP.cpp   ****     thread_join(a);
 826              		.loc 1 149 5 is_stmt 1
 827              		.loc 1 149 16 is_stmt 0
 828 057c 033504FE 		ld	a0,-32(s0)
 829 0580 97000000 		call	_Z11thread_joinm@plt
 829      E7800000 
 830              	.LVL110:
 150:src/APP.cpp   **** 
 151:src/APP.cpp   ****     putString("=== PASS in testing \"testSyncCall\"");
 831              		.loc 1 151 5 is_stmt 1
 832              		.loc 1 151 14 is_stmt 0
GAS LISTING /tmp/ccJoyKRG.s 			page 23


 833 0588 17050000 		lla	a0,.LC7
 833      13050500 
 834 0590 97000000 		call	_Z9putStringPKc@plt
 834      E7800000 
 835              	.LVL111:
 152:src/APP.cpp   ****     putNewline();
 836              		.loc 1 152 5 is_stmt 1
 837              		.loc 1 152 15 is_stmt 0
 838 0598 97000000 		call	_Z10putNewlinev@plt
 838      E7800000 
 839              	.LVL112:
 153:src/APP.cpp   **** 
 154:src/APP.cpp   ****     enableExternalInterrupts();
 840              		.loc 1 154 5 is_stmt 1
 841              		.loc 1 154 29 is_stmt 0
 842 05a0 97000000 		call	_Z24enableExternalInterruptsv@plt
 842      E7800000 
 843              	.LVL113:
 155:src/APP.cpp   **** }
 844              		.loc 1 155 1
 845 05a8 83308102 		ld	ra,40(sp)
 846              		.cfi_restore 1
 847 05ac 03340102 		ld	s0,32(sp)
 848              		.cfi_restore 8
 849              		.cfi_def_cfa 2, 48
 850 05b0 13010103 		addi	sp,sp,48
 851              		.cfi_def_cfa_offset 0
 852 05b4 67800000 		jr	ra
 853              		.cfi_endproc
 854              	.LFE16:
 856              		.align	2
 857              		.globl	_Z3fibm
 859              	_Z3fibm:
 860              	.LFB19:
 156:src/APP.cpp   **** 
 157:src/APP.cpp   **** void doA(void* p)
 158:src/APP.cpp   **** {
 159:src/APP.cpp   ****     assert(*((int*)p) == 69);
 160:src/APP.cpp   **** 
 161:src/APP.cpp   ****     for(int i=0; i<=5; i++)
 162:src/APP.cpp   ****     {
 163:src/APP.cpp   ****         assert(fib(i) == test_call(i));
 164:src/APP.cpp   ****         thread_dispatch();
 165:src/APP.cpp   ****     }
 166:src/APP.cpp   **** 
 167:src/APP.cpp   ****     __asm__ volatile("mv x10, x10");
 168:src/APP.cpp   ****     thread_exit();
 169:src/APP.cpp   ****     assert(false);
 170:src/APP.cpp   **** }
 171:src/APP.cpp   **** 
 172:src/APP.cpp   **** void doB(void* p)
 173:src/APP.cpp   **** {
 174:src/APP.cpp   ****     assert(*((int*)p) == 420);
 175:src/APP.cpp   **** 
 176:src/APP.cpp   ****     for(int i=0; i<=10; i++)
 177:src/APP.cpp   ****     {
 178:src/APP.cpp   ****         assert(fib(i) == test_call(i));
GAS LISTING /tmp/ccJoyKRG.s 			page 24


 179:src/APP.cpp   ****         thread_dispatch();
 180:src/APP.cpp   ****     }
 181:src/APP.cpp   **** 
 182:src/APP.cpp   ****     thread_exit();
 183:src/APP.cpp   ****     assert(false);
 184:src/APP.cpp   **** }
 185:src/APP.cpp   **** 
 186:src/APP.cpp   **** 
 187:src/APP.cpp   **** uint64 fib(uint64 n)
 188:src/APP.cpp   **** {
 861              		.loc 1 188 1 is_stmt 1
 862              		.cfi_startproc
 863              	.LVL114:
 864 05b8 130101FE 		addi	sp,sp,-32
 865              		.cfi_def_cfa_offset 32
 866 05bc 233C1100 		sd	ra,24(sp)
 867 05c0 23388100 		sd	s0,16(sp)
 868 05c4 23349100 		sd	s1,8(sp)
 869 05c8 23302101 		sd	s2,0(sp)
 870              		.cfi_offset 1, -8
 871              		.cfi_offset 8, -16
 872              		.cfi_offset 9, -24
 873              		.cfi_offset 18, -32
 874 05cc 13040102 		addi	s0,sp,32
 875              		.cfi_def_cfa 8, 0
 876 05d0 93040500 		mv	s1,a0
 189:src/APP.cpp   ****     if(n == 1)
 877              		.loc 1 189 5
 878 05d4 93071000 		li	a5,1
 879 05d8 6304F500 		beq	a0,a5,.L47
 190:src/APP.cpp   ****         return 1;
 191:src/APP.cpp   ****     else if (n == 0)
 880              		.loc 1 191 10
 881 05dc 63100502 		bnez	a0,.L49
 882              	.LVL115:
 883              	.L47:
 192:src/APP.cpp   ****         return 0;
 193:src/APP.cpp   ****     else return fib(n-1) + fib(n-2);
 194:src/APP.cpp   **** }
 884              		.loc 1 194 1 is_stmt 0
 885 05e0 13850400 		mv	a0,s1
 886 05e4 83308101 		ld	ra,24(sp)
 887              		.cfi_remember_state
 888              		.cfi_restore 1
 889 05e8 03340101 		ld	s0,16(sp)
 890              		.cfi_restore 8
 891              		.cfi_def_cfa 2, 32
 892 05ec 83348100 		ld	s1,8(sp)
 893              		.cfi_restore 9
 894 05f0 03390100 		ld	s2,0(sp)
 895              		.cfi_restore 18
 896 05f4 13010102 		addi	sp,sp,32
 897              		.cfi_def_cfa_offset 0
 898 05f8 67800000 		jr	ra
 899              	.LVL116:
 900              	.L49:
 901              		.cfi_restore_state
GAS LISTING /tmp/ccJoyKRG.s 			page 25


 193:src/APP.cpp   **** }
 902              		.loc 1 193 10 is_stmt 1
 193:src/APP.cpp   **** }
 903              		.loc 1 193 20 is_stmt 0
 904 05fc 1305F5FF 		addi	a0,a0,-1
 905 0600 97000000 		call	_Z3fibm
 905      E7800000 
 906              	.LVL117:
 907 0608 13090500 		mv	s2,a0
 193:src/APP.cpp   **** }
 908              		.loc 1 193 31
 909 060c 1385E4FF 		addi	a0,s1,-2
 910 0610 97000000 		call	_Z3fibm
 910      E7800000 
 911              	.LVL118:
 193:src/APP.cpp   **** }
 912              		.loc 1 193 35
 913 0618 B304A900 		add	s1,s2,a0
 914              	.LVL119:
 915 061c 6FF05FFC 		j	.L47
 916              		.cfi_endproc
 917              	.LFE19:
 919              		.align	2
 920              		.globl	_Z3doAPv
 922              	_Z3doAPv:
 923              	.LFB17:
 158:src/APP.cpp   ****     assert(*((int*)p) == 69);
 924              		.loc 1 158 1 is_stmt 1
 925              		.cfi_startproc
 926              	.LVL120:
 927 0620 130101FE 		addi	sp,sp,-32
 928              		.cfi_def_cfa_offset 32
 929 0624 233C1100 		sd	ra,24(sp)
 930 0628 23388100 		sd	s0,16(sp)
 931 062c 23349100 		sd	s1,8(sp)
 932 0630 23302101 		sd	s2,0(sp)
 933              		.cfi_offset 1, -8
 934              		.cfi_offset 8, -16
 935              		.cfi_offset 9, -24
 936              		.cfi_offset 18, -32
 937 0634 13040102 		addi	s0,sp,32
 938              		.cfi_def_cfa 8, 0
 159:src/APP.cpp   **** 
 939              		.loc 1 159 5
 940 0638 83270500 		lw	a5,0(a0)
 941 063c 9387B7FB 		addi	a5,a5,-69
 942              	.LVL121:
 943              	.LBB61:
 944              	.LBB62:
  20:src/../h/my_console.h ****         return;
 945              		.loc 2 20 5
 946 0640 63900704 		bnez	a5,.L56
 947              	.LBE62:
 948              	.LBE61:
 949              	.LBB64:
 161:src/APP.cpp   ****     {
 950              		.loc 1 161 13 is_stmt 0
GAS LISTING /tmp/ccJoyKRG.s 			page 26


 951 0644 93040000 		li	s1,0
 952              	.LVL122:
 953              	.L51:
 161:src/APP.cpp   ****     {
 954              		.loc 1 161 19 is_stmt 1 discriminator 3
 955 0648 93075000 		li	a5,5
 956 064c 63C6970E 		bgt	s1,a5,.L52
 163:src/APP.cpp   ****         thread_dispatch();
 957              		.loc 1 163 9 discriminator 2
 958 0650 13850400 		mv	a0,s1
 959 0654 97000000 		call	_Z3fibm
 959      E7800000 
 960              	.LVL123:
 961 065c 13090500 		mv	s2,a0
 962 0660 13850400 		mv	a0,s1
 963 0664 97000000 		call	_Z9test_callm@plt
 963      E7800000 
 964              	.LVL124:
 965              	.LBB65:
 966              	.LBB66:
  20:src/../h/my_console.h ****         return;
 967              		.loc 2 20 5 discriminator 2
 968 066c 6318A906 		bne	s2,a0,.L57
  21:src/../h/my_console.h **** 
 969              		.loc 2 21 9 discriminator 2
 970              	.LVL125:
 971              	.LBE66:
 972              	.LBE65:
 164:src/APP.cpp   ****     }
 973              		.loc 1 164 9 discriminator 2
 164:src/APP.cpp   ****     }
 974              		.loc 1 164 24 is_stmt 0 discriminator 2
 975 0670 97000000 		call	_Z15thread_dispatchv@plt
 975      E7800000 
 976              	.LVL126:
 161:src/APP.cpp   ****     {
 977              		.loc 1 161 5 is_stmt 1 discriminator 2
 978 0678 9B841400 		addiw	s1,s1,1
 979              	.LVL127:
 980 067c 6FF0DFFC 		j	.L51
 981              	.LVL128:
 982              	.L56:
 983              	.LBE64:
 984              	.LBB69:
 985              	.LBB63:
  23:src/../h/my_console.h ****     putString(file);
 986              		.loc 2 23 5
  23:src/../h/my_console.h ****     putString(file);
 987              		.loc 2 23 14 is_stmt 0
 988 0680 17050000 		lla	a0,.LC0
 988      13050500 
 989              	.LVL129:
 990 0688 97000000 		call	_Z9putStringPKc@plt
 990      E7800000 
 991              	.LVL130:
  24:src/../h/my_console.h ****     putString("    line: ");
 992              		.loc 2 24 5 is_stmt 1
GAS LISTING /tmp/ccJoyKRG.s 			page 27


  24:src/../h/my_console.h ****     putString("    line: ");
 993              		.loc 2 24 14 is_stmt 0
 994 0690 17050000 		lla	a0,.LC1
 994      13050500 
 995 0698 97000000 		call	_Z9putStringPKc@plt
 995      E7800000 
 996              	.LVL131:
  25:src/../h/my_console.h ****     putInt(line);
 997              		.loc 2 25 5 is_stmt 1
  25:src/../h/my_console.h ****     putInt(line);
 998              		.loc 2 25 14 is_stmt 0
 999 06a0 17050000 		lla	a0,.LC2
 999      13050500 
 1000 06a8 97000000 		call	_Z9putStringPKc@plt
 1000      E7800000 
 1001              	.LVL132:
  26:src/../h/my_console.h ****     putString("   ===========================");
 1002              		.loc 2 26 5 is_stmt 1
  26:src/../h/my_console.h ****     putString("   ===========================");
 1003              		.loc 2 26 11 is_stmt 0
 1004 06b0 1305F009 		li	a0,159
 1005 06b4 97000000 		call	_Z6putInti@plt
 1005      E7800000 
 1006              	.LVL133:
  27:src/../h/my_console.h ****     putNewline();
 1007              		.loc 2 27 5 is_stmt 1
  27:src/../h/my_console.h ****     putNewline();
 1008              		.loc 2 27 14 is_stmt 0
 1009 06bc 17050000 		lla	a0,.LC3
 1009      13050500 
 1010 06c4 97000000 		call	_Z9putStringPKc@plt
 1010      E7800000 
 1011              	.LVL134:
  28:src/../h/my_console.h **** 
 1012              		.loc 2 28 5 is_stmt 1
  28:src/../h/my_console.h **** 
 1013              		.loc 2 28 15 is_stmt 0
 1014 06cc 97000000 		call	_Z10putNewlinev@plt
 1014      E7800000 
 1015              	.LVL135:
 1016              		.loc 2 30 5 is_stmt 1
 1017              		.loc 2 30 15 is_stmt 0
 1018 06d4 97000000 		call	_Z10stopKernelv@plt
 1018      E7800000 
 1019              	.LVL136:
 1020              	.L57:
 1021              	.LBE63:
 1022              	.LBE69:
 1023              	.LBB70:
 1024              	.LBB68:
 1025              	.LBB67:
  23:src/../h/my_console.h ****     putString(file);
 1026              		.loc 2 23 5 is_stmt 1
  23:src/../h/my_console.h ****     putString(file);
 1027              		.loc 2 23 14 is_stmt 0
 1028 06dc 17050000 		lla	a0,.LC0
 1028      13050500 
GAS LISTING /tmp/ccJoyKRG.s 			page 28


 1029              	.LVL137:
 1030 06e4 97000000 		call	_Z9putStringPKc@plt
 1030      E7800000 
 1031              	.LVL138:
  24:src/../h/my_console.h ****     putString("    line: ");
 1032              		.loc 2 24 5 is_stmt 1
  24:src/../h/my_console.h ****     putString("    line: ");
 1033              		.loc 2 24 14 is_stmt 0
 1034 06ec 17050000 		lla	a0,.LC1
 1034      13050500 
 1035 06f4 97000000 		call	_Z9putStringPKc@plt
 1035      E7800000 
 1036              	.LVL139:
  25:src/../h/my_console.h ****     putInt(line);
 1037              		.loc 2 25 5 is_stmt 1
  25:src/../h/my_console.h ****     putInt(line);
 1038              		.loc 2 25 14 is_stmt 0
 1039 06fc 17050000 		lla	a0,.LC2
 1039      13050500 
 1040 0704 97000000 		call	_Z9putStringPKc@plt
 1040      E7800000 
 1041              	.LVL140:
  26:src/../h/my_console.h ****     putString("   ===========================");
 1042              		.loc 2 26 5 is_stmt 1
  26:src/../h/my_console.h ****     putString("   ===========================");
 1043              		.loc 2 26 11 is_stmt 0
 1044 070c 1305300A 		li	a0,163
 1045 0710 97000000 		call	_Z6putInti@plt
 1045      E7800000 
 1046              	.LVL141:
  27:src/../h/my_console.h ****     putNewline();
 1047              		.loc 2 27 5 is_stmt 1
  27:src/../h/my_console.h ****     putNewline();
 1048              		.loc 2 27 14 is_stmt 0
 1049 0718 17050000 		lla	a0,.LC3
 1049      13050500 
 1050 0720 97000000 		call	_Z9putStringPKc@plt
 1050      E7800000 
 1051              	.LVL142:
  28:src/../h/my_console.h **** 
 1052              		.loc 2 28 5 is_stmt 1
  28:src/../h/my_console.h **** 
 1053              		.loc 2 28 15 is_stmt 0
 1054 0728 97000000 		call	_Z10putNewlinev@plt
 1054      E7800000 
 1055              	.LVL143:
 1056              		.loc 2 30 5 is_stmt 1
 1057              		.loc 2 30 15 is_stmt 0
 1058 0730 97000000 		call	_Z10stopKernelv@plt
 1058      E7800000 
 1059              	.LVL144:
 1060              	.L52:
 1061              	.LBE67:
 1062              	.LBE68:
 1063              	.LBE70:
 167:src/APP.cpp   ****     thread_exit();
 1064              		.loc 1 167 5 is_stmt 1
GAS LISTING /tmp/ccJoyKRG.s 			page 29


 167:src/APP.cpp   ****     thread_exit();
 1065              		.loc 1 167 36 is_stmt 0
 1066              	#APP
 1067              	# 167 "src/APP.cpp" 1
 168:src/APP.cpp   ****     assert(false);
 1068              		mv x10, x10
 1069              	# 0 "" 2
 1070              		.loc 1 168 5 is_stmt 1
 168:src/APP.cpp   ****     assert(false);
 1071              		.loc 1 168 16 is_stmt 0
 1072              	#NO_APP
 1073 073c 97000000 		call	_Z11thread_exitv@plt
 1073      E7800000 
 1074              	.LVL145:
 169:src/APP.cpp   **** }
 1075              		.loc 1 169 5 is_stmt 1
 1076              	.LBB71:
 1077              	.LBB72:
  20:src/../h/my_console.h ****         return;
 1078              		.loc 2 20 5
  23:src/../h/my_console.h ****     putString(file);
 1079              		.loc 2 23 5
  23:src/../h/my_console.h ****     putString(file);
 1080              		.loc 2 23 14 is_stmt 0
 1081 0744 17050000 		lla	a0,.LC0
 1081      13050500 
 1082 074c 97000000 		call	_Z9putStringPKc@plt
 1082      E7800000 
 1083              	.LVL146:
  24:src/../h/my_console.h ****     putString("    line: ");
 1084              		.loc 2 24 5 is_stmt 1
  24:src/../h/my_console.h ****     putString("    line: ");
 1085              		.loc 2 24 14 is_stmt 0
 1086 0754 17050000 		lla	a0,.LC1
 1086      13050500 
 1087 075c 97000000 		call	_Z9putStringPKc@plt
 1087      E7800000 
 1088              	.LVL147:
  25:src/../h/my_console.h ****     putInt(line);
 1089              		.loc 2 25 5 is_stmt 1
  25:src/../h/my_console.h ****     putInt(line);
 1090              		.loc 2 25 14 is_stmt 0
 1091 0764 17050000 		lla	a0,.LC2
 1091      13050500 
 1092 076c 97000000 		call	_Z9putStringPKc@plt
 1092      E7800000 
 1093              	.LVL148:
  26:src/../h/my_console.h ****     putString("   ===========================");
 1094              		.loc 2 26 5 is_stmt 1
  26:src/../h/my_console.h ****     putString("   ===========================");
 1095              		.loc 2 26 11 is_stmt 0
 1096 0774 1305900A 		li	a0,169
 1097 0778 97000000 		call	_Z6putInti@plt
 1097      E7800000 
 1098              	.LVL149:
  27:src/../h/my_console.h ****     putNewline();
 1099              		.loc 2 27 5 is_stmt 1
GAS LISTING /tmp/ccJoyKRG.s 			page 30


  27:src/../h/my_console.h ****     putNewline();
 1100              		.loc 2 27 14 is_stmt 0
 1101 0780 17050000 		lla	a0,.LC3
 1101      13050500 
 1102 0788 97000000 		call	_Z9putStringPKc@plt
 1102      E7800000 
 1103              	.LVL150:
  28:src/../h/my_console.h **** 
 1104              		.loc 2 28 5 is_stmt 1
  28:src/../h/my_console.h **** 
 1105              		.loc 2 28 15 is_stmt 0
 1106 0790 97000000 		call	_Z10putNewlinev@plt
 1106      E7800000 
 1107              	.LVL151:
 1108              		.loc 2 30 5 is_stmt 1
 1109              		.loc 2 30 15 is_stmt 0
 1110 0798 97000000 		call	_Z10stopKernelv@plt
 1110      E7800000 
 1111              	.LVL152:
 1112              	.LBE72:
 1113              	.LBE71:
 1114              		.cfi_endproc
 1115              	.LFE17:
 1117              		.align	2
 1118              		.globl	_Z3doBPv
 1120              	_Z3doBPv:
 1121              	.LFB18:
 173:src/APP.cpp   ****     assert(*((int*)p) == 420);
 1122              		.loc 1 173 1 is_stmt 1
 1123              		.cfi_startproc
 1124              	.LVL153:
 1125 07a0 130101FE 		addi	sp,sp,-32
 1126              		.cfi_def_cfa_offset 32
 1127 07a4 233C1100 		sd	ra,24(sp)
 1128 07a8 23388100 		sd	s0,16(sp)
 1129 07ac 23349100 		sd	s1,8(sp)
 1130 07b0 23302101 		sd	s2,0(sp)
 1131              		.cfi_offset 1, -8
 1132              		.cfi_offset 8, -16
 1133              		.cfi_offset 9, -24
 1134              		.cfi_offset 18, -32
 1135 07b4 13040102 		addi	s0,sp,32
 1136              		.cfi_def_cfa 8, 0
 174:src/APP.cpp   **** 
 1137              		.loc 1 174 5
 1138 07b8 83270500 		lw	a5,0(a0)
 1139 07bc 9387C7E5 		addi	a5,a5,-420
 1140              	.LVL154:
 1141              	.LBB80:
 1142              	.LBB81:
  20:src/../h/my_console.h ****         return;
 1143              		.loc 2 20 5
 1144 07c0 63900704 		bnez	a5,.L64
 1145              	.LBE81:
 1146              	.LBE80:
 1147              	.LBB83:
 176:src/APP.cpp   ****     {
GAS LISTING /tmp/ccJoyKRG.s 			page 31


 1148              		.loc 1 176 13 is_stmt 0
 1149 07c4 93040000 		li	s1,0
 1150              	.LVL155:
 1151              	.L59:
 176:src/APP.cpp   ****     {
 1152              		.loc 1 176 19 is_stmt 1 discriminator 3
 1153 07c8 9307A000 		li	a5,10
 1154 07cc 63C6970E 		bgt	s1,a5,.L60
 178:src/APP.cpp   ****         thread_dispatch();
 1155              		.loc 1 178 9 discriminator 2
 1156 07d0 13850400 		mv	a0,s1
 1157 07d4 97000000 		call	_Z3fibm
 1157      E7800000 
 1158              	.LVL156:
 1159 07dc 13090500 		mv	s2,a0
 1160 07e0 13850400 		mv	a0,s1
 1161 07e4 97000000 		call	_Z9test_callm@plt
 1161      E7800000 
 1162              	.LVL157:
 1163              	.LBB84:
 1164              	.LBB85:
  20:src/../h/my_console.h ****         return;
 1165              		.loc 2 20 5 discriminator 2
 1166 07ec 6318A906 		bne	s2,a0,.L65
  21:src/../h/my_console.h **** 
 1167              		.loc 2 21 9 discriminator 2
 1168              	.LVL158:
 1169              	.LBE85:
 1170              	.LBE84:
 179:src/APP.cpp   ****     }
 1171              		.loc 1 179 9 discriminator 2
 179:src/APP.cpp   ****     }
 1172              		.loc 1 179 24 is_stmt 0 discriminator 2
 1173 07f0 97000000 		call	_Z15thread_dispatchv@plt
 1173      E7800000 
 1174              	.LVL159:
 176:src/APP.cpp   ****     {
 1175              		.loc 1 176 5 is_stmt 1 discriminator 2
 1176 07f8 9B841400 		addiw	s1,s1,1
 1177              	.LVL160:
 1178 07fc 6FF0DFFC 		j	.L59
 1179              	.LVL161:
 1180              	.L64:
 1181              	.LBE83:
 1182              	.LBB88:
 1183              	.LBB82:
  23:src/../h/my_console.h ****     putString(file);
 1184              		.loc 2 23 5
  23:src/../h/my_console.h ****     putString(file);
 1185              		.loc 2 23 14 is_stmt 0
 1186 0800 17050000 		lla	a0,.LC0
 1186      13050500 
 1187              	.LVL162:
 1188 0808 97000000 		call	_Z9putStringPKc@plt
 1188      E7800000 
 1189              	.LVL163:
  24:src/../h/my_console.h ****     putString("    line: ");
GAS LISTING /tmp/ccJoyKRG.s 			page 32


 1190              		.loc 2 24 5 is_stmt 1
  24:src/../h/my_console.h ****     putString("    line: ");
 1191              		.loc 2 24 14 is_stmt 0
 1192 0810 17050000 		lla	a0,.LC1
 1192      13050500 
 1193 0818 97000000 		call	_Z9putStringPKc@plt
 1193      E7800000 
 1194              	.LVL164:
  25:src/../h/my_console.h ****     putInt(line);
 1195              		.loc 2 25 5 is_stmt 1
  25:src/../h/my_console.h ****     putInt(line);
 1196              		.loc 2 25 14 is_stmt 0
 1197 0820 17050000 		lla	a0,.LC2
 1197      13050500 
 1198 0828 97000000 		call	_Z9putStringPKc@plt
 1198      E7800000 
 1199              	.LVL165:
  26:src/../h/my_console.h ****     putString("   ===========================");
 1200              		.loc 2 26 5 is_stmt 1
  26:src/../h/my_console.h ****     putString("   ===========================");
 1201              		.loc 2 26 11 is_stmt 0
 1202 0830 1305E00A 		li	a0,174
 1203 0834 97000000 		call	_Z6putInti@plt
 1203      E7800000 
 1204              	.LVL166:
  27:src/../h/my_console.h ****     putNewline();
 1205              		.loc 2 27 5 is_stmt 1
  27:src/../h/my_console.h ****     putNewline();
 1206              		.loc 2 27 14 is_stmt 0
 1207 083c 17050000 		lla	a0,.LC3
 1207      13050500 
 1208 0844 97000000 		call	_Z9putStringPKc@plt
 1208      E7800000 
 1209              	.LVL167:
  28:src/../h/my_console.h **** 
 1210              		.loc 2 28 5 is_stmt 1
  28:src/../h/my_console.h **** 
 1211              		.loc 2 28 15 is_stmt 0
 1212 084c 97000000 		call	_Z10putNewlinev@plt
 1212      E7800000 
 1213              	.LVL168:
 1214              		.loc 2 30 5 is_stmt 1
 1215              		.loc 2 30 15 is_stmt 0
 1216 0854 97000000 		call	_Z10stopKernelv@plt
 1216      E7800000 
 1217              	.LVL169:
 1218              	.L65:
 1219              	.LBE82:
 1220              	.LBE88:
 1221              	.LBB89:
 1222              	.LBB87:
 1223              	.LBB86:
  23:src/../h/my_console.h ****     putString(file);
 1224              		.loc 2 23 5 is_stmt 1
  23:src/../h/my_console.h ****     putString(file);
 1225              		.loc 2 23 14 is_stmt 0
 1226 085c 17050000 		lla	a0,.LC0
GAS LISTING /tmp/ccJoyKRG.s 			page 33


 1226      13050500 
 1227              	.LVL170:
 1228 0864 97000000 		call	_Z9putStringPKc@plt
 1228      E7800000 
 1229              	.LVL171:
  24:src/../h/my_console.h ****     putString("    line: ");
 1230              		.loc 2 24 5 is_stmt 1
  24:src/../h/my_console.h ****     putString("    line: ");
 1231              		.loc 2 24 14 is_stmt 0
 1232 086c 17050000 		lla	a0,.LC1
 1232      13050500 
 1233 0874 97000000 		call	_Z9putStringPKc@plt
 1233      E7800000 
 1234              	.LVL172:
  25:src/../h/my_console.h ****     putInt(line);
 1235              		.loc 2 25 5 is_stmt 1
  25:src/../h/my_console.h ****     putInt(line);
 1236              		.loc 2 25 14 is_stmt 0
 1237 087c 17050000 		lla	a0,.LC2
 1237      13050500 
 1238 0884 97000000 		call	_Z9putStringPKc@plt
 1238      E7800000 
 1239              	.LVL173:
  26:src/../h/my_console.h ****     putString("   ===========================");
 1240              		.loc 2 26 5 is_stmt 1
  26:src/../h/my_console.h ****     putString("   ===========================");
 1241              		.loc 2 26 11 is_stmt 0
 1242 088c 1305200B 		li	a0,178
 1243 0890 97000000 		call	_Z6putInti@plt
 1243      E7800000 
 1244              	.LVL174:
  27:src/../h/my_console.h ****     putNewline();
 1245              		.loc 2 27 5 is_stmt 1
  27:src/../h/my_console.h ****     putNewline();
 1246              		.loc 2 27 14 is_stmt 0
 1247 0898 17050000 		lla	a0,.LC3
 1247      13050500 
 1248 08a0 97000000 		call	_Z9putStringPKc@plt
 1248      E7800000 
 1249              	.LVL175:
  28:src/../h/my_console.h **** 
 1250              		.loc 2 28 5 is_stmt 1
  28:src/../h/my_console.h **** 
 1251              		.loc 2 28 15 is_stmt 0
 1252 08a8 97000000 		call	_Z10putNewlinev@plt
 1252      E7800000 
 1253              	.LVL176:
 1254              		.loc 2 30 5 is_stmt 1
 1255              		.loc 2 30 15 is_stmt 0
 1256 08b0 97000000 		call	_Z10stopKernelv@plt
 1256      E7800000 
 1257              	.LVL177:
 1258              	.L60:
 1259              	.LBE86:
 1260              	.LBE87:
 1261              	.LBE89:
 182:src/APP.cpp   ****     assert(false);
GAS LISTING /tmp/ccJoyKRG.s 			page 34


 1262              		.loc 1 182 5 is_stmt 1
 182:src/APP.cpp   ****     assert(false);
 1263              		.loc 1 182 16 is_stmt 0
 1264 08b8 97000000 		call	_Z11thread_exitv@plt
 1264      E7800000 
 1265              	.LVL178:
 183:src/APP.cpp   **** }
 1266              		.loc 1 183 5 is_stmt 1
 1267              	.LBB90:
 1268              	.LBB91:
  20:src/../h/my_console.h ****         return;
 1269              		.loc 2 20 5
  23:src/../h/my_console.h ****     putString(file);
 1270              		.loc 2 23 5
  23:src/../h/my_console.h ****     putString(file);
 1271              		.loc 2 23 14 is_stmt 0
 1272 08c0 17050000 		lla	a0,.LC0
 1272      13050500 
 1273 08c8 97000000 		call	_Z9putStringPKc@plt
 1273      E7800000 
 1274              	.LVL179:
  24:src/../h/my_console.h ****     putString("    line: ");
 1275              		.loc 2 24 5 is_stmt 1
  24:src/../h/my_console.h ****     putString("    line: ");
 1276              		.loc 2 24 14 is_stmt 0
 1277 08d0 17050000 		lla	a0,.LC1
 1277      13050500 
 1278 08d8 97000000 		call	_Z9putStringPKc@plt
 1278      E7800000 
 1279              	.LVL180:
  25:src/../h/my_console.h ****     putInt(line);
 1280              		.loc 2 25 5 is_stmt 1
  25:src/../h/my_console.h ****     putInt(line);
 1281              		.loc 2 25 14 is_stmt 0
 1282 08e0 17050000 		lla	a0,.LC2
 1282      13050500 
 1283 08e8 97000000 		call	_Z9putStringPKc@plt
 1283      E7800000 
 1284              	.LVL181:
  26:src/../h/my_console.h ****     putString("   ===========================");
 1285              		.loc 2 26 5 is_stmt 1
  26:src/../h/my_console.h ****     putString("   ===========================");
 1286              		.loc 2 26 11 is_stmt 0
 1287 08f0 1305700B 		li	a0,183
 1288 08f4 97000000 		call	_Z6putInti@plt
 1288      E7800000 
 1289              	.LVL182:
  27:src/../h/my_console.h ****     putNewline();
 1290              		.loc 2 27 5 is_stmt 1
  27:src/../h/my_console.h ****     putNewline();
 1291              		.loc 2 27 14 is_stmt 0
 1292 08fc 17050000 		lla	a0,.LC3
 1292      13050500 
 1293 0904 97000000 		call	_Z9putStringPKc@plt
 1293      E7800000 
 1294              	.LVL183:
  28:src/../h/my_console.h **** 
GAS LISTING /tmp/ccJoyKRG.s 			page 35


 1295              		.loc 2 28 5 is_stmt 1
  28:src/../h/my_console.h **** 
 1296              		.loc 2 28 15 is_stmt 0
 1297 090c 97000000 		call	_Z10putNewlinev@plt
 1297      E7800000 
 1298              	.LVL184:
 1299              		.loc 2 30 5 is_stmt 1
 1300              		.loc 2 30 15 is_stmt 0
 1301 0914 97000000 		call	_Z10stopKernelv@plt
 1301      E7800000 
 1302              	.LVL185:
 1303              	.LBE91:
 1304              	.LBE90:
 1305              		.cfi_endproc
 1306              	.LFE18:
 1308              		.section	.rodata.str1.8
 1309 00f3 00000000 		.align	3
 1309      00
 1310              	.LC8:
 1311 00f8 3D3D3D20 		.string	"=== Testing \"testSystemCalls\""
 1311      54657374 
 1311      696E6720 
 1311      22746573 
 1311      74537973 
 1312 0116 0000     		.align	3
 1313              	.LC9:
 1314 0118 74657374 		.string	"test_call() error. i="
 1314      5F63616C 
 1314      6C282920 
 1314      6572726F 
 1314      722E2069 
 1315 012e 0000     		.align	3
 1316              	.LC10:
 1317 0130 20666962 		.string	" fib(i)="
 1317      2869293D 
 1317      00
 1318 0139 00000000 		.align	3
 1318      000000
 1319              	.LC11:
 1320 0140 20746573 		.string	" test_call(i)="
 1320      745F6361 
 1320      6C6C2869 
 1320      293D00
 1321 014f 00       		.align	3
 1322              	.LC12:
 1323 0150 3D3D3D20 		.string	"=== PASS in testing system calls"
 1323      50415353 
 1323      20696E20 
 1323      74657374 
 1323      696E6720 
 1324              		.text
 1325              		.align	2
 1326              		.globl	_Z15testSystemCallsv
 1328              	_Z15testSystemCallsv:
 1329              	.LFB20:
 195:src/APP.cpp   **** 
 196:src/APP.cpp   **** void testSystemCalls()
GAS LISTING /tmp/ccJoyKRG.s 			page 36


 197:src/APP.cpp   **** {
 1330              		.loc 1 197 1 is_stmt 1
 1331              		.cfi_startproc
 1332 091c 130101FB 		addi	sp,sp,-80
 1333              		.cfi_def_cfa_offset 80
 1334 0920 23341104 		sd	ra,72(sp)
 1335 0924 23308104 		sd	s0,64(sp)
 1336 0928 233C9102 		sd	s1,56(sp)
 1337 092c 23382103 		sd	s2,48(sp)
 1338 0930 23343103 		sd	s3,40(sp)
 1339 0934 23304103 		sd	s4,32(sp)
 1340 0938 233C5101 		sd	s5,24(sp)
 1341 093c 23386101 		sd	s6,16(sp)
 1342 0940 23347101 		sd	s7,8(sp)
 1343              		.cfi_offset 1, -8
 1344              		.cfi_offset 8, -16
 1345              		.cfi_offset 9, -24
 1346              		.cfi_offset 18, -32
 1347              		.cfi_offset 19, -40
 1348              		.cfi_offset 20, -48
 1349              		.cfi_offset 21, -56
 1350              		.cfi_offset 22, -64
 1351              		.cfi_offset 23, -72
 1352 0944 13040105 		addi	s0,sp,80
 1353              		.cfi_def_cfa 8, 0
 198:src/APP.cpp   ****     putString("=== Testing \"testSystemCalls\"");
 1354              		.loc 1 198 5
 1355              		.loc 1 198 14 is_stmt 0
 1356 0948 17050000 		lla	a0,.LC8
 1356      13050500 
 1357 0950 97000000 		call	_Z9putStringPKc@plt
 1357      E7800000 
 1358              	.LVL186:
 199:src/APP.cpp   ****     putNewline();
 1359              		.loc 1 199 5 is_stmt 1
 1360              		.loc 1 199 15 is_stmt 0
 1361 0958 97000000 		call	_Z10putNewlinev@plt
 1361      E7800000 
 1362              	.LVL187:
 200:src/APP.cpp   **** 
 201:src/APP.cpp   ****     int a = 0;
 1363              		.loc 1 201 5 is_stmt 1
 202:src/APP.cpp   ****     int b = 0;
 1364              		.loc 1 202 5
 203:src/APP.cpp   **** 
 204:src/APP.cpp   ****     for(int i=1; i<10; i++)
 1365              		.loc 1 204 5
 1366              	.LBB98:
 1367              		.loc 1 204 13 is_stmt 0
 1368 0960 93041000 		li	s1,1
 1369              	.LBE98:
 202:src/APP.cpp   ****     int b = 0;
 1370              		.loc 1 202 9
 1371 0964 930A0000 		li	s5,0
 201:src/APP.cpp   ****     int b = 0;
 1372              		.loc 1 201 9
 1373 0968 130A0000 		li	s4,0
GAS LISTING /tmp/ccJoyKRG.s 			page 37


 1374              	.LVL188:
 1375              	.L70:
 1376              	.LBB108:
 1377              		.loc 1 204 19 is_stmt 1 discriminator 1
 1378 096c 93079000 		li	a5,9
 1379 0970 63CC9714 		bgt	s1,a5,.L67
 1380              	.LBB99:
 205:src/APP.cpp   ****     {
 206:src/APP.cpp   ****         a++;
 1381              		.loc 1 206 9
 1382              		.loc 1 206 10 is_stmt 0
 1383 0974 1B0B1A00 		addiw	s6,s4,1
 1384              	.LVL189:
 207:src/APP.cpp   ****         b++;
 1385              		.loc 1 207 9 is_stmt 1
 1386              		.loc 1 207 10 is_stmt 0
 1387 0978 9B8B1A00 		addiw	s7,s5,1
 1388              	.LVL190:
 208:src/APP.cpp   **** 
 209:src/APP.cpp   ****         uint64 called = test_call(i);
 1389              		.loc 1 209 9 is_stmt 1
 1390              		.loc 1 209 34 is_stmt 0
 1391 097c 13850400 		mv	a0,s1
 1392 0980 97000000 		call	_Z9test_callm@plt
 1392      E7800000 
 1393              	.LVL191:
 1394 0988 13090500 		mv	s2,a0
 1395              	.LVL192:
 210:src/APP.cpp   ****         uint64 actual = fib(i);
 1396              		.loc 1 210 9 is_stmt 1
 1397              		.loc 1 210 28 is_stmt 0
 1398 098c 13850400 		mv	a0,s1
 1399              	.LVL193:
 1400 0990 97000000 		call	_Z3fibm
 1400      E7800000 
 1401              	.LVL194:
 1402 0998 93090500 		mv	s3,a0
 1403              	.LVL195:
 211:src/APP.cpp   **** 
 212:src/APP.cpp   ****         if(called != actual)
 1404              		.loc 1 212 9 is_stmt 1
 1405 099c 631CA900 		bne	s2,a0,.L72
 213:src/APP.cpp   ****         {
 214:src/APP.cpp   ****             putString("test_call() error. i=");
 215:src/APP.cpp   ****             putInt(i);
 216:src/APP.cpp   ****             putString(" fib(i)=");
 217:src/APP.cpp   ****             putU64(actual);
 218:src/APP.cpp   ****             putString(" test_call(i)=");
 219:src/APP.cpp   ****             putU64(called);
 220:src/APP.cpp   ****             putNewline();
 221:src/APP.cpp   ****             assert(false);
 222:src/APP.cpp   ****         }
 223:src/APP.cpp   **** 
 224:src/APP.cpp   ****         assert(a == b);
 1406              		.loc 1 224 9 discriminator 2
 1407              	.LVL196:
 1408              	.LBB100:
GAS LISTING /tmp/ccJoyKRG.s 			page 38


 1409              	.LBB101:
  20:src/../h/my_console.h ****         return;
 1410              		.loc 2 20 5 discriminator 2
 1411 09a0 63165A0D 		bne	s4,s5,.L73
  21:src/../h/my_console.h **** 
 1412              		.loc 2 21 9 discriminator 2
 1413              	.LVL197:
 1414              	.LBE101:
 1415              	.LBE100:
 1416              	.LBE99:
 204:src/APP.cpp   ****     {
 1417              		.loc 1 204 5 discriminator 2
 1418 09a4 9B841400 		addiw	s1,s1,1
 1419              	.LVL198:
 1420              	.LBB106:
 207:src/APP.cpp   **** 
 1421              		.loc 1 207 10 is_stmt 0 discriminator 2
 1422 09a8 938A0B00 		mv	s5,s7
 1423              	.LVL199:
 206:src/APP.cpp   ****         b++;
 1424              		.loc 1 206 10 discriminator 2
 1425 09ac 130A0B00 		mv	s4,s6
 1426              	.LVL200:
 1427              	.LBE106:
 204:src/APP.cpp   ****     {
 1428              		.loc 1 204 5 discriminator 2
 1429 09b0 6FF0DFFB 		j	.L70
 1430              	.LVL201:
 1431              	.L72:
 1432              	.LBB107:
 214:src/APP.cpp   ****             putInt(i);
 1433              		.loc 1 214 13 is_stmt 1
 214:src/APP.cpp   ****             putInt(i);
 1434              		.loc 1 214 22 is_stmt 0
 1435 09b4 17050000 		lla	a0,.LC9
 1435      13050500 
 1436              	.LVL202:
 1437 09bc 97000000 		call	_Z9putStringPKc@plt
 1437      E7800000 
 1438              	.LVL203:
 215:src/APP.cpp   ****             putString(" fib(i)=");
 1439              		.loc 1 215 13 is_stmt 1
 215:src/APP.cpp   ****             putString(" fib(i)=");
 1440              		.loc 1 215 19 is_stmt 0
 1441 09c4 13850400 		mv	a0,s1
 1442 09c8 97000000 		call	_Z6putInti@plt
 1442      E7800000 
 1443              	.LVL204:
 216:src/APP.cpp   ****             putU64(actual);
 1444              		.loc 1 216 13 is_stmt 1
 216:src/APP.cpp   ****             putU64(actual);
 1445              		.loc 1 216 22 is_stmt 0
 1446 09d0 17050000 		lla	a0,.LC10
 1446      13050500 
 1447 09d8 97000000 		call	_Z9putStringPKc@plt
 1447      E7800000 
 1448              	.LVL205:
GAS LISTING /tmp/ccJoyKRG.s 			page 39


 217:src/APP.cpp   ****             putString(" test_call(i)=");
 1449              		.loc 1 217 13 is_stmt 1
 217:src/APP.cpp   ****             putString(" test_call(i)=");
 1450              		.loc 1 217 19 is_stmt 0
 1451 09e0 13850900 		mv	a0,s3
 1452 09e4 97000000 		call	_Z6putU64m@plt
 1452      E7800000 
 1453              	.LVL206:
 218:src/APP.cpp   ****             putU64(called);
 1454              		.loc 1 218 13 is_stmt 1
 218:src/APP.cpp   ****             putU64(called);
 1455              		.loc 1 218 22 is_stmt 0
 1456 09ec 17050000 		lla	a0,.LC11
 1456      13050500 
 1457 09f4 97000000 		call	_Z9putStringPKc@plt
 1457      E7800000 
 1458              	.LVL207:
 219:src/APP.cpp   ****             putNewline();
 1459              		.loc 1 219 13 is_stmt 1
 219:src/APP.cpp   ****             putNewline();
 1460              		.loc 1 219 19 is_stmt 0
 1461 09fc 13050900 		mv	a0,s2
 1462 0a00 97000000 		call	_Z6putU64m@plt
 1462      E7800000 
 1463              	.LVL208:
 220:src/APP.cpp   ****             assert(false);
 1464              		.loc 1 220 13 is_stmt 1
 220:src/APP.cpp   ****             assert(false);
 1465              		.loc 1 220 23 is_stmt 0
 1466 0a08 97000000 		call	_Z10putNewlinev@plt
 1466      E7800000 
 1467              	.LVL209:
 221:src/APP.cpp   ****         }
 1468              		.loc 1 221 13 is_stmt 1
 1469              	.LBB103:
 1470              	.LBB104:
  20:src/../h/my_console.h ****         return;
 1471              		.loc 2 20 5
  23:src/../h/my_console.h ****     putString(file);
 1472              		.loc 2 23 5
  23:src/../h/my_console.h ****     putString(file);
 1473              		.loc 2 23 14 is_stmt 0
 1474 0a10 17050000 		lla	a0,.LC0
 1474      13050500 
 1475 0a18 97000000 		call	_Z9putStringPKc@plt
 1475      E7800000 
 1476              	.LVL210:
  24:src/../h/my_console.h ****     putString("    line: ");
 1477              		.loc 2 24 5 is_stmt 1
  24:src/../h/my_console.h ****     putString("    line: ");
 1478              		.loc 2 24 14 is_stmt 0
 1479 0a20 17050000 		lla	a0,.LC1
 1479      13050500 
 1480 0a28 97000000 		call	_Z9putStringPKc@plt
 1480      E7800000 
 1481              	.LVL211:
  25:src/../h/my_console.h ****     putInt(line);
GAS LISTING /tmp/ccJoyKRG.s 			page 40


 1482              		.loc 2 25 5 is_stmt 1
  25:src/../h/my_console.h ****     putInt(line);
 1483              		.loc 2 25 14 is_stmt 0
 1484 0a30 17050000 		lla	a0,.LC2
 1484      13050500 
 1485 0a38 97000000 		call	_Z9putStringPKc@plt
 1485      E7800000 
 1486              	.LVL212:
  26:src/../h/my_console.h ****     putString("   ===========================");
 1487              		.loc 2 26 5 is_stmt 1
  26:src/../h/my_console.h ****     putString("   ===========================");
 1488              		.loc 2 26 11 is_stmt 0
 1489 0a40 1305D00D 		li	a0,221
 1490 0a44 97000000 		call	_Z6putInti@plt
 1490      E7800000 
 1491              	.LVL213:
  27:src/../h/my_console.h ****     putNewline();
 1492              		.loc 2 27 5 is_stmt 1
  27:src/../h/my_console.h ****     putNewline();
 1493              		.loc 2 27 14 is_stmt 0
 1494 0a4c 17050000 		lla	a0,.LC3
 1494      13050500 
 1495 0a54 97000000 		call	_Z9putStringPKc@plt
 1495      E7800000 
 1496              	.LVL214:
  28:src/../h/my_console.h **** 
 1497              		.loc 2 28 5 is_stmt 1
  28:src/../h/my_console.h **** 
 1498              		.loc 2 28 15 is_stmt 0
 1499 0a5c 97000000 		call	_Z10putNewlinev@plt
 1499      E7800000 
 1500              	.LVL215:
 1501              		.loc 2 30 5 is_stmt 1
 1502              		.loc 2 30 15 is_stmt 0
 1503 0a64 97000000 		call	_Z10stopKernelv@plt
 1503      E7800000 
 1504              	.LVL216:
 1505              	.L73:
 1506              	.LBE104:
 1507              	.LBE103:
 1508              	.LBB105:
 1509              	.LBB102:
  23:src/../h/my_console.h ****     putString(file);
 1510              		.loc 2 23 5 is_stmt 1
  23:src/../h/my_console.h ****     putString(file);
 1511              		.loc 2 23 14 is_stmt 0
 1512 0a6c 17050000 		lla	a0,.LC0
 1512      13050500 
 1513              	.LVL217:
 1514 0a74 97000000 		call	_Z9putStringPKc@plt
 1514      E7800000 
 1515              	.LVL218:
  24:src/../h/my_console.h ****     putString("    line: ");
 1516              		.loc 2 24 5 is_stmt 1
  24:src/../h/my_console.h ****     putString("    line: ");
 1517              		.loc 2 24 14 is_stmt 0
 1518 0a7c 17050000 		lla	a0,.LC1
GAS LISTING /tmp/ccJoyKRG.s 			page 41


 1518      13050500 
 1519 0a84 97000000 		call	_Z9putStringPKc@plt
 1519      E7800000 
 1520              	.LVL219:
  25:src/../h/my_console.h ****     putInt(line);
 1521              		.loc 2 25 5 is_stmt 1
  25:src/../h/my_console.h ****     putInt(line);
 1522              		.loc 2 25 14 is_stmt 0
 1523 0a8c 17050000 		lla	a0,.LC2
 1523      13050500 
 1524 0a94 97000000 		call	_Z9putStringPKc@plt
 1524      E7800000 
 1525              	.LVL220:
  26:src/../h/my_console.h ****     putString("   ===========================");
 1526              		.loc 2 26 5 is_stmt 1
  26:src/../h/my_console.h ****     putString("   ===========================");
 1527              		.loc 2 26 11 is_stmt 0
 1528 0a9c 1305000E 		li	a0,224
 1529 0aa0 97000000 		call	_Z6putInti@plt
 1529      E7800000 
 1530              	.LVL221:
  27:src/../h/my_console.h ****     putNewline();
 1531              		.loc 2 27 5 is_stmt 1
  27:src/../h/my_console.h ****     putNewline();
 1532              		.loc 2 27 14 is_stmt 0
 1533 0aa8 17050000 		lla	a0,.LC3
 1533      13050500 
 1534 0ab0 97000000 		call	_Z9putStringPKc@plt
 1534      E7800000 
 1535              	.LVL222:
  28:src/../h/my_console.h **** 
 1536              		.loc 2 28 5 is_stmt 1
  28:src/../h/my_console.h **** 
 1537              		.loc 2 28 15 is_stmt 0
 1538 0ab8 97000000 		call	_Z10putNewlinev@plt
 1538      E7800000 
 1539              	.LVL223:
 1540              		.loc 2 30 5 is_stmt 1
 1541              		.loc 2 30 15 is_stmt 0
 1542 0ac0 97000000 		call	_Z10stopKernelv@plt
 1542      E7800000 
 1543              	.LVL224:
 1544              	.L67:
 1545              	.LBE102:
 1546              	.LBE105:
 1547              	.LBE107:
 1548              	.LBE108:
 225:src/APP.cpp   ****     }
 226:src/APP.cpp   **** 
 227:src/APP.cpp   **** //    assert(MemAlloc::get()->getUserlandUsage() == IThread::initialUserMemoryUsage);
 228:src/APP.cpp   ****     putString("=== PASS in testing system calls");
 1549              		.loc 1 228 5 is_stmt 1
 1550              		.loc 1 228 14 is_stmt 0
 1551 0ac8 17050000 		lla	a0,.LC12
 1551      13050500 
 1552 0ad0 97000000 		call	_Z9putStringPKc@plt
 1552      E7800000 
GAS LISTING /tmp/ccJoyKRG.s 			page 42


 1553              	.LVL225:
 229:src/APP.cpp   ****     putNewline();
 1554              		.loc 1 229 5 is_stmt 1
 1555              		.loc 1 229 15 is_stmt 0
 1556 0ad8 97000000 		call	_Z10putNewlinev@plt
 1556      E7800000 
 1557              	.LVL226:
 230:src/APP.cpp   **** }
 1558              		.loc 1 230 1
 1559 0ae0 83308104 		ld	ra,72(sp)
 1560              		.cfi_restore 1
 1561 0ae4 03340104 		ld	s0,64(sp)
 1562              		.cfi_restore 8
 1563              		.cfi_def_cfa 2, 80
 1564 0ae8 83348103 		ld	s1,56(sp)
 1565              		.cfi_restore 9
 1566              	.LVL227:
 1567 0aec 03390103 		ld	s2,48(sp)
 1568              		.cfi_restore 18
 1569 0af0 83398102 		ld	s3,40(sp)
 1570              		.cfi_restore 19
 1571 0af4 033A0102 		ld	s4,32(sp)
 1572              		.cfi_restore 20
 1573              	.LVL228:
 1574 0af8 833A8101 		ld	s5,24(sp)
 1575              		.cfi_restore 21
 1576              	.LVL229:
 1577 0afc 033B0101 		ld	s6,16(sp)
 1578              		.cfi_restore 22
 1579 0b00 833B8100 		ld	s7,8(sp)
 1580              		.cfi_restore 23
 1581 0b04 13010105 		addi	sp,sp,80
 1582              		.cfi_def_cfa_offset 0
 1583 0b08 67800000 		jr	ra
 1584              		.cfi_endproc
 1585              	.LFE20:
 1587              		.section	.rodata.str1.8
 1588 0171 00000000 		.align	3
 1588      000000
 1589              	.LC13:
 1590 0178 3D3D3D20 		.string	"=== Testing \"testMemoryAllocator\""
 1590      54657374 
 1590      696E6720 
 1590      22746573 
 1590      744D656D 
 1591 019a 00000000 		.align	3
 1591      0000
 1592              	.LC14:
 1593 01a0 3D3D3D20 		.string	"=== PASS in testing memory allocator"
 1593      50415353 
 1593      20696E20 
 1593      74657374 
 1593      696E6720 
 1594              		.text
 1595              		.align	2
 1596              		.globl	_Z19testMemoryAllocatorv
 1598              	_Z19testMemoryAllocatorv:
GAS LISTING /tmp/ccJoyKRG.s 			page 43


 1599              	.LFB21:
 231:src/APP.cpp   **** 
 232:src/APP.cpp   **** void testMemoryAllocator()
 233:src/APP.cpp   **** {
 1600              		.loc 1 233 1 is_stmt 1
 1601              		.cfi_startproc
 1602 0b0c 130101FD 		addi	sp,sp,-48
 1603              		.cfi_def_cfa_offset 48
 1604 0b10 23341102 		sd	ra,40(sp)
 1605 0b14 23308102 		sd	s0,32(sp)
 1606 0b18 233C9100 		sd	s1,24(sp)
 1607 0b1c 23382101 		sd	s2,16(sp)
 1608 0b20 23343101 		sd	s3,8(sp)
 1609              		.cfi_offset 1, -8
 1610              		.cfi_offset 8, -16
 1611              		.cfi_offset 9, -24
 1612              		.cfi_offset 18, -32
 1613              		.cfi_offset 19, -40
 1614 0b24 13040103 		addi	s0,sp,48
 1615              		.cfi_def_cfa 8, 0
 234:src/APP.cpp   ****     putString("=== Testing \"testMemoryAllocator\"");
 1616              		.loc 1 234 5
 1617              		.loc 1 234 14 is_stmt 0
 1618 0b28 17050000 		lla	a0,.LC13
 1618      13050500 
 1619 0b30 97000000 		call	_Z9putStringPKc@plt
 1619      E7800000 
 1620              	.LVL230:
 235:src/APP.cpp   ****     putNewline();
 1621              		.loc 1 235 5 is_stmt 1
 1622              		.loc 1 235 15 is_stmt 0
 1623 0b38 97000000 		call	_Z10putNewlinev@plt
 1623      E7800000 
 1624              	.LVL231:
 236:src/APP.cpp   ****     int n = 1000;
 1625              		.loc 1 236 5 is_stmt 1
 237:src/APP.cpp   ****     int **a;
 1626              		.loc 1 237 5
 238:src/APP.cpp   ****     a = (int**)mem_alloc(n * sizeof(void*));
 1627              		.loc 1 238 5
 1628              		.loc 1 238 25 is_stmt 0
 1629 0b40 37250000 		li	a0,8192
 1630 0b44 130505F4 		addi	a0,a0,-192
 1631 0b48 97000000 		call	_Z9mem_allocm@plt
 1631      E7800000 
 1632              	.LVL232:
 1633 0b50 93090500 		mv	s3,a0
 1634              	.LVL233:
 239:src/APP.cpp   ****     for(int i=0; i<n; i++)
 1635              		.loc 1 239 5 is_stmt 1
 1636              	.LBB118:
 1637              		.loc 1 239 13 is_stmt 0
 1638 0b54 93040000 		li	s1,0
 1639              	.LVL234:
 1640              	.L76:
 1641              		.loc 1 239 19 is_stmt 1 discriminator 3
 1642 0b58 9307703E 		li	a5,999
GAS LISTING /tmp/ccJoyKRG.s 			page 44


 1643 0b5c 63C49702 		bgt	s1,a5,.L82
 240:src/APP.cpp   ****     {
 241:src/APP.cpp   ****         a[i] = (int*)mem_alloc(sizeof(int));
 1644              		.loc 1 241 9 discriminator 2
 1645              		.loc 1 241 12 is_stmt 0 discriminator 2
 1646 0b60 13993400 		slli	s2,s1,3
 1647 0b64 33892901 		add	s2,s3,s2
 1648              		.loc 1 241 31 discriminator 2
 1649 0b68 13054000 		li	a0,4
 1650 0b6c 97000000 		call	_Z9mem_allocm@plt
 1650      E7800000 
 1651              	.LVL235:
 1652              		.loc 1 241 14 discriminator 2
 1653 0b74 2330A900 		sd	a0,0(s2)
 242:src/APP.cpp   ****         *a[i] = i;
 1654              		.loc 1 242 9 is_stmt 1 discriminator 2
 1655              		.loc 1 242 15 is_stmt 0 discriminator 2
 1656 0b78 23209500 		sw	s1,0(a0)
 239:src/APP.cpp   ****     for(int i=0; i<n; i++)
 1657              		.loc 1 239 5 is_stmt 1 discriminator 2
 1658 0b7c 9B841400 		addiw	s1,s1,1
 1659              	.LVL236:
 1660 0b80 6FF09FFD 		j	.L76
 1661              	.LVL237:
 1662              	.L82:
 1663              	.LBE118:
 1664              	.LBB119:
 243:src/APP.cpp   ****     }
 244:src/APP.cpp   **** 
 245:src/APP.cpp   ****     int result = 0;
 246:src/APP.cpp   ****     for(int i=0; i<n; i++)
 1665              		.loc 1 246 13 is_stmt 0
 1666 0b84 93070000 		li	a5,0
 1667              	.LBE119:
 245:src/APP.cpp   ****     for(int i=0; i<n; i++)
 1668              		.loc 1 245 9
 1669 0b88 93060000 		li	a3,0
 1670              	.L75:
 1671              	.LVL238:
 1672              	.LBB120:
 1673              		.loc 1 246 19 is_stmt 1 discriminator 3
 1674 0b8c 1307703E 		li	a4,999
 1675 0b90 6340F702 		bgt	a5,a4,.L77
 247:src/APP.cpp   ****     {
 248:src/APP.cpp   ****         result += *a[i];
 1676              		.loc 1 248 9 discriminator 2
 1677              		.loc 1 248 23 is_stmt 0 discriminator 2
 1678 0b94 13973700 		slli	a4,a5,3
 1679 0b98 3387E900 		add	a4,s3,a4
 1680 0b9c 03370700 		ld	a4,0(a4)
 1681              		.loc 1 248 19 discriminator 2
 1682 0ba0 03270700 		lw	a4,0(a4)
 1683              		.loc 1 248 16 discriminator 2
 1684 0ba4 BB06D700 		addw	a3,a4,a3
 1685              	.LVL239:
 246:src/APP.cpp   ****     {
 1686              		.loc 1 246 5 is_stmt 1 discriminator 2
GAS LISTING /tmp/ccJoyKRG.s 			page 45


 1687 0ba8 9B871700 		addiw	a5,a5,1
 1688              	.LVL240:
 1689 0bac 6FF01FFE 		j	.L75
 1690              	.LVL241:
 1691              	.L77:
 1692              	.LBE120:
 249:src/APP.cpp   ****     }
 250:src/APP.cpp   **** 
 251:src/APP.cpp   **** //    uint64 vau = n * sizeof(void*);
 252:src/APP.cpp   **** //    if(n % MEM_BLOCK_SIZE != 0)
 253:src/APP.cpp   **** //        vau +=  MEM_BLOCK_SIZE - ((sizeof(int)* n) % MEM_BLOCK_SIZE);
 254:src/APP.cpp   **** //    vau += MEM_BLOCK_SIZE * n;
 255:src/APP.cpp   **** //    assert(MemAlloc::get()->getUserlandUsage() == vau);
 256:src/APP.cpp   **** 
 257:src/APP.cpp   **** //    putInt(result);
 258:src/APP.cpp   **** //    putNewline();
 259:src/APP.cpp   **** 
 260:src/APP.cpp   ****     assert(result == (n-1) * n / 2);
 1693              		.loc 1 260 5
 1694 0bb0 B7A70700 		li	a5,499712
 1695              	.LVL242:
 1696 0bb4 9387C7F2 		addi	a5,a5,-212
 1697              	.LVL243:
 1698              	.LBB121:
 1699              	.LBB122:
  20:src/../h/my_console.h ****         return;
 1700              		.loc 2 20 5
 1701 0bb8 6398F602 		bne	a3,a5,.L85
 1702              	.LBE122:
 1703              	.LBE121:
 1704              	.LBB124:
 261:src/APP.cpp   **** 
 262:src/APP.cpp   **** //    uint64 oldTaken = MemAlloc::get()->getUserlandUsage();
 263:src/APP.cpp   **** //    uint64 newTaken;
 264:src/APP.cpp   **** 
 265:src/APP.cpp   ****     int t;
 266:src/APP.cpp   ****     for(int i=0; i<n; i++)
 1705              		.loc 1 266 13 is_stmt 0
 1706 0bbc 93040000 		li	s1,0
 1707              	.LVL244:
 1708              	.L78:
 1709              		.loc 1 266 19 is_stmt 1 discriminator 3
 1710 0bc0 9307703E 		li	a5,999
 1711 0bc4 63CE970C 		bgt	s1,a5,.L79
 267:src/APP.cpp   ****     {
 268:src/APP.cpp   ****         t = mem_free(a[i]);
 1712              		.loc 1 268 9 discriminator 2
 1713              		.loc 1 268 25 is_stmt 0 discriminator 2
 1714 0bc8 93973400 		slli	a5,s1,3
 1715 0bcc B387F900 		add	a5,s3,a5
 1716              		.loc 1 268 21 discriminator 2
 1717 0bd0 03B50700 		ld	a0,0(a5)
 1718 0bd4 97000000 		call	_Z8mem_freePv@plt
 1718      E7800000 
 1719              	.LVL245:
 269:src/APP.cpp   ****         assert(t == 0);
 1720              		.loc 1 269 9 is_stmt 1 discriminator 2
GAS LISTING /tmp/ccJoyKRG.s 			page 46


 1721              	.LBB125:
 1722              	.LBB126:
  20:src/../h/my_console.h ****         return;
 1723              		.loc 2 20 5 discriminator 2
 1724 0bdc 63140506 		bnez	a0,.L86
  21:src/../h/my_console.h **** 
 1725              		.loc 2 21 9 discriminator 2
 1726              	.LVL246:
 1727              	.LBE126:
 1728              	.LBE125:
 266:src/APP.cpp   ****     {
 1729              		.loc 1 266 5 discriminator 2
 1730 0be0 9B841400 		addiw	s1,s1,1
 1731              	.LVL247:
 1732 0be4 6FF0DFFD 		j	.L78
 1733              	.LVL248:
 1734              	.L85:
 1735              	.LBE124:
 1736              	.LBB129:
 1737              	.LBB123:
  23:src/../h/my_console.h ****     putString(file);
 1738              		.loc 2 23 5
  23:src/../h/my_console.h ****     putString(file);
 1739              		.loc 2 23 14 is_stmt 0
 1740 0be8 17050000 		lla	a0,.LC0
 1740      13050500 
 1741 0bf0 97000000 		call	_Z9putStringPKc@plt
 1741      E7800000 
 1742              	.LVL249:
  24:src/../h/my_console.h ****     putString("    line: ");
 1743              		.loc 2 24 5 is_stmt 1
  24:src/../h/my_console.h ****     putString("    line: ");
 1744              		.loc 2 24 14 is_stmt 0
 1745 0bf8 17050000 		lla	a0,.LC1
 1745      13050500 
 1746 0c00 97000000 		call	_Z9putStringPKc@plt
 1746      E7800000 
 1747              	.LVL250:
  25:src/../h/my_console.h ****     putInt(line);
 1748              		.loc 2 25 5 is_stmt 1
  25:src/../h/my_console.h ****     putInt(line);
 1749              		.loc 2 25 14 is_stmt 0
 1750 0c08 17050000 		lla	a0,.LC2
 1750      13050500 
 1751 0c10 97000000 		call	_Z9putStringPKc@plt
 1751      E7800000 
 1752              	.LVL251:
  26:src/../h/my_console.h ****     putString("   ===========================");
 1753              		.loc 2 26 5 is_stmt 1
  26:src/../h/my_console.h ****     putString("   ===========================");
 1754              		.loc 2 26 11 is_stmt 0
 1755 0c18 13054010 		li	a0,260
 1756 0c1c 97000000 		call	_Z6putInti@plt
 1756      E7800000 
 1757              	.LVL252:
  27:src/../h/my_console.h ****     putNewline();
 1758              		.loc 2 27 5 is_stmt 1
GAS LISTING /tmp/ccJoyKRG.s 			page 47


  27:src/../h/my_console.h ****     putNewline();
 1759              		.loc 2 27 14 is_stmt 0
 1760 0c24 17050000 		lla	a0,.LC3
 1760      13050500 
 1761 0c2c 97000000 		call	_Z9putStringPKc@plt
 1761      E7800000 
 1762              	.LVL253:
  28:src/../h/my_console.h **** 
 1763              		.loc 2 28 5 is_stmt 1
  28:src/../h/my_console.h **** 
 1764              		.loc 2 28 15 is_stmt 0
 1765 0c34 97000000 		call	_Z10putNewlinev@plt
 1765      E7800000 
 1766              	.LVL254:
 1767              		.loc 2 30 5 is_stmt 1
 1768              		.loc 2 30 15 is_stmt 0
 1769 0c3c 97000000 		call	_Z10stopKernelv@plt
 1769      E7800000 
 1770              	.LVL255:
 1771              	.L86:
 1772              	.LBE123:
 1773              	.LBE129:
 1774              	.LBB130:
 1775              	.LBB128:
 1776              	.LBB127:
  23:src/../h/my_console.h ****     putString(file);
 1777              		.loc 2 23 5 is_stmt 1
  23:src/../h/my_console.h ****     putString(file);
 1778              		.loc 2 23 14 is_stmt 0
 1779 0c44 17050000 		lla	a0,.LC0
 1779      13050500 
 1780              	.LVL256:
 1781 0c4c 97000000 		call	_Z9putStringPKc@plt
 1781      E7800000 
 1782              	.LVL257:
  24:src/../h/my_console.h ****     putString("    line: ");
 1783              		.loc 2 24 5 is_stmt 1
  24:src/../h/my_console.h ****     putString("    line: ");
 1784              		.loc 2 24 14 is_stmt 0
 1785 0c54 17050000 		lla	a0,.LC1
 1785      13050500 
 1786 0c5c 97000000 		call	_Z9putStringPKc@plt
 1786      E7800000 
 1787              	.LVL258:
  25:src/../h/my_console.h ****     putInt(line);
 1788              		.loc 2 25 5 is_stmt 1
  25:src/../h/my_console.h ****     putInt(line);
 1789              		.loc 2 25 14 is_stmt 0
 1790 0c64 17050000 		lla	a0,.LC2
 1790      13050500 
 1791 0c6c 97000000 		call	_Z9putStringPKc@plt
 1791      E7800000 
 1792              	.LVL259:
  26:src/../h/my_console.h ****     putString("   ===========================");
 1793              		.loc 2 26 5 is_stmt 1
  26:src/../h/my_console.h ****     putString("   ===========================");
 1794              		.loc 2 26 11 is_stmt 0
GAS LISTING /tmp/ccJoyKRG.s 			page 48


 1795 0c74 1305D010 		li	a0,269
 1796 0c78 97000000 		call	_Z6putInti@plt
 1796      E7800000 
 1797              	.LVL260:
  27:src/../h/my_console.h ****     putNewline();
 1798              		.loc 2 27 5 is_stmt 1
  27:src/../h/my_console.h ****     putNewline();
 1799              		.loc 2 27 14 is_stmt 0
 1800 0c80 17050000 		lla	a0,.LC3
 1800      13050500 
 1801 0c88 97000000 		call	_Z9putStringPKc@plt
 1801      E7800000 
 1802              	.LVL261:
  28:src/../h/my_console.h **** 
 1803              		.loc 2 28 5 is_stmt 1
  28:src/../h/my_console.h **** 
 1804              		.loc 2 28 15 is_stmt 0
 1805 0c90 97000000 		call	_Z10putNewlinev@plt
 1805      E7800000 
 1806              	.LVL262:
 1807              		.loc 2 30 5 is_stmt 1
 1808              		.loc 2 30 15 is_stmt 0
 1809 0c98 97000000 		call	_Z10stopKernelv@plt
 1809      E7800000 
 1810              	.LVL263:
 1811              	.L79:
 1812              	.LBE127:
 1813              	.LBE128:
 1814              	.LBE130:
 270:src/APP.cpp   **** 
 271:src/APP.cpp   **** //        newTaken = MemAlloc::get()->getUserlandUsage();
 272:src/APP.cpp   **** //        assert(oldTaken - newTaken == MEM_BLOCK_SIZE);
 273:src/APP.cpp   ****     }
 274:src/APP.cpp   **** 
 275:src/APP.cpp   **** //    assert(MemAlloc::get()->getUserlandUsage() == MEM_BLOCK_SIZE);
 276:src/APP.cpp   **** 
 277:src/APP.cpp   ****     t = mem_free(a);
 1815              		.loc 1 277 5 is_stmt 1
 1816              		.loc 1 277 17 is_stmt 0
 1817 0ca0 13850900 		mv	a0,s3
 1818 0ca4 97000000 		call	_Z8mem_freePv@plt
 1818      E7800000 
 1819              	.LVL264:
 278:src/APP.cpp   ****     assert(t == 0);
 1820              		.loc 1 278 5 is_stmt 1
 1821              	.LBB131:
 1822              	.LBB132:
  20:src/../h/my_console.h ****         return;
 1823              		.loc 2 20 5
 1824 0cac 631C0502 		bnez	a0,.L87
  21:src/../h/my_console.h **** 
 1825              		.loc 2 21 9
 1826              	.LVL265:
 1827              	.LBE132:
 1828              	.LBE131:
 279:src/APP.cpp   **** 
 280:src/APP.cpp   **** //    assert(MemAlloc::get()->getUserlandUsage() == IThread::initialUserMemoryUsage);
GAS LISTING /tmp/ccJoyKRG.s 			page 49


 281:src/APP.cpp   ****     putString("=== PASS in testing memory allocator");
 1829              		.loc 1 281 5
 1830              		.loc 1 281 14 is_stmt 0
 1831 0cb0 17050000 		lla	a0,.LC14
 1831      13050500 
 1832              	.LVL266:
 1833 0cb8 97000000 		call	_Z9putStringPKc@plt
 1833      E7800000 
 1834              	.LVL267:
 282:src/APP.cpp   ****     putNewline();
 1835              		.loc 1 282 5 is_stmt 1
 1836              		.loc 1 282 15 is_stmt 0
 1837 0cc0 97000000 		call	_Z10putNewlinev@plt
 1837      E7800000 
 1838              	.LVL268:
 283:src/APP.cpp   **** }
 1839              		.loc 1 283 1
 1840 0cc8 83308102 		ld	ra,40(sp)
 1841              		.cfi_remember_state
 1842              		.cfi_restore 1
 1843 0ccc 03340102 		ld	s0,32(sp)
 1844              		.cfi_restore 8
 1845              		.cfi_def_cfa 2, 48
 1846 0cd0 83348101 		ld	s1,24(sp)
 1847              		.cfi_restore 9
 1848              	.LVL269:
 1849 0cd4 03390101 		ld	s2,16(sp)
 1850              		.cfi_restore 18
 1851 0cd8 83398100 		ld	s3,8(sp)
 1852              		.cfi_restore 19
 1853              	.LVL270:
 1854 0cdc 13010103 		addi	sp,sp,48
 1855              		.cfi_def_cfa_offset 0
 1856 0ce0 67800000 		jr	ra
 1857              	.LVL271:
 1858              	.L87:
 1859              		.cfi_restore_state
 1860              	.LBB134:
 1861              	.LBB133:
  23:src/../h/my_console.h ****     putString(file);
 1862              		.loc 2 23 5 is_stmt 1
  23:src/../h/my_console.h ****     putString(file);
 1863              		.loc 2 23 14 is_stmt 0
 1864 0ce4 17050000 		lla	a0,.LC0
 1864      13050500 
 1865              	.LVL272:
 1866 0cec 97000000 		call	_Z9putStringPKc@plt
 1866      E7800000 
 1867              	.LVL273:
  24:src/../h/my_console.h ****     putString("    line: ");
 1868              		.loc 2 24 5 is_stmt 1
  24:src/../h/my_console.h ****     putString("    line: ");
 1869              		.loc 2 24 14 is_stmt 0
 1870 0cf4 17050000 		lla	a0,.LC1
 1870      13050500 
 1871 0cfc 97000000 		call	_Z9putStringPKc@plt
 1871      E7800000 
GAS LISTING /tmp/ccJoyKRG.s 			page 50


 1872              	.LVL274:
  25:src/../h/my_console.h ****     putInt(line);
 1873              		.loc 2 25 5 is_stmt 1
  25:src/../h/my_console.h ****     putInt(line);
 1874              		.loc 2 25 14 is_stmt 0
 1875 0d04 17050000 		lla	a0,.LC2
 1875      13050500 
 1876 0d0c 97000000 		call	_Z9putStringPKc@plt
 1876      E7800000 
 1877              	.LVL275:
  26:src/../h/my_console.h ****     putString("   ===========================");
 1878              		.loc 2 26 5 is_stmt 1
  26:src/../h/my_console.h ****     putString("   ===========================");
 1879              		.loc 2 26 11 is_stmt 0
 1880 0d14 13056011 		li	a0,278
 1881 0d18 97000000 		call	_Z6putInti@plt
 1881      E7800000 
 1882              	.LVL276:
  27:src/../h/my_console.h ****     putNewline();
 1883              		.loc 2 27 5 is_stmt 1
  27:src/../h/my_console.h ****     putNewline();
 1884              		.loc 2 27 14 is_stmt 0
 1885 0d20 17050000 		lla	a0,.LC3
 1885      13050500 
 1886 0d28 97000000 		call	_Z9putStringPKc@plt
 1886      E7800000 
 1887              	.LVL277:
  28:src/../h/my_console.h **** 
 1888              		.loc 2 28 5 is_stmt 1
  28:src/../h/my_console.h **** 
 1889              		.loc 2 28 15 is_stmt 0
 1890 0d30 97000000 		call	_Z10putNewlinev@plt
 1890      E7800000 
 1891              	.LVL278:
 1892              		.loc 2 30 5 is_stmt 1
 1893              		.loc 2 30 15 is_stmt 0
 1894 0d38 97000000 		call	_Z10stopKernelv@plt
 1894      E7800000 
 1895              	.LVL279:
 1896              	.LBE133:
 1897              	.LBE134:
 1898              		.cfi_endproc
 1899              	.LFE21:
 1901              		.section	.rodata.str1.8
 1902 01c5 000000   		.align	3
 1903              	.LC15:
 1904 01c8 3D3D3D20 		.string	"=== App started"
 1904      41707020 
 1904      73746172 
 1904      74656400 
 1905              		.align	3
 1906              	.LC16:
 1907 01d8 3D3D3D20 		.string	"=== App ended"
 1907      41707020 
 1907      656E6465 
 1907      6400
 1908              		.text
GAS LISTING /tmp/ccJoyKRG.s 			page 51


 1909              		.align	2
 1910              		.globl	_Z10myUserMainv
 1912              	_Z10myUserMainv:
 1913              	.LFB10:
  14:src/APP.cpp   **** //    __asm__ volatile ("csrw sscratch, x1"); // set spie bit to 1. spie signifies that we dont wan
 1914              		.loc 1 14 1 is_stmt 1
 1915              		.cfi_startproc
 1916 0d40 130101FF 		addi	sp,sp,-16
 1917              		.cfi_def_cfa_offset 16
 1918 0d44 23341100 		sd	ra,8(sp)
 1919 0d48 23308100 		sd	s0,0(sp)
 1920              		.cfi_offset 1, -8
 1921              		.cfi_offset 8, -16
 1922 0d4c 13040101 		addi	s0,sp,16
 1923              		.cfi_def_cfa 8, 0
  17:src/APP.cpp   **** 
 1924              		.loc 1 17 5
  17:src/APP.cpp   **** 
 1925              		.loc 1 17 37 is_stmt 0
 1926              	#APP
 1927              	# 17 "src/APP.cpp" 1
  19:src/APP.cpp   ****     putNewline();
 1928              		mv x10, x10
 1929              	# 0 "" 2
 1930              		.loc 1 19 5 is_stmt 1
  19:src/APP.cpp   ****     putNewline();
 1931              		.loc 1 19 14 is_stmt 0
 1932              	#NO_APP
 1933 0d54 17050000 		lla	a0,.LC15
 1933      13050500 
 1934 0d5c 97000000 		call	_Z9putStringPKc@plt
 1934      E7800000 
 1935              	.LVL280:
  20:src/APP.cpp   **** 
 1936              		.loc 1 20 5 is_stmt 1
  20:src/APP.cpp   **** 
 1937              		.loc 1 20 15 is_stmt 0
 1938 0d64 97000000 		call	_Z10putNewlinev@plt
 1938      E7800000 
 1939              	.LVL281:
  22:src/APP.cpp   ****     testMemoryAllocator();
 1940              		.loc 1 22 5 is_stmt 1
  22:src/APP.cpp   ****     testMemoryAllocator();
 1941              		.loc 1 22 20 is_stmt 0
 1942 0d6c 97000000 		call	_Z15testSystemCallsv
 1942      E7800000 
 1943              	.LVL282:
  23:src/APP.cpp   ****     testSyncCall();
 1944              		.loc 1 23 5 is_stmt 1
  23:src/APP.cpp   ****     testSyncCall();
 1945              		.loc 1 23 24 is_stmt 0
 1946 0d74 97000000 		call	_Z19testMemoryAllocatorv
 1946      E7800000 
 1947              	.LVL283:
  24:src/APP.cpp   ****     testTimeSlice();
 1948              		.loc 1 24 5 is_stmt 1
  24:src/APP.cpp   ****     testTimeSlice();
GAS LISTING /tmp/ccJoyKRG.s 			page 52


 1949              		.loc 1 24 17 is_stmt 0
 1950 0d7c 97000000 		call	_Z12testSyncCallv
 1950      E7800000 
 1951              	.LVL284:
  25:src/APP.cpp   **** 
 1952              		.loc 1 25 5 is_stmt 1
  25:src/APP.cpp   **** 
 1953              		.loc 1 25 18 is_stmt 0
 1954 0d84 97000000 		call	_Z13testTimeSlicev
 1954      E7800000 
 1955              	.LVL285:
  27:src/APP.cpp   ****     putNewline();
 1956              		.loc 1 27 5 is_stmt 1
  27:src/APP.cpp   ****     putNewline();
 1957              		.loc 1 27 14 is_stmt 0
 1958 0d8c 17050000 		lla	a0,.LC16
 1958      13050500 
 1959 0d94 97000000 		call	_Z9putStringPKc@plt
 1959      E7800000 
 1960              	.LVL286:
  28:src/APP.cpp   **** }
 1961              		.loc 1 28 5 is_stmt 1
  28:src/APP.cpp   **** }
 1962              		.loc 1 28 15 is_stmt 0
 1963 0d9c 97000000 		call	_Z10putNewlinev@plt
 1963      E7800000 
 1964              	.LVL287:
  29:src/APP.cpp   **** 
 1965              		.loc 1 29 1
 1966 0da4 83308100 		ld	ra,8(sp)
 1967              		.cfi_restore 1
 1968 0da8 03340100 		ld	s0,0(sp)
 1969              		.cfi_restore 8
 1970              		.cfi_def_cfa 2, 16
 1971 0dac 13010101 		addi	sp,sp,16
 1972              		.cfi_def_cfa_offset 0
 1973 0db0 67800000 		jr	ra
 1974              		.cfi_endproc
 1975              	.LFE10:
 1977              		.globl	sliceSecondCounter
 1978              		.globl	sliceFirstCounter
 1979              		.bss
 1980              		.align	2
 1981              		.set	.LANCHOR0,. + 0
 1984              	sliceFirstCounter:
 1985 0000 00000000 		.zero	4
 1988              	sliceSecondCounter:
 1989 0004 00000000 		.zero	4
 1990              		.text
 1991              	.Letext0:
 1992              		.file 3 "src/../h/../lib/hw.h"
 1993              		.file 4 "src/../h/syscall_c.hpp"
 1994              		.file 5 "src/../h/../h/risc.h"
GAS LISTING /tmp/ccJoyKRG.s 			page 53


DEFINED SYMBOLS
                            *ABS*:0000000000000000 APP.cpp
     /tmp/ccJoyKRG.s:23     .text:0000000000000000 _Z3fooPv
     /tmp/ccJoyKRG.s:27     .text:0000000000000000 .L0 
     /tmp/ccJoyKRG.s:29     .text:0000000000000000 .L0 
     /tmp/ccJoyKRG.s:31     .text:0000000000000000 .L0 
     /tmp/ccJoyKRG.s:32     .text:0000000000000000 .L0 
     /tmp/ccJoyKRG.s:36     .text:0000000000000004 .L0 
     /tmp/ccJoyKRG.s:40     .text:0000000000000010 .L0 
     /tmp/ccJoyKRG.s:47     .text:0000000000000018 .L0 
     /tmp/ccJoyKRG.s:52     .text:000000000000001c .L0 
     /tmp/ccJoyKRG.s:53     .text:000000000000001c .L0 
     /tmp/ccJoyKRG.s:60     .text:0000000000000024 .L0 
     /tmp/ccJoyKRG.s:61     .text:0000000000000028 .L0 
     /tmp/ccJoyKRG.s:64     .text:0000000000000030 .L0 
     /tmp/ccJoyKRG.s:65     .text:0000000000000030 .L0 
     /tmp/ccJoyKRG.s:67     .text:0000000000000034 .L0 
     /tmp/ccJoyKRG.s:72     .text:0000000000000034 .L0 
     /tmp/ccJoyKRG.s:73     .text:0000000000000034 .L0 
     /tmp/ccJoyKRG.s:78     .text:0000000000000044 .L0 
     /tmp/ccJoyKRG.s:79     .text:0000000000000044 .L0 
     /tmp/ccJoyKRG.s:83     .text:0000000000000054 .L0 
     /tmp/ccJoyKRG.s:84     .text:0000000000000054 .L0 
     /tmp/ccJoyKRG.s:88     .text:0000000000000064 .L0 
     /tmp/ccJoyKRG.s:89     .text:0000000000000064 .L0 
     /tmp/ccJoyKRG.s:93     .text:0000000000000070 .L0 
     /tmp/ccJoyKRG.s:94     .text:0000000000000070 .L0 
     /tmp/ccJoyKRG.s:98     .text:0000000000000080 .L0 
     /tmp/ccJoyKRG.s:99     .text:0000000000000080 .L0 
     /tmp/ccJoyKRG.s:102    .text:0000000000000088 .L0 
     /tmp/ccJoyKRG.s:103    .text:0000000000000088 .L0 
     /tmp/ccJoyKRG.s:106    .text:0000000000000090 .L0 
     /tmp/ccJoyKRG.s:107    .text:0000000000000090 .L0 
     /tmp/ccJoyKRG.s:108    .text:0000000000000090 .L0 
     /tmp/ccJoyKRG.s:113    .text:0000000000000090 .L0 
         src/APP.cpp:38     .text:0000000000000090 .L0 
     /tmp/ccJoyKRG.s:120    .text:0000000000000098 .L0 
     /tmp/ccJoyKRG.s:126    .text:0000000000000098 _Z3barPv
     /tmp/ccJoyKRG.s:129    .text:0000000000000098 .L0 
     /tmp/ccJoyKRG.s:131    .text:0000000000000098 .L0 
     /tmp/ccJoyKRG.s:133    .text:0000000000000098 .L0 
     /tmp/ccJoyKRG.s:134    .text:0000000000000098 .L0 
     /tmp/ccJoyKRG.s:138    .text:000000000000009c .L0 
     /tmp/ccJoyKRG.s:142    .text:00000000000000a8 .L0 
     /tmp/ccJoyKRG.s:148    .text:00000000000000b0 .L0 
     /tmp/ccJoyKRG.s:153    .text:00000000000000b4 .L0 
     /tmp/ccJoyKRG.s:154    .text:00000000000000b4 .L0 
     /tmp/ccJoyKRG.s:161    .text:00000000000000bc .L0 
     /tmp/ccJoyKRG.s:162    .text:00000000000000c0 .L0 
     /tmp/ccJoyKRG.s:165    .text:00000000000000c8 .L0 
     /tmp/ccJoyKRG.s:166    .text:00000000000000c8 .L0 
     /tmp/ccJoyKRG.s:168    .text:00000000000000cc .L0 
     /tmp/ccJoyKRG.s:173    .text:00000000000000cc .L0 
     /tmp/ccJoyKRG.s:174    .text:00000000000000cc .L0 
     /tmp/ccJoyKRG.s:179    .text:00000000000000dc .L0 
     /tmp/ccJoyKRG.s:180    .text:00000000000000dc .L0 
     /tmp/ccJoyKRG.s:184    .text:00000000000000ec .L0 
GAS LISTING /tmp/ccJoyKRG.s 			page 54


     /tmp/ccJoyKRG.s:185    .text:00000000000000ec .L0 
     /tmp/ccJoyKRG.s:189    .text:00000000000000fc .L0 
     /tmp/ccJoyKRG.s:190    .text:00000000000000fc .L0 
     /tmp/ccJoyKRG.s:194    .text:0000000000000108 .L0 
     /tmp/ccJoyKRG.s:195    .text:0000000000000108 .L0 
     /tmp/ccJoyKRG.s:199    .text:0000000000000118 .L0 
     /tmp/ccJoyKRG.s:200    .text:0000000000000118 .L0 
     /tmp/ccJoyKRG.s:203    .text:0000000000000120 .L0 
     /tmp/ccJoyKRG.s:204    .text:0000000000000120 .L0 
     /tmp/ccJoyKRG.s:207    .text:0000000000000128 .L0 
     /tmp/ccJoyKRG.s:208    .text:0000000000000128 .L0 
     /tmp/ccJoyKRG.s:209    .text:0000000000000128 .L0 
     /tmp/ccJoyKRG.s:214    .text:0000000000000128 .L0 
         src/APP.cpp:48     .text:0000000000000128 .L0 
     /tmp/ccJoyKRG.s:221    .text:0000000000000130 .L0 
     /tmp/ccJoyKRG.s:235    .text:0000000000000130 _Z13testTimeSlicev
     /tmp/ccJoyKRG.s:238    .text:0000000000000130 .L0 
     /tmp/ccJoyKRG.s:239    .text:0000000000000130 .L0 
     /tmp/ccJoyKRG.s:240    .text:0000000000000134 .L0 
     /tmp/ccJoyKRG.s:244    .text:0000000000000140 .L0 
     /tmp/ccJoyKRG.s:245    .text:0000000000000140 .L0 
     /tmp/ccJoyKRG.s:246    .text:0000000000000140 .L0 
     /tmp/ccJoyKRG.s:248    .text:0000000000000144 .L0 
     /tmp/ccJoyKRG.s:250    .text:0000000000000144 .L0 
     /tmp/ccJoyKRG.s:251    .text:0000000000000144 .L0 
     /tmp/ccJoyKRG.s:255    .text:0000000000000154 .L0 
     /tmp/ccJoyKRG.s:256    .text:0000000000000154 .L0 
     /tmp/ccJoyKRG.s:259    .text:000000000000015c .L0 
     /tmp/ccJoyKRG.s:260    .text:000000000000015c .L0 
     /tmp/ccJoyKRG.s:261    .text:000000000000015c .L0 
     /tmp/ccJoyKRG.s:262    .text:000000000000015c .L0 
     /tmp/ccJoyKRG.s:266    .text:0000000000000168 .L0 
     /tmp/ccJoyKRG.s:267    .text:0000000000000168 .L0 
     /tmp/ccJoyKRG.s:268    .text:0000000000000168 .L0 
     /tmp/ccJoyKRG.s:269    .text:0000000000000168 .L0 
     /tmp/ccJoyKRG.s:270    .text:0000000000000168 .L0 
     /tmp/ccJoyKRG.s:393    .text:000000000000026c _Z12doSliceFirstPv
     /tmp/ccJoyKRG.s:277    .text:0000000000000184 .L0 
     /tmp/ccJoyKRG.s:278    .text:0000000000000184 .L0 
     /tmp/ccJoyKRG.s:279    .text:0000000000000184 .L0 
     /tmp/ccJoyKRG.s:513    .text:0000000000000340 _Z13doSliceSecondPv
     /tmp/ccJoyKRG.s:285    .text:000000000000019c .L0 
     /tmp/ccJoyKRG.s:286    .text:000000000000019c .L0 
     /tmp/ccJoyKRG.s:290    .text:00000000000001a8 .L0 
     /tmp/ccJoyKRG.s:291    .text:00000000000001a8 .L0 
     /tmp/ccJoyKRG.s:295    .text:00000000000001b4 .L0 
     /tmp/ccJoyKRG.s:296    .text:00000000000001b4 .L0 
     /tmp/ccJoyKRG.s:300    .text:00000000000001c4 .L0 
     /tmp/ccJoyKRG.s:303    .text:00000000000001c8 .L0 
     /tmp/ccJoyKRG.s:307    .text:00000000000001cc .L0 
     /tmp/ccJoyKRG.s:314    .text:00000000000001d8 .L0 
     /tmp/ccJoyKRG.s:319    .text:00000000000001dc .L0 
     /tmp/ccJoyKRG.s:320    .text:00000000000001dc .L0 
     /tmp/ccJoyKRG.s:321    .text:00000000000001dc .L0 
     /tmp/ccJoyKRG.s:325    .text:00000000000001ec .L0 
     /tmp/ccJoyKRG.s:326    .text:00000000000001ec .L0 
     /tmp/ccJoyKRG.s:329    .text:00000000000001f4 .L0 
GAS LISTING /tmp/ccJoyKRG.s 			page 55


     /tmp/ccJoyKRG.s:330    .text:00000000000001f8 .L0 
     /tmp/ccJoyKRG.s:331    .text:00000000000001f8 .L0 
     /tmp/ccJoyKRG.s:333    .text:00000000000001fc .L0 
     /tmp/ccJoyKRG.s:334    .text:00000000000001fc .L0 
     /tmp/ccJoyKRG.s:336    .text:0000000000000200 .L0 
     /tmp/ccJoyKRG.s:338    .text:0000000000000204 .L0 
     /tmp/ccJoyKRG.s:342    .text:0000000000000208 .L0 
     /tmp/ccJoyKRG.s:344    .text:0000000000000208 .L0 
     /tmp/ccJoyKRG.s:345    .text:0000000000000208 .L0 
     /tmp/ccJoyKRG.s:353    .text:0000000000000210 .L0 
     /tmp/ccJoyKRG.s:354    .text:0000000000000210 .L0 
     /tmp/ccJoyKRG.s:358    .text:0000000000000220 .L0 
     /tmp/ccJoyKRG.s:359    .text:0000000000000220 .L0 
     /tmp/ccJoyKRG.s:363    .text:0000000000000230 .L0 
     /tmp/ccJoyKRG.s:364    .text:0000000000000230 .L0 
     /tmp/ccJoyKRG.s:368    .text:0000000000000240 .L0 
     /tmp/ccJoyKRG.s:369    .text:0000000000000240 .L0 
     /tmp/ccJoyKRG.s:373    .text:000000000000024c .L0 
     /tmp/ccJoyKRG.s:374    .text:000000000000024c .L0 
     /tmp/ccJoyKRG.s:378    .text:000000000000025c .L0 
     /tmp/ccJoyKRG.s:379    .text:000000000000025c .L0 
     /tmp/ccJoyKRG.s:382    .text:0000000000000264 .L0 
     /tmp/ccJoyKRG.s:383    .text:0000000000000264 .L0 
     /tmp/ccJoyKRG.s:387    .text:000000000000026c .L0 
     /tmp/ccJoyKRG.s:396    .text:000000000000026c .L0 
     /tmp/ccJoyKRG.s:398    .text:000000000000026c .L0 
     /tmp/ccJoyKRG.s:399    .text:000000000000026c .L0 
     /tmp/ccJoyKRG.s:400    .text:000000000000026c .L0 
     /tmp/ccJoyKRG.s:405    .text:0000000000000278 .L0 
     /tmp/ccJoyKRG.s:406    .text:0000000000000278 .L0 
     /tmp/ccJoyKRG.s:411    .text:0000000000000280 .L0 
         src/APP.cpp:94     .text:0000000000000280 .L0 
     /tmp/ccJoyKRG.s:417    .text:0000000000000284 .L0 
     /tmp/ccJoyKRG.s:419    .text:0000000000000284 .L0 
     /tmp/ccJoyKRG.s:425    .text:0000000000000298 .L0 
     /tmp/ccJoyKRG.s:426    .text:0000000000000298 .L0 
     /tmp/ccJoyKRG.s:432    .text:00000000000002a4 .L0 
     /tmp/ccJoyKRG.s:436    .text:00000000000002a8 .L0 
     /tmp/ccJoyKRG.s:437    .text:00000000000002a8 .L0 
     /tmp/ccJoyKRG.s:439    .text:00000000000002ac .L0 
     /tmp/ccJoyKRG.s:441    .text:00000000000002b0 .L0 
     /tmp/ccJoyKRG.s:442    .text:00000000000002b0 .L0 
     /tmp/ccJoyKRG.s:445    .text:00000000000002bc .L0 
     /tmp/ccJoyKRG.s:450    .text:00000000000002c4 .L0 
     /tmp/ccJoyKRG.s:455    .text:00000000000002cc .L0 
     /tmp/ccJoyKRG.s:461    .text:00000000000002d4 .L0 
     /tmp/ccJoyKRG.s:462    .text:00000000000002d8 .L0 
     /tmp/ccJoyKRG.s:465    .text:00000000000002e0 .L0 
     /tmp/ccJoyKRG.s:466    .text:00000000000002e0 .L0 
     /tmp/ccJoyKRG.s:468    .text:00000000000002e4 .L0 
     /tmp/ccJoyKRG.s:472    .text:00000000000002e4 .L0 
     /tmp/ccJoyKRG.s:473    .text:00000000000002e4 .L0 
     /tmp/ccJoyKRG.s:478    .text:00000000000002f4 .L0 
     /tmp/ccJoyKRG.s:479    .text:00000000000002f4 .L0 
     /tmp/ccJoyKRG.s:483    .text:0000000000000304 .L0 
     /tmp/ccJoyKRG.s:484    .text:0000000000000304 .L0 
     /tmp/ccJoyKRG.s:488    .text:0000000000000314 .L0 
GAS LISTING /tmp/ccJoyKRG.s 			page 56


     /tmp/ccJoyKRG.s:489    .text:0000000000000314 .L0 
     /tmp/ccJoyKRG.s:493    .text:0000000000000320 .L0 
     /tmp/ccJoyKRG.s:494    .text:0000000000000320 .L0 
     /tmp/ccJoyKRG.s:498    .text:0000000000000330 .L0 
     /tmp/ccJoyKRG.s:499    .text:0000000000000330 .L0 
     /tmp/ccJoyKRG.s:502    .text:0000000000000338 .L0 
     /tmp/ccJoyKRG.s:503    .text:0000000000000338 .L0 
     /tmp/ccJoyKRG.s:507    .text:0000000000000340 .L0 
     /tmp/ccJoyKRG.s:516    .text:0000000000000340 .L0 
     /tmp/ccJoyKRG.s:518    .text:0000000000000340 .L0 
     /tmp/ccJoyKRG.s:519    .text:0000000000000344 .L0 
     /tmp/ccJoyKRG.s:522    .text:000000000000034c .L0 
     /tmp/ccJoyKRG.s:523    .text:000000000000034c .L0 
     /tmp/ccJoyKRG.s:525    .text:0000000000000350 .L0 
     /tmp/ccJoyKRG.s:527    .text:0000000000000350 .L0 
     /tmp/ccJoyKRG.s:528    .text:0000000000000350 .L0 
     /tmp/ccJoyKRG.s:531    .text:0000000000000354 .L0 
     /tmp/ccJoyKRG.s:532    .text:0000000000000354 .L0 
     /tmp/ccJoyKRG.s:537    .text:0000000000000360 .L0 
     /tmp/ccJoyKRG.s:538    .text:0000000000000360 .L0 
     /tmp/ccJoyKRG.s:545    .text:0000000000000368 .L0 
     /tmp/ccJoyKRG.s:546    .text:0000000000000368 .L0 
     /tmp/ccJoyKRG.s:551    .text:0000000000000378 .L0 
     /tmp/ccJoyKRG.s:552    .text:0000000000000378 .L0 
     /tmp/ccJoyKRG.s:556    .text:0000000000000388 .L0 
     /tmp/ccJoyKRG.s:557    .text:0000000000000388 .L0 
     /tmp/ccJoyKRG.s:561    .text:0000000000000398 .L0 
     /tmp/ccJoyKRG.s:562    .text:0000000000000398 .L0 
     /tmp/ccJoyKRG.s:566    .text:00000000000003a4 .L0 
     /tmp/ccJoyKRG.s:567    .text:00000000000003a4 .L0 
     /tmp/ccJoyKRG.s:571    .text:00000000000003b4 .L0 
     /tmp/ccJoyKRG.s:572    .text:00000000000003b4 .L0 
     /tmp/ccJoyKRG.s:575    .text:00000000000003bc .L0 
     /tmp/ccJoyKRG.s:576    .text:00000000000003bc .L0 
     /tmp/ccJoyKRG.s:584    .text:00000000000003c4 .L0 
     /tmp/ccJoyKRG.s:585    .text:00000000000003c4 .L0 
     /tmp/ccJoyKRG.s:590    .text:00000000000003d4 .L0 
     /tmp/ccJoyKRG.s:591    .text:00000000000003d4 .L0 
     /tmp/ccJoyKRG.s:595    .text:00000000000003e4 .L0 
     /tmp/ccJoyKRG.s:596    .text:00000000000003e4 .L0 
     /tmp/ccJoyKRG.s:600    .text:00000000000003f4 .L0 
     /tmp/ccJoyKRG.s:601    .text:00000000000003f4 .L0 
     /tmp/ccJoyKRG.s:605    .text:0000000000000400 .L0 
     /tmp/ccJoyKRG.s:606    .text:0000000000000400 .L0 
     /tmp/ccJoyKRG.s:610    .text:0000000000000410 .L0 
     /tmp/ccJoyKRG.s:611    .text:0000000000000410 .L0 
     /tmp/ccJoyKRG.s:614    .text:0000000000000418 .L0 
     /tmp/ccJoyKRG.s:615    .text:0000000000000418 .L0 
     /tmp/ccJoyKRG.s:621    .text:0000000000000420 .L0 
         src/APP.cpp:122    .text:0000000000000420 .L0 
     /tmp/ccJoyKRG.s:628    .text:0000000000000424 .L0 
     /tmp/ccJoyKRG.s:632    .text:0000000000000428 .L0 
     /tmp/ccJoyKRG.s:634    .text:000000000000042c .L0 
         src/APP.cpp:110    .text:000000000000042c .L0 
     /tmp/ccJoyKRG.s:641    .text:0000000000000430 .L0 
     /tmp/ccJoyKRG.s:646    .text:0000000000000434 .L0 
     /tmp/ccJoyKRG.s:651    .text:0000000000000438 .L0 
GAS LISTING /tmp/ccJoyKRG.s 			page 57


     /tmp/ccJoyKRG.s:652    .text:0000000000000438 .L0 
     /tmp/ccJoyKRG.s:653    .text:0000000000000438 .L0 
     /tmp/ccJoyKRG.s:656    .text:0000000000000444 .L0 
     /tmp/ccJoyKRG.s:658    .text:0000000000000448 .L0 
         src/APP.cpp:115    .text:0000000000000448 .L0 
     /tmp/ccJoyKRG.s:664    .text:000000000000044c .L0 
     /tmp/ccJoyKRG.s:666    .text:000000000000044c .L0 
     /tmp/ccJoyKRG.s:672    .text:0000000000000460 .L0 
     /tmp/ccJoyKRG.s:679    .text:000000000000046c .L0 
     /tmp/ccJoyKRG.s:684    .text:0000000000000470 .L0 
     /tmp/ccJoyKRG.s:685    .text:0000000000000470 .L0 
     /tmp/ccJoyKRG.s:686    .text:0000000000000470 .L0 
     /tmp/ccJoyKRG.s:694    .text:0000000000000480 .L0 
     /tmp/ccJoyKRG.s:699    .text:0000000000000488 .L0 
     /tmp/ccJoyKRG.s:703    .text:000000000000048c .L0 
     /tmp/ccJoyKRG.s:704    .text:0000000000000490 .L0 
     /tmp/ccJoyKRG.s:705    .text:0000000000000490 .L0 
     /tmp/ccJoyKRG.s:707    .text:0000000000000494 .L0 
     /tmp/ccJoyKRG.s:708    .text:0000000000000494 .L0 
     /tmp/ccJoyKRG.s:710    .text:0000000000000498 .L0 
     /tmp/ccJoyKRG.s:713    .text:000000000000049c .L0 
     /tmp/ccJoyKRG.s:717    .text:000000000000049c .L0 
     /tmp/ccJoyKRG.s:718    .text:000000000000049c .L0 
     /tmp/ccJoyKRG.s:723    .text:00000000000004ac .L0 
     /tmp/ccJoyKRG.s:724    .text:00000000000004ac .L0 
     /tmp/ccJoyKRG.s:728    .text:00000000000004bc .L0 
     /tmp/ccJoyKRG.s:729    .text:00000000000004bc .L0 
     /tmp/ccJoyKRG.s:733    .text:00000000000004cc .L0 
     /tmp/ccJoyKRG.s:734    .text:00000000000004cc .L0 
     /tmp/ccJoyKRG.s:738    .text:00000000000004d8 .L0 
     /tmp/ccJoyKRG.s:739    .text:00000000000004d8 .L0 
     /tmp/ccJoyKRG.s:743    .text:00000000000004e8 .L0 
     /tmp/ccJoyKRG.s:744    .text:00000000000004e8 .L0 
     /tmp/ccJoyKRG.s:747    .text:00000000000004f0 .L0 
     /tmp/ccJoyKRG.s:748    .text:00000000000004f0 .L0 
     /tmp/ccJoyKRG.s:752    .text:00000000000004f8 .L0 
     /tmp/ccJoyKRG.s:766    .text:00000000000004f8 _Z12testSyncCallv
     /tmp/ccJoyKRG.s:769    .text:00000000000004f8 .L0 
     /tmp/ccJoyKRG.s:770    .text:00000000000004f8 .L0 
     /tmp/ccJoyKRG.s:771    .text:00000000000004fc .L0 
     /tmp/ccJoyKRG.s:774    .text:0000000000000504 .L0 
     /tmp/ccJoyKRG.s:775    .text:0000000000000504 .L0 
     /tmp/ccJoyKRG.s:777    .text:0000000000000508 .L0 
     /tmp/ccJoyKRG.s:779    .text:0000000000000508 .L0 
     /tmp/ccJoyKRG.s:780    .text:0000000000000508 .L0 
     /tmp/ccJoyKRG.s:783    .text:0000000000000510 .L0 
     /tmp/ccJoyKRG.s:784    .text:0000000000000510 .L0 
     /tmp/ccJoyKRG.s:788    .text:0000000000000520 .L0 
     /tmp/ccJoyKRG.s:789    .text:0000000000000520 .L0 
     /tmp/ccJoyKRG.s:792    .text:0000000000000528 .L0 
     /tmp/ccJoyKRG.s:793    .text:0000000000000528 .L0 
     /tmp/ccJoyKRG.s:794    .text:0000000000000528 .L0 
     /tmp/ccJoyKRG.s:795    .text:0000000000000528 .L0 
     /tmp/ccJoyKRG.s:798    .text:0000000000000530 .L0 
     /tmp/ccJoyKRG.s:799    .text:0000000000000530 .L0 
     /tmp/ccJoyKRG.s:802    .text:0000000000000538 .L0 
     /tmp/ccJoyKRG.s:803    .text:0000000000000538 .L0 
GAS LISTING /tmp/ccJoyKRG.s 			page 58


     /tmp/ccJoyKRG.s:804    .text:0000000000000538 .L0 
     /tmp/ccJoyKRG.s:805    .text:0000000000000538 .L0 
     /tmp/ccJoyKRG.s:922    .text:0000000000000620 _Z3doAPv
     /tmp/ccJoyKRG.s:811    .text:0000000000000550 .L0 
     /tmp/ccJoyKRG.s:812    .text:0000000000000550 .L0 
     /tmp/ccJoyKRG.s:1120   .text:00000000000007a0 _Z3doBPv
     /tmp/ccJoyKRG.s:818    .text:0000000000000568 .L0 
     /tmp/ccJoyKRG.s:819    .text:0000000000000568 .L0 
     /tmp/ccJoyKRG.s:822    .text:0000000000000570 .L0 
     /tmp/ccJoyKRG.s:823    .text:0000000000000570 .L0 
     /tmp/ccJoyKRG.s:827    .text:000000000000057c .L0 
     /tmp/ccJoyKRG.s:828    .text:000000000000057c .L0 
     /tmp/ccJoyKRG.s:832    .text:0000000000000588 .L0 
     /tmp/ccJoyKRG.s:833    .text:0000000000000588 .L0 
     /tmp/ccJoyKRG.s:837    .text:0000000000000598 .L0 
     /tmp/ccJoyKRG.s:838    .text:0000000000000598 .L0 
     /tmp/ccJoyKRG.s:841    .text:00000000000005a0 .L0 
     /tmp/ccJoyKRG.s:842    .text:00000000000005a0 .L0 
     /tmp/ccJoyKRG.s:845    .text:00000000000005a8 .L0 
     /tmp/ccJoyKRG.s:846    .text:00000000000005ac .L0 
     /tmp/ccJoyKRG.s:848    .text:00000000000005b0 .L0 
     /tmp/ccJoyKRG.s:849    .text:00000000000005b0 .L0 
     /tmp/ccJoyKRG.s:851    .text:00000000000005b4 .L0 
     /tmp/ccJoyKRG.s:853    .text:00000000000005b8 .L0 
     /tmp/ccJoyKRG.s:859    .text:00000000000005b8 _Z3fibm
     /tmp/ccJoyKRG.s:862    .text:00000000000005b8 .L0 
     /tmp/ccJoyKRG.s:864    .text:00000000000005b8 .L0 
     /tmp/ccJoyKRG.s:865    .text:00000000000005bc .L0 
     /tmp/ccJoyKRG.s:870    .text:00000000000005cc .L0 
     /tmp/ccJoyKRG.s:871    .text:00000000000005cc .L0 
     /tmp/ccJoyKRG.s:872    .text:00000000000005cc .L0 
     /tmp/ccJoyKRG.s:873    .text:00000000000005cc .L0 
     /tmp/ccJoyKRG.s:875    .text:00000000000005d0 .L0 
     /tmp/ccJoyKRG.s:878    .text:00000000000005d4 .L0 
     /tmp/ccJoyKRG.s:881    .text:00000000000005dc .L0 
     /tmp/ccJoyKRG.s:885    .text:00000000000005e0 .L0 
     /tmp/ccJoyKRG.s:887    .text:00000000000005e8 .L0 
     /tmp/ccJoyKRG.s:888    .text:00000000000005e8 .L0 
     /tmp/ccJoyKRG.s:890    .text:00000000000005ec .L0 
     /tmp/ccJoyKRG.s:891    .text:00000000000005ec .L0 
     /tmp/ccJoyKRG.s:893    .text:00000000000005f0 .L0 
     /tmp/ccJoyKRG.s:895    .text:00000000000005f4 .L0 
     /tmp/ccJoyKRG.s:897    .text:00000000000005f8 .L0 
     /tmp/ccJoyKRG.s:901    .text:00000000000005fc .L0 
     /tmp/ccJoyKRG.s:903    .text:00000000000005fc .L0 
     /tmp/ccJoyKRG.s:904    .text:00000000000005fc .L0 
     /tmp/ccJoyKRG.s:909    .text:000000000000060c .L0 
     /tmp/ccJoyKRG.s:913    .text:0000000000000618 .L0 
     /tmp/ccJoyKRG.s:916    .text:0000000000000620 .L0 
     /tmp/ccJoyKRG.s:925    .text:0000000000000620 .L0 
     /tmp/ccJoyKRG.s:927    .text:0000000000000620 .L0 
     /tmp/ccJoyKRG.s:928    .text:0000000000000624 .L0 
     /tmp/ccJoyKRG.s:933    .text:0000000000000634 .L0 
     /tmp/ccJoyKRG.s:934    .text:0000000000000634 .L0 
     /tmp/ccJoyKRG.s:935    .text:0000000000000634 .L0 
     /tmp/ccJoyKRG.s:936    .text:0000000000000634 .L0 
     /tmp/ccJoyKRG.s:938    .text:0000000000000638 .L0 
GAS LISTING /tmp/ccJoyKRG.s 			page 59


     /tmp/ccJoyKRG.s:940    .text:0000000000000638 .L0 
     /tmp/ccJoyKRG.s:946    .text:0000000000000640 .L0 
     /tmp/ccJoyKRG.s:951    .text:0000000000000644 .L0 
     /tmp/ccJoyKRG.s:955    .text:0000000000000648 .L0 
     /tmp/ccJoyKRG.s:958    .text:0000000000000650 .L0 
     /tmp/ccJoyKRG.s:968    .text:000000000000066c .L0 
     /tmp/ccJoyKRG.s:973    .text:0000000000000670 .L0 
     /tmp/ccJoyKRG.s:974    .text:0000000000000670 .L0 
     /tmp/ccJoyKRG.s:975    .text:0000000000000670 .L0 
     /tmp/ccJoyKRG.s:978    .text:0000000000000678 .L0 
     /tmp/ccJoyKRG.s:987    .text:0000000000000680 .L0 
     /tmp/ccJoyKRG.s:988    .text:0000000000000680 .L0 
     /tmp/ccJoyKRG.s:993    .text:0000000000000690 .L0 
     /tmp/ccJoyKRG.s:994    .text:0000000000000690 .L0 
     /tmp/ccJoyKRG.s:998    .text:00000000000006a0 .L0 
     /tmp/ccJoyKRG.s:999    .text:00000000000006a0 .L0 
     /tmp/ccJoyKRG.s:1003   .text:00000000000006b0 .L0 
     /tmp/ccJoyKRG.s:1004   .text:00000000000006b0 .L0 
     /tmp/ccJoyKRG.s:1008   .text:00000000000006bc .L0 
     /tmp/ccJoyKRG.s:1009   .text:00000000000006bc .L0 
     /tmp/ccJoyKRG.s:1013   .text:00000000000006cc .L0 
     /tmp/ccJoyKRG.s:1014   .text:00000000000006cc .L0 
     /tmp/ccJoyKRG.s:1017   .text:00000000000006d4 .L0 
     /tmp/ccJoyKRG.s:1018   .text:00000000000006d4 .L0 
     /tmp/ccJoyKRG.s:1027   .text:00000000000006dc .L0 
     /tmp/ccJoyKRG.s:1028   .text:00000000000006dc .L0 
     /tmp/ccJoyKRG.s:1033   .text:00000000000006ec .L0 
     /tmp/ccJoyKRG.s:1034   .text:00000000000006ec .L0 
     /tmp/ccJoyKRG.s:1038   .text:00000000000006fc .L0 
     /tmp/ccJoyKRG.s:1039   .text:00000000000006fc .L0 
     /tmp/ccJoyKRG.s:1043   .text:000000000000070c .L0 
     /tmp/ccJoyKRG.s:1044   .text:000000000000070c .L0 
     /tmp/ccJoyKRG.s:1048   .text:0000000000000718 .L0 
     /tmp/ccJoyKRG.s:1049   .text:0000000000000718 .L0 
     /tmp/ccJoyKRG.s:1053   .text:0000000000000728 .L0 
     /tmp/ccJoyKRG.s:1054   .text:0000000000000728 .L0 
     /tmp/ccJoyKRG.s:1057   .text:0000000000000730 .L0 
     /tmp/ccJoyKRG.s:1058   .text:0000000000000730 .L0 
     /tmp/ccJoyKRG.s:1065   .text:0000000000000738 .L0 
         src/APP.cpp:167    .text:0000000000000738 .L0 
     /tmp/ccJoyKRG.s:1071   .text:000000000000073c .L0 
     /tmp/ccJoyKRG.s:1073   .text:000000000000073c .L0 
     /tmp/ccJoyKRG.s:1078   .text:0000000000000744 .L0 
     /tmp/ccJoyKRG.s:1079   .text:0000000000000744 .L0 
     /tmp/ccJoyKRG.s:1080   .text:0000000000000744 .L0 
     /tmp/ccJoyKRG.s:1081   .text:0000000000000744 .L0 
     /tmp/ccJoyKRG.s:1085   .text:0000000000000754 .L0 
     /tmp/ccJoyKRG.s:1086   .text:0000000000000754 .L0 
     /tmp/ccJoyKRG.s:1090   .text:0000000000000764 .L0 
     /tmp/ccJoyKRG.s:1091   .text:0000000000000764 .L0 
     /tmp/ccJoyKRG.s:1095   .text:0000000000000774 .L0 
     /tmp/ccJoyKRG.s:1096   .text:0000000000000774 .L0 
     /tmp/ccJoyKRG.s:1100   .text:0000000000000780 .L0 
     /tmp/ccJoyKRG.s:1101   .text:0000000000000780 .L0 
     /tmp/ccJoyKRG.s:1105   .text:0000000000000790 .L0 
     /tmp/ccJoyKRG.s:1106   .text:0000000000000790 .L0 
     /tmp/ccJoyKRG.s:1109   .text:0000000000000798 .L0 
GAS LISTING /tmp/ccJoyKRG.s 			page 60


     /tmp/ccJoyKRG.s:1110   .text:0000000000000798 .L0 
     /tmp/ccJoyKRG.s:1114   .text:00000000000007a0 .L0 
     /tmp/ccJoyKRG.s:1123   .text:00000000000007a0 .L0 
     /tmp/ccJoyKRG.s:1125   .text:00000000000007a0 .L0 
     /tmp/ccJoyKRG.s:1126   .text:00000000000007a4 .L0 
     /tmp/ccJoyKRG.s:1131   .text:00000000000007b4 .L0 
     /tmp/ccJoyKRG.s:1132   .text:00000000000007b4 .L0 
     /tmp/ccJoyKRG.s:1133   .text:00000000000007b4 .L0 
     /tmp/ccJoyKRG.s:1134   .text:00000000000007b4 .L0 
     /tmp/ccJoyKRG.s:1136   .text:00000000000007b8 .L0 
     /tmp/ccJoyKRG.s:1138   .text:00000000000007b8 .L0 
     /tmp/ccJoyKRG.s:1144   .text:00000000000007c0 .L0 
     /tmp/ccJoyKRG.s:1149   .text:00000000000007c4 .L0 
     /tmp/ccJoyKRG.s:1153   .text:00000000000007c8 .L0 
     /tmp/ccJoyKRG.s:1156   .text:00000000000007d0 .L0 
     /tmp/ccJoyKRG.s:1166   .text:00000000000007ec .L0 
     /tmp/ccJoyKRG.s:1171   .text:00000000000007f0 .L0 
     /tmp/ccJoyKRG.s:1172   .text:00000000000007f0 .L0 
     /tmp/ccJoyKRG.s:1173   .text:00000000000007f0 .L0 
     /tmp/ccJoyKRG.s:1176   .text:00000000000007f8 .L0 
     /tmp/ccJoyKRG.s:1185   .text:0000000000000800 .L0 
     /tmp/ccJoyKRG.s:1186   .text:0000000000000800 .L0 
     /tmp/ccJoyKRG.s:1191   .text:0000000000000810 .L0 
     /tmp/ccJoyKRG.s:1192   .text:0000000000000810 .L0 
     /tmp/ccJoyKRG.s:1196   .text:0000000000000820 .L0 
     /tmp/ccJoyKRG.s:1197   .text:0000000000000820 .L0 
     /tmp/ccJoyKRG.s:1201   .text:0000000000000830 .L0 
     /tmp/ccJoyKRG.s:1202   .text:0000000000000830 .L0 
     /tmp/ccJoyKRG.s:1206   .text:000000000000083c .L0 
     /tmp/ccJoyKRG.s:1207   .text:000000000000083c .L0 
     /tmp/ccJoyKRG.s:1211   .text:000000000000084c .L0 
     /tmp/ccJoyKRG.s:1212   .text:000000000000084c .L0 
     /tmp/ccJoyKRG.s:1215   .text:0000000000000854 .L0 
     /tmp/ccJoyKRG.s:1216   .text:0000000000000854 .L0 
     /tmp/ccJoyKRG.s:1225   .text:000000000000085c .L0 
     /tmp/ccJoyKRG.s:1226   .text:000000000000085c .L0 
     /tmp/ccJoyKRG.s:1231   .text:000000000000086c .L0 
     /tmp/ccJoyKRG.s:1232   .text:000000000000086c .L0 
     /tmp/ccJoyKRG.s:1236   .text:000000000000087c .L0 
     /tmp/ccJoyKRG.s:1237   .text:000000000000087c .L0 
     /tmp/ccJoyKRG.s:1241   .text:000000000000088c .L0 
     /tmp/ccJoyKRG.s:1242   .text:000000000000088c .L0 
     /tmp/ccJoyKRG.s:1246   .text:0000000000000898 .L0 
     /tmp/ccJoyKRG.s:1247   .text:0000000000000898 .L0 
     /tmp/ccJoyKRG.s:1251   .text:00000000000008a8 .L0 
     /tmp/ccJoyKRG.s:1252   .text:00000000000008a8 .L0 
     /tmp/ccJoyKRG.s:1255   .text:00000000000008b0 .L0 
     /tmp/ccJoyKRG.s:1256   .text:00000000000008b0 .L0 
     /tmp/ccJoyKRG.s:1263   .text:00000000000008b8 .L0 
     /tmp/ccJoyKRG.s:1264   .text:00000000000008b8 .L0 
     /tmp/ccJoyKRG.s:1269   .text:00000000000008c0 .L0 
     /tmp/ccJoyKRG.s:1270   .text:00000000000008c0 .L0 
     /tmp/ccJoyKRG.s:1271   .text:00000000000008c0 .L0 
     /tmp/ccJoyKRG.s:1272   .text:00000000000008c0 .L0 
     /tmp/ccJoyKRG.s:1276   .text:00000000000008d0 .L0 
     /tmp/ccJoyKRG.s:1277   .text:00000000000008d0 .L0 
     /tmp/ccJoyKRG.s:1281   .text:00000000000008e0 .L0 
GAS LISTING /tmp/ccJoyKRG.s 			page 61


     /tmp/ccJoyKRG.s:1282   .text:00000000000008e0 .L0 
     /tmp/ccJoyKRG.s:1286   .text:00000000000008f0 .L0 
     /tmp/ccJoyKRG.s:1287   .text:00000000000008f0 .L0 
     /tmp/ccJoyKRG.s:1291   .text:00000000000008fc .L0 
     /tmp/ccJoyKRG.s:1292   .text:00000000000008fc .L0 
     /tmp/ccJoyKRG.s:1296   .text:000000000000090c .L0 
     /tmp/ccJoyKRG.s:1297   .text:000000000000090c .L0 
     /tmp/ccJoyKRG.s:1300   .text:0000000000000914 .L0 
     /tmp/ccJoyKRG.s:1301   .text:0000000000000914 .L0 
     /tmp/ccJoyKRG.s:1305   .text:000000000000091c .L0 
     /tmp/ccJoyKRG.s:1328   .text:000000000000091c _Z15testSystemCallsv
     /tmp/ccJoyKRG.s:1331   .text:000000000000091c .L0 
     /tmp/ccJoyKRG.s:1332   .text:000000000000091c .L0 
     /tmp/ccJoyKRG.s:1333   .text:0000000000000920 .L0 
     /tmp/ccJoyKRG.s:1343   .text:0000000000000944 .L0 
     /tmp/ccJoyKRG.s:1344   .text:0000000000000944 .L0 
     /tmp/ccJoyKRG.s:1345   .text:0000000000000944 .L0 
     /tmp/ccJoyKRG.s:1346   .text:0000000000000944 .L0 
     /tmp/ccJoyKRG.s:1347   .text:0000000000000944 .L0 
     /tmp/ccJoyKRG.s:1348   .text:0000000000000944 .L0 
     /tmp/ccJoyKRG.s:1349   .text:0000000000000944 .L0 
     /tmp/ccJoyKRG.s:1350   .text:0000000000000944 .L0 
     /tmp/ccJoyKRG.s:1351   .text:0000000000000944 .L0 
     /tmp/ccJoyKRG.s:1353   .text:0000000000000948 .L0 
     /tmp/ccJoyKRG.s:1355   .text:0000000000000948 .L0 
     /tmp/ccJoyKRG.s:1356   .text:0000000000000948 .L0 
     /tmp/ccJoyKRG.s:1360   .text:0000000000000958 .L0 
     /tmp/ccJoyKRG.s:1361   .text:0000000000000958 .L0 
     /tmp/ccJoyKRG.s:1364   .text:0000000000000960 .L0 
     /tmp/ccJoyKRG.s:1365   .text:0000000000000960 .L0 
     /tmp/ccJoyKRG.s:1367   .text:0000000000000960 .L0 
     /tmp/ccJoyKRG.s:1368   .text:0000000000000960 .L0 
     /tmp/ccJoyKRG.s:1371   .text:0000000000000964 .L0 
     /tmp/ccJoyKRG.s:1373   .text:0000000000000968 .L0 
     /tmp/ccJoyKRG.s:1378   .text:000000000000096c .L0 
     /tmp/ccJoyKRG.s:1382   .text:0000000000000974 .L0 
     /tmp/ccJoyKRG.s:1383   .text:0000000000000974 .L0 
     /tmp/ccJoyKRG.s:1386   .text:0000000000000978 .L0 
     /tmp/ccJoyKRG.s:1387   .text:0000000000000978 .L0 
     /tmp/ccJoyKRG.s:1390   .text:000000000000097c .L0 
     /tmp/ccJoyKRG.s:1391   .text:000000000000097c .L0 
     /tmp/ccJoyKRG.s:1397   .text:000000000000098c .L0 
     /tmp/ccJoyKRG.s:1398   .text:000000000000098c .L0 
     /tmp/ccJoyKRG.s:1405   .text:000000000000099c .L0 
     /tmp/ccJoyKRG.s:1410   .text:00000000000009a0 .L0 
     /tmp/ccJoyKRG.s:1411   .text:00000000000009a0 .L0 
     /tmp/ccJoyKRG.s:1417   .text:00000000000009a4 .L0 
     /tmp/ccJoyKRG.s:1418   .text:00000000000009a4 .L0 
     /tmp/ccJoyKRG.s:1422   .text:00000000000009a8 .L0 
     /tmp/ccJoyKRG.s:1425   .text:00000000000009ac .L0 
     /tmp/ccJoyKRG.s:1429   .text:00000000000009b0 .L0 
     /tmp/ccJoyKRG.s:1434   .text:00000000000009b4 .L0 
     /tmp/ccJoyKRG.s:1435   .text:00000000000009b4 .L0 
     /tmp/ccJoyKRG.s:1440   .text:00000000000009c4 .L0 
     /tmp/ccJoyKRG.s:1441   .text:00000000000009c4 .L0 
     /tmp/ccJoyKRG.s:1445   .text:00000000000009d0 .L0 
     /tmp/ccJoyKRG.s:1446   .text:00000000000009d0 .L0 
GAS LISTING /tmp/ccJoyKRG.s 			page 62


     /tmp/ccJoyKRG.s:1450   .text:00000000000009e0 .L0 
     /tmp/ccJoyKRG.s:1451   .text:00000000000009e0 .L0 
     /tmp/ccJoyKRG.s:1455   .text:00000000000009ec .L0 
     /tmp/ccJoyKRG.s:1456   .text:00000000000009ec .L0 
     /tmp/ccJoyKRG.s:1460   .text:00000000000009fc .L0 
     /tmp/ccJoyKRG.s:1461   .text:00000000000009fc .L0 
     /tmp/ccJoyKRG.s:1465   .text:0000000000000a08 .L0 
     /tmp/ccJoyKRG.s:1466   .text:0000000000000a08 .L0 
     /tmp/ccJoyKRG.s:1471   .text:0000000000000a10 .L0 
     /tmp/ccJoyKRG.s:1472   .text:0000000000000a10 .L0 
     /tmp/ccJoyKRG.s:1473   .text:0000000000000a10 .L0 
     /tmp/ccJoyKRG.s:1474   .text:0000000000000a10 .L0 
     /tmp/ccJoyKRG.s:1478   .text:0000000000000a20 .L0 
     /tmp/ccJoyKRG.s:1479   .text:0000000000000a20 .L0 
     /tmp/ccJoyKRG.s:1483   .text:0000000000000a30 .L0 
     /tmp/ccJoyKRG.s:1484   .text:0000000000000a30 .L0 
     /tmp/ccJoyKRG.s:1488   .text:0000000000000a40 .L0 
     /tmp/ccJoyKRG.s:1489   .text:0000000000000a40 .L0 
     /tmp/ccJoyKRG.s:1493   .text:0000000000000a4c .L0 
     /tmp/ccJoyKRG.s:1494   .text:0000000000000a4c .L0 
     /tmp/ccJoyKRG.s:1498   .text:0000000000000a5c .L0 
     /tmp/ccJoyKRG.s:1499   .text:0000000000000a5c .L0 
     /tmp/ccJoyKRG.s:1502   .text:0000000000000a64 .L0 
     /tmp/ccJoyKRG.s:1503   .text:0000000000000a64 .L0 
     /tmp/ccJoyKRG.s:1511   .text:0000000000000a6c .L0 
     /tmp/ccJoyKRG.s:1512   .text:0000000000000a6c .L0 
     /tmp/ccJoyKRG.s:1517   .text:0000000000000a7c .L0 
     /tmp/ccJoyKRG.s:1518   .text:0000000000000a7c .L0 
     /tmp/ccJoyKRG.s:1522   .text:0000000000000a8c .L0 
     /tmp/ccJoyKRG.s:1523   .text:0000000000000a8c .L0 
     /tmp/ccJoyKRG.s:1527   .text:0000000000000a9c .L0 
     /tmp/ccJoyKRG.s:1528   .text:0000000000000a9c .L0 
     /tmp/ccJoyKRG.s:1532   .text:0000000000000aa8 .L0 
     /tmp/ccJoyKRG.s:1533   .text:0000000000000aa8 .L0 
     /tmp/ccJoyKRG.s:1537   .text:0000000000000ab8 .L0 
     /tmp/ccJoyKRG.s:1538   .text:0000000000000ab8 .L0 
     /tmp/ccJoyKRG.s:1541   .text:0000000000000ac0 .L0 
     /tmp/ccJoyKRG.s:1542   .text:0000000000000ac0 .L0 
     /tmp/ccJoyKRG.s:1550   .text:0000000000000ac8 .L0 
     /tmp/ccJoyKRG.s:1551   .text:0000000000000ac8 .L0 
     /tmp/ccJoyKRG.s:1555   .text:0000000000000ad8 .L0 
     /tmp/ccJoyKRG.s:1556   .text:0000000000000ad8 .L0 
     /tmp/ccJoyKRG.s:1559   .text:0000000000000ae0 .L0 
     /tmp/ccJoyKRG.s:1560   .text:0000000000000ae4 .L0 
     /tmp/ccJoyKRG.s:1562   .text:0000000000000ae8 .L0 
     /tmp/ccJoyKRG.s:1563   .text:0000000000000ae8 .L0 
     /tmp/ccJoyKRG.s:1565   .text:0000000000000aec .L0 
     /tmp/ccJoyKRG.s:1568   .text:0000000000000af0 .L0 
     /tmp/ccJoyKRG.s:1570   .text:0000000000000af4 .L0 
     /tmp/ccJoyKRG.s:1572   .text:0000000000000af8 .L0 
     /tmp/ccJoyKRG.s:1575   .text:0000000000000afc .L0 
     /tmp/ccJoyKRG.s:1578   .text:0000000000000b00 .L0 
     /tmp/ccJoyKRG.s:1580   .text:0000000000000b04 .L0 
     /tmp/ccJoyKRG.s:1582   .text:0000000000000b08 .L0 
     /tmp/ccJoyKRG.s:1584   .text:0000000000000b0c .L0 
     /tmp/ccJoyKRG.s:1598   .text:0000000000000b0c _Z19testMemoryAllocatorv
     /tmp/ccJoyKRG.s:1601   .text:0000000000000b0c .L0 
GAS LISTING /tmp/ccJoyKRG.s 			page 63


     /tmp/ccJoyKRG.s:1602   .text:0000000000000b0c .L0 
     /tmp/ccJoyKRG.s:1603   .text:0000000000000b10 .L0 
     /tmp/ccJoyKRG.s:1609   .text:0000000000000b24 .L0 
     /tmp/ccJoyKRG.s:1610   .text:0000000000000b24 .L0 
     /tmp/ccJoyKRG.s:1611   .text:0000000000000b24 .L0 
     /tmp/ccJoyKRG.s:1612   .text:0000000000000b24 .L0 
     /tmp/ccJoyKRG.s:1613   .text:0000000000000b24 .L0 
     /tmp/ccJoyKRG.s:1615   .text:0000000000000b28 .L0 
     /tmp/ccJoyKRG.s:1617   .text:0000000000000b28 .L0 
     /tmp/ccJoyKRG.s:1618   .text:0000000000000b28 .L0 
     /tmp/ccJoyKRG.s:1622   .text:0000000000000b38 .L0 
     /tmp/ccJoyKRG.s:1623   .text:0000000000000b38 .L0 
     /tmp/ccJoyKRG.s:1626   .text:0000000000000b40 .L0 
     /tmp/ccJoyKRG.s:1627   .text:0000000000000b40 .L0 
     /tmp/ccJoyKRG.s:1628   .text:0000000000000b40 .L0 
     /tmp/ccJoyKRG.s:1629   .text:0000000000000b40 .L0 
     /tmp/ccJoyKRG.s:1637   .text:0000000000000b54 .L0 
     /tmp/ccJoyKRG.s:1638   .text:0000000000000b54 .L0 
     /tmp/ccJoyKRG.s:1642   .text:0000000000000b58 .L0 
     /tmp/ccJoyKRG.s:1645   .text:0000000000000b60 .L0 
     /tmp/ccJoyKRG.s:1646   .text:0000000000000b60 .L0 
     /tmp/ccJoyKRG.s:1649   .text:0000000000000b68 .L0 
     /tmp/ccJoyKRG.s:1653   .text:0000000000000b74 .L0 
     /tmp/ccJoyKRG.s:1655   .text:0000000000000b78 .L0 
     /tmp/ccJoyKRG.s:1656   .text:0000000000000b78 .L0 
     /tmp/ccJoyKRG.s:1658   .text:0000000000000b7c .L0 
     /tmp/ccJoyKRG.s:1666   .text:0000000000000b84 .L0 
     /tmp/ccJoyKRG.s:1669   .text:0000000000000b88 .L0 
     /tmp/ccJoyKRG.s:1674   .text:0000000000000b8c .L0 
     /tmp/ccJoyKRG.s:1677   .text:0000000000000b94 .L0 
     /tmp/ccJoyKRG.s:1678   .text:0000000000000b94 .L0 
     /tmp/ccJoyKRG.s:1682   .text:0000000000000ba0 .L0 
     /tmp/ccJoyKRG.s:1684   .text:0000000000000ba4 .L0 
     /tmp/ccJoyKRG.s:1687   .text:0000000000000ba8 .L0 
     /tmp/ccJoyKRG.s:1694   .text:0000000000000bb0 .L0 
     /tmp/ccJoyKRG.s:1701   .text:0000000000000bb8 .L0 
     /tmp/ccJoyKRG.s:1706   .text:0000000000000bbc .L0 
     /tmp/ccJoyKRG.s:1710   .text:0000000000000bc0 .L0 
     /tmp/ccJoyKRG.s:1713   .text:0000000000000bc8 .L0 
     /tmp/ccJoyKRG.s:1714   .text:0000000000000bc8 .L0 
     /tmp/ccJoyKRG.s:1717   .text:0000000000000bd0 .L0 
     /tmp/ccJoyKRG.s:1723   .text:0000000000000bdc .L0 
     /tmp/ccJoyKRG.s:1724   .text:0000000000000bdc .L0 
     /tmp/ccJoyKRG.s:1729   .text:0000000000000be0 .L0 
     /tmp/ccJoyKRG.s:1730   .text:0000000000000be0 .L0 
     /tmp/ccJoyKRG.s:1739   .text:0000000000000be8 .L0 
     /tmp/ccJoyKRG.s:1740   .text:0000000000000be8 .L0 
     /tmp/ccJoyKRG.s:1744   .text:0000000000000bf8 .L0 
     /tmp/ccJoyKRG.s:1745   .text:0000000000000bf8 .L0 
     /tmp/ccJoyKRG.s:1749   .text:0000000000000c08 .L0 
     /tmp/ccJoyKRG.s:1750   .text:0000000000000c08 .L0 
     /tmp/ccJoyKRG.s:1754   .text:0000000000000c18 .L0 
     /tmp/ccJoyKRG.s:1755   .text:0000000000000c18 .L0 
     /tmp/ccJoyKRG.s:1759   .text:0000000000000c24 .L0 
     /tmp/ccJoyKRG.s:1760   .text:0000000000000c24 .L0 
     /tmp/ccJoyKRG.s:1764   .text:0000000000000c34 .L0 
     /tmp/ccJoyKRG.s:1765   .text:0000000000000c34 .L0 
GAS LISTING /tmp/ccJoyKRG.s 			page 64


     /tmp/ccJoyKRG.s:1768   .text:0000000000000c3c .L0 
     /tmp/ccJoyKRG.s:1769   .text:0000000000000c3c .L0 
     /tmp/ccJoyKRG.s:1778   .text:0000000000000c44 .L0 
     /tmp/ccJoyKRG.s:1779   .text:0000000000000c44 .L0 
     /tmp/ccJoyKRG.s:1784   .text:0000000000000c54 .L0 
     /tmp/ccJoyKRG.s:1785   .text:0000000000000c54 .L0 
     /tmp/ccJoyKRG.s:1789   .text:0000000000000c64 .L0 
     /tmp/ccJoyKRG.s:1790   .text:0000000000000c64 .L0 
     /tmp/ccJoyKRG.s:1794   .text:0000000000000c74 .L0 
     /tmp/ccJoyKRG.s:1795   .text:0000000000000c74 .L0 
     /tmp/ccJoyKRG.s:1799   .text:0000000000000c80 .L0 
     /tmp/ccJoyKRG.s:1800   .text:0000000000000c80 .L0 
     /tmp/ccJoyKRG.s:1804   .text:0000000000000c90 .L0 
     /tmp/ccJoyKRG.s:1805   .text:0000000000000c90 .L0 
     /tmp/ccJoyKRG.s:1808   .text:0000000000000c98 .L0 
     /tmp/ccJoyKRG.s:1809   .text:0000000000000c98 .L0 
     /tmp/ccJoyKRG.s:1816   .text:0000000000000ca0 .L0 
     /tmp/ccJoyKRG.s:1817   .text:0000000000000ca0 .L0 
     /tmp/ccJoyKRG.s:1823   .text:0000000000000cac .L0 
     /tmp/ccJoyKRG.s:1824   .text:0000000000000cac .L0 
     /tmp/ccJoyKRG.s:1829   .text:0000000000000cb0 .L0 
     /tmp/ccJoyKRG.s:1830   .text:0000000000000cb0 .L0 
     /tmp/ccJoyKRG.s:1831   .text:0000000000000cb0 .L0 
     /tmp/ccJoyKRG.s:1836   .text:0000000000000cc0 .L0 
     /tmp/ccJoyKRG.s:1837   .text:0000000000000cc0 .L0 
     /tmp/ccJoyKRG.s:1840   .text:0000000000000cc8 .L0 
     /tmp/ccJoyKRG.s:1841   .text:0000000000000ccc .L0 
     /tmp/ccJoyKRG.s:1842   .text:0000000000000ccc .L0 
     /tmp/ccJoyKRG.s:1844   .text:0000000000000cd0 .L0 
     /tmp/ccJoyKRG.s:1845   .text:0000000000000cd0 .L0 
     /tmp/ccJoyKRG.s:1847   .text:0000000000000cd4 .L0 
     /tmp/ccJoyKRG.s:1850   .text:0000000000000cd8 .L0 
     /tmp/ccJoyKRG.s:1852   .text:0000000000000cdc .L0 
     /tmp/ccJoyKRG.s:1855   .text:0000000000000ce0 .L0 
     /tmp/ccJoyKRG.s:1859   .text:0000000000000ce4 .L0 
     /tmp/ccJoyKRG.s:1863   .text:0000000000000ce4 .L0 
     /tmp/ccJoyKRG.s:1864   .text:0000000000000ce4 .L0 
     /tmp/ccJoyKRG.s:1869   .text:0000000000000cf4 .L0 
     /tmp/ccJoyKRG.s:1870   .text:0000000000000cf4 .L0 
     /tmp/ccJoyKRG.s:1874   .text:0000000000000d04 .L0 
     /tmp/ccJoyKRG.s:1875   .text:0000000000000d04 .L0 
     /tmp/ccJoyKRG.s:1879   .text:0000000000000d14 .L0 
     /tmp/ccJoyKRG.s:1880   .text:0000000000000d14 .L0 
     /tmp/ccJoyKRG.s:1884   .text:0000000000000d20 .L0 
     /tmp/ccJoyKRG.s:1885   .text:0000000000000d20 .L0 
     /tmp/ccJoyKRG.s:1889   .text:0000000000000d30 .L0 
     /tmp/ccJoyKRG.s:1890   .text:0000000000000d30 .L0 
     /tmp/ccJoyKRG.s:1893   .text:0000000000000d38 .L0 
     /tmp/ccJoyKRG.s:1894   .text:0000000000000d38 .L0 
     /tmp/ccJoyKRG.s:1898   .text:0000000000000d40 .L0 
     /tmp/ccJoyKRG.s:1912   .text:0000000000000d40 _Z10myUserMainv
     /tmp/ccJoyKRG.s:1915   .text:0000000000000d40 .L0 
     /tmp/ccJoyKRG.s:1916   .text:0000000000000d40 .L0 
     /tmp/ccJoyKRG.s:1917   .text:0000000000000d44 .L0 
     /tmp/ccJoyKRG.s:1920   .text:0000000000000d4c .L0 
     /tmp/ccJoyKRG.s:1921   .text:0000000000000d4c .L0 
     /tmp/ccJoyKRG.s:1923   .text:0000000000000d50 .L0 
GAS LISTING /tmp/ccJoyKRG.s 			page 65


     /tmp/ccJoyKRG.s:1925   .text:0000000000000d50 .L0 
         src/APP.cpp:17     .text:0000000000000d50 .L0 
     /tmp/ccJoyKRG.s:1931   .text:0000000000000d54 .L0 
     /tmp/ccJoyKRG.s:1933   .text:0000000000000d54 .L0 
     /tmp/ccJoyKRG.s:1937   .text:0000000000000d64 .L0 
     /tmp/ccJoyKRG.s:1938   .text:0000000000000d64 .L0 
     /tmp/ccJoyKRG.s:1941   .text:0000000000000d6c .L0 
     /tmp/ccJoyKRG.s:1942   .text:0000000000000d6c .L0 
     /tmp/ccJoyKRG.s:1945   .text:0000000000000d74 .L0 
     /tmp/ccJoyKRG.s:1946   .text:0000000000000d74 .L0 
     /tmp/ccJoyKRG.s:1949   .text:0000000000000d7c .L0 
     /tmp/ccJoyKRG.s:1950   .text:0000000000000d7c .L0 
     /tmp/ccJoyKRG.s:1953   .text:0000000000000d84 .L0 
     /tmp/ccJoyKRG.s:1954   .text:0000000000000d84 .L0 
     /tmp/ccJoyKRG.s:1957   .text:0000000000000d8c .L0 
     /tmp/ccJoyKRG.s:1958   .text:0000000000000d8c .L0 
     /tmp/ccJoyKRG.s:1962   .text:0000000000000d9c .L0 
     /tmp/ccJoyKRG.s:1963   .text:0000000000000d9c .L0 
     /tmp/ccJoyKRG.s:1966   .text:0000000000000da4 .L0 
     /tmp/ccJoyKRG.s:1967   .text:0000000000000da8 .L0 
     /tmp/ccJoyKRG.s:1969   .text:0000000000000dac .L0 
     /tmp/ccJoyKRG.s:1970   .text:0000000000000dac .L0 
     /tmp/ccJoyKRG.s:1972   .text:0000000000000db0 .L0 
     /tmp/ccJoyKRG.s:1974   .text:0000000000000db4 .L0 
     /tmp/ccJoyKRG.s:1988   .bss:0000000000000004 sliceSecondCounter
     /tmp/ccJoyKRG.s:1984   .bss:0000000000000000 sliceFirstCounter
     /tmp/ccJoyKRG.s:1981   .bss:0000000000000000 .LANCHOR0
     /tmp/ccJoyKRG.s:1995   .text:0000000000000db4 .L0 
     /tmp/ccJoyKRG.s:8      .rodata.str1.8:0000000000000000 .LC0
     /tmp/ccJoyKRG.s:73     .text:0000000000000034 .L0 
     /tmp/ccJoyKRG.s:11     .rodata.str1.8:0000000000000028 .LC1
     /tmp/ccJoyKRG.s:79     .text:0000000000000044 .L0 
     /tmp/ccJoyKRG.s:14     .rodata.str1.8:0000000000000038 .LC2
     /tmp/ccJoyKRG.s:84     .text:0000000000000054 .L0 
     /tmp/ccJoyKRG.s:17     .rodata.str1.8:0000000000000048 .LC3
     /tmp/ccJoyKRG.s:94     .text:0000000000000070 .L0 
     /tmp/ccJoyKRG.s:174    .text:00000000000000cc .L0 
     /tmp/ccJoyKRG.s:180    .text:00000000000000dc .L0 
     /tmp/ccJoyKRG.s:185    .text:00000000000000ec .L0 
     /tmp/ccJoyKRG.s:195    .text:0000000000000108 .L0 
     /tmp/ccJoyKRG.s:226    .rodata.str1.8:0000000000000068 .LC4
     /tmp/ccJoyKRG.s:251    .text:0000000000000144 .L0 
     /tmp/ccJoyKRG.s:272    .text:0000000000000170 .L0 
     /tmp/ccJoyKRG.s:280    .text:0000000000000188 .L0 
     /tmp/ccJoyKRG.s:296    .text:00000000000001b4 .L0 
     /tmp/ccJoyKRG.s:229    .rodata.str1.8:0000000000000088 .LC5
     /tmp/ccJoyKRG.s:321    .text:00000000000001dc .L0 
     /tmp/ccJoyKRG.s:354    .text:0000000000000210 .L0 
     /tmp/ccJoyKRG.s:359    .text:0000000000000220 .L0 
     /tmp/ccJoyKRG.s:364    .text:0000000000000230 .L0 
     /tmp/ccJoyKRG.s:374    .text:000000000000024c .L0 
     /tmp/ccJoyKRG.s:400    .text:000000000000026c .L0 
     /tmp/ccJoyKRG.s:419    .text:0000000000000284 .L0 
     /tmp/ccJoyKRG.s:426    .text:0000000000000298 .L0 
     /tmp/ccJoyKRG.s:442    .text:00000000000002b0 .L0 
     /tmp/ccJoyKRG.s:450    .text:00000000000002c4 .L0 
     /tmp/ccJoyKRG.s:473    .text:00000000000002e4 .L0 
GAS LISTING /tmp/ccJoyKRG.s 			page 66


     /tmp/ccJoyKRG.s:479    .text:00000000000002f4 .L0 
     /tmp/ccJoyKRG.s:484    .text:0000000000000304 .L0 
     /tmp/ccJoyKRG.s:494    .text:0000000000000320 .L0 
     /tmp/ccJoyKRG.s:532    .text:0000000000000354 .L0 
     /tmp/ccJoyKRG.s:546    .text:0000000000000368 .L0 
     /tmp/ccJoyKRG.s:552    .text:0000000000000378 .L0 
     /tmp/ccJoyKRG.s:557    .text:0000000000000388 .L0 
     /tmp/ccJoyKRG.s:567    .text:00000000000003a4 .L0 
     /tmp/ccJoyKRG.s:585    .text:00000000000003c4 .L0 
     /tmp/ccJoyKRG.s:591    .text:00000000000003d4 .L0 
     /tmp/ccJoyKRG.s:596    .text:00000000000003e4 .L0 
     /tmp/ccJoyKRG.s:606    .text:0000000000000400 .L0 
     /tmp/ccJoyKRG.s:653    .text:0000000000000438 .L0 
     /tmp/ccJoyKRG.s:666    .text:000000000000044c .L0 
     /tmp/ccJoyKRG.s:686    .text:0000000000000470 .L0 
     /tmp/ccJoyKRG.s:694    .text:0000000000000480 .L0 
     /tmp/ccJoyKRG.s:718    .text:000000000000049c .L0 
     /tmp/ccJoyKRG.s:724    .text:00000000000004ac .L0 
     /tmp/ccJoyKRG.s:729    .text:00000000000004bc .L0 
     /tmp/ccJoyKRG.s:739    .text:00000000000004d8 .L0 
     /tmp/ccJoyKRG.s:757    .rodata.str1.8:00000000000000b0 .LC6
     /tmp/ccJoyKRG.s:784    .text:0000000000000510 .L0 
     /tmp/ccJoyKRG.s:806    .text:000000000000053c .L0 
     /tmp/ccJoyKRG.s:813    .text:0000000000000554 .L0 
     /tmp/ccJoyKRG.s:760    .rodata.str1.8:00000000000000d0 .LC7
     /tmp/ccJoyKRG.s:833    .text:0000000000000588 .L0 
     /tmp/ccJoyKRG.s:988    .text:0000000000000680 .L0 
     /tmp/ccJoyKRG.s:994    .text:0000000000000690 .L0 
     /tmp/ccJoyKRG.s:999    .text:00000000000006a0 .L0 
     /tmp/ccJoyKRG.s:1009   .text:00000000000006bc .L0 
     /tmp/ccJoyKRG.s:1028   .text:00000000000006dc .L0 
     /tmp/ccJoyKRG.s:1034   .text:00000000000006ec .L0 
     /tmp/ccJoyKRG.s:1039   .text:00000000000006fc .L0 
     /tmp/ccJoyKRG.s:1049   .text:0000000000000718 .L0 
     /tmp/ccJoyKRG.s:1081   .text:0000000000000744 .L0 
     /tmp/ccJoyKRG.s:1086   .text:0000000000000754 .L0 
     /tmp/ccJoyKRG.s:1091   .text:0000000000000764 .L0 
     /tmp/ccJoyKRG.s:1101   .text:0000000000000780 .L0 
     /tmp/ccJoyKRG.s:1186   .text:0000000000000800 .L0 
     /tmp/ccJoyKRG.s:1192   .text:0000000000000810 .L0 
     /tmp/ccJoyKRG.s:1197   .text:0000000000000820 .L0 
     /tmp/ccJoyKRG.s:1207   .text:000000000000083c .L0 
     /tmp/ccJoyKRG.s:1226   .text:000000000000085c .L0 
     /tmp/ccJoyKRG.s:1232   .text:000000000000086c .L0 
     /tmp/ccJoyKRG.s:1237   .text:000000000000087c .L0 
     /tmp/ccJoyKRG.s:1247   .text:0000000000000898 .L0 
     /tmp/ccJoyKRG.s:1272   .text:00000000000008c0 .L0 
     /tmp/ccJoyKRG.s:1277   .text:00000000000008d0 .L0 
     /tmp/ccJoyKRG.s:1282   .text:00000000000008e0 .L0 
     /tmp/ccJoyKRG.s:1292   .text:00000000000008fc .L0 
     /tmp/ccJoyKRG.s:1310   .rodata.str1.8:00000000000000f8 .LC8
     /tmp/ccJoyKRG.s:1356   .text:0000000000000948 .L0 
     /tmp/ccJoyKRG.s:1313   .rodata.str1.8:0000000000000118 .LC9
     /tmp/ccJoyKRG.s:1435   .text:00000000000009b4 .L0 
     /tmp/ccJoyKRG.s:1316   .rodata.str1.8:0000000000000130 .LC10
     /tmp/ccJoyKRG.s:1446   .text:00000000000009d0 .L0 
     /tmp/ccJoyKRG.s:1319   .rodata.str1.8:0000000000000140 .LC11
GAS LISTING /tmp/ccJoyKRG.s 			page 67


     /tmp/ccJoyKRG.s:1456   .text:00000000000009ec .L0 
     /tmp/ccJoyKRG.s:1474   .text:0000000000000a10 .L0 
     /tmp/ccJoyKRG.s:1479   .text:0000000000000a20 .L0 
     /tmp/ccJoyKRG.s:1484   .text:0000000000000a30 .L0 
     /tmp/ccJoyKRG.s:1494   .text:0000000000000a4c .L0 
     /tmp/ccJoyKRG.s:1512   .text:0000000000000a6c .L0 
     /tmp/ccJoyKRG.s:1518   .text:0000000000000a7c .L0 
     /tmp/ccJoyKRG.s:1523   .text:0000000000000a8c .L0 
     /tmp/ccJoyKRG.s:1533   .text:0000000000000aa8 .L0 
     /tmp/ccJoyKRG.s:1322   .rodata.str1.8:0000000000000150 .LC12
     /tmp/ccJoyKRG.s:1551   .text:0000000000000ac8 .L0 
     /tmp/ccJoyKRG.s:1589   .rodata.str1.8:0000000000000178 .LC13
     /tmp/ccJoyKRG.s:1618   .text:0000000000000b28 .L0 
     /tmp/ccJoyKRG.s:1740   .text:0000000000000be8 .L0 
     /tmp/ccJoyKRG.s:1745   .text:0000000000000bf8 .L0 
     /tmp/ccJoyKRG.s:1750   .text:0000000000000c08 .L0 
     /tmp/ccJoyKRG.s:1760   .text:0000000000000c24 .L0 
     /tmp/ccJoyKRG.s:1779   .text:0000000000000c44 .L0 
     /tmp/ccJoyKRG.s:1785   .text:0000000000000c54 .L0 
     /tmp/ccJoyKRG.s:1790   .text:0000000000000c64 .L0 
     /tmp/ccJoyKRG.s:1800   .text:0000000000000c80 .L0 
     /tmp/ccJoyKRG.s:1592   .rodata.str1.8:00000000000001a0 .LC14
     /tmp/ccJoyKRG.s:1831   .text:0000000000000cb0 .L0 
     /tmp/ccJoyKRG.s:1864   .text:0000000000000ce4 .L0 
     /tmp/ccJoyKRG.s:1870   .text:0000000000000cf4 .L0 
     /tmp/ccJoyKRG.s:1875   .text:0000000000000d04 .L0 
     /tmp/ccJoyKRG.s:1885   .text:0000000000000d20 .L0 
     /tmp/ccJoyKRG.s:1903   .rodata.str1.8:00000000000001c8 .LC15
     /tmp/ccJoyKRG.s:1933   .text:0000000000000d54 .L0 
     /tmp/ccJoyKRG.s:1906   .rodata.str1.8:00000000000001d8 .LC16
     /tmp/ccJoyKRG.s:1958   .text:0000000000000d8c .L0 
     /tmp/ccJoyKRG.s:105    .text:0000000000000090 .L2
     /tmp/ccJoyKRG.s:57     .text:0000000000000024 .L8
     /tmp/ccJoyKRG.s:34     .text:0000000000000004 .L4
     /tmp/ccJoyKRG.s:206    .text:0000000000000128 .L10
     /tmp/ccJoyKRG.s:158    .text:00000000000000bc .L16
     /tmp/ccJoyKRG.s:136    .text:000000000000009c .L12
     /tmp/ccJoyKRG.s:341    .text:0000000000000208 .L21
     /tmp/ccJoyKRG.s:349    .text:0000000000000210 .L22
     /tmp/ccJoyKRG.s:305    .text:00000000000001cc .L18
     /tmp/ccJoyKRG.s:434    .text:00000000000002a8 .L26
     /tmp/ccJoyKRG.s:447    .text:00000000000002c4 .L24
     /tmp/ccJoyKRG.s:409    .text:0000000000000280 .L31
     /tmp/ccJoyKRG.s:430    .text:00000000000002a4 .L25
     /tmp/ccJoyKRG.s:457    .text:00000000000002d4 .L32
     /tmp/ccJoyKRG.s:630    .text:0000000000000428 .L38
     /tmp/ccJoyKRG.s:691    .text:0000000000000480 .L34
     /tmp/ccJoyKRG.s:541    .text:0000000000000368 .L41
     /tmp/ccJoyKRG.s:617    .text:0000000000000420 .L36
     /tmp/ccJoyKRG.s:578    .text:00000000000003c4 .L42
     /tmp/ccJoyKRG.s:712    .text:000000000000049c .L43
     /tmp/ccJoyKRG.s:883    .text:00000000000005e0 .L47
     /tmp/ccJoyKRG.s:900    .text:00000000000005fc .L49
     /tmp/ccJoyKRG.s:982    .text:0000000000000680 .L56
     /tmp/ccJoyKRG.s:1060   .text:0000000000000738 .L52
     /tmp/ccJoyKRG.s:1020   .text:00000000000006dc .L57
     /tmp/ccJoyKRG.s:953    .text:0000000000000648 .L51
GAS LISTING /tmp/ccJoyKRG.s 			page 68


     /tmp/ccJoyKRG.s:1180   .text:0000000000000800 .L64
     /tmp/ccJoyKRG.s:1258   .text:00000000000008b8 .L60
     /tmp/ccJoyKRG.s:1218   .text:000000000000085c .L65
     /tmp/ccJoyKRG.s:1151   .text:00000000000007c8 .L59
     /tmp/ccJoyKRG.s:1544   .text:0000000000000ac8 .L67
     /tmp/ccJoyKRG.s:1431   .text:00000000000009b4 .L72
     /tmp/ccJoyKRG.s:1505   .text:0000000000000a6c .L73
     /tmp/ccJoyKRG.s:1375   .text:000000000000096c .L70
     /tmp/ccJoyKRG.s:1662   .text:0000000000000b84 .L82
     /tmp/ccJoyKRG.s:1640   .text:0000000000000b58 .L76
     /tmp/ccJoyKRG.s:1691   .text:0000000000000bb0 .L77
     /tmp/ccJoyKRG.s:1670   .text:0000000000000b8c .L75
     /tmp/ccJoyKRG.s:1734   .text:0000000000000be8 .L85
     /tmp/ccJoyKRG.s:1811   .text:0000000000000ca0 .L79
     /tmp/ccJoyKRG.s:1771   .text:0000000000000c44 .L86
     /tmp/ccJoyKRG.s:1708   .text:0000000000000bc0 .L78
     /tmp/ccJoyKRG.s:1858   .text:0000000000000ce4 .L87
     /tmp/ccJoyKRG.s:4681   .debug_abbrev:0000000000000000 .Ldebug_abbrev0
     /tmp/ccJoyKRG.s:6935   .debug_str:0000000000000438 .LASF85
     /tmp/ccJoyKRG.s:6893   .debug_str:000000000000031d .LASF86
     /tmp/ccJoyKRG.s:6903   .debug_str:0000000000000356 .LASF87
     /tmp/ccJoyKRG.s:5      .text:0000000000000000 .Ltext0
     /tmp/ccJoyKRG.s:1991   .text:0000000000000db4 .Letext0
     /tmp/ccJoyKRG.s:6775   .debug_line:0000000000000000 .Ldebug_line0
     /tmp/ccJoyKRG.s:6877   .debug_str:00000000000002a4 .LASF0
     /tmp/ccJoyKRG.s:6887   .debug_str:00000000000002e6 .LASF1
     /tmp/ccJoyKRG.s:6865   .debug_str:0000000000000252 .LASF2
     /tmp/ccJoyKRG.s:6845   .debug_str:00000000000001d4 .LASF4
     /tmp/ccJoyKRG.s:6921   .debug_str:00000000000003cb .LASF3
     /tmp/ccJoyKRG.s:6791   .debug_str:0000000000000057 .LASF5
     /tmp/ccJoyKRG.s:6891   .debug_str:000000000000030a .LASF6
     /tmp/ccJoyKRG.s:6875   .debug_str:0000000000000291 .LASF7
     /tmp/ccJoyKRG.s:6943   .debug_str:000000000000052c .LASF8
     /tmp/ccJoyKRG.s:6833   .debug_str:000000000000018e .LASF9
     /tmp/ccJoyKRG.s:6901   .debug_str:0000000000000347 .LASF10
     /tmp/ccJoyKRG.s:6937   .debug_str:00000000000004fc .LASF11
     /tmp/ccJoyKRG.s:6793   .debug_str:000000000000005e .LASF12
     /tmp/ccJoyKRG.s:6783   .debug_str:0000000000000017 .LASF13
     /tmp/ccJoyKRG.s:6797   .debug_str:000000000000007e .LASF14
     /tmp/ccJoyKRG.s:6917   .debug_str:00000000000003aa .LASF15
     /tmp/ccJoyKRG.s:6807   .debug_str:00000000000000bd .LASF16
     /tmp/ccJoyKRG.s:6777   .debug_str:0000000000000000 .LASF17
     /tmp/ccJoyKRG.s:6895   .debug_str:0000000000000329 .LASF18
     /tmp/ccJoyKRG.s:6823   .debug_str:0000000000000134 .LASF19
     /tmp/ccJoyKRG.s:6789   .debug_str:0000000000000050 .LASF20
     /tmp/ccJoyKRG.s:6847   .debug_str:00000000000001db .LASF21
     /tmp/ccJoyKRG.s:6939   .debug_str:000000000000050b .LASF22
     /tmp/ccJoyKRG.s:6821   .debug_str:0000000000000120 .LASF24
     /tmp/ccJoyKRG.s:6925   .debug_str:00000000000003e7 .LASF26
     /tmp/ccJoyKRG.s:1599   .text:0000000000000b0c .LFB21
     /tmp/ccJoyKRG.s:1899   .text:0000000000000d40 .LFE21
     /tmp/ccJoyKRG.s:5330   .debug_loc:0000000000000000 .LLST57
     /tmp/ccJoyKRG.s:6781   .debug_str:0000000000000010 .LASF23
     /tmp/ccJoyKRG.s:5345   .debug_loc:0000000000000049 .LLST58
     /tmp/ccJoyKRG.s:5360   .debug_loc:0000000000000092 .LLST59
     /tmp/ccJoyKRG.s:1636   .text:0000000000000b54 .LBB118
     /tmp/ccJoyKRG.s:1663   .text:0000000000000b84 .LBE118
GAS LISTING /tmp/ccJoyKRG.s 			page 69


     /tmp/ccJoyKRG.s:5379   .debug_loc:00000000000000ee .LLST60
     /tmp/ccJoyKRG.s:1651   .text:0000000000000b74 .LVL235
     /tmp/ccJoyKRG.s:6633   .debug_ranges:0000000000000000 .Ldebug_ranges0
     /tmp/ccJoyKRG.s:5409   .debug_loc:0000000000000164 .LLST61
     /tmp/ccJoyKRG.s:5420   .debug_loc:000000000000019a .LLST65
     /tmp/ccJoyKRG.s:1721   .text:0000000000000bdc .LBB125
     /tmp/ccJoyKRG.s:5435   .debug_loc:00000000000001e3 .LLST66
     /tmp/ccJoyKRG.s:5450   .debug_loc:000000000000021f .LLST67
     /tmp/ccJoyKRG.s:5465   .debug_loc:0000000000000267 .LLST68
     /tmp/ccJoyKRG.s:1782   .text:0000000000000c54 .LVL257
     /tmp/ccJoyKRG.s:1787   .text:0000000000000c64 .LVL258
     /tmp/ccJoyKRG.s:1792   .text:0000000000000c74 .LVL259
     /tmp/ccJoyKRG.s:1797   .text:0000000000000c80 .LVL260
     /tmp/ccJoyKRG.s:1802   .text:0000000000000c90 .LVL261
     /tmp/ccJoyKRG.s:1806   .text:0000000000000c98 .LVL262
     /tmp/ccJoyKRG.s:1810   .text:0000000000000ca0 .LVL263
     /tmp/ccJoyKRG.s:1719   .text:0000000000000bdc .LVL245
     /tmp/ccJoyKRG.s:1698   .text:0000000000000bb8 .LBB121
     /tmp/ccJoyKRG.s:5484   .debug_loc:00000000000002a5 .LLST62
     /tmp/ccJoyKRG.s:5499   .debug_loc:00000000000002e1 .LLST63
     /tmp/ccJoyKRG.s:5514   .debug_loc:0000000000000329 .LLST64
     /tmp/ccJoyKRG.s:1742   .text:0000000000000bf8 .LVL249
     /tmp/ccJoyKRG.s:1747   .text:0000000000000c08 .LVL250
     /tmp/ccJoyKRG.s:1752   .text:0000000000000c18 .LVL251
     /tmp/ccJoyKRG.s:1757   .text:0000000000000c24 .LVL252
     /tmp/ccJoyKRG.s:1762   .text:0000000000000c34 .LVL253
     /tmp/ccJoyKRG.s:1766   .text:0000000000000c3c .LVL254
     /tmp/ccJoyKRG.s:1770   .text:0000000000000c44 .LVL255
     /tmp/ccJoyKRG.s:1821   .text:0000000000000cac .LBB131
     /tmp/ccJoyKRG.s:5539   .debug_loc:000000000000036d .LLST69
     /tmp/ccJoyKRG.s:5554   .debug_loc:00000000000003a9 .LLST70
     /tmp/ccJoyKRG.s:5569   .debug_loc:00000000000003f1 .LLST71
     /tmp/ccJoyKRG.s:1867   .text:0000000000000cf4 .LVL273
     /tmp/ccJoyKRG.s:1872   .text:0000000000000d04 .LVL274
     /tmp/ccJoyKRG.s:1877   .text:0000000000000d14 .LVL275
     /tmp/ccJoyKRG.s:1882   .text:0000000000000d20 .LVL276
     /tmp/ccJoyKRG.s:1887   .text:0000000000000d30 .LVL277
     /tmp/ccJoyKRG.s:1891   .text:0000000000000d38 .LVL278
     /tmp/ccJoyKRG.s:1895   .text:0000000000000d40 .LVL279
     /tmp/ccJoyKRG.s:1620   .text:0000000000000b38 .LVL230
     /tmp/ccJoyKRG.s:1624   .text:0000000000000b40 .LVL231
     /tmp/ccJoyKRG.s:1632   .text:0000000000000b50 .LVL232
     /tmp/ccJoyKRG.s:1819   .text:0000000000000cac .LVL264
     /tmp/ccJoyKRG.s:1834   .text:0000000000000cc0 .LVL267
     /tmp/ccJoyKRG.s:1838   .text:0000000000000cc8 .LVL268
     /tmp/ccJoyKRG.s:6835   .debug_str:000000000000019c .LASF25
     /tmp/ccJoyKRG.s:6863   .debug_str:000000000000023d .LASF27
     /tmp/ccJoyKRG.s:1329   .text:000000000000091c .LFB20
     /tmp/ccJoyKRG.s:1585   .text:0000000000000b0c .LFE20
     /tmp/ccJoyKRG.s:5588   .debug_loc:000000000000042f .LLST46
     /tmp/ccJoyKRG.s:5616   .debug_loc:00000000000004a3 .LLST47
     /tmp/ccJoyKRG.s:5644   .debug_loc:0000000000000517 .LLST48
     /tmp/ccJoyKRG.s:6779   .debug_str:0000000000000009 .LASF28
     /tmp/ccJoyKRG.s:5660   .debug_loc:0000000000000561 .LLST49
     /tmp/ccJoyKRG.s:6811   .debug_str:00000000000000e1 .LASF29
     /tmp/ccJoyKRG.s:5671   .debug_loc:0000000000000597 .LLST50
     /tmp/ccJoyKRG.s:1408   .text:00000000000009a0 .LBB100
GAS LISTING /tmp/ccJoyKRG.s 			page 70


     /tmp/ccJoyKRG.s:5690   .debug_loc:00000000000005f3 .LLST51
     /tmp/ccJoyKRG.s:5705   .debug_loc:000000000000062d .LLST52
     /tmp/ccJoyKRG.s:5720   .debug_loc:0000000000000675 .LLST53
     /tmp/ccJoyKRG.s:1515   .text:0000000000000a7c .LVL218
     /tmp/ccJoyKRG.s:1520   .text:0000000000000a8c .LVL219
     /tmp/ccJoyKRG.s:1525   .text:0000000000000a9c .LVL220
     /tmp/ccJoyKRG.s:1530   .text:0000000000000aa8 .LVL221
     /tmp/ccJoyKRG.s:1535   .text:0000000000000ab8 .LVL222
     /tmp/ccJoyKRG.s:1539   .text:0000000000000ac0 .LVL223
     /tmp/ccJoyKRG.s:1543   .text:0000000000000ac8 .LVL224
     /tmp/ccJoyKRG.s:1469   .text:0000000000000a10 .LBB103
     /tmp/ccJoyKRG.s:1507   .text:0000000000000a6c .LBE103
     /tmp/ccJoyKRG.s:5745   .debug_loc:00000000000006b9 .LLST54
     /tmp/ccJoyKRG.s:5754   .debug_loc:00000000000006de .LLST55
     /tmp/ccJoyKRG.s:5763   .debug_loc:000000000000070a .LLST56
     /tmp/ccJoyKRG.s:1476   .text:0000000000000a20 .LVL210
     /tmp/ccJoyKRG.s:1481   .text:0000000000000a30 .LVL211
     /tmp/ccJoyKRG.s:1486   .text:0000000000000a40 .LVL212
     /tmp/ccJoyKRG.s:1491   .text:0000000000000a4c .LVL213
     /tmp/ccJoyKRG.s:1496   .text:0000000000000a5c .LVL214
     /tmp/ccJoyKRG.s:1500   .text:0000000000000a64 .LVL215
     /tmp/ccJoyKRG.s:1504   .text:0000000000000a6c .LVL216
     /tmp/ccJoyKRG.s:1393   .text:0000000000000988 .LVL191
     /tmp/ccJoyKRG.s:1401   .text:0000000000000998 .LVL194
     /tmp/ccJoyKRG.s:1438   .text:00000000000009c4 .LVL203
     /tmp/ccJoyKRG.s:1443   .text:00000000000009d0 .LVL204
     /tmp/ccJoyKRG.s:1448   .text:00000000000009e0 .LVL205
     /tmp/ccJoyKRG.s:1453   .text:00000000000009ec .LVL206
     /tmp/ccJoyKRG.s:1458   .text:00000000000009fc .LVL207
     /tmp/ccJoyKRG.s:1463   .text:0000000000000a08 .LVL208
     /tmp/ccJoyKRG.s:1467   .text:0000000000000a10 .LVL209
     /tmp/ccJoyKRG.s:1358   .text:0000000000000958 .LVL186
     /tmp/ccJoyKRG.s:1362   .text:0000000000000960 .LVL187
     /tmp/ccJoyKRG.s:1553   .text:0000000000000ad8 .LVL225
     /tmp/ccJoyKRG.s:1557   .text:0000000000000ae0 .LVL226
     /tmp/ccJoyKRG.s:6909   .debug_str:0000000000000383 .LASF88
     /tmp/ccJoyKRG.s:860    .text:00000000000005b8 .LFB19
     /tmp/ccJoyKRG.s:917    .text:0000000000000620 .LFE19
     /tmp/ccJoyKRG.s:5771   .debug_loc:000000000000072e .LLST29
     /tmp/ccJoyKRG.s:906    .text:0000000000000608 .LVL117
     /tmp/ccJoyKRG.s:911    .text:0000000000000618 .LVL118
     /tmp/ccJoyKRG.s:6831   .debug_str:0000000000000185 .LASF30
     /tmp/ccJoyKRG.s:1121   .text:00000000000007a0 .LFB18
     /tmp/ccJoyKRG.s:1306   .text:000000000000091c .LFE18
     /tmp/ccJoyKRG.s:5796   .debug_loc:0000000000000790 .LLST38
     /tmp/ccJoyKRG.s:5821   .debug_loc:00000000000007f2 .LLST42
     /tmp/ccJoyKRG.s:1163   .text:00000000000007ec .LBB84
     /tmp/ccJoyKRG.s:5832   .debug_loc:0000000000000828 .LLST43
     /tmp/ccJoyKRG.s:5847   .debug_loc:0000000000000862 .LLST44
     /tmp/ccJoyKRG.s:5862   .debug_loc:00000000000008aa .LLST45
     /tmp/ccJoyKRG.s:1229   .text:000000000000086c .LVL171
     /tmp/ccJoyKRG.s:1234   .text:000000000000087c .LVL172
     /tmp/ccJoyKRG.s:1239   .text:000000000000088c .LVL173
     /tmp/ccJoyKRG.s:1244   .text:0000000000000898 .LVL174
     /tmp/ccJoyKRG.s:1249   .text:00000000000008a8 .LVL175
     /tmp/ccJoyKRG.s:1253   .text:00000000000008b0 .LVL176
     /tmp/ccJoyKRG.s:1257   .text:00000000000008b8 .LVL177
GAS LISTING /tmp/ccJoyKRG.s 			page 71


     /tmp/ccJoyKRG.s:1158   .text:00000000000007dc .LVL156
     /tmp/ccJoyKRG.s:1162   .text:00000000000007ec .LVL157
     /tmp/ccJoyKRG.s:1174   .text:00000000000007f8 .LVL159
     /tmp/ccJoyKRG.s:1141   .text:00000000000007c0 .LBB80
     /tmp/ccJoyKRG.s:5887   .debug_loc:00000000000008ee .LLST39
     /tmp/ccJoyKRG.s:5902   .debug_loc:0000000000000928 .LLST40
     /tmp/ccJoyKRG.s:5917   .debug_loc:0000000000000970 .LLST41
     /tmp/ccJoyKRG.s:1189   .text:0000000000000810 .LVL163
     /tmp/ccJoyKRG.s:1194   .text:0000000000000820 .LVL164
     /tmp/ccJoyKRG.s:1199   .text:0000000000000830 .LVL165
     /tmp/ccJoyKRG.s:1204   .text:000000000000083c .LVL166
     /tmp/ccJoyKRG.s:1209   .text:000000000000084c .LVL167
     /tmp/ccJoyKRG.s:1213   .text:0000000000000854 .LVL168
     /tmp/ccJoyKRG.s:1217   .text:000000000000085c .LVL169
     /tmp/ccJoyKRG.s:1267   .text:00000000000008c0 .LBB90
     /tmp/ccJoyKRG.s:1304   .text:000000000000091c .LBE90
     /tmp/ccJoyKRG.s:1274   .text:00000000000008d0 .LVL179
     /tmp/ccJoyKRG.s:1279   .text:00000000000008e0 .LVL180
     /tmp/ccJoyKRG.s:1284   .text:00000000000008f0 .LVL181
     /tmp/ccJoyKRG.s:1289   .text:00000000000008fc .LVL182
     /tmp/ccJoyKRG.s:1294   .text:000000000000090c .LVL183
     /tmp/ccJoyKRG.s:1298   .text:0000000000000914 .LVL184
     /tmp/ccJoyKRG.s:1302   .text:000000000000091c .LVL185
     /tmp/ccJoyKRG.s:1265   .text:00000000000008c0 .LVL178
     /tmp/ccJoyKRG.s:6819   .debug_str:0000000000000117 .LASF31
     /tmp/ccJoyKRG.s:923    .text:0000000000000620 .LFB17
     /tmp/ccJoyKRG.s:1115   .text:00000000000007a0 .LFE17
     /tmp/ccJoyKRG.s:5936   .debug_loc:00000000000009ae .LLST30
     /tmp/ccJoyKRG.s:5961   .debug_loc:0000000000000a10 .LLST34
     /tmp/ccJoyKRG.s:965    .text:000000000000066c .LBB65
     /tmp/ccJoyKRG.s:5972   .debug_loc:0000000000000a46 .LLST35
     /tmp/ccJoyKRG.s:5987   .debug_loc:0000000000000a80 .LLST36
     /tmp/ccJoyKRG.s:6002   .debug_loc:0000000000000ac8 .LLST37
     /tmp/ccJoyKRG.s:1031   .text:00000000000006ec .LVL138
     /tmp/ccJoyKRG.s:1036   .text:00000000000006fc .LVL139
     /tmp/ccJoyKRG.s:1041   .text:000000000000070c .LVL140
     /tmp/ccJoyKRG.s:1046   .text:0000000000000718 .LVL141
     /tmp/ccJoyKRG.s:1051   .text:0000000000000728 .LVL142
     /tmp/ccJoyKRG.s:1055   .text:0000000000000730 .LVL143
     /tmp/ccJoyKRG.s:1059   .text:0000000000000738 .LVL144
     /tmp/ccJoyKRG.s:960    .text:000000000000065c .LVL123
     /tmp/ccJoyKRG.s:964    .text:000000000000066c .LVL124
     /tmp/ccJoyKRG.s:976    .text:0000000000000678 .LVL126
     /tmp/ccJoyKRG.s:943    .text:0000000000000640 .LBB61
     /tmp/ccJoyKRG.s:6027   .debug_loc:0000000000000b0c .LLST31
     /tmp/ccJoyKRG.s:6042   .debug_loc:0000000000000b46 .LLST32
     /tmp/ccJoyKRG.s:6057   .debug_loc:0000000000000b8e .LLST33
     /tmp/ccJoyKRG.s:991    .text:0000000000000690 .LVL130
     /tmp/ccJoyKRG.s:996    .text:00000000000006a0 .LVL131
     /tmp/ccJoyKRG.s:1001   .text:00000000000006b0 .LVL132
     /tmp/ccJoyKRG.s:1006   .text:00000000000006bc .LVL133
     /tmp/ccJoyKRG.s:1011   .text:00000000000006cc .LVL134
     /tmp/ccJoyKRG.s:1015   .text:00000000000006d4 .LVL135
     /tmp/ccJoyKRG.s:1019   .text:00000000000006dc .LVL136
     /tmp/ccJoyKRG.s:1076   .text:0000000000000744 .LBB71
     /tmp/ccJoyKRG.s:1113   .text:00000000000007a0 .LBE71
     /tmp/ccJoyKRG.s:1083   .text:0000000000000754 .LVL146
GAS LISTING /tmp/ccJoyKRG.s 			page 72


     /tmp/ccJoyKRG.s:1088   .text:0000000000000764 .LVL147
     /tmp/ccJoyKRG.s:1093   .text:0000000000000774 .LVL148
     /tmp/ccJoyKRG.s:1098   .text:0000000000000780 .LVL149
     /tmp/ccJoyKRG.s:1103   .text:0000000000000790 .LVL150
     /tmp/ccJoyKRG.s:1107   .text:0000000000000798 .LVL151
     /tmp/ccJoyKRG.s:1111   .text:00000000000007a0 .LVL152
     /tmp/ccJoyKRG.s:1074   .text:0000000000000744 .LVL145
     /tmp/ccJoyKRG.s:6945   .debug_str:000000000000053c .LASF32
     /tmp/ccJoyKRG.s:6837   .debug_str:00000000000001ac .LASF33
     /tmp/ccJoyKRG.s:767    .text:00000000000004f8 .LFB16
     /tmp/ccJoyKRG.s:854    .text:00000000000005b8 .LFE16
     /tmp/ccJoyKRG.s:6841   .debug_str:00000000000001ca .LASF34
     /tmp/ccJoyKRG.s:6843   .debug_str:00000000000001cf .LASF35
     /tmp/ccJoyKRG.s:781    .text:0000000000000510 .LVL103
     /tmp/ccJoyKRG.s:786    .text:0000000000000520 .LVL104
     /tmp/ccJoyKRG.s:790    .text:0000000000000528 .LVL105
     /tmp/ccJoyKRG.s:809    .text:0000000000000550 .LVL106
     /tmp/ccJoyKRG.s:816    .text:0000000000000568 .LVL107
     /tmp/ccJoyKRG.s:820    .text:0000000000000570 .LVL108
     /tmp/ccJoyKRG.s:825    .text:000000000000057c .LVL109
     /tmp/ccJoyKRG.s:830    .text:0000000000000588 .LVL110
     /tmp/ccJoyKRG.s:835    .text:0000000000000598 .LVL111
     /tmp/ccJoyKRG.s:839    .text:00000000000005a0 .LVL112
     /tmp/ccJoyKRG.s:843    .text:00000000000005a8 .LVL113
     /tmp/ccJoyKRG.s:6953   .debug_str:000000000000056b .LASF36
     /tmp/ccJoyKRG.s:6929   .debug_str:0000000000000410 .LASF37
     /tmp/ccJoyKRG.s:514    .text:0000000000000340 .LFB15
     /tmp/ccJoyKRG.s:753    .text:00000000000004f8 .LFE15
     /tmp/ccJoyKRG.s:6076   .debug_loc:0000000000000bcc .LLST18
     /tmp/ccJoyKRG.s:6879   .debug_str:00000000000002b1 .LASF38
     /tmp/ccJoyKRG.s:6112   .debug_loc:0000000000000c57 .LLST19
     /tmp/ccJoyKRG.s:6911   .debug_str:000000000000038b .LASF39
     /tmp/ccJoyKRG.s:6127   .debug_loc:0000000000000ca0 .LLST20
     /tmp/ccJoyKRG.s:536    .text:0000000000000360 .LBB41
     /tmp/ccJoyKRG.s:692    .text:0000000000000480 .LBE41
     /tmp/ccJoyKRG.s:6147   .debug_loc:0000000000000cfd .LLST21
     /tmp/ccJoyKRG.s:542    .text:0000000000000368 .LBB42
     /tmp/ccJoyKRG.s:6167   .debug_loc:0000000000000d5a .LLST22
     /tmp/ccJoyKRG.s:6182   .debug_loc:0000000000000d94 .LLST23
     /tmp/ccJoyKRG.s:6197   .debug_loc:0000000000000ddc .LLST24
     /tmp/ccJoyKRG.s:549    .text:0000000000000378 .LVL71
     /tmp/ccJoyKRG.s:554    .text:0000000000000388 .LVL72
     /tmp/ccJoyKRG.s:559    .text:0000000000000398 .LVL73
     /tmp/ccJoyKRG.s:564    .text:00000000000003a4 .LVL74
     /tmp/ccJoyKRG.s:569    .text:00000000000003b4 .LVL75
     /tmp/ccJoyKRG.s:573    .text:00000000000003bc .LVL76
     /tmp/ccJoyKRG.s:577    .text:00000000000003c4 .LVL77
     /tmp/ccJoyKRG.s:581    .text:00000000000003c4 .LBB45
     /tmp/ccJoyKRG.s:6222   .debug_loc:0000000000000e20 .LLST25
     /tmp/ccJoyKRG.s:6237   .debug_loc:0000000000000e5a .LLST26
     /tmp/ccJoyKRG.s:6252   .debug_loc:0000000000000ea2 .LLST27
     /tmp/ccJoyKRG.s:588    .text:00000000000003d4 .LVL79
     /tmp/ccJoyKRG.s:593    .text:00000000000003e4 .LVL80
     /tmp/ccJoyKRG.s:598    .text:00000000000003f4 .LVL81
     /tmp/ccJoyKRG.s:603    .text:0000000000000400 .LVL82
     /tmp/ccJoyKRG.s:608    .text:0000000000000410 .LVL83
     /tmp/ccJoyKRG.s:612    .text:0000000000000418 .LVL84
GAS LISTING /tmp/ccJoyKRG.s 			page 73


     /tmp/ccJoyKRG.s:616    .text:0000000000000420 .LVL85
     /tmp/ccJoyKRG.s:696    .text:0000000000000488 .LBB50
     /tmp/ccJoyKRG.s:6293   .debug_loc:0000000000000f04 .LLST28
     /tmp/ccJoyKRG.s:721    .text:00000000000004ac .LVL96
     /tmp/ccJoyKRG.s:726    .text:00000000000004bc .LVL97
     /tmp/ccJoyKRG.s:731    .text:00000000000004cc .LVL98
     /tmp/ccJoyKRG.s:736    .text:00000000000004d8 .LVL99
     /tmp/ccJoyKRG.s:741    .text:00000000000004e8 .LVL100
     /tmp/ccJoyKRG.s:745    .text:00000000000004f0 .LVL101
     /tmp/ccJoyKRG.s:749    .text:00000000000004f8 .LVL102
     /tmp/ccJoyKRG.s:6871   .debug_str:0000000000000279 .LASF40
     /tmp/ccJoyKRG.s:6867   .debug_str:0000000000000260 .LASF41
     /tmp/ccJoyKRG.s:394    .text:000000000000026c .LFB14
     /tmp/ccJoyKRG.s:508    .text:0000000000000340 .LFE14
     /tmp/ccJoyKRG.s:6304   .debug_loc:0000000000000f2b .LLST14
     /tmp/ccJoyKRG.s:6318   .debug_loc:0000000000000f64 .LLST15
     /tmp/ccJoyKRG.s:404    .text:0000000000000278 .LBB29
     /tmp/ccJoyKRG.s:448    .text:00000000000002c4 .LBE29
     /tmp/ccJoyKRG.s:6334   .debug_loc:0000000000000fae .LLST16
     /tmp/ccJoyKRG.s:452    .text:00000000000002cc .LBB30
     /tmp/ccJoyKRG.s:6346   .debug_loc:0000000000000fe5 .LLST17
     /tmp/ccJoyKRG.s:476    .text:00000000000002f4 .LVL59
     /tmp/ccJoyKRG.s:481    .text:0000000000000304 .LVL60
     /tmp/ccJoyKRG.s:486    .text:0000000000000314 .LVL61
     /tmp/ccJoyKRG.s:491    .text:0000000000000320 .LVL62
     /tmp/ccJoyKRG.s:496    .text:0000000000000330 .LVL63
     /tmp/ccJoyKRG.s:500    .text:0000000000000338 .LVL64
     /tmp/ccJoyKRG.s:504    .text:0000000000000340 .LVL65
     /tmp/ccJoyKRG.s:6941   .debug_str:000000000000051e .LASF42
     /tmp/ccJoyKRG.s:6861   .debug_str:000000000000022a .LASF43
     /tmp/ccJoyKRG.s:236    .text:0000000000000130 .LFB13
     /tmp/ccJoyKRG.s:388    .text:000000000000026c .LFE13
     /tmp/ccJoyKRG.s:6905   .debug_str:000000000000036a .LASF44
     /tmp/ccJoyKRG.s:6881   .debug_str:00000000000002b6 .LASF45
     /tmp/ccJoyKRG.s:6897   .debug_str:000000000000032e .LASF46
     /tmp/ccJoyKRG.s:6857   .debug_str:0000000000000215 .LASF47
     /tmp/ccJoyKRG.s:6357   .debug_loc:000000000000100c .LLST10
     /tmp/ccJoyKRG.s:311    .text:00000000000001d8 .LBB22
     /tmp/ccJoyKRG.s:6395   .debug_loc:000000000000108a .LLST11
     /tmp/ccJoyKRG.s:6410   .debug_loc:00000000000010c4 .LLST12
     /tmp/ccJoyKRG.s:6425   .debug_loc:000000000000110c .LLST13
     /tmp/ccJoyKRG.s:356    .text:0000000000000220 .LVL43
     /tmp/ccJoyKRG.s:361    .text:0000000000000230 .LVL44
     /tmp/ccJoyKRG.s:366    .text:0000000000000240 .LVL45
     /tmp/ccJoyKRG.s:371    .text:000000000000024c .LVL46
     /tmp/ccJoyKRG.s:376    .text:000000000000025c .LVL47
     /tmp/ccJoyKRG.s:380    .text:0000000000000264 .LVL48
     /tmp/ccJoyKRG.s:384    .text:000000000000026c .LVL49
     /tmp/ccJoyKRG.s:253    .text:0000000000000154 .LVL28
     /tmp/ccJoyKRG.s:257    .text:000000000000015c .LVL29
     /tmp/ccJoyKRG.s:275    .text:0000000000000184 .LVL30
     /tmp/ccJoyKRG.s:283    .text:000000000000019c .LVL31
     /tmp/ccJoyKRG.s:288    .text:00000000000001a8 .LVL32
     /tmp/ccJoyKRG.s:293    .text:00000000000001b4 .LVL33
     /tmp/ccJoyKRG.s:323    .text:00000000000001ec .LVL38
     /tmp/ccJoyKRG.s:327    .text:00000000000001f4 .LVL39
     /tmp/ccJoyKRG.s:6859   .debug_str:0000000000000221 .LASF48
GAS LISTING /tmp/ccJoyKRG.s 			page 74


     /tmp/ccJoyKRG.s:127    .text:0000000000000098 .LFB12
     /tmp/ccJoyKRG.s:222    .text:0000000000000130 .LFE12
     /tmp/ccJoyKRG.s:6446   .debug_loc:000000000000114c .LLST5
     /tmp/ccJoyKRG.s:6464   .debug_loc:0000000000001198 .LLST6
     /tmp/ccJoyKRG.s:145    .text:00000000000000b0 .LBB15
     /tmp/ccJoyKRG.s:6484   .debug_loc:00000000000011f5 .LLST7
     /tmp/ccJoyKRG.s:6499   .debug_loc:000000000000122f .LLST8
     /tmp/ccJoyKRG.s:6514   .debug_loc:0000000000001277 .LLST9
     /tmp/ccJoyKRG.s:177    .text:00000000000000dc .LVL21
     /tmp/ccJoyKRG.s:182    .text:00000000000000ec .LVL22
     /tmp/ccJoyKRG.s:187    .text:00000000000000fc .LVL23
     /tmp/ccJoyKRG.s:192    .text:0000000000000108 .LVL24
     /tmp/ccJoyKRG.s:197    .text:0000000000000118 .LVL25
     /tmp/ccJoyKRG.s:201    .text:0000000000000120 .LVL26
     /tmp/ccJoyKRG.s:205    .text:0000000000000128 .LVL27
     /tmp/ccJoyKRG.s:6933   .debug_str:000000000000042f .LASF49
     /tmp/ccJoyKRG.s:24     .text:0000000000000000 .LFB11
     /tmp/ccJoyKRG.s:121    .text:0000000000000098 .LFE11
     /tmp/ccJoyKRG.s:6533   .debug_loc:00000000000012b5 .LLST0
     /tmp/ccJoyKRG.s:6551   .debug_loc:0000000000001301 .LLST1
     /tmp/ccJoyKRG.s:43     .text:0000000000000018 .LBB6
     /tmp/ccJoyKRG.s:6571   .debug_loc:000000000000135e .LLST2
     /tmp/ccJoyKRG.s:6586   .debug_loc:0000000000001398 .LLST3
     /tmp/ccJoyKRG.s:6601   .debug_loc:00000000000013e0 .LLST4
     /tmp/ccJoyKRG.s:76     .text:0000000000000044 .LVL7
     /tmp/ccJoyKRG.s:81     .text:0000000000000054 .LVL8
     /tmp/ccJoyKRG.s:86     .text:0000000000000064 .LVL9
     /tmp/ccJoyKRG.s:91     .text:0000000000000070 .LVL10
     /tmp/ccJoyKRG.s:96     .text:0000000000000080 .LVL11
     /tmp/ccJoyKRG.s:100    .text:0000000000000088 .LVL12
     /tmp/ccJoyKRG.s:104    .text:0000000000000090 .LVL13
     /tmp/ccJoyKRG.s:6873   .debug_str:0000000000000286 .LASF50
     /tmp/ccJoyKRG.s:6949   .debug_str:0000000000000554 .LASF51
     /tmp/ccJoyKRG.s:1913   .text:0000000000000d40 .LFB10
     /tmp/ccJoyKRG.s:1975   .text:0000000000000db4 .LFE10
     /tmp/ccJoyKRG.s:1935   .text:0000000000000d64 .LVL280
     /tmp/ccJoyKRG.s:1939   .text:0000000000000d6c .LVL281
     /tmp/ccJoyKRG.s:1943   .text:0000000000000d74 .LVL282
     /tmp/ccJoyKRG.s:1947   .text:0000000000000d7c .LVL283
     /tmp/ccJoyKRG.s:1951   .text:0000000000000d84 .LVL284
     /tmp/ccJoyKRG.s:1955   .text:0000000000000d8c .LVL285
     /tmp/ccJoyKRG.s:1960   .text:0000000000000d9c .LVL286
     /tmp/ccJoyKRG.s:1964   .text:0000000000000da4 .LVL287
     /tmp/ccJoyKRG.s:6915   .debug_str:00000000000003a2 .LASF52
     /tmp/ccJoyKRG.s:6805   .debug_str:00000000000000ad .LASF53
     /tmp/ccJoyKRG.s:6869   .debug_str:0000000000000273 .LASF54
     /tmp/ccJoyKRG.s:6801   .debug_str:000000000000009a .LASF55
     /tmp/ccJoyKRG.s:6851   .debug_str:00000000000001fe .LASF56
     /tmp/ccJoyKRG.s:6803   .debug_str:000000000000009f .LASF57
     /tmp/ccJoyKRG.s:6923   .debug_str:00000000000003dd .LASF59
     /tmp/ccJoyKRG.s:6795   .debug_str:000000000000006e .LASF58
     /tmp/ccJoyKRG.s:6785   .debug_str:0000000000000027 .LASF60
     /tmp/ccJoyKRG.s:6931   .debug_str:0000000000000424 .LASF61
     /tmp/ccJoyKRG.s:6951   .debug_str:0000000000000564 .LASF62
     /tmp/ccJoyKRG.s:6927   .debug_str:0000000000000400 .LASF63
     /tmp/ccJoyKRG.s:6919   .debug_str:00000000000003c0 .LASF64
     /tmp/ccJoyKRG.s:6907   .debug_str:0000000000000373 .LASF65
GAS LISTING /tmp/ccJoyKRG.s 			page 75


     /tmp/ccJoyKRG.s:6855   .debug_str:000000000000020a .LASF66
     /tmp/ccJoyKRG.s:6899   .debug_str:0000000000000339 .LASF67
     /tmp/ccJoyKRG.s:6815   .debug_str:0000000000000102 .LASF68
     /tmp/ccJoyKRG.s:6913   .debug_str:0000000000000394 .LASF69
     /tmp/ccJoyKRG.s:6885   .debug_str:00000000000002dc .LASF70
     /tmp/ccJoyKRG.s:6947   .debug_str:0000000000000549 .LASF71
     /tmp/ccJoyKRG.s:6853   .debug_str:0000000000000203 .LASF72
     /tmp/ccJoyKRG.s:6827   .debug_str:0000000000000157 .LASF73
     /tmp/ccJoyKRG.s:6799   .debug_str:000000000000008a .LASF74
     /tmp/ccJoyKRG.s:6889   .debug_str:00000000000002f9 .LASF75
     /tmp/ccJoyKRG.s:6839   .debug_str:00000000000001be .LASF76
     /tmp/ccJoyKRG.s:6787   .debug_str:0000000000000031 .LASF77
     /tmp/ccJoyKRG.s:6813   .debug_str:00000000000000e8 .LASF78
     /tmp/ccJoyKRG.s:6883   .debug_str:00000000000002bf .LASF79
     /tmp/ccJoyKRG.s:6809   .debug_str:00000000000000d3 .LASF80
     /tmp/ccJoyKRG.s:6849   .debug_str:00000000000001ed .LASF81
     /tmp/ccJoyKRG.s:6817   .debug_str:000000000000010b .LASF82
     /tmp/ccJoyKRG.s:6825   .debug_str:0000000000000139 .LASF83
     /tmp/ccJoyKRG.s:6829   .debug_str:000000000000016c .LASF84
     /tmp/ccJoyKRG.s:1634   .text:0000000000000b54 .LVL233
     /tmp/ccJoyKRG.s:1639   .text:0000000000000b58 .LVL234
     /tmp/ccJoyKRG.s:1853   .text:0000000000000cdc .LVL270
     /tmp/ccJoyKRG.s:1857   .text:0000000000000ce4 .LVL271
     /tmp/ccJoyKRG.s:1671   .text:0000000000000b8c .LVL238
     /tmp/ccJoyKRG.s:1685   .text:0000000000000ba8 .LVL239
     /tmp/ccJoyKRG.s:1690   .text:0000000000000bb0 .LVL241
     /tmp/ccJoyKRG.s:1707   .text:0000000000000bc0 .LVL244
     /tmp/ccJoyKRG.s:1733   .text:0000000000000be8 .LVL248
     /tmp/ccJoyKRG.s:1780   .text:0000000000000c4c .LVL256
     /tmp/ccJoyKRG.s:1832   .text:0000000000000cb8 .LVL266
     /tmp/ccJoyKRG.s:1865   .text:0000000000000cec .LVL272
     /tmp/ccJoyKRG.s:1659   .text:0000000000000b80 .LVL236
     /tmp/ccJoyKRG.s:1661   .text:0000000000000b84 .LVL237
     /tmp/ccJoyKRG.s:1688   .text:0000000000000bac .LVL240
     /tmp/ccJoyKRG.s:1695   .text:0000000000000bb4 .LVL242
     /tmp/ccJoyKRG.s:1731   .text:0000000000000be4 .LVL247
     /tmp/ccJoyKRG.s:1848   .text:0000000000000cd4 .LVL269
     /tmp/ccJoyKRG.s:1726   .text:0000000000000be0 .LVL246
     /tmp/ccJoyKRG.s:1697   .text:0000000000000bb8 .LVL243
     /tmp/ccJoyKRG.s:1826   .text:0000000000000cb0 .LVL265
     /tmp/ccJoyKRG.s:1374   .text:000000000000096c .LVL188
     /tmp/ccJoyKRG.s:1384   .text:0000000000000978 .LVL189
     /tmp/ccJoyKRG.s:1426   .text:00000000000009b0 .LVL200
     /tmp/ccJoyKRG.s:1430   .text:00000000000009b4 .LVL201
     /tmp/ccJoyKRG.s:1573   .text:0000000000000af8 .LVL228
     /tmp/ccJoyKRG.s:1388   .text:000000000000097c .LVL190
     /tmp/ccJoyKRG.s:1423   .text:00000000000009ac .LVL199
     /tmp/ccJoyKRG.s:1576   .text:0000000000000afc .LVL229
     /tmp/ccJoyKRG.s:1419   .text:00000000000009a8 .LVL198
     /tmp/ccJoyKRG.s:1566   .text:0000000000000aec .LVL227
     /tmp/ccJoyKRG.s:1395   .text:000000000000098c .LVL192
     /tmp/ccJoyKRG.s:1399   .text:0000000000000990 .LVL193
     /tmp/ccJoyKRG.s:1403   .text:000000000000099c .LVL195
     /tmp/ccJoyKRG.s:1436   .text:00000000000009bc .LVL202
     /tmp/ccJoyKRG.s:1513   .text:0000000000000a74 .LVL217
     /tmp/ccJoyKRG.s:1407   .text:00000000000009a0 .LVL196
     /tmp/ccJoyKRG.s:1413   .text:00000000000009a4 .LVL197
GAS LISTING /tmp/ccJoyKRG.s 			page 76


     /tmp/ccJoyKRG.s:863    .text:00000000000005b8 .LVL114
     /tmp/ccJoyKRG.s:882    .text:00000000000005e0 .LVL115
     /tmp/ccJoyKRG.s:899    .text:00000000000005fc .LVL116
     /tmp/ccJoyKRG.s:914    .text:000000000000061c .LVL119
     /tmp/ccJoyKRG.s:1124   .text:00000000000007a0 .LVL153
     /tmp/ccJoyKRG.s:1150   .text:00000000000007c8 .LVL155
     /tmp/ccJoyKRG.s:1179   .text:0000000000000800 .LVL161
     /tmp/ccJoyKRG.s:1187   .text:0000000000000808 .LVL162
     /tmp/ccJoyKRG.s:1177   .text:00000000000007fc .LVL160
     /tmp/ccJoyKRG.s:1168   .text:00000000000007f0 .LVL158
     /tmp/ccJoyKRG.s:1227   .text:0000000000000864 .LVL170
     /tmp/ccJoyKRG.s:1140   .text:00000000000007c0 .LVL154
     /tmp/ccJoyKRG.s:926    .text:0000000000000620 .LVL120
     /tmp/ccJoyKRG.s:952    .text:0000000000000648 .LVL122
     /tmp/ccJoyKRG.s:981    .text:0000000000000680 .LVL128
     /tmp/ccJoyKRG.s:989    .text:0000000000000688 .LVL129
     /tmp/ccJoyKRG.s:979    .text:000000000000067c .LVL127
     /tmp/ccJoyKRG.s:970    .text:0000000000000670 .LVL125
     /tmp/ccJoyKRG.s:1029   .text:00000000000006e4 .LVL137
     /tmp/ccJoyKRG.s:942    .text:0000000000000640 .LVL121
     /tmp/ccJoyKRG.s:517    .text:0000000000000340 .LVL66
     /tmp/ccJoyKRG.s:547    .text:0000000000000370 .LVL70
     /tmp/ccJoyKRG.s:586    .text:00000000000003cc .LVL78
     /tmp/ccJoyKRG.s:719    .text:00000000000004a4 .LVL95
     /tmp/ccJoyKRG.s:529    .text:0000000000000354 .LVL67
     /tmp/ccJoyKRG.s:534    .text:0000000000000360 .LVL68
     /tmp/ccJoyKRG.s:669    .text:000000000000045c .LVL89
     /tmp/ccJoyKRG.s:687    .text:0000000000000478 .LVL92
     /tmp/ccJoyKRG.s:689    .text:000000000000047c .LVL93
     /tmp/ccJoyKRG.s:540    .text:0000000000000368 .LVL69
     /tmp/ccJoyKRG.s:695    .text:0000000000000488 .LVL94
     /tmp/ccJoyKRG.s:642    .text:0000000000000434 .LVL87
     /tmp/ccJoyKRG.s:648    .text:0000000000000438 .LVL88
     /tmp/ccJoyKRG.s:675    .text:000000000000046c .LVL90
     /tmp/ccJoyKRG.s:681    .text:0000000000000470 .LVL91
     /tmp/ccJoyKRG.s:397    .text:000000000000026c .LVL50
     /tmp/ccJoyKRG.s:474    .text:00000000000002ec .LVL58
     /tmp/ccJoyKRG.s:402    .text:0000000000000278 .LVL51
     /tmp/ccJoyKRG.s:420    .text:000000000000028c .LVL53
     /tmp/ccJoyKRG.s:427    .text:00000000000002a0 .LVL54
     /tmp/ccJoyKRG.s:429    .text:00000000000002a4 .LVL55
     /tmp/ccJoyKRG.s:408    .text:0000000000000280 .LVL52
     /tmp/ccJoyKRG.s:451    .text:00000000000002cc .LVL57
     /tmp/ccJoyKRG.s:301    .text:00000000000001c8 .LVL34
     /tmp/ccJoyKRG.s:304    .text:00000000000001cc .LVL35
     /tmp/ccJoyKRG.s:340    .text:0000000000000208 .LVL40
     /tmp/ccJoyKRG.s:346    .text:000000000000020c .LVL41
     /tmp/ccJoyKRG.s:348    .text:0000000000000210 .LVL42
     /tmp/ccJoyKRG.s:310    .text:00000000000001d8 .LVL36
     /tmp/ccJoyKRG.s:316    .text:00000000000001dc .LVL37
     /tmp/ccJoyKRG.s:130    .text:0000000000000098 .LVL14
     /tmp/ccJoyKRG.s:175    .text:00000000000000d4 .LVL20
     /tmp/ccJoyKRG.s:135    .text:000000000000009c .LVL15
     /tmp/ccJoyKRG.s:155    .text:00000000000000b8 .LVL18
     /tmp/ccJoyKRG.s:157    .text:00000000000000bc .LVL19
     /tmp/ccJoyKRG.s:144    .text:00000000000000b0 .LVL16
     /tmp/ccJoyKRG.s:150    .text:00000000000000b4 .LVL17
GAS LISTING /tmp/ccJoyKRG.s 			page 77


     /tmp/ccJoyKRG.s:28     .text:0000000000000000 .LVL0
     /tmp/ccJoyKRG.s:74     .text:000000000000003c .LVL6
     /tmp/ccJoyKRG.s:33     .text:0000000000000004 .LVL1
     /tmp/ccJoyKRG.s:54     .text:0000000000000020 .LVL4
     /tmp/ccJoyKRG.s:56     .text:0000000000000024 .LVL5
     /tmp/ccJoyKRG.s:42     .text:0000000000000018 .LVL2
     /tmp/ccJoyKRG.s:49     .text:000000000000001c .LVL3
     /tmp/ccJoyKRG.s:1996   .debug_info:0000000000000000 .Ldebug_info0
     /tmp/ccJoyKRG.s:30     .text:0000000000000000 .LBB5
     /tmp/ccJoyKRG.s:58     .text:0000000000000024 .LBE5
     /tmp/ccJoyKRG.s:68     .text:0000000000000034 .LBB10
     /tmp/ccJoyKRG.s:111    .text:0000000000000090 .LBE10
     /tmp/ccJoyKRG.s:51     .text:000000000000001c .LBE6
     /tmp/ccJoyKRG.s:69     .text:0000000000000034 .LBB9
     /tmp/ccJoyKRG.s:110    .text:0000000000000090 .LBE9
     /tmp/ccJoyKRG.s:132    .text:0000000000000098 .LBB14
     /tmp/ccJoyKRG.s:159    .text:00000000000000bc .LBE14
     /tmp/ccJoyKRG.s:169    .text:00000000000000cc .LBB19
     /tmp/ccJoyKRG.s:212    .text:0000000000000128 .LBE19
     /tmp/ccJoyKRG.s:152    .text:00000000000000b4 .LBE15
     /tmp/ccJoyKRG.s:170    .text:00000000000000cc .LBB18
     /tmp/ccJoyKRG.s:211    .text:0000000000000128 .LBE18
     /tmp/ccJoyKRG.s:318    .text:00000000000001dc .LBE22
     /tmp/ccJoyKRG.s:350    .text:0000000000000210 .LBB25
     /tmp/ccJoyKRG.s:386    .text:000000000000026c .LBE25
     /tmp/ccJoyKRG.s:459    .text:00000000000002d4 .LBE30
     /tmp/ccJoyKRG.s:469    .text:00000000000002e4 .LBB33
     /tmp/ccJoyKRG.s:506    .text:0000000000000340 .LBE33
     /tmp/ccJoyKRG.s:580    .text:00000000000003c4 .LBE42
     /tmp/ccJoyKRG.s:643    .text:0000000000000434 .LBB48
     /tmp/ccJoyKRG.s:650    .text:0000000000000438 .LBE48
     /tmp/ccJoyKRG.s:619    .text:0000000000000420 .LBE45
     /tmp/ccJoyKRG.s:676    .text:000000000000046c .LBB49
     /tmp/ccJoyKRG.s:683    .text:0000000000000470 .LBE49
     /tmp/ccJoyKRG.s:701    .text:000000000000048c .LBE50
     /tmp/ccJoyKRG.s:714    .text:000000000000049c .LBB53
     /tmp/ccJoyKRG.s:751    .text:00000000000004f8 .LBE53
     /tmp/ccJoyKRG.s:948    .text:0000000000000644 .LBE61
     /tmp/ccJoyKRG.s:984    .text:0000000000000680 .LBB69
     /tmp/ccJoyKRG.s:1022   .text:00000000000006dc .LBE69
     /tmp/ccJoyKRG.s:949    .text:0000000000000644 .LBB64
     /tmp/ccJoyKRG.s:983    .text:0000000000000680 .LBE64
     /tmp/ccJoyKRG.s:1023   .text:00000000000006dc .LBB70
     /tmp/ccJoyKRG.s:1063   .text:0000000000000738 .LBE70
     /tmp/ccJoyKRG.s:972    .text:0000000000000670 .LBE65
     /tmp/ccJoyKRG.s:1024   .text:00000000000006dc .LBB68
     /tmp/ccJoyKRG.s:1062   .text:0000000000000738 .LBE68
     /tmp/ccJoyKRG.s:1146   .text:00000000000007c4 .LBE80
     /tmp/ccJoyKRG.s:1182   .text:0000000000000800 .LBB88
     /tmp/ccJoyKRG.s:1220   .text:000000000000085c .LBE88
     /tmp/ccJoyKRG.s:1147   .text:00000000000007c4 .LBB83
     /tmp/ccJoyKRG.s:1181   .text:0000000000000800 .LBE83
     /tmp/ccJoyKRG.s:1221   .text:000000000000085c .LBB89
     /tmp/ccJoyKRG.s:1261   .text:00000000000008b8 .LBE89
     /tmp/ccJoyKRG.s:1170   .text:00000000000007f0 .LBE84
     /tmp/ccJoyKRG.s:1222   .text:000000000000085c .LBB87
     /tmp/ccJoyKRG.s:1260   .text:00000000000008b8 .LBE87
GAS LISTING /tmp/ccJoyKRG.s 			page 78


     /tmp/ccJoyKRG.s:1366   .text:0000000000000960 .LBB98
     /tmp/ccJoyKRG.s:1369   .text:0000000000000964 .LBE98
     /tmp/ccJoyKRG.s:1376   .text:000000000000096c .LBB108
     /tmp/ccJoyKRG.s:1548   .text:0000000000000ac8 .LBE108
     /tmp/ccJoyKRG.s:1380   .text:0000000000000974 .LBB99
     /tmp/ccJoyKRG.s:1416   .text:00000000000009a4 .LBE99
     /tmp/ccJoyKRG.s:1420   .text:00000000000009a8 .LBB106
     /tmp/ccJoyKRG.s:1427   .text:00000000000009b0 .LBE106
     /tmp/ccJoyKRG.s:1432   .text:00000000000009b4 .LBB107
     /tmp/ccJoyKRG.s:1547   .text:0000000000000ac8 .LBE107
     /tmp/ccJoyKRG.s:1415   .text:00000000000009a4 .LBE100
     /tmp/ccJoyKRG.s:1508   .text:0000000000000a6c .LBB105
     /tmp/ccJoyKRG.s:1546   .text:0000000000000ac8 .LBE105
     /tmp/ccJoyKRG.s:1664   .text:0000000000000b84 .LBB119
     /tmp/ccJoyKRG.s:1667   .text:0000000000000b88 .LBE119
     /tmp/ccJoyKRG.s:1672   .text:0000000000000b8c .LBB120
     /tmp/ccJoyKRG.s:1692   .text:0000000000000bb0 .LBE120
     /tmp/ccJoyKRG.s:1703   .text:0000000000000bbc .LBE121
     /tmp/ccJoyKRG.s:1736   .text:0000000000000be8 .LBB129
     /tmp/ccJoyKRG.s:1773   .text:0000000000000c44 .LBE129
     /tmp/ccJoyKRG.s:1704   .text:0000000000000bbc .LBB124
     /tmp/ccJoyKRG.s:1735   .text:0000000000000be8 .LBE124
     /tmp/ccJoyKRG.s:1774   .text:0000000000000c44 .LBB130
     /tmp/ccJoyKRG.s:1814   .text:0000000000000ca0 .LBE130
     /tmp/ccJoyKRG.s:1728   .text:0000000000000be0 .LBE125
     /tmp/ccJoyKRG.s:1775   .text:0000000000000c44 .LBB128
     /tmp/ccJoyKRG.s:1813   .text:0000000000000ca0 .LBE128
     /tmp/ccJoyKRG.s:1828   .text:0000000000000cb0 .LBE131
     /tmp/ccJoyKRG.s:1860   .text:0000000000000ce4 .LBB134
     /tmp/ccJoyKRG.s:1897   .text:0000000000000d40 .LBE134

UNDEFINED SYMBOLS
_Z9putStringPKc
_Z6putInti
_Z10putNewlinev
_Z10stopKernelv
_Z13thread_createPmPFvPvES0_
_Z11thread_joinm
gTimer
_Z25disableExternalInterruptsv
_Z15thread_dispatchv
_Z24enableExternalInterruptsv
_Z9test_callm
_Z11thread_exitv
_Z6putU64m
_Z9mem_allocm
_Z8mem_freePv
