GAS LISTING /tmp/ccfTa8yK.s 			page 1


   1              		.file	"APP.cpp"
   2              		.option pic
   3              		.option norelax
   4              		.text
   5              	.Ltext0:
   6              		.section	.rodata.str1.8,"aMS",@progbits,1
   7              		.align	3
   8              	.LC0:
   9 0000 3D3D3D20 		.string	"=== Testing \"testSyncCall\""
   9      54657374 
   9      696E6720 
   9      22746573 
   9      7453796E 
  10 001b 00000000 		.align	3
  10      00
  11              	.LC1:
  12 0020 3D3D3D20 		.string	"=== Success in testing \"testSyncCall\""
  12      53756363 
  12      65737320 
  12      696E2074 
  12      65737469 
  13              		.text
  14              		.align	2
  15              		.globl	_Z12testSyncCallv
  17              	_Z12testSyncCallv:
  18              	.LFB11:
  19              		.file 1 "src/APP.cpp"
   1:src/APP.cpp   **** #include "../h/my_console.h"
   2:src/APP.cpp   **** #include "../h/c_api.h"
   3:src/APP.cpp   **** #include "../h/alloc.h"
   4:src/APP.cpp   **** #include "../h/thread.h"
   5:src/APP.cpp   **** 
   6:src/APP.cpp   **** void testSystemCalls();
   7:src/APP.cpp   **** void testMemoryAllocator();
   8:src/APP.cpp   **** void testSyncCall();
   9:src/APP.cpp   **** uint64 fib(uint64);
  10:src/APP.cpp   **** 
  11:src/APP.cpp   **** void myUserMain()
  12:src/APP.cpp   **** {
  13:src/APP.cpp   **** //    __asm__ volatile ("csrw sscratch, x1"); // set spie bit to 1. spie signifies that we dont wan
  14:src/APP.cpp   **** 
  15:src/APP.cpp   ****     __asm__ volatile ("mv x10, x10");
  16:src/APP.cpp   **** 
  17:src/APP.cpp   **** //    putString("=== App started");
  18:src/APP.cpp   **** //    putNewline();
  19:src/APP.cpp   ****     assert(MemAlloc::get()->getUserlandUsage() == Thread::initialUserMemoryUsage);
  20:src/APP.cpp   **** 
  21:src/APP.cpp   ****     for(int i=0; i<1000000000; i++)
  22:src/APP.cpp   ****     {
  23:src/APP.cpp   ****         __asm__ volatile ("mv x10, x10");
  24:src/APP.cpp   ****     }
  25:src/APP.cpp   **** 
  26:src/APP.cpp   ****     testSystemCalls();
  27:src/APP.cpp   ****     testMemoryAllocator();
  28:src/APP.cpp   ****     testSyncCall();
  29:src/APP.cpp   **** 
  30:src/APP.cpp   **** //    assert(MemAlloc::get()->getUserlandUsage() == Thread::initialUserMemoryUsage); // TODO: enabl
GAS LISTING /tmp/ccfTa8yK.s 			page 2


  31:src/APP.cpp   **** 
  32:src/APP.cpp   **** 
  33:src/APP.cpp   ****     putString("=== App ended");
  34:src/APP.cpp   ****     putNewline();
  35:src/APP.cpp   **** }
  36:src/APP.cpp   **** 
  37:src/APP.cpp   **** void testSyncCall()
  38:src/APP.cpp   **** {
  20              		.loc 1 38 1
  21              		.cfi_startproc
  22 0000 130101FD 		addi	sp,sp,-48
  23              		.cfi_def_cfa_offset 48
  24 0004 23341102 		sd	ra,40(sp)
  25 0008 23308102 		sd	s0,32(sp)
  26              		.cfi_offset 1, -8
  27              		.cfi_offset 8, -16
  28 000c 13040103 		addi	s0,sp,48
  29              		.cfi_def_cfa 8, 0
  39:src/APP.cpp   **** //    disableExternalInterrupts();
  40:src/APP.cpp   **** 
  41:src/APP.cpp   **** //    assert(MemAlloc::get()->getUserlandUsage() == Thread::initialUserMemoryUsage);
  42:src/APP.cpp   **** 
  43:src/APP.cpp   ****     putString("=== Testing \"testSyncCall\"");
  30              		.loc 1 43 5
  31              		.loc 1 43 14 is_stmt 0
  32 0010 17050000 		lla	a0,.LC0
  32      13050500 
  33 0018 97000000 		call	_Z9putStringPKc@plt
  33      E7800000 
  34              	.LVL0:
  44:src/APP.cpp   ****     putNewline();
  35              		.loc 1 44 5 is_stmt 1
  36              		.loc 1 44 15 is_stmt 0
  37 0020 97000000 		call	_Z10putNewlinev@plt
  37      E7800000 
  38              	.LVL1:
  45:src/APP.cpp   **** 
  46:src/APP.cpp   ****     void doA(void*);
  39              		.loc 1 46 5 is_stmt 1
  47:src/APP.cpp   ****     void doB(void*);
  40              		.loc 1 47 5
  48:src/APP.cpp   **** 
  49:src/APP.cpp   ****     int argA = 69;
  41              		.loc 1 49 5
  42              		.loc 1 49 9 is_stmt 0
  43 0028 93075004 		li	a5,69
  44 002c 2326F4FE 		sw	a5,-20(s0)
  50:src/APP.cpp   ****     int argB = 420;
  45              		.loc 1 50 5 is_stmt 1
  46              		.loc 1 50 9 is_stmt 0
  47 0030 9307401A 		li	a5,420
  48 0034 2324F4FE 		sw	a5,-24(s0)
  51:src/APP.cpp   ****     thread_t a;
  49              		.loc 1 51 5 is_stmt 1
  52:src/APP.cpp   ****     thread_t b;
  50              		.loc 1 52 5
  53:src/APP.cpp   ****     thread_create(&a, doA, &argA);
GAS LISTING /tmp/ccfTa8yK.s 			page 3


  51              		.loc 1 53 5
  52              		.loc 1 53 18 is_stmt 0
  53 0038 1306C4FE 		addi	a2,s0,-20
  54 003c 97050000 		la	a1,_Z3doAPv
  54      83B50500 
  55 0044 130504FE 		addi	a0,s0,-32
  56 0048 97000000 		call	_Z13thread_createPmPFvPvES0_@plt
  56      E7800000 
  57              	.LVL2:
  54:src/APP.cpp   ****     thread_create(&b, doB, &argB);
  58              		.loc 1 54 5 is_stmt 1
  59              		.loc 1 54 18 is_stmt 0
  60 0050 130684FE 		addi	a2,s0,-24
  61 0054 97050000 		la	a1,_Z3doBPv
  61      83B50500 
  62 005c 130584FD 		addi	a0,s0,-40
  63 0060 97000000 		call	_Z13thread_createPmPFvPvES0_@plt
  63      E7800000 
  64              	.LVL3:
  55:src/APP.cpp   ****     thread_dispatch();
  65              		.loc 1 55 5 is_stmt 1
  66              		.loc 1 55 20 is_stmt 0
  67 0068 97000000 		call	_Z15thread_dispatchv@plt
  67      E7800000 
  68              	.LVL4:
  56:src/APP.cpp   **** 
  57:src/APP.cpp   **** //    putString("thread_t a = ");
  58:src/APP.cpp   **** //    putU64(a);
  59:src/APP.cpp   **** //    putNewline();
  60:src/APP.cpp   **** //    putString("thread_t b = ");
  61:src/APP.cpp   **** //    putU64(b);
  62:src/APP.cpp   **** //    putNewline();
  63:src/APP.cpp   **** 
  64:src/APP.cpp   ****     thread_join(b);
  69              		.loc 1 64 5 is_stmt 1
  70              		.loc 1 64 16 is_stmt 0
  71 0070 033584FD 		ld	a0,-40(s0)
  72 0074 97000000 		call	_Z11thread_joinm@plt
  72      E7800000 
  73              	.LVL5:
  65:src/APP.cpp   ****     thread_join(a);
  74              		.loc 1 65 5 is_stmt 1
  75              		.loc 1 65 16 is_stmt 0
  76 007c 033504FE 		ld	a0,-32(s0)
  77 0080 97000000 		call	_Z11thread_joinm@plt
  77      E7800000 
  78              	.LVL6:
  66:src/APP.cpp   **** //    assert(Thread::pAllThreads[a]->id == Thread::pAllThreads[b]->id-1);
  67:src/APP.cpp   **** //    assert(MemAlloc::get()->getUserlandUsage() == Thread::initialUserMemoryUsage);
  68:src/APP.cpp   **** 
  69:src/APP.cpp   **** //    enableExternalInterrupts();
  70:src/APP.cpp   ****     __asm__ volatile("mv x10, x10");
  79              		.loc 1 70 5 is_stmt 1
  80              		.loc 1 70 36 is_stmt 0
  81              	#APP
  82              	# 70 "src/APP.cpp" 1
  71              	
GAS LISTING /tmp/ccfTa8yK.s 			page 4


  72:src/APP.cpp   ****     putString("=== Success in testing \"testSyncCall\"");
  83              		mv x10, x10
  84              	# 0 "" 2
  85              		.loc 1 72 5 is_stmt 1
  86              		.loc 1 72 14 is_stmt 0
  87              	#NO_APP
  88 008c 17050000 		lla	a0,.LC1
  88      13050500 
  89 0094 97000000 		call	_Z9putStringPKc@plt
  89      E7800000 
  90              	.LVL7:
  73:src/APP.cpp   ****     putNewline();
  91              		.loc 1 73 5 is_stmt 1
  92              		.loc 1 73 15 is_stmt 0
  93 009c 97000000 		call	_Z10putNewlinev@plt
  93      E7800000 
  94              	.LVL8:
  74:src/APP.cpp   **** }
  95              		.loc 1 74 1
  96 00a4 83308102 		ld	ra,40(sp)
  97              		.cfi_restore 1
  98 00a8 03340102 		ld	s0,32(sp)
  99              		.cfi_restore 8
 100              		.cfi_def_cfa 2, 48
 101 00ac 13010103 		addi	sp,sp,48
 102              		.cfi_def_cfa_offset 0
 103 00b0 67800000 		jr	ra
 104              		.cfi_endproc
 105              	.LFE11:
 107              		.align	2
 108              		.globl	_Z3fibm
 110              	_Z3fibm:
 111              	.LFB14:
  75:src/APP.cpp   **** 
  76:src/APP.cpp   **** 
  77:src/APP.cpp   **** void doA(void* p)
  78:src/APP.cpp   **** {
  79:src/APP.cpp   ****     assert(*((int*)p) == 69);
  80:src/APP.cpp   **** 
  81:src/APP.cpp   ****     for(int i=0; i<=5; i++)
  82:src/APP.cpp   ****     {
  83:src/APP.cpp   **** //        putString("A i=");
  84:src/APP.cpp   **** //        putU64(i);
  85:src/APP.cpp   **** //        putNewline();
  86:src/APP.cpp   **** 
  87:src/APP.cpp   ****         assert(fib(i) == test_call(i));
  88:src/APP.cpp   ****         thread_dispatch();
  89:src/APP.cpp   ****     }
  90:src/APP.cpp   **** 
  91:src/APP.cpp   ****     __asm__ volatile("mv x10, x10");
  92:src/APP.cpp   ****     thread_exit();
  93:src/APP.cpp   ****     assert(false);
  94:src/APP.cpp   **** }
  95:src/APP.cpp   **** 
  96:src/APP.cpp   **** void doB(void* p)
  97:src/APP.cpp   **** {
  98:src/APP.cpp   ****     assert(*((int*)p) == 420);
GAS LISTING /tmp/ccfTa8yK.s 			page 5


  99:src/APP.cpp   **** 
 100:src/APP.cpp   ****     for(int i=0; i<=10; i++)
 101:src/APP.cpp   ****     {
 102:src/APP.cpp   **** //        putString("B i=");
 103:src/APP.cpp   **** //        putU64(i);
 104:src/APP.cpp   **** //        putNewline();
 105:src/APP.cpp   **** 
 106:src/APP.cpp   ****         assert(fib(i) == test_call(i));
 107:src/APP.cpp   ****         thread_dispatch();
 108:src/APP.cpp   ****     }
 109:src/APP.cpp   **** 
 110:src/APP.cpp   ****     thread_exit();
 111:src/APP.cpp   ****     assert(false);
 112:src/APP.cpp   **** }
 113:src/APP.cpp   **** 
 114:src/APP.cpp   **** 
 115:src/APP.cpp   **** uint64 fib(uint64 n)
 116:src/APP.cpp   **** {
 112              		.loc 1 116 1 is_stmt 1
 113              		.cfi_startproc
 114              	.LVL9:
 115 00b4 130101FE 		addi	sp,sp,-32
 116              		.cfi_def_cfa_offset 32
 117 00b8 233C1100 		sd	ra,24(sp)
 118 00bc 23388100 		sd	s0,16(sp)
 119 00c0 23349100 		sd	s1,8(sp)
 120 00c4 23302101 		sd	s2,0(sp)
 121              		.cfi_offset 1, -8
 122              		.cfi_offset 8, -16
 123              		.cfi_offset 9, -24
 124              		.cfi_offset 18, -32
 125 00c8 13040102 		addi	s0,sp,32
 126              		.cfi_def_cfa 8, 0
 127 00cc 93040500 		mv	s1,a0
 117:src/APP.cpp   ****     if(n == 1)
 128              		.loc 1 117 5
 129 00d0 93071000 		li	a5,1
 130 00d4 6304F500 		beq	a0,a5,.L4
 118:src/APP.cpp   ****         return 1;
 119:src/APP.cpp   ****     else if (n == 0)
 131              		.loc 1 119 10
 132 00d8 63100502 		bnez	a0,.L6
 133              	.LVL10:
 134              	.L4:
 120:src/APP.cpp   ****         return 0;
 121:src/APP.cpp   ****     else return fib(n-1) + fib(n-2);
 122:src/APP.cpp   **** }
 135              		.loc 1 122 1 is_stmt 0
 136 00dc 13850400 		mv	a0,s1
 137 00e0 83308101 		ld	ra,24(sp)
 138              		.cfi_remember_state
 139              		.cfi_restore 1
 140 00e4 03340101 		ld	s0,16(sp)
 141              		.cfi_restore 8
 142              		.cfi_def_cfa 2, 32
 143 00e8 83348100 		ld	s1,8(sp)
 144              		.cfi_restore 9
GAS LISTING /tmp/ccfTa8yK.s 			page 6


 145 00ec 03390100 		ld	s2,0(sp)
 146              		.cfi_restore 18
 147 00f0 13010102 		addi	sp,sp,32
 148              		.cfi_def_cfa_offset 0
 149 00f4 67800000 		jr	ra
 150              	.LVL11:
 151              	.L6:
 152              		.cfi_restore_state
 121:src/APP.cpp   **** }
 153              		.loc 1 121 10 is_stmt 1
 121:src/APP.cpp   **** }
 154              		.loc 1 121 20 is_stmt 0
 155 00f8 1305F5FF 		addi	a0,a0,-1
 156 00fc 97000000 		call	_Z3fibm
 156      E7800000 
 157              	.LVL12:
 158 0104 13090500 		mv	s2,a0
 121:src/APP.cpp   **** }
 159              		.loc 1 121 31
 160 0108 1385E4FF 		addi	a0,s1,-2
 161 010c 97000000 		call	_Z3fibm
 161      E7800000 
 162              	.LVL13:
 121:src/APP.cpp   **** }
 163              		.loc 1 121 35
 164 0114 B304A900 		add	s1,s2,a0
 165              	.LVL14:
 166 0118 6FF05FFC 		j	.L4
 167              		.cfi_endproc
 168              	.LFE14:
 170              		.section	.rodata.str1.8
 171 0046 0000     		.align	3
 172              	.LC2:
 173 0048 3D3D3D3D 		.string	"===================== ASSERT file: "
 173      3D3D3D3D 
 173      3D3D3D3D 
 173      3D3D3D3D 
 173      3D3D3D3D 
 174 006c 00000000 		.align	3
 175              	.LC3:
 176 0070 7372632F 		.string	"src/APP.cpp"
 176      4150502E 
 176      63707000 
 177 007c 00000000 		.align	3
 178              	.LC4:
 179 0080 20202020 		.string	"    line: "
 179      6C696E65 
 179      3A2000
 180 008b 00000000 		.align	3
 180      00
 181              	.LC5:
 182 0090 2020203D 		.string	"   ==========================="
 182      3D3D3D3D 
 182      3D3D3D3D 
 182      3D3D3D3D 
 182      3D3D3D3D 
 183              		.text
GAS LISTING /tmp/ccfTa8yK.s 			page 7


 184              		.align	2
 185              		.globl	_Z3doAPv
 187              	_Z3doAPv:
 188              	.LFB12:
  78:src/APP.cpp   ****     assert(*((int*)p) == 69);
 189              		.loc 1 78 1 is_stmt 1
 190              		.cfi_startproc
 191              	.LVL15:
 192 011c 130101FE 		addi	sp,sp,-32
 193              		.cfi_def_cfa_offset 32
 194 0120 233C1100 		sd	ra,24(sp)
 195 0124 23388100 		sd	s0,16(sp)
 196 0128 23349100 		sd	s1,8(sp)
 197 012c 23302101 		sd	s2,0(sp)
 198              		.cfi_offset 1, -8
 199              		.cfi_offset 8, -16
 200              		.cfi_offset 9, -24
 201              		.cfi_offset 18, -32
 202 0130 13040102 		addi	s0,sp,32
 203              		.cfi_def_cfa 8, 0
  79:src/APP.cpp   **** 
 204              		.loc 1 79 5
 205 0134 83270500 		lw	a5,0(a0)
 206 0138 9387B7FB 		addi	a5,a5,-69
 207              	.LVL16:
 208              	.LBB9:
 209              	.LBB10:
 210              		.file 2 "src/../h/my_console.h"
   1:src/../h/my_console.h **** #pragma once
   2:src/../h/my_console.h **** 
   3:src/../h/my_console.h **** #include "../h/risc.h"
   4:src/../h/my_console.h **** 
   5:src/../h/my_console.h **** #include "../lib/hw.h"
   6:src/../h/my_console.h **** 
   7:src/../h/my_console.h **** #define __DEBUG_MODE
   8:src/../h/my_console.h **** 
   9:src/../h/my_console.h **** 
  10:src/../h/my_console.h **** void putString(const char* s);
  11:src/../h/my_console.h **** void putInt(int n);
  12:src/../h/my_console.h **** void putNewline();
  13:src/../h/my_console.h **** void putU64(uint64 n);
  14:src/../h/my_console.h **** void putBinary(uint64 n);
  15:src/../h/my_console.h **** 
  16:src/../h/my_console.h **** [[noreturn]] void stopKernel();
  17:src/../h/my_console.h **** 
  18:src/../h/my_console.h **** inline void _assert(bool valid, const char* file, int line) // MUST be inline
  19:src/../h/my_console.h **** {
  20:src/../h/my_console.h ****     if(valid)
 211              		.loc 2 20 5
 212 013c 63900704 		bnez	a5,.L13
 213              	.LBE10:
 214              	.LBE9:
 215              	.LBB12:
  81:src/APP.cpp   ****     {
 216              		.loc 1 81 13 is_stmt 0
 217 0140 93040000 		li	s1,0
 218              	.LVL17:
GAS LISTING /tmp/ccfTa8yK.s 			page 8


 219              	.L8:
  81:src/APP.cpp   ****     {
 220              		.loc 1 81 19 is_stmt 1 discriminator 3
 221 0144 93075000 		li	a5,5
 222 0148 63C6970E 		bgt	s1,a5,.L9
  87:src/APP.cpp   ****         thread_dispatch();
 223              		.loc 1 87 9 discriminator 2
 224 014c 13850400 		mv	a0,s1
 225 0150 97000000 		call	_Z3fibm
 225      E7800000 
 226              	.LVL18:
 227 0158 13090500 		mv	s2,a0
 228 015c 13850400 		mv	a0,s1
 229 0160 97000000 		call	_Z9test_callm@plt
 229      E7800000 
 230              	.LVL19:
 231              	.LBB13:
 232              	.LBB14:
 233              		.loc 2 20 5 discriminator 2
 234 0168 6318A906 		bne	s2,a0,.L14
  21:src/../h/my_console.h ****         return;
 235              		.loc 2 21 9 discriminator 2
 236              	.LVL20:
 237              	.LBE14:
 238              	.LBE13:
  88:src/APP.cpp   ****     }
 239              		.loc 1 88 9 discriminator 2
  88:src/APP.cpp   ****     }
 240              		.loc 1 88 24 is_stmt 0 discriminator 2
 241 016c 97000000 		call	_Z15thread_dispatchv@plt
 241      E7800000 
 242              	.LVL21:
  81:src/APP.cpp   ****     {
 243              		.loc 1 81 5 is_stmt 1 discriminator 2
 244 0174 9B841400 		addiw	s1,s1,1
 245              	.LVL22:
 246 0178 6FF0DFFC 		j	.L8
 247              	.LVL23:
 248              	.L13:
 249              	.LBE12:
 250              	.LBB17:
 251              	.LBB11:
  22:src/../h/my_console.h **** 
  23:src/../h/my_console.h ****     putString("===================== ASSERT file: ");
 252              		.loc 2 23 5
 253              		.loc 2 23 14 is_stmt 0
 254 017c 17050000 		lla	a0,.LC2
 254      13050500 
 255              	.LVL24:
 256 0184 97000000 		call	_Z9putStringPKc@plt
 256      E7800000 
 257              	.LVL25:
  24:src/../h/my_console.h ****     putString(file);
 258              		.loc 2 24 5 is_stmt 1
 259              		.loc 2 24 14 is_stmt 0
 260 018c 17050000 		lla	a0,.LC3
 260      13050500 
GAS LISTING /tmp/ccfTa8yK.s 			page 9


 261 0194 97000000 		call	_Z9putStringPKc@plt
 261      E7800000 
 262              	.LVL26:
  25:src/../h/my_console.h ****     putString("    line: ");
 263              		.loc 2 25 5 is_stmt 1
 264              		.loc 2 25 14 is_stmt 0
 265 019c 17050000 		lla	a0,.LC4
 265      13050500 
 266 01a4 97000000 		call	_Z9putStringPKc@plt
 266      E7800000 
 267              	.LVL27:
  26:src/../h/my_console.h ****     putInt(line);
 268              		.loc 2 26 5 is_stmt 1
 269              		.loc 2 26 11 is_stmt 0
 270 01ac 1305F004 		li	a0,79
 271 01b0 97000000 		call	_Z6putInti@plt
 271      E7800000 
 272              	.LVL28:
  27:src/../h/my_console.h ****     putString("   ===========================");
 273              		.loc 2 27 5 is_stmt 1
 274              		.loc 2 27 14 is_stmt 0
 275 01b8 17050000 		lla	a0,.LC5
 275      13050500 
 276 01c0 97000000 		call	_Z9putStringPKc@plt
 276      E7800000 
 277              	.LVL29:
  28:src/../h/my_console.h ****     putNewline();
 278              		.loc 2 28 5 is_stmt 1
 279              		.loc 2 28 15 is_stmt 0
 280 01c8 97000000 		call	_Z10putNewlinev@plt
 280      E7800000 
 281              	.LVL30:
  29:src/../h/my_console.h **** 
  30:src/../h/my_console.h ****     stopKernel();
 282              		.loc 2 30 5 is_stmt 1
 283              		.loc 2 30 15 is_stmt 0
 284 01d0 97000000 		call	_Z10stopKernelv@plt
 284      E7800000 
 285              	.LVL31:
 286              	.L14:
 287              	.LBE11:
 288              	.LBE17:
 289              	.LBB18:
 290              	.LBB16:
 291              	.LBB15:
  23:src/../h/my_console.h ****     putString(file);
 292              		.loc 2 23 5 is_stmt 1
  23:src/../h/my_console.h ****     putString(file);
 293              		.loc 2 23 14 is_stmt 0
 294 01d8 17050000 		lla	a0,.LC2
 294      13050500 
 295              	.LVL32:
 296 01e0 97000000 		call	_Z9putStringPKc@plt
 296      E7800000 
 297              	.LVL33:
  24:src/../h/my_console.h ****     putString("    line: ");
 298              		.loc 2 24 5 is_stmt 1
GAS LISTING /tmp/ccfTa8yK.s 			page 10


  24:src/../h/my_console.h ****     putString("    line: ");
 299              		.loc 2 24 14 is_stmt 0
 300 01e8 17050000 		lla	a0,.LC3
 300      13050500 
 301 01f0 97000000 		call	_Z9putStringPKc@plt
 301      E7800000 
 302              	.LVL34:
  25:src/../h/my_console.h ****     putInt(line);
 303              		.loc 2 25 5 is_stmt 1
  25:src/../h/my_console.h ****     putInt(line);
 304              		.loc 2 25 14 is_stmt 0
 305 01f8 17050000 		lla	a0,.LC4
 305      13050500 
 306 0200 97000000 		call	_Z9putStringPKc@plt
 306      E7800000 
 307              	.LVL35:
  26:src/../h/my_console.h ****     putString("   ===========================");
 308              		.loc 2 26 5 is_stmt 1
  26:src/../h/my_console.h ****     putString("   ===========================");
 309              		.loc 2 26 11 is_stmt 0
 310 0208 13057005 		li	a0,87
 311 020c 97000000 		call	_Z6putInti@plt
 311      E7800000 
 312              	.LVL36:
  27:src/../h/my_console.h ****     putNewline();
 313              		.loc 2 27 5 is_stmt 1
  27:src/../h/my_console.h ****     putNewline();
 314              		.loc 2 27 14 is_stmt 0
 315 0214 17050000 		lla	a0,.LC5
 315      13050500 
 316 021c 97000000 		call	_Z9putStringPKc@plt
 316      E7800000 
 317              	.LVL37:
  28:src/../h/my_console.h **** 
 318              		.loc 2 28 5 is_stmt 1
  28:src/../h/my_console.h **** 
 319              		.loc 2 28 15 is_stmt 0
 320 0224 97000000 		call	_Z10putNewlinev@plt
 320      E7800000 
 321              	.LVL38:
 322              		.loc 2 30 5 is_stmt 1
 323              		.loc 2 30 15 is_stmt 0
 324 022c 97000000 		call	_Z10stopKernelv@plt
 324      E7800000 
 325              	.LVL39:
 326              	.L9:
 327              	.LBE15:
 328              	.LBE16:
 329              	.LBE18:
  91:src/APP.cpp   ****     thread_exit();
 330              		.loc 1 91 5 is_stmt 1
  91:src/APP.cpp   ****     thread_exit();
 331              		.loc 1 91 36 is_stmt 0
 332              	#APP
 333              	# 91 "src/APP.cpp" 1
  92:src/APP.cpp   ****     assert(false);
 334              		mv x10, x10
GAS LISTING /tmp/ccfTa8yK.s 			page 11


 335              	# 0 "" 2
 336              		.loc 1 92 5 is_stmt 1
  92:src/APP.cpp   ****     assert(false);
 337              		.loc 1 92 16 is_stmt 0
 338              	#NO_APP
 339 0238 97000000 		call	_Z11thread_exitv@plt
 339      E7800000 
 340              	.LVL40:
  93:src/APP.cpp   **** }
 341              		.loc 1 93 5 is_stmt 1
 342              	.LBB19:
 343              	.LBB20:
  20:src/../h/my_console.h ****         return;
 344              		.loc 2 20 5
  23:src/../h/my_console.h ****     putString(file);
 345              		.loc 2 23 5
  23:src/../h/my_console.h ****     putString(file);
 346              		.loc 2 23 14 is_stmt 0
 347 0240 17050000 		lla	a0,.LC2
 347      13050500 
 348 0248 97000000 		call	_Z9putStringPKc@plt
 348      E7800000 
 349              	.LVL41:
  24:src/../h/my_console.h ****     putString("    line: ");
 350              		.loc 2 24 5 is_stmt 1
  24:src/../h/my_console.h ****     putString("    line: ");
 351              		.loc 2 24 14 is_stmt 0
 352 0250 17050000 		lla	a0,.LC3
 352      13050500 
 353 0258 97000000 		call	_Z9putStringPKc@plt
 353      E7800000 
 354              	.LVL42:
  25:src/../h/my_console.h ****     putInt(line);
 355              		.loc 2 25 5 is_stmt 1
  25:src/../h/my_console.h ****     putInt(line);
 356              		.loc 2 25 14 is_stmt 0
 357 0260 17050000 		lla	a0,.LC4
 357      13050500 
 358 0268 97000000 		call	_Z9putStringPKc@plt
 358      E7800000 
 359              	.LVL43:
  26:src/../h/my_console.h ****     putString("   ===========================");
 360              		.loc 2 26 5 is_stmt 1
  26:src/../h/my_console.h ****     putString("   ===========================");
 361              		.loc 2 26 11 is_stmt 0
 362 0270 1305D005 		li	a0,93
 363 0274 97000000 		call	_Z6putInti@plt
 363      E7800000 
 364              	.LVL44:
  27:src/../h/my_console.h ****     putNewline();
 365              		.loc 2 27 5 is_stmt 1
  27:src/../h/my_console.h ****     putNewline();
 366              		.loc 2 27 14 is_stmt 0
 367 027c 17050000 		lla	a0,.LC5
 367      13050500 
 368 0284 97000000 		call	_Z9putStringPKc@plt
 368      E7800000 
GAS LISTING /tmp/ccfTa8yK.s 			page 12


 369              	.LVL45:
  28:src/../h/my_console.h **** 
 370              		.loc 2 28 5 is_stmt 1
  28:src/../h/my_console.h **** 
 371              		.loc 2 28 15 is_stmt 0
 372 028c 97000000 		call	_Z10putNewlinev@plt
 372      E7800000 
 373              	.LVL46:
 374              		.loc 2 30 5 is_stmt 1
 375              		.loc 2 30 15 is_stmt 0
 376 0294 97000000 		call	_Z10stopKernelv@plt
 376      E7800000 
 377              	.LVL47:
 378              	.LBE20:
 379              	.LBE19:
 380              		.cfi_endproc
 381              	.LFE12:
 383              		.align	2
 384              		.globl	_Z3doBPv
 386              	_Z3doBPv:
 387              	.LFB13:
  97:src/APP.cpp   ****     assert(*((int*)p) == 420);
 388              		.loc 1 97 1 is_stmt 1
 389              		.cfi_startproc
 390              	.LVL48:
 391 029c 130101FE 		addi	sp,sp,-32
 392              		.cfi_def_cfa_offset 32
 393 02a0 233C1100 		sd	ra,24(sp)
 394 02a4 23388100 		sd	s0,16(sp)
 395 02a8 23349100 		sd	s1,8(sp)
 396 02ac 23302101 		sd	s2,0(sp)
 397              		.cfi_offset 1, -8
 398              		.cfi_offset 8, -16
 399              		.cfi_offset 9, -24
 400              		.cfi_offset 18, -32
 401 02b0 13040102 		addi	s0,sp,32
 402              		.cfi_def_cfa 8, 0
  98:src/APP.cpp   **** 
 403              		.loc 1 98 5
 404 02b4 83270500 		lw	a5,0(a0)
 405 02b8 9387C7E5 		addi	a5,a5,-420
 406              	.LVL49:
 407              	.LBB28:
 408              	.LBB29:
  20:src/../h/my_console.h ****         return;
 409              		.loc 2 20 5
 410 02bc 63900704 		bnez	a5,.L21
 411              	.LBE29:
 412              	.LBE28:
 413              	.LBB31:
 100:src/APP.cpp   ****     {
 414              		.loc 1 100 13 is_stmt 0
 415 02c0 93040000 		li	s1,0
 416              	.LVL50:
 417              	.L16:
 100:src/APP.cpp   ****     {
 418              		.loc 1 100 19 is_stmt 1 discriminator 3
GAS LISTING /tmp/ccfTa8yK.s 			page 13


 419 02c4 9307A000 		li	a5,10
 420 02c8 63C6970E 		bgt	s1,a5,.L17
 106:src/APP.cpp   ****         thread_dispatch();
 421              		.loc 1 106 9 discriminator 2
 422 02cc 13850400 		mv	a0,s1
 423 02d0 97000000 		call	_Z3fibm
 423      E7800000 
 424              	.LVL51:
 425 02d8 13090500 		mv	s2,a0
 426 02dc 13850400 		mv	a0,s1
 427 02e0 97000000 		call	_Z9test_callm@plt
 427      E7800000 
 428              	.LVL52:
 429              	.LBB32:
 430              	.LBB33:
  20:src/../h/my_console.h ****         return;
 431              		.loc 2 20 5 discriminator 2
 432 02e8 6318A906 		bne	s2,a0,.L22
  21:src/../h/my_console.h **** 
 433              		.loc 2 21 9 discriminator 2
 434              	.LVL53:
 435              	.LBE33:
 436              	.LBE32:
 107:src/APP.cpp   ****     }
 437              		.loc 1 107 9 discriminator 2
 107:src/APP.cpp   ****     }
 438              		.loc 1 107 24 is_stmt 0 discriminator 2
 439 02ec 97000000 		call	_Z15thread_dispatchv@plt
 439      E7800000 
 440              	.LVL54:
 100:src/APP.cpp   ****     {
 441              		.loc 1 100 5 is_stmt 1 discriminator 2
 442 02f4 9B841400 		addiw	s1,s1,1
 443              	.LVL55:
 444 02f8 6FF0DFFC 		j	.L16
 445              	.LVL56:
 446              	.L21:
 447              	.LBE31:
 448              	.LBB36:
 449              	.LBB30:
  23:src/../h/my_console.h ****     putString(file);
 450              		.loc 2 23 5
  23:src/../h/my_console.h ****     putString(file);
 451              		.loc 2 23 14 is_stmt 0
 452 02fc 17050000 		lla	a0,.LC2
 452      13050500 
 453              	.LVL57:
 454 0304 97000000 		call	_Z9putStringPKc@plt
 454      E7800000 
 455              	.LVL58:
  24:src/../h/my_console.h ****     putString("    line: ");
 456              		.loc 2 24 5 is_stmt 1
  24:src/../h/my_console.h ****     putString("    line: ");
 457              		.loc 2 24 14 is_stmt 0
 458 030c 17050000 		lla	a0,.LC3
 458      13050500 
 459 0314 97000000 		call	_Z9putStringPKc@plt
GAS LISTING /tmp/ccfTa8yK.s 			page 14


 459      E7800000 
 460              	.LVL59:
  25:src/../h/my_console.h ****     putInt(line);
 461              		.loc 2 25 5 is_stmt 1
  25:src/../h/my_console.h ****     putInt(line);
 462              		.loc 2 25 14 is_stmt 0
 463 031c 17050000 		lla	a0,.LC4
 463      13050500 
 464 0324 97000000 		call	_Z9putStringPKc@plt
 464      E7800000 
 465              	.LVL60:
  26:src/../h/my_console.h ****     putString("   ===========================");
 466              		.loc 2 26 5 is_stmt 1
  26:src/../h/my_console.h ****     putString("   ===========================");
 467              		.loc 2 26 11 is_stmt 0
 468 032c 13052006 		li	a0,98
 469 0330 97000000 		call	_Z6putInti@plt
 469      E7800000 
 470              	.LVL61:
  27:src/../h/my_console.h ****     putNewline();
 471              		.loc 2 27 5 is_stmt 1
  27:src/../h/my_console.h ****     putNewline();
 472              		.loc 2 27 14 is_stmt 0
 473 0338 17050000 		lla	a0,.LC5
 473      13050500 
 474 0340 97000000 		call	_Z9putStringPKc@plt
 474      E7800000 
 475              	.LVL62:
  28:src/../h/my_console.h **** 
 476              		.loc 2 28 5 is_stmt 1
  28:src/../h/my_console.h **** 
 477              		.loc 2 28 15 is_stmt 0
 478 0348 97000000 		call	_Z10putNewlinev@plt
 478      E7800000 
 479              	.LVL63:
 480              		.loc 2 30 5 is_stmt 1
 481              		.loc 2 30 15 is_stmt 0
 482 0350 97000000 		call	_Z10stopKernelv@plt
 482      E7800000 
 483              	.LVL64:
 484              	.L22:
 485              	.LBE30:
 486              	.LBE36:
 487              	.LBB37:
 488              	.LBB35:
 489              	.LBB34:
  23:src/../h/my_console.h ****     putString(file);
 490              		.loc 2 23 5 is_stmt 1
  23:src/../h/my_console.h ****     putString(file);
 491              		.loc 2 23 14 is_stmt 0
 492 0358 17050000 		lla	a0,.LC2
 492      13050500 
 493              	.LVL65:
 494 0360 97000000 		call	_Z9putStringPKc@plt
 494      E7800000 
 495              	.LVL66:
  24:src/../h/my_console.h ****     putString("    line: ");
GAS LISTING /tmp/ccfTa8yK.s 			page 15


 496              		.loc 2 24 5 is_stmt 1
  24:src/../h/my_console.h ****     putString("    line: ");
 497              		.loc 2 24 14 is_stmt 0
 498 0368 17050000 		lla	a0,.LC3
 498      13050500 
 499 0370 97000000 		call	_Z9putStringPKc@plt
 499      E7800000 
 500              	.LVL67:
  25:src/../h/my_console.h ****     putInt(line);
 501              		.loc 2 25 5 is_stmt 1
  25:src/../h/my_console.h ****     putInt(line);
 502              		.loc 2 25 14 is_stmt 0
 503 0378 17050000 		lla	a0,.LC4
 503      13050500 
 504 0380 97000000 		call	_Z9putStringPKc@plt
 504      E7800000 
 505              	.LVL68:
  26:src/../h/my_console.h ****     putString("   ===========================");
 506              		.loc 2 26 5 is_stmt 1
  26:src/../h/my_console.h ****     putString("   ===========================");
 507              		.loc 2 26 11 is_stmt 0
 508 0388 1305A006 		li	a0,106
 509 038c 97000000 		call	_Z6putInti@plt
 509      E7800000 
 510              	.LVL69:
  27:src/../h/my_console.h ****     putNewline();
 511              		.loc 2 27 5 is_stmt 1
  27:src/../h/my_console.h ****     putNewline();
 512              		.loc 2 27 14 is_stmt 0
 513 0394 17050000 		lla	a0,.LC5
 513      13050500 
 514 039c 97000000 		call	_Z9putStringPKc@plt
 514      E7800000 
 515              	.LVL70:
  28:src/../h/my_console.h **** 
 516              		.loc 2 28 5 is_stmt 1
  28:src/../h/my_console.h **** 
 517              		.loc 2 28 15 is_stmt 0
 518 03a4 97000000 		call	_Z10putNewlinev@plt
 518      E7800000 
 519              	.LVL71:
 520              		.loc 2 30 5 is_stmt 1
 521              		.loc 2 30 15 is_stmt 0
 522 03ac 97000000 		call	_Z10stopKernelv@plt
 522      E7800000 
 523              	.LVL72:
 524              	.L17:
 525              	.LBE34:
 526              	.LBE35:
 527              	.LBE37:
 110:src/APP.cpp   ****     assert(false);
 528              		.loc 1 110 5 is_stmt 1
 110:src/APP.cpp   ****     assert(false);
 529              		.loc 1 110 16 is_stmt 0
 530 03b4 97000000 		call	_Z11thread_exitv@plt
 530      E7800000 
 531              	.LVL73:
GAS LISTING /tmp/ccfTa8yK.s 			page 16


 111:src/APP.cpp   **** }
 532              		.loc 1 111 5 is_stmt 1
 533              	.LBB38:
 534              	.LBB39:
  20:src/../h/my_console.h ****         return;
 535              		.loc 2 20 5
  23:src/../h/my_console.h ****     putString(file);
 536              		.loc 2 23 5
  23:src/../h/my_console.h ****     putString(file);
 537              		.loc 2 23 14 is_stmt 0
 538 03bc 17050000 		lla	a0,.LC2
 538      13050500 
 539 03c4 97000000 		call	_Z9putStringPKc@plt
 539      E7800000 
 540              	.LVL74:
  24:src/../h/my_console.h ****     putString("    line: ");
 541              		.loc 2 24 5 is_stmt 1
  24:src/../h/my_console.h ****     putString("    line: ");
 542              		.loc 2 24 14 is_stmt 0
 543 03cc 17050000 		lla	a0,.LC3
 543      13050500 
 544 03d4 97000000 		call	_Z9putStringPKc@plt
 544      E7800000 
 545              	.LVL75:
  25:src/../h/my_console.h ****     putInt(line);
 546              		.loc 2 25 5 is_stmt 1
  25:src/../h/my_console.h ****     putInt(line);
 547              		.loc 2 25 14 is_stmt 0
 548 03dc 17050000 		lla	a0,.LC4
 548      13050500 
 549 03e4 97000000 		call	_Z9putStringPKc@plt
 549      E7800000 
 550              	.LVL76:
  26:src/../h/my_console.h ****     putString("   ===========================");
 551              		.loc 2 26 5 is_stmt 1
  26:src/../h/my_console.h ****     putString("   ===========================");
 552              		.loc 2 26 11 is_stmt 0
 553 03ec 1305F006 		li	a0,111
 554 03f0 97000000 		call	_Z6putInti@plt
 554      E7800000 
 555              	.LVL77:
  27:src/../h/my_console.h ****     putNewline();
 556              		.loc 2 27 5 is_stmt 1
  27:src/../h/my_console.h ****     putNewline();
 557              		.loc 2 27 14 is_stmt 0
 558 03f8 17050000 		lla	a0,.LC5
 558      13050500 
 559 0400 97000000 		call	_Z9putStringPKc@plt
 559      E7800000 
 560              	.LVL78:
  28:src/../h/my_console.h **** 
 561              		.loc 2 28 5 is_stmt 1
  28:src/../h/my_console.h **** 
 562              		.loc 2 28 15 is_stmt 0
 563 0408 97000000 		call	_Z10putNewlinev@plt
 563      E7800000 
 564              	.LVL79:
GAS LISTING /tmp/ccfTa8yK.s 			page 17


 565              		.loc 2 30 5 is_stmt 1
 566              		.loc 2 30 15 is_stmt 0
 567 0410 97000000 		call	_Z10stopKernelv@plt
 567      E7800000 
 568              	.LVL80:
 569              	.LBE39:
 570              	.LBE38:
 571              		.cfi_endproc
 572              	.LFE13:
 574              		.section	.rodata.str1.8
 575 00af 00       		.align	3
 576              	.LC6:
 577 00b0 3D3D3D20 		.string	"=== Testing \"testSystemCalls\""
 577      54657374 
 577      696E6720 
 577      22746573 
 577      74537973 
 578 00ce 0000     		.align	3
 579              	.LC7:
 580 00d0 74657374 		.string	"test_call() error. i="
 580      5F63616C 
 580      6C282920 
 580      6572726F 
 580      722E2069 
 581 00e6 0000     		.align	3
 582              	.LC8:
 583 00e8 20666962 		.string	" fib(i)="
 583      2869293D 
 583      00
 584 00f1 00000000 		.align	3
 584      000000
 585              	.LC9:
 586 00f8 20746573 		.string	" test_call(i)="
 586      745F6361 
 586      6C6C2869 
 586      293D00
 587 0107 00       		.align	3
 588              	.LC10:
 589 0108 3D3D3D20 		.string	"=== Success in testing system calls"
 589      53756363 
 589      65737320 
 589      696E2074 
 589      65737469 
 590              		.text
 591              		.align	2
 592              		.globl	_Z15testSystemCallsv
 594              	_Z15testSystemCallsv:
 595              	.LFB15:
 123:src/APP.cpp   **** 
 124:src/APP.cpp   **** void testSystemCalls()
 125:src/APP.cpp   **** {
 596              		.loc 1 125 1 is_stmt 1
 597              		.cfi_startproc
 598 0418 130101FB 		addi	sp,sp,-80
 599              		.cfi_def_cfa_offset 80
 600 041c 23341104 		sd	ra,72(sp)
 601 0420 23308104 		sd	s0,64(sp)
GAS LISTING /tmp/ccfTa8yK.s 			page 18


 602 0424 233C9102 		sd	s1,56(sp)
 603 0428 23382103 		sd	s2,48(sp)
 604 042c 23343103 		sd	s3,40(sp)
 605 0430 23304103 		sd	s4,32(sp)
 606 0434 233C5101 		sd	s5,24(sp)
 607 0438 23386101 		sd	s6,16(sp)
 608 043c 23347101 		sd	s7,8(sp)
 609              		.cfi_offset 1, -8
 610              		.cfi_offset 8, -16
 611              		.cfi_offset 9, -24
 612              		.cfi_offset 18, -32
 613              		.cfi_offset 19, -40
 614              		.cfi_offset 20, -48
 615              		.cfi_offset 21, -56
 616              		.cfi_offset 22, -64
 617              		.cfi_offset 23, -72
 618 0440 13040105 		addi	s0,sp,80
 619              		.cfi_def_cfa 8, 0
 126:src/APP.cpp   ****     putString("=== Testing \"testSystemCalls\"");
 620              		.loc 1 126 5
 621              		.loc 1 126 14 is_stmt 0
 622 0444 17050000 		lla	a0,.LC6
 622      13050500 
 623 044c 97000000 		call	_Z9putStringPKc@plt
 623      E7800000 
 624              	.LVL81:
 127:src/APP.cpp   ****     putNewline();
 625              		.loc 1 127 5 is_stmt 1
 626              		.loc 1 127 15 is_stmt 0
 627 0454 97000000 		call	_Z10putNewlinev@plt
 627      E7800000 
 628              	.LVL82:
 128:src/APP.cpp   **** 
 129:src/APP.cpp   ****     int a = 0;
 629              		.loc 1 129 5 is_stmt 1
 130:src/APP.cpp   ****     int b = 0;
 630              		.loc 1 130 5
 131:src/APP.cpp   **** 
 132:src/APP.cpp   ****     for(int i=1; i<10; i++)
 631              		.loc 1 132 5
 632              	.LBB48:
 633              		.loc 1 132 13 is_stmt 0
 634 045c 93041000 		li	s1,1
 635              	.LBE48:
 130:src/APP.cpp   ****     int b = 0;
 636              		.loc 1 130 9
 637 0460 930A0000 		li	s5,0
 129:src/APP.cpp   ****     int b = 0;
 638              		.loc 1 129 9
 639 0464 130A0000 		li	s4,0
 640              	.LVL83:
 641              	.L27:
 642              	.LBB58:
 643              		.loc 1 132 19 is_stmt 1 discriminator 1
 644 0468 93079000 		li	a5,9
 645 046c 63CC9714 		bgt	s1,a5,.L24
 646              	.LBB49:
GAS LISTING /tmp/ccfTa8yK.s 			page 19


 133:src/APP.cpp   ****     {
 134:src/APP.cpp   ****         a++;
 647              		.loc 1 134 9
 648              		.loc 1 134 10 is_stmt 0
 649 0470 1B0B1A00 		addiw	s6,s4,1
 650              	.LVL84:
 135:src/APP.cpp   ****         b++;
 651              		.loc 1 135 9 is_stmt 1
 652              		.loc 1 135 10 is_stmt 0
 653 0474 9B8B1A00 		addiw	s7,s5,1
 654              	.LVL85:
 136:src/APP.cpp   **** 
 137:src/APP.cpp   ****         uint64 called = test_call(i);
 655              		.loc 1 137 9 is_stmt 1
 656              		.loc 1 137 34 is_stmt 0
 657 0478 13850400 		mv	a0,s1
 658 047c 97000000 		call	_Z9test_callm@plt
 658      E7800000 
 659              	.LVL86:
 660 0484 13090500 		mv	s2,a0
 661              	.LVL87:
 138:src/APP.cpp   ****         uint64 actual = fib(i);
 662              		.loc 1 138 9 is_stmt 1
 663              		.loc 1 138 28 is_stmt 0
 664 0488 13850400 		mv	a0,s1
 665              	.LVL88:
 666 048c 97000000 		call	_Z3fibm
 666      E7800000 
 667              	.LVL89:
 668 0494 93090500 		mv	s3,a0
 669              	.LVL90:
 139:src/APP.cpp   **** 
 140:src/APP.cpp   ****         if(called != actual)
 670              		.loc 1 140 9 is_stmt 1
 671 0498 631CA900 		bne	s2,a0,.L30
 141:src/APP.cpp   ****         {
 142:src/APP.cpp   ****             putString("test_call() error. i=");
 143:src/APP.cpp   ****             putInt(i);
 144:src/APP.cpp   ****             putString(" fib(i)=");
 145:src/APP.cpp   ****             putU64(actual);
 146:src/APP.cpp   ****             putString(" test_call(i)=");
 147:src/APP.cpp   ****             putU64(called);
 148:src/APP.cpp   ****             putNewline();
 149:src/APP.cpp   ****             assert(false);
 150:src/APP.cpp   ****         }
 151:src/APP.cpp   **** 
 152:src/APP.cpp   ****         assert(a == b);
 672              		.loc 1 152 9 discriminator 2
 673              	.LVL91:
 674              	.LBB50:
 675              	.LBB51:
  20:src/../h/my_console.h ****         return;
 676              		.loc 2 20 5 discriminator 2
 677 049c 63165A0D 		bne	s4,s5,.L31
  21:src/../h/my_console.h **** 
 678              		.loc 2 21 9 discriminator 2
 679              	.LVL92:
GAS LISTING /tmp/ccfTa8yK.s 			page 20


 680              	.LBE51:
 681              	.LBE50:
 682              	.LBE49:
 132:src/APP.cpp   ****     {
 683              		.loc 1 132 5 discriminator 2
 684 04a0 9B841400 		addiw	s1,s1,1
 685              	.LVL93:
 686              	.LBB56:
 135:src/APP.cpp   **** 
 687              		.loc 1 135 10 is_stmt 0 discriminator 2
 688 04a4 938A0B00 		mv	s5,s7
 689              	.LVL94:
 134:src/APP.cpp   ****         b++;
 690              		.loc 1 134 10 discriminator 2
 691 04a8 130A0B00 		mv	s4,s6
 692              	.LVL95:
 693              	.LBE56:
 132:src/APP.cpp   ****     {
 694              		.loc 1 132 5 discriminator 2
 695 04ac 6FF0DFFB 		j	.L27
 696              	.LVL96:
 697              	.L30:
 698              	.LBB57:
 142:src/APP.cpp   ****             putInt(i);
 699              		.loc 1 142 13 is_stmt 1
 142:src/APP.cpp   ****             putInt(i);
 700              		.loc 1 142 22 is_stmt 0
 701 04b0 17050000 		lla	a0,.LC7
 701      13050500 
 702              	.LVL97:
 703 04b8 97000000 		call	_Z9putStringPKc@plt
 703      E7800000 
 704              	.LVL98:
 143:src/APP.cpp   ****             putString(" fib(i)=");
 705              		.loc 1 143 13 is_stmt 1
 143:src/APP.cpp   ****             putString(" fib(i)=");
 706              		.loc 1 143 19 is_stmt 0
 707 04c0 13850400 		mv	a0,s1
 708 04c4 97000000 		call	_Z6putInti@plt
 708      E7800000 
 709              	.LVL99:
 144:src/APP.cpp   ****             putU64(actual);
 710              		.loc 1 144 13 is_stmt 1
 144:src/APP.cpp   ****             putU64(actual);
 711              		.loc 1 144 22 is_stmt 0
 712 04cc 17050000 		lla	a0,.LC8
 712      13050500 
 713 04d4 97000000 		call	_Z9putStringPKc@plt
 713      E7800000 
 714              	.LVL100:
 145:src/APP.cpp   ****             putString(" test_call(i)=");
 715              		.loc 1 145 13 is_stmt 1
 145:src/APP.cpp   ****             putString(" test_call(i)=");
 716              		.loc 1 145 19 is_stmt 0
 717 04dc 13850900 		mv	a0,s3
 718 04e0 97000000 		call	_Z6putU64m@plt
 718      E7800000 
GAS LISTING /tmp/ccfTa8yK.s 			page 21


 719              	.LVL101:
 146:src/APP.cpp   ****             putU64(called);
 720              		.loc 1 146 13 is_stmt 1
 146:src/APP.cpp   ****             putU64(called);
 721              		.loc 1 146 22 is_stmt 0
 722 04e8 17050000 		lla	a0,.LC9
 722      13050500 
 723 04f0 97000000 		call	_Z9putStringPKc@plt
 723      E7800000 
 724              	.LVL102:
 147:src/APP.cpp   ****             putNewline();
 725              		.loc 1 147 13 is_stmt 1
 147:src/APP.cpp   ****             putNewline();
 726              		.loc 1 147 19 is_stmt 0
 727 04f8 13050900 		mv	a0,s2
 728 04fc 97000000 		call	_Z6putU64m@plt
 728      E7800000 
 729              	.LVL103:
 148:src/APP.cpp   ****             assert(false);
 730              		.loc 1 148 13 is_stmt 1
 148:src/APP.cpp   ****             assert(false);
 731              		.loc 1 148 23 is_stmt 0
 732 0504 97000000 		call	_Z10putNewlinev@plt
 732      E7800000 
 733              	.LVL104:
 149:src/APP.cpp   ****         }
 734              		.loc 1 149 13 is_stmt 1
 735              	.LBB53:
 736              	.LBB54:
  20:src/../h/my_console.h ****         return;
 737              		.loc 2 20 5
  23:src/../h/my_console.h ****     putString(file);
 738              		.loc 2 23 5
  23:src/../h/my_console.h ****     putString(file);
 739              		.loc 2 23 14 is_stmt 0
 740 050c 17050000 		lla	a0,.LC2
 740      13050500 
 741 0514 97000000 		call	_Z9putStringPKc@plt
 741      E7800000 
 742              	.LVL105:
  24:src/../h/my_console.h ****     putString("    line: ");
 743              		.loc 2 24 5 is_stmt 1
  24:src/../h/my_console.h ****     putString("    line: ");
 744              		.loc 2 24 14 is_stmt 0
 745 051c 17050000 		lla	a0,.LC3
 745      13050500 
 746 0524 97000000 		call	_Z9putStringPKc@plt
 746      E7800000 
 747              	.LVL106:
  25:src/../h/my_console.h ****     putInt(line);
 748              		.loc 2 25 5 is_stmt 1
  25:src/../h/my_console.h ****     putInt(line);
 749              		.loc 2 25 14 is_stmt 0
 750 052c 17050000 		lla	a0,.LC4
 750      13050500 
 751 0534 97000000 		call	_Z9putStringPKc@plt
 751      E7800000 
GAS LISTING /tmp/ccfTa8yK.s 			page 22


 752              	.LVL107:
  26:src/../h/my_console.h ****     putString("   ===========================");
 753              		.loc 2 26 5 is_stmt 1
  26:src/../h/my_console.h ****     putString("   ===========================");
 754              		.loc 2 26 11 is_stmt 0
 755 053c 13055009 		li	a0,149
 756 0540 97000000 		call	_Z6putInti@plt
 756      E7800000 
 757              	.LVL108:
  27:src/../h/my_console.h ****     putNewline();
 758              		.loc 2 27 5 is_stmt 1
  27:src/../h/my_console.h ****     putNewline();
 759              		.loc 2 27 14 is_stmt 0
 760 0548 17050000 		lla	a0,.LC5
 760      13050500 
 761 0550 97000000 		call	_Z9putStringPKc@plt
 761      E7800000 
 762              	.LVL109:
  28:src/../h/my_console.h **** 
 763              		.loc 2 28 5 is_stmt 1
  28:src/../h/my_console.h **** 
 764              		.loc 2 28 15 is_stmt 0
 765 0558 97000000 		call	_Z10putNewlinev@plt
 765      E7800000 
 766              	.LVL110:
 767              		.loc 2 30 5 is_stmt 1
 768              		.loc 2 30 15 is_stmt 0
 769 0560 97000000 		call	_Z10stopKernelv@plt
 769      E7800000 
 770              	.LVL111:
 771              	.L31:
 772              	.LBE54:
 773              	.LBE53:
 774              	.LBB55:
 775              	.LBB52:
  23:src/../h/my_console.h ****     putString(file);
 776              		.loc 2 23 5 is_stmt 1
  23:src/../h/my_console.h ****     putString(file);
 777              		.loc 2 23 14 is_stmt 0
 778 0568 17050000 		lla	a0,.LC2
 778      13050500 
 779              	.LVL112:
 780 0570 97000000 		call	_Z9putStringPKc@plt
 780      E7800000 
 781              	.LVL113:
  24:src/../h/my_console.h ****     putString("    line: ");
 782              		.loc 2 24 5 is_stmt 1
  24:src/../h/my_console.h ****     putString("    line: ");
 783              		.loc 2 24 14 is_stmt 0
 784 0578 17050000 		lla	a0,.LC3
 784      13050500 
 785 0580 97000000 		call	_Z9putStringPKc@plt
 785      E7800000 
 786              	.LVL114:
  25:src/../h/my_console.h ****     putInt(line);
 787              		.loc 2 25 5 is_stmt 1
  25:src/../h/my_console.h ****     putInt(line);
GAS LISTING /tmp/ccfTa8yK.s 			page 23


 788              		.loc 2 25 14 is_stmt 0
 789 0588 17050000 		lla	a0,.LC4
 789      13050500 
 790 0590 97000000 		call	_Z9putStringPKc@plt
 790      E7800000 
 791              	.LVL115:
  26:src/../h/my_console.h ****     putString("   ===========================");
 792              		.loc 2 26 5 is_stmt 1
  26:src/../h/my_console.h ****     putString("   ===========================");
 793              		.loc 2 26 11 is_stmt 0
 794 0598 13058009 		li	a0,152
 795 059c 97000000 		call	_Z6putInti@plt
 795      E7800000 
 796              	.LVL116:
  27:src/../h/my_console.h ****     putNewline();
 797              		.loc 2 27 5 is_stmt 1
  27:src/../h/my_console.h ****     putNewline();
 798              		.loc 2 27 14 is_stmt 0
 799 05a4 17050000 		lla	a0,.LC5
 799      13050500 
 800 05ac 97000000 		call	_Z9putStringPKc@plt
 800      E7800000 
 801              	.LVL117:
  28:src/../h/my_console.h **** 
 802              		.loc 2 28 5 is_stmt 1
  28:src/../h/my_console.h **** 
 803              		.loc 2 28 15 is_stmt 0
 804 05b4 97000000 		call	_Z10putNewlinev@plt
 804      E7800000 
 805              	.LVL118:
 806              		.loc 2 30 5 is_stmt 1
 807              		.loc 2 30 15 is_stmt 0
 808 05bc 97000000 		call	_Z10stopKernelv@plt
 808      E7800000 
 809              	.LVL119:
 810              	.L24:
 811              	.LBE52:
 812              	.LBE55:
 813              	.LBE57:
 814              	.LBE58:
 153:src/APP.cpp   ****     }
 154:src/APP.cpp   **** 
 155:src/APP.cpp   ****     assert(MemAlloc::get()->getUserlandUsage() == Thread::initialUserMemoryUsage);
 815              		.loc 1 155 5 is_stmt 1
 816 05c4 97000000 		call	_ZN8MemAlloc3getEv@plt
 816      E7800000 
 817              	.LVL120:
 818 05cc 97000000 		call	_ZN8MemAlloc16getUserlandUsageEv@plt
 818      E7800000 
 819              	.LVL121:
 820 05d4 97070000 		la	a5,_ZN6Thread22initialUserMemoryUsageE
 820      83B70700 
 821 05dc 83B70700 		ld	a5,0(a5)
 822              	.LVL122:
 823              	.LBB59:
 824              	.LBB60:
  20:src/../h/my_console.h ****         return;
GAS LISTING /tmp/ccfTa8yK.s 			page 24


 825              		.loc 2 20 5
 826 05e0 6394A704 		bne	a5,a0,.L32
  21:src/../h/my_console.h **** 
 827              		.loc 2 21 9
 828              	.LVL123:
 829              	.LBE60:
 830              	.LBE59:
 156:src/APP.cpp   ****     putString("=== Success in testing system calls");
 831              		.loc 1 156 5
 832              		.loc 1 156 14 is_stmt 0
 833 05e4 17050000 		lla	a0,.LC10
 833      13050500 
 834 05ec 97000000 		call	_Z9putStringPKc@plt
 834      E7800000 
 835              	.LVL124:
 157:src/APP.cpp   ****     putNewline();
 836              		.loc 1 157 5 is_stmt 1
 837              		.loc 1 157 15 is_stmt 0
 838 05f4 97000000 		call	_Z10putNewlinev@plt
 838      E7800000 
 839              	.LVL125:
 158:src/APP.cpp   **** }
 840              		.loc 1 158 1
 841 05fc 83308104 		ld	ra,72(sp)
 842              		.cfi_remember_state
 843              		.cfi_restore 1
 844 0600 03340104 		ld	s0,64(sp)
 845              		.cfi_restore 8
 846              		.cfi_def_cfa 2, 80
 847 0604 83348103 		ld	s1,56(sp)
 848              		.cfi_restore 9
 849              	.LVL126:
 850 0608 03390103 		ld	s2,48(sp)
 851              		.cfi_restore 18
 852 060c 83398102 		ld	s3,40(sp)
 853              		.cfi_restore 19
 854 0610 033A0102 		ld	s4,32(sp)
 855              		.cfi_restore 20
 856              	.LVL127:
 857 0614 833A8101 		ld	s5,24(sp)
 858              		.cfi_restore 21
 859              	.LVL128:
 860 0618 033B0101 		ld	s6,16(sp)
 861              		.cfi_restore 22
 862 061c 833B8100 		ld	s7,8(sp)
 863              		.cfi_restore 23
 864 0620 13010105 		addi	sp,sp,80
 865              		.cfi_def_cfa_offset 0
 866 0624 67800000 		jr	ra
 867              	.LVL129:
 868              	.L32:
 869              		.cfi_restore_state
 870              	.LBB62:
 871              	.LBB61:
  23:src/../h/my_console.h ****     putString(file);
 872              		.loc 2 23 5 is_stmt 1
  23:src/../h/my_console.h ****     putString(file);
GAS LISTING /tmp/ccfTa8yK.s 			page 25


 873              		.loc 2 23 14 is_stmt 0
 874 0628 17050000 		lla	a0,.LC2
 874      13050500 
 875              	.LVL130:
 876 0630 97000000 		call	_Z9putStringPKc@plt
 876      E7800000 
 877              	.LVL131:
  24:src/../h/my_console.h ****     putString("    line: ");
 878              		.loc 2 24 5 is_stmt 1
  24:src/../h/my_console.h ****     putString("    line: ");
 879              		.loc 2 24 14 is_stmt 0
 880 0638 17050000 		lla	a0,.LC3
 880      13050500 
 881 0640 97000000 		call	_Z9putStringPKc@plt
 881      E7800000 
 882              	.LVL132:
  25:src/../h/my_console.h ****     putInt(line);
 883              		.loc 2 25 5 is_stmt 1
  25:src/../h/my_console.h ****     putInt(line);
 884              		.loc 2 25 14 is_stmt 0
 885 0648 17050000 		lla	a0,.LC4
 885      13050500 
 886 0650 97000000 		call	_Z9putStringPKc@plt
 886      E7800000 
 887              	.LVL133:
  26:src/../h/my_console.h ****     putString("   ===========================");
 888              		.loc 2 26 5 is_stmt 1
  26:src/../h/my_console.h ****     putString("   ===========================");
 889              		.loc 2 26 11 is_stmt 0
 890 0658 1305B009 		li	a0,155
 891 065c 97000000 		call	_Z6putInti@plt
 891      E7800000 
 892              	.LVL134:
  27:src/../h/my_console.h ****     putNewline();
 893              		.loc 2 27 5 is_stmt 1
  27:src/../h/my_console.h ****     putNewline();
 894              		.loc 2 27 14 is_stmt 0
 895 0664 17050000 		lla	a0,.LC5
 895      13050500 
 896 066c 97000000 		call	_Z9putStringPKc@plt
 896      E7800000 
 897              	.LVL135:
  28:src/../h/my_console.h **** 
 898              		.loc 2 28 5 is_stmt 1
  28:src/../h/my_console.h **** 
 899              		.loc 2 28 15 is_stmt 0
 900 0674 97000000 		call	_Z10putNewlinev@plt
 900      E7800000 
 901              	.LVL136:
 902              		.loc 2 30 5 is_stmt 1
 903              		.loc 2 30 15 is_stmt 0
 904 067c 97000000 		call	_Z10stopKernelv@plt
 904      E7800000 
 905              	.LVL137:
 906              	.LBE61:
 907              	.LBE62:
 908              		.cfi_endproc
GAS LISTING /tmp/ccfTa8yK.s 			page 26


 909              	.LFE15:
 911              		.section	.rodata.str1.8
 912 012c 00000000 		.align	3
 913              	.LC11:
 914 0130 3D3D3D20 		.string	"=== Testing \"testMemoryAllocator\""
 914      54657374 
 914      696E6720 
 914      22746573 
 914      744D656D 
 915 0152 00000000 		.align	3
 915      0000
 916              	.LC12:
 917 0158 3D3D3D20 		.string	"=== Success in testing memory allocator"
 917      53756363 
 917      65737320 
 917      696E2074 
 917      65737469 
 918              		.text
 919              		.align	2
 920              		.globl	_Z19testMemoryAllocatorv
 922              	_Z19testMemoryAllocatorv:
 923              	.LFB16:
 159:src/APP.cpp   **** 
 160:src/APP.cpp   **** void testMemoryAllocator()
 161:src/APP.cpp   **** {
 924              		.loc 1 161 1 is_stmt 1
 925              		.cfi_startproc
 926 0684 130101FD 		addi	sp,sp,-48
 927              		.cfi_def_cfa_offset 48
 928 0688 23341102 		sd	ra,40(sp)
 929 068c 23308102 		sd	s0,32(sp)
 930 0690 233C9100 		sd	s1,24(sp)
 931 0694 23382101 		sd	s2,16(sp)
 932 0698 23343101 		sd	s3,8(sp)
 933              		.cfi_offset 1, -8
 934              		.cfi_offset 8, -16
 935              		.cfi_offset 9, -24
 936              		.cfi_offset 18, -32
 937              		.cfi_offset 19, -40
 938 069c 13040103 		addi	s0,sp,48
 939              		.cfi_def_cfa 8, 0
 162:src/APP.cpp   ****     putString("=== Testing \"testMemoryAllocator\"");
 940              		.loc 1 162 5
 941              		.loc 1 162 14 is_stmt 0
 942 06a0 17050000 		lla	a0,.LC11
 942      13050500 
 943 06a8 97000000 		call	_Z9putStringPKc@plt
 943      E7800000 
 944              	.LVL138:
 163:src/APP.cpp   ****     putNewline();
 945              		.loc 1 163 5 is_stmt 1
 946              		.loc 1 163 15 is_stmt 0
 947 06b0 97000000 		call	_Z10putNewlinev@plt
 947      E7800000 
 948              	.LVL139:
 164:src/APP.cpp   ****     int n = 1000;
 949              		.loc 1 164 5 is_stmt 1
GAS LISTING /tmp/ccfTa8yK.s 			page 27


 165:src/APP.cpp   ****     int **a;
 950              		.loc 1 165 5
 166:src/APP.cpp   ****     a = (int**)mem_alloc(n * sizeof(void*));
 951              		.loc 1 166 5
 952              		.loc 1 166 25 is_stmt 0
 953 06b8 37250000 		li	a0,8192
 954 06bc 130505F4 		addi	a0,a0,-192
 955 06c0 97000000 		call	_Z9mem_allocm@plt
 955      E7800000 
 956              	.LVL140:
 957 06c8 93090500 		mv	s3,a0
 958              	.LVL141:
 167:src/APP.cpp   ****     for(int i=0; i<n; i++)
 959              		.loc 1 167 5 is_stmt 1
 960              	.LBB74:
 961              		.loc 1 167 13 is_stmt 0
 962 06cc 93040000 		li	s1,0
 963              	.LVL142:
 964              	.L35:
 965              		.loc 1 167 19 is_stmt 1 discriminator 3
 966 06d0 9307703E 		li	a5,999
 967 06d4 63C49702 		bgt	s1,a5,.L42
 168:src/APP.cpp   ****     {
 169:src/APP.cpp   ****         a[i] = (int*)mem_alloc(sizeof(int));
 968              		.loc 1 169 9 discriminator 2
 969              		.loc 1 169 12 is_stmt 0 discriminator 2
 970 06d8 13993400 		slli	s2,s1,3
 971 06dc 33892901 		add	s2,s3,s2
 972              		.loc 1 169 31 discriminator 2
 973 06e0 13054000 		li	a0,4
 974 06e4 97000000 		call	_Z9mem_allocm@plt
 974      E7800000 
 975              	.LVL143:
 976              		.loc 1 169 14 discriminator 2
 977 06ec 2330A900 		sd	a0,0(s2)
 170:src/APP.cpp   ****         *a[i] = i;
 978              		.loc 1 170 9 is_stmt 1 discriminator 2
 979              		.loc 1 170 15 is_stmt 0 discriminator 2
 980 06f0 23209500 		sw	s1,0(a0)
 167:src/APP.cpp   ****     for(int i=0; i<n; i++)
 981              		.loc 1 167 5 is_stmt 1 discriminator 2
 982 06f4 9B841400 		addiw	s1,s1,1
 983              	.LVL144:
 984 06f8 6FF09FFD 		j	.L35
 985              	.LVL145:
 986              	.L42:
 987              	.LBE74:
 988              	.LBB75:
 171:src/APP.cpp   ****     }
 172:src/APP.cpp   **** 
 173:src/APP.cpp   ****     int result = 0;
 174:src/APP.cpp   ****     for(int i=0; i<n; i++)
 989              		.loc 1 174 13 is_stmt 0
 990 06fc 93070000 		li	a5,0
 991              	.LBE75:
 173:src/APP.cpp   ****     for(int i=0; i<n; i++)
 992              		.loc 1 173 9
GAS LISTING /tmp/ccfTa8yK.s 			page 28


 993 0700 93060000 		li	a3,0
 994              	.L34:
 995              	.LVL146:
 996              	.LBB76:
 997              		.loc 1 174 19 is_stmt 1 discriminator 3
 998 0704 1307703E 		li	a4,999
 999 0708 6340F702 		bgt	a5,a4,.L36
 175:src/APP.cpp   ****     {
 176:src/APP.cpp   ****         result += *a[i];
 1000              		.loc 1 176 9 discriminator 2
 1001              		.loc 1 176 23 is_stmt 0 discriminator 2
 1002 070c 13973700 		slli	a4,a5,3
 1003 0710 3387E900 		add	a4,s3,a4
 1004 0714 03370700 		ld	a4,0(a4)
 1005              		.loc 1 176 19 discriminator 2
 1006 0718 03270700 		lw	a4,0(a4)
 1007              		.loc 1 176 16 discriminator 2
 1008 071c BB06D700 		addw	a3,a4,a3
 1009              	.LVL147:
 174:src/APP.cpp   ****     {
 1010              		.loc 1 174 5 is_stmt 1 discriminator 2
 1011 0720 9B871700 		addiw	a5,a5,1
 1012              	.LVL148:
 1013 0724 6FF01FFE 		j	.L34
 1014              	.LVL149:
 1015              	.L36:
 1016              	.LBE76:
 177:src/APP.cpp   ****     }
 178:src/APP.cpp   **** 
 179:src/APP.cpp   **** //    uint64 vau = n * sizeof(void*);
 180:src/APP.cpp   **** //    if(n % MEM_BLOCK_SIZE != 0)
 181:src/APP.cpp   **** //        vau +=  MEM_BLOCK_SIZE - ((sizeof(int)* n) % MEM_BLOCK_SIZE);
 182:src/APP.cpp   **** //    vau += MEM_BLOCK_SIZE * n;
 183:src/APP.cpp   **** //    assert(MemAlloc::get()->getUserlandUsage() == vau);
 184:src/APP.cpp   **** 
 185:src/APP.cpp   **** //    putInt(result);
 186:src/APP.cpp   **** //    putNewline();
 187:src/APP.cpp   **** 
 188:src/APP.cpp   ****     assert(result == (n-1) * n / 2);
 1017              		.loc 1 188 5
 1018 0728 B7A70700 		li	a5,499712
 1019              	.LVL150:
 1020 072c 9387C7F2 		addi	a5,a5,-212
 1021              	.LVL151:
 1022              	.LBB77:
 1023              	.LBB78:
  20:src/../h/my_console.h ****         return;
 1024              		.loc 2 20 5
 1025 0730 6398F602 		bne	a3,a5,.L45
 1026              	.LBE78:
 1027              	.LBE77:
 1028              	.LBB80:
 189:src/APP.cpp   **** 
 190:src/APP.cpp   **** //    uint64 oldTaken = MemAlloc::get()->getUserlandUsage();
 191:src/APP.cpp   **** //    uint64 newTaken;
 192:src/APP.cpp   **** 
 193:src/APP.cpp   ****     int t;
GAS LISTING /tmp/ccfTa8yK.s 			page 29


 194:src/APP.cpp   ****     for(int i=0; i<n; i++)
 1029              		.loc 1 194 13 is_stmt 0
 1030 0734 93040000 		li	s1,0
 1031              	.LVL152:
 1032              	.L37:
 1033              		.loc 1 194 19 is_stmt 1 discriminator 3
 1034 0738 9307703E 		li	a5,999
 1035 073c 63CE970C 		bgt	s1,a5,.L38
 195:src/APP.cpp   ****     {
 196:src/APP.cpp   ****         t = mem_free(a[i]);
 1036              		.loc 1 196 9 discriminator 2
 1037              		.loc 1 196 25 is_stmt 0 discriminator 2
 1038 0740 93973400 		slli	a5,s1,3
 1039 0744 B387F900 		add	a5,s3,a5
 1040              		.loc 1 196 21 discriminator 2
 1041 0748 03B50700 		ld	a0,0(a5)
 1042 074c 97000000 		call	_Z8mem_freePv@plt
 1042      E7800000 
 1043              	.LVL153:
 197:src/APP.cpp   ****         assert(t == 0);
 1044              		.loc 1 197 9 is_stmt 1 discriminator 2
 1045              	.LBB81:
 1046              	.LBB82:
  20:src/../h/my_console.h ****         return;
 1047              		.loc 2 20 5 discriminator 2
 1048 0754 63140506 		bnez	a0,.L46
  21:src/../h/my_console.h **** 
 1049              		.loc 2 21 9 discriminator 2
 1050              	.LVL154:
 1051              	.LBE82:
 1052              	.LBE81:
 194:src/APP.cpp   ****     {
 1053              		.loc 1 194 5 discriminator 2
 1054 0758 9B841400 		addiw	s1,s1,1
 1055              	.LVL155:
 1056 075c 6FF0DFFD 		j	.L37
 1057              	.LVL156:
 1058              	.L45:
 1059              	.LBE80:
 1060              	.LBB85:
 1061              	.LBB79:
  23:src/../h/my_console.h ****     putString(file);
 1062              		.loc 2 23 5
  23:src/../h/my_console.h ****     putString(file);
 1063              		.loc 2 23 14 is_stmt 0
 1064 0760 17050000 		lla	a0,.LC2
 1064      13050500 
 1065 0768 97000000 		call	_Z9putStringPKc@plt
 1065      E7800000 
 1066              	.LVL157:
  24:src/../h/my_console.h ****     putString("    line: ");
 1067              		.loc 2 24 5 is_stmt 1
  24:src/../h/my_console.h ****     putString("    line: ");
 1068              		.loc 2 24 14 is_stmt 0
 1069 0770 17050000 		lla	a0,.LC3
 1069      13050500 
 1070 0778 97000000 		call	_Z9putStringPKc@plt
GAS LISTING /tmp/ccfTa8yK.s 			page 30


 1070      E7800000 
 1071              	.LVL158:
  25:src/../h/my_console.h ****     putInt(line);
 1072              		.loc 2 25 5 is_stmt 1
  25:src/../h/my_console.h ****     putInt(line);
 1073              		.loc 2 25 14 is_stmt 0
 1074 0780 17050000 		lla	a0,.LC4
 1074      13050500 
 1075 0788 97000000 		call	_Z9putStringPKc@plt
 1075      E7800000 
 1076              	.LVL159:
  26:src/../h/my_console.h ****     putString("   ===========================");
 1077              		.loc 2 26 5 is_stmt 1
  26:src/../h/my_console.h ****     putString("   ===========================");
 1078              		.loc 2 26 11 is_stmt 0
 1079 0790 1305C00B 		li	a0,188
 1080 0794 97000000 		call	_Z6putInti@plt
 1080      E7800000 
 1081              	.LVL160:
  27:src/../h/my_console.h ****     putNewline();
 1082              		.loc 2 27 5 is_stmt 1
  27:src/../h/my_console.h ****     putNewline();
 1083              		.loc 2 27 14 is_stmt 0
 1084 079c 17050000 		lla	a0,.LC5
 1084      13050500 
 1085 07a4 97000000 		call	_Z9putStringPKc@plt
 1085      E7800000 
 1086              	.LVL161:
  28:src/../h/my_console.h **** 
 1087              		.loc 2 28 5 is_stmt 1
  28:src/../h/my_console.h **** 
 1088              		.loc 2 28 15 is_stmt 0
 1089 07ac 97000000 		call	_Z10putNewlinev@plt
 1089      E7800000 
 1090              	.LVL162:
 1091              		.loc 2 30 5 is_stmt 1
 1092              		.loc 2 30 15 is_stmt 0
 1093 07b4 97000000 		call	_Z10stopKernelv@plt
 1093      E7800000 
 1094              	.LVL163:
 1095              	.L46:
 1096              	.LBE79:
 1097              	.LBE85:
 1098              	.LBB86:
 1099              	.LBB84:
 1100              	.LBB83:
  23:src/../h/my_console.h ****     putString(file);
 1101              		.loc 2 23 5 is_stmt 1
  23:src/../h/my_console.h ****     putString(file);
 1102              		.loc 2 23 14 is_stmt 0
 1103 07bc 17050000 		lla	a0,.LC2
 1103      13050500 
 1104              	.LVL164:
 1105 07c4 97000000 		call	_Z9putStringPKc@plt
 1105      E7800000 
 1106              	.LVL165:
  24:src/../h/my_console.h ****     putString("    line: ");
GAS LISTING /tmp/ccfTa8yK.s 			page 31


 1107              		.loc 2 24 5 is_stmt 1
  24:src/../h/my_console.h ****     putString("    line: ");
 1108              		.loc 2 24 14 is_stmt 0
 1109 07cc 17050000 		lla	a0,.LC3
 1109      13050500 
 1110 07d4 97000000 		call	_Z9putStringPKc@plt
 1110      E7800000 
 1111              	.LVL166:
  25:src/../h/my_console.h ****     putInt(line);
 1112              		.loc 2 25 5 is_stmt 1
  25:src/../h/my_console.h ****     putInt(line);
 1113              		.loc 2 25 14 is_stmt 0
 1114 07dc 17050000 		lla	a0,.LC4
 1114      13050500 
 1115 07e4 97000000 		call	_Z9putStringPKc@plt
 1115      E7800000 
 1116              	.LVL167:
  26:src/../h/my_console.h ****     putString("   ===========================");
 1117              		.loc 2 26 5 is_stmt 1
  26:src/../h/my_console.h ****     putString("   ===========================");
 1118              		.loc 2 26 11 is_stmt 0
 1119 07ec 1305500C 		li	a0,197
 1120 07f0 97000000 		call	_Z6putInti@plt
 1120      E7800000 
 1121              	.LVL168:
  27:src/../h/my_console.h ****     putNewline();
 1122              		.loc 2 27 5 is_stmt 1
  27:src/../h/my_console.h ****     putNewline();
 1123              		.loc 2 27 14 is_stmt 0
 1124 07f8 17050000 		lla	a0,.LC5
 1124      13050500 
 1125 0800 97000000 		call	_Z9putStringPKc@plt
 1125      E7800000 
 1126              	.LVL169:
  28:src/../h/my_console.h **** 
 1127              		.loc 2 28 5 is_stmt 1
  28:src/../h/my_console.h **** 
 1128              		.loc 2 28 15 is_stmt 0
 1129 0808 97000000 		call	_Z10putNewlinev@plt
 1129      E7800000 
 1130              	.LVL170:
 1131              		.loc 2 30 5 is_stmt 1
 1132              		.loc 2 30 15 is_stmt 0
 1133 0810 97000000 		call	_Z10stopKernelv@plt
 1133      E7800000 
 1134              	.LVL171:
 1135              	.L38:
 1136              	.LBE83:
 1137              	.LBE84:
 1138              	.LBE86:
 198:src/APP.cpp   **** 
 199:src/APP.cpp   **** //        newTaken = MemAlloc::get()->getUserlandUsage();
 200:src/APP.cpp   **** //        assert(oldTaken - newTaken == MEM_BLOCK_SIZE);
 201:src/APP.cpp   ****     }
 202:src/APP.cpp   **** 
 203:src/APP.cpp   **** //    assert(MemAlloc::get()->getUserlandUsage() == MEM_BLOCK_SIZE);
 204:src/APP.cpp   **** 
GAS LISTING /tmp/ccfTa8yK.s 			page 32


 205:src/APP.cpp   ****     t = mem_free(a);
 1139              		.loc 1 205 5 is_stmt 1
 1140              		.loc 1 205 17 is_stmt 0
 1141 0818 13850900 		mv	a0,s3
 1142 081c 97000000 		call	_Z8mem_freePv@plt
 1142      E7800000 
 1143              	.LVL172:
 206:src/APP.cpp   ****     assert(t == 0);
 1144              		.loc 1 206 5 is_stmt 1
 1145              	.LBB87:
 1146              	.LBB88:
  20:src/../h/my_console.h ****         return;
 1147              		.loc 2 20 5
 1148 0824 631C0504 		bnez	a0,.L47
  21:src/../h/my_console.h **** 
 1149              		.loc 2 21 9
 1150              	.LVL173:
 1151              	.LBE88:
 1152              	.LBE87:
 207:src/APP.cpp   **** 
 208:src/APP.cpp   ****     assert(MemAlloc::get()->getUserlandUsage() == Thread::initialUserMemoryUsage);
 1153              		.loc 1 208 5
 1154 0828 97000000 		call	_ZN8MemAlloc3getEv@plt
 1154      E7800000 
 1155              	.LVL174:
 1156 0830 97000000 		call	_ZN8MemAlloc16getUserlandUsageEv@plt
 1156      E7800000 
 1157              	.LVL175:
 1158 0838 97070000 		la	a5,_ZN6Thread22initialUserMemoryUsageE
 1158      83B70700 
 1159 0840 83B70700 		ld	a5,0(a5)
 1160              	.LVL176:
 1161              	.LBB90:
 1162              	.LBB91:
  20:src/../h/my_console.h ****         return;
 1163              		.loc 2 20 5
 1164 0844 639AA708 		bne	a5,a0,.L48
  21:src/../h/my_console.h **** 
 1165              		.loc 2 21 9
 1166              	.LVL177:
 1167              	.LBE91:
 1168              	.LBE90:
 209:src/APP.cpp   ****     putString("=== Success in testing memory allocator");
 1169              		.loc 1 209 5
 1170              		.loc 1 209 14 is_stmt 0
 1171 0848 17050000 		lla	a0,.LC12
 1171      13050500 
 1172 0850 97000000 		call	_Z9putStringPKc@plt
 1172      E7800000 
 1173              	.LVL178:
 210:src/APP.cpp   ****     putNewline();
 1174              		.loc 1 210 5 is_stmt 1
 1175              		.loc 1 210 15 is_stmt 0
 1176 0858 97000000 		call	_Z10putNewlinev@plt
 1176      E7800000 
 1177              	.LVL179:
 211:src/APP.cpp   **** }
GAS LISTING /tmp/ccfTa8yK.s 			page 33


 1178              		.loc 1 211 1
 1179 0860 83308102 		ld	ra,40(sp)
 1180              		.cfi_remember_state
 1181              		.cfi_restore 1
 1182 0864 03340102 		ld	s0,32(sp)
 1183              		.cfi_restore 8
 1184              		.cfi_def_cfa 2, 48
 1185 0868 83348101 		ld	s1,24(sp)
 1186              		.cfi_restore 9
 1187              	.LVL180:
 1188 086c 03390101 		ld	s2,16(sp)
 1189              		.cfi_restore 18
 1190 0870 83398100 		ld	s3,8(sp)
 1191              		.cfi_restore 19
 1192              	.LVL181:
 1193 0874 13010103 		addi	sp,sp,48
 1194              		.cfi_def_cfa_offset 0
 1195 0878 67800000 		jr	ra
 1196              	.LVL182:
 1197              	.L47:
 1198              		.cfi_restore_state
 1199              	.LBB93:
 1200              	.LBB89:
  23:src/../h/my_console.h ****     putString(file);
 1201              		.loc 2 23 5 is_stmt 1
  23:src/../h/my_console.h ****     putString(file);
 1202              		.loc 2 23 14 is_stmt 0
 1203 087c 17050000 		lla	a0,.LC2
 1203      13050500 
 1204              	.LVL183:
 1205 0884 97000000 		call	_Z9putStringPKc@plt
 1205      E7800000 
 1206              	.LVL184:
  24:src/../h/my_console.h ****     putString("    line: ");
 1207              		.loc 2 24 5 is_stmt 1
  24:src/../h/my_console.h ****     putString("    line: ");
 1208              		.loc 2 24 14 is_stmt 0
 1209 088c 17050000 		lla	a0,.LC3
 1209      13050500 
 1210 0894 97000000 		call	_Z9putStringPKc@plt
 1210      E7800000 
 1211              	.LVL185:
  25:src/../h/my_console.h ****     putInt(line);
 1212              		.loc 2 25 5 is_stmt 1
  25:src/../h/my_console.h ****     putInt(line);
 1213              		.loc 2 25 14 is_stmt 0
 1214 089c 17050000 		lla	a0,.LC4
 1214      13050500 
 1215 08a4 97000000 		call	_Z9putStringPKc@plt
 1215      E7800000 
 1216              	.LVL186:
  26:src/../h/my_console.h ****     putString("   ===========================");
 1217              		.loc 2 26 5 is_stmt 1
  26:src/../h/my_console.h ****     putString("   ===========================");
 1218              		.loc 2 26 11 is_stmt 0
 1219 08ac 1305E00C 		li	a0,206
 1220 08b0 97000000 		call	_Z6putInti@plt
GAS LISTING /tmp/ccfTa8yK.s 			page 34


 1220      E7800000 
 1221              	.LVL187:
  27:src/../h/my_console.h ****     putNewline();
 1222              		.loc 2 27 5 is_stmt 1
  27:src/../h/my_console.h ****     putNewline();
 1223              		.loc 2 27 14 is_stmt 0
 1224 08b8 17050000 		lla	a0,.LC5
 1224      13050500 
 1225 08c0 97000000 		call	_Z9putStringPKc@plt
 1225      E7800000 
 1226              	.LVL188:
  28:src/../h/my_console.h **** 
 1227              		.loc 2 28 5 is_stmt 1
  28:src/../h/my_console.h **** 
 1228              		.loc 2 28 15 is_stmt 0
 1229 08c8 97000000 		call	_Z10putNewlinev@plt
 1229      E7800000 
 1230              	.LVL189:
 1231              		.loc 2 30 5 is_stmt 1
 1232              		.loc 2 30 15 is_stmt 0
 1233 08d0 97000000 		call	_Z10stopKernelv@plt
 1233      E7800000 
 1234              	.LVL190:
 1235              	.L48:
 1236              	.LBE89:
 1237              	.LBE93:
 1238              	.LBB94:
 1239              	.LBB92:
  23:src/../h/my_console.h ****     putString(file);
 1240              		.loc 2 23 5 is_stmt 1
  23:src/../h/my_console.h ****     putString(file);
 1241              		.loc 2 23 14 is_stmt 0
 1242 08d8 17050000 		lla	a0,.LC2
 1242      13050500 
 1243              	.LVL191:
 1244 08e0 97000000 		call	_Z9putStringPKc@plt
 1244      E7800000 
 1245              	.LVL192:
  24:src/../h/my_console.h ****     putString("    line: ");
 1246              		.loc 2 24 5 is_stmt 1
  24:src/../h/my_console.h ****     putString("    line: ");
 1247              		.loc 2 24 14 is_stmt 0
 1248 08e8 17050000 		lla	a0,.LC3
 1248      13050500 
 1249 08f0 97000000 		call	_Z9putStringPKc@plt
 1249      E7800000 
 1250              	.LVL193:
  25:src/../h/my_console.h ****     putInt(line);
 1251              		.loc 2 25 5 is_stmt 1
  25:src/../h/my_console.h ****     putInt(line);
 1252              		.loc 2 25 14 is_stmt 0
 1253 08f8 17050000 		lla	a0,.LC4
 1253      13050500 
 1254 0900 97000000 		call	_Z9putStringPKc@plt
 1254      E7800000 
 1255              	.LVL194:
  26:src/../h/my_console.h ****     putString("   ===========================");
GAS LISTING /tmp/ccfTa8yK.s 			page 35


 1256              		.loc 2 26 5 is_stmt 1
  26:src/../h/my_console.h ****     putString("   ===========================");
 1257              		.loc 2 26 11 is_stmt 0
 1258 0908 1305000D 		li	a0,208
 1259 090c 97000000 		call	_Z6putInti@plt
 1259      E7800000 
 1260              	.LVL195:
  27:src/../h/my_console.h ****     putNewline();
 1261              		.loc 2 27 5 is_stmt 1
  27:src/../h/my_console.h ****     putNewline();
 1262              		.loc 2 27 14 is_stmt 0
 1263 0914 17050000 		lla	a0,.LC5
 1263      13050500 
 1264 091c 97000000 		call	_Z9putStringPKc@plt
 1264      E7800000 
 1265              	.LVL196:
  28:src/../h/my_console.h **** 
 1266              		.loc 2 28 5 is_stmt 1
  28:src/../h/my_console.h **** 
 1267              		.loc 2 28 15 is_stmt 0
 1268 0924 97000000 		call	_Z10putNewlinev@plt
 1268      E7800000 
 1269              	.LVL197:
 1270              		.loc 2 30 5 is_stmt 1
 1271              		.loc 2 30 15 is_stmt 0
 1272 092c 97000000 		call	_Z10stopKernelv@plt
 1272      E7800000 
 1273              	.LVL198:
 1274              	.LBE92:
 1275              	.LBE94:
 1276              		.cfi_endproc
 1277              	.LFE16:
 1279              		.section	.rodata.str1.8
 1280              		.align	3
 1281              	.LC13:
 1282 0180 3D3D3D20 		.string	"=== App ended"
 1282      41707020 
 1282      656E6465 
 1282      6400
 1283              		.text
 1284              		.align	2
 1285              		.globl	_Z10myUserMainv
 1287              	_Z10myUserMainv:
 1288              	.LFB10:
  12:src/APP.cpp   **** //    __asm__ volatile ("csrw sscratch, x1"); // set spie bit to 1. spie signifies that we dont wan
 1289              		.loc 1 12 1 is_stmt 1
 1290              		.cfi_startproc
 1291 0934 130101FF 		addi	sp,sp,-16
 1292              		.cfi_def_cfa_offset 16
 1293 0938 23341100 		sd	ra,8(sp)
 1294 093c 23308100 		sd	s0,0(sp)
 1295              		.cfi_offset 1, -8
 1296              		.cfi_offset 8, -16
 1297 0940 13040101 		addi	s0,sp,16
 1298              		.cfi_def_cfa 8, 0
  15:src/APP.cpp   **** 
 1299              		.loc 1 15 5
GAS LISTING /tmp/ccfTa8yK.s 			page 36


  15:src/APP.cpp   **** 
 1300              		.loc 1 15 37 is_stmt 0
 1301              	#APP
 1302              	# 15 "src/APP.cpp" 1
  19:src/APP.cpp   **** 
 1303              		mv x10, x10
 1304              	# 0 "" 2
 1305              		.loc 1 19 5 is_stmt 1
 1306              	#NO_APP
 1307 0948 97000000 		call	_ZN8MemAlloc3getEv@plt
 1307      E7800000 
 1308              	.LVL199:
 1309 0950 97000000 		call	_ZN8MemAlloc16getUserlandUsageEv@plt
 1309      E7800000 
 1310              	.LVL200:
 1311 0958 97070000 		la	a5,_ZN6Thread22initialUserMemoryUsageE
 1311      83B70700 
 1312 0960 83B70700 		ld	a5,0(a5)
 1313              	.LVL201:
 1314              	.LBB98:
 1315              	.LBB99:
  20:src/../h/my_console.h ****         return;
 1316              		.loc 2 20 5
 1317 0964 6390A702 		bne	a5,a0,.L54
 1318              	.LBE99:
 1319              	.LBE98:
 1320              	.LBB101:
  21:src/APP.cpp   ****     {
 1321              		.loc 1 21 13 is_stmt 0
 1322 0968 13070000 		li	a4,0
 1323              	.LVL202:
 1324              	.L50:
  21:src/APP.cpp   ****     {
 1325              		.loc 1 21 19 is_stmt 1 discriminator 3
 1326 096c B7D79A3B 		li	a5,1000001536
 1327 0970 9387F79F 		addi	a5,a5,-1537
 1328 0974 63C6E706 		bgt	a4,a5,.L51
  23:src/APP.cpp   ****     }
 1329              		.loc 1 23 9 discriminator 2
  23:src/APP.cpp   ****     }
 1330              		.loc 1 23 41 is_stmt 0 discriminator 2
 1331              	#APP
 1332              	# 23 "src/APP.cpp" 1
  21:src/APP.cpp   ****     {
 1333              		mv x10, x10
 1334              	# 0 "" 2
 1335              		.loc 1 21 5 is_stmt 1 discriminator 2
 1336              	#NO_APP
 1337 097c 1B071700 		addiw	a4,a4,1
 1338              	.LVL203:
 1339 0980 6FF0DFFE 		j	.L50
 1340              	.LVL204:
 1341              	.L54:
 1342              	.LBE101:
 1343              	.LBB102:
 1344              	.LBB100:
  23:src/../h/my_console.h ****     putString(file);
GAS LISTING /tmp/ccfTa8yK.s 			page 37


 1345              		.loc 2 23 5
  23:src/../h/my_console.h ****     putString(file);
 1346              		.loc 2 23 14 is_stmt 0
 1347 0984 17050000 		lla	a0,.LC2
 1347      13050500 
 1348              	.LVL205:
 1349 098c 97000000 		call	_Z9putStringPKc@plt
 1349      E7800000 
 1350              	.LVL206:
  24:src/../h/my_console.h ****     putString("    line: ");
 1351              		.loc 2 24 5 is_stmt 1
  24:src/../h/my_console.h ****     putString("    line: ");
 1352              		.loc 2 24 14 is_stmt 0
 1353 0994 17050000 		lla	a0,.LC3
 1353      13050500 
 1354 099c 97000000 		call	_Z9putStringPKc@plt
 1354      E7800000 
 1355              	.LVL207:
  25:src/../h/my_console.h ****     putInt(line);
 1356              		.loc 2 25 5 is_stmt 1
  25:src/../h/my_console.h ****     putInt(line);
 1357              		.loc 2 25 14 is_stmt 0
 1358 09a4 17050000 		lla	a0,.LC4
 1358      13050500 
 1359 09ac 97000000 		call	_Z9putStringPKc@plt
 1359      E7800000 
 1360              	.LVL208:
  26:src/../h/my_console.h ****     putString("   ===========================");
 1361              		.loc 2 26 5 is_stmt 1
  26:src/../h/my_console.h ****     putString("   ===========================");
 1362              		.loc 2 26 11 is_stmt 0
 1363 09b4 13053001 		li	a0,19
 1364 09b8 97000000 		call	_Z6putInti@plt
 1364      E7800000 
 1365              	.LVL209:
  27:src/../h/my_console.h ****     putNewline();
 1366              		.loc 2 27 5 is_stmt 1
  27:src/../h/my_console.h ****     putNewline();
 1367              		.loc 2 27 14 is_stmt 0
 1368 09c0 17050000 		lla	a0,.LC5
 1368      13050500 
 1369 09c8 97000000 		call	_Z9putStringPKc@plt
 1369      E7800000 
 1370              	.LVL210:
  28:src/../h/my_console.h **** 
 1371              		.loc 2 28 5 is_stmt 1
  28:src/../h/my_console.h **** 
 1372              		.loc 2 28 15 is_stmt 0
 1373 09d0 97000000 		call	_Z10putNewlinev@plt
 1373      E7800000 
 1374              	.LVL211:
 1375              		.loc 2 30 5 is_stmt 1
 1376              		.loc 2 30 15 is_stmt 0
 1377 09d8 97000000 		call	_Z10stopKernelv@plt
 1377      E7800000 
 1378              	.LVL212:
 1379              	.L51:
GAS LISTING /tmp/ccfTa8yK.s 			page 38


 1380              	.LBE100:
 1381              	.LBE102:
  26:src/APP.cpp   ****     testMemoryAllocator();
 1382              		.loc 1 26 5 is_stmt 1
  26:src/APP.cpp   ****     testMemoryAllocator();
 1383              		.loc 1 26 20 is_stmt 0
 1384 09e0 97000000 		call	_Z15testSystemCallsv
 1384      E7800000 
 1385              	.LVL213:
  27:src/APP.cpp   ****     testSyncCall();
 1386              		.loc 1 27 5 is_stmt 1
  27:src/APP.cpp   ****     testSyncCall();
 1387              		.loc 1 27 24 is_stmt 0
 1388 09e8 97000000 		call	_Z19testMemoryAllocatorv
 1388      E7800000 
 1389              	.LVL214:
  28:src/APP.cpp   **** 
 1390              		.loc 1 28 5 is_stmt 1
  28:src/APP.cpp   **** 
 1391              		.loc 1 28 17 is_stmt 0
 1392 09f0 97000000 		call	_Z12testSyncCallv
 1392      E7800000 
 1393              	.LVL215:
  33:src/APP.cpp   ****     putNewline();
 1394              		.loc 1 33 5 is_stmt 1
  33:src/APP.cpp   ****     putNewline();
 1395              		.loc 1 33 14 is_stmt 0
 1396 09f8 17050000 		lla	a0,.LC13
 1396      13050500 
 1397 0a00 97000000 		call	_Z9putStringPKc@plt
 1397      E7800000 
 1398              	.LVL216:
  34:src/APP.cpp   **** }
 1399              		.loc 1 34 5 is_stmt 1
  34:src/APP.cpp   **** }
 1400              		.loc 1 34 15 is_stmt 0
 1401 0a08 97000000 		call	_Z10putNewlinev@plt
 1401      E7800000 
 1402              	.LVL217:
  35:src/APP.cpp   **** 
 1403              		.loc 1 35 1
 1404 0a10 83308100 		ld	ra,8(sp)
 1405              		.cfi_restore 1
 1406 0a14 03340100 		ld	s0,0(sp)
 1407              		.cfi_restore 8
 1408              		.cfi_def_cfa 2, 16
 1409 0a18 13010101 		addi	sp,sp,16
 1410              		.cfi_def_cfa_offset 0
 1411 0a1c 67800000 		jr	ra
 1412              		.cfi_endproc
 1413              	.LFE10:
 1415              	.Letext0:
 1416              		.file 3 "src/../h/../lib/hw.h"
 1417              		.file 4 "src/../h/c_api.h"
 1418              		.file 5 "src/../h/alloc.h"
GAS LISTING /tmp/ccfTa8yK.s 			page 39


DEFINED SYMBOLS
                            *ABS*:0000000000000000 APP.cpp
     /tmp/ccfTa8yK.s:17     .text:0000000000000000 _Z12testSyncCallv
     /tmp/ccfTa8yK.s:21     .text:0000000000000000 .L0 
     /tmp/ccfTa8yK.s:22     .text:0000000000000000 .L0 
     /tmp/ccfTa8yK.s:23     .text:0000000000000004 .L0 
     /tmp/ccfTa8yK.s:26     .text:000000000000000c .L0 
     /tmp/ccfTa8yK.s:27     .text:000000000000000c .L0 
     /tmp/ccfTa8yK.s:29     .text:0000000000000010 .L0 
     /tmp/ccfTa8yK.s:31     .text:0000000000000010 .L0 
     /tmp/ccfTa8yK.s:32     .text:0000000000000010 .L0 
     /tmp/ccfTa8yK.s:36     .text:0000000000000020 .L0 
     /tmp/ccfTa8yK.s:37     .text:0000000000000020 .L0 
     /tmp/ccfTa8yK.s:40     .text:0000000000000028 .L0 
     /tmp/ccfTa8yK.s:41     .text:0000000000000028 .L0 
     /tmp/ccfTa8yK.s:42     .text:0000000000000028 .L0 
     /tmp/ccfTa8yK.s:43     .text:0000000000000028 .L0 
     /tmp/ccfTa8yK.s:46     .text:0000000000000030 .L0 
     /tmp/ccfTa8yK.s:47     .text:0000000000000030 .L0 
     /tmp/ccfTa8yK.s:50     .text:0000000000000038 .L0 
     /tmp/ccfTa8yK.s:51     .text:0000000000000038 .L0 
     /tmp/ccfTa8yK.s:52     .text:0000000000000038 .L0 
     /tmp/ccfTa8yK.s:53     .text:0000000000000038 .L0 
     /tmp/ccfTa8yK.s:187    .text:000000000000011c _Z3doAPv
     /tmp/ccfTa8yK.s:59     .text:0000000000000050 .L0 
     /tmp/ccfTa8yK.s:60     .text:0000000000000050 .L0 
     /tmp/ccfTa8yK.s:386    .text:000000000000029c _Z3doBPv
     /tmp/ccfTa8yK.s:66     .text:0000000000000068 .L0 
     /tmp/ccfTa8yK.s:67     .text:0000000000000068 .L0 
     /tmp/ccfTa8yK.s:70     .text:0000000000000070 .L0 
     /tmp/ccfTa8yK.s:71     .text:0000000000000070 .L0 
     /tmp/ccfTa8yK.s:75     .text:000000000000007c .L0 
     /tmp/ccfTa8yK.s:76     .text:000000000000007c .L0 
     /tmp/ccfTa8yK.s:80     .text:0000000000000088 .L0 
         src/APP.cpp:70     .text:0000000000000088 .L0 
     /tmp/ccfTa8yK.s:86     .text:000000000000008c .L0 
     /tmp/ccfTa8yK.s:88     .text:000000000000008c .L0 
     /tmp/ccfTa8yK.s:92     .text:000000000000009c .L0 
     /tmp/ccfTa8yK.s:93     .text:000000000000009c .L0 
     /tmp/ccfTa8yK.s:96     .text:00000000000000a4 .L0 
     /tmp/ccfTa8yK.s:97     .text:00000000000000a8 .L0 
     /tmp/ccfTa8yK.s:99     .text:00000000000000ac .L0 
     /tmp/ccfTa8yK.s:100    .text:00000000000000ac .L0 
     /tmp/ccfTa8yK.s:102    .text:00000000000000b0 .L0 
     /tmp/ccfTa8yK.s:104    .text:00000000000000b4 .L0 
     /tmp/ccfTa8yK.s:110    .text:00000000000000b4 _Z3fibm
     /tmp/ccfTa8yK.s:113    .text:00000000000000b4 .L0 
     /tmp/ccfTa8yK.s:115    .text:00000000000000b4 .L0 
     /tmp/ccfTa8yK.s:116    .text:00000000000000b8 .L0 
     /tmp/ccfTa8yK.s:121    .text:00000000000000c8 .L0 
     /tmp/ccfTa8yK.s:122    .text:00000000000000c8 .L0 
     /tmp/ccfTa8yK.s:123    .text:00000000000000c8 .L0 
     /tmp/ccfTa8yK.s:124    .text:00000000000000c8 .L0 
     /tmp/ccfTa8yK.s:126    .text:00000000000000cc .L0 
     /tmp/ccfTa8yK.s:129    .text:00000000000000d0 .L0 
     /tmp/ccfTa8yK.s:132    .text:00000000000000d8 .L0 
     /tmp/ccfTa8yK.s:136    .text:00000000000000dc .L0 
GAS LISTING /tmp/ccfTa8yK.s 			page 40


     /tmp/ccfTa8yK.s:138    .text:00000000000000e4 .L0 
     /tmp/ccfTa8yK.s:139    .text:00000000000000e4 .L0 
     /tmp/ccfTa8yK.s:141    .text:00000000000000e8 .L0 
     /tmp/ccfTa8yK.s:142    .text:00000000000000e8 .L0 
     /tmp/ccfTa8yK.s:144    .text:00000000000000ec .L0 
     /tmp/ccfTa8yK.s:146    .text:00000000000000f0 .L0 
     /tmp/ccfTa8yK.s:148    .text:00000000000000f4 .L0 
     /tmp/ccfTa8yK.s:152    .text:00000000000000f8 .L0 
     /tmp/ccfTa8yK.s:154    .text:00000000000000f8 .L0 
     /tmp/ccfTa8yK.s:155    .text:00000000000000f8 .L0 
     /tmp/ccfTa8yK.s:160    .text:0000000000000108 .L0 
     /tmp/ccfTa8yK.s:164    .text:0000000000000114 .L0 
     /tmp/ccfTa8yK.s:167    .text:000000000000011c .L0 
     /tmp/ccfTa8yK.s:190    .text:000000000000011c .L0 
     /tmp/ccfTa8yK.s:192    .text:000000000000011c .L0 
     /tmp/ccfTa8yK.s:193    .text:0000000000000120 .L0 
     /tmp/ccfTa8yK.s:198    .text:0000000000000130 .L0 
     /tmp/ccfTa8yK.s:199    .text:0000000000000130 .L0 
     /tmp/ccfTa8yK.s:200    .text:0000000000000130 .L0 
     /tmp/ccfTa8yK.s:201    .text:0000000000000130 .L0 
     /tmp/ccfTa8yK.s:203    .text:0000000000000134 .L0 
     /tmp/ccfTa8yK.s:205    .text:0000000000000134 .L0 
     /tmp/ccfTa8yK.s:212    .text:000000000000013c .L0 
     /tmp/ccfTa8yK.s:217    .text:0000000000000140 .L0 
     /tmp/ccfTa8yK.s:221    .text:0000000000000144 .L0 
     /tmp/ccfTa8yK.s:224    .text:000000000000014c .L0 
     /tmp/ccfTa8yK.s:234    .text:0000000000000168 .L0 
     /tmp/ccfTa8yK.s:239    .text:000000000000016c .L0 
     /tmp/ccfTa8yK.s:240    .text:000000000000016c .L0 
     /tmp/ccfTa8yK.s:241    .text:000000000000016c .L0 
     /tmp/ccfTa8yK.s:244    .text:0000000000000174 .L0 
     /tmp/ccfTa8yK.s:253    .text:000000000000017c .L0 
     /tmp/ccfTa8yK.s:254    .text:000000000000017c .L0 
     /tmp/ccfTa8yK.s:259    .text:000000000000018c .L0 
     /tmp/ccfTa8yK.s:260    .text:000000000000018c .L0 
     /tmp/ccfTa8yK.s:264    .text:000000000000019c .L0 
     /tmp/ccfTa8yK.s:265    .text:000000000000019c .L0 
     /tmp/ccfTa8yK.s:269    .text:00000000000001ac .L0 
     /tmp/ccfTa8yK.s:270    .text:00000000000001ac .L0 
     /tmp/ccfTa8yK.s:274    .text:00000000000001b8 .L0 
     /tmp/ccfTa8yK.s:275    .text:00000000000001b8 .L0 
     /tmp/ccfTa8yK.s:279    .text:00000000000001c8 .L0 
     /tmp/ccfTa8yK.s:280    .text:00000000000001c8 .L0 
     /tmp/ccfTa8yK.s:283    .text:00000000000001d0 .L0 
     /tmp/ccfTa8yK.s:284    .text:00000000000001d0 .L0 
     /tmp/ccfTa8yK.s:293    .text:00000000000001d8 .L0 
     /tmp/ccfTa8yK.s:294    .text:00000000000001d8 .L0 
     /tmp/ccfTa8yK.s:299    .text:00000000000001e8 .L0 
     /tmp/ccfTa8yK.s:300    .text:00000000000001e8 .L0 
     /tmp/ccfTa8yK.s:304    .text:00000000000001f8 .L0 
     /tmp/ccfTa8yK.s:305    .text:00000000000001f8 .L0 
     /tmp/ccfTa8yK.s:309    .text:0000000000000208 .L0 
     /tmp/ccfTa8yK.s:310    .text:0000000000000208 .L0 
     /tmp/ccfTa8yK.s:314    .text:0000000000000214 .L0 
     /tmp/ccfTa8yK.s:315    .text:0000000000000214 .L0 
     /tmp/ccfTa8yK.s:319    .text:0000000000000224 .L0 
     /tmp/ccfTa8yK.s:320    .text:0000000000000224 .L0 
GAS LISTING /tmp/ccfTa8yK.s 			page 41


     /tmp/ccfTa8yK.s:323    .text:000000000000022c .L0 
     /tmp/ccfTa8yK.s:324    .text:000000000000022c .L0 
     /tmp/ccfTa8yK.s:331    .text:0000000000000234 .L0 
         src/APP.cpp:91     .text:0000000000000234 .L0 
     /tmp/ccfTa8yK.s:337    .text:0000000000000238 .L0 
     /tmp/ccfTa8yK.s:339    .text:0000000000000238 .L0 
     /tmp/ccfTa8yK.s:344    .text:0000000000000240 .L0 
     /tmp/ccfTa8yK.s:345    .text:0000000000000240 .L0 
     /tmp/ccfTa8yK.s:346    .text:0000000000000240 .L0 
     /tmp/ccfTa8yK.s:347    .text:0000000000000240 .L0 
     /tmp/ccfTa8yK.s:351    .text:0000000000000250 .L0 
     /tmp/ccfTa8yK.s:352    .text:0000000000000250 .L0 
     /tmp/ccfTa8yK.s:356    .text:0000000000000260 .L0 
     /tmp/ccfTa8yK.s:357    .text:0000000000000260 .L0 
     /tmp/ccfTa8yK.s:361    .text:0000000000000270 .L0 
     /tmp/ccfTa8yK.s:362    .text:0000000000000270 .L0 
     /tmp/ccfTa8yK.s:366    .text:000000000000027c .L0 
     /tmp/ccfTa8yK.s:367    .text:000000000000027c .L0 
     /tmp/ccfTa8yK.s:371    .text:000000000000028c .L0 
     /tmp/ccfTa8yK.s:372    .text:000000000000028c .L0 
     /tmp/ccfTa8yK.s:375    .text:0000000000000294 .L0 
     /tmp/ccfTa8yK.s:376    .text:0000000000000294 .L0 
     /tmp/ccfTa8yK.s:380    .text:000000000000029c .L0 
     /tmp/ccfTa8yK.s:389    .text:000000000000029c .L0 
     /tmp/ccfTa8yK.s:391    .text:000000000000029c .L0 
     /tmp/ccfTa8yK.s:392    .text:00000000000002a0 .L0 
     /tmp/ccfTa8yK.s:397    .text:00000000000002b0 .L0 
     /tmp/ccfTa8yK.s:398    .text:00000000000002b0 .L0 
     /tmp/ccfTa8yK.s:399    .text:00000000000002b0 .L0 
     /tmp/ccfTa8yK.s:400    .text:00000000000002b0 .L0 
     /tmp/ccfTa8yK.s:402    .text:00000000000002b4 .L0 
     /tmp/ccfTa8yK.s:404    .text:00000000000002b4 .L0 
     /tmp/ccfTa8yK.s:410    .text:00000000000002bc .L0 
     /tmp/ccfTa8yK.s:415    .text:00000000000002c0 .L0 
     /tmp/ccfTa8yK.s:419    .text:00000000000002c4 .L0 
     /tmp/ccfTa8yK.s:422    .text:00000000000002cc .L0 
     /tmp/ccfTa8yK.s:432    .text:00000000000002e8 .L0 
     /tmp/ccfTa8yK.s:437    .text:00000000000002ec .L0 
     /tmp/ccfTa8yK.s:438    .text:00000000000002ec .L0 
     /tmp/ccfTa8yK.s:439    .text:00000000000002ec .L0 
     /tmp/ccfTa8yK.s:442    .text:00000000000002f4 .L0 
     /tmp/ccfTa8yK.s:451    .text:00000000000002fc .L0 
     /tmp/ccfTa8yK.s:452    .text:00000000000002fc .L0 
     /tmp/ccfTa8yK.s:457    .text:000000000000030c .L0 
     /tmp/ccfTa8yK.s:458    .text:000000000000030c .L0 
     /tmp/ccfTa8yK.s:462    .text:000000000000031c .L0 
     /tmp/ccfTa8yK.s:463    .text:000000000000031c .L0 
     /tmp/ccfTa8yK.s:467    .text:000000000000032c .L0 
     /tmp/ccfTa8yK.s:468    .text:000000000000032c .L0 
     /tmp/ccfTa8yK.s:472    .text:0000000000000338 .L0 
     /tmp/ccfTa8yK.s:473    .text:0000000000000338 .L0 
     /tmp/ccfTa8yK.s:477    .text:0000000000000348 .L0 
     /tmp/ccfTa8yK.s:478    .text:0000000000000348 .L0 
     /tmp/ccfTa8yK.s:481    .text:0000000000000350 .L0 
     /tmp/ccfTa8yK.s:482    .text:0000000000000350 .L0 
     /tmp/ccfTa8yK.s:491    .text:0000000000000358 .L0 
     /tmp/ccfTa8yK.s:492    .text:0000000000000358 .L0 
GAS LISTING /tmp/ccfTa8yK.s 			page 42


     /tmp/ccfTa8yK.s:497    .text:0000000000000368 .L0 
     /tmp/ccfTa8yK.s:498    .text:0000000000000368 .L0 
     /tmp/ccfTa8yK.s:502    .text:0000000000000378 .L0 
     /tmp/ccfTa8yK.s:503    .text:0000000000000378 .L0 
     /tmp/ccfTa8yK.s:507    .text:0000000000000388 .L0 
     /tmp/ccfTa8yK.s:508    .text:0000000000000388 .L0 
     /tmp/ccfTa8yK.s:512    .text:0000000000000394 .L0 
     /tmp/ccfTa8yK.s:513    .text:0000000000000394 .L0 
     /tmp/ccfTa8yK.s:517    .text:00000000000003a4 .L0 
     /tmp/ccfTa8yK.s:518    .text:00000000000003a4 .L0 
     /tmp/ccfTa8yK.s:521    .text:00000000000003ac .L0 
     /tmp/ccfTa8yK.s:522    .text:00000000000003ac .L0 
     /tmp/ccfTa8yK.s:529    .text:00000000000003b4 .L0 
     /tmp/ccfTa8yK.s:530    .text:00000000000003b4 .L0 
     /tmp/ccfTa8yK.s:535    .text:00000000000003bc .L0 
     /tmp/ccfTa8yK.s:536    .text:00000000000003bc .L0 
     /tmp/ccfTa8yK.s:537    .text:00000000000003bc .L0 
     /tmp/ccfTa8yK.s:538    .text:00000000000003bc .L0 
     /tmp/ccfTa8yK.s:542    .text:00000000000003cc .L0 
     /tmp/ccfTa8yK.s:543    .text:00000000000003cc .L0 
     /tmp/ccfTa8yK.s:547    .text:00000000000003dc .L0 
     /tmp/ccfTa8yK.s:548    .text:00000000000003dc .L0 
     /tmp/ccfTa8yK.s:552    .text:00000000000003ec .L0 
     /tmp/ccfTa8yK.s:553    .text:00000000000003ec .L0 
     /tmp/ccfTa8yK.s:557    .text:00000000000003f8 .L0 
     /tmp/ccfTa8yK.s:558    .text:00000000000003f8 .L0 
     /tmp/ccfTa8yK.s:562    .text:0000000000000408 .L0 
     /tmp/ccfTa8yK.s:563    .text:0000000000000408 .L0 
     /tmp/ccfTa8yK.s:566    .text:0000000000000410 .L0 
     /tmp/ccfTa8yK.s:567    .text:0000000000000410 .L0 
     /tmp/ccfTa8yK.s:571    .text:0000000000000418 .L0 
     /tmp/ccfTa8yK.s:594    .text:0000000000000418 _Z15testSystemCallsv
     /tmp/ccfTa8yK.s:597    .text:0000000000000418 .L0 
     /tmp/ccfTa8yK.s:598    .text:0000000000000418 .L0 
     /tmp/ccfTa8yK.s:599    .text:000000000000041c .L0 
     /tmp/ccfTa8yK.s:609    .text:0000000000000440 .L0 
     /tmp/ccfTa8yK.s:610    .text:0000000000000440 .L0 
     /tmp/ccfTa8yK.s:611    .text:0000000000000440 .L0 
     /tmp/ccfTa8yK.s:612    .text:0000000000000440 .L0 
     /tmp/ccfTa8yK.s:613    .text:0000000000000440 .L0 
     /tmp/ccfTa8yK.s:614    .text:0000000000000440 .L0 
     /tmp/ccfTa8yK.s:615    .text:0000000000000440 .L0 
     /tmp/ccfTa8yK.s:616    .text:0000000000000440 .L0 
     /tmp/ccfTa8yK.s:617    .text:0000000000000440 .L0 
     /tmp/ccfTa8yK.s:619    .text:0000000000000444 .L0 
     /tmp/ccfTa8yK.s:621    .text:0000000000000444 .L0 
     /tmp/ccfTa8yK.s:622    .text:0000000000000444 .L0 
     /tmp/ccfTa8yK.s:626    .text:0000000000000454 .L0 
     /tmp/ccfTa8yK.s:627    .text:0000000000000454 .L0 
     /tmp/ccfTa8yK.s:630    .text:000000000000045c .L0 
     /tmp/ccfTa8yK.s:631    .text:000000000000045c .L0 
     /tmp/ccfTa8yK.s:633    .text:000000000000045c .L0 
     /tmp/ccfTa8yK.s:634    .text:000000000000045c .L0 
     /tmp/ccfTa8yK.s:637    .text:0000000000000460 .L0 
     /tmp/ccfTa8yK.s:639    .text:0000000000000464 .L0 
     /tmp/ccfTa8yK.s:644    .text:0000000000000468 .L0 
     /tmp/ccfTa8yK.s:648    .text:0000000000000470 .L0 
GAS LISTING /tmp/ccfTa8yK.s 			page 43


     /tmp/ccfTa8yK.s:649    .text:0000000000000470 .L0 
     /tmp/ccfTa8yK.s:652    .text:0000000000000474 .L0 
     /tmp/ccfTa8yK.s:653    .text:0000000000000474 .L0 
     /tmp/ccfTa8yK.s:656    .text:0000000000000478 .L0 
     /tmp/ccfTa8yK.s:657    .text:0000000000000478 .L0 
     /tmp/ccfTa8yK.s:663    .text:0000000000000488 .L0 
     /tmp/ccfTa8yK.s:664    .text:0000000000000488 .L0 
     /tmp/ccfTa8yK.s:671    .text:0000000000000498 .L0 
     /tmp/ccfTa8yK.s:676    .text:000000000000049c .L0 
     /tmp/ccfTa8yK.s:677    .text:000000000000049c .L0 
     /tmp/ccfTa8yK.s:683    .text:00000000000004a0 .L0 
     /tmp/ccfTa8yK.s:684    .text:00000000000004a0 .L0 
     /tmp/ccfTa8yK.s:688    .text:00000000000004a4 .L0 
     /tmp/ccfTa8yK.s:691    .text:00000000000004a8 .L0 
     /tmp/ccfTa8yK.s:695    .text:00000000000004ac .L0 
     /tmp/ccfTa8yK.s:700    .text:00000000000004b0 .L0 
     /tmp/ccfTa8yK.s:701    .text:00000000000004b0 .L0 
     /tmp/ccfTa8yK.s:706    .text:00000000000004c0 .L0 
     /tmp/ccfTa8yK.s:707    .text:00000000000004c0 .L0 
     /tmp/ccfTa8yK.s:711    .text:00000000000004cc .L0 
     /tmp/ccfTa8yK.s:712    .text:00000000000004cc .L0 
     /tmp/ccfTa8yK.s:716    .text:00000000000004dc .L0 
     /tmp/ccfTa8yK.s:717    .text:00000000000004dc .L0 
     /tmp/ccfTa8yK.s:721    .text:00000000000004e8 .L0 
     /tmp/ccfTa8yK.s:722    .text:00000000000004e8 .L0 
     /tmp/ccfTa8yK.s:726    .text:00000000000004f8 .L0 
     /tmp/ccfTa8yK.s:727    .text:00000000000004f8 .L0 
     /tmp/ccfTa8yK.s:731    .text:0000000000000504 .L0 
     /tmp/ccfTa8yK.s:732    .text:0000000000000504 .L0 
     /tmp/ccfTa8yK.s:737    .text:000000000000050c .L0 
     /tmp/ccfTa8yK.s:738    .text:000000000000050c .L0 
     /tmp/ccfTa8yK.s:739    .text:000000000000050c .L0 
     /tmp/ccfTa8yK.s:740    .text:000000000000050c .L0 
     /tmp/ccfTa8yK.s:744    .text:000000000000051c .L0 
     /tmp/ccfTa8yK.s:745    .text:000000000000051c .L0 
     /tmp/ccfTa8yK.s:749    .text:000000000000052c .L0 
     /tmp/ccfTa8yK.s:750    .text:000000000000052c .L0 
     /tmp/ccfTa8yK.s:754    .text:000000000000053c .L0 
     /tmp/ccfTa8yK.s:755    .text:000000000000053c .L0 
     /tmp/ccfTa8yK.s:759    .text:0000000000000548 .L0 
     /tmp/ccfTa8yK.s:760    .text:0000000000000548 .L0 
     /tmp/ccfTa8yK.s:764    .text:0000000000000558 .L0 
     /tmp/ccfTa8yK.s:765    .text:0000000000000558 .L0 
     /tmp/ccfTa8yK.s:768    .text:0000000000000560 .L0 
     /tmp/ccfTa8yK.s:769    .text:0000000000000560 .L0 
     /tmp/ccfTa8yK.s:777    .text:0000000000000568 .L0 
     /tmp/ccfTa8yK.s:778    .text:0000000000000568 .L0 
     /tmp/ccfTa8yK.s:783    .text:0000000000000578 .L0 
     /tmp/ccfTa8yK.s:784    .text:0000000000000578 .L0 
     /tmp/ccfTa8yK.s:788    .text:0000000000000588 .L0 
     /tmp/ccfTa8yK.s:789    .text:0000000000000588 .L0 
     /tmp/ccfTa8yK.s:793    .text:0000000000000598 .L0 
     /tmp/ccfTa8yK.s:794    .text:0000000000000598 .L0 
     /tmp/ccfTa8yK.s:798    .text:00000000000005a4 .L0 
     /tmp/ccfTa8yK.s:799    .text:00000000000005a4 .L0 
     /tmp/ccfTa8yK.s:803    .text:00000000000005b4 .L0 
     /tmp/ccfTa8yK.s:804    .text:00000000000005b4 .L0 
GAS LISTING /tmp/ccfTa8yK.s 			page 44


     /tmp/ccfTa8yK.s:807    .text:00000000000005bc .L0 
     /tmp/ccfTa8yK.s:808    .text:00000000000005bc .L0 
     /tmp/ccfTa8yK.s:816    .text:00000000000005c4 .L0 
     /tmp/ccfTa8yK.s:826    .text:00000000000005e0 .L0 
     /tmp/ccfTa8yK.s:831    .text:00000000000005e4 .L0 
     /tmp/ccfTa8yK.s:832    .text:00000000000005e4 .L0 
     /tmp/ccfTa8yK.s:833    .text:00000000000005e4 .L0 
     /tmp/ccfTa8yK.s:837    .text:00000000000005f4 .L0 
     /tmp/ccfTa8yK.s:838    .text:00000000000005f4 .L0 
     /tmp/ccfTa8yK.s:841    .text:00000000000005fc .L0 
     /tmp/ccfTa8yK.s:842    .text:0000000000000600 .L0 
     /tmp/ccfTa8yK.s:843    .text:0000000000000600 .L0 
     /tmp/ccfTa8yK.s:845    .text:0000000000000604 .L0 
     /tmp/ccfTa8yK.s:846    .text:0000000000000604 .L0 
     /tmp/ccfTa8yK.s:848    .text:0000000000000608 .L0 
     /tmp/ccfTa8yK.s:851    .text:000000000000060c .L0 
     /tmp/ccfTa8yK.s:853    .text:0000000000000610 .L0 
     /tmp/ccfTa8yK.s:855    .text:0000000000000614 .L0 
     /tmp/ccfTa8yK.s:858    .text:0000000000000618 .L0 
     /tmp/ccfTa8yK.s:861    .text:000000000000061c .L0 
     /tmp/ccfTa8yK.s:863    .text:0000000000000620 .L0 
     /tmp/ccfTa8yK.s:865    .text:0000000000000624 .L0 
     /tmp/ccfTa8yK.s:869    .text:0000000000000628 .L0 
     /tmp/ccfTa8yK.s:873    .text:0000000000000628 .L0 
     /tmp/ccfTa8yK.s:874    .text:0000000000000628 .L0 
     /tmp/ccfTa8yK.s:879    .text:0000000000000638 .L0 
     /tmp/ccfTa8yK.s:880    .text:0000000000000638 .L0 
     /tmp/ccfTa8yK.s:884    .text:0000000000000648 .L0 
     /tmp/ccfTa8yK.s:885    .text:0000000000000648 .L0 
     /tmp/ccfTa8yK.s:889    .text:0000000000000658 .L0 
     /tmp/ccfTa8yK.s:890    .text:0000000000000658 .L0 
     /tmp/ccfTa8yK.s:894    .text:0000000000000664 .L0 
     /tmp/ccfTa8yK.s:895    .text:0000000000000664 .L0 
     /tmp/ccfTa8yK.s:899    .text:0000000000000674 .L0 
     /tmp/ccfTa8yK.s:900    .text:0000000000000674 .L0 
     /tmp/ccfTa8yK.s:903    .text:000000000000067c .L0 
     /tmp/ccfTa8yK.s:904    .text:000000000000067c .L0 
     /tmp/ccfTa8yK.s:908    .text:0000000000000684 .L0 
     /tmp/ccfTa8yK.s:922    .text:0000000000000684 _Z19testMemoryAllocatorv
     /tmp/ccfTa8yK.s:925    .text:0000000000000684 .L0 
     /tmp/ccfTa8yK.s:926    .text:0000000000000684 .L0 
     /tmp/ccfTa8yK.s:927    .text:0000000000000688 .L0 
     /tmp/ccfTa8yK.s:933    .text:000000000000069c .L0 
     /tmp/ccfTa8yK.s:934    .text:000000000000069c .L0 
     /tmp/ccfTa8yK.s:935    .text:000000000000069c .L0 
     /tmp/ccfTa8yK.s:936    .text:000000000000069c .L0 
     /tmp/ccfTa8yK.s:937    .text:000000000000069c .L0 
     /tmp/ccfTa8yK.s:939    .text:00000000000006a0 .L0 
     /tmp/ccfTa8yK.s:941    .text:00000000000006a0 .L0 
     /tmp/ccfTa8yK.s:942    .text:00000000000006a0 .L0 
     /tmp/ccfTa8yK.s:946    .text:00000000000006b0 .L0 
     /tmp/ccfTa8yK.s:947    .text:00000000000006b0 .L0 
     /tmp/ccfTa8yK.s:950    .text:00000000000006b8 .L0 
     /tmp/ccfTa8yK.s:951    .text:00000000000006b8 .L0 
     /tmp/ccfTa8yK.s:952    .text:00000000000006b8 .L0 
     /tmp/ccfTa8yK.s:953    .text:00000000000006b8 .L0 
     /tmp/ccfTa8yK.s:961    .text:00000000000006cc .L0 
GAS LISTING /tmp/ccfTa8yK.s 			page 45


     /tmp/ccfTa8yK.s:962    .text:00000000000006cc .L0 
     /tmp/ccfTa8yK.s:966    .text:00000000000006d0 .L0 
     /tmp/ccfTa8yK.s:969    .text:00000000000006d8 .L0 
     /tmp/ccfTa8yK.s:970    .text:00000000000006d8 .L0 
     /tmp/ccfTa8yK.s:973    .text:00000000000006e0 .L0 
     /tmp/ccfTa8yK.s:977    .text:00000000000006ec .L0 
     /tmp/ccfTa8yK.s:979    .text:00000000000006f0 .L0 
     /tmp/ccfTa8yK.s:980    .text:00000000000006f0 .L0 
     /tmp/ccfTa8yK.s:982    .text:00000000000006f4 .L0 
     /tmp/ccfTa8yK.s:990    .text:00000000000006fc .L0 
     /tmp/ccfTa8yK.s:993    .text:0000000000000700 .L0 
     /tmp/ccfTa8yK.s:998    .text:0000000000000704 .L0 
     /tmp/ccfTa8yK.s:1001   .text:000000000000070c .L0 
     /tmp/ccfTa8yK.s:1002   .text:000000000000070c .L0 
     /tmp/ccfTa8yK.s:1006   .text:0000000000000718 .L0 
     /tmp/ccfTa8yK.s:1008   .text:000000000000071c .L0 
     /tmp/ccfTa8yK.s:1011   .text:0000000000000720 .L0 
     /tmp/ccfTa8yK.s:1018   .text:0000000000000728 .L0 
     /tmp/ccfTa8yK.s:1025   .text:0000000000000730 .L0 
     /tmp/ccfTa8yK.s:1030   .text:0000000000000734 .L0 
     /tmp/ccfTa8yK.s:1034   .text:0000000000000738 .L0 
     /tmp/ccfTa8yK.s:1037   .text:0000000000000740 .L0 
     /tmp/ccfTa8yK.s:1038   .text:0000000000000740 .L0 
     /tmp/ccfTa8yK.s:1041   .text:0000000000000748 .L0 
     /tmp/ccfTa8yK.s:1047   .text:0000000000000754 .L0 
     /tmp/ccfTa8yK.s:1048   .text:0000000000000754 .L0 
     /tmp/ccfTa8yK.s:1053   .text:0000000000000758 .L0 
     /tmp/ccfTa8yK.s:1054   .text:0000000000000758 .L0 
     /tmp/ccfTa8yK.s:1063   .text:0000000000000760 .L0 
     /tmp/ccfTa8yK.s:1064   .text:0000000000000760 .L0 
     /tmp/ccfTa8yK.s:1068   .text:0000000000000770 .L0 
     /tmp/ccfTa8yK.s:1069   .text:0000000000000770 .L0 
     /tmp/ccfTa8yK.s:1073   .text:0000000000000780 .L0 
     /tmp/ccfTa8yK.s:1074   .text:0000000000000780 .L0 
     /tmp/ccfTa8yK.s:1078   .text:0000000000000790 .L0 
     /tmp/ccfTa8yK.s:1079   .text:0000000000000790 .L0 
     /tmp/ccfTa8yK.s:1083   .text:000000000000079c .L0 
     /tmp/ccfTa8yK.s:1084   .text:000000000000079c .L0 
     /tmp/ccfTa8yK.s:1088   .text:00000000000007ac .L0 
     /tmp/ccfTa8yK.s:1089   .text:00000000000007ac .L0 
     /tmp/ccfTa8yK.s:1092   .text:00000000000007b4 .L0 
     /tmp/ccfTa8yK.s:1093   .text:00000000000007b4 .L0 
     /tmp/ccfTa8yK.s:1102   .text:00000000000007bc .L0 
     /tmp/ccfTa8yK.s:1103   .text:00000000000007bc .L0 
     /tmp/ccfTa8yK.s:1108   .text:00000000000007cc .L0 
     /tmp/ccfTa8yK.s:1109   .text:00000000000007cc .L0 
     /tmp/ccfTa8yK.s:1113   .text:00000000000007dc .L0 
     /tmp/ccfTa8yK.s:1114   .text:00000000000007dc .L0 
     /tmp/ccfTa8yK.s:1118   .text:00000000000007ec .L0 
     /tmp/ccfTa8yK.s:1119   .text:00000000000007ec .L0 
     /tmp/ccfTa8yK.s:1123   .text:00000000000007f8 .L0 
     /tmp/ccfTa8yK.s:1124   .text:00000000000007f8 .L0 
     /tmp/ccfTa8yK.s:1128   .text:0000000000000808 .L0 
     /tmp/ccfTa8yK.s:1129   .text:0000000000000808 .L0 
     /tmp/ccfTa8yK.s:1132   .text:0000000000000810 .L0 
     /tmp/ccfTa8yK.s:1133   .text:0000000000000810 .L0 
     /tmp/ccfTa8yK.s:1140   .text:0000000000000818 .L0 
GAS LISTING /tmp/ccfTa8yK.s 			page 46


     /tmp/ccfTa8yK.s:1141   .text:0000000000000818 .L0 
     /tmp/ccfTa8yK.s:1147   .text:0000000000000824 .L0 
     /tmp/ccfTa8yK.s:1148   .text:0000000000000824 .L0 
     /tmp/ccfTa8yK.s:1153   .text:0000000000000828 .L0 
     /tmp/ccfTa8yK.s:1154   .text:0000000000000828 .L0 
     /tmp/ccfTa8yK.s:1164   .text:0000000000000844 .L0 
     /tmp/ccfTa8yK.s:1169   .text:0000000000000848 .L0 
     /tmp/ccfTa8yK.s:1170   .text:0000000000000848 .L0 
     /tmp/ccfTa8yK.s:1171   .text:0000000000000848 .L0 
     /tmp/ccfTa8yK.s:1175   .text:0000000000000858 .L0 
     /tmp/ccfTa8yK.s:1176   .text:0000000000000858 .L0 
     /tmp/ccfTa8yK.s:1179   .text:0000000000000860 .L0 
     /tmp/ccfTa8yK.s:1180   .text:0000000000000864 .L0 
     /tmp/ccfTa8yK.s:1181   .text:0000000000000864 .L0 
     /tmp/ccfTa8yK.s:1183   .text:0000000000000868 .L0 
     /tmp/ccfTa8yK.s:1184   .text:0000000000000868 .L0 
     /tmp/ccfTa8yK.s:1186   .text:000000000000086c .L0 
     /tmp/ccfTa8yK.s:1189   .text:0000000000000870 .L0 
     /tmp/ccfTa8yK.s:1191   .text:0000000000000874 .L0 
     /tmp/ccfTa8yK.s:1194   .text:0000000000000878 .L0 
     /tmp/ccfTa8yK.s:1198   .text:000000000000087c .L0 
     /tmp/ccfTa8yK.s:1202   .text:000000000000087c .L0 
     /tmp/ccfTa8yK.s:1203   .text:000000000000087c .L0 
     /tmp/ccfTa8yK.s:1208   .text:000000000000088c .L0 
     /tmp/ccfTa8yK.s:1209   .text:000000000000088c .L0 
     /tmp/ccfTa8yK.s:1213   .text:000000000000089c .L0 
     /tmp/ccfTa8yK.s:1214   .text:000000000000089c .L0 
     /tmp/ccfTa8yK.s:1218   .text:00000000000008ac .L0 
     /tmp/ccfTa8yK.s:1219   .text:00000000000008ac .L0 
     /tmp/ccfTa8yK.s:1223   .text:00000000000008b8 .L0 
     /tmp/ccfTa8yK.s:1224   .text:00000000000008b8 .L0 
     /tmp/ccfTa8yK.s:1228   .text:00000000000008c8 .L0 
     /tmp/ccfTa8yK.s:1229   .text:00000000000008c8 .L0 
     /tmp/ccfTa8yK.s:1232   .text:00000000000008d0 .L0 
     /tmp/ccfTa8yK.s:1233   .text:00000000000008d0 .L0 
     /tmp/ccfTa8yK.s:1241   .text:00000000000008d8 .L0 
     /tmp/ccfTa8yK.s:1242   .text:00000000000008d8 .L0 
     /tmp/ccfTa8yK.s:1247   .text:00000000000008e8 .L0 
     /tmp/ccfTa8yK.s:1248   .text:00000000000008e8 .L0 
     /tmp/ccfTa8yK.s:1252   .text:00000000000008f8 .L0 
     /tmp/ccfTa8yK.s:1253   .text:00000000000008f8 .L0 
     /tmp/ccfTa8yK.s:1257   .text:0000000000000908 .L0 
     /tmp/ccfTa8yK.s:1258   .text:0000000000000908 .L0 
     /tmp/ccfTa8yK.s:1262   .text:0000000000000914 .L0 
     /tmp/ccfTa8yK.s:1263   .text:0000000000000914 .L0 
     /tmp/ccfTa8yK.s:1267   .text:0000000000000924 .L0 
     /tmp/ccfTa8yK.s:1268   .text:0000000000000924 .L0 
     /tmp/ccfTa8yK.s:1271   .text:000000000000092c .L0 
     /tmp/ccfTa8yK.s:1272   .text:000000000000092c .L0 
     /tmp/ccfTa8yK.s:1276   .text:0000000000000934 .L0 
     /tmp/ccfTa8yK.s:1287   .text:0000000000000934 _Z10myUserMainv
     /tmp/ccfTa8yK.s:1290   .text:0000000000000934 .L0 
     /tmp/ccfTa8yK.s:1291   .text:0000000000000934 .L0 
     /tmp/ccfTa8yK.s:1292   .text:0000000000000938 .L0 
     /tmp/ccfTa8yK.s:1295   .text:0000000000000940 .L0 
     /tmp/ccfTa8yK.s:1296   .text:0000000000000940 .L0 
     /tmp/ccfTa8yK.s:1298   .text:0000000000000944 .L0 
GAS LISTING /tmp/ccfTa8yK.s 			page 47


     /tmp/ccfTa8yK.s:1300   .text:0000000000000944 .L0 
         src/APP.cpp:15     .text:0000000000000944 .L0 
     /tmp/ccfTa8yK.s:1307   .text:0000000000000948 .L0 
     /tmp/ccfTa8yK.s:1317   .text:0000000000000964 .L0 
     /tmp/ccfTa8yK.s:1322   .text:0000000000000968 .L0 
     /tmp/ccfTa8yK.s:1326   .text:000000000000096c .L0 
     /tmp/ccfTa8yK.s:1330   .text:0000000000000978 .L0 
         src/APP.cpp:23     .text:0000000000000978 .L0 
     /tmp/ccfTa8yK.s:1337   .text:000000000000097c .L0 
     /tmp/ccfTa8yK.s:1346   .text:0000000000000984 .L0 
     /tmp/ccfTa8yK.s:1347   .text:0000000000000984 .L0 
     /tmp/ccfTa8yK.s:1352   .text:0000000000000994 .L0 
     /tmp/ccfTa8yK.s:1353   .text:0000000000000994 .L0 
     /tmp/ccfTa8yK.s:1357   .text:00000000000009a4 .L0 
     /tmp/ccfTa8yK.s:1358   .text:00000000000009a4 .L0 
     /tmp/ccfTa8yK.s:1362   .text:00000000000009b4 .L0 
     /tmp/ccfTa8yK.s:1363   .text:00000000000009b4 .L0 
     /tmp/ccfTa8yK.s:1367   .text:00000000000009c0 .L0 
     /tmp/ccfTa8yK.s:1368   .text:00000000000009c0 .L0 
     /tmp/ccfTa8yK.s:1372   .text:00000000000009d0 .L0 
     /tmp/ccfTa8yK.s:1373   .text:00000000000009d0 .L0 
     /tmp/ccfTa8yK.s:1376   .text:00000000000009d8 .L0 
     /tmp/ccfTa8yK.s:1377   .text:00000000000009d8 .L0 
     /tmp/ccfTa8yK.s:1383   .text:00000000000009e0 .L0 
     /tmp/ccfTa8yK.s:1384   .text:00000000000009e0 .L0 
     /tmp/ccfTa8yK.s:1387   .text:00000000000009e8 .L0 
     /tmp/ccfTa8yK.s:1388   .text:00000000000009e8 .L0 
     /tmp/ccfTa8yK.s:1391   .text:00000000000009f0 .L0 
     /tmp/ccfTa8yK.s:1392   .text:00000000000009f0 .L0 
     /tmp/ccfTa8yK.s:1395   .text:00000000000009f8 .L0 
     /tmp/ccfTa8yK.s:1396   .text:00000000000009f8 .L0 
     /tmp/ccfTa8yK.s:1400   .text:0000000000000a08 .L0 
     /tmp/ccfTa8yK.s:1401   .text:0000000000000a08 .L0 
     /tmp/ccfTa8yK.s:1404   .text:0000000000000a10 .L0 
     /tmp/ccfTa8yK.s:1405   .text:0000000000000a14 .L0 
     /tmp/ccfTa8yK.s:1407   .text:0000000000000a18 .L0 
     /tmp/ccfTa8yK.s:1408   .text:0000000000000a18 .L0 
     /tmp/ccfTa8yK.s:1410   .text:0000000000000a1c .L0 
     /tmp/ccfTa8yK.s:1412   .text:0000000000000a20 .L0 
     /tmp/ccfTa8yK.s:1419   .text:0000000000000a20 .L0 
     /tmp/ccfTa8yK.s:8      .rodata.str1.8:0000000000000000 .LC0
     /tmp/ccfTa8yK.s:32     .text:0000000000000010 .L0 
     /tmp/ccfTa8yK.s:54     .text:000000000000003c .L0 
     /tmp/ccfTa8yK.s:61     .text:0000000000000054 .L0 
     /tmp/ccfTa8yK.s:11     .rodata.str1.8:0000000000000020 .LC1
     /tmp/ccfTa8yK.s:88     .text:000000000000008c .L0 
     /tmp/ccfTa8yK.s:172    .rodata.str1.8:0000000000000048 .LC2
     /tmp/ccfTa8yK.s:254    .text:000000000000017c .L0 
     /tmp/ccfTa8yK.s:175    .rodata.str1.8:0000000000000070 .LC3
     /tmp/ccfTa8yK.s:260    .text:000000000000018c .L0 
     /tmp/ccfTa8yK.s:178    .rodata.str1.8:0000000000000080 .LC4
     /tmp/ccfTa8yK.s:265    .text:000000000000019c .L0 
     /tmp/ccfTa8yK.s:181    .rodata.str1.8:0000000000000090 .LC5
     /tmp/ccfTa8yK.s:275    .text:00000000000001b8 .L0 
     /tmp/ccfTa8yK.s:294    .text:00000000000001d8 .L0 
     /tmp/ccfTa8yK.s:300    .text:00000000000001e8 .L0 
     /tmp/ccfTa8yK.s:305    .text:00000000000001f8 .L0 
GAS LISTING /tmp/ccfTa8yK.s 			page 48


     /tmp/ccfTa8yK.s:315    .text:0000000000000214 .L0 
     /tmp/ccfTa8yK.s:347    .text:0000000000000240 .L0 
     /tmp/ccfTa8yK.s:352    .text:0000000000000250 .L0 
     /tmp/ccfTa8yK.s:357    .text:0000000000000260 .L0 
     /tmp/ccfTa8yK.s:367    .text:000000000000027c .L0 
     /tmp/ccfTa8yK.s:452    .text:00000000000002fc .L0 
     /tmp/ccfTa8yK.s:458    .text:000000000000030c .L0 
     /tmp/ccfTa8yK.s:463    .text:000000000000031c .L0 
     /tmp/ccfTa8yK.s:473    .text:0000000000000338 .L0 
     /tmp/ccfTa8yK.s:492    .text:0000000000000358 .L0 
     /tmp/ccfTa8yK.s:498    .text:0000000000000368 .L0 
     /tmp/ccfTa8yK.s:503    .text:0000000000000378 .L0 
     /tmp/ccfTa8yK.s:513    .text:0000000000000394 .L0 
     /tmp/ccfTa8yK.s:538    .text:00000000000003bc .L0 
     /tmp/ccfTa8yK.s:543    .text:00000000000003cc .L0 
     /tmp/ccfTa8yK.s:548    .text:00000000000003dc .L0 
     /tmp/ccfTa8yK.s:558    .text:00000000000003f8 .L0 
     /tmp/ccfTa8yK.s:576    .rodata.str1.8:00000000000000b0 .LC6
     /tmp/ccfTa8yK.s:622    .text:0000000000000444 .L0 
     /tmp/ccfTa8yK.s:579    .rodata.str1.8:00000000000000d0 .LC7
     /tmp/ccfTa8yK.s:701    .text:00000000000004b0 .L0 
     /tmp/ccfTa8yK.s:582    .rodata.str1.8:00000000000000e8 .LC8
     /tmp/ccfTa8yK.s:712    .text:00000000000004cc .L0 
     /tmp/ccfTa8yK.s:585    .rodata.str1.8:00000000000000f8 .LC9
     /tmp/ccfTa8yK.s:722    .text:00000000000004e8 .L0 
     /tmp/ccfTa8yK.s:740    .text:000000000000050c .L0 
     /tmp/ccfTa8yK.s:745    .text:000000000000051c .L0 
     /tmp/ccfTa8yK.s:750    .text:000000000000052c .L0 
     /tmp/ccfTa8yK.s:760    .text:0000000000000548 .L0 
     /tmp/ccfTa8yK.s:778    .text:0000000000000568 .L0 
     /tmp/ccfTa8yK.s:784    .text:0000000000000578 .L0 
     /tmp/ccfTa8yK.s:789    .text:0000000000000588 .L0 
     /tmp/ccfTa8yK.s:799    .text:00000000000005a4 .L0 
     /tmp/ccfTa8yK.s:820    .text:00000000000005d4 .L0 
     /tmp/ccfTa8yK.s:588    .rodata.str1.8:0000000000000108 .LC10
     /tmp/ccfTa8yK.s:833    .text:00000000000005e4 .L0 
     /tmp/ccfTa8yK.s:874    .text:0000000000000628 .L0 
     /tmp/ccfTa8yK.s:880    .text:0000000000000638 .L0 
     /tmp/ccfTa8yK.s:885    .text:0000000000000648 .L0 
     /tmp/ccfTa8yK.s:895    .text:0000000000000664 .L0 
     /tmp/ccfTa8yK.s:913    .rodata.str1.8:0000000000000130 .LC11
     /tmp/ccfTa8yK.s:942    .text:00000000000006a0 .L0 
     /tmp/ccfTa8yK.s:1064   .text:0000000000000760 .L0 
     /tmp/ccfTa8yK.s:1069   .text:0000000000000770 .L0 
     /tmp/ccfTa8yK.s:1074   .text:0000000000000780 .L0 
     /tmp/ccfTa8yK.s:1084   .text:000000000000079c .L0 
     /tmp/ccfTa8yK.s:1103   .text:00000000000007bc .L0 
     /tmp/ccfTa8yK.s:1109   .text:00000000000007cc .L0 
     /tmp/ccfTa8yK.s:1114   .text:00000000000007dc .L0 
     /tmp/ccfTa8yK.s:1124   .text:00000000000007f8 .L0 
     /tmp/ccfTa8yK.s:1158   .text:0000000000000838 .L0 
     /tmp/ccfTa8yK.s:916    .rodata.str1.8:0000000000000158 .LC12
     /tmp/ccfTa8yK.s:1171   .text:0000000000000848 .L0 
     /tmp/ccfTa8yK.s:1203   .text:000000000000087c .L0 
     /tmp/ccfTa8yK.s:1209   .text:000000000000088c .L0 
     /tmp/ccfTa8yK.s:1214   .text:000000000000089c .L0 
     /tmp/ccfTa8yK.s:1224   .text:00000000000008b8 .L0 
GAS LISTING /tmp/ccfTa8yK.s 			page 49


     /tmp/ccfTa8yK.s:1242   .text:00000000000008d8 .L0 
     /tmp/ccfTa8yK.s:1248   .text:00000000000008e8 .L0 
     /tmp/ccfTa8yK.s:1253   .text:00000000000008f8 .L0 
     /tmp/ccfTa8yK.s:1263   .text:0000000000000914 .L0 
     /tmp/ccfTa8yK.s:1311   .text:0000000000000958 .L0 
     /tmp/ccfTa8yK.s:1347   .text:0000000000000984 .L0 
     /tmp/ccfTa8yK.s:1353   .text:0000000000000994 .L0 
     /tmp/ccfTa8yK.s:1358   .text:00000000000009a4 .L0 
     /tmp/ccfTa8yK.s:1368   .text:00000000000009c0 .L0 
     /tmp/ccfTa8yK.s:1281   .rodata.str1.8:0000000000000180 .LC13
     /tmp/ccfTa8yK.s:1396   .text:00000000000009f8 .L0 
     /tmp/ccfTa8yK.s:134    .text:00000000000000dc .L4
     /tmp/ccfTa8yK.s:151    .text:00000000000000f8 .L6
     /tmp/ccfTa8yK.s:248    .text:000000000000017c .L13
     /tmp/ccfTa8yK.s:326    .text:0000000000000234 .L9
     /tmp/ccfTa8yK.s:286    .text:00000000000001d8 .L14
     /tmp/ccfTa8yK.s:219    .text:0000000000000144 .L8
     /tmp/ccfTa8yK.s:446    .text:00000000000002fc .L21
     /tmp/ccfTa8yK.s:524    .text:00000000000003b4 .L17
     /tmp/ccfTa8yK.s:484    .text:0000000000000358 .L22
     /tmp/ccfTa8yK.s:417    .text:00000000000002c4 .L16
     /tmp/ccfTa8yK.s:810    .text:00000000000005c4 .L24
     /tmp/ccfTa8yK.s:697    .text:00000000000004b0 .L30
     /tmp/ccfTa8yK.s:771    .text:0000000000000568 .L31
     /tmp/ccfTa8yK.s:641    .text:0000000000000468 .L27
     /tmp/ccfTa8yK.s:868    .text:0000000000000628 .L32
     /tmp/ccfTa8yK.s:986    .text:00000000000006fc .L42
     /tmp/ccfTa8yK.s:964    .text:00000000000006d0 .L35
     /tmp/ccfTa8yK.s:1015   .text:0000000000000728 .L36
     /tmp/ccfTa8yK.s:994    .text:0000000000000704 .L34
     /tmp/ccfTa8yK.s:1058   .text:0000000000000760 .L45
     /tmp/ccfTa8yK.s:1135   .text:0000000000000818 .L38
     /tmp/ccfTa8yK.s:1095   .text:00000000000007bc .L46
     /tmp/ccfTa8yK.s:1032   .text:0000000000000738 .L37
     /tmp/ccfTa8yK.s:1197   .text:000000000000087c .L47
     /tmp/ccfTa8yK.s:1235   .text:00000000000008d8 .L48
     /tmp/ccfTa8yK.s:1341   .text:0000000000000984 .L54
     /tmp/ccfTa8yK.s:1379   .text:00000000000009e0 .L51
     /tmp/ccfTa8yK.s:1324   .text:000000000000096c .L50
     /tmp/ccfTa8yK.s:3664   .debug_abbrev:0000000000000000 .Ldebug_abbrev0
     /tmp/ccfTa8yK.s:5604   .debug_str:0000000000000421 .LASF82
     /tmp/ccfTa8yK.s:5564   .debug_str:0000000000000312 .LASF83
     /tmp/ccfTa8yK.s:5574   .debug_str:0000000000000348 .LASF84
     /tmp/ccfTa8yK.s:5      .text:0000000000000000 .Ltext0
     /tmp/ccfTa8yK.s:1415   .text:0000000000000a20 .Letext0
     /tmp/ccfTa8yK.s:5448   .debug_line:0000000000000000 .Ldebug_line0
     /tmp/ccfTa8yK.s:5550   .debug_str:0000000000000296 .LASF0
     /tmp/ccfTa8yK.s:5558   .debug_str:00000000000002db .LASF1
     /tmp/ccfTa8yK.s:5540   .debug_str:000000000000025c .LASF2
     /tmp/ccfTa8yK.s:5516   .debug_str:00000000000001c4 .LASF4
     /tmp/ccfTa8yK.s:5590   .debug_str:00000000000003c2 .LASF3
     /tmp/ccfTa8yK.s:5462   .debug_str:0000000000000068 .LASF5
     /tmp/ccfTa8yK.s:5562   .debug_str:00000000000002ff .LASF6
     /tmp/ccfTa8yK.s:5548   .debug_str:0000000000000283 .LASF7
     /tmp/ccfTa8yK.s:5610   .debug_str:0000000000000505 .LASF8
     /tmp/ccfTa8yK.s:5502   .debug_str:0000000000000178 .LASF9
     /tmp/ccfTa8yK.s:5572   .debug_str:0000000000000339 .LASF10
GAS LISTING /tmp/ccfTa8yK.s 			page 50


     /tmp/ccfTa8yK.s:5606   .debug_str:00000000000004e5 .LASF11
     /tmp/ccfTa8yK.s:5464   .debug_str:000000000000006f .LASF12
     /tmp/ccfTa8yK.s:5458   .debug_str:000000000000004e .LASF13
     /tmp/ccfTa8yK.s:5470   .debug_str:00000000000000a7 .LASF14
     /tmp/ccfTa8yK.s:5586   .debug_str:000000000000039c .LASF15
     /tmp/ccfTa8yK.s:5480   .debug_str:00000000000000e6 .LASF16
     /tmp/ccfTa8yK.s:5450   .debug_str:0000000000000000 .LASF17
     /tmp/ccfTa8yK.s:5542   .debug_str:000000000000026a .LASF34
     /tmp/ccfTa8yK.s:5500   .debug_str:0000000000000165 .LASF85
     /tmp/ccfTa8yK.s:5598   .debug_str:0000000000000407 .LASF21
     /tmp/ccfTa8yK.s:5506   .debug_str:000000000000018b .LASF18
     /tmp/ccfTa8yK.s:5600   .debug_str:0000000000000410 .LASF19
     /tmp/ccfTa8yK.s:5618   .debug_str:0000000000000536 .LASF20
     /tmp/ccfTa8yK.s:5454   .debug_str:0000000000000010 .LASF23
     /tmp/ccfTa8yK.s:5546   .debug_str:0000000000000279 .LASF25
     /tmp/ccfTa8yK.s:5514   .debug_str:00000000000001ba .LASF22
     /tmp/ccfTa8yK.s:5536   .debug_str:0000000000000229 .LASF24
     /tmp/ccfTa8yK.s:5492   .debug_str:0000000000000137 .LASF26
     /tmp/ccfTa8yK.s:5616   .debug_str:000000000000052d .LASF27
     /tmp/ccfTa8yK.s:5468   .debug_str:000000000000008f .LASF29
     /tmp/ccfTa8yK.s:5568   .debug_str:0000000000000323 .LASF28
     /tmp/ccfTa8yK.s:5508   .debug_str:0000000000000191 .LASF30
     /tmp/ccfTa8yK.s:5608   .debug_str:00000000000004f4 .LASF31
     /tmp/ccfTa8yK.s:5456   .debug_str:000000000000002d .LASF32
     /tmp/ccfTa8yK.s:5622   .debug_str:000000000000054b .LASF86
     /tmp/ccfTa8yK.s:5624   .debug_str:000000000000055e .LASF87
     /tmp/ccfTa8yK.s:5532   .debug_str:0000000000000210 .LASF33
     /tmp/ccfTa8yK.s:5556   .debug_str:00000000000002ca .LASF35
     /tmp/ccfTa8yK.s:5566   .debug_str:000000000000031e .LASF36
     /tmp/ccfTa8yK.s:5494   .debug_str:0000000000000142 .LASF37
     /tmp/ccfTa8yK.s:5490   .debug_str:0000000000000123 .LASF38
     /tmp/ccfTa8yK.s:5594   .debug_str:00000000000003de .LASF39
     /tmp/ccfTa8yK.s:923    .text:0000000000000684 .LFB16
     /tmp/ccfTa8yK.s:1277   .text:0000000000000934 .LFE16
     /tmp/ccfTa8yK.s:4397   .debug_loc:0000000000000000 .LLST31
     /tmp/ccfTa8yK.s:5518   .debug_str:00000000000001cb .LASF40
     /tmp/ccfTa8yK.s:4412   .debug_loc:0000000000000049 .LLST32
     /tmp/ccfTa8yK.s:4427   .debug_loc:0000000000000092 .LLST33
     /tmp/ccfTa8yK.s:960    .text:00000000000006cc .LBB74
     /tmp/ccfTa8yK.s:987    .text:00000000000006fc .LBE74
     /tmp/ccfTa8yK.s:4446   .debug_loc:00000000000000ee .LLST34
     /tmp/ccfTa8yK.s:975    .text:00000000000006ec .LVL143
     /tmp/ccfTa8yK.s:5342   .debug_ranges:0000000000000000 .Ldebug_ranges0
     /tmp/ccfTa8yK.s:4476   .debug_loc:0000000000000164 .LLST35
     /tmp/ccfTa8yK.s:4487   .debug_loc:000000000000019a .LLST39
     /tmp/ccfTa8yK.s:1045   .text:0000000000000754 .LBB81
     /tmp/ccfTa8yK.s:4502   .debug_loc:00000000000001e3 .LLST40
     /tmp/ccfTa8yK.s:4517   .debug_loc:000000000000021d .LLST41
     /tmp/ccfTa8yK.s:4532   .debug_loc:0000000000000265 .LLST42
     /tmp/ccfTa8yK.s:1106   .text:00000000000007cc .LVL165
     /tmp/ccfTa8yK.s:1111   .text:00000000000007dc .LVL166
     /tmp/ccfTa8yK.s:1116   .text:00000000000007ec .LVL167
     /tmp/ccfTa8yK.s:1121   .text:00000000000007f8 .LVL168
     /tmp/ccfTa8yK.s:1126   .text:0000000000000808 .LVL169
     /tmp/ccfTa8yK.s:1130   .text:0000000000000810 .LVL170
     /tmp/ccfTa8yK.s:1134   .text:0000000000000818 .LVL171
     /tmp/ccfTa8yK.s:1043   .text:0000000000000754 .LVL153
GAS LISTING /tmp/ccfTa8yK.s 			page 51


     /tmp/ccfTa8yK.s:1022   .text:0000000000000730 .LBB77
     /tmp/ccfTa8yK.s:4551   .debug_loc:00000000000002a3 .LLST36
     /tmp/ccfTa8yK.s:4566   .debug_loc:00000000000002dd .LLST37
     /tmp/ccfTa8yK.s:4581   .debug_loc:0000000000000325 .LLST38
     /tmp/ccfTa8yK.s:1066   .text:0000000000000770 .LVL157
     /tmp/ccfTa8yK.s:1071   .text:0000000000000780 .LVL158
     /tmp/ccfTa8yK.s:1076   .text:0000000000000790 .LVL159
     /tmp/ccfTa8yK.s:1081   .text:000000000000079c .LVL160
     /tmp/ccfTa8yK.s:1086   .text:00000000000007ac .LVL161
     /tmp/ccfTa8yK.s:1090   .text:00000000000007b4 .LVL162
     /tmp/ccfTa8yK.s:1094   .text:00000000000007bc .LVL163
     /tmp/ccfTa8yK.s:1145   .text:0000000000000824 .LBB87
     /tmp/ccfTa8yK.s:4606   .debug_loc:0000000000000369 .LLST43
     /tmp/ccfTa8yK.s:4621   .debug_loc:00000000000003a3 .LLST44
     /tmp/ccfTa8yK.s:4636   .debug_loc:00000000000003eb .LLST45
     /tmp/ccfTa8yK.s:1206   .text:000000000000088c .LVL184
     /tmp/ccfTa8yK.s:1211   .text:000000000000089c .LVL185
     /tmp/ccfTa8yK.s:1216   .text:00000000000008ac .LVL186
     /tmp/ccfTa8yK.s:1221   .text:00000000000008b8 .LVL187
     /tmp/ccfTa8yK.s:1226   .text:00000000000008c8 .LVL188
     /tmp/ccfTa8yK.s:1230   .text:00000000000008d0 .LVL189
     /tmp/ccfTa8yK.s:1234   .text:00000000000008d8 .LVL190
     /tmp/ccfTa8yK.s:1161   .text:0000000000000844 .LBB90
     /tmp/ccfTa8yK.s:4655   .debug_loc:0000000000000429 .LLST46
     /tmp/ccfTa8yK.s:4670   .debug_loc:0000000000000463 .LLST47
     /tmp/ccfTa8yK.s:4685   .debug_loc:00000000000004ab .LLST48
     /tmp/ccfTa8yK.s:1245   .text:00000000000008e8 .LVL192
     /tmp/ccfTa8yK.s:1250   .text:00000000000008f8 .LVL193
     /tmp/ccfTa8yK.s:1255   .text:0000000000000908 .LVL194
     /tmp/ccfTa8yK.s:1260   .text:0000000000000914 .LVL195
     /tmp/ccfTa8yK.s:1265   .text:0000000000000924 .LVL196
     /tmp/ccfTa8yK.s:1269   .text:000000000000092c .LVL197
     /tmp/ccfTa8yK.s:1273   .text:0000000000000934 .LVL198
     /tmp/ccfTa8yK.s:944    .text:00000000000006b0 .LVL138
     /tmp/ccfTa8yK.s:948    .text:00000000000006b8 .LVL139
     /tmp/ccfTa8yK.s:956    .text:00000000000006c8 .LVL140
     /tmp/ccfTa8yK.s:1143   .text:0000000000000824 .LVL172
     /tmp/ccfTa8yK.s:1155   .text:0000000000000830 .LVL174
     /tmp/ccfTa8yK.s:1157   .text:0000000000000838 .LVL175
     /tmp/ccfTa8yK.s:1173   .text:0000000000000858 .LVL178
     /tmp/ccfTa8yK.s:1177   .text:0000000000000860 .LVL179
     /tmp/ccfTa8yK.s:5588   .debug_str:00000000000003b2 .LASF41
     /tmp/ccfTa8yK.s:5538   .debug_str:0000000000000247 .LASF42
     /tmp/ccfTa8yK.s:595    .text:0000000000000418 .LFB15
     /tmp/ccfTa8yK.s:909    .text:0000000000000684 .LFE15
     /tmp/ccfTa8yK.s:4710   .debug_loc:00000000000004ef .LLST17
     /tmp/ccfTa8yK.s:4742   .debug_loc:0000000000000576 .LLST18
     /tmp/ccfTa8yK.s:4774   .debug_loc:00000000000005fd .LLST19
     /tmp/ccfTa8yK.s:5452   .debug_str:0000000000000009 .LASF43
     /tmp/ccfTa8yK.s:4794   .debug_loc:000000000000065a .LLST20
     /tmp/ccfTa8yK.s:5484   .debug_str:000000000000010a .LASF44
     /tmp/ccfTa8yK.s:4805   .debug_loc:0000000000000690 .LLST21
     /tmp/ccfTa8yK.s:674    .text:000000000000049c .LBB50
     /tmp/ccfTa8yK.s:4824   .debug_loc:00000000000006ec .LLST22
     /tmp/ccfTa8yK.s:4839   .debug_loc:0000000000000726 .LLST23
     /tmp/ccfTa8yK.s:4854   .debug_loc:000000000000076e .LLST24
     /tmp/ccfTa8yK.s:781    .text:0000000000000578 .LVL113
GAS LISTING /tmp/ccfTa8yK.s 			page 52


     /tmp/ccfTa8yK.s:786    .text:0000000000000588 .LVL114
     /tmp/ccfTa8yK.s:791    .text:0000000000000598 .LVL115
     /tmp/ccfTa8yK.s:796    .text:00000000000005a4 .LVL116
     /tmp/ccfTa8yK.s:801    .text:00000000000005b4 .LVL117
     /tmp/ccfTa8yK.s:805    .text:00000000000005bc .LVL118
     /tmp/ccfTa8yK.s:809    .text:00000000000005c4 .LVL119
     /tmp/ccfTa8yK.s:735    .text:000000000000050c .LBB53
     /tmp/ccfTa8yK.s:773    .text:0000000000000568 .LBE53
     /tmp/ccfTa8yK.s:4879   .debug_loc:00000000000007b2 .LLST25
     /tmp/ccfTa8yK.s:4888   .debug_loc:00000000000007d7 .LLST26
     /tmp/ccfTa8yK.s:4897   .debug_loc:0000000000000803 .LLST27
     /tmp/ccfTa8yK.s:742    .text:000000000000051c .LVL105
     /tmp/ccfTa8yK.s:747    .text:000000000000052c .LVL106
     /tmp/ccfTa8yK.s:752    .text:000000000000053c .LVL107
     /tmp/ccfTa8yK.s:757    .text:0000000000000548 .LVL108
     /tmp/ccfTa8yK.s:762    .text:0000000000000558 .LVL109
     /tmp/ccfTa8yK.s:766    .text:0000000000000560 .LVL110
     /tmp/ccfTa8yK.s:770    .text:0000000000000568 .LVL111
     /tmp/ccfTa8yK.s:659    .text:0000000000000484 .LVL86
     /tmp/ccfTa8yK.s:667    .text:0000000000000494 .LVL89
     /tmp/ccfTa8yK.s:704    .text:00000000000004c0 .LVL98
     /tmp/ccfTa8yK.s:709    .text:00000000000004cc .LVL99
     /tmp/ccfTa8yK.s:714    .text:00000000000004dc .LVL100
     /tmp/ccfTa8yK.s:719    .text:00000000000004e8 .LVL101
     /tmp/ccfTa8yK.s:724    .text:00000000000004f8 .LVL102
     /tmp/ccfTa8yK.s:729    .text:0000000000000504 .LVL103
     /tmp/ccfTa8yK.s:733    .text:000000000000050c .LVL104
     /tmp/ccfTa8yK.s:823    .text:00000000000005e0 .LBB59
     /tmp/ccfTa8yK.s:4905   .debug_loc:0000000000000827 .LLST28
     /tmp/ccfTa8yK.s:4920   .debug_loc:0000000000000861 .LLST29
     /tmp/ccfTa8yK.s:4935   .debug_loc:00000000000008a9 .LLST30
     /tmp/ccfTa8yK.s:877    .text:0000000000000638 .LVL131
     /tmp/ccfTa8yK.s:882    .text:0000000000000648 .LVL132
     /tmp/ccfTa8yK.s:887    .text:0000000000000658 .LVL133
     /tmp/ccfTa8yK.s:892    .text:0000000000000664 .LVL134
     /tmp/ccfTa8yK.s:897    .text:0000000000000674 .LVL135
     /tmp/ccfTa8yK.s:901    .text:000000000000067c .LVL136
     /tmp/ccfTa8yK.s:905    .text:0000000000000684 .LVL137
     /tmp/ccfTa8yK.s:624    .text:0000000000000454 .LVL81
     /tmp/ccfTa8yK.s:628    .text:000000000000045c .LVL82
     /tmp/ccfTa8yK.s:817    .text:00000000000005cc .LVL120
     /tmp/ccfTa8yK.s:819    .text:00000000000005d4 .LVL121
     /tmp/ccfTa8yK.s:835    .text:00000000000005f4 .LVL124
     /tmp/ccfTa8yK.s:839    .text:00000000000005fc .LVL125
     /tmp/ccfTa8yK.s:5578   .debug_str:000000000000036c .LASF88
     /tmp/ccfTa8yK.s:111    .text:00000000000000b4 .LFB14
     /tmp/ccfTa8yK.s:168    .text:000000000000011c .LFE14
     /tmp/ccfTa8yK.s:4960   .debug_loc:00000000000008ed .LLST0
     /tmp/ccfTa8yK.s:157    .text:0000000000000104 .LVL12
     /tmp/ccfTa8yK.s:162    .text:0000000000000114 .LVL13
     /tmp/ccfTa8yK.s:5498   .debug_str:000000000000015c .LASF45
     /tmp/ccfTa8yK.s:387    .text:000000000000029c .LFB13
     /tmp/ccfTa8yK.s:572    .text:0000000000000418 .LFE13
     /tmp/ccfTa8yK.s:4985   .debug_loc:000000000000094f .LLST9
     /tmp/ccfTa8yK.s:5010   .debug_loc:00000000000009b1 .LLST13
     /tmp/ccfTa8yK.s:429    .text:00000000000002e8 .LBB32
     /tmp/ccfTa8yK.s:5021   .debug_loc:00000000000009e7 .LLST14
GAS LISTING /tmp/ccfTa8yK.s 			page 53


     /tmp/ccfTa8yK.s:5036   .debug_loc:0000000000000a21 .LLST15
     /tmp/ccfTa8yK.s:5051   .debug_loc:0000000000000a69 .LLST16
     /tmp/ccfTa8yK.s:495    .text:0000000000000368 .LVL66
     /tmp/ccfTa8yK.s:500    .text:0000000000000378 .LVL67
     /tmp/ccfTa8yK.s:505    .text:0000000000000388 .LVL68
     /tmp/ccfTa8yK.s:510    .text:0000000000000394 .LVL69
     /tmp/ccfTa8yK.s:515    .text:00000000000003a4 .LVL70
     /tmp/ccfTa8yK.s:519    .text:00000000000003ac .LVL71
     /tmp/ccfTa8yK.s:523    .text:00000000000003b4 .LVL72
     /tmp/ccfTa8yK.s:424    .text:00000000000002d8 .LVL51
     /tmp/ccfTa8yK.s:428    .text:00000000000002e8 .LVL52
     /tmp/ccfTa8yK.s:440    .text:00000000000002f4 .LVL54
     /tmp/ccfTa8yK.s:407    .text:00000000000002bc .LBB28
     /tmp/ccfTa8yK.s:5076   .debug_loc:0000000000000aad .LLST10
     /tmp/ccfTa8yK.s:5091   .debug_loc:0000000000000ae7 .LLST11
     /tmp/ccfTa8yK.s:5106   .debug_loc:0000000000000b2f .LLST12
     /tmp/ccfTa8yK.s:455    .text:000000000000030c .LVL58
     /tmp/ccfTa8yK.s:460    .text:000000000000031c .LVL59
     /tmp/ccfTa8yK.s:465    .text:000000000000032c .LVL60
     /tmp/ccfTa8yK.s:470    .text:0000000000000338 .LVL61
     /tmp/ccfTa8yK.s:475    .text:0000000000000348 .LVL62
     /tmp/ccfTa8yK.s:479    .text:0000000000000350 .LVL63
     /tmp/ccfTa8yK.s:483    .text:0000000000000358 .LVL64
     /tmp/ccfTa8yK.s:533    .text:00000000000003bc .LBB38
     /tmp/ccfTa8yK.s:570    .text:0000000000000418 .LBE38
     /tmp/ccfTa8yK.s:540    .text:00000000000003cc .LVL74
     /tmp/ccfTa8yK.s:545    .text:00000000000003dc .LVL75
     /tmp/ccfTa8yK.s:550    .text:00000000000003ec .LVL76
     /tmp/ccfTa8yK.s:555    .text:00000000000003f8 .LVL77
     /tmp/ccfTa8yK.s:560    .text:0000000000000408 .LVL78
     /tmp/ccfTa8yK.s:564    .text:0000000000000410 .LVL79
     /tmp/ccfTa8yK.s:568    .text:0000000000000418 .LVL80
     /tmp/ccfTa8yK.s:531    .text:00000000000003bc .LVL73
     /tmp/ccfTa8yK.s:5488   .debug_str:000000000000011a .LASF46
     /tmp/ccfTa8yK.s:188    .text:000000000000011c .LFB12
     /tmp/ccfTa8yK.s:381    .text:000000000000029c .LFE12
     /tmp/ccfTa8yK.s:5125   .debug_loc:0000000000000b6d .LLST1
     /tmp/ccfTa8yK.s:5150   .debug_loc:0000000000000bcf .LLST5
     /tmp/ccfTa8yK.s:231    .text:0000000000000168 .LBB13
     /tmp/ccfTa8yK.s:5161   .debug_loc:0000000000000c05 .LLST6
     /tmp/ccfTa8yK.s:5176   .debug_loc:0000000000000c3f .LLST7
     /tmp/ccfTa8yK.s:5191   .debug_loc:0000000000000c87 .LLST8
     /tmp/ccfTa8yK.s:297    .text:00000000000001e8 .LVL33
     /tmp/ccfTa8yK.s:302    .text:00000000000001f8 .LVL34
     /tmp/ccfTa8yK.s:307    .text:0000000000000208 .LVL35
     /tmp/ccfTa8yK.s:312    .text:0000000000000214 .LVL36
     /tmp/ccfTa8yK.s:317    .text:0000000000000224 .LVL37
     /tmp/ccfTa8yK.s:321    .text:000000000000022c .LVL38
     /tmp/ccfTa8yK.s:325    .text:0000000000000234 .LVL39
     /tmp/ccfTa8yK.s:226    .text:0000000000000158 .LVL18
     /tmp/ccfTa8yK.s:230    .text:0000000000000168 .LVL19
     /tmp/ccfTa8yK.s:242    .text:0000000000000174 .LVL21
     /tmp/ccfTa8yK.s:208    .text:000000000000013c .LBB9
     /tmp/ccfTa8yK.s:5216   .debug_loc:0000000000000ccb .LLST2
     /tmp/ccfTa8yK.s:5231   .debug_loc:0000000000000d05 .LLST3
     /tmp/ccfTa8yK.s:5246   .debug_loc:0000000000000d4d .LLST4
     /tmp/ccfTa8yK.s:257    .text:000000000000018c .LVL25
GAS LISTING /tmp/ccfTa8yK.s 			page 54


     /tmp/ccfTa8yK.s:262    .text:000000000000019c .LVL26
     /tmp/ccfTa8yK.s:267    .text:00000000000001ac .LVL27
     /tmp/ccfTa8yK.s:272    .text:00000000000001b8 .LVL28
     /tmp/ccfTa8yK.s:277    .text:00000000000001c8 .LVL29
     /tmp/ccfTa8yK.s:281    .text:00000000000001d0 .LVL30
     /tmp/ccfTa8yK.s:285    .text:00000000000001d8 .LVL31
     /tmp/ccfTa8yK.s:342    .text:0000000000000240 .LBB19
     /tmp/ccfTa8yK.s:379    .text:000000000000029c .LBE19
     /tmp/ccfTa8yK.s:349    .text:0000000000000250 .LVL41
     /tmp/ccfTa8yK.s:354    .text:0000000000000260 .LVL42
     /tmp/ccfTa8yK.s:359    .text:0000000000000270 .LVL43
     /tmp/ccfTa8yK.s:364    .text:000000000000027c .LVL44
     /tmp/ccfTa8yK.s:369    .text:000000000000028c .LVL45
     /tmp/ccfTa8yK.s:373    .text:0000000000000294 .LVL46
     /tmp/ccfTa8yK.s:377    .text:000000000000029c .LVL47
     /tmp/ccfTa8yK.s:340    .text:0000000000000240 .LVL40
     /tmp/ccfTa8yK.s:5612   .debug_str:0000000000000515 .LASF47
     /tmp/ccfTa8yK.s:5582   .debug_str:0000000000000382 .LASF48
     /tmp/ccfTa8yK.s:18     .text:0000000000000000 .LFB11
     /tmp/ccfTa8yK.s:105    .text:00000000000000b4 .LFE11
     /tmp/ccfTa8yK.s:5512   .debug_str:00000000000001b5 .LASF49
     /tmp/ccfTa8yK.s:5504   .debug_str:0000000000000186 .LASF50
     /tmp/ccfTa8yK.s:34     .text:0000000000000020 .LVL0
     /tmp/ccfTa8yK.s:38     .text:0000000000000028 .LVL1
     /tmp/ccfTa8yK.s:57     .text:0000000000000050 .LVL2
     /tmp/ccfTa8yK.s:64     .text:0000000000000068 .LVL3
     /tmp/ccfTa8yK.s:68     .text:0000000000000070 .LVL4
     /tmp/ccfTa8yK.s:73     .text:000000000000007c .LVL5
     /tmp/ccfTa8yK.s:78     .text:0000000000000088 .LVL6
     /tmp/ccfTa8yK.s:90     .text:000000000000009c .LVL7
     /tmp/ccfTa8yK.s:94     .text:00000000000000a4 .LVL8
     /tmp/ccfTa8yK.s:5534   .debug_str:000000000000021e .LASF51
     /tmp/ccfTa8yK.s:5620   .debug_str:000000000000053b .LASF52
     /tmp/ccfTa8yK.s:1288   .text:0000000000000934 .LFB10
     /tmp/ccfTa8yK.s:1413   .text:0000000000000a20 .LFE10
     /tmp/ccfTa8yK.s:1320   .text:0000000000000968 .LBB101
     /tmp/ccfTa8yK.s:1342   .text:0000000000000984 .LBE101
     /tmp/ccfTa8yK.s:5265   .debug_loc:0000000000000d8b .LLST52
     /tmp/ccfTa8yK.s:1314   .text:0000000000000964 .LBB98
     /tmp/ccfTa8yK.s:5276   .debug_loc:0000000000000dc1 .LLST49
     /tmp/ccfTa8yK.s:5289   .debug_loc:0000000000000df9 .LLST50
     /tmp/ccfTa8yK.s:5304   .debug_loc:0000000000000e41 .LLST51
     /tmp/ccfTa8yK.s:1350   .text:0000000000000994 .LVL206
     /tmp/ccfTa8yK.s:1355   .text:00000000000009a4 .LVL207
     /tmp/ccfTa8yK.s:1360   .text:00000000000009b4 .LVL208
     /tmp/ccfTa8yK.s:1365   .text:00000000000009c0 .LVL209
     /tmp/ccfTa8yK.s:1370   .text:00000000000009d0 .LVL210
     /tmp/ccfTa8yK.s:1374   .text:00000000000009d8 .LVL211
     /tmp/ccfTa8yK.s:1378   .text:00000000000009e0 .LVL212
     /tmp/ccfTa8yK.s:1308   .text:0000000000000950 .LVL199
     /tmp/ccfTa8yK.s:1310   .text:0000000000000958 .LVL200
     /tmp/ccfTa8yK.s:1385   .text:00000000000009e8 .LVL213
     /tmp/ccfTa8yK.s:1389   .text:00000000000009f0 .LVL214
     /tmp/ccfTa8yK.s:1393   .text:00000000000009f8 .LVL215
     /tmp/ccfTa8yK.s:1398   .text:0000000000000a08 .LVL216
     /tmp/ccfTa8yK.s:1402   .text:0000000000000a10 .LVL217
     /tmp/ccfTa8yK.s:5584   .debug_str:0000000000000394 .LASF53
GAS LISTING /tmp/ccfTa8yK.s 			page 55


     /tmp/ccfTa8yK.s:5478   .debug_str:00000000000000d6 .LASF54
     /tmp/ccfTa8yK.s:5544   .debug_str:0000000000000273 .LASF55
     /tmp/ccfTa8yK.s:5474   .debug_str:00000000000000c3 .LASF56
     /tmp/ccfTa8yK.s:5526   .debug_str:00000000000001f9 .LASF57
     /tmp/ccfTa8yK.s:5476   .debug_str:00000000000000c8 .LASF58
     /tmp/ccfTa8yK.s:5592   .debug_str:00000000000003d4 .LASF60
     /tmp/ccfTa8yK.s:5466   .debug_str:000000000000007f .LASF59
     /tmp/ccfTa8yK.s:5460   .debug_str:000000000000005e .LASF61
     /tmp/ccfTa8yK.s:5520   .debug_str:00000000000001d2 .LASF62
     /tmp/ccfTa8yK.s:5626   .debug_str:0000000000000581 .LASF63
     /tmp/ccfTa8yK.s:5596   .debug_str:00000000000003f7 .LASF64
     /tmp/ccfTa8yK.s:5522   .debug_str:00000000000001dd .LASF65
     /tmp/ccfTa8yK.s:5576   .debug_str:000000000000035c .LASF66
     /tmp/ccfTa8yK.s:5530   .debug_str:0000000000000205 .LASF67
     /tmp/ccfTa8yK.s:5570   .debug_str:000000000000032b .LASF68
     /tmp/ccfTa8yK.s:5486   .debug_str:0000000000000111 .LASF69
     /tmp/ccfTa8yK.s:5580   .debug_str:0000000000000374 .LASF70
     /tmp/ccfTa8yK.s:5554   .debug_str:00000000000002c0 .LASF71
     /tmp/ccfTa8yK.s:5614   .debug_str:0000000000000522 .LASF72
     /tmp/ccfTa8yK.s:5528   .debug_str:00000000000001fe .LASF73
     /tmp/ccfTa8yK.s:5496   .debug_str:0000000000000147 .LASF74
     /tmp/ccfTa8yK.s:5472   .debug_str:00000000000000b3 .LASF75
     /tmp/ccfTa8yK.s:5560   .debug_str:00000000000002ee .LASF76
     /tmp/ccfTa8yK.s:5510   .debug_str:00000000000001a9 .LASF77
     /tmp/ccfTa8yK.s:5552   .debug_str:00000000000002a3 .LASF78
     /tmp/ccfTa8yK.s:5482   .debug_str:00000000000000fc .LASF79
     /tmp/ccfTa8yK.s:5524   .debug_str:00000000000001e8 .LASF80
     /tmp/ccfTa8yK.s:5602   .debug_str:0000000000000415 .LASF81
     /tmp/ccfTa8yK.s:958    .text:00000000000006cc .LVL141
     /tmp/ccfTa8yK.s:963    .text:00000000000006d0 .LVL142
     /tmp/ccfTa8yK.s:1192   .text:0000000000000874 .LVL181
     /tmp/ccfTa8yK.s:1196   .text:000000000000087c .LVL182
     /tmp/ccfTa8yK.s:995    .text:0000000000000704 .LVL146
     /tmp/ccfTa8yK.s:1009   .text:0000000000000720 .LVL147
     /tmp/ccfTa8yK.s:1014   .text:0000000000000728 .LVL149
     /tmp/ccfTa8yK.s:1031   .text:0000000000000738 .LVL152
     /tmp/ccfTa8yK.s:1057   .text:0000000000000760 .LVL156
     /tmp/ccfTa8yK.s:1104   .text:00000000000007c4 .LVL164
     /tmp/ccfTa8yK.s:1204   .text:0000000000000884 .LVL183
     /tmp/ccfTa8yK.s:983    .text:00000000000006f8 .LVL144
     /tmp/ccfTa8yK.s:985    .text:00000000000006fc .LVL145
     /tmp/ccfTa8yK.s:1012   .text:0000000000000724 .LVL148
     /tmp/ccfTa8yK.s:1019   .text:000000000000072c .LVL150
     /tmp/ccfTa8yK.s:1055   .text:000000000000075c .LVL155
     /tmp/ccfTa8yK.s:1187   .text:000000000000086c .LVL180
     /tmp/ccfTa8yK.s:1050   .text:0000000000000758 .LVL154
     /tmp/ccfTa8yK.s:1021   .text:0000000000000730 .LVL151
     /tmp/ccfTa8yK.s:1150   .text:0000000000000828 .LVL173
     /tmp/ccfTa8yK.s:1160   .text:0000000000000844 .LVL176
     /tmp/ccfTa8yK.s:1166   .text:0000000000000848 .LVL177
     /tmp/ccfTa8yK.s:1243   .text:00000000000008e0 .LVL191
     /tmp/ccfTa8yK.s:640    .text:0000000000000468 .LVL83
     /tmp/ccfTa8yK.s:650    .text:0000000000000474 .LVL84
     /tmp/ccfTa8yK.s:692    .text:00000000000004ac .LVL95
     /tmp/ccfTa8yK.s:696    .text:00000000000004b0 .LVL96
     /tmp/ccfTa8yK.s:856    .text:0000000000000614 .LVL127
     /tmp/ccfTa8yK.s:867    .text:0000000000000628 .LVL129
GAS LISTING /tmp/ccfTa8yK.s 			page 56


     /tmp/ccfTa8yK.s:654    .text:0000000000000478 .LVL85
     /tmp/ccfTa8yK.s:689    .text:00000000000004a8 .LVL94
     /tmp/ccfTa8yK.s:859    .text:0000000000000618 .LVL128
     /tmp/ccfTa8yK.s:685    .text:00000000000004a4 .LVL93
     /tmp/ccfTa8yK.s:849    .text:0000000000000608 .LVL126
     /tmp/ccfTa8yK.s:661    .text:0000000000000488 .LVL87
     /tmp/ccfTa8yK.s:665    .text:000000000000048c .LVL88
     /tmp/ccfTa8yK.s:669    .text:0000000000000498 .LVL90
     /tmp/ccfTa8yK.s:702    .text:00000000000004b8 .LVL97
     /tmp/ccfTa8yK.s:779    .text:0000000000000570 .LVL112
     /tmp/ccfTa8yK.s:673    .text:000000000000049c .LVL91
     /tmp/ccfTa8yK.s:679    .text:00000000000004a0 .LVL92
     /tmp/ccfTa8yK.s:822    .text:00000000000005e0 .LVL122
     /tmp/ccfTa8yK.s:828    .text:00000000000005e4 .LVL123
     /tmp/ccfTa8yK.s:875    .text:0000000000000630 .LVL130
     /tmp/ccfTa8yK.s:114    .text:00000000000000b4 .LVL9
     /tmp/ccfTa8yK.s:133    .text:00000000000000dc .LVL10
     /tmp/ccfTa8yK.s:150    .text:00000000000000f8 .LVL11
     /tmp/ccfTa8yK.s:165    .text:0000000000000118 .LVL14
     /tmp/ccfTa8yK.s:390    .text:000000000000029c .LVL48
     /tmp/ccfTa8yK.s:416    .text:00000000000002c4 .LVL50
     /tmp/ccfTa8yK.s:445    .text:00000000000002fc .LVL56
     /tmp/ccfTa8yK.s:453    .text:0000000000000304 .LVL57
     /tmp/ccfTa8yK.s:443    .text:00000000000002f8 .LVL55
     /tmp/ccfTa8yK.s:434    .text:00000000000002ec .LVL53
     /tmp/ccfTa8yK.s:493    .text:0000000000000360 .LVL65
     /tmp/ccfTa8yK.s:406    .text:00000000000002bc .LVL49
     /tmp/ccfTa8yK.s:191    .text:000000000000011c .LVL15
     /tmp/ccfTa8yK.s:218    .text:0000000000000144 .LVL17
     /tmp/ccfTa8yK.s:247    .text:000000000000017c .LVL23
     /tmp/ccfTa8yK.s:255    .text:0000000000000184 .LVL24
     /tmp/ccfTa8yK.s:245    .text:0000000000000178 .LVL22
     /tmp/ccfTa8yK.s:236    .text:000000000000016c .LVL20
     /tmp/ccfTa8yK.s:295    .text:00000000000001e0 .LVL32
     /tmp/ccfTa8yK.s:207    .text:000000000000013c .LVL16
     /tmp/ccfTa8yK.s:1323   .text:000000000000096c .LVL202
     /tmp/ccfTa8yK.s:1338   .text:0000000000000980 .LVL203
     /tmp/ccfTa8yK.s:1313   .text:0000000000000964 .LVL201
     /tmp/ccfTa8yK.s:1340   .text:0000000000000984 .LVL204
     /tmp/ccfTa8yK.s:1348   .text:000000000000098c .LVL205
     /tmp/ccfTa8yK.s:1420   .debug_info:0000000000000000 .Ldebug_info0
     /tmp/ccfTa8yK.s:214    .text:0000000000000140 .LBE9
     /tmp/ccfTa8yK.s:250    .text:000000000000017c .LBB17
     /tmp/ccfTa8yK.s:288    .text:00000000000001d8 .LBE17
     /tmp/ccfTa8yK.s:215    .text:0000000000000140 .LBB12
     /tmp/ccfTa8yK.s:249    .text:000000000000017c .LBE12
     /tmp/ccfTa8yK.s:289    .text:00000000000001d8 .LBB18
     /tmp/ccfTa8yK.s:329    .text:0000000000000234 .LBE18
     /tmp/ccfTa8yK.s:238    .text:000000000000016c .LBE13
     /tmp/ccfTa8yK.s:290    .text:00000000000001d8 .LBB16
     /tmp/ccfTa8yK.s:328    .text:0000000000000234 .LBE16
     /tmp/ccfTa8yK.s:412    .text:00000000000002c0 .LBE28
     /tmp/ccfTa8yK.s:448    .text:00000000000002fc .LBB36
     /tmp/ccfTa8yK.s:486    .text:0000000000000358 .LBE36
     /tmp/ccfTa8yK.s:413    .text:00000000000002c0 .LBB31
     /tmp/ccfTa8yK.s:447    .text:00000000000002fc .LBE31
     /tmp/ccfTa8yK.s:487    .text:0000000000000358 .LBB37
GAS LISTING /tmp/ccfTa8yK.s 			page 57


     /tmp/ccfTa8yK.s:527    .text:00000000000003b4 .LBE37
     /tmp/ccfTa8yK.s:436    .text:00000000000002ec .LBE32
     /tmp/ccfTa8yK.s:488    .text:0000000000000358 .LBB35
     /tmp/ccfTa8yK.s:526    .text:00000000000003b4 .LBE35
     /tmp/ccfTa8yK.s:632    .text:000000000000045c .LBB48
     /tmp/ccfTa8yK.s:635    .text:0000000000000460 .LBE48
     /tmp/ccfTa8yK.s:642    .text:0000000000000468 .LBB58
     /tmp/ccfTa8yK.s:814    .text:00000000000005c4 .LBE58
     /tmp/ccfTa8yK.s:646    .text:0000000000000470 .LBB49
     /tmp/ccfTa8yK.s:682    .text:00000000000004a0 .LBE49
     /tmp/ccfTa8yK.s:686    .text:00000000000004a4 .LBB56
     /tmp/ccfTa8yK.s:693    .text:00000000000004ac .LBE56
     /tmp/ccfTa8yK.s:698    .text:00000000000004b0 .LBB57
     /tmp/ccfTa8yK.s:813    .text:00000000000005c4 .LBE57
     /tmp/ccfTa8yK.s:681    .text:00000000000004a0 .LBE50
     /tmp/ccfTa8yK.s:774    .text:0000000000000568 .LBB55
     /tmp/ccfTa8yK.s:812    .text:00000000000005c4 .LBE55
     /tmp/ccfTa8yK.s:830    .text:00000000000005e4 .LBE59
     /tmp/ccfTa8yK.s:870    .text:0000000000000628 .LBB62
     /tmp/ccfTa8yK.s:907    .text:0000000000000684 .LBE62
     /tmp/ccfTa8yK.s:988    .text:00000000000006fc .LBB75
     /tmp/ccfTa8yK.s:991    .text:0000000000000700 .LBE75
     /tmp/ccfTa8yK.s:996    .text:0000000000000704 .LBB76
     /tmp/ccfTa8yK.s:1016   .text:0000000000000728 .LBE76
     /tmp/ccfTa8yK.s:1027   .text:0000000000000734 .LBE77
     /tmp/ccfTa8yK.s:1060   .text:0000000000000760 .LBB85
     /tmp/ccfTa8yK.s:1097   .text:00000000000007bc .LBE85
     /tmp/ccfTa8yK.s:1028   .text:0000000000000734 .LBB80
     /tmp/ccfTa8yK.s:1059   .text:0000000000000760 .LBE80
     /tmp/ccfTa8yK.s:1098   .text:00000000000007bc .LBB86
     /tmp/ccfTa8yK.s:1138   .text:0000000000000818 .LBE86
     /tmp/ccfTa8yK.s:1052   .text:0000000000000758 .LBE81
     /tmp/ccfTa8yK.s:1099   .text:00000000000007bc .LBB84
     /tmp/ccfTa8yK.s:1137   .text:0000000000000818 .LBE84
     /tmp/ccfTa8yK.s:1152   .text:0000000000000828 .LBE87
     /tmp/ccfTa8yK.s:1199   .text:000000000000087c .LBB93
     /tmp/ccfTa8yK.s:1237   .text:00000000000008d8 .LBE93
     /tmp/ccfTa8yK.s:1168   .text:0000000000000848 .LBE90
     /tmp/ccfTa8yK.s:1238   .text:00000000000008d8 .LBB94
     /tmp/ccfTa8yK.s:1275   .text:0000000000000934 .LBE94
     /tmp/ccfTa8yK.s:1319   .text:0000000000000968 .LBE98
     /tmp/ccfTa8yK.s:1343   .text:0000000000000984 .LBB102
     /tmp/ccfTa8yK.s:1381   .text:00000000000009e0 .LBE102

UNDEFINED SYMBOLS
_Z9putStringPKc
_Z10putNewlinev
_Z13thread_createPmPFvPvES0_
_Z15thread_dispatchv
_Z11thread_joinm
_Z9test_callm
_Z6putInti
_Z10stopKernelv
_Z11thread_exitv
_Z6putU64m
_ZN8MemAlloc3getEv
_ZN8MemAlloc16getUserlandUsageEv
GAS LISTING /tmp/ccfTa8yK.s 			page 58


_ZN6Thread22initialUserMemoryUsageE
_Z9mem_allocm
_Z8mem_freePv
