GAS LISTING /tmp/ccWqeo9M.s 			page 1


   1              		.file	"APP.cpp"
   2              		.option pic
   3              		.option norelax
   4              		.text
   5              	.Ltext0:
   6              		.section	.rodata._Z7_assertbPKci.str1.8,"aMS",@progbits,1
   7              		.align	3
   8              	.LC0:
   9 0000 3D3D3D3D 		.string	"===================== ASSERT file: "
   9      3D3D3D3D 
   9      3D3D3D3D 
   9      3D3D3D3D 
   9      3D3D3D3D 
  10 0024 00000000 		.align	3
  11              	.LC1:
  12 0028 20202020 		.string	"    line: "
  12      6C696E65 
  12      3A2000
  13 0033 00000000 		.align	3
  13      00
  14              	.LC2:
  15 0038 2020203D 		.string	"   ==========================="
  15      3D3D3D3D 
  15      3D3D3D3D 
  15      3D3D3D3D 
  15      3D3D3D3D 
  16              		.section	.text._Z7_assertbPKci,"axG",@progbits,_Z7_assertbPKci,comdat
  17              		.align	2
  18              		.weak	_Z7_assertbPKci
  20              	_Z7_assertbPKci:
  21              	.LFB0:
  22              		.file 1 "src/../h/my_console.h"
   1:src/../h/my_console.h **** #pragma once
   2:src/../h/my_console.h **** 
   3:src/../h/my_console.h **** #include "../h/risc.h"
   4:src/../h/my_console.h **** 
   5:src/../h/my_console.h **** #include "../lib/console.h"
   6:src/../h/my_console.h **** #include "../lib/hw.h"
   7:src/../h/my_console.h **** 
   8:src/../h/my_console.h **** #define __DEBUG_MODE
   9:src/../h/my_console.h **** 
  10:src/../h/my_console.h **** 
  11:src/../h/my_console.h **** void putString(const char* s);
  12:src/../h/my_console.h **** void putInt(int n);
  13:src/../h/my_console.h **** void putNewline();
  14:src/../h/my_console.h **** void putU64(uint64 n);
  15:src/../h/my_console.h **** void putBinary(uint64 n);
  16:src/../h/my_console.h **** 
  17:src/../h/my_console.h **** [[noreturn]] void stopKernel();
  18:src/../h/my_console.h **** 
  19:src/../h/my_console.h **** inline void _assert(bool valid, const char* file, int line) // MUST be inline
  20:src/../h/my_console.h **** {
  23              		.loc 1 20 1
  24              		.cfi_startproc
  25              	.LVL0:
  21:src/../h/my_console.h ****     if(valid)
  26              		.loc 1 21 5
GAS LISTING /tmp/ccWqeo9M.s 			page 2


  27 0000 63040500 		beqz	a0,.L7
  28 0004 67800000 		ret
  29              	.L7:
  20:src/../h/my_console.h ****     if(valid)
  30              		.loc 1 20 1 is_stmt 0
  31 0008 130101FE 		addi	sp,sp,-32
  32              		.cfi_def_cfa_offset 32
  33 000c 233C1100 		sd	ra,24(sp)
  34 0010 23388100 		sd	s0,16(sp)
  35 0014 23349100 		sd	s1,8(sp)
  36 0018 23302101 		sd	s2,0(sp)
  37              		.cfi_offset 1, -8
  38              		.cfi_offset 8, -16
  39              		.cfi_offset 9, -24
  40              		.cfi_offset 18, -32
  41 001c 13040102 		addi	s0,sp,32
  42              		.cfi_def_cfa 8, 0
  43 0020 13890500 		mv	s2,a1
  44 0024 93040600 		mv	s1,a2
  22:src/../h/my_console.h ****         return;
  23:src/../h/my_console.h **** 
  24:src/../h/my_console.h ****     putString("===================== ASSERT file: ");
  45              		.loc 1 24 5 is_stmt 1
  46              		.loc 1 24 14 is_stmt 0
  47 0028 17050000 		lla	a0,.LC0
  47      13050500 
  48              	.LVL1:
  49 0030 97000000 		call	_Z9putStringPKc@plt
  49      E7800000 
  50              	.LVL2:
  25:src/../h/my_console.h ****     putString(file);
  51              		.loc 1 25 5 is_stmt 1
  52              		.loc 1 25 14 is_stmt 0
  53 0038 13050900 		mv	a0,s2
  54 003c 97000000 		call	_Z9putStringPKc@plt
  54      E7800000 
  55              	.LVL3:
  26:src/../h/my_console.h ****     putString("    line: ");
  56              		.loc 1 26 5 is_stmt 1
  57              		.loc 1 26 14 is_stmt 0
  58 0044 17050000 		lla	a0,.LC1
  58      13050500 
  59 004c 97000000 		call	_Z9putStringPKc@plt
  59      E7800000 
  60              	.LVL4:
  27:src/../h/my_console.h ****     putInt(line);
  61              		.loc 1 27 5 is_stmt 1
  62              		.loc 1 27 11 is_stmt 0
  63 0054 13850400 		mv	a0,s1
  64 0058 97000000 		call	_Z6putInti@plt
  64      E7800000 
  65              	.LVL5:
  28:src/../h/my_console.h ****     putString("   ===========================");
  66              		.loc 1 28 5 is_stmt 1
  67              		.loc 1 28 14 is_stmt 0
  68 0060 17050000 		lla	a0,.LC2
  68      13050500 
GAS LISTING /tmp/ccWqeo9M.s 			page 3


  69 0068 97000000 		call	_Z9putStringPKc@plt
  69      E7800000 
  70              	.LVL6:
  29:src/../h/my_console.h ****     putNewline();
  71              		.loc 1 29 5 is_stmt 1
  72              		.loc 1 29 15 is_stmt 0
  73 0070 97000000 		call	_Z10putNewlinev@plt
  73      E7800000 
  74              	.LVL7:
  30:src/../h/my_console.h **** 
  31:src/../h/my_console.h ****     stopKernel();
  75              		.loc 1 31 5 is_stmt 1
  76              		.loc 1 31 15 is_stmt 0
  77 0078 97000000 		call	_Z10stopKernelv@plt
  77      E7800000 
  78              	.LVL8:
  79              		.cfi_endproc
  80              	.LFE0:
  82              		.text
  83              		.align	2
  84              		.globl	_Z3fibm
  86              	_Z3fibm:
  87              	.LFB7:
  88              		.file 2 "src/APP.cpp"
   1:src/APP.cpp   **** #include "../h/my_console.h"
   2:src/APP.cpp   **** #include "../h/c_api.h"
   3:src/APP.cpp   **** #include "../h/alloc.h"
   4:src/APP.cpp   **** 
   5:src/APP.cpp   **** uint64 fib(uint64 n)
   6:src/APP.cpp   **** {
  89              		.loc 2 6 1 is_stmt 1
  90              		.cfi_startproc
  91              	.LVL9:
  92 0000 130101FE 		addi	sp,sp,-32
  93              		.cfi_def_cfa_offset 32
  94 0004 233C1100 		sd	ra,24(sp)
  95 0008 23388100 		sd	s0,16(sp)
  96 000c 23349100 		sd	s1,8(sp)
  97 0010 23302101 		sd	s2,0(sp)
  98              		.cfi_offset 1, -8
  99              		.cfi_offset 8, -16
 100              		.cfi_offset 9, -24
 101              		.cfi_offset 18, -32
 102 0014 13040102 		addi	s0,sp,32
 103              		.cfi_def_cfa 8, 0
 104 0018 93040500 		mv	s1,a0
   7:src/APP.cpp   ****     if(n == 1)
 105              		.loc 2 7 5
 106 001c 93071000 		li	a5,1
 107 0020 6304F500 		beq	a0,a5,.L9
   8:src/APP.cpp   ****         return 1;
   9:src/APP.cpp   ****     else if (n == 0)
 108              		.loc 2 9 10
 109 0024 63100502 		bnez	a0,.L11
 110              	.LVL10:
 111              	.L9:
  10:src/APP.cpp   ****         return 0;
GAS LISTING /tmp/ccWqeo9M.s 			page 4


  11:src/APP.cpp   ****     else return fib(n-1) + fib(n-2);
  12:src/APP.cpp   **** }
 112              		.loc 2 12 1 is_stmt 0
 113 0028 13850400 		mv	a0,s1
 114 002c 83308101 		ld	ra,24(sp)
 115              		.cfi_remember_state
 116              		.cfi_restore 1
 117 0030 03340101 		ld	s0,16(sp)
 118              		.cfi_restore 8
 119              		.cfi_def_cfa 2, 32
 120 0034 83348100 		ld	s1,8(sp)
 121              		.cfi_restore 9
 122 0038 03390100 		ld	s2,0(sp)
 123              		.cfi_restore 18
 124 003c 13010102 		addi	sp,sp,32
 125              		.cfi_def_cfa_offset 0
 126 0040 67800000 		jr	ra
 127              	.LVL11:
 128              	.L11:
 129              		.cfi_restore_state
  11:src/APP.cpp   **** }
 130              		.loc 2 11 10 is_stmt 1
  11:src/APP.cpp   **** }
 131              		.loc 2 11 20 is_stmt 0
 132 0044 1305F5FF 		addi	a0,a0,-1
 133 0048 97000000 		call	_Z3fibm
 133      E7800000 
 134              	.LVL12:
 135 0050 13090500 		mv	s2,a0
  11:src/APP.cpp   **** }
 136              		.loc 2 11 31
 137 0054 1385E4FF 		addi	a0,s1,-2
 138 0058 97000000 		call	_Z3fibm
 138      E7800000 
 139              	.LVL13:
  11:src/APP.cpp   **** }
 140              		.loc 2 11 35
 141 0060 B304A900 		add	s1,s2,a0
 142              	.LVL14:
 143 0064 6FF05FFC 		j	.L9
 144              		.cfi_endproc
 145              	.LFE7:
 147              		.section	.rodata.str1.8,"aMS",@progbits,1
 148              		.align	3
 149              	.LC3:
 150 0000 3D3D3D20 		.string	"=== Testing \"testSystemCalls\""
 150      54657374 
 150      696E6720 
 150      22746573 
 150      74537973 
 151 001e 0000     		.align	3
 152              	.LC4:
 153 0020 7372632F 		.string	"src/APP.cpp"
 153      4150502E 
 153      63707000 
 154 002c 00000000 		.align	3
 155              	.LC5:
GAS LISTING /tmp/ccWqeo9M.s 			page 5


 156 0030 66696228 		.string	"fib("
 156      00
 157 0035 000000   		.align	3
 158              	.LC6:
 159 0038 29203D20 		.string	") = "
 159      00
 160 003d 000000   		.align	3
 161              	.LC7:
 162 0040 7265743D 		.string	"ret= "
 162      2000
 163 0046 0000     		.align	3
 164              	.LC8:
 165 0048 3D3D3D3D 		.string	"====== Done testing system calls"
 165      3D3D2044 
 165      6F6E6520 
 165      74657374 
 165      696E6720 
 166              		.text
 167              		.align	2
 168              		.globl	_Z15testSystemCallsv
 170              	_Z15testSystemCallsv:
 171              	.LFB8:
  13:src/APP.cpp   **** 
  14:src/APP.cpp   **** void testSystemCalls()
  15:src/APP.cpp   **** {
 172              		.loc 2 15 1 is_stmt 1
 173              		.cfi_startproc
 174 0068 130101FC 		addi	sp,sp,-64
 175              		.cfi_def_cfa_offset 64
 176 006c 233C1102 		sd	ra,56(sp)
 177 0070 23388102 		sd	s0,48(sp)
 178 0074 23349102 		sd	s1,40(sp)
 179 0078 23302103 		sd	s2,32(sp)
 180 007c 233C3101 		sd	s3,24(sp)
 181 0080 23384101 		sd	s4,16(sp)
 182 0084 23345101 		sd	s5,8(sp)
 183 0088 23306101 		sd	s6,0(sp)
 184              		.cfi_offset 1, -8
 185              		.cfi_offset 8, -16
 186              		.cfi_offset 9, -24
 187              		.cfi_offset 18, -32
 188              		.cfi_offset 19, -40
 189              		.cfi_offset 20, -48
 190              		.cfi_offset 21, -56
 191              		.cfi_offset 22, -64
 192 008c 13040104 		addi	s0,sp,64
 193              		.cfi_def_cfa 8, 0
  16:src/APP.cpp   ****     putString("=== Testing \"testSystemCalls\"");
 194              		.loc 2 16 5
 195              		.loc 2 16 14 is_stmt 0
 196 0090 17050000 		lla	a0,.LC3
 196      13050500 
 197 0098 97000000 		call	_Z9putStringPKc@plt
 197      E7800000 
 198              	.LVL15:
  17:src/APP.cpp   ****     putNewline();
 199              		.loc 2 17 5 is_stmt 1
GAS LISTING /tmp/ccWqeo9M.s 			page 6


 200              		.loc 2 17 15 is_stmt 0
 201 00a0 97000000 		call	_Z10putNewlinev@plt
 201      E7800000 
 202              	.LVL16:
  18:src/APP.cpp   **** 
  19:src/APP.cpp   ****     const int n = 1000000;
 203              		.loc 2 19 5 is_stmt 1
  20:src/APP.cpp   ****     int a, b;
 204              		.loc 2 20 5
  21:src/APP.cpp   ****     a = b = n*37;
 205              		.loc 2 21 5
 206              		.loc 2 21 11 is_stmt 0
 207 00a8 B7963402 		li	a3,36999168
 208 00ac 93860634 		addi	a3,a3,832
 209              		.loc 2 21 7
 210 00b0 13890600 		mv	s2,a3
 211 00b4 6F00C000 		j	.L13
 212              	.LVL17:
 213              	.L16:
  15:src/APP.cpp   ****     putString("=== Testing \"testSystemCalls\"");
 214              		.loc 2 15 1
 215 00b8 93060A00 		mv	a3,s4
 216 00bc 13890900 		mv	s2,s3
 217              	.LVL18:
 218              	.L13:
  22:src/APP.cpp   ****     while(a < n*39)
 219              		.loc 2 22 5 is_stmt 1
 220              		.loc 2 22 13
 221 00c0 B7175302 		li	a5,38998016
 222 00c4 9387F77B 		addi	a5,a5,1983
 223 00c8 63C0271D 		bgt	s2,a5,.L14
 224              	.LBB11:
  23:src/APP.cpp   ****     {
  24:src/APP.cpp   ****         a++;
 225              		.loc 2 24 9
 226              		.loc 2 24 10 is_stmt 0
 227 00cc 1B071900 		addiw	a4,s2,1
 228 00d0 9B090700 		sext.w	s3,a4
 229              	.LVL19:
  25:src/APP.cpp   ****         b++;
 230              		.loc 2 25 9 is_stmt 1
 231              		.loc 2 25 10 is_stmt 0
 232 00d4 1B8A1600 		addiw	s4,a3,1
 233              	.LVL20:
  26:src/APP.cpp   ****         assert(a == b);
 234              		.loc 2 26 9 is_stmt 1
 235              	.LBB12:
 236              	.LBB13:
  21:src/../h/my_console.h ****         return;
 237              		.loc 1 21 5
 238 00d8 6316D912 		bne	s2,a3,.L20
  22:src/../h/my_console.h **** 
 239              		.loc 1 22 9
 240              	.LVL21:
 241              	.LBE13:
 242              	.LBE12:
  27:src/APP.cpp   **** 
GAS LISTING /tmp/ccWqeo9M.s 			page 7


  28:src/APP.cpp   ****         if(a % n == 0) {
 243              		.loc 2 28 9
 244              	.LBB15:
 245              		.loc 2 28 14 is_stmt 0
 246 00dc B7470F00 		li	a5,999424
 247 00e0 9B870724 		addiw	a5,a5,576
 248 00e4 BB67F702 		remw	a5,a4,a5
 249              		.loc 2 28 9
 250 00e8 E39807FC 		bnez	a5,.L16
 251              	.LBB16:
  29:src/APP.cpp   ****             int out = fib(a/n);
 252              		.loc 2 29 13 is_stmt 1
 253              		.loc 2 29 28 is_stmt 0
 254 00ec B7440F00 		li	s1,999424
 255 00f0 9B840424 		addiw	s1,s1,576
 256 00f4 BB449702 		divw	s1,a4,s1
 257 00f8 1B8B0400 		sext.w	s6,s1
 258              		.loc 2 29 26
 259 00fc 13050B00 		mv	a0,s6
 260 0100 97000000 		call	_Z3fibm
 260      E7800000 
 261              	.LVL22:
 262              		.loc 2 29 30
 263 0108 9B0A0500 		sext.w	s5,a0
 264              	.LVL23:
  30:src/APP.cpp   ****             putString("fib(");
 265              		.loc 2 30 13 is_stmt 1
 266              		.loc 2 30 22 is_stmt 0
 267 010c 17050000 		lla	a0,.LC5
 267      13050500 
 268 0114 97000000 		call	_Z9putStringPKc@plt
 268      E7800000 
 269              	.LVL24:
  31:src/APP.cpp   ****             putInt(a/n);
 270              		.loc 2 31 13 is_stmt 1
 271              		.loc 2 31 19 is_stmt 0
 272 011c 13050B00 		mv	a0,s6
 273 0120 97000000 		call	_Z6putInti@plt
 273      E7800000 
 274              	.LVL25:
  32:src/APP.cpp   ****             putString(") = ");
 275              		.loc 2 32 13 is_stmt 1
 276              		.loc 2 32 22 is_stmt 0
 277 0128 17050000 		lla	a0,.LC6
 277      13050500 
 278 0130 97000000 		call	_Z9putStringPKc@plt
 278      E7800000 
 279              	.LVL26:
  33:src/APP.cpp   ****             putInt(out);
 280              		.loc 2 33 13 is_stmt 1
 281              		.loc 2 33 19 is_stmt 0
 282 0138 13850A00 		mv	a0,s5
 283 013c 97000000 		call	_Z6putInti@plt
 283      E7800000 
 284              	.LVL27:
  34:src/APP.cpp   ****             putNewline();
 285              		.loc 2 34 13 is_stmt 1
GAS LISTING /tmp/ccWqeo9M.s 			page 8


 286              		.loc 2 34 23 is_stmt 0
 287 0144 97000000 		call	_Z10putNewlinev@plt
 287      E7800000 
 288              	.LVL28:
  35:src/APP.cpp   **** 
  36:src/APP.cpp   ****             if(a/n == 38)
 289              		.loc 2 36 13 is_stmt 1
 290 014c B737BCFD 		li	a5,-37998592
 291 0150 9B8717A8 		addiw	a5,a5,-1407
 292 0154 3B892701 		addw	s2,a5,s2
 293 0158 B7470F00 		li	a5,999424
 294 015c 9387F723 		addi	a5,a5,575
 295 0160 63F02711 		bleu	s2,a5,.L21
 296              	.L17:
  37:src/APP.cpp   ****             {
  38:src/APP.cpp   ****                 assert(out == 39088169);
  39:src/APP.cpp   ****             }
  40:src/APP.cpp   **** 
  41:src/APP.cpp   ****             uint64 ret = (uint64)test_call(a / n);
 297              		.loc 2 41 13
 298              		.loc 2 41 43 is_stmt 0
 299 0164 13050B00 		mv	a0,s6
 300 0168 97000000 		call	_Z9test_callm@plt
 300      E7800000 
 301              	.LVL29:
 302 0170 13090500 		mv	s2,a0
 303              	.LVL30:
  42:src/APP.cpp   ****             putString("ret= ");
 304              		.loc 2 42 13 is_stmt 1
 305              		.loc 2 42 22 is_stmt 0
 306 0174 17050000 		lla	a0,.LC7
 306      13050500 
 307              	.LVL31:
 308 017c 97000000 		call	_Z9putStringPKc@plt
 308      E7800000 
 309              	.LVL32:
  43:src/APP.cpp   ****             putU64(ret);
 310              		.loc 2 43 13 is_stmt 1
 311              		.loc 2 43 19 is_stmt 0
 312 0184 13050900 		mv	a0,s2
 313 0188 97000000 		call	_Z6putU64m@plt
 313      E7800000 
 314              	.LVL33:
  44:src/APP.cpp   ****             putNewline();
 315              		.loc 2 44 13 is_stmt 1
 316              		.loc 2 44 23 is_stmt 0
 317 0190 97000000 		call	_Z10putNewlinev@plt
 317      E7800000 
 318              	.LVL34:
  45:src/APP.cpp   ****             putNewline();
 319              		.loc 2 45 13 is_stmt 1
 320              		.loc 2 45 23 is_stmt 0
 321 0198 97000000 		call	_Z10putNewlinev@plt
 321      E7800000 
 322              	.LVL35:
  46:src/APP.cpp   **** 
  47:src/APP.cpp   ****             assert(ret == (uint64)(a/n * 2));
GAS LISTING /tmp/ccWqeo9M.s 			page 9


 323              		.loc 2 47 13 is_stmt 1
 324 01a0 1B971400 		slliw	a4,s1,1
 325              	.LVL36:
 326              	.LBB17:
 327              	.LBB18:
  21:src/../h/my_console.h ****         return;
 328              		.loc 1 21 5
 329 01a4 E30A27F1 		beq	a4,s2,.L16
  24:src/../h/my_console.h ****     putString(file);
 330              		.loc 1 24 5
  24:src/../h/my_console.h ****     putString(file);
 331              		.loc 1 24 14 is_stmt 0
 332 01a8 17050000 		lla	a0,.LC0
 332      13050500 
 333 01b0 97000000 		call	_Z9putStringPKc@plt
 333      E7800000 
 334              	.LVL37:
  25:src/../h/my_console.h ****     putString("    line: ");
 335              		.loc 1 25 5 is_stmt 1
  25:src/../h/my_console.h ****     putString("    line: ");
 336              		.loc 1 25 14 is_stmt 0
 337 01b8 17050000 		lla	a0,.LC4
 337      13050500 
 338 01c0 97000000 		call	_Z9putStringPKc@plt
 338      E7800000 
 339              	.LVL38:
  26:src/../h/my_console.h ****     putInt(line);
 340              		.loc 1 26 5 is_stmt 1
  26:src/../h/my_console.h ****     putInt(line);
 341              		.loc 1 26 14 is_stmt 0
 342 01c8 17050000 		lla	a0,.LC1
 342      13050500 
 343 01d0 97000000 		call	_Z9putStringPKc@plt
 343      E7800000 
 344              	.LVL39:
  27:src/../h/my_console.h ****     putString("   ===========================");
 345              		.loc 1 27 5 is_stmt 1
  27:src/../h/my_console.h ****     putString("   ===========================");
 346              		.loc 1 27 11 is_stmt 0
 347 01d8 1305F002 		li	a0,47
 348 01dc 97000000 		call	_Z6putInti@plt
 348      E7800000 
 349              	.LVL40:
  28:src/../h/my_console.h ****     putNewline();
 350              		.loc 1 28 5 is_stmt 1
  28:src/../h/my_console.h ****     putNewline();
 351              		.loc 1 28 14 is_stmt 0
 352 01e4 17050000 		lla	a0,.LC2
 352      13050500 
 353 01ec 97000000 		call	_Z9putStringPKc@plt
 353      E7800000 
 354              	.LVL41:
  29:src/../h/my_console.h **** 
 355              		.loc 1 29 5 is_stmt 1
  29:src/../h/my_console.h **** 
 356              		.loc 1 29 15 is_stmt 0
 357 01f4 97000000 		call	_Z10putNewlinev@plt
GAS LISTING /tmp/ccWqeo9M.s 			page 10


 357      E7800000 
 358              	.LVL42:
 359              		.loc 1 31 5 is_stmt 1
 360              		.loc 1 31 15 is_stmt 0
 361 01fc 97000000 		call	_Z10stopKernelv@plt
 361      E7800000 
 362              	.LVL43:
 363              	.L20:
 364              	.LBE18:
 365              	.LBE17:
 366              	.LBE16:
 367              	.LBE15:
 368              	.LBB20:
 369              	.LBB14:
  24:src/../h/my_console.h ****     putString(file);
 370              		.loc 1 24 5 is_stmt 1
  24:src/../h/my_console.h ****     putString(file);
 371              		.loc 1 24 14 is_stmt 0
 372 0204 17050000 		lla	a0,.LC0
 372      13050500 
 373 020c 97000000 		call	_Z9putStringPKc@plt
 373      E7800000 
 374              	.LVL44:
  25:src/../h/my_console.h ****     putString("    line: ");
 375              		.loc 1 25 5 is_stmt 1
  25:src/../h/my_console.h ****     putString("    line: ");
 376              		.loc 1 25 14 is_stmt 0
 377 0214 17050000 		lla	a0,.LC4
 377      13050500 
 378 021c 97000000 		call	_Z9putStringPKc@plt
 378      E7800000 
 379              	.LVL45:
  26:src/../h/my_console.h ****     putInt(line);
 380              		.loc 1 26 5 is_stmt 1
  26:src/../h/my_console.h ****     putInt(line);
 381              		.loc 1 26 14 is_stmt 0
 382 0224 17050000 		lla	a0,.LC1
 382      13050500 
 383 022c 97000000 		call	_Z9putStringPKc@plt
 383      E7800000 
 384              	.LVL46:
  27:src/../h/my_console.h ****     putString("   ===========================");
 385              		.loc 1 27 5 is_stmt 1
  27:src/../h/my_console.h ****     putString("   ===========================");
 386              		.loc 1 27 11 is_stmt 0
 387 0234 1305A001 		li	a0,26
 388 0238 97000000 		call	_Z6putInti@plt
 388      E7800000 
 389              	.LVL47:
  28:src/../h/my_console.h ****     putNewline();
 390              		.loc 1 28 5 is_stmt 1
  28:src/../h/my_console.h ****     putNewline();
 391              		.loc 1 28 14 is_stmt 0
 392 0240 17050000 		lla	a0,.LC2
 392      13050500 
 393 0248 97000000 		call	_Z9putStringPKc@plt
 393      E7800000 
GAS LISTING /tmp/ccWqeo9M.s 			page 11


 394              	.LVL48:
  29:src/../h/my_console.h **** 
 395              		.loc 1 29 5 is_stmt 1
  29:src/../h/my_console.h **** 
 396              		.loc 1 29 15 is_stmt 0
 397 0250 97000000 		call	_Z10putNewlinev@plt
 397      E7800000 
 398              	.LVL49:
 399              		.loc 1 31 5 is_stmt 1
 400              		.loc 1 31 15 is_stmt 0
 401 0258 97000000 		call	_Z10stopKernelv@plt
 401      E7800000 
 402              	.LVL50:
 403              	.L21:
 404              	.LBE14:
 405              	.LBE20:
 406              	.LBB21:
 407              	.LBB19:
  38:src/APP.cpp   ****             }
 408              		.loc 2 38 17 is_stmt 1
 409 0260 37755402 		li	a0,39088128
 410 0264 13059502 		addi	a0,a0,41
 411 0268 3385AA40 		sub	a0,s5,a0
 412 026c 13066002 		li	a2,38
 413 0270 97050000 		lla	a1,.LC4
 413      93850500 
 414 0278 13351500 		seqz	a0,a0
 415 027c 97000000 		call	_Z7_assertbPKci
 415      E7800000 
 416              	.LVL51:
 417 0284 6FF01FEE 		j	.L17
 418              	.LVL52:
 419              	.L14:
 420              	.LBE19:
 421              	.LBE21:
 422              	.LBE11:
  48:src/APP.cpp   ****         }
  49:src/APP.cpp   ****     }
  50:src/APP.cpp   **** 
  51:src/APP.cpp   ****     assert(MemAlloc::get()->getUserlandUsage() == 0);
 423              		.loc 2 51 5
 424 0288 97000000 		call	_ZN8MemAlloc3getEv@plt
 424      E7800000 
 425              	.LVL53:
 426 0290 97000000 		call	_ZN8MemAlloc16getUserlandUsageEv@plt
 426      E7800000 
 427              	.LVL54:
 428              	.LBB22:
 429              	.LBB23:
  21:src/../h/my_console.h ****         return;
 430              		.loc 1 21 5
 431 0298 63120504 		bnez	a0,.L22
  22:src/../h/my_console.h **** 
 432              		.loc 1 22 9
 433              	.LVL55:
 434              	.LBE23:
 435              	.LBE22:
GAS LISTING /tmp/ccWqeo9M.s 			page 12


  52:src/APP.cpp   ****     putString("====== Done testing system calls");
 436              		.loc 2 52 5
 437              		.loc 2 52 14 is_stmt 0
 438 029c 17050000 		lla	a0,.LC8
 438      13050500 
 439 02a4 97000000 		call	_Z9putStringPKc@plt
 439      E7800000 
 440              	.LVL56:
  53:src/APP.cpp   ****     putNewline();
 441              		.loc 2 53 5 is_stmt 1
 442              		.loc 2 53 15 is_stmt 0
 443 02ac 97000000 		call	_Z10putNewlinev@plt
 443      E7800000 
 444              	.LVL57:
  54:src/APP.cpp   **** }
 445              		.loc 2 54 1
 446 02b4 83308103 		ld	ra,56(sp)
 447              		.cfi_remember_state
 448              		.cfi_restore 1
 449 02b8 03340103 		ld	s0,48(sp)
 450              		.cfi_restore 8
 451              		.cfi_def_cfa 2, 64
 452 02bc 83348102 		ld	s1,40(sp)
 453              		.cfi_restore 9
 454 02c0 03390102 		ld	s2,32(sp)
 455              		.cfi_restore 18
 456              	.LVL58:
 457 02c4 83398101 		ld	s3,24(sp)
 458              		.cfi_restore 19
 459 02c8 033A0101 		ld	s4,16(sp)
 460              		.cfi_restore 20
 461 02cc 833A8100 		ld	s5,8(sp)
 462              		.cfi_restore 21
 463 02d0 033B0100 		ld	s6,0(sp)
 464              		.cfi_restore 22
 465 02d4 13010104 		addi	sp,sp,64
 466              		.cfi_def_cfa_offset 0
 467 02d8 67800000 		jr	ra
 468              	.LVL59:
 469              	.L22:
 470              		.cfi_restore_state
 471              	.LBB25:
 472              	.LBB24:
  24:src/../h/my_console.h ****     putString(file);
 473              		.loc 1 24 5 is_stmt 1
  24:src/../h/my_console.h ****     putString(file);
 474              		.loc 1 24 14 is_stmt 0
 475 02dc 17050000 		lla	a0,.LC0
 475      13050500 
 476              	.LVL60:
 477 02e4 97000000 		call	_Z9putStringPKc@plt
 477      E7800000 
 478              	.LVL61:
  25:src/../h/my_console.h ****     putString("    line: ");
 479              		.loc 1 25 5 is_stmt 1
  25:src/../h/my_console.h ****     putString("    line: ");
 480              		.loc 1 25 14 is_stmt 0
GAS LISTING /tmp/ccWqeo9M.s 			page 13


 481 02ec 17050000 		lla	a0,.LC4
 481      13050500 
 482 02f4 97000000 		call	_Z9putStringPKc@plt
 482      E7800000 
 483              	.LVL62:
  26:src/../h/my_console.h ****     putInt(line);
 484              		.loc 1 26 5 is_stmt 1
  26:src/../h/my_console.h ****     putInt(line);
 485              		.loc 1 26 14 is_stmt 0
 486 02fc 17050000 		lla	a0,.LC1
 486      13050500 
 487 0304 97000000 		call	_Z9putStringPKc@plt
 487      E7800000 
 488              	.LVL63:
  27:src/../h/my_console.h ****     putString("   ===========================");
 489              		.loc 1 27 5 is_stmt 1
  27:src/../h/my_console.h ****     putString("   ===========================");
 490              		.loc 1 27 11 is_stmt 0
 491 030c 13053003 		li	a0,51
 492 0310 97000000 		call	_Z6putInti@plt
 492      E7800000 
 493              	.LVL64:
  28:src/../h/my_console.h ****     putNewline();
 494              		.loc 1 28 5 is_stmt 1
  28:src/../h/my_console.h ****     putNewline();
 495              		.loc 1 28 14 is_stmt 0
 496 0318 17050000 		lla	a0,.LC2
 496      13050500 
 497 0320 97000000 		call	_Z9putStringPKc@plt
 497      E7800000 
 498              	.LVL65:
  29:src/../h/my_console.h **** 
 499              		.loc 1 29 5 is_stmt 1
  29:src/../h/my_console.h **** 
 500              		.loc 1 29 15 is_stmt 0
 501 0328 97000000 		call	_Z10putNewlinev@plt
 501      E7800000 
 502              	.LVL66:
 503              		.loc 1 31 5 is_stmt 1
 504              		.loc 1 31 15 is_stmt 0
 505 0330 97000000 		call	_Z10stopKernelv@plt
 505      E7800000 
 506              	.LVL67:
 507              	.LBE24:
 508              	.LBE25:
 509              		.cfi_endproc
 510              	.LFE8:
 512              		.section	.rodata.str1.8
 513 0069 00000000 		.align	3
 513      000000
 514              	.LC9:
 515 0070 3D3D3D20 		.string	"=== Testing \"testMemoryAllocator\""
 515      54657374 
 515      696E6720 
 515      22746573 
 515      744D656D 
 516 0092 00000000 		.align	3
GAS LISTING /tmp/ccWqeo9M.s 			page 14


 516      0000
 517              	.LC10:
 518 0098 3D3D3D20 		.string	"=== Done testing memory allocator"
 518      446F6E65 
 518      20746573 
 518      74696E67 
 518      206D656D 
 519              		.text
 520              		.align	2
 521              		.globl	_Z19testMemoryAllocatorv
 523              	_Z19testMemoryAllocatorv:
 524              	.LFB9:
  55:src/APP.cpp   **** 
  56:src/APP.cpp   **** void testMemoryAllocator()
  57:src/APP.cpp   **** {
 525              		.loc 2 57 1 is_stmt 1
 526              		.cfi_startproc
 527 0338 130101FD 		addi	sp,sp,-48
 528              		.cfi_def_cfa_offset 48
 529 033c 23341102 		sd	ra,40(sp)
 530 0340 23308102 		sd	s0,32(sp)
 531 0344 233C9100 		sd	s1,24(sp)
 532 0348 23382101 		sd	s2,16(sp)
 533 034c 23343101 		sd	s3,8(sp)
 534              		.cfi_offset 1, -8
 535              		.cfi_offset 8, -16
 536              		.cfi_offset 9, -24
 537              		.cfi_offset 18, -32
 538              		.cfi_offset 19, -40
 539 0350 13040103 		addi	s0,sp,48
 540              		.cfi_def_cfa 8, 0
  58:src/APP.cpp   ****     putString("=== Testing \"testMemoryAllocator\"");
 541              		.loc 2 58 5
 542              		.loc 2 58 14 is_stmt 0
 543 0354 17050000 		lla	a0,.LC9
 543      13050500 
 544 035c 97000000 		call	_Z9putStringPKc@plt
 544      E7800000 
 545              	.LVL68:
  59:src/APP.cpp   ****     putNewline();
 546              		.loc 2 59 5 is_stmt 1
 547              		.loc 2 59 15 is_stmt 0
 548 0364 97000000 		call	_Z10putNewlinev@plt
 548      E7800000 
 549              	.LVL69:
  60:src/APP.cpp   ****     int n = 1000;
 550              		.loc 2 60 5 is_stmt 1
  61:src/APP.cpp   ****     int **a;
 551              		.loc 2 61 5
  62:src/APP.cpp   ****     a = (int**)mem_alloc(n * sizeof(void*));
 552              		.loc 2 62 5
 553              		.loc 2 62 25 is_stmt 0
 554 036c 37250000 		li	a0,8192
 555 0370 130505F4 		addi	a0,a0,-192
 556 0374 97000000 		call	_Z9mem_allocm@plt
 556      E7800000 
 557              	.LVL70:
GAS LISTING /tmp/ccWqeo9M.s 			page 15


 558 037c 93090500 		mv	s3,a0
 559              	.LVL71:
  63:src/APP.cpp   ****     for(int i=0; i<n; i++)
 560              		.loc 2 63 5 is_stmt 1
 561              	.LBB35:
 562              		.loc 2 63 13 is_stmt 0
 563 0380 93040000 		li	s1,0
 564              	.LVL72:
 565              	.L25:
 566              		.loc 2 63 19 is_stmt 1 discriminator 3
 567 0384 9307703E 		li	a5,999
 568 0388 63C49702 		bgt	s1,a5,.L31
  64:src/APP.cpp   ****     {
  65:src/APP.cpp   ****         a[i] = (int*)mem_alloc(sizeof(int));
 569              		.loc 2 65 9 discriminator 2
 570              		.loc 2 65 12 is_stmt 0 discriminator 2
 571 038c 13993400 		slli	s2,s1,3
 572 0390 33892901 		add	s2,s3,s2
 573              		.loc 2 65 31 discriminator 2
 574 0394 13054000 		li	a0,4
 575 0398 97000000 		call	_Z9mem_allocm@plt
 575      E7800000 
 576              	.LVL73:
 577              		.loc 2 65 14 discriminator 2
 578 03a0 2330A900 		sd	a0,0(s2)
  66:src/APP.cpp   ****         *a[i] = i;
 579              		.loc 2 66 9 is_stmt 1 discriminator 2
 580              		.loc 2 66 15 is_stmt 0 discriminator 2
 581 03a4 23209500 		sw	s1,0(a0)
  63:src/APP.cpp   ****     for(int i=0; i<n; i++)
 582              		.loc 2 63 5 is_stmt 1 discriminator 2
 583 03a8 9B841400 		addiw	s1,s1,1
 584              	.LVL74:
 585 03ac 6FF09FFD 		j	.L25
 586              	.LVL75:
 587              	.L31:
 588              	.LBE35:
 589              	.LBB36:
  67:src/APP.cpp   ****     }
  68:src/APP.cpp   **** 
  69:src/APP.cpp   ****     int result = 0;
  70:src/APP.cpp   ****     for(int i=0; i<n; i++)
 590              		.loc 2 70 13 is_stmt 0
 591 03b0 93070000 		li	a5,0
 592              	.LBE36:
  69:src/APP.cpp   ****     for(int i=0; i<n; i++)
 593              		.loc 2 69 9
 594 03b4 93040000 		li	s1,0
 595              	.LVL76:
 596              	.L24:
 597              	.LBB37:
 598              		.loc 2 70 19 is_stmt 1 discriminator 3
 599 03b8 1307703E 		li	a4,999
 600 03bc 6340F702 		bgt	a5,a4,.L26
  71:src/APP.cpp   ****     {
  72:src/APP.cpp   ****         result += *a[i];
 601              		.loc 2 72 9 discriminator 2
GAS LISTING /tmp/ccWqeo9M.s 			page 16


 602              		.loc 2 72 23 is_stmt 0 discriminator 2
 603 03c0 13973700 		slli	a4,a5,3
 604 03c4 3387E900 		add	a4,s3,a4
 605 03c8 03370700 		ld	a4,0(a4)
 606              		.loc 2 72 19 discriminator 2
 607 03cc 03270700 		lw	a4,0(a4)
 608              		.loc 2 72 16 discriminator 2
 609 03d0 BB049700 		addw	s1,a4,s1
 610              	.LVL77:
  70:src/APP.cpp   ****     {
 611              		.loc 2 70 5 is_stmt 1 discriminator 2
 612 03d4 9B871700 		addiw	a5,a5,1
 613              	.LVL78:
 614 03d8 6FF01FFE 		j	.L24
 615              	.LVL79:
 616              	.L26:
 617              	.LBE37:
  73:src/APP.cpp   ****     }
  74:src/APP.cpp   **** 
  75:src/APP.cpp   ****     MemAlloc::get()->printUserlandUsage();
 618              		.loc 2 75 5
 619              		.loc 2 75 40 is_stmt 0
 620 03dc 97000000 		call	_ZN8MemAlloc3getEv@plt
 620      E7800000 
 621              	.LVL80:
 622 03e4 97000000 		call	_ZN8MemAlloc18printUserlandUsageEv@plt
 622      E7800000 
 623              	.LVL81:
  76:src/APP.cpp   **** 
  77:src/APP.cpp   ****     putInt(result);
 624              		.loc 2 77 5 is_stmt 1
 625              		.loc 2 77 11 is_stmt 0
 626 03ec 13850400 		mv	a0,s1
 627 03f0 97000000 		call	_Z6putInti@plt
 627      E7800000 
 628              	.LVL82:
  78:src/APP.cpp   ****     putNewline();
 629              		.loc 2 78 5 is_stmt 1
 630              		.loc 2 78 15 is_stmt 0
 631 03f8 97000000 		call	_Z10putNewlinev@plt
 631      E7800000 
 632              	.LVL83:
  79:src/APP.cpp   ****     assert(result == (n-1) * n / 2);
 633              		.loc 2 79 5 is_stmt 1
 634 0400 B7A70700 		li	a5,499712
 635 0404 9387C7F2 		addi	a5,a5,-212
 636              	.LVL84:
 637              	.LBB38:
 638              	.LBB39:
  21:src/../h/my_console.h ****         return;
 639              		.loc 1 21 5
 640 0408 6398F402 		bne	s1,a5,.L34
 641              	.LBE39:
 642              	.LBE38:
 643              	.LBB41:
  80:src/APP.cpp   **** 
  81:src/APP.cpp   ****     int t;
GAS LISTING /tmp/ccWqeo9M.s 			page 17


  82:src/APP.cpp   ****     for(int i=0; i<n; i++)
 644              		.loc 2 82 13 is_stmt 0
 645 040c 93040000 		li	s1,0
 646              	.LVL85:
 647              	.L27:
 648              		.loc 2 82 19 is_stmt 1 discriminator 3
 649 0410 9307703E 		li	a5,999
 650 0414 63CE970C 		bgt	s1,a5,.L28
  83:src/APP.cpp   ****     {
  84:src/APP.cpp   ****         t = mem_free(a[i]);
 651              		.loc 2 84 9 discriminator 2
 652              		.loc 2 84 25 is_stmt 0 discriminator 2
 653 0418 93973400 		slli	a5,s1,3
 654 041c B387F900 		add	a5,s3,a5
 655              		.loc 2 84 21 discriminator 2
 656 0420 03B50700 		ld	a0,0(a5)
 657 0424 97000000 		call	_Z8mem_freePv@plt
 657      E7800000 
 658              	.LVL86:
  85:src/APP.cpp   ****         assert(t == 0);
 659              		.loc 2 85 9 is_stmt 1 discriminator 2
 660              	.LBB42:
 661              	.LBB43:
  21:src/../h/my_console.h ****         return;
 662              		.loc 1 21 5 discriminator 2
 663 042c 63140506 		bnez	a0,.L35
  22:src/../h/my_console.h **** 
 664              		.loc 1 22 9 discriminator 2
 665              	.LVL87:
 666              	.LBE43:
 667              	.LBE42:
  82:src/APP.cpp   ****     {
 668              		.loc 2 82 5 discriminator 2
 669 0430 9B841400 		addiw	s1,s1,1
 670              	.LVL88:
 671 0434 6FF0DFFD 		j	.L27
 672              	.LVL89:
 673              	.L34:
 674              	.LBE41:
 675              	.LBB46:
 676              	.LBB40:
  24:src/../h/my_console.h ****     putString(file);
 677              		.loc 1 24 5
  24:src/../h/my_console.h ****     putString(file);
 678              		.loc 1 24 14 is_stmt 0
 679 0438 17050000 		lla	a0,.LC0
 679      13050500 
 680 0440 97000000 		call	_Z9putStringPKc@plt
 680      E7800000 
 681              	.LVL90:
  25:src/../h/my_console.h ****     putString("    line: ");
 682              		.loc 1 25 5 is_stmt 1
  25:src/../h/my_console.h ****     putString("    line: ");
 683              		.loc 1 25 14 is_stmt 0
 684 0448 17050000 		lla	a0,.LC4
 684      13050500 
 685 0450 97000000 		call	_Z9putStringPKc@plt
GAS LISTING /tmp/ccWqeo9M.s 			page 18


 685      E7800000 
 686              	.LVL91:
  26:src/../h/my_console.h ****     putInt(line);
 687              		.loc 1 26 5 is_stmt 1
  26:src/../h/my_console.h ****     putInt(line);
 688              		.loc 1 26 14 is_stmt 0
 689 0458 17050000 		lla	a0,.LC1
 689      13050500 
 690 0460 97000000 		call	_Z9putStringPKc@plt
 690      E7800000 
 691              	.LVL92:
  27:src/../h/my_console.h ****     putString("   ===========================");
 692              		.loc 1 27 5 is_stmt 1
  27:src/../h/my_console.h ****     putString("   ===========================");
 693              		.loc 1 27 11 is_stmt 0
 694 0468 1305F004 		li	a0,79
 695 046c 97000000 		call	_Z6putInti@plt
 695      E7800000 
 696              	.LVL93:
  28:src/../h/my_console.h ****     putNewline();
 697              		.loc 1 28 5 is_stmt 1
  28:src/../h/my_console.h ****     putNewline();
 698              		.loc 1 28 14 is_stmt 0
 699 0474 17050000 		lla	a0,.LC2
 699      13050500 
 700 047c 97000000 		call	_Z9putStringPKc@plt
 700      E7800000 
 701              	.LVL94:
  29:src/../h/my_console.h **** 
 702              		.loc 1 29 5 is_stmt 1
  29:src/../h/my_console.h **** 
 703              		.loc 1 29 15 is_stmt 0
 704 0484 97000000 		call	_Z10putNewlinev@plt
 704      E7800000 
 705              	.LVL95:
 706              		.loc 1 31 5 is_stmt 1
 707              		.loc 1 31 15 is_stmt 0
 708 048c 97000000 		call	_Z10stopKernelv@plt
 708      E7800000 
 709              	.LVL96:
 710              	.L35:
 711              	.LBE40:
 712              	.LBE46:
 713              	.LBB47:
 714              	.LBB45:
 715              	.LBB44:
  24:src/../h/my_console.h ****     putString(file);
 716              		.loc 1 24 5 is_stmt 1
  24:src/../h/my_console.h ****     putString(file);
 717              		.loc 1 24 14 is_stmt 0
 718 0494 17050000 		lla	a0,.LC0
 718      13050500 
 719              	.LVL97:
 720 049c 97000000 		call	_Z9putStringPKc@plt
 720      E7800000 
 721              	.LVL98:
  25:src/../h/my_console.h ****     putString("    line: ");
GAS LISTING /tmp/ccWqeo9M.s 			page 19


 722              		.loc 1 25 5 is_stmt 1
  25:src/../h/my_console.h ****     putString("    line: ");
 723              		.loc 1 25 14 is_stmt 0
 724 04a4 17050000 		lla	a0,.LC4
 724      13050500 
 725 04ac 97000000 		call	_Z9putStringPKc@plt
 725      E7800000 
 726              	.LVL99:
  26:src/../h/my_console.h ****     putInt(line);
 727              		.loc 1 26 5 is_stmt 1
  26:src/../h/my_console.h ****     putInt(line);
 728              		.loc 1 26 14 is_stmt 0
 729 04b4 17050000 		lla	a0,.LC1
 729      13050500 
 730 04bc 97000000 		call	_Z9putStringPKc@plt
 730      E7800000 
 731              	.LVL100:
  27:src/../h/my_console.h ****     putString("   ===========================");
 732              		.loc 1 27 5 is_stmt 1
  27:src/../h/my_console.h ****     putString("   ===========================");
 733              		.loc 1 27 11 is_stmt 0
 734 04c4 13055005 		li	a0,85
 735 04c8 97000000 		call	_Z6putInti@plt
 735      E7800000 
 736              	.LVL101:
  28:src/../h/my_console.h ****     putNewline();
 737              		.loc 1 28 5 is_stmt 1
  28:src/../h/my_console.h ****     putNewline();
 738              		.loc 1 28 14 is_stmt 0
 739 04d0 17050000 		lla	a0,.LC2
 739      13050500 
 740 04d8 97000000 		call	_Z9putStringPKc@plt
 740      E7800000 
 741              	.LVL102:
  29:src/../h/my_console.h **** 
 742              		.loc 1 29 5 is_stmt 1
  29:src/../h/my_console.h **** 
 743              		.loc 1 29 15 is_stmt 0
 744 04e0 97000000 		call	_Z10putNewlinev@plt
 744      E7800000 
 745              	.LVL103:
 746              		.loc 1 31 5 is_stmt 1
 747              		.loc 1 31 15 is_stmt 0
 748 04e8 97000000 		call	_Z10stopKernelv@plt
 748      E7800000 
 749              	.LVL104:
 750              	.L28:
 751              	.LBE44:
 752              	.LBE45:
 753              	.LBE47:
  86:src/APP.cpp   ****     }
  87:src/APP.cpp   **** 
  88:src/APP.cpp   ****     t = mem_free(a);
 754              		.loc 2 88 5 is_stmt 1
 755              		.loc 2 88 17 is_stmt 0
 756 04f0 13850900 		mv	a0,s3
 757 04f4 97000000 		call	_Z8mem_freePv@plt
GAS LISTING /tmp/ccWqeo9M.s 			page 20


 757      E7800000 
 758              	.LVL105:
  89:src/APP.cpp   ****     assert(t == 0);
 759              		.loc 2 89 5 is_stmt 1
 760              	.LBB48:
 761              	.LBB49:
  21:src/../h/my_console.h ****         return;
 762              		.loc 1 21 5
 763 04fc 63140504 		bnez	a0,.L36
  22:src/../h/my_console.h **** 
 764              		.loc 1 22 9
 765              	.LVL106:
 766              	.LBE49:
 767              	.LBE48:
  90:src/APP.cpp   **** 
  91:src/APP.cpp   ****     MemAlloc::get()->printUserlandUsage();
 768              		.loc 2 91 5
 769              		.loc 2 91 40 is_stmt 0
 770 0500 97000000 		call	_ZN8MemAlloc3getEv@plt
 770      E7800000 
 771              	.LVL107:
 772 0508 97000000 		call	_ZN8MemAlloc18printUserlandUsageEv@plt
 772      E7800000 
 773              	.LVL108:
  92:src/APP.cpp   ****     putString("=== Done testing memory allocator");
 774              		.loc 2 92 5 is_stmt 1
 775              		.loc 2 92 14 is_stmt 0
 776 0510 17050000 		lla	a0,.LC10
 776      13050500 
 777 0518 97000000 		call	_Z9putStringPKc@plt
 777      E7800000 
 778              	.LVL109:
  93:src/APP.cpp   ****     putNewline();
 779              		.loc 2 93 5 is_stmt 1
 780              		.loc 2 93 15 is_stmt 0
 781 0520 97000000 		call	_Z10putNewlinev@plt
 781      E7800000 
 782              	.LVL110:
  94:src/APP.cpp   **** }
 783              		.loc 2 94 1
 784 0528 83308102 		ld	ra,40(sp)
 785              		.cfi_remember_state
 786              		.cfi_restore 1
 787 052c 03340102 		ld	s0,32(sp)
 788              		.cfi_restore 8
 789              		.cfi_def_cfa 2, 48
 790 0530 83348101 		ld	s1,24(sp)
 791              		.cfi_restore 9
 792              	.LVL111:
 793 0534 03390101 		ld	s2,16(sp)
 794              		.cfi_restore 18
 795 0538 83398100 		ld	s3,8(sp)
 796              		.cfi_restore 19
 797              	.LVL112:
 798 053c 13010103 		addi	sp,sp,48
 799              		.cfi_def_cfa_offset 0
 800 0540 67800000 		jr	ra
GAS LISTING /tmp/ccWqeo9M.s 			page 21


 801              	.LVL113:
 802              	.L36:
 803              		.cfi_restore_state
 804              	.LBB51:
 805              	.LBB50:
  24:src/../h/my_console.h ****     putString(file);
 806              		.loc 1 24 5 is_stmt 1
  24:src/../h/my_console.h ****     putString(file);
 807              		.loc 1 24 14 is_stmt 0
 808 0544 17050000 		lla	a0,.LC0
 808      13050500 
 809              	.LVL114:
 810 054c 97000000 		call	_Z9putStringPKc@plt
 810      E7800000 
 811              	.LVL115:
  25:src/../h/my_console.h ****     putString("    line: ");
 812              		.loc 1 25 5 is_stmt 1
  25:src/../h/my_console.h ****     putString("    line: ");
 813              		.loc 1 25 14 is_stmt 0
 814 0554 17050000 		lla	a0,.LC4
 814      13050500 
 815 055c 97000000 		call	_Z9putStringPKc@plt
 815      E7800000 
 816              	.LVL116:
  26:src/../h/my_console.h ****     putInt(line);
 817              		.loc 1 26 5 is_stmt 1
  26:src/../h/my_console.h ****     putInt(line);
 818              		.loc 1 26 14 is_stmt 0
 819 0564 17050000 		lla	a0,.LC1
 819      13050500 
 820 056c 97000000 		call	_Z9putStringPKc@plt
 820      E7800000 
 821              	.LVL117:
  27:src/../h/my_console.h ****     putString("   ===========================");
 822              		.loc 1 27 5 is_stmt 1
  27:src/../h/my_console.h ****     putString("   ===========================");
 823              		.loc 1 27 11 is_stmt 0
 824 0574 13059005 		li	a0,89
 825 0578 97000000 		call	_Z6putInti@plt
 825      E7800000 
 826              	.LVL118:
  28:src/../h/my_console.h ****     putNewline();
 827              		.loc 1 28 5 is_stmt 1
  28:src/../h/my_console.h ****     putNewline();
 828              		.loc 1 28 14 is_stmt 0
 829 0580 17050000 		lla	a0,.LC2
 829      13050500 
 830 0588 97000000 		call	_Z9putStringPKc@plt
 830      E7800000 
 831              	.LVL119:
  29:src/../h/my_console.h **** 
 832              		.loc 1 29 5 is_stmt 1
  29:src/../h/my_console.h **** 
 833              		.loc 1 29 15 is_stmt 0
 834 0590 97000000 		call	_Z10putNewlinev@plt
 834      E7800000 
 835              	.LVL120:
GAS LISTING /tmp/ccWqeo9M.s 			page 22


 836              		.loc 1 31 5 is_stmt 1
 837              		.loc 1 31 15 is_stmt 0
 838 0598 97000000 		call	_Z10stopKernelv@plt
 838      E7800000 
 839              	.LVL121:
 840              	.LBE50:
 841              	.LBE51:
 842              		.cfi_endproc
 843              	.LFE9:
 845              		.section	.rodata.str1.8
 846 00ba 00000000 		.align	3
 846      0000
 847              	.LC11:
 848 00c0 41707020 		.string	"App started"
 848      73746172 
 848      74656400 
 849 00cc 00000000 		.align	3
 850              	.LC12:
 851 00d0 41707020 		.string	"App ended"
 851      656E6465 
 851      6400
 852              		.text
 853              		.align	2
 854              		.globl	_Z8userMainv
 856              	_Z8userMainv:
 857              	.LFB10:
  95:src/APP.cpp   **** 
  96:src/APP.cpp   **** void userMain()
  97:src/APP.cpp   **** {
 858              		.loc 2 97 1 is_stmt 1
 859              		.cfi_startproc
 860 05a0 130101FF 		addi	sp,sp,-16
 861              		.cfi_def_cfa_offset 16
 862 05a4 23341100 		sd	ra,8(sp)
 863 05a8 23308100 		sd	s0,0(sp)
 864              		.cfi_offset 1, -8
 865              		.cfi_offset 8, -16
 866 05ac 13040101 		addi	s0,sp,16
 867              		.cfi_def_cfa 8, 0
  98:src/APP.cpp   ****     putString("App started");
 868              		.loc 2 98 5
 869              		.loc 2 98 14 is_stmt 0
 870 05b0 17050000 		lla	a0,.LC11
 870      13050500 
 871 05b8 97000000 		call	_Z9putStringPKc@plt
 871      E7800000 
 872              	.LVL122:
  99:src/APP.cpp   ****     putNewline();
 873              		.loc 2 99 5 is_stmt 1
 874              		.loc 2 99 15 is_stmt 0
 875 05c0 97000000 		call	_Z10putNewlinev@plt
 875      E7800000 
 876              	.LVL123:
 100:src/APP.cpp   ****     assert(MemAlloc::get()->getUserlandUsage() == 0);
 877              		.loc 2 100 5 is_stmt 1
 878 05c8 97000000 		call	_ZN8MemAlloc3getEv@plt
 878      E7800000 
GAS LISTING /tmp/ccWqeo9M.s 			page 23


 879              	.LVL124:
 880 05d0 97000000 		call	_ZN8MemAlloc16getUserlandUsageEv@plt
 880      E7800000 
 881              	.LVL125:
 882              	.LBB56:
 883              	.LBB57:
  21:src/../h/my_console.h ****         return;
 884              		.loc 1 21 5
 885 05d8 63180504 		bnez	a0,.L41
  22:src/../h/my_console.h **** 
 886              		.loc 1 22 9
 887              	.LVL126:
 888              	.LBE57:
 889              	.LBE56:
 101:src/APP.cpp   **** 
 102:src/APP.cpp   ****     testSystemCalls();
 890              		.loc 2 102 5
 891              		.loc 2 102 20 is_stmt 0
 892 05dc 97000000 		call	_Z15testSystemCallsv
 892      E7800000 
 893              	.LVL127:
 103:src/APP.cpp   ****     testMemoryAllocator();
 894              		.loc 2 103 5 is_stmt 1
 895              		.loc 2 103 24 is_stmt 0
 896 05e4 97000000 		call	_Z19testMemoryAllocatorv
 896      E7800000 
 897              	.LVL128:
 104:src/APP.cpp   **** 
 105:src/APP.cpp   ****     assert(MemAlloc::get()->getUserlandUsage() == 0);
 898              		.loc 2 105 5 is_stmt 1
 899 05ec 97000000 		call	_ZN8MemAlloc3getEv@plt
 899      E7800000 
 900              	.LVL129:
 901 05f4 97000000 		call	_ZN8MemAlloc16getUserlandUsageEv@plt
 901      E7800000 
 902              	.LVL130:
 903              	.LBB59:
 904              	.LBB60:
  21:src/../h/my_console.h ****         return;
 905              		.loc 1 21 5
 906 05fc 63140508 		bnez	a0,.L42
  22:src/../h/my_console.h **** 
 907              		.loc 1 22 9
 908              	.LVL131:
 909              	.LBE60:
 910              	.LBE59:
 106:src/APP.cpp   ****     putString("App ended");
 911              		.loc 2 106 5
 912              		.loc 2 106 14 is_stmt 0
 913 0600 17050000 		lla	a0,.LC12
 913      13050500 
 914 0608 97000000 		call	_Z9putStringPKc@plt
 914      E7800000 
 915              	.LVL132:
 107:src/APP.cpp   ****     putNewline();
 916              		.loc 2 107 5 is_stmt 1
 917              		.loc 2 107 15 is_stmt 0
GAS LISTING /tmp/ccWqeo9M.s 			page 24


 918 0610 97000000 		call	_Z10putNewlinev@plt
 918      E7800000 
 919              	.LVL133:
 108:src/APP.cpp   **** }
 920              		.loc 2 108 1
 921 0618 83308100 		ld	ra,8(sp)
 922              		.cfi_remember_state
 923              		.cfi_restore 1
 924 061c 03340100 		ld	s0,0(sp)
 925              		.cfi_restore 8
 926              		.cfi_def_cfa 2, 16
 927 0620 13010101 		addi	sp,sp,16
 928              		.cfi_def_cfa_offset 0
 929 0624 67800000 		jr	ra
 930              	.LVL134:
 931              	.L41:
 932              		.cfi_restore_state
 933              	.LBB62:
 934              	.LBB58:
  24:src/../h/my_console.h ****     putString(file);
 935              		.loc 1 24 5 is_stmt 1
  24:src/../h/my_console.h ****     putString(file);
 936              		.loc 1 24 14 is_stmt 0
 937 0628 17050000 		lla	a0,.LC0
 937      13050500 
 938              	.LVL135:
 939 0630 97000000 		call	_Z9putStringPKc@plt
 939      E7800000 
 940              	.LVL136:
  25:src/../h/my_console.h ****     putString("    line: ");
 941              		.loc 1 25 5 is_stmt 1
  25:src/../h/my_console.h ****     putString("    line: ");
 942              		.loc 1 25 14 is_stmt 0
 943 0638 17050000 		lla	a0,.LC4
 943      13050500 
 944 0640 97000000 		call	_Z9putStringPKc@plt
 944      E7800000 
 945              	.LVL137:
  26:src/../h/my_console.h ****     putInt(line);
 946              		.loc 1 26 5 is_stmt 1
  26:src/../h/my_console.h ****     putInt(line);
 947              		.loc 1 26 14 is_stmt 0
 948 0648 17050000 		lla	a0,.LC1
 948      13050500 
 949 0650 97000000 		call	_Z9putStringPKc@plt
 949      E7800000 
 950              	.LVL138:
  27:src/../h/my_console.h ****     putString("   ===========================");
 951              		.loc 1 27 5 is_stmt 1
  27:src/../h/my_console.h ****     putString("   ===========================");
 952              		.loc 1 27 11 is_stmt 0
 953 0658 13054006 		li	a0,100
 954 065c 97000000 		call	_Z6putInti@plt
 954      E7800000 
 955              	.LVL139:
  28:src/../h/my_console.h ****     putNewline();
 956              		.loc 1 28 5 is_stmt 1
GAS LISTING /tmp/ccWqeo9M.s 			page 25


  28:src/../h/my_console.h ****     putNewline();
 957              		.loc 1 28 14 is_stmt 0
 958 0664 17050000 		lla	a0,.LC2
 958      13050500 
 959 066c 97000000 		call	_Z9putStringPKc@plt
 959      E7800000 
 960              	.LVL140:
  29:src/../h/my_console.h **** 
 961              		.loc 1 29 5 is_stmt 1
  29:src/../h/my_console.h **** 
 962              		.loc 1 29 15 is_stmt 0
 963 0674 97000000 		call	_Z10putNewlinev@plt
 963      E7800000 
 964              	.LVL141:
 965              		.loc 1 31 5 is_stmt 1
 966              		.loc 1 31 15 is_stmt 0
 967 067c 97000000 		call	_Z10stopKernelv@plt
 967      E7800000 
 968              	.LVL142:
 969              	.L42:
 970              	.LBE58:
 971              	.LBE62:
 972              	.LBB63:
 973              	.LBB61:
  24:src/../h/my_console.h ****     putString(file);
 974              		.loc 1 24 5 is_stmt 1
  24:src/../h/my_console.h ****     putString(file);
 975              		.loc 1 24 14 is_stmt 0
 976 0684 17050000 		lla	a0,.LC0
 976      13050500 
 977              	.LVL143:
 978 068c 97000000 		call	_Z9putStringPKc@plt
 978      E7800000 
 979              	.LVL144:
  25:src/../h/my_console.h ****     putString("    line: ");
 980              		.loc 1 25 5 is_stmt 1
  25:src/../h/my_console.h ****     putString("    line: ");
 981              		.loc 1 25 14 is_stmt 0
 982 0694 17050000 		lla	a0,.LC4
 982      13050500 
 983 069c 97000000 		call	_Z9putStringPKc@plt
 983      E7800000 
 984              	.LVL145:
  26:src/../h/my_console.h ****     putInt(line);
 985              		.loc 1 26 5 is_stmt 1
  26:src/../h/my_console.h ****     putInt(line);
 986              		.loc 1 26 14 is_stmt 0
 987 06a4 17050000 		lla	a0,.LC1
 987      13050500 
 988 06ac 97000000 		call	_Z9putStringPKc@plt
 988      E7800000 
 989              	.LVL146:
  27:src/../h/my_console.h ****     putString("   ===========================");
 990              		.loc 1 27 5 is_stmt 1
  27:src/../h/my_console.h ****     putString("   ===========================");
 991              		.loc 1 27 11 is_stmt 0
 992 06b4 13059006 		li	a0,105
GAS LISTING /tmp/ccWqeo9M.s 			page 26


 993 06b8 97000000 		call	_Z6putInti@plt
 993      E7800000 
 994              	.LVL147:
  28:src/../h/my_console.h ****     putNewline();
 995              		.loc 1 28 5 is_stmt 1
  28:src/../h/my_console.h ****     putNewline();
 996              		.loc 1 28 14 is_stmt 0
 997 06c0 17050000 		lla	a0,.LC2
 997      13050500 
 998 06c8 97000000 		call	_Z9putStringPKc@plt
 998      E7800000 
 999              	.LVL148:
  29:src/../h/my_console.h **** 
 1000              		.loc 1 29 5 is_stmt 1
  29:src/../h/my_console.h **** 
 1001              		.loc 1 29 15 is_stmt 0
 1002 06d0 97000000 		call	_Z10putNewlinev@plt
 1002      E7800000 
 1003              	.LVL149:
 1004              		.loc 1 31 5 is_stmt 1
 1005              		.loc 1 31 15 is_stmt 0
 1006 06d8 97000000 		call	_Z10stopKernelv@plt
 1006      E7800000 
 1007              	.LVL150:
 1008              	.LBE61:
 1009              	.LBE63:
 1010              		.cfi_endproc
 1011              	.LFE10:
 1013              		.align	2
 1014              		.globl	_Z16callFromUserModePFvvE
 1016              	_Z16callFromUserModePFvvE:
 1017              	.LFB11:
 109:src/APP.cpp   **** 
 110:src/APP.cpp   **** void callFromUserMode(void (*f)(void))
 111:src/APP.cpp   **** {
 1018              		.loc 2 111 1 is_stmt 1
 1019              		.cfi_startproc
 1020              	.LVL151:
 1021 06e0 130101FF 		addi	sp,sp,-16
 1022              		.cfi_def_cfa_offset 16
 1023 06e4 23341100 		sd	ra,8(sp)
 1024 06e8 23308100 		sd	s0,0(sp)
 1025              		.cfi_offset 1, -8
 1026              		.cfi_offset 8, -16
 1027 06ec 13040101 		addi	s0,sp,16
 1028              		.cfi_def_cfa 8, 0
 112:src/APP.cpp   ****     assert(false); // disabled because it gives an error after void main() finishes, idk why probab
 1029              		.loc 2 112 5
 1030              	.LVL152:
 1031              	.LBB66:
 1032              	.LBB67:
  21:src/../h/my_console.h ****         return;
 1033              		.loc 1 21 5
  24:src/../h/my_console.h ****     putString(file);
 1034              		.loc 1 24 5
  24:src/../h/my_console.h ****     putString(file);
 1035              		.loc 1 24 14 is_stmt 0
GAS LISTING /tmp/ccWqeo9M.s 			page 27


 1036 06f0 17050000 		lla	a0,.LC0
 1036      13050500 
 1037              	.LVL153:
 1038 06f8 97000000 		call	_Z9putStringPKc@plt
 1038      E7800000 
 1039              	.LVL154:
  25:src/../h/my_console.h ****     putString("    line: ");
 1040              		.loc 1 25 5 is_stmt 1
  25:src/../h/my_console.h ****     putString("    line: ");
 1041              		.loc 1 25 14 is_stmt 0
 1042 0700 17050000 		lla	a0,.LC4
 1042      13050500 
 1043 0708 97000000 		call	_Z9putStringPKc@plt
 1043      E7800000 
 1044              	.LVL155:
  26:src/../h/my_console.h ****     putInt(line);
 1045              		.loc 1 26 5 is_stmt 1
  26:src/../h/my_console.h ****     putInt(line);
 1046              		.loc 1 26 14 is_stmt 0
 1047 0710 17050000 		lla	a0,.LC1
 1047      13050500 
 1048 0718 97000000 		call	_Z9putStringPKc@plt
 1048      E7800000 
 1049              	.LVL156:
  27:src/../h/my_console.h ****     putString("   ===========================");
 1050              		.loc 1 27 5 is_stmt 1
  27:src/../h/my_console.h ****     putString("   ===========================");
 1051              		.loc 1 27 11 is_stmt 0
 1052 0720 13050007 		li	a0,112
 1053 0724 97000000 		call	_Z6putInti@plt
 1053      E7800000 
 1054              	.LVL157:
  28:src/../h/my_console.h ****     putNewline();
 1055              		.loc 1 28 5 is_stmt 1
  28:src/../h/my_console.h ****     putNewline();
 1056              		.loc 1 28 14 is_stmt 0
 1057 072c 17050000 		lla	a0,.LC2
 1057      13050500 
 1058 0734 97000000 		call	_Z9putStringPKc@plt
 1058      E7800000 
 1059              	.LVL158:
  29:src/../h/my_console.h **** 
 1060              		.loc 1 29 5 is_stmt 1
  29:src/../h/my_console.h **** 
 1061              		.loc 1 29 15 is_stmt 0
 1062 073c 97000000 		call	_Z10putNewlinev@plt
 1062      E7800000 
 1063              	.LVL159:
 1064              		.loc 1 31 5 is_stmt 1
 1065              		.loc 1 31 15 is_stmt 0
 1066 0744 97000000 		call	_Z10stopKernelv@plt
 1066      E7800000 
 1067              	.LVL160:
 1068              	.LBE67:
 1069              	.LBE66:
 1070              		.cfi_endproc
 1071              	.LFE11:
GAS LISTING /tmp/ccWqeo9M.s 			page 28


 1073              	.Letext0:
 1074              		.file 3 "src/../h/../lib/hw.h"
 1075              		.file 4 "src/../h/alloc.h"
 1076              		.file 5 "src/../h/c_api.h"
GAS LISTING /tmp/ccWqeo9M.s 			page 29

