GAS LISTING /tmp/ccE92s7W.s 			page 1


   1              		.file	"APP.cpp"
   2              		.option pic
   3              		.option norelax
   4              		.text
   5              	.Ltext0:
   6              		.align	2
   7              		.globl	_Z3fibm
   9              	_Z3fibm:
  10              	.LFB7:
  11              		.file 1 "src/APP.cpp"
   1:src/APP.cpp   **** #include "../h/my_console.h"
   2:src/APP.cpp   **** #include "../h/c_api.h"
   3:src/APP.cpp   **** #include "../h/alloc.h"
   4:src/APP.cpp   **** 
   5:src/APP.cpp   **** uint64 fib(uint64 n)
   6:src/APP.cpp   **** {
  12              		.loc 1 6 1
  13              		.cfi_startproc
  14              	.LVL0:
  15 0000 130101FE 		addi	sp,sp,-32
  16              		.cfi_def_cfa_offset 32
  17 0004 233C1100 		sd	ra,24(sp)
  18 0008 23388100 		sd	s0,16(sp)
  19 000c 23349100 		sd	s1,8(sp)
  20 0010 23302101 		sd	s2,0(sp)
  21              		.cfi_offset 1, -8
  22              		.cfi_offset 8, -16
  23              		.cfi_offset 9, -24
  24              		.cfi_offset 18, -32
  25 0014 13040102 		addi	s0,sp,32
  26              		.cfi_def_cfa 8, 0
  27 0018 93040500 		mv	s1,a0
   7:src/APP.cpp   ****     if(n == 1)
  28              		.loc 1 7 5
  29 001c 93071000 		li	a5,1
  30 0020 6304F500 		beq	a0,a5,.L2
   8:src/APP.cpp   ****         return 1;
   9:src/APP.cpp   ****     else if (n == 0)
  31              		.loc 1 9 10
  32 0024 63100502 		bnez	a0,.L4
  33              	.LVL1:
  34              	.L2:
  10:src/APP.cpp   ****         return 0;
  11:src/APP.cpp   ****     else return fib(n-1) + fib(n-2);
  12:src/APP.cpp   **** }
  35              		.loc 1 12 1 is_stmt 0
  36 0028 13850400 		mv	a0,s1
  37 002c 83308101 		ld	ra,24(sp)
  38              		.cfi_remember_state
  39              		.cfi_restore 1
  40 0030 03340101 		ld	s0,16(sp)
  41              		.cfi_restore 8
  42              		.cfi_def_cfa 2, 32
  43 0034 83348100 		ld	s1,8(sp)
  44              		.cfi_restore 9
  45 0038 03390100 		ld	s2,0(sp)
  46              		.cfi_restore 18
GAS LISTING /tmp/ccE92s7W.s 			page 2


  47 003c 13010102 		addi	sp,sp,32
  48              		.cfi_def_cfa_offset 0
  49 0040 67800000 		jr	ra
  50              	.LVL2:
  51              	.L4:
  52              		.cfi_restore_state
  11:src/APP.cpp   **** }
  53              		.loc 1 11 10 is_stmt 1
  11:src/APP.cpp   **** }
  54              		.loc 1 11 20 is_stmt 0
  55 0044 1305F5FF 		addi	a0,a0,-1
  56 0048 97000000 		call	_Z3fibm
  56      E7800000 
  57              	.LVL3:
  58 0050 13090500 		mv	s2,a0
  11:src/APP.cpp   **** }
  59              		.loc 1 11 31
  60 0054 1385E4FF 		addi	a0,s1,-2
  61 0058 97000000 		call	_Z3fibm
  61      E7800000 
  62              	.LVL4:
  11:src/APP.cpp   **** }
  63              		.loc 1 11 35
  64 0060 B304A900 		add	s1,s2,a0
  65              	.LVL5:
  66 0064 6FF05FFC 		j	.L2
  67              		.cfi_endproc
  68              	.LFE7:
  70              		.section	.rodata.str1.8,"aMS",@progbits,1
  71              		.align	3
  72              	.LC0:
  73 0000 3D3D3D20 		.string	"=== Testing \"testSystemCalls\""
  73      54657374 
  73      696E6720 
  73      22746573 
  73      74537973 
  74 001e 0000     		.align	3
  75              	.LC1:
  76 0020 74657374 		.string	"test_call() error. i="
  76      5F63616C 
  76      6C282920 
  76      6572726F 
  76      722E2069 
  77 0036 0000     		.align	3
  78              	.LC2:
  79 0038 20666962 		.string	" fib(i)="
  79      2869293D 
  79      00
  80 0041 00000000 		.align	3
  80      000000
  81              	.LC3:
  82 0048 20746573 		.string	" test_call(i)="
  82      745F6361 
  82      6C6C2869 
  82      293D00
  83 0057 00       		.align	3
  84              	.LC4:
GAS LISTING /tmp/ccE92s7W.s 			page 3


  85 0058 3D3D3D3D 		.string	"===================== ASSERT file: "
  85      3D3D3D3D 
  85      3D3D3D3D 
  85      3D3D3D3D 
  85      3D3D3D3D 
  86 007c 00000000 		.align	3
  87              	.LC5:
  88 0080 7372632F 		.string	"src/APP.cpp"
  88      4150502E 
  88      63707000 
  89 008c 00000000 		.align	3
  90              	.LC6:
  91 0090 20202020 		.string	"    line: "
  91      6C696E65 
  91      3A2000
  92 009b 00000000 		.align	3
  92      00
  93              	.LC7:
  94 00a0 2020203D 		.string	"   ==========================="
  94      3D3D3D3D 
  94      3D3D3D3D 
  94      3D3D3D3D 
  94      3D3D3D3D 
  95 00bf 00       		.align	3
  96              	.LC8:
  97 00c0 3D3D3D3D 		.string	"====== Done testing system calls"
  97      3D3D2044 
  97      6F6E6520 
  97      74657374 
  97      696E6720 
  98              		.text
  99              		.align	2
 100              		.globl	_Z15testSystemCallsv
 102              	_Z15testSystemCallsv:
 103              	.LFB8:
  13:src/APP.cpp   **** 
  14:src/APP.cpp   **** void testSystemCalls()
  15:src/APP.cpp   **** {
 104              		.loc 1 15 1 is_stmt 1
 105              		.cfi_startproc
 106 0068 130101FB 		addi	sp,sp,-80
 107              		.cfi_def_cfa_offset 80
 108 006c 23341104 		sd	ra,72(sp)
 109 0070 23308104 		sd	s0,64(sp)
 110 0074 233C9102 		sd	s1,56(sp)
 111 0078 23382103 		sd	s2,48(sp)
 112 007c 23343103 		sd	s3,40(sp)
 113 0080 23304103 		sd	s4,32(sp)
 114 0084 233C5101 		sd	s5,24(sp)
 115 0088 23386101 		sd	s6,16(sp)
 116 008c 23347101 		sd	s7,8(sp)
 117              		.cfi_offset 1, -8
 118              		.cfi_offset 8, -16
 119              		.cfi_offset 9, -24
 120              		.cfi_offset 18, -32
 121              		.cfi_offset 19, -40
 122              		.cfi_offset 20, -48
GAS LISTING /tmp/ccE92s7W.s 			page 4


 123              		.cfi_offset 21, -56
 124              		.cfi_offset 22, -64
 125              		.cfi_offset 23, -72
 126 0090 13040105 		addi	s0,sp,80
 127              		.cfi_def_cfa 8, 0
  16:src/APP.cpp   ****     putString("=== Testing \"testSystemCalls\"");
 128              		.loc 1 16 5
 129              		.loc 1 16 14 is_stmt 0
 130 0094 17050000 		lla	a0,.LC0
 130      13050500 
 131 009c 97000000 		call	_Z9putStringPKc@plt
 131      E7800000 
 132              	.LVL6:
  17:src/APP.cpp   ****     putNewline();
 133              		.loc 1 17 5 is_stmt 1
 134              		.loc 1 17 15 is_stmt 0
 135 00a4 97000000 		call	_Z10putNewlinev@plt
 135      E7800000 
 136              	.LVL7:
  18:src/APP.cpp   **** 
  19:src/APP.cpp   ****     int a = 0;
 137              		.loc 1 19 5 is_stmt 1
  20:src/APP.cpp   ****     int b = 0;
 138              		.loc 1 20 5
  21:src/APP.cpp   **** 
  22:src/APP.cpp   ****     for(int i=1; i<10; i++)
 139              		.loc 1 22 5
 140              	.LBB10:
 141              		.loc 1 22 13 is_stmt 0
 142 00ac 93041000 		li	s1,1
 143              	.LBE10:
  20:src/APP.cpp   ****     int b = 0;
 144              		.loc 1 20 9
 145 00b0 930A0000 		li	s5,0
  19:src/APP.cpp   ****     int b = 0;
 146              		.loc 1 19 9
 147 00b4 130A0000 		li	s4,0
 148              	.LVL8:
 149              	.L9:
 150              	.LBB20:
 151              		.loc 1 22 19 is_stmt 1 discriminator 1
 152 00b8 93079000 		li	a5,9
 153 00bc 63CC9714 		bgt	s1,a5,.L6
 154              	.LBB11:
  23:src/APP.cpp   ****     {
  24:src/APP.cpp   ****         a++;
 155              		.loc 1 24 9
 156              		.loc 1 24 10 is_stmt 0
 157 00c0 1B0B1A00 		addiw	s6,s4,1
 158              	.LVL9:
  25:src/APP.cpp   ****         b++;
 159              		.loc 1 25 9 is_stmt 1
 160              		.loc 1 25 10 is_stmt 0
 161 00c4 9B8B1A00 		addiw	s7,s5,1
 162              	.LVL10:
  26:src/APP.cpp   **** 
  27:src/APP.cpp   ****         uint64 called = test_call(i);
GAS LISTING /tmp/ccE92s7W.s 			page 5


 163              		.loc 1 27 9 is_stmt 1
 164              		.loc 1 27 34 is_stmt 0
 165 00c8 13850400 		mv	a0,s1
 166 00cc 97000000 		call	_Z9test_callm@plt
 166      E7800000 
 167              	.LVL11:
 168 00d4 13090500 		mv	s2,a0
 169              	.LVL12:
  28:src/APP.cpp   ****         uint64 actual = fib(i);
 170              		.loc 1 28 9 is_stmt 1
 171              		.loc 1 28 28 is_stmt 0
 172 00d8 13850400 		mv	a0,s1
 173              	.LVL13:
 174 00dc 97000000 		call	_Z3fibm
 174      E7800000 
 175              	.LVL14:
 176 00e4 93090500 		mv	s3,a0
 177              	.LVL15:
  29:src/APP.cpp   **** 
  30:src/APP.cpp   ****         if(called != actual)
 178              		.loc 1 30 9 is_stmt 1
 179 00e8 631CA900 		bne	s2,a0,.L12
  31:src/APP.cpp   ****         {
  32:src/APP.cpp   ****             putString("test_call() error. i=");
  33:src/APP.cpp   ****             putInt(i);
  34:src/APP.cpp   ****             putString(" fib(i)=");
  35:src/APP.cpp   ****             putU64(actual);
  36:src/APP.cpp   ****             putString(" test_call(i)=");
  37:src/APP.cpp   ****             putU64(called);
  38:src/APP.cpp   ****             putNewline();
  39:src/APP.cpp   ****             assert(false);
  40:src/APP.cpp   ****         }
  41:src/APP.cpp   **** 
  42:src/APP.cpp   ****         assert(a == b);
 180              		.loc 1 42 9 discriminator 2
 181              	.LVL16:
 182              	.LBB12:
 183              	.LBB13:
 184              		.file 2 "src/../h/my_console.h"
   1:src/../h/my_console.h **** #pragma once
   2:src/../h/my_console.h **** 
   3:src/../h/my_console.h **** #include "../h/risc.h"
   4:src/../h/my_console.h **** 
   5:src/../h/my_console.h **** #include "../lib/console.h"
   6:src/../h/my_console.h **** #include "../lib/hw.h"
   7:src/../h/my_console.h **** 
   8:src/../h/my_console.h **** #define __DEBUG_MODE
   9:src/../h/my_console.h **** 
  10:src/../h/my_console.h **** 
  11:src/../h/my_console.h **** void putString(const char* s);
  12:src/../h/my_console.h **** void putInt(int n);
  13:src/../h/my_console.h **** void putNewline();
  14:src/../h/my_console.h **** void putU64(uint64 n);
  15:src/../h/my_console.h **** void putBinary(uint64 n);
  16:src/../h/my_console.h **** 
  17:src/../h/my_console.h **** [[noreturn]] void stopKernel();
  18:src/../h/my_console.h **** 
GAS LISTING /tmp/ccE92s7W.s 			page 6


  19:src/../h/my_console.h **** inline void _assert(bool valid, const char* file, int line) // MUST be inline
  20:src/../h/my_console.h **** {
  21:src/../h/my_console.h ****     if(valid)
 185              		.loc 2 21 5 discriminator 2
 186 00ec 63165A0D 		bne	s4,s5,.L13
  22:src/../h/my_console.h ****         return;
 187              		.loc 2 22 9 discriminator 2
 188              	.LVL17:
 189              	.LBE13:
 190              	.LBE12:
 191              	.LBE11:
  22:src/APP.cpp   ****     {
 192              		.loc 1 22 5 discriminator 2
 193 00f0 9B841400 		addiw	s1,s1,1
 194              	.LVL18:
 195              	.LBB18:
  25:src/APP.cpp   **** 
 196              		.loc 1 25 10 is_stmt 0 discriminator 2
 197 00f4 938A0B00 		mv	s5,s7
 198              	.LVL19:
  24:src/APP.cpp   ****         b++;
 199              		.loc 1 24 10 discriminator 2
 200 00f8 130A0B00 		mv	s4,s6
 201              	.LVL20:
 202              	.LBE18:
  22:src/APP.cpp   ****     {
 203              		.loc 1 22 5 discriminator 2
 204 00fc 6FF0DFFB 		j	.L9
 205              	.LVL21:
 206              	.L12:
 207              	.LBB19:
  32:src/APP.cpp   ****             putInt(i);
 208              		.loc 1 32 13 is_stmt 1
  32:src/APP.cpp   ****             putInt(i);
 209              		.loc 1 32 22 is_stmt 0
 210 0100 17050000 		lla	a0,.LC1
 210      13050500 
 211              	.LVL22:
 212 0108 97000000 		call	_Z9putStringPKc@plt
 212      E7800000 
 213              	.LVL23:
  33:src/APP.cpp   ****             putString(" fib(i)=");
 214              		.loc 1 33 13 is_stmt 1
  33:src/APP.cpp   ****             putString(" fib(i)=");
 215              		.loc 1 33 19 is_stmt 0
 216 0110 13850400 		mv	a0,s1
 217 0114 97000000 		call	_Z6putInti@plt
 217      E7800000 
 218              	.LVL24:
  34:src/APP.cpp   ****             putU64(actual);
 219              		.loc 1 34 13 is_stmt 1
  34:src/APP.cpp   ****             putU64(actual);
 220              		.loc 1 34 22 is_stmt 0
 221 011c 17050000 		lla	a0,.LC2
 221      13050500 
 222 0124 97000000 		call	_Z9putStringPKc@plt
 222      E7800000 
GAS LISTING /tmp/ccE92s7W.s 			page 7


 223              	.LVL25:
  35:src/APP.cpp   ****             putString(" test_call(i)=");
 224              		.loc 1 35 13 is_stmt 1
  35:src/APP.cpp   ****             putString(" test_call(i)=");
 225              		.loc 1 35 19 is_stmt 0
 226 012c 13850900 		mv	a0,s3
 227 0130 97000000 		call	_Z6putU64m@plt
 227      E7800000 
 228              	.LVL26:
  36:src/APP.cpp   ****             putU64(called);
 229              		.loc 1 36 13 is_stmt 1
  36:src/APP.cpp   ****             putU64(called);
 230              		.loc 1 36 22 is_stmt 0
 231 0138 17050000 		lla	a0,.LC3
 231      13050500 
 232 0140 97000000 		call	_Z9putStringPKc@plt
 232      E7800000 
 233              	.LVL27:
  37:src/APP.cpp   ****             putNewline();
 234              		.loc 1 37 13 is_stmt 1
  37:src/APP.cpp   ****             putNewline();
 235              		.loc 1 37 19 is_stmt 0
 236 0148 13050900 		mv	a0,s2
 237 014c 97000000 		call	_Z6putU64m@plt
 237      E7800000 
 238              	.LVL28:
  38:src/APP.cpp   ****             assert(false);
 239              		.loc 1 38 13 is_stmt 1
  38:src/APP.cpp   ****             assert(false);
 240              		.loc 1 38 23 is_stmt 0
 241 0154 97000000 		call	_Z10putNewlinev@plt
 241      E7800000 
 242              	.LVL29:
  39:src/APP.cpp   ****         }
 243              		.loc 1 39 13 is_stmt 1
 244              	.LBB15:
 245              	.LBB16:
  21:src/../h/my_console.h ****         return;
 246              		.loc 2 21 5
  23:src/../h/my_console.h **** 
  24:src/../h/my_console.h ****     putString("===================== ASSERT file: ");
 247              		.loc 2 24 5
 248              		.loc 2 24 14 is_stmt 0
 249 015c 17050000 		lla	a0,.LC4
 249      13050500 
 250 0164 97000000 		call	_Z9putStringPKc@plt
 250      E7800000 
 251              	.LVL30:
  25:src/../h/my_console.h ****     putString(file);
 252              		.loc 2 25 5 is_stmt 1
 253              		.loc 2 25 14 is_stmt 0
 254 016c 17050000 		lla	a0,.LC5
 254      13050500 
 255 0174 97000000 		call	_Z9putStringPKc@plt
 255      E7800000 
 256              	.LVL31:
  26:src/../h/my_console.h ****     putString("    line: ");
GAS LISTING /tmp/ccE92s7W.s 			page 8


 257              		.loc 2 26 5 is_stmt 1
 258              		.loc 2 26 14 is_stmt 0
 259 017c 17050000 		lla	a0,.LC6
 259      13050500 
 260 0184 97000000 		call	_Z9putStringPKc@plt
 260      E7800000 
 261              	.LVL32:
  27:src/../h/my_console.h ****     putInt(line);
 262              		.loc 2 27 5 is_stmt 1
 263              		.loc 2 27 11 is_stmt 0
 264 018c 13057002 		li	a0,39
 265 0190 97000000 		call	_Z6putInti@plt
 265      E7800000 
 266              	.LVL33:
  28:src/../h/my_console.h ****     putString("   ===========================");
 267              		.loc 2 28 5 is_stmt 1
 268              		.loc 2 28 14 is_stmt 0
 269 0198 17050000 		lla	a0,.LC7
 269      13050500 
 270 01a0 97000000 		call	_Z9putStringPKc@plt
 270      E7800000 
 271              	.LVL34:
  29:src/../h/my_console.h ****     putNewline();
 272              		.loc 2 29 5 is_stmt 1
 273              		.loc 2 29 15 is_stmt 0
 274 01a8 97000000 		call	_Z10putNewlinev@plt
 274      E7800000 
 275              	.LVL35:
  30:src/../h/my_console.h **** 
  31:src/../h/my_console.h ****     stopKernel();
 276              		.loc 2 31 5 is_stmt 1
 277              		.loc 2 31 15 is_stmt 0
 278 01b0 97000000 		call	_Z10stopKernelv@plt
 278      E7800000 
 279              	.LVL36:
 280              	.L13:
 281              	.LBE16:
 282              	.LBE15:
 283              	.LBB17:
 284              	.LBB14:
  24:src/../h/my_console.h ****     putString(file);
 285              		.loc 2 24 5 is_stmt 1
  24:src/../h/my_console.h ****     putString(file);
 286              		.loc 2 24 14 is_stmt 0
 287 01b8 17050000 		lla	a0,.LC4
 287      13050500 
 288              	.LVL37:
 289 01c0 97000000 		call	_Z9putStringPKc@plt
 289      E7800000 
 290              	.LVL38:
  25:src/../h/my_console.h ****     putString("    line: ");
 291              		.loc 2 25 5 is_stmt 1
  25:src/../h/my_console.h ****     putString("    line: ");
 292              		.loc 2 25 14 is_stmt 0
 293 01c8 17050000 		lla	a0,.LC5
 293      13050500 
 294 01d0 97000000 		call	_Z9putStringPKc@plt
GAS LISTING /tmp/ccE92s7W.s 			page 9


 294      E7800000 
 295              	.LVL39:
  26:src/../h/my_console.h ****     putInt(line);
 296              		.loc 2 26 5 is_stmt 1
  26:src/../h/my_console.h ****     putInt(line);
 297              		.loc 2 26 14 is_stmt 0
 298 01d8 17050000 		lla	a0,.LC6
 298      13050500 
 299 01e0 97000000 		call	_Z9putStringPKc@plt
 299      E7800000 
 300              	.LVL40:
  27:src/../h/my_console.h ****     putString("   ===========================");
 301              		.loc 2 27 5 is_stmt 1
  27:src/../h/my_console.h ****     putString("   ===========================");
 302              		.loc 2 27 11 is_stmt 0
 303 01e8 1305A002 		li	a0,42
 304 01ec 97000000 		call	_Z6putInti@plt
 304      E7800000 
 305              	.LVL41:
  28:src/../h/my_console.h ****     putNewline();
 306              		.loc 2 28 5 is_stmt 1
  28:src/../h/my_console.h ****     putNewline();
 307              		.loc 2 28 14 is_stmt 0
 308 01f4 17050000 		lla	a0,.LC7
 308      13050500 
 309 01fc 97000000 		call	_Z9putStringPKc@plt
 309      E7800000 
 310              	.LVL42:
  29:src/../h/my_console.h **** 
 311              		.loc 2 29 5 is_stmt 1
  29:src/../h/my_console.h **** 
 312              		.loc 2 29 15 is_stmt 0
 313 0204 97000000 		call	_Z10putNewlinev@plt
 313      E7800000 
 314              	.LVL43:
 315              		.loc 2 31 5 is_stmt 1
 316              		.loc 2 31 15 is_stmt 0
 317 020c 97000000 		call	_Z10stopKernelv@plt
 317      E7800000 
 318              	.LVL44:
 319              	.L6:
 320              	.LBE14:
 321              	.LBE17:
 322              	.LBE19:
 323              	.LBE20:
  43:src/APP.cpp   ****     }
  44:src/APP.cpp   **** 
  45:src/APP.cpp   ****     assert(MemAlloc::get()->getUserlandUsage() == 0);
 324              		.loc 1 45 5 is_stmt 1
 325 0214 97000000 		call	_ZN8MemAlloc3getEv@plt
 325      E7800000 
 326              	.LVL45:
 327 021c 97000000 		call	_ZN8MemAlloc16getUserlandUsageEv@plt
 327      E7800000 
 328              	.LVL46:
 329              	.LBB21:
 330              	.LBB22:
GAS LISTING /tmp/ccE92s7W.s 			page 10


  21:src/../h/my_console.h ****         return;
 331              		.loc 2 21 5
 332 0224 63140504 		bnez	a0,.L14
  22:src/../h/my_console.h **** 
 333              		.loc 2 22 9
 334              	.LVL47:
 335              	.LBE22:
 336              	.LBE21:
  46:src/APP.cpp   ****     putString("====== Done testing system calls");
 337              		.loc 1 46 5
 338              		.loc 1 46 14 is_stmt 0
 339 0228 17050000 		lla	a0,.LC8
 339      13050500 
 340 0230 97000000 		call	_Z9putStringPKc@plt
 340      E7800000 
 341              	.LVL48:
  47:src/APP.cpp   ****     putNewline();
 342              		.loc 1 47 5 is_stmt 1
 343              		.loc 1 47 15 is_stmt 0
 344 0238 97000000 		call	_Z10putNewlinev@plt
 344      E7800000 
 345              	.LVL49:
  48:src/APP.cpp   **** }
 346              		.loc 1 48 1
 347 0240 83308104 		ld	ra,72(sp)
 348              		.cfi_remember_state
 349              		.cfi_restore 1
 350 0244 03340104 		ld	s0,64(sp)
 351              		.cfi_restore 8
 352              		.cfi_def_cfa 2, 80
 353 0248 83348103 		ld	s1,56(sp)
 354              		.cfi_restore 9
 355              	.LVL50:
 356 024c 03390103 		ld	s2,48(sp)
 357              		.cfi_restore 18
 358 0250 83398102 		ld	s3,40(sp)
 359              		.cfi_restore 19
 360 0254 033A0102 		ld	s4,32(sp)
 361              		.cfi_restore 20
 362              	.LVL51:
 363 0258 833A8101 		ld	s5,24(sp)
 364              		.cfi_restore 21
 365              	.LVL52:
 366 025c 033B0101 		ld	s6,16(sp)
 367              		.cfi_restore 22
 368 0260 833B8100 		ld	s7,8(sp)
 369              		.cfi_restore 23
 370 0264 13010105 		addi	sp,sp,80
 371              		.cfi_def_cfa_offset 0
 372 0268 67800000 		jr	ra
 373              	.LVL53:
 374              	.L14:
 375              		.cfi_restore_state
 376              	.LBB24:
 377              	.LBB23:
  24:src/../h/my_console.h ****     putString(file);
 378              		.loc 2 24 5 is_stmt 1
GAS LISTING /tmp/ccE92s7W.s 			page 11


  24:src/../h/my_console.h ****     putString(file);
 379              		.loc 2 24 14 is_stmt 0
 380 026c 17050000 		lla	a0,.LC4
 380      13050500 
 381              	.LVL54:
 382 0274 97000000 		call	_Z9putStringPKc@plt
 382      E7800000 
 383              	.LVL55:
  25:src/../h/my_console.h ****     putString("    line: ");
 384              		.loc 2 25 5 is_stmt 1
  25:src/../h/my_console.h ****     putString("    line: ");
 385              		.loc 2 25 14 is_stmt 0
 386 027c 17050000 		lla	a0,.LC5
 386      13050500 
 387 0284 97000000 		call	_Z9putStringPKc@plt
 387      E7800000 
 388              	.LVL56:
  26:src/../h/my_console.h ****     putInt(line);
 389              		.loc 2 26 5 is_stmt 1
  26:src/../h/my_console.h ****     putInt(line);
 390              		.loc 2 26 14 is_stmt 0
 391 028c 17050000 		lla	a0,.LC6
 391      13050500 
 392 0294 97000000 		call	_Z9putStringPKc@plt
 392      E7800000 
 393              	.LVL57:
  27:src/../h/my_console.h ****     putString("   ===========================");
 394              		.loc 2 27 5 is_stmt 1
  27:src/../h/my_console.h ****     putString("   ===========================");
 395              		.loc 2 27 11 is_stmt 0
 396 029c 1305D002 		li	a0,45
 397 02a0 97000000 		call	_Z6putInti@plt
 397      E7800000 
 398              	.LVL58:
  28:src/../h/my_console.h ****     putNewline();
 399              		.loc 2 28 5 is_stmt 1
  28:src/../h/my_console.h ****     putNewline();
 400              		.loc 2 28 14 is_stmt 0
 401 02a8 17050000 		lla	a0,.LC7
 401      13050500 
 402 02b0 97000000 		call	_Z9putStringPKc@plt
 402      E7800000 
 403              	.LVL59:
  29:src/../h/my_console.h **** 
 404              		.loc 2 29 5 is_stmt 1
  29:src/../h/my_console.h **** 
 405              		.loc 2 29 15 is_stmt 0
 406 02b8 97000000 		call	_Z10putNewlinev@plt
 406      E7800000 
 407              	.LVL60:
 408              		.loc 2 31 5 is_stmt 1
 409              		.loc 2 31 15 is_stmt 0
 410 02c0 97000000 		call	_Z10stopKernelv@plt
 410      E7800000 
 411              	.LVL61:
 412              	.LBE23:
 413              	.LBE24:
GAS LISTING /tmp/ccE92s7W.s 			page 12


 414              		.cfi_endproc
 415              	.LFE8:
 417              		.section	.rodata.str1.8
 418 00e1 00000000 		.align	3
 418      000000
 419              	.LC9:
 420 00e8 3D3D3D20 		.string	"=== Testing \"testMemoryAllocator\""
 420      54657374 
 420      696E6720 
 420      22746573 
 420      744D656D 
 421 010a 00000000 		.align	3
 421      0000
 422              	.LC10:
 423 0110 3D3D3D20 		.string	"=== Done testing memory allocator"
 423      446F6E65 
 423      20746573 
 423      74696E67 
 423      206D656D 
 424              		.text
 425              		.align	2
 426              		.globl	_Z19testMemoryAllocatorv
 428              	_Z19testMemoryAllocatorv:
 429              	.LFB9:
  49:src/APP.cpp   **** 
  50:src/APP.cpp   **** void testMemoryAllocator()
  51:src/APP.cpp   **** {
 430              		.loc 1 51 1 is_stmt 1
 431              		.cfi_startproc
 432 02c8 130101FD 		addi	sp,sp,-48
 433              		.cfi_def_cfa_offset 48
 434 02cc 23341102 		sd	ra,40(sp)
 435 02d0 23308102 		sd	s0,32(sp)
 436 02d4 233C9100 		sd	s1,24(sp)
 437 02d8 23382101 		sd	s2,16(sp)
 438 02dc 23343101 		sd	s3,8(sp)
 439              		.cfi_offset 1, -8
 440              		.cfi_offset 8, -16
 441              		.cfi_offset 9, -24
 442              		.cfi_offset 18, -32
 443              		.cfi_offset 19, -40
 444 02e0 13040103 		addi	s0,sp,48
 445              		.cfi_def_cfa 8, 0
  52:src/APP.cpp   ****     putString("=== Testing \"testMemoryAllocator\"");
 446              		.loc 1 52 5
 447              		.loc 1 52 14 is_stmt 0
 448 02e4 17050000 		lla	a0,.LC9
 448      13050500 
 449 02ec 97000000 		call	_Z9putStringPKc@plt
 449      E7800000 
 450              	.LVL62:
  53:src/APP.cpp   ****     putNewline();
 451              		.loc 1 53 5 is_stmt 1
 452              		.loc 1 53 15 is_stmt 0
 453 02f4 97000000 		call	_Z10putNewlinev@plt
 453      E7800000 
 454              	.LVL63:
GAS LISTING /tmp/ccE92s7W.s 			page 13


  54:src/APP.cpp   ****     int n = 1000;
 455              		.loc 1 54 5 is_stmt 1
  55:src/APP.cpp   ****     int **a;
 456              		.loc 1 55 5
  56:src/APP.cpp   ****     a = (int**)mem_alloc(n * sizeof(void*));
 457              		.loc 1 56 5
 458              		.loc 1 56 25 is_stmt 0
 459 02fc 37250000 		li	a0,8192
 460 0300 130505F4 		addi	a0,a0,-192
 461 0304 97000000 		call	_Z9mem_allocm@plt
 461      E7800000 
 462              	.LVL64:
 463 030c 93090500 		mv	s3,a0
 464              	.LVL65:
  57:src/APP.cpp   ****     for(int i=0; i<n; i++)
 465              		.loc 1 57 5 is_stmt 1
 466              	.LBB36:
 467              		.loc 1 57 13 is_stmt 0
 468 0310 93040000 		li	s1,0
 469              	.LVL66:
 470              	.L17:
 471              		.loc 1 57 19 is_stmt 1 discriminator 3
 472 0314 9307703E 		li	a5,999
 473 0318 63C49702 		bgt	s1,a5,.L24
  58:src/APP.cpp   ****     {
  59:src/APP.cpp   ****         a[i] = (int*)mem_alloc(sizeof(int));
 474              		.loc 1 59 9 discriminator 2
 475              		.loc 1 59 12 is_stmt 0 discriminator 2
 476 031c 13993400 		slli	s2,s1,3
 477 0320 33892901 		add	s2,s3,s2
 478              		.loc 1 59 31 discriminator 2
 479 0324 13054000 		li	a0,4
 480 0328 97000000 		call	_Z9mem_allocm@plt
 480      E7800000 
 481              	.LVL67:
 482              		.loc 1 59 14 discriminator 2
 483 0330 2330A900 		sd	a0,0(s2)
  60:src/APP.cpp   ****         *a[i] = i;
 484              		.loc 1 60 9 is_stmt 1 discriminator 2
 485              		.loc 1 60 15 is_stmt 0 discriminator 2
 486 0334 23209500 		sw	s1,0(a0)
  57:src/APP.cpp   ****     for(int i=0; i<n; i++)
 487              		.loc 1 57 5 is_stmt 1 discriminator 2
 488 0338 9B841400 		addiw	s1,s1,1
 489              	.LVL68:
 490 033c 6FF09FFD 		j	.L17
 491              	.LVL69:
 492              	.L24:
 493              	.LBE36:
 494              	.LBB37:
  61:src/APP.cpp   ****     }
  62:src/APP.cpp   **** 
  63:src/APP.cpp   ****     int result = 0;
  64:src/APP.cpp   ****     for(int i=0; i<n; i++)
 495              		.loc 1 64 13 is_stmt 0
 496 0340 93070000 		li	a5,0
 497              	.LBE37:
GAS LISTING /tmp/ccE92s7W.s 			page 14


  63:src/APP.cpp   ****     for(int i=0; i<n; i++)
 498              		.loc 1 63 9
 499 0344 93060000 		li	a3,0
 500              	.L16:
 501              	.LVL70:
 502              	.LBB38:
 503              		.loc 1 64 19 is_stmt 1 discriminator 3
 504 0348 1307703E 		li	a4,999
 505 034c 6340F702 		bgt	a5,a4,.L18
  65:src/APP.cpp   ****     {
  66:src/APP.cpp   ****         result += *a[i];
 506              		.loc 1 66 9 discriminator 2
 507              		.loc 1 66 23 is_stmt 0 discriminator 2
 508 0350 13973700 		slli	a4,a5,3
 509 0354 3387E900 		add	a4,s3,a4
 510 0358 03370700 		ld	a4,0(a4)
 511              		.loc 1 66 19 discriminator 2
 512 035c 03270700 		lw	a4,0(a4)
 513              		.loc 1 66 16 discriminator 2
 514 0360 BB06D700 		addw	a3,a4,a3
 515              	.LVL71:
  64:src/APP.cpp   ****     {
 516              		.loc 1 64 5 is_stmt 1 discriminator 2
 517 0364 9B871700 		addiw	a5,a5,1
 518              	.LVL72:
 519 0368 6FF01FFE 		j	.L16
 520              	.LVL73:
 521              	.L18:
 522              	.LBE38:
  67:src/APP.cpp   ****     }
  68:src/APP.cpp   **** 
  69:src/APP.cpp   **** //    uint64 vau = n * sizeof(void*);
  70:src/APP.cpp   **** //    if(n % MEM_BLOCK_SIZE != 0)
  71:src/APP.cpp   **** //        vau +=  MEM_BLOCK_SIZE - ((sizeof(int)* n) % MEM_BLOCK_SIZE);
  72:src/APP.cpp   **** //    vau += MEM_BLOCK_SIZE * n;
  73:src/APP.cpp   **** //    assert(MemAlloc::get()->getUserlandUsage() == vau);
  74:src/APP.cpp   **** 
  75:src/APP.cpp   **** //    putInt(result);
  76:src/APP.cpp   **** //    putNewline();
  77:src/APP.cpp   **** 
  78:src/APP.cpp   ****     assert(result == (n-1) * n / 2);
 523              		.loc 1 78 5
 524 036c B7A70700 		li	a5,499712
 525              	.LVL74:
 526 0370 9387C7F2 		addi	a5,a5,-212
 527              	.LVL75:
 528              	.LBB39:
 529              	.LBB40:
  21:src/../h/my_console.h ****         return;
 530              		.loc 2 21 5
 531 0374 6398F602 		bne	a3,a5,.L27
 532              	.LBE40:
 533              	.LBE39:
 534              	.LBB42:
  79:src/APP.cpp   **** 
  80:src/APP.cpp   **** //    uint64 oldTaken = MemAlloc::get()->getUserlandUsage();
  81:src/APP.cpp   **** //    uint64 newTaken;
GAS LISTING /tmp/ccE92s7W.s 			page 15


  82:src/APP.cpp   **** 
  83:src/APP.cpp   ****     int t;
  84:src/APP.cpp   ****     for(int i=0; i<n; i++)
 535              		.loc 1 84 13 is_stmt 0
 536 0378 93040000 		li	s1,0
 537              	.LVL76:
 538              	.L19:
 539              		.loc 1 84 19 is_stmt 1 discriminator 3
 540 037c 9307703E 		li	a5,999
 541 0380 63CE970C 		bgt	s1,a5,.L20
  85:src/APP.cpp   ****     {
  86:src/APP.cpp   ****         t = mem_free(a[i]);
 542              		.loc 1 86 9 discriminator 2
 543              		.loc 1 86 25 is_stmt 0 discriminator 2
 544 0384 93973400 		slli	a5,s1,3
 545 0388 B387F900 		add	a5,s3,a5
 546              		.loc 1 86 21 discriminator 2
 547 038c 03B50700 		ld	a0,0(a5)
 548 0390 97000000 		call	_Z8mem_freePv@plt
 548      E7800000 
 549              	.LVL77:
  87:src/APP.cpp   ****         assert(t == 0);
 550              		.loc 1 87 9 is_stmt 1 discriminator 2
 551              	.LBB43:
 552              	.LBB44:
  21:src/../h/my_console.h ****         return;
 553              		.loc 2 21 5 discriminator 2
 554 0398 63140506 		bnez	a0,.L28
  22:src/../h/my_console.h **** 
 555              		.loc 2 22 9 discriminator 2
 556              	.LVL78:
 557              	.LBE44:
 558              	.LBE43:
  84:src/APP.cpp   ****     {
 559              		.loc 1 84 5 discriminator 2
 560 039c 9B841400 		addiw	s1,s1,1
 561              	.LVL79:
 562 03a0 6FF0DFFD 		j	.L19
 563              	.LVL80:
 564              	.L27:
 565              	.LBE42:
 566              	.LBB47:
 567              	.LBB41:
  24:src/../h/my_console.h ****     putString(file);
 568              		.loc 2 24 5
  24:src/../h/my_console.h ****     putString(file);
 569              		.loc 2 24 14 is_stmt 0
 570 03a4 17050000 		lla	a0,.LC4
 570      13050500 
 571 03ac 97000000 		call	_Z9putStringPKc@plt
 571      E7800000 
 572              	.LVL81:
  25:src/../h/my_console.h ****     putString("    line: ");
 573              		.loc 2 25 5 is_stmt 1
  25:src/../h/my_console.h ****     putString("    line: ");
 574              		.loc 2 25 14 is_stmt 0
 575 03b4 17050000 		lla	a0,.LC5
GAS LISTING /tmp/ccE92s7W.s 			page 16


 575      13050500 
 576 03bc 97000000 		call	_Z9putStringPKc@plt
 576      E7800000 
 577              	.LVL82:
  26:src/../h/my_console.h ****     putInt(line);
 578              		.loc 2 26 5 is_stmt 1
  26:src/../h/my_console.h ****     putInt(line);
 579              		.loc 2 26 14 is_stmt 0
 580 03c4 17050000 		lla	a0,.LC6
 580      13050500 
 581 03cc 97000000 		call	_Z9putStringPKc@plt
 581      E7800000 
 582              	.LVL83:
  27:src/../h/my_console.h ****     putString("   ===========================");
 583              		.loc 2 27 5 is_stmt 1
  27:src/../h/my_console.h ****     putString("   ===========================");
 584              		.loc 2 27 11 is_stmt 0
 585 03d4 1305E004 		li	a0,78
 586 03d8 97000000 		call	_Z6putInti@plt
 586      E7800000 
 587              	.LVL84:
  28:src/../h/my_console.h ****     putNewline();
 588              		.loc 2 28 5 is_stmt 1
  28:src/../h/my_console.h ****     putNewline();
 589              		.loc 2 28 14 is_stmt 0
 590 03e0 17050000 		lla	a0,.LC7
 590      13050500 
 591 03e8 97000000 		call	_Z9putStringPKc@plt
 591      E7800000 
 592              	.LVL85:
  29:src/../h/my_console.h **** 
 593              		.loc 2 29 5 is_stmt 1
  29:src/../h/my_console.h **** 
 594              		.loc 2 29 15 is_stmt 0
 595 03f0 97000000 		call	_Z10putNewlinev@plt
 595      E7800000 
 596              	.LVL86:
 597              		.loc 2 31 5 is_stmt 1
 598              		.loc 2 31 15 is_stmt 0
 599 03f8 97000000 		call	_Z10stopKernelv@plt
 599      E7800000 
 600              	.LVL87:
 601              	.L28:
 602              	.LBE41:
 603              	.LBE47:
 604              	.LBB48:
 605              	.LBB46:
 606              	.LBB45:
  24:src/../h/my_console.h ****     putString(file);
 607              		.loc 2 24 5 is_stmt 1
  24:src/../h/my_console.h ****     putString(file);
 608              		.loc 2 24 14 is_stmt 0
 609 0400 17050000 		lla	a0,.LC4
 609      13050500 
 610              	.LVL88:
 611 0408 97000000 		call	_Z9putStringPKc@plt
 611      E7800000 
GAS LISTING /tmp/ccE92s7W.s 			page 17


 612              	.LVL89:
  25:src/../h/my_console.h ****     putString("    line: ");
 613              		.loc 2 25 5 is_stmt 1
  25:src/../h/my_console.h ****     putString("    line: ");
 614              		.loc 2 25 14 is_stmt 0
 615 0410 17050000 		lla	a0,.LC5
 615      13050500 
 616 0418 97000000 		call	_Z9putStringPKc@plt
 616      E7800000 
 617              	.LVL90:
  26:src/../h/my_console.h ****     putInt(line);
 618              		.loc 2 26 5 is_stmt 1
  26:src/../h/my_console.h ****     putInt(line);
 619              		.loc 2 26 14 is_stmt 0
 620 0420 17050000 		lla	a0,.LC6
 620      13050500 
 621 0428 97000000 		call	_Z9putStringPKc@plt
 621      E7800000 
 622              	.LVL91:
  27:src/../h/my_console.h ****     putString("   ===========================");
 623              		.loc 2 27 5 is_stmt 1
  27:src/../h/my_console.h ****     putString("   ===========================");
 624              		.loc 2 27 11 is_stmt 0
 625 0430 13057005 		li	a0,87
 626 0434 97000000 		call	_Z6putInti@plt
 626      E7800000 
 627              	.LVL92:
  28:src/../h/my_console.h ****     putNewline();
 628              		.loc 2 28 5 is_stmt 1
  28:src/../h/my_console.h ****     putNewline();
 629              		.loc 2 28 14 is_stmt 0
 630 043c 17050000 		lla	a0,.LC7
 630      13050500 
 631 0444 97000000 		call	_Z9putStringPKc@plt
 631      E7800000 
 632              	.LVL93:
  29:src/../h/my_console.h **** 
 633              		.loc 2 29 5 is_stmt 1
  29:src/../h/my_console.h **** 
 634              		.loc 2 29 15 is_stmt 0
 635 044c 97000000 		call	_Z10putNewlinev@plt
 635      E7800000 
 636              	.LVL94:
 637              		.loc 2 31 5 is_stmt 1
 638              		.loc 2 31 15 is_stmt 0
 639 0454 97000000 		call	_Z10stopKernelv@plt
 639      E7800000 
 640              	.LVL95:
 641              	.L20:
 642              	.LBE45:
 643              	.LBE46:
 644              	.LBE48:
  88:src/APP.cpp   **** 
  89:src/APP.cpp   **** //        newTaken = MemAlloc::get()->getUserlandUsage();
  90:src/APP.cpp   **** //        assert(oldTaken - newTaken == MEM_BLOCK_SIZE);
  91:src/APP.cpp   ****     }
  92:src/APP.cpp   **** 
GAS LISTING /tmp/ccE92s7W.s 			page 18


  93:src/APP.cpp   **** //    assert(MemAlloc::get()->getUserlandUsage() == MEM_BLOCK_SIZE);
  94:src/APP.cpp   **** 
  95:src/APP.cpp   ****     t = mem_free(a);
 645              		.loc 1 95 5 is_stmt 1
 646              		.loc 1 95 17 is_stmt 0
 647 045c 13850900 		mv	a0,s3
 648 0460 97000000 		call	_Z8mem_freePv@plt
 648      E7800000 
 649              	.LVL96:
  96:src/APP.cpp   ****     assert(t == 0);
 650              		.loc 1 96 5 is_stmt 1
 651              	.LBB49:
 652              	.LBB50:
  21:src/../h/my_console.h ****         return;
 653              		.loc 2 21 5
 654 0468 63160504 		bnez	a0,.L29
  22:src/../h/my_console.h **** 
 655              		.loc 2 22 9
 656              	.LVL97:
 657              	.LBE50:
 658              	.LBE49:
  97:src/APP.cpp   **** 
  98:src/APP.cpp   ****     assert(MemAlloc::get()->getUserlandUsage() == 0);
 659              		.loc 1 98 5
 660 046c 97000000 		call	_ZN8MemAlloc3getEv@plt
 660      E7800000 
 661              	.LVL98:
 662 0474 97000000 		call	_ZN8MemAlloc16getUserlandUsageEv@plt
 662      E7800000 
 663              	.LVL99:
 664              	.LBB52:
 665              	.LBB53:
  21:src/../h/my_console.h ****         return;
 666              		.loc 2 21 5
 667 047c 631A0508 		bnez	a0,.L30
  22:src/../h/my_console.h **** 
 668              		.loc 2 22 9
 669              	.LVL100:
 670              	.LBE53:
 671              	.LBE52:
  99:src/APP.cpp   ****     putString("=== Done testing memory allocator");
 672              		.loc 1 99 5
 673              		.loc 1 99 14 is_stmt 0
 674 0480 17050000 		lla	a0,.LC10
 674      13050500 
 675 0488 97000000 		call	_Z9putStringPKc@plt
 675      E7800000 
 676              	.LVL101:
 100:src/APP.cpp   ****     putNewline();
 677              		.loc 1 100 5 is_stmt 1
 678              		.loc 1 100 15 is_stmt 0
 679 0490 97000000 		call	_Z10putNewlinev@plt
 679      E7800000 
 680              	.LVL102:
 101:src/APP.cpp   **** }
 681              		.loc 1 101 1
 682 0498 83308102 		ld	ra,40(sp)
GAS LISTING /tmp/ccE92s7W.s 			page 19


 683              		.cfi_remember_state
 684              		.cfi_restore 1
 685 049c 03340102 		ld	s0,32(sp)
 686              		.cfi_restore 8
 687              		.cfi_def_cfa 2, 48
 688 04a0 83348101 		ld	s1,24(sp)
 689              		.cfi_restore 9
 690              	.LVL103:
 691 04a4 03390101 		ld	s2,16(sp)
 692              		.cfi_restore 18
 693 04a8 83398100 		ld	s3,8(sp)
 694              		.cfi_restore 19
 695              	.LVL104:
 696 04ac 13010103 		addi	sp,sp,48
 697              		.cfi_def_cfa_offset 0
 698 04b0 67800000 		jr	ra
 699              	.LVL105:
 700              	.L29:
 701              		.cfi_restore_state
 702              	.LBB55:
 703              	.LBB51:
  24:src/../h/my_console.h ****     putString(file);
 704              		.loc 2 24 5 is_stmt 1
  24:src/../h/my_console.h ****     putString(file);
 705              		.loc 2 24 14 is_stmt 0
 706 04b4 17050000 		lla	a0,.LC4
 706      13050500 
 707              	.LVL106:
 708 04bc 97000000 		call	_Z9putStringPKc@plt
 708      E7800000 
 709              	.LVL107:
  25:src/../h/my_console.h ****     putString("    line: ");
 710              		.loc 2 25 5 is_stmt 1
  25:src/../h/my_console.h ****     putString("    line: ");
 711              		.loc 2 25 14 is_stmt 0
 712 04c4 17050000 		lla	a0,.LC5
 712      13050500 
 713 04cc 97000000 		call	_Z9putStringPKc@plt
 713      E7800000 
 714              	.LVL108:
  26:src/../h/my_console.h ****     putInt(line);
 715              		.loc 2 26 5 is_stmt 1
  26:src/../h/my_console.h ****     putInt(line);
 716              		.loc 2 26 14 is_stmt 0
 717 04d4 17050000 		lla	a0,.LC6
 717      13050500 
 718 04dc 97000000 		call	_Z9putStringPKc@plt
 718      E7800000 
 719              	.LVL109:
  27:src/../h/my_console.h ****     putString("   ===========================");
 720              		.loc 2 27 5 is_stmt 1
  27:src/../h/my_console.h ****     putString("   ===========================");
 721              		.loc 2 27 11 is_stmt 0
 722 04e4 13050006 		li	a0,96
 723 04e8 97000000 		call	_Z6putInti@plt
 723      E7800000 
 724              	.LVL110:
GAS LISTING /tmp/ccE92s7W.s 			page 20


  28:src/../h/my_console.h ****     putNewline();
 725              		.loc 2 28 5 is_stmt 1
  28:src/../h/my_console.h ****     putNewline();
 726              		.loc 2 28 14 is_stmt 0
 727 04f0 17050000 		lla	a0,.LC7
 727      13050500 
 728 04f8 97000000 		call	_Z9putStringPKc@plt
 728      E7800000 
 729              	.LVL111:
  29:src/../h/my_console.h **** 
 730              		.loc 2 29 5 is_stmt 1
  29:src/../h/my_console.h **** 
 731              		.loc 2 29 15 is_stmt 0
 732 0500 97000000 		call	_Z10putNewlinev@plt
 732      E7800000 
 733              	.LVL112:
 734              		.loc 2 31 5 is_stmt 1
 735              		.loc 2 31 15 is_stmt 0
 736 0508 97000000 		call	_Z10stopKernelv@plt
 736      E7800000 
 737              	.LVL113:
 738              	.L30:
 739              	.LBE51:
 740              	.LBE55:
 741              	.LBB56:
 742              	.LBB54:
  24:src/../h/my_console.h ****     putString(file);
 743              		.loc 2 24 5 is_stmt 1
  24:src/../h/my_console.h ****     putString(file);
 744              		.loc 2 24 14 is_stmt 0
 745 0510 17050000 		lla	a0,.LC4
 745      13050500 
 746              	.LVL114:
 747 0518 97000000 		call	_Z9putStringPKc@plt
 747      E7800000 
 748              	.LVL115:
  25:src/../h/my_console.h ****     putString("    line: ");
 749              		.loc 2 25 5 is_stmt 1
  25:src/../h/my_console.h ****     putString("    line: ");
 750              		.loc 2 25 14 is_stmt 0
 751 0520 17050000 		lla	a0,.LC5
 751      13050500 
 752 0528 97000000 		call	_Z9putStringPKc@plt
 752      E7800000 
 753              	.LVL116:
  26:src/../h/my_console.h ****     putInt(line);
 754              		.loc 2 26 5 is_stmt 1
  26:src/../h/my_console.h ****     putInt(line);
 755              		.loc 2 26 14 is_stmt 0
 756 0530 17050000 		lla	a0,.LC6
 756      13050500 
 757 0538 97000000 		call	_Z9putStringPKc@plt
 757      E7800000 
 758              	.LVL117:
  27:src/../h/my_console.h ****     putString("   ===========================");
 759              		.loc 2 27 5 is_stmt 1
  27:src/../h/my_console.h ****     putString("   ===========================");
GAS LISTING /tmp/ccE92s7W.s 			page 21


 760              		.loc 2 27 11 is_stmt 0
 761 0540 13052006 		li	a0,98
 762 0544 97000000 		call	_Z6putInti@plt
 762      E7800000 
 763              	.LVL118:
  28:src/../h/my_console.h ****     putNewline();
 764              		.loc 2 28 5 is_stmt 1
  28:src/../h/my_console.h ****     putNewline();
 765              		.loc 2 28 14 is_stmt 0
 766 054c 17050000 		lla	a0,.LC7
 766      13050500 
 767 0554 97000000 		call	_Z9putStringPKc@plt
 767      E7800000 
 768              	.LVL119:
  29:src/../h/my_console.h **** 
 769              		.loc 2 29 5 is_stmt 1
  29:src/../h/my_console.h **** 
 770              		.loc 2 29 15 is_stmt 0
 771 055c 97000000 		call	_Z10putNewlinev@plt
 771      E7800000 
 772              	.LVL120:
 773              		.loc 2 31 5 is_stmt 1
 774              		.loc 2 31 15 is_stmt 0
 775 0564 97000000 		call	_Z10stopKernelv@plt
 775      E7800000 
 776              	.LVL121:
 777              	.LBE54:
 778              	.LBE56:
 779              		.cfi_endproc
 780              	.LFE9:
 782              		.section	.rodata.str1.8
 783 0132 00000000 		.align	3
 783      0000
 784              	.LC11:
 785 0138 41707020 		.string	"App started"
 785      73746172 
 785      74656400 
 786 0144 00000000 		.align	3
 787              	.LC12:
 788 0148 41707020 		.string	"App ended"
 788      656E6465 
 788      6400
 789              		.text
 790              		.align	2
 791              		.globl	_Z8userMainv
 793              	_Z8userMainv:
 794              	.LFB10:
 102:src/APP.cpp   **** 
 103:src/APP.cpp   **** void userMain()
 104:src/APP.cpp   **** {
 795              		.loc 1 104 1 is_stmt 1
 796              		.cfi_startproc
 797 056c 130101FF 		addi	sp,sp,-16
 798              		.cfi_def_cfa_offset 16
 799 0570 23341100 		sd	ra,8(sp)
 800 0574 23308100 		sd	s0,0(sp)
 801              		.cfi_offset 1, -8
GAS LISTING /tmp/ccE92s7W.s 			page 22


 802              		.cfi_offset 8, -16
 803 0578 13040101 		addi	s0,sp,16
 804              		.cfi_def_cfa 8, 0
 105:src/APP.cpp   ****     putString("App started");
 805              		.loc 1 105 5
 806              		.loc 1 105 14 is_stmt 0
 807 057c 17050000 		lla	a0,.LC11
 807      13050500 
 808 0584 97000000 		call	_Z9putStringPKc@plt
 808      E7800000 
 809              	.LVL122:
 106:src/APP.cpp   ****     putNewline();
 810              		.loc 1 106 5 is_stmt 1
 811              		.loc 1 106 15 is_stmt 0
 812 058c 97000000 		call	_Z10putNewlinev@plt
 812      E7800000 
 813              	.LVL123:
 107:src/APP.cpp   ****     assert(MemAlloc::get()->getUserlandUsage() == 0);
 814              		.loc 1 107 5 is_stmt 1
 815 0594 97000000 		call	_ZN8MemAlloc3getEv@plt
 815      E7800000 
 816              	.LVL124:
 817 059c 97000000 		call	_ZN8MemAlloc16getUserlandUsageEv@plt
 817      E7800000 
 818              	.LVL125:
 819              	.LBB61:
 820              	.LBB62:
  21:src/../h/my_console.h ****         return;
 821              		.loc 2 21 5
 822 05a4 63180504 		bnez	a0,.L35
  22:src/../h/my_console.h **** 
 823              		.loc 2 22 9
 824              	.LVL126:
 825              	.LBE62:
 826              	.LBE61:
 108:src/APP.cpp   **** 
 109:src/APP.cpp   ****     testSystemCalls();
 827              		.loc 1 109 5
 828              		.loc 1 109 20 is_stmt 0
 829 05a8 97000000 		call	_Z15testSystemCallsv
 829      E7800000 
 830              	.LVL127:
 110:src/APP.cpp   **** 
 111:src/APP.cpp   ****     testMemoryAllocator();
 831              		.loc 1 111 5 is_stmt 1
 832              		.loc 1 111 24 is_stmt 0
 833 05b0 97000000 		call	_Z19testMemoryAllocatorv
 833      E7800000 
 834              	.LVL128:
 112:src/APP.cpp   **** 
 113:src/APP.cpp   ****     assert(MemAlloc::get()->getUserlandUsage() == 0);
 835              		.loc 1 113 5 is_stmt 1
 836 05b8 97000000 		call	_ZN8MemAlloc3getEv@plt
 836      E7800000 
 837              	.LVL129:
 838 05c0 97000000 		call	_ZN8MemAlloc16getUserlandUsageEv@plt
 838      E7800000 
GAS LISTING /tmp/ccE92s7W.s 			page 23


 839              	.LVL130:
 840              	.LBB64:
 841              	.LBB65:
  21:src/../h/my_console.h ****         return;
 842              		.loc 2 21 5
 843 05c8 63140508 		bnez	a0,.L36
  22:src/../h/my_console.h **** 
 844              		.loc 2 22 9
 845              	.LVL131:
 846              	.LBE65:
 847              	.LBE64:
 114:src/APP.cpp   ****     putString("App ended");
 848              		.loc 1 114 5
 849              		.loc 1 114 14 is_stmt 0
 850 05cc 17050000 		lla	a0,.LC12
 850      13050500 
 851 05d4 97000000 		call	_Z9putStringPKc@plt
 851      E7800000 
 852              	.LVL132:
 115:src/APP.cpp   ****     putNewline();
 853              		.loc 1 115 5 is_stmt 1
 854              		.loc 1 115 15 is_stmt 0
 855 05dc 97000000 		call	_Z10putNewlinev@plt
 855      E7800000 
 856              	.LVL133:
 116:src/APP.cpp   **** }
 857              		.loc 1 116 1
 858 05e4 83308100 		ld	ra,8(sp)
 859              		.cfi_remember_state
 860              		.cfi_restore 1
 861 05e8 03340100 		ld	s0,0(sp)
 862              		.cfi_restore 8
 863              		.cfi_def_cfa 2, 16
 864 05ec 13010101 		addi	sp,sp,16
 865              		.cfi_def_cfa_offset 0
 866 05f0 67800000 		jr	ra
 867              	.LVL134:
 868              	.L35:
 869              		.cfi_restore_state
 870              	.LBB67:
 871              	.LBB63:
  24:src/../h/my_console.h ****     putString(file);
 872              		.loc 2 24 5 is_stmt 1
  24:src/../h/my_console.h ****     putString(file);
 873              		.loc 2 24 14 is_stmt 0
 874 05f4 17050000 		lla	a0,.LC4
 874      13050500 
 875              	.LVL135:
 876 05fc 97000000 		call	_Z9putStringPKc@plt
 876      E7800000 
 877              	.LVL136:
  25:src/../h/my_console.h ****     putString("    line: ");
 878              		.loc 2 25 5 is_stmt 1
  25:src/../h/my_console.h ****     putString("    line: ");
 879              		.loc 2 25 14 is_stmt 0
 880 0604 17050000 		lla	a0,.LC5
 880      13050500 
GAS LISTING /tmp/ccE92s7W.s 			page 24


 881 060c 97000000 		call	_Z9putStringPKc@plt
 881      E7800000 
 882              	.LVL137:
  26:src/../h/my_console.h ****     putInt(line);
 883              		.loc 2 26 5 is_stmt 1
  26:src/../h/my_console.h ****     putInt(line);
 884              		.loc 2 26 14 is_stmt 0
 885 0614 17050000 		lla	a0,.LC6
 885      13050500 
 886 061c 97000000 		call	_Z9putStringPKc@plt
 886      E7800000 
 887              	.LVL138:
  27:src/../h/my_console.h ****     putString("   ===========================");
 888              		.loc 2 27 5 is_stmt 1
  27:src/../h/my_console.h ****     putString("   ===========================");
 889              		.loc 2 27 11 is_stmt 0
 890 0624 1305B006 		li	a0,107
 891 0628 97000000 		call	_Z6putInti@plt
 891      E7800000 
 892              	.LVL139:
  28:src/../h/my_console.h ****     putNewline();
 893              		.loc 2 28 5 is_stmt 1
  28:src/../h/my_console.h ****     putNewline();
 894              		.loc 2 28 14 is_stmt 0
 895 0630 17050000 		lla	a0,.LC7
 895      13050500 
 896 0638 97000000 		call	_Z9putStringPKc@plt
 896      E7800000 
 897              	.LVL140:
  29:src/../h/my_console.h **** 
 898              		.loc 2 29 5 is_stmt 1
  29:src/../h/my_console.h **** 
 899              		.loc 2 29 15 is_stmt 0
 900 0640 97000000 		call	_Z10putNewlinev@plt
 900      E7800000 
 901              	.LVL141:
 902              		.loc 2 31 5 is_stmt 1
 903              		.loc 2 31 15 is_stmt 0
 904 0648 97000000 		call	_Z10stopKernelv@plt
 904      E7800000 
 905              	.LVL142:
 906              	.L36:
 907              	.LBE63:
 908              	.LBE67:
 909              	.LBB68:
 910              	.LBB66:
  24:src/../h/my_console.h ****     putString(file);
 911              		.loc 2 24 5 is_stmt 1
  24:src/../h/my_console.h ****     putString(file);
 912              		.loc 2 24 14 is_stmt 0
 913 0650 17050000 		lla	a0,.LC4
 913      13050500 
 914              	.LVL143:
 915 0658 97000000 		call	_Z9putStringPKc@plt
 915      E7800000 
 916              	.LVL144:
  25:src/../h/my_console.h ****     putString("    line: ");
GAS LISTING /tmp/ccE92s7W.s 			page 25


 917              		.loc 2 25 5 is_stmt 1
  25:src/../h/my_console.h ****     putString("    line: ");
 918              		.loc 2 25 14 is_stmt 0
 919 0660 17050000 		lla	a0,.LC5
 919      13050500 
 920 0668 97000000 		call	_Z9putStringPKc@plt
 920      E7800000 
 921              	.LVL145:
  26:src/../h/my_console.h ****     putInt(line);
 922              		.loc 2 26 5 is_stmt 1
  26:src/../h/my_console.h ****     putInt(line);
 923              		.loc 2 26 14 is_stmt 0
 924 0670 17050000 		lla	a0,.LC6
 924      13050500 
 925 0678 97000000 		call	_Z9putStringPKc@plt
 925      E7800000 
 926              	.LVL146:
  27:src/../h/my_console.h ****     putString("   ===========================");
 927              		.loc 2 27 5 is_stmt 1
  27:src/../h/my_console.h ****     putString("   ===========================");
 928              		.loc 2 27 11 is_stmt 0
 929 0680 13051007 		li	a0,113
 930 0684 97000000 		call	_Z6putInti@plt
 930      E7800000 
 931              	.LVL147:
  28:src/../h/my_console.h ****     putNewline();
 932              		.loc 2 28 5 is_stmt 1
  28:src/../h/my_console.h ****     putNewline();
 933              		.loc 2 28 14 is_stmt 0
 934 068c 17050000 		lla	a0,.LC7
 934      13050500 
 935 0694 97000000 		call	_Z9putStringPKc@plt
 935      E7800000 
 936              	.LVL148:
  29:src/../h/my_console.h **** 
 937              		.loc 2 29 5 is_stmt 1
  29:src/../h/my_console.h **** 
 938              		.loc 2 29 15 is_stmt 0
 939 069c 97000000 		call	_Z10putNewlinev@plt
 939      E7800000 
 940              	.LVL149:
 941              		.loc 2 31 5 is_stmt 1
 942              		.loc 2 31 15 is_stmt 0
 943 06a4 97000000 		call	_Z10stopKernelv@plt
 943      E7800000 
 944              	.LVL150:
 945              	.LBE66:
 946              	.LBE68:
 947              		.cfi_endproc
 948              	.LFE10:
 950              		.align	2
 951              		.globl	_Z16callFromUserModePFvvE
 953              	_Z16callFromUserModePFvvE:
 954              	.LFB11:
 117:src/APP.cpp   **** 
 118:src/APP.cpp   **** void callFromUserMode(void (*f)(void))
 119:src/APP.cpp   **** {
GAS LISTING /tmp/ccE92s7W.s 			page 26


 955              		.loc 1 119 1 is_stmt 1
 956              		.cfi_startproc
 957              	.LVL151:
 958 06ac 130101FF 		addi	sp,sp,-16
 959              		.cfi_def_cfa_offset 16
 960 06b0 23341100 		sd	ra,8(sp)
 961 06b4 23308100 		sd	s0,0(sp)
 962              		.cfi_offset 1, -8
 963              		.cfi_offset 8, -16
 964 06b8 13040101 		addi	s0,sp,16
 965              		.cfi_def_cfa 8, 0
 120:src/APP.cpp   ****     assert(false); // disabled because it gives an error after void main() finishes, idk why probab
 966              		.loc 1 120 5
 967              	.LVL152:
 968              	.LBB71:
 969              	.LBB72:
  21:src/../h/my_console.h ****         return;
 970              		.loc 2 21 5
  24:src/../h/my_console.h ****     putString(file);
 971              		.loc 2 24 5
  24:src/../h/my_console.h ****     putString(file);
 972              		.loc 2 24 14 is_stmt 0
 973 06bc 17050000 		lla	a0,.LC4
 973      13050500 
 974              	.LVL153:
 975 06c4 97000000 		call	_Z9putStringPKc@plt
 975      E7800000 
 976              	.LVL154:
  25:src/../h/my_console.h ****     putString("    line: ");
 977              		.loc 2 25 5 is_stmt 1
  25:src/../h/my_console.h ****     putString("    line: ");
 978              		.loc 2 25 14 is_stmt 0
 979 06cc 17050000 		lla	a0,.LC5
 979      13050500 
 980 06d4 97000000 		call	_Z9putStringPKc@plt
 980      E7800000 
 981              	.LVL155:
  26:src/../h/my_console.h ****     putInt(line);
 982              		.loc 2 26 5 is_stmt 1
  26:src/../h/my_console.h ****     putInt(line);
 983              		.loc 2 26 14 is_stmt 0
 984 06dc 17050000 		lla	a0,.LC6
 984      13050500 
 985 06e4 97000000 		call	_Z9putStringPKc@plt
 985      E7800000 
 986              	.LVL156:
  27:src/../h/my_console.h ****     putString("   ===========================");
 987              		.loc 2 27 5 is_stmt 1
  27:src/../h/my_console.h ****     putString("   ===========================");
 988              		.loc 2 27 11 is_stmt 0
 989 06ec 13058007 		li	a0,120
 990 06f0 97000000 		call	_Z6putInti@plt
 990      E7800000 
 991              	.LVL157:
  28:src/../h/my_console.h ****     putNewline();
 992              		.loc 2 28 5 is_stmt 1
  28:src/../h/my_console.h ****     putNewline();
GAS LISTING /tmp/ccE92s7W.s 			page 27


 993              		.loc 2 28 14 is_stmt 0
 994 06f8 17050000 		lla	a0,.LC7
 994      13050500 
 995 0700 97000000 		call	_Z9putStringPKc@plt
 995      E7800000 
 996              	.LVL158:
  29:src/../h/my_console.h **** 
 997              		.loc 2 29 5 is_stmt 1
  29:src/../h/my_console.h **** 
 998              		.loc 2 29 15 is_stmt 0
 999 0708 97000000 		call	_Z10putNewlinev@plt
 999      E7800000 
 1000              	.LVL159:
 1001              		.loc 2 31 5 is_stmt 1
 1002              		.loc 2 31 15 is_stmt 0
 1003 0710 97000000 		call	_Z10stopKernelv@plt
 1003      E7800000 
 1004              	.LVL160:
 1005              	.LBE72:
 1006              	.LBE71:
 1007              		.cfi_endproc
 1008              	.LFE11:
 1010              	.Letext0:
 1011              		.file 3 "src/../h/../lib/hw.h"
 1012              		.file 4 "src/../h/alloc.h"
 1013              		.file 5 "src/../h/c_api.h"
GAS LISTING /tmp/ccE92s7W.s 			page 28


DEFINED SYMBOLS
                            *ABS*:0000000000000000 APP.cpp
     /tmp/ccE92s7W.s:9      .text:0000000000000000 _Z3fibm
     /tmp/ccE92s7W.s:13     .text:0000000000000000 .L0 
     /tmp/ccE92s7W.s:15     .text:0000000000000000 .L0 
     /tmp/ccE92s7W.s:16     .text:0000000000000004 .L0 
     /tmp/ccE92s7W.s:21     .text:0000000000000014 .L0 
     /tmp/ccE92s7W.s:22     .text:0000000000000014 .L0 
     /tmp/ccE92s7W.s:23     .text:0000000000000014 .L0 
     /tmp/ccE92s7W.s:24     .text:0000000000000014 .L0 
     /tmp/ccE92s7W.s:26     .text:0000000000000018 .L0 
     /tmp/ccE92s7W.s:29     .text:000000000000001c .L0 
     /tmp/ccE92s7W.s:32     .text:0000000000000024 .L0 
     /tmp/ccE92s7W.s:36     .text:0000000000000028 .L0 
     /tmp/ccE92s7W.s:38     .text:0000000000000030 .L0 
     /tmp/ccE92s7W.s:39     .text:0000000000000030 .L0 
     /tmp/ccE92s7W.s:41     .text:0000000000000034 .L0 
     /tmp/ccE92s7W.s:42     .text:0000000000000034 .L0 
     /tmp/ccE92s7W.s:44     .text:0000000000000038 .L0 
     /tmp/ccE92s7W.s:46     .text:000000000000003c .L0 
     /tmp/ccE92s7W.s:48     .text:0000000000000040 .L0 
     /tmp/ccE92s7W.s:52     .text:0000000000000044 .L0 
     /tmp/ccE92s7W.s:54     .text:0000000000000044 .L0 
     /tmp/ccE92s7W.s:55     .text:0000000000000044 .L0 
     /tmp/ccE92s7W.s:60     .text:0000000000000054 .L0 
     /tmp/ccE92s7W.s:64     .text:0000000000000060 .L0 
     /tmp/ccE92s7W.s:67     .text:0000000000000068 .L0 
     /tmp/ccE92s7W.s:102    .text:0000000000000068 _Z15testSystemCallsv
     /tmp/ccE92s7W.s:105    .text:0000000000000068 .L0 
     /tmp/ccE92s7W.s:106    .text:0000000000000068 .L0 
     /tmp/ccE92s7W.s:107    .text:000000000000006c .L0 
     /tmp/ccE92s7W.s:117    .text:0000000000000090 .L0 
     /tmp/ccE92s7W.s:118    .text:0000000000000090 .L0 
     /tmp/ccE92s7W.s:119    .text:0000000000000090 .L0 
     /tmp/ccE92s7W.s:120    .text:0000000000000090 .L0 
     /tmp/ccE92s7W.s:121    .text:0000000000000090 .L0 
     /tmp/ccE92s7W.s:122    .text:0000000000000090 .L0 
     /tmp/ccE92s7W.s:123    .text:0000000000000090 .L0 
     /tmp/ccE92s7W.s:124    .text:0000000000000090 .L0 
     /tmp/ccE92s7W.s:125    .text:0000000000000090 .L0 
     /tmp/ccE92s7W.s:127    .text:0000000000000094 .L0 
     /tmp/ccE92s7W.s:129    .text:0000000000000094 .L0 
     /tmp/ccE92s7W.s:130    .text:0000000000000094 .L0 
     /tmp/ccE92s7W.s:134    .text:00000000000000a4 .L0 
     /tmp/ccE92s7W.s:135    .text:00000000000000a4 .L0 
     /tmp/ccE92s7W.s:138    .text:00000000000000ac .L0 
     /tmp/ccE92s7W.s:139    .text:00000000000000ac .L0 
     /tmp/ccE92s7W.s:141    .text:00000000000000ac .L0 
     /tmp/ccE92s7W.s:142    .text:00000000000000ac .L0 
     /tmp/ccE92s7W.s:145    .text:00000000000000b0 .L0 
     /tmp/ccE92s7W.s:147    .text:00000000000000b4 .L0 
     /tmp/ccE92s7W.s:152    .text:00000000000000b8 .L0 
     /tmp/ccE92s7W.s:156    .text:00000000000000c0 .L0 
     /tmp/ccE92s7W.s:157    .text:00000000000000c0 .L0 
     /tmp/ccE92s7W.s:160    .text:00000000000000c4 .L0 
     /tmp/ccE92s7W.s:161    .text:00000000000000c4 .L0 
     /tmp/ccE92s7W.s:164    .text:00000000000000c8 .L0 
GAS LISTING /tmp/ccE92s7W.s 			page 29


     /tmp/ccE92s7W.s:165    .text:00000000000000c8 .L0 
     /tmp/ccE92s7W.s:171    .text:00000000000000d8 .L0 
     /tmp/ccE92s7W.s:172    .text:00000000000000d8 .L0 
     /tmp/ccE92s7W.s:179    .text:00000000000000e8 .L0 
     /tmp/ccE92s7W.s:185    .text:00000000000000ec .L0 
     /tmp/ccE92s7W.s:186    .text:00000000000000ec .L0 
     /tmp/ccE92s7W.s:192    .text:00000000000000f0 .L0 
     /tmp/ccE92s7W.s:193    .text:00000000000000f0 .L0 
     /tmp/ccE92s7W.s:197    .text:00000000000000f4 .L0 
     /tmp/ccE92s7W.s:200    .text:00000000000000f8 .L0 
     /tmp/ccE92s7W.s:204    .text:00000000000000fc .L0 
     /tmp/ccE92s7W.s:209    .text:0000000000000100 .L0 
     /tmp/ccE92s7W.s:210    .text:0000000000000100 .L0 
     /tmp/ccE92s7W.s:215    .text:0000000000000110 .L0 
     /tmp/ccE92s7W.s:216    .text:0000000000000110 .L0 
     /tmp/ccE92s7W.s:220    .text:000000000000011c .L0 
     /tmp/ccE92s7W.s:221    .text:000000000000011c .L0 
     /tmp/ccE92s7W.s:225    .text:000000000000012c .L0 
     /tmp/ccE92s7W.s:226    .text:000000000000012c .L0 
     /tmp/ccE92s7W.s:230    .text:0000000000000138 .L0 
     /tmp/ccE92s7W.s:231    .text:0000000000000138 .L0 
     /tmp/ccE92s7W.s:235    .text:0000000000000148 .L0 
     /tmp/ccE92s7W.s:236    .text:0000000000000148 .L0 
     /tmp/ccE92s7W.s:240    .text:0000000000000154 .L0 
     /tmp/ccE92s7W.s:241    .text:0000000000000154 .L0 
     /tmp/ccE92s7W.s:246    .text:000000000000015c .L0 
     /tmp/ccE92s7W.s:247    .text:000000000000015c .L0 
     /tmp/ccE92s7W.s:248    .text:000000000000015c .L0 
     /tmp/ccE92s7W.s:249    .text:000000000000015c .L0 
     /tmp/ccE92s7W.s:253    .text:000000000000016c .L0 
     /tmp/ccE92s7W.s:254    .text:000000000000016c .L0 
     /tmp/ccE92s7W.s:258    .text:000000000000017c .L0 
     /tmp/ccE92s7W.s:259    .text:000000000000017c .L0 
     /tmp/ccE92s7W.s:263    .text:000000000000018c .L0 
     /tmp/ccE92s7W.s:264    .text:000000000000018c .L0 
     /tmp/ccE92s7W.s:268    .text:0000000000000198 .L0 
     /tmp/ccE92s7W.s:269    .text:0000000000000198 .L0 
     /tmp/ccE92s7W.s:273    .text:00000000000001a8 .L0 
     /tmp/ccE92s7W.s:274    .text:00000000000001a8 .L0 
     /tmp/ccE92s7W.s:277    .text:00000000000001b0 .L0 
     /tmp/ccE92s7W.s:278    .text:00000000000001b0 .L0 
     /tmp/ccE92s7W.s:286    .text:00000000000001b8 .L0 
     /tmp/ccE92s7W.s:287    .text:00000000000001b8 .L0 
     /tmp/ccE92s7W.s:292    .text:00000000000001c8 .L0 
     /tmp/ccE92s7W.s:293    .text:00000000000001c8 .L0 
     /tmp/ccE92s7W.s:297    .text:00000000000001d8 .L0 
     /tmp/ccE92s7W.s:298    .text:00000000000001d8 .L0 
     /tmp/ccE92s7W.s:302    .text:00000000000001e8 .L0 
     /tmp/ccE92s7W.s:303    .text:00000000000001e8 .L0 
     /tmp/ccE92s7W.s:307    .text:00000000000001f4 .L0 
     /tmp/ccE92s7W.s:308    .text:00000000000001f4 .L0 
     /tmp/ccE92s7W.s:312    .text:0000000000000204 .L0 
     /tmp/ccE92s7W.s:313    .text:0000000000000204 .L0 
     /tmp/ccE92s7W.s:316    .text:000000000000020c .L0 
     /tmp/ccE92s7W.s:317    .text:000000000000020c .L0 
     /tmp/ccE92s7W.s:325    .text:0000000000000214 .L0 
     /tmp/ccE92s7W.s:332    .text:0000000000000224 .L0 
GAS LISTING /tmp/ccE92s7W.s 			page 30


     /tmp/ccE92s7W.s:337    .text:0000000000000228 .L0 
     /tmp/ccE92s7W.s:338    .text:0000000000000228 .L0 
     /tmp/ccE92s7W.s:339    .text:0000000000000228 .L0 
     /tmp/ccE92s7W.s:343    .text:0000000000000238 .L0 
     /tmp/ccE92s7W.s:344    .text:0000000000000238 .L0 
     /tmp/ccE92s7W.s:347    .text:0000000000000240 .L0 
     /tmp/ccE92s7W.s:348    .text:0000000000000244 .L0 
     /tmp/ccE92s7W.s:349    .text:0000000000000244 .L0 
     /tmp/ccE92s7W.s:351    .text:0000000000000248 .L0 
     /tmp/ccE92s7W.s:352    .text:0000000000000248 .L0 
     /tmp/ccE92s7W.s:354    .text:000000000000024c .L0 
     /tmp/ccE92s7W.s:357    .text:0000000000000250 .L0 
     /tmp/ccE92s7W.s:359    .text:0000000000000254 .L0 
     /tmp/ccE92s7W.s:361    .text:0000000000000258 .L0 
     /tmp/ccE92s7W.s:364    .text:000000000000025c .L0 
     /tmp/ccE92s7W.s:367    .text:0000000000000260 .L0 
     /tmp/ccE92s7W.s:369    .text:0000000000000264 .L0 
     /tmp/ccE92s7W.s:371    .text:0000000000000268 .L0 
     /tmp/ccE92s7W.s:375    .text:000000000000026c .L0 
     /tmp/ccE92s7W.s:379    .text:000000000000026c .L0 
     /tmp/ccE92s7W.s:380    .text:000000000000026c .L0 
     /tmp/ccE92s7W.s:385    .text:000000000000027c .L0 
     /tmp/ccE92s7W.s:386    .text:000000000000027c .L0 
     /tmp/ccE92s7W.s:390    .text:000000000000028c .L0 
     /tmp/ccE92s7W.s:391    .text:000000000000028c .L0 
     /tmp/ccE92s7W.s:395    .text:000000000000029c .L0 
     /tmp/ccE92s7W.s:396    .text:000000000000029c .L0 
     /tmp/ccE92s7W.s:400    .text:00000000000002a8 .L0 
     /tmp/ccE92s7W.s:401    .text:00000000000002a8 .L0 
     /tmp/ccE92s7W.s:405    .text:00000000000002b8 .L0 
     /tmp/ccE92s7W.s:406    .text:00000000000002b8 .L0 
     /tmp/ccE92s7W.s:409    .text:00000000000002c0 .L0 
     /tmp/ccE92s7W.s:410    .text:00000000000002c0 .L0 
     /tmp/ccE92s7W.s:414    .text:00000000000002c8 .L0 
     /tmp/ccE92s7W.s:428    .text:00000000000002c8 _Z19testMemoryAllocatorv
     /tmp/ccE92s7W.s:431    .text:00000000000002c8 .L0 
     /tmp/ccE92s7W.s:432    .text:00000000000002c8 .L0 
     /tmp/ccE92s7W.s:433    .text:00000000000002cc .L0 
     /tmp/ccE92s7W.s:439    .text:00000000000002e0 .L0 
     /tmp/ccE92s7W.s:440    .text:00000000000002e0 .L0 
     /tmp/ccE92s7W.s:441    .text:00000000000002e0 .L0 
     /tmp/ccE92s7W.s:442    .text:00000000000002e0 .L0 
     /tmp/ccE92s7W.s:443    .text:00000000000002e0 .L0 
     /tmp/ccE92s7W.s:445    .text:00000000000002e4 .L0 
     /tmp/ccE92s7W.s:447    .text:00000000000002e4 .L0 
     /tmp/ccE92s7W.s:448    .text:00000000000002e4 .L0 
     /tmp/ccE92s7W.s:452    .text:00000000000002f4 .L0 
     /tmp/ccE92s7W.s:453    .text:00000000000002f4 .L0 
     /tmp/ccE92s7W.s:456    .text:00000000000002fc .L0 
     /tmp/ccE92s7W.s:457    .text:00000000000002fc .L0 
     /tmp/ccE92s7W.s:458    .text:00000000000002fc .L0 
     /tmp/ccE92s7W.s:459    .text:00000000000002fc .L0 
     /tmp/ccE92s7W.s:467    .text:0000000000000310 .L0 
     /tmp/ccE92s7W.s:468    .text:0000000000000310 .L0 
     /tmp/ccE92s7W.s:472    .text:0000000000000314 .L0 
     /tmp/ccE92s7W.s:475    .text:000000000000031c .L0 
     /tmp/ccE92s7W.s:476    .text:000000000000031c .L0 
GAS LISTING /tmp/ccE92s7W.s 			page 31


     /tmp/ccE92s7W.s:479    .text:0000000000000324 .L0 
     /tmp/ccE92s7W.s:483    .text:0000000000000330 .L0 
     /tmp/ccE92s7W.s:485    .text:0000000000000334 .L0 
     /tmp/ccE92s7W.s:486    .text:0000000000000334 .L0 
     /tmp/ccE92s7W.s:488    .text:0000000000000338 .L0 
     /tmp/ccE92s7W.s:496    .text:0000000000000340 .L0 
     /tmp/ccE92s7W.s:499    .text:0000000000000344 .L0 
     /tmp/ccE92s7W.s:504    .text:0000000000000348 .L0 
     /tmp/ccE92s7W.s:507    .text:0000000000000350 .L0 
     /tmp/ccE92s7W.s:508    .text:0000000000000350 .L0 
     /tmp/ccE92s7W.s:512    .text:000000000000035c .L0 
     /tmp/ccE92s7W.s:514    .text:0000000000000360 .L0 
     /tmp/ccE92s7W.s:517    .text:0000000000000364 .L0 
     /tmp/ccE92s7W.s:524    .text:000000000000036c .L0 
     /tmp/ccE92s7W.s:531    .text:0000000000000374 .L0 
     /tmp/ccE92s7W.s:536    .text:0000000000000378 .L0 
     /tmp/ccE92s7W.s:540    .text:000000000000037c .L0 
     /tmp/ccE92s7W.s:543    .text:0000000000000384 .L0 
     /tmp/ccE92s7W.s:544    .text:0000000000000384 .L0 
     /tmp/ccE92s7W.s:547    .text:000000000000038c .L0 
     /tmp/ccE92s7W.s:553    .text:0000000000000398 .L0 
     /tmp/ccE92s7W.s:554    .text:0000000000000398 .L0 
     /tmp/ccE92s7W.s:559    .text:000000000000039c .L0 
     /tmp/ccE92s7W.s:560    .text:000000000000039c .L0 
     /tmp/ccE92s7W.s:569    .text:00000000000003a4 .L0 
     /tmp/ccE92s7W.s:570    .text:00000000000003a4 .L0 
     /tmp/ccE92s7W.s:574    .text:00000000000003b4 .L0 
     /tmp/ccE92s7W.s:575    .text:00000000000003b4 .L0 
     /tmp/ccE92s7W.s:579    .text:00000000000003c4 .L0 
     /tmp/ccE92s7W.s:580    .text:00000000000003c4 .L0 
     /tmp/ccE92s7W.s:584    .text:00000000000003d4 .L0 
     /tmp/ccE92s7W.s:585    .text:00000000000003d4 .L0 
     /tmp/ccE92s7W.s:589    .text:00000000000003e0 .L0 
     /tmp/ccE92s7W.s:590    .text:00000000000003e0 .L0 
     /tmp/ccE92s7W.s:594    .text:00000000000003f0 .L0 
     /tmp/ccE92s7W.s:595    .text:00000000000003f0 .L0 
     /tmp/ccE92s7W.s:598    .text:00000000000003f8 .L0 
     /tmp/ccE92s7W.s:599    .text:00000000000003f8 .L0 
     /tmp/ccE92s7W.s:608    .text:0000000000000400 .L0 
     /tmp/ccE92s7W.s:609    .text:0000000000000400 .L0 
     /tmp/ccE92s7W.s:614    .text:0000000000000410 .L0 
     /tmp/ccE92s7W.s:615    .text:0000000000000410 .L0 
     /tmp/ccE92s7W.s:619    .text:0000000000000420 .L0 
     /tmp/ccE92s7W.s:620    .text:0000000000000420 .L0 
     /tmp/ccE92s7W.s:624    .text:0000000000000430 .L0 
     /tmp/ccE92s7W.s:625    .text:0000000000000430 .L0 
     /tmp/ccE92s7W.s:629    .text:000000000000043c .L0 
     /tmp/ccE92s7W.s:630    .text:000000000000043c .L0 
     /tmp/ccE92s7W.s:634    .text:000000000000044c .L0 
     /tmp/ccE92s7W.s:635    .text:000000000000044c .L0 
     /tmp/ccE92s7W.s:638    .text:0000000000000454 .L0 
     /tmp/ccE92s7W.s:639    .text:0000000000000454 .L0 
     /tmp/ccE92s7W.s:646    .text:000000000000045c .L0 
     /tmp/ccE92s7W.s:647    .text:000000000000045c .L0 
     /tmp/ccE92s7W.s:653    .text:0000000000000468 .L0 
     /tmp/ccE92s7W.s:654    .text:0000000000000468 .L0 
     /tmp/ccE92s7W.s:659    .text:000000000000046c .L0 
GAS LISTING /tmp/ccE92s7W.s 			page 32


     /tmp/ccE92s7W.s:660    .text:000000000000046c .L0 
     /tmp/ccE92s7W.s:667    .text:000000000000047c .L0 
     /tmp/ccE92s7W.s:672    .text:0000000000000480 .L0 
     /tmp/ccE92s7W.s:673    .text:0000000000000480 .L0 
     /tmp/ccE92s7W.s:674    .text:0000000000000480 .L0 
     /tmp/ccE92s7W.s:678    .text:0000000000000490 .L0 
     /tmp/ccE92s7W.s:679    .text:0000000000000490 .L0 
     /tmp/ccE92s7W.s:682    .text:0000000000000498 .L0 
     /tmp/ccE92s7W.s:683    .text:000000000000049c .L0 
     /tmp/ccE92s7W.s:684    .text:000000000000049c .L0 
     /tmp/ccE92s7W.s:686    .text:00000000000004a0 .L0 
     /tmp/ccE92s7W.s:687    .text:00000000000004a0 .L0 
     /tmp/ccE92s7W.s:689    .text:00000000000004a4 .L0 
     /tmp/ccE92s7W.s:692    .text:00000000000004a8 .L0 
     /tmp/ccE92s7W.s:694    .text:00000000000004ac .L0 
     /tmp/ccE92s7W.s:697    .text:00000000000004b0 .L0 
     /tmp/ccE92s7W.s:701    .text:00000000000004b4 .L0 
     /tmp/ccE92s7W.s:705    .text:00000000000004b4 .L0 
     /tmp/ccE92s7W.s:706    .text:00000000000004b4 .L0 
     /tmp/ccE92s7W.s:711    .text:00000000000004c4 .L0 
     /tmp/ccE92s7W.s:712    .text:00000000000004c4 .L0 
     /tmp/ccE92s7W.s:716    .text:00000000000004d4 .L0 
     /tmp/ccE92s7W.s:717    .text:00000000000004d4 .L0 
     /tmp/ccE92s7W.s:721    .text:00000000000004e4 .L0 
     /tmp/ccE92s7W.s:722    .text:00000000000004e4 .L0 
     /tmp/ccE92s7W.s:726    .text:00000000000004f0 .L0 
     /tmp/ccE92s7W.s:727    .text:00000000000004f0 .L0 
     /tmp/ccE92s7W.s:731    .text:0000000000000500 .L0 
     /tmp/ccE92s7W.s:732    .text:0000000000000500 .L0 
     /tmp/ccE92s7W.s:735    .text:0000000000000508 .L0 
     /tmp/ccE92s7W.s:736    .text:0000000000000508 .L0 
     /tmp/ccE92s7W.s:744    .text:0000000000000510 .L0 
     /tmp/ccE92s7W.s:745    .text:0000000000000510 .L0 
     /tmp/ccE92s7W.s:750    .text:0000000000000520 .L0 
     /tmp/ccE92s7W.s:751    .text:0000000000000520 .L0 
     /tmp/ccE92s7W.s:755    .text:0000000000000530 .L0 
     /tmp/ccE92s7W.s:756    .text:0000000000000530 .L0 
     /tmp/ccE92s7W.s:760    .text:0000000000000540 .L0 
     /tmp/ccE92s7W.s:761    .text:0000000000000540 .L0 
     /tmp/ccE92s7W.s:765    .text:000000000000054c .L0 
     /tmp/ccE92s7W.s:766    .text:000000000000054c .L0 
     /tmp/ccE92s7W.s:770    .text:000000000000055c .L0 
     /tmp/ccE92s7W.s:771    .text:000000000000055c .L0 
     /tmp/ccE92s7W.s:774    .text:0000000000000564 .L0 
     /tmp/ccE92s7W.s:775    .text:0000000000000564 .L0 
     /tmp/ccE92s7W.s:779    .text:000000000000056c .L0 
     /tmp/ccE92s7W.s:793    .text:000000000000056c _Z8userMainv
     /tmp/ccE92s7W.s:796    .text:000000000000056c .L0 
     /tmp/ccE92s7W.s:797    .text:000000000000056c .L0 
     /tmp/ccE92s7W.s:798    .text:0000000000000570 .L0 
     /tmp/ccE92s7W.s:801    .text:0000000000000578 .L0 
     /tmp/ccE92s7W.s:802    .text:0000000000000578 .L0 
     /tmp/ccE92s7W.s:804    .text:000000000000057c .L0 
     /tmp/ccE92s7W.s:806    .text:000000000000057c .L0 
     /tmp/ccE92s7W.s:807    .text:000000000000057c .L0 
     /tmp/ccE92s7W.s:811    .text:000000000000058c .L0 
     /tmp/ccE92s7W.s:812    .text:000000000000058c .L0 
GAS LISTING /tmp/ccE92s7W.s 			page 33


     /tmp/ccE92s7W.s:815    .text:0000000000000594 .L0 
     /tmp/ccE92s7W.s:822    .text:00000000000005a4 .L0 
     /tmp/ccE92s7W.s:827    .text:00000000000005a8 .L0 
     /tmp/ccE92s7W.s:828    .text:00000000000005a8 .L0 
     /tmp/ccE92s7W.s:829    .text:00000000000005a8 .L0 
     /tmp/ccE92s7W.s:832    .text:00000000000005b0 .L0 
     /tmp/ccE92s7W.s:833    .text:00000000000005b0 .L0 
     /tmp/ccE92s7W.s:836    .text:00000000000005b8 .L0 
     /tmp/ccE92s7W.s:843    .text:00000000000005c8 .L0 
     /tmp/ccE92s7W.s:848    .text:00000000000005cc .L0 
     /tmp/ccE92s7W.s:849    .text:00000000000005cc .L0 
     /tmp/ccE92s7W.s:850    .text:00000000000005cc .L0 
     /tmp/ccE92s7W.s:854    .text:00000000000005dc .L0 
     /tmp/ccE92s7W.s:855    .text:00000000000005dc .L0 
     /tmp/ccE92s7W.s:858    .text:00000000000005e4 .L0 
     /tmp/ccE92s7W.s:859    .text:00000000000005e8 .L0 
     /tmp/ccE92s7W.s:860    .text:00000000000005e8 .L0 
     /tmp/ccE92s7W.s:862    .text:00000000000005ec .L0 
     /tmp/ccE92s7W.s:863    .text:00000000000005ec .L0 
     /tmp/ccE92s7W.s:865    .text:00000000000005f0 .L0 
     /tmp/ccE92s7W.s:869    .text:00000000000005f4 .L0 
     /tmp/ccE92s7W.s:873    .text:00000000000005f4 .L0 
     /tmp/ccE92s7W.s:874    .text:00000000000005f4 .L0 
     /tmp/ccE92s7W.s:879    .text:0000000000000604 .L0 
     /tmp/ccE92s7W.s:880    .text:0000000000000604 .L0 
     /tmp/ccE92s7W.s:884    .text:0000000000000614 .L0 
     /tmp/ccE92s7W.s:885    .text:0000000000000614 .L0 
     /tmp/ccE92s7W.s:889    .text:0000000000000624 .L0 
     /tmp/ccE92s7W.s:890    .text:0000000000000624 .L0 
     /tmp/ccE92s7W.s:894    .text:0000000000000630 .L0 
     /tmp/ccE92s7W.s:895    .text:0000000000000630 .L0 
     /tmp/ccE92s7W.s:899    .text:0000000000000640 .L0 
     /tmp/ccE92s7W.s:900    .text:0000000000000640 .L0 
     /tmp/ccE92s7W.s:903    .text:0000000000000648 .L0 
     /tmp/ccE92s7W.s:904    .text:0000000000000648 .L0 
     /tmp/ccE92s7W.s:912    .text:0000000000000650 .L0 
     /tmp/ccE92s7W.s:913    .text:0000000000000650 .L0 
     /tmp/ccE92s7W.s:918    .text:0000000000000660 .L0 
     /tmp/ccE92s7W.s:919    .text:0000000000000660 .L0 
     /tmp/ccE92s7W.s:923    .text:0000000000000670 .L0 
     /tmp/ccE92s7W.s:924    .text:0000000000000670 .L0 
     /tmp/ccE92s7W.s:928    .text:0000000000000680 .L0 
     /tmp/ccE92s7W.s:929    .text:0000000000000680 .L0 
     /tmp/ccE92s7W.s:933    .text:000000000000068c .L0 
     /tmp/ccE92s7W.s:934    .text:000000000000068c .L0 
     /tmp/ccE92s7W.s:938    .text:000000000000069c .L0 
     /tmp/ccE92s7W.s:939    .text:000000000000069c .L0 
     /tmp/ccE92s7W.s:942    .text:00000000000006a4 .L0 
     /tmp/ccE92s7W.s:943    .text:00000000000006a4 .L0 
     /tmp/ccE92s7W.s:947    .text:00000000000006ac .L0 
     /tmp/ccE92s7W.s:953    .text:00000000000006ac _Z16callFromUserModePFvvE
     /tmp/ccE92s7W.s:956    .text:00000000000006ac .L0 
     /tmp/ccE92s7W.s:958    .text:00000000000006ac .L0 
     /tmp/ccE92s7W.s:959    .text:00000000000006b0 .L0 
     /tmp/ccE92s7W.s:962    .text:00000000000006b8 .L0 
     /tmp/ccE92s7W.s:963    .text:00000000000006b8 .L0 
     /tmp/ccE92s7W.s:965    .text:00000000000006bc .L0 
GAS LISTING /tmp/ccE92s7W.s 			page 34


     /tmp/ccE92s7W.s:970    .text:00000000000006bc .L0 
     /tmp/ccE92s7W.s:971    .text:00000000000006bc .L0 
     /tmp/ccE92s7W.s:972    .text:00000000000006bc .L0 
     /tmp/ccE92s7W.s:973    .text:00000000000006bc .L0 
     /tmp/ccE92s7W.s:978    .text:00000000000006cc .L0 
     /tmp/ccE92s7W.s:979    .text:00000000000006cc .L0 
     /tmp/ccE92s7W.s:983    .text:00000000000006dc .L0 
     /tmp/ccE92s7W.s:984    .text:00000000000006dc .L0 
     /tmp/ccE92s7W.s:988    .text:00000000000006ec .L0 
     /tmp/ccE92s7W.s:989    .text:00000000000006ec .L0 
     /tmp/ccE92s7W.s:993    .text:00000000000006f8 .L0 
     /tmp/ccE92s7W.s:994    .text:00000000000006f8 .L0 
     /tmp/ccE92s7W.s:998    .text:0000000000000708 .L0 
     /tmp/ccE92s7W.s:999    .text:0000000000000708 .L0 
     /tmp/ccE92s7W.s:1002   .text:0000000000000710 .L0 
     /tmp/ccE92s7W.s:1003   .text:0000000000000710 .L0 
     /tmp/ccE92s7W.s:1007   .text:0000000000000718 .L0 
     /tmp/ccE92s7W.s:1014   .text:0000000000000718 .L0 
     /tmp/ccE92s7W.s:72     .rodata.str1.8:0000000000000000 .LC0
     /tmp/ccE92s7W.s:130    .text:0000000000000094 .L0 
     /tmp/ccE92s7W.s:75     .rodata.str1.8:0000000000000020 .LC1
     /tmp/ccE92s7W.s:210    .text:0000000000000100 .L0 
     /tmp/ccE92s7W.s:78     .rodata.str1.8:0000000000000038 .LC2
     /tmp/ccE92s7W.s:221    .text:000000000000011c .L0 
     /tmp/ccE92s7W.s:81     .rodata.str1.8:0000000000000048 .LC3
     /tmp/ccE92s7W.s:231    .text:0000000000000138 .L0 
     /tmp/ccE92s7W.s:84     .rodata.str1.8:0000000000000058 .LC4
     /tmp/ccE92s7W.s:249    .text:000000000000015c .L0 
     /tmp/ccE92s7W.s:87     .rodata.str1.8:0000000000000080 .LC5
     /tmp/ccE92s7W.s:254    .text:000000000000016c .L0 
     /tmp/ccE92s7W.s:90     .rodata.str1.8:0000000000000090 .LC6
     /tmp/ccE92s7W.s:259    .text:000000000000017c .L0 
     /tmp/ccE92s7W.s:93     .rodata.str1.8:00000000000000a0 .LC7
     /tmp/ccE92s7W.s:269    .text:0000000000000198 .L0 
     /tmp/ccE92s7W.s:287    .text:00000000000001b8 .L0 
     /tmp/ccE92s7W.s:293    .text:00000000000001c8 .L0 
     /tmp/ccE92s7W.s:298    .text:00000000000001d8 .L0 
     /tmp/ccE92s7W.s:308    .text:00000000000001f4 .L0 
     /tmp/ccE92s7W.s:96     .rodata.str1.8:00000000000000c0 .LC8
     /tmp/ccE92s7W.s:339    .text:0000000000000228 .L0 
     /tmp/ccE92s7W.s:380    .text:000000000000026c .L0 
     /tmp/ccE92s7W.s:386    .text:000000000000027c .L0 
     /tmp/ccE92s7W.s:391    .text:000000000000028c .L0 
     /tmp/ccE92s7W.s:401    .text:00000000000002a8 .L0 
     /tmp/ccE92s7W.s:419    .rodata.str1.8:00000000000000e8 .LC9
     /tmp/ccE92s7W.s:448    .text:00000000000002e4 .L0 
     /tmp/ccE92s7W.s:570    .text:00000000000003a4 .L0 
     /tmp/ccE92s7W.s:575    .text:00000000000003b4 .L0 
     /tmp/ccE92s7W.s:580    .text:00000000000003c4 .L0 
     /tmp/ccE92s7W.s:590    .text:00000000000003e0 .L0 
     /tmp/ccE92s7W.s:609    .text:0000000000000400 .L0 
     /tmp/ccE92s7W.s:615    .text:0000000000000410 .L0 
     /tmp/ccE92s7W.s:620    .text:0000000000000420 .L0 
     /tmp/ccE92s7W.s:630    .text:000000000000043c .L0 
     /tmp/ccE92s7W.s:422    .rodata.str1.8:0000000000000110 .LC10
     /tmp/ccE92s7W.s:674    .text:0000000000000480 .L0 
     /tmp/ccE92s7W.s:706    .text:00000000000004b4 .L0 
GAS LISTING /tmp/ccE92s7W.s 			page 35


     /tmp/ccE92s7W.s:712    .text:00000000000004c4 .L0 
     /tmp/ccE92s7W.s:717    .text:00000000000004d4 .L0 
     /tmp/ccE92s7W.s:727    .text:00000000000004f0 .L0 
     /tmp/ccE92s7W.s:745    .text:0000000000000510 .L0 
     /tmp/ccE92s7W.s:751    .text:0000000000000520 .L0 
     /tmp/ccE92s7W.s:756    .text:0000000000000530 .L0 
     /tmp/ccE92s7W.s:766    .text:000000000000054c .L0 
     /tmp/ccE92s7W.s:784    .rodata.str1.8:0000000000000138 .LC11
     /tmp/ccE92s7W.s:807    .text:000000000000057c .L0 
     /tmp/ccE92s7W.s:787    .rodata.str1.8:0000000000000148 .LC12
     /tmp/ccE92s7W.s:850    .text:00000000000005cc .L0 
     /tmp/ccE92s7W.s:874    .text:00000000000005f4 .L0 
     /tmp/ccE92s7W.s:880    .text:0000000000000604 .L0 
     /tmp/ccE92s7W.s:885    .text:0000000000000614 .L0 
     /tmp/ccE92s7W.s:895    .text:0000000000000630 .L0 
     /tmp/ccE92s7W.s:913    .text:0000000000000650 .L0 
     /tmp/ccE92s7W.s:919    .text:0000000000000660 .L0 
     /tmp/ccE92s7W.s:924    .text:0000000000000670 .L0 
     /tmp/ccE92s7W.s:934    .text:000000000000068c .L0 
     /tmp/ccE92s7W.s:973    .text:00000000000006bc .L0 
     /tmp/ccE92s7W.s:979    .text:00000000000006cc .L0 
     /tmp/ccE92s7W.s:984    .text:00000000000006dc .L0 
     /tmp/ccE92s7W.s:994    .text:00000000000006f8 .L0 
     /tmp/ccE92s7W.s:34     .text:0000000000000028 .L2
     /tmp/ccE92s7W.s:51     .text:0000000000000044 .L4
     /tmp/ccE92s7W.s:319    .text:0000000000000214 .L6
     /tmp/ccE92s7W.s:206    .text:0000000000000100 .L12
     /tmp/ccE92s7W.s:280    .text:00000000000001b8 .L13
     /tmp/ccE92s7W.s:149    .text:00000000000000b8 .L9
     /tmp/ccE92s7W.s:374    .text:000000000000026c .L14
     /tmp/ccE92s7W.s:492    .text:0000000000000340 .L24
     /tmp/ccE92s7W.s:470    .text:0000000000000314 .L17
     /tmp/ccE92s7W.s:521    .text:000000000000036c .L18
     /tmp/ccE92s7W.s:500    .text:0000000000000348 .L16
     /tmp/ccE92s7W.s:564    .text:00000000000003a4 .L27
     /tmp/ccE92s7W.s:641    .text:000000000000045c .L20
     /tmp/ccE92s7W.s:601    .text:0000000000000400 .L28
     /tmp/ccE92s7W.s:538    .text:000000000000037c .L19
     /tmp/ccE92s7W.s:700    .text:00000000000004b4 .L29
     /tmp/ccE92s7W.s:738    .text:0000000000000510 .L30
     /tmp/ccE92s7W.s:868    .text:00000000000005f4 .L35
     /tmp/ccE92s7W.s:906    .text:0000000000000650 .L36
     /tmp/ccE92s7W.s:2674   .debug_abbrev:0000000000000000 .Ldebug_abbrev0
     /tmp/ccE92s7W.s:4183   .debug_str:000000000000022a .LASF69
     /tmp/ccE92s7W.s:4119   .debug_str:0000000000000042 .LASF70
     /tmp/ccE92s7W.s:4123   .debug_str:0000000000000056 .LASF71
     /tmp/ccE92s7W.s:5      .text:0000000000000000 .Ltext0
     /tmp/ccE92s7W.s:1010   .text:0000000000000718 .Letext0
     /tmp/ccE92s7W.s:4107   .debug_line:0000000000000000 .Ldebug_line0
     /tmp/ccE92s7W.s:4199   .debug_str:000000000000033d .LASF0
     /tmp/ccE92s7W.s:4163   .debug_str:0000000000000190 .LASF1
     /tmp/ccE92s7W.s:4155   .debug_str:0000000000000145 .LASF2
     /tmp/ccE92s7W.s:4131   .debug_str:0000000000000091 .LASF4
     /tmp/ccE92s7W.s:4161   .debug_str:000000000000017e .LASF3
     /tmp/ccE92s7W.s:4115   .debug_str:000000000000002d .LASF5
     /tmp/ccE92s7W.s:4111   .debug_str:0000000000000006 .LASF6
     /tmp/ccE92s7W.s:4147   .debug_str:00000000000000f8 .LASF7
GAS LISTING /tmp/ccE92s7W.s 			page 36


     /tmp/ccE92s7W.s:4207   .debug_str:000000000000035b .LASF8
     /tmp/ccE92s7W.s:4127   .debug_str:000000000000007b .LASF9
     /tmp/ccE92s7W.s:4259   .debug_str:00000000000004d1 .LASF10
     /tmp/ccE92s7W.s:4151   .debug_str:0000000000000119 .LASF11
     /tmp/ccE92s7W.s:4239   .debug_str:000000000000045a .LASF12
     /tmp/ccE92s7W.s:4215   .debug_str:000000000000039b .LASF13
     /tmp/ccE92s7W.s:4167   .debug_str:00000000000001b4 .LASF14
     /tmp/ccE92s7W.s:4137   .debug_str:00000000000000a8 .LASF15
     /tmp/ccE92s7W.s:4209   .debug_str:000000000000036b .LASF16
     /tmp/ccE92s7W.s:4219   .debug_str:00000000000003b4 .LASF33
     /tmp/ccE92s7W.s:4223   .debug_str:00000000000003c6 .LASF72
     /tmp/ccE92s7W.s:4169   .debug_str:00000000000001c0 .LASF20
     /tmp/ccE92s7W.s:4109   .debug_str:0000000000000000 .LASF17
     /tmp/ccE92s7W.s:4253   .debug_str:00000000000004b8 .LASF18
     /tmp/ccE92s7W.s:4197   .debug_str:0000000000000338 .LASF19
     /tmp/ccE92s7W.s:4153   .debug_str:0000000000000128 .LASF22
     /tmp/ccE92s7W.s:4213   .debug_str:0000000000000391 .LASF24
     /tmp/ccE92s7W.s:4231   .debug_str:0000000000000402 .LASF21
     /tmp/ccE92s7W.s:4173   .debug_str:00000000000001d7 .LASF23
     /tmp/ccE92s7W.s:4189   .debug_str:000000000000030c .LASF25
     /tmp/ccE92s7W.s:4221   .debug_str:00000000000003bd .LASF26
     /tmp/ccE92s7W.s:4233   .debug_str:000000000000040c .LASF28
     /tmp/ccE92s7W.s:4129   .debug_str:0000000000000089 .LASF27
     /tmp/ccE92s7W.s:4139   .debug_str:00000000000000be .LASF29
     /tmp/ccE92s7W.s:4125   .debug_str:000000000000006a .LASF30
     /tmp/ccE92s7W.s:4159   .debug_str:000000000000015d .LASF31
     /tmp/ccE92s7W.s:4237   .debug_str:0000000000000447 .LASF73
     /tmp/ccE92s7W.s:4235   .debug_str:0000000000000424 .LASF74
     /tmp/ccE92s7W.s:4185   .debug_str:00000000000002ee .LASF32
     /tmp/ccE92s7W.s:4165   .debug_str:00000000000001a3 .LASF34
     /tmp/ccE92s7W.s:4201   .debug_str:000000000000034a .LASF35
     /tmp/ccE92s7W.s:4225   .debug_str:00000000000003d9 .LASF36
     /tmp/ccE92s7W.s:4245   .debug_str:000000000000047e .LASF37
     /tmp/ccE92s7W.s:954    .text:00000000000006ac .LFB11
     /tmp/ccE92s7W.s:1008   .text:0000000000000718 .LFE11
     /tmp/ccE92s7W.s:3330   .debug_loc:0000000000000000 .LLST39
     /tmp/ccE92s7W.s:968    .text:00000000000006bc .LBB71
     /tmp/ccE92s7W.s:1006   .text:0000000000000718 .LBE71
     /tmp/ccE92s7W.s:976    .text:00000000000006cc .LVL154
     /tmp/ccE92s7W.s:981    .text:00000000000006dc .LVL155
     /tmp/ccE92s7W.s:986    .text:00000000000006ec .LVL156
     /tmp/ccE92s7W.s:991    .text:00000000000006f8 .LVL157
     /tmp/ccE92s7W.s:996    .text:0000000000000708 .LVL158
     /tmp/ccE92s7W.s:1000   .text:0000000000000710 .LVL159
     /tmp/ccE92s7W.s:1004   .text:0000000000000718 .LVL160
     /tmp/ccE92s7W.s:4243   .debug_str:0000000000000475 .LASF38
     /tmp/ccE92s7W.s:4255   .debug_str:00000000000004bd .LASF39
     /tmp/ccE92s7W.s:794    .text:000000000000056c .LFB10
     /tmp/ccE92s7W.s:948    .text:00000000000006ac .LFE10
     /tmp/ccE92s7W.s:819    .text:00000000000005a4 .LBB61
     /tmp/ccE92s7W.s:4031   .debug_ranges:0000000000000000 .Ldebug_ranges0
     /tmp/ccE92s7W.s:3344   .debug_loc:0000000000000039 .LLST33
     /tmp/ccE92s7W.s:3359   .debug_loc:0000000000000073 .LLST34
     /tmp/ccE92s7W.s:3374   .debug_loc:00000000000000bb .LLST35
     /tmp/ccE92s7W.s:877    .text:0000000000000604 .LVL136
     /tmp/ccE92s7W.s:882    .text:0000000000000614 .LVL137
     /tmp/ccE92s7W.s:887    .text:0000000000000624 .LVL138
GAS LISTING /tmp/ccE92s7W.s 			page 37


     /tmp/ccE92s7W.s:892    .text:0000000000000630 .LVL139
     /tmp/ccE92s7W.s:897    .text:0000000000000640 .LVL140
     /tmp/ccE92s7W.s:901    .text:0000000000000648 .LVL141
     /tmp/ccE92s7W.s:905    .text:0000000000000650 .LVL142
     /tmp/ccE92s7W.s:840    .text:00000000000005c8 .LBB64
     /tmp/ccE92s7W.s:3393   .debug_loc:00000000000000f9 .LLST36
     /tmp/ccE92s7W.s:3408   .debug_loc:0000000000000133 .LLST37
     /tmp/ccE92s7W.s:3423   .debug_loc:000000000000017b .LLST38
     /tmp/ccE92s7W.s:916    .text:0000000000000660 .LVL144
     /tmp/ccE92s7W.s:921    .text:0000000000000670 .LVL145
     /tmp/ccE92s7W.s:926    .text:0000000000000680 .LVL146
     /tmp/ccE92s7W.s:931    .text:000000000000068c .LVL147
     /tmp/ccE92s7W.s:936    .text:000000000000069c .LVL148
     /tmp/ccE92s7W.s:940    .text:00000000000006a4 .LVL149
     /tmp/ccE92s7W.s:944    .text:00000000000006ac .LVL150
     /tmp/ccE92s7W.s:809    .text:000000000000058c .LVL122
     /tmp/ccE92s7W.s:813    .text:0000000000000594 .LVL123
     /tmp/ccE92s7W.s:816    .text:000000000000059c .LVL124
     /tmp/ccE92s7W.s:818    .text:00000000000005a4 .LVL125
     /tmp/ccE92s7W.s:830    .text:00000000000005b0 .LVL127
     /tmp/ccE92s7W.s:834    .text:00000000000005b8 .LVL128
     /tmp/ccE92s7W.s:837    .text:00000000000005c0 .LVL129
     /tmp/ccE92s7W.s:839    .text:00000000000005c8 .LVL130
     /tmp/ccE92s7W.s:852    .text:00000000000005dc .LVL132
     /tmp/ccE92s7W.s:856    .text:00000000000005e4 .LVL133
     /tmp/ccE92s7W.s:4113   .debug_str:0000000000000019 .LASF40
     /tmp/ccE92s7W.s:4175   .debug_str:00000000000001f5 .LASF41
     /tmp/ccE92s7W.s:429    .text:00000000000002c8 .LFB9
     /tmp/ccE92s7W.s:780    .text:000000000000056c .LFE9
     /tmp/ccE92s7W.s:3442   .debug_loc:00000000000001b9 .LLST15
     /tmp/ccE92s7W.s:4205   .debug_str:0000000000000354 .LASF42
     /tmp/ccE92s7W.s:3457   .debug_loc:0000000000000202 .LLST16
     /tmp/ccE92s7W.s:3472   .debug_loc:000000000000024b .LLST17
     /tmp/ccE92s7W.s:466    .text:0000000000000310 .LBB36
     /tmp/ccE92s7W.s:493    .text:0000000000000340 .LBE36
     /tmp/ccE92s7W.s:3491   .debug_loc:00000000000002a7 .LLST18
     /tmp/ccE92s7W.s:481    .text:0000000000000330 .LVL67
     /tmp/ccE92s7W.s:3521   .debug_loc:000000000000031d .LLST19
     /tmp/ccE92s7W.s:3532   .debug_loc:0000000000000353 .LLST23
     /tmp/ccE92s7W.s:551    .text:0000000000000398 .LBB43
     /tmp/ccE92s7W.s:3547   .debug_loc:000000000000039c .LLST24
     /tmp/ccE92s7W.s:3562   .debug_loc:00000000000003d6 .LLST25
     /tmp/ccE92s7W.s:3577   .debug_loc:000000000000041e .LLST26
     /tmp/ccE92s7W.s:612    .text:0000000000000410 .LVL89
     /tmp/ccE92s7W.s:617    .text:0000000000000420 .LVL90
     /tmp/ccE92s7W.s:622    .text:0000000000000430 .LVL91
     /tmp/ccE92s7W.s:627    .text:000000000000043c .LVL92
     /tmp/ccE92s7W.s:632    .text:000000000000044c .LVL93
     /tmp/ccE92s7W.s:636    .text:0000000000000454 .LVL94
     /tmp/ccE92s7W.s:640    .text:000000000000045c .LVL95
     /tmp/ccE92s7W.s:549    .text:0000000000000398 .LVL77
     /tmp/ccE92s7W.s:528    .text:0000000000000374 .LBB39
     /tmp/ccE92s7W.s:3596   .debug_loc:000000000000045c .LLST20
     /tmp/ccE92s7W.s:3611   .debug_loc:0000000000000496 .LLST21
     /tmp/ccE92s7W.s:3626   .debug_loc:00000000000004de .LLST22
     /tmp/ccE92s7W.s:572    .text:00000000000003b4 .LVL81
     /tmp/ccE92s7W.s:577    .text:00000000000003c4 .LVL82
GAS LISTING /tmp/ccE92s7W.s 			page 38


     /tmp/ccE92s7W.s:582    .text:00000000000003d4 .LVL83
     /tmp/ccE92s7W.s:587    .text:00000000000003e0 .LVL84
     /tmp/ccE92s7W.s:592    .text:00000000000003f0 .LVL85
     /tmp/ccE92s7W.s:596    .text:00000000000003f8 .LVL86
     /tmp/ccE92s7W.s:600    .text:0000000000000400 .LVL87
     /tmp/ccE92s7W.s:651    .text:0000000000000468 .LBB49
     /tmp/ccE92s7W.s:3651   .debug_loc:0000000000000522 .LLST27
     /tmp/ccE92s7W.s:3666   .debug_loc:000000000000055c .LLST28
     /tmp/ccE92s7W.s:3681   .debug_loc:00000000000005a4 .LLST29
     /tmp/ccE92s7W.s:709    .text:00000000000004c4 .LVL107
     /tmp/ccE92s7W.s:714    .text:00000000000004d4 .LVL108
     /tmp/ccE92s7W.s:719    .text:00000000000004e4 .LVL109
     /tmp/ccE92s7W.s:724    .text:00000000000004f0 .LVL110
     /tmp/ccE92s7W.s:729    .text:0000000000000500 .LVL111
     /tmp/ccE92s7W.s:733    .text:0000000000000508 .LVL112
     /tmp/ccE92s7W.s:737    .text:0000000000000510 .LVL113
     /tmp/ccE92s7W.s:664    .text:000000000000047c .LBB52
     /tmp/ccE92s7W.s:3700   .debug_loc:00000000000005e2 .LLST30
     /tmp/ccE92s7W.s:3715   .debug_loc:000000000000061c .LLST31
     /tmp/ccE92s7W.s:3730   .debug_loc:0000000000000664 .LLST32
     /tmp/ccE92s7W.s:748    .text:0000000000000520 .LVL115
     /tmp/ccE92s7W.s:753    .text:0000000000000530 .LVL116
     /tmp/ccE92s7W.s:758    .text:0000000000000540 .LVL117
     /tmp/ccE92s7W.s:763    .text:000000000000054c .LVL118
     /tmp/ccE92s7W.s:768    .text:000000000000055c .LVL119
     /tmp/ccE92s7W.s:772    .text:0000000000000564 .LVL120
     /tmp/ccE92s7W.s:776    .text:000000000000056c .LVL121
     /tmp/ccE92s7W.s:450    .text:00000000000002f4 .LVL62
     /tmp/ccE92s7W.s:454    .text:00000000000002fc .LVL63
     /tmp/ccE92s7W.s:462    .text:000000000000030c .LVL64
     /tmp/ccE92s7W.s:649    .text:0000000000000468 .LVL96
     /tmp/ccE92s7W.s:661    .text:0000000000000474 .LVL98
     /tmp/ccE92s7W.s:663    .text:000000000000047c .LVL99
     /tmp/ccE92s7W.s:676    .text:0000000000000490 .LVL101
     /tmp/ccE92s7W.s:680    .text:0000000000000498 .LVL102
     /tmp/ccE92s7W.s:4227   .debug_str:00000000000003ea .LASF43
     /tmp/ccE92s7W.s:4145   .debug_str:00000000000000e3 .LASF44
     /tmp/ccE92s7W.s:103    .text:0000000000000068 .LFB8
     /tmp/ccE92s7W.s:415    .text:00000000000002c8 .LFE8
     /tmp/ccE92s7W.s:3749   .debug_loc:00000000000006a2 .LLST1
     /tmp/ccE92s7W.s:3781   .debug_loc:0000000000000729 .LLST2
     /tmp/ccE92s7W.s:3813   .debug_loc:00000000000007b0 .LLST3
     /tmp/ccE92s7W.s:4193   .debug_str:0000000000000321 .LASF45
     /tmp/ccE92s7W.s:3833   .debug_loc:000000000000080d .LLST4
     /tmp/ccE92s7W.s:4141   .debug_str:00000000000000d6 .LASF46
     /tmp/ccE92s7W.s:3844   .debug_loc:0000000000000843 .LLST5
     /tmp/ccE92s7W.s:182    .text:00000000000000ec .LBB12
     /tmp/ccE92s7W.s:3863   .debug_loc:000000000000089f .LLST6
     /tmp/ccE92s7W.s:3878   .debug_loc:00000000000008d9 .LLST7
     /tmp/ccE92s7W.s:3893   .debug_loc:0000000000000921 .LLST8
     /tmp/ccE92s7W.s:290    .text:00000000000001c8 .LVL38
     /tmp/ccE92s7W.s:295    .text:00000000000001d8 .LVL39
     /tmp/ccE92s7W.s:300    .text:00000000000001e8 .LVL40
     /tmp/ccE92s7W.s:305    .text:00000000000001f4 .LVL41
     /tmp/ccE92s7W.s:310    .text:0000000000000204 .LVL42
     /tmp/ccE92s7W.s:314    .text:000000000000020c .LVL43
     /tmp/ccE92s7W.s:318    .text:0000000000000214 .LVL44
GAS LISTING /tmp/ccE92s7W.s 			page 39


     /tmp/ccE92s7W.s:244    .text:000000000000015c .LBB15
     /tmp/ccE92s7W.s:282    .text:00000000000001b8 .LBE15
     /tmp/ccE92s7W.s:3918   .debug_loc:0000000000000965 .LLST9
     /tmp/ccE92s7W.s:3927   .debug_loc:000000000000098a .LLST10
     /tmp/ccE92s7W.s:3936   .debug_loc:00000000000009b6 .LLST11
     /tmp/ccE92s7W.s:251    .text:000000000000016c .LVL30
     /tmp/ccE92s7W.s:256    .text:000000000000017c .LVL31
     /tmp/ccE92s7W.s:261    .text:000000000000018c .LVL32
     /tmp/ccE92s7W.s:266    .text:0000000000000198 .LVL33
     /tmp/ccE92s7W.s:271    .text:00000000000001a8 .LVL34
     /tmp/ccE92s7W.s:275    .text:00000000000001b0 .LVL35
     /tmp/ccE92s7W.s:279    .text:00000000000001b8 .LVL36
     /tmp/ccE92s7W.s:167    .text:00000000000000d4 .LVL11
     /tmp/ccE92s7W.s:175    .text:00000000000000e4 .LVL14
     /tmp/ccE92s7W.s:213    .text:0000000000000110 .LVL23
     /tmp/ccE92s7W.s:218    .text:000000000000011c .LVL24
     /tmp/ccE92s7W.s:223    .text:000000000000012c .LVL25
     /tmp/ccE92s7W.s:228    .text:0000000000000138 .LVL26
     /tmp/ccE92s7W.s:233    .text:0000000000000148 .LVL27
     /tmp/ccE92s7W.s:238    .text:0000000000000154 .LVL28
     /tmp/ccE92s7W.s:242    .text:000000000000015c .LVL29
     /tmp/ccE92s7W.s:329    .text:0000000000000224 .LBB21
     /tmp/ccE92s7W.s:3944   .debug_loc:00000000000009da .LLST12
     /tmp/ccE92s7W.s:3959   .debug_loc:0000000000000a14 .LLST13
     /tmp/ccE92s7W.s:3974   .debug_loc:0000000000000a5c .LLST14
     /tmp/ccE92s7W.s:383    .text:000000000000027c .LVL55
     /tmp/ccE92s7W.s:388    .text:000000000000028c .LVL56
     /tmp/ccE92s7W.s:393    .text:000000000000029c .LVL57
     /tmp/ccE92s7W.s:398    .text:00000000000002a8 .LVL58
     /tmp/ccE92s7W.s:403    .text:00000000000002b8 .LVL59
     /tmp/ccE92s7W.s:407    .text:00000000000002c0 .LVL60
     /tmp/ccE92s7W.s:411    .text:00000000000002c8 .LVL61
     /tmp/ccE92s7W.s:132    .text:00000000000000a4 .LVL6
     /tmp/ccE92s7W.s:136    .text:00000000000000ac .LVL7
     /tmp/ccE92s7W.s:326    .text:000000000000021c .LVL45
     /tmp/ccE92s7W.s:328    .text:0000000000000224 .LVL46
     /tmp/ccE92s7W.s:341    .text:0000000000000238 .LVL48
     /tmp/ccE92s7W.s:345    .text:0000000000000240 .LVL49
     /tmp/ccE92s7W.s:4121   .debug_str:000000000000004e .LASF75
     /tmp/ccE92s7W.s:10     .text:0000000000000000 .LFB7
     /tmp/ccE92s7W.s:68     .text:0000000000000068 .LFE7
     /tmp/ccE92s7W.s:3993   .debug_loc:0000000000000a9a .LLST0
     /tmp/ccE92s7W.s:57     .text:0000000000000050 .LVL3
     /tmp/ccE92s7W.s:62     .text:0000000000000060 .LVL4
     /tmp/ccE92s7W.s:4229   .debug_str:00000000000003fa .LASF47
     /tmp/ccE92s7W.s:4211   .debug_str:0000000000000381 .LASF48
     /tmp/ccE92s7W.s:4143   .debug_str:00000000000000dd .LASF49
     /tmp/ccE92s7W.s:4177   .debug_str:000000000000020e .LASF50
     /tmp/ccE92s7W.s:4203   .debug_str:000000000000034f .LASF51
     /tmp/ccE92s7W.s:4133   .debug_str:0000000000000098 .LASF52
     /tmp/ccE92s7W.s:4187   .debug_str:00000000000002fc .LASF53
     /tmp/ccE92s7W.s:4191   .debug_str:0000000000000317 .LASF55
     /tmp/ccE92s7W.s:4241   .debug_str:000000000000046a .LASF54
     /tmp/ccE92s7W.s:4257   .debug_str:00000000000004ca .LASF56
     /tmp/ccE92s7W.s:4195   .debug_str:0000000000000328 .LASF57
     /tmp/ccE92s7W.s:4249   .debug_str:00000000000004a2 .LASF58
     /tmp/ccE92s7W.s:4179   .debug_str:0000000000000213 .LASF59
GAS LISTING /tmp/ccE92s7W.s 			page 40


     /tmp/ccE92s7W.s:4135   .debug_str:000000000000009d .LASF60
     /tmp/ccE92s7W.s:4171   .debug_str:00000000000001c9 .LASF61
     /tmp/ccE92s7W.s:4247   .debug_str:0000000000000498 .LASF62
     /tmp/ccE92s7W.s:4149   .debug_str:000000000000010b .LASF63
     /tmp/ccE92s7W.s:4217   .debug_str:00000000000003ab .LASF64
     /tmp/ccE92s7W.s:4117   .debug_str:0000000000000034 .LASF65
     /tmp/ccE92s7W.s:4157   .debug_str:0000000000000153 .LASF66
     /tmp/ccE92s7W.s:4251   .debug_str:00000000000004ad .LASF67
     /tmp/ccE92s7W.s:4181   .debug_str:0000000000000223 .LASF68
     /tmp/ccE92s7W.s:957    .text:00000000000006ac .LVL151
     /tmp/ccE92s7W.s:974    .text:00000000000006c4 .LVL153
     /tmp/ccE92s7W.s:824    .text:00000000000005a8 .LVL126
     /tmp/ccE92s7W.s:867    .text:00000000000005f4 .LVL134
     /tmp/ccE92s7W.s:875    .text:00000000000005fc .LVL135
     /tmp/ccE92s7W.s:845    .text:00000000000005cc .LVL131
     /tmp/ccE92s7W.s:914    .text:0000000000000658 .LVL143
     /tmp/ccE92s7W.s:464    .text:0000000000000310 .LVL65
     /tmp/ccE92s7W.s:469    .text:0000000000000314 .LVL66
     /tmp/ccE92s7W.s:695    .text:00000000000004ac .LVL104
     /tmp/ccE92s7W.s:699    .text:00000000000004b4 .LVL105
     /tmp/ccE92s7W.s:501    .text:0000000000000348 .LVL70
     /tmp/ccE92s7W.s:515    .text:0000000000000364 .LVL71
     /tmp/ccE92s7W.s:520    .text:000000000000036c .LVL73
     /tmp/ccE92s7W.s:537    .text:000000000000037c .LVL76
     /tmp/ccE92s7W.s:563    .text:00000000000003a4 .LVL80
     /tmp/ccE92s7W.s:610    .text:0000000000000408 .LVL88
     /tmp/ccE92s7W.s:707    .text:00000000000004bc .LVL106
     /tmp/ccE92s7W.s:489    .text:000000000000033c .LVL68
     /tmp/ccE92s7W.s:491    .text:0000000000000340 .LVL69
     /tmp/ccE92s7W.s:518    .text:0000000000000368 .LVL72
     /tmp/ccE92s7W.s:525    .text:0000000000000370 .LVL74
     /tmp/ccE92s7W.s:561    .text:00000000000003a0 .LVL79
     /tmp/ccE92s7W.s:690    .text:00000000000004a4 .LVL103
     /tmp/ccE92s7W.s:556    .text:000000000000039c .LVL78
     /tmp/ccE92s7W.s:527    .text:0000000000000374 .LVL75
     /tmp/ccE92s7W.s:656    .text:000000000000046c .LVL97
     /tmp/ccE92s7W.s:669    .text:0000000000000480 .LVL100
     /tmp/ccE92s7W.s:746    .text:0000000000000518 .LVL114
     /tmp/ccE92s7W.s:148    .text:00000000000000b8 .LVL8
     /tmp/ccE92s7W.s:158    .text:00000000000000c4 .LVL9
     /tmp/ccE92s7W.s:201    .text:00000000000000fc .LVL20
     /tmp/ccE92s7W.s:205    .text:0000000000000100 .LVL21
     /tmp/ccE92s7W.s:362    .text:0000000000000258 .LVL51
     /tmp/ccE92s7W.s:373    .text:000000000000026c .LVL53
     /tmp/ccE92s7W.s:162    .text:00000000000000c8 .LVL10
     /tmp/ccE92s7W.s:198    .text:00000000000000f8 .LVL19
     /tmp/ccE92s7W.s:365    .text:000000000000025c .LVL52
     /tmp/ccE92s7W.s:194    .text:00000000000000f4 .LVL18
     /tmp/ccE92s7W.s:355    .text:000000000000024c .LVL50
     /tmp/ccE92s7W.s:169    .text:00000000000000d8 .LVL12
     /tmp/ccE92s7W.s:173    .text:00000000000000dc .LVL13
     /tmp/ccE92s7W.s:177    .text:00000000000000e8 .LVL15
     /tmp/ccE92s7W.s:211    .text:0000000000000108 .LVL22
     /tmp/ccE92s7W.s:288    .text:00000000000001c0 .LVL37
     /tmp/ccE92s7W.s:181    .text:00000000000000ec .LVL16
     /tmp/ccE92s7W.s:188    .text:00000000000000f0 .LVL17
     /tmp/ccE92s7W.s:334    .text:0000000000000228 .LVL47
GAS LISTING /tmp/ccE92s7W.s 			page 41


     /tmp/ccE92s7W.s:381    .text:0000000000000274 .LVL54
     /tmp/ccE92s7W.s:14     .text:0000000000000000 .LVL0
     /tmp/ccE92s7W.s:33     .text:0000000000000028 .LVL1
     /tmp/ccE92s7W.s:50     .text:0000000000000044 .LVL2
     /tmp/ccE92s7W.s:65     .text:0000000000000064 .LVL5
     /tmp/ccE92s7W.s:1015   .debug_info:0000000000000000 .Ldebug_info0
     /tmp/ccE92s7W.s:140    .text:00000000000000ac .LBB10
     /tmp/ccE92s7W.s:143    .text:00000000000000b0 .LBE10
     /tmp/ccE92s7W.s:150    .text:00000000000000b8 .LBB20
     /tmp/ccE92s7W.s:323    .text:0000000000000214 .LBE20
     /tmp/ccE92s7W.s:154    .text:00000000000000c0 .LBB11
     /tmp/ccE92s7W.s:191    .text:00000000000000f0 .LBE11
     /tmp/ccE92s7W.s:195    .text:00000000000000f4 .LBB18
     /tmp/ccE92s7W.s:202    .text:00000000000000fc .LBE18
     /tmp/ccE92s7W.s:207    .text:0000000000000100 .LBB19
     /tmp/ccE92s7W.s:322    .text:0000000000000214 .LBE19
     /tmp/ccE92s7W.s:190    .text:00000000000000f0 .LBE12
     /tmp/ccE92s7W.s:283    .text:00000000000001b8 .LBB17
     /tmp/ccE92s7W.s:321    .text:0000000000000214 .LBE17
     /tmp/ccE92s7W.s:336    .text:0000000000000228 .LBE21
     /tmp/ccE92s7W.s:376    .text:000000000000026c .LBB24
     /tmp/ccE92s7W.s:413    .text:00000000000002c8 .LBE24
     /tmp/ccE92s7W.s:494    .text:0000000000000340 .LBB37
     /tmp/ccE92s7W.s:497    .text:0000000000000344 .LBE37
     /tmp/ccE92s7W.s:502    .text:0000000000000348 .LBB38
     /tmp/ccE92s7W.s:522    .text:000000000000036c .LBE38
     /tmp/ccE92s7W.s:533    .text:0000000000000378 .LBE39
     /tmp/ccE92s7W.s:566    .text:00000000000003a4 .LBB47
     /tmp/ccE92s7W.s:603    .text:0000000000000400 .LBE47
     /tmp/ccE92s7W.s:534    .text:0000000000000378 .LBB42
     /tmp/ccE92s7W.s:565    .text:00000000000003a4 .LBE42
     /tmp/ccE92s7W.s:604    .text:0000000000000400 .LBB48
     /tmp/ccE92s7W.s:644    .text:000000000000045c .LBE48
     /tmp/ccE92s7W.s:558    .text:000000000000039c .LBE43
     /tmp/ccE92s7W.s:605    .text:0000000000000400 .LBB46
     /tmp/ccE92s7W.s:643    .text:000000000000045c .LBE46
     /tmp/ccE92s7W.s:658    .text:000000000000046c .LBE49
     /tmp/ccE92s7W.s:702    .text:00000000000004b4 .LBB55
     /tmp/ccE92s7W.s:740    .text:0000000000000510 .LBE55
     /tmp/ccE92s7W.s:671    .text:0000000000000480 .LBE52
     /tmp/ccE92s7W.s:741    .text:0000000000000510 .LBB56
     /tmp/ccE92s7W.s:778    .text:000000000000056c .LBE56
     /tmp/ccE92s7W.s:826    .text:00000000000005a8 .LBE61
     /tmp/ccE92s7W.s:870    .text:00000000000005f4 .LBB67
     /tmp/ccE92s7W.s:908    .text:0000000000000650 .LBE67
     /tmp/ccE92s7W.s:847    .text:00000000000005cc .LBE64
     /tmp/ccE92s7W.s:909    .text:0000000000000650 .LBB68
     /tmp/ccE92s7W.s:946    .text:00000000000006ac .LBE68

UNDEFINED SYMBOLS
_Z9putStringPKc
_Z10putNewlinev
_Z9test_callm
_Z6putInti
_Z6putU64m
_Z10stopKernelv
_ZN8MemAlloc3getEv
GAS LISTING /tmp/ccE92s7W.s 			page 42


_ZN8MemAlloc16getUserlandUsageEv
_Z9mem_allocm
_Z8mem_freePv
