GAS LISTING /tmp/ccq14iul.s 			page 1


   1              		.file	"APP.cpp"
   2              		.option pic
   3              		.option norelax
   4              		.text
   5              	.Ltext0:
   6              		.section	.rodata.str1.8,"aMS",@progbits,1
   7              		.align	3
   8              	.LC0:
   9 0000 3D3D3D20 		.string	"=== Testing \"testSyncCall\""
   9      54657374 
   9      696E6720 
   9      22746573 
   9      7453796E 
  10 001b 00000000 		.align	3
  10      00
  11              	.LC1:
  12 0020 74687265 		.string	"thread_t a = "
  12      61645F74 
  12      2061203D 
  12      2000
  13 002e 0000     		.align	3
  14              	.LC2:
  15 0030 74687265 		.string	"thread_t b = "
  15      61645F74 
  15      2062203D 
  15      2000
  16              		.text
  17              		.align	2
  18              		.globl	_Z12testSyncCallv
  20              	_Z12testSyncCallv:
  21              	.LFB11:
  22              		.file 1 "src/APP.cpp"
   1:src/APP.cpp   **** #include "../h/my_console.h"
   2:src/APP.cpp   **** #include "../h/c_api.h"
   3:src/APP.cpp   **** #include "../h/alloc.h"
   4:src/APP.cpp   **** #include "../h/thread.h"
   5:src/APP.cpp   **** 
   6:src/APP.cpp   **** void testSystemCalls();
   7:src/APP.cpp   **** void testMemoryAllocator();
   8:src/APP.cpp   **** void testSyncCall();
   9:src/APP.cpp   **** uint64 fib(uint64);
  10:src/APP.cpp   **** 
  11:src/APP.cpp   **** void userMain()
  12:src/APP.cpp   **** {
  13:src/APP.cpp   **** //    __asm__ volatile ("csrw sscratch, x1"); // set spie bit to 1. spie signifies that we dont wan
  14:src/APP.cpp   **** 
  15:src/APP.cpp   ****     putString("App started");
  16:src/APP.cpp   ****     putNewline();
  17:src/APP.cpp   ****     assert(MemAlloc::get()->getUserlandUsage() == Thread::initialUserMemoryUsage);
  18:src/APP.cpp   **** 
  19:src/APP.cpp   **** 
  20:src/APP.cpp   **** //    volatile uint64 i = 0;
  21:src/APP.cpp   **** //    while(i < 10)
  22:src/APP.cpp   **** //    {
  23:src/APP.cpp   **** //        putString("putString() in APP");
  24:src/APP.cpp   **** //        putNewline();
  25:src/APP.cpp   **** //        i++;
GAS LISTING /tmp/ccq14iul.s 			page 2


  26:src/APP.cpp   **** //    }
  27:src/APP.cpp   **** 
  28:src/APP.cpp   **** //    testSystemCalls();
  29:src/APP.cpp   **** //    testMemoryAllocator();
  30:src/APP.cpp   ****     testSyncCall();
  31:src/APP.cpp   **** 
  32:src/APP.cpp   **** //    assert(MemAlloc::get()->getUserlandUsage() == Thread::initialUserMemoryUsage); // TODO: enabl
  33:src/APP.cpp   ****     putString("App ended");
  34:src/APP.cpp   ****     putNewline();
  35:src/APP.cpp   **** }
  36:src/APP.cpp   **** 
  37:src/APP.cpp   **** void testSyncCall()
  38:src/APP.cpp   **** {
  23              		.loc 1 38 1
  24              		.cfi_startproc
  25 0000 130101FD 		addi	sp,sp,-48
  26              		.cfi_def_cfa_offset 48
  27 0004 23341102 		sd	ra,40(sp)
  28 0008 23308102 		sd	s0,32(sp)
  29              		.cfi_offset 1, -8
  30              		.cfi_offset 8, -16
  31 000c 13040103 		addi	s0,sp,48
  32              		.cfi_def_cfa 8, 0
  39:src/APP.cpp   **** //    disableExternalInterrupts();
  40:src/APP.cpp   **** 
  41:src/APP.cpp   **** //    assert(MemAlloc::get()->getUserlandUsage() == Thread::initialUserMemoryUsage);
  42:src/APP.cpp   **** 
  43:src/APP.cpp   ****     putString("=== Testing \"testSyncCall\"");
  33              		.loc 1 43 5
  34              		.loc 1 43 14 is_stmt 0
  35 0010 17050000 		lla	a0,.LC0
  35      13050500 
  36 0018 97000000 		call	_Z9putStringPKc@plt
  36      E7800000 
  37              	.LVL0:
  44:src/APP.cpp   ****     putNewline();
  38              		.loc 1 44 5 is_stmt 1
  39              		.loc 1 44 15 is_stmt 0
  40 0020 97000000 		call	_Z10putNewlinev@plt
  40      E7800000 
  41              	.LVL1:
  45:src/APP.cpp   **** 
  46:src/APP.cpp   ****     void doA(void*);
  42              		.loc 1 46 5 is_stmt 1
  47:src/APP.cpp   ****     void doB(void*);
  43              		.loc 1 47 5
  48:src/APP.cpp   **** 
  49:src/APP.cpp   ****     int argA = 69;
  44              		.loc 1 49 5
  45              		.loc 1 49 9 is_stmt 0
  46 0028 93075004 		li	a5,69
  47 002c 2326F4FE 		sw	a5,-20(s0)
  50:src/APP.cpp   ****     int argB = 420;
  48              		.loc 1 50 5 is_stmt 1
  49              		.loc 1 50 9 is_stmt 0
  50 0030 9307401A 		li	a5,420
  51 0034 2324F4FE 		sw	a5,-24(s0)
GAS LISTING /tmp/ccq14iul.s 			page 3


  51:src/APP.cpp   ****     thread_t a;
  52              		.loc 1 51 5 is_stmt 1
  52:src/APP.cpp   ****     thread_t b;
  53              		.loc 1 52 5
  53:src/APP.cpp   ****     thread_create(&a, doA, &argA);
  54              		.loc 1 53 5
  55              		.loc 1 53 18 is_stmt 0
  56 0038 1306C4FE 		addi	a2,s0,-20
  57 003c 97050000 		la	a1,_Z3doAPv
  57      83B50500 
  58 0044 130504FE 		addi	a0,s0,-32
  59 0048 97000000 		call	_Z13thread_createPmPFvPvES0_@plt
  59      E7800000 
  60              	.LVL2:
  54:src/APP.cpp   ****     thread_create(&b, doB, &argB);
  61              		.loc 1 54 5 is_stmt 1
  62              		.loc 1 54 18 is_stmt 0
  63 0050 130684FE 		addi	a2,s0,-24
  64 0054 97050000 		la	a1,_Z3doBPv
  64      83B50500 
  65 005c 130584FD 		addi	a0,s0,-40
  66 0060 97000000 		call	_Z13thread_createPmPFvPvES0_@plt
  66      E7800000 
  67              	.LVL3:
  55:src/APP.cpp   ****     thread_dispatch();
  68              		.loc 1 55 5 is_stmt 1
  69              		.loc 1 55 20 is_stmt 0
  70 0068 97000000 		call	_Z15thread_dispatchv@plt
  70      E7800000 
  71              	.LVL4:
  56:src/APP.cpp   **** 
  57:src/APP.cpp   ****     putString("thread_t a = ");
  72              		.loc 1 57 5 is_stmt 1
  73              		.loc 1 57 14 is_stmt 0
  74 0070 17050000 		lla	a0,.LC1
  74      13050500 
  75 0078 97000000 		call	_Z9putStringPKc@plt
  75      E7800000 
  76              	.LVL5:
  58:src/APP.cpp   ****     putU64(a);
  77              		.loc 1 58 5 is_stmt 1
  78              		.loc 1 58 11 is_stmt 0
  79 0080 033504FE 		ld	a0,-32(s0)
  80 0084 97000000 		call	_Z6putU64m@plt
  80      E7800000 
  81              	.LVL6:
  59:src/APP.cpp   ****     putNewline();
  82              		.loc 1 59 5 is_stmt 1
  83              		.loc 1 59 15 is_stmt 0
  84 008c 97000000 		call	_Z10putNewlinev@plt
  84      E7800000 
  85              	.LVL7:
  60:src/APP.cpp   ****     putString("thread_t b = ");
  86              		.loc 1 60 5 is_stmt 1
  87              		.loc 1 60 14 is_stmt 0
  88 0094 17050000 		lla	a0,.LC2
  88      13050500 
GAS LISTING /tmp/ccq14iul.s 			page 4


  89 009c 97000000 		call	_Z9putStringPKc@plt
  89      E7800000 
  90              	.LVL8:
  61:src/APP.cpp   ****     putU64(b);
  91              		.loc 1 61 5 is_stmt 1
  92              		.loc 1 61 11 is_stmt 0
  93 00a4 033584FD 		ld	a0,-40(s0)
  94 00a8 97000000 		call	_Z6putU64m@plt
  94      E7800000 
  95              	.LVL9:
  62:src/APP.cpp   ****     putNewline();
  96              		.loc 1 62 5 is_stmt 1
  97              		.loc 1 62 15 is_stmt 0
  98 00b0 97000000 		call	_Z10putNewlinev@plt
  98      E7800000 
  99              	.LVL10:
  63:src/APP.cpp   **** 
  64:src/APP.cpp   **** //    thread_join(a);
  65:src/APP.cpp   **** //    thread_join(b);
  66:src/APP.cpp   **** //    assert(Thread::pAllThreads[a]->id == Thread::pAllThreads[b]->id-1);
  67:src/APP.cpp   **** //    assert(MemAlloc::get()->getUserlandUsage() == Thread::initialUserMemoryUsage);
  68:src/APP.cpp   **** 
  69:src/APP.cpp   **** //    enableExternalInterrupts();
  70:src/APP.cpp   ****     __asm__ volatile("mv x10, x10");
 100              		.loc 1 70 5 is_stmt 1
 101              		.loc 1 70 36 is_stmt 0
 102              	#APP
 103              	# 70 "src/APP.cpp" 1
  71              	}
 104              		mv x10, x10
 105              	# 0 "" 2
 106              		.loc 1 71 1
 107              	#NO_APP
 108 00bc 83308102 		ld	ra,40(sp)
 109              		.cfi_restore 1
 110 00c0 03340102 		ld	s0,32(sp)
 111              		.cfi_restore 8
 112              		.cfi_def_cfa 2, 48
 113 00c4 13010103 		addi	sp,sp,48
 114              		.cfi_def_cfa_offset 0
 115 00c8 67800000 		jr	ra
 116              		.cfi_endproc
 117              	.LFE11:
 119              		.section	.rodata.str1.8
 120 003e 0000     		.align	3
 121              	.LC3:
 122 0040 41707020 		.string	"App started"
 122      73746172 
 122      74656400 
 123 004c 00000000 		.align	3
 124              	.LC4:
 125 0050 3D3D3D3D 		.string	"===================== ASSERT file: "
 125      3D3D3D3D 
 125      3D3D3D3D 
 125      3D3D3D3D 
 125      3D3D3D3D 
 126 0074 00000000 		.align	3
GAS LISTING /tmp/ccq14iul.s 			page 5


 127              	.LC5:
 128 0078 7372632F 		.string	"src/APP.cpp"
 128      4150502E 
 128      63707000 
 129 0084 00000000 		.align	3
 130              	.LC6:
 131 0088 20202020 		.string	"    line: "
 131      6C696E65 
 131      3A2000
 132 0093 00000000 		.align	3
 132      00
 133              	.LC7:
 134 0098 2020203D 		.string	"   ==========================="
 134      3D3D3D3D 
 134      3D3D3D3D 
 134      3D3D3D3D 
 134      3D3D3D3D 
 135 00b7 00       		.align	3
 136              	.LC8:
 137 00b8 41707020 		.string	"App ended"
 137      656E6465 
 137      6400
 138              		.text
 139              		.align	2
 140              		.globl	_Z8userMainv
 142              	_Z8userMainv:
 143              	.LFB10:
  12:src/APP.cpp   **** //    __asm__ volatile ("csrw sscratch, x1"); // set spie bit to 1. spie signifies that we dont wan
 144              		.loc 1 12 1 is_stmt 1
 145              		.cfi_startproc
 146 00cc 130101FF 		addi	sp,sp,-16
 147              		.cfi_def_cfa_offset 16
 148 00d0 23341100 		sd	ra,8(sp)
 149 00d4 23308100 		sd	s0,0(sp)
 150              		.cfi_offset 1, -8
 151              		.cfi_offset 8, -16
 152 00d8 13040101 		addi	s0,sp,16
 153              		.cfi_def_cfa 8, 0
  15:src/APP.cpp   ****     putNewline();
 154              		.loc 1 15 5
  15:src/APP.cpp   ****     putNewline();
 155              		.loc 1 15 14 is_stmt 0
 156 00dc 17050000 		lla	a0,.LC3
 156      13050500 
 157 00e4 97000000 		call	_Z9putStringPKc@plt
 157      E7800000 
 158              	.LVL11:
  16:src/APP.cpp   ****     assert(MemAlloc::get()->getUserlandUsage() == Thread::initialUserMemoryUsage);
 159              		.loc 1 16 5 is_stmt 1
  16:src/APP.cpp   ****     assert(MemAlloc::get()->getUserlandUsage() == Thread::initialUserMemoryUsage);
 160              		.loc 1 16 15 is_stmt 0
 161 00ec 97000000 		call	_Z10putNewlinev@plt
 161      E7800000 
 162              	.LVL12:
  17:src/APP.cpp   **** 
 163              		.loc 1 17 5 is_stmt 1
 164 00f4 97000000 		call	_ZN8MemAlloc3getEv@plt
GAS LISTING /tmp/ccq14iul.s 			page 6


 164      E7800000 
 165              	.LVL13:
 166 00fc 97000000 		call	_ZN8MemAlloc16getUserlandUsageEv@plt
 166      E7800000 
 167              	.LVL14:
 168 0104 97070000 		la	a5,_ZN6Thread22initialUserMemoryUsageE
 168      83B70700 
 169 010c 83B70700 		ld	a5,0(a5)
 170              	.LVL15:
 171              	.LBB4:
 172              	.LBB5:
 173              		.file 2 "src/../h/my_console.h"
   1:src/../h/my_console.h **** #pragma once
   2:src/../h/my_console.h **** 
   3:src/../h/my_console.h **** #include "../h/risc.h"
   4:src/../h/my_console.h **** 
   5:src/../h/my_console.h **** #include "../lib/console.h"
   6:src/../h/my_console.h **** #include "../lib/hw.h"
   7:src/../h/my_console.h **** 
   8:src/../h/my_console.h **** #define __DEBUG_MODE
   9:src/../h/my_console.h **** 
  10:src/../h/my_console.h **** 
  11:src/../h/my_console.h **** void putString(const char* s);
  12:src/../h/my_console.h **** void putInt(int n);
  13:src/../h/my_console.h **** void putNewline();
  14:src/../h/my_console.h **** void putU64(uint64 n);
  15:src/../h/my_console.h **** void putBinary(uint64 n);
  16:src/../h/my_console.h **** 
  17:src/../h/my_console.h **** [[noreturn]] void stopKernel();
  18:src/../h/my_console.h **** 
  19:src/../h/my_console.h **** inline void _assert(bool valid, const char* file, int line) // MUST be inline
  20:src/../h/my_console.h **** {
  21:src/../h/my_console.h ****     if(valid)
 174              		.loc 2 21 5
 175 0110 639AA702 		bne	a5,a0,.L6
  22:src/../h/my_console.h ****         return;
 176              		.loc 2 22 9
 177              	.LVL16:
 178              	.LBE5:
 179              	.LBE4:
  30:src/APP.cpp   **** 
 180              		.loc 1 30 5
  30:src/APP.cpp   **** 
 181              		.loc 1 30 17 is_stmt 0
 182 0114 97000000 		call	_Z12testSyncCallv
 182      E7800000 
 183              	.LVL17:
  33:src/APP.cpp   ****     putNewline();
 184              		.loc 1 33 5 is_stmt 1
  33:src/APP.cpp   ****     putNewline();
 185              		.loc 1 33 14 is_stmt 0
 186 011c 17050000 		lla	a0,.LC8
 186      13050500 
 187 0124 97000000 		call	_Z9putStringPKc@plt
 187      E7800000 
 188              	.LVL18:
  34:src/APP.cpp   **** }
GAS LISTING /tmp/ccq14iul.s 			page 7


 189              		.loc 1 34 5 is_stmt 1
  34:src/APP.cpp   **** }
 190              		.loc 1 34 15 is_stmt 0
 191 012c 97000000 		call	_Z10putNewlinev@plt
 191      E7800000 
 192              	.LVL19:
  35:src/APP.cpp   **** 
 193              		.loc 1 35 1
 194 0134 83308100 		ld	ra,8(sp)
 195              		.cfi_remember_state
 196              		.cfi_restore 1
 197 0138 03340100 		ld	s0,0(sp)
 198              		.cfi_restore 8
 199              		.cfi_def_cfa 2, 16
 200 013c 13010101 		addi	sp,sp,16
 201              		.cfi_def_cfa_offset 0
 202 0140 67800000 		jr	ra
 203              	.LVL20:
 204              	.L6:
 205              		.cfi_restore_state
 206              	.LBB7:
 207              	.LBB6:
  23:src/../h/my_console.h **** 
  24:src/../h/my_console.h ****     putString("===================== ASSERT file: ");
 208              		.loc 2 24 5 is_stmt 1
 209              		.loc 2 24 14 is_stmt 0
 210 0144 17050000 		lla	a0,.LC4
 210      13050500 
 211              	.LVL21:
 212 014c 97000000 		call	_Z9putStringPKc@plt
 212      E7800000 
 213              	.LVL22:
  25:src/../h/my_console.h ****     putString(file);
 214              		.loc 2 25 5 is_stmt 1
 215              		.loc 2 25 14 is_stmt 0
 216 0154 17050000 		lla	a0,.LC5
 216      13050500 
 217 015c 97000000 		call	_Z9putStringPKc@plt
 217      E7800000 
 218              	.LVL23:
  26:src/../h/my_console.h ****     putString("    line: ");
 219              		.loc 2 26 5 is_stmt 1
 220              		.loc 2 26 14 is_stmt 0
 221 0164 17050000 		lla	a0,.LC6
 221      13050500 
 222 016c 97000000 		call	_Z9putStringPKc@plt
 222      E7800000 
 223              	.LVL24:
  27:src/../h/my_console.h ****     putInt(line);
 224              		.loc 2 27 5 is_stmt 1
 225              		.loc 2 27 11 is_stmt 0
 226 0174 13051001 		li	a0,17
 227 0178 97000000 		call	_Z6putInti@plt
 227      E7800000 
 228              	.LVL25:
  28:src/../h/my_console.h ****     putString("   ===========================");
 229              		.loc 2 28 5 is_stmt 1
GAS LISTING /tmp/ccq14iul.s 			page 8


 230              		.loc 2 28 14 is_stmt 0
 231 0180 17050000 		lla	a0,.LC7
 231      13050500 
 232 0188 97000000 		call	_Z9putStringPKc@plt
 232      E7800000 
 233              	.LVL26:
  29:src/../h/my_console.h ****     putNewline();
 234              		.loc 2 29 5 is_stmt 1
 235              		.loc 2 29 15 is_stmt 0
 236 0190 97000000 		call	_Z10putNewlinev@plt
 236      E7800000 
 237              	.LVL27:
  30:src/../h/my_console.h **** 
  31:src/../h/my_console.h ****     stopKernel();
 238              		.loc 2 31 5 is_stmt 1
 239              		.loc 2 31 15 is_stmt 0
 240 0198 97000000 		call	_Z10stopKernelv@plt
 240      E7800000 
 241              	.LVL28:
 242              	.LBE6:
 243              	.LBE7:
 244              		.cfi_endproc
 245              	.LFE10:
 247              		.align	2
 248              		.globl	_Z3doAPv
 250              	_Z3doAPv:
 251              	.LFB12:
  72:src/APP.cpp   **** 
  73:src/APP.cpp   **** 
  74:src/APP.cpp   **** void doA(void* p)
  75:src/APP.cpp   **** {
 252              		.loc 1 75 1 is_stmt 1
 253              		.cfi_startproc
 254              	.LVL29:
 255 01a0 130101FF 		addi	sp,sp,-16
 256              		.cfi_def_cfa_offset 16
 257 01a4 23341100 		sd	ra,8(sp)
 258 01a8 23308100 		sd	s0,0(sp)
 259              		.cfi_offset 1, -8
 260              		.cfi_offset 8, -16
 261 01ac 13040101 		addi	s0,sp,16
 262              		.cfi_def_cfa 8, 0
  76:src/APP.cpp   ****     assert(*((int*)p) == 69);
 263              		.loc 1 76 5
 264 01b0 83270500 		lw	a5,0(a0)
 265 01b4 9387B7FB 		addi	a5,a5,-69
 266              	.LVL30:
 267              	.LBB12:
 268              	.LBB13:
  21:src/../h/my_console.h ****         return;
 269              		.loc 2 21 5
 270 01b8 639A0706 		bnez	a5,.L10
  22:src/../h/my_console.h **** 
 271              		.loc 2 22 9
 272              	.LVL31:
 273              	.LBE13:
 274              	.LBE12:
GAS LISTING /tmp/ccq14iul.s 			page 9


  77:src/APP.cpp   ****     thread_dispatch();
 275              		.loc 1 77 5
 276              		.loc 1 77 20 is_stmt 0
 277 01bc 97000000 		call	_Z15thread_dispatchv@plt
 277      E7800000 
 278              	.LVL32:
  78:src/APP.cpp   **** 
  79:src/APP.cpp   ****     __asm__ volatile("mv x10, x10");
 279              		.loc 1 79 5 is_stmt 1
 280              		.loc 1 79 36 is_stmt 0
 281              	#APP
 282              	# 79 "src/APP.cpp" 1
  80              	    thread_exit();
 283              		mv x10, x10
 284              	# 0 "" 2
 285              		.loc 1 80 5 is_stmt 1
 286              		.loc 1 80 16 is_stmt 0
 287              	#NO_APP
 288 01c8 97000000 		call	_Z11thread_exitv@plt
 288      E7800000 
 289              	.LVL33:
  81:src/APP.cpp   ****     assert(false);
 290              		.loc 1 81 5 is_stmt 1
 291              	.LBB15:
 292              	.LBB16:
  21:src/../h/my_console.h ****         return;
 293              		.loc 2 21 5
  24:src/../h/my_console.h ****     putString(file);
 294              		.loc 2 24 5
  24:src/../h/my_console.h ****     putString(file);
 295              		.loc 2 24 14 is_stmt 0
 296 01d0 17050000 		lla	a0,.LC4
 296      13050500 
 297 01d8 97000000 		call	_Z9putStringPKc@plt
 297      E7800000 
 298              	.LVL34:
  25:src/../h/my_console.h ****     putString("    line: ");
 299              		.loc 2 25 5 is_stmt 1
  25:src/../h/my_console.h ****     putString("    line: ");
 300              		.loc 2 25 14 is_stmt 0
 301 01e0 17050000 		lla	a0,.LC5
 301      13050500 
 302 01e8 97000000 		call	_Z9putStringPKc@plt
 302      E7800000 
 303              	.LVL35:
  26:src/../h/my_console.h ****     putInt(line);
 304              		.loc 2 26 5 is_stmt 1
  26:src/../h/my_console.h ****     putInt(line);
 305              		.loc 2 26 14 is_stmt 0
 306 01f0 17050000 		lla	a0,.LC6
 306      13050500 
 307 01f8 97000000 		call	_Z9putStringPKc@plt
 307      E7800000 
 308              	.LVL36:
  27:src/../h/my_console.h ****     putString("   ===========================");
 309              		.loc 2 27 5 is_stmt 1
  27:src/../h/my_console.h ****     putString("   ===========================");
GAS LISTING /tmp/ccq14iul.s 			page 10


 310              		.loc 2 27 11 is_stmt 0
 311 0200 13051005 		li	a0,81
 312 0204 97000000 		call	_Z6putInti@plt
 312      E7800000 
 313              	.LVL37:
  28:src/../h/my_console.h ****     putNewline();
 314              		.loc 2 28 5 is_stmt 1
  28:src/../h/my_console.h ****     putNewline();
 315              		.loc 2 28 14 is_stmt 0
 316 020c 17050000 		lla	a0,.LC7
 316      13050500 
 317 0214 97000000 		call	_Z9putStringPKc@plt
 317      E7800000 
 318              	.LVL38:
  29:src/../h/my_console.h **** 
 319              		.loc 2 29 5 is_stmt 1
  29:src/../h/my_console.h **** 
 320              		.loc 2 29 15 is_stmt 0
 321 021c 97000000 		call	_Z10putNewlinev@plt
 321      E7800000 
 322              	.LVL39:
 323              		.loc 2 31 5 is_stmt 1
 324              		.loc 2 31 15 is_stmt 0
 325 0224 97000000 		call	_Z10stopKernelv@plt
 325      E7800000 
 326              	.LVL40:
 327              	.L10:
 328              	.LBE16:
 329              	.LBE15:
 330              	.LBB17:
 331              	.LBB14:
  24:src/../h/my_console.h ****     putString(file);
 332              		.loc 2 24 5 is_stmt 1
  24:src/../h/my_console.h ****     putString(file);
 333              		.loc 2 24 14 is_stmt 0
 334 022c 17050000 		lla	a0,.LC4
 334      13050500 
 335              	.LVL41:
 336 0234 97000000 		call	_Z9putStringPKc@plt
 336      E7800000 
 337              	.LVL42:
  25:src/../h/my_console.h ****     putString("    line: ");
 338              		.loc 2 25 5 is_stmt 1
  25:src/../h/my_console.h ****     putString("    line: ");
 339              		.loc 2 25 14 is_stmt 0
 340 023c 17050000 		lla	a0,.LC5
 340      13050500 
 341 0244 97000000 		call	_Z9putStringPKc@plt
 341      E7800000 
 342              	.LVL43:
  26:src/../h/my_console.h ****     putInt(line);
 343              		.loc 2 26 5 is_stmt 1
  26:src/../h/my_console.h ****     putInt(line);
 344              		.loc 2 26 14 is_stmt 0
 345 024c 17050000 		lla	a0,.LC6
 345      13050500 
 346 0254 97000000 		call	_Z9putStringPKc@plt
GAS LISTING /tmp/ccq14iul.s 			page 11


 346      E7800000 
 347              	.LVL44:
  27:src/../h/my_console.h ****     putString("   ===========================");
 348              		.loc 2 27 5 is_stmt 1
  27:src/../h/my_console.h ****     putString("   ===========================");
 349              		.loc 2 27 11 is_stmt 0
 350 025c 1305C004 		li	a0,76
 351 0260 97000000 		call	_Z6putInti@plt
 351      E7800000 
 352              	.LVL45:
  28:src/../h/my_console.h ****     putNewline();
 353              		.loc 2 28 5 is_stmt 1
  28:src/../h/my_console.h ****     putNewline();
 354              		.loc 2 28 14 is_stmt 0
 355 0268 17050000 		lla	a0,.LC7
 355      13050500 
 356 0270 97000000 		call	_Z9putStringPKc@plt
 356      E7800000 
 357              	.LVL46:
  29:src/../h/my_console.h **** 
 358              		.loc 2 29 5 is_stmt 1
  29:src/../h/my_console.h **** 
 359              		.loc 2 29 15 is_stmt 0
 360 0278 97000000 		call	_Z10putNewlinev@plt
 360      E7800000 
 361              	.LVL47:
 362              		.loc 2 31 5 is_stmt 1
 363              		.loc 2 31 15 is_stmt 0
 364 0280 97000000 		call	_Z10stopKernelv@plt
 364      E7800000 
 365              	.LVL48:
 366              	.LBE14:
 367              	.LBE17:
 368              		.cfi_endproc
 369              	.LFE12:
 371              		.align	2
 372              		.globl	_Z3doBPv
 374              	_Z3doBPv:
 375              	.LFB13:
  82:src/APP.cpp   **** }
  83:src/APP.cpp   **** 
  84:src/APP.cpp   **** void doB(void* p)
  85:src/APP.cpp   **** {
 376              		.loc 1 85 1 is_stmt 1
 377              		.cfi_startproc
 378              	.LVL49:
 379 0288 130101FF 		addi	sp,sp,-16
 380              		.cfi_def_cfa_offset 16
 381 028c 23341100 		sd	ra,8(sp)
 382 0290 23308100 		sd	s0,0(sp)
 383              		.cfi_offset 1, -8
 384              		.cfi_offset 8, -16
 385 0294 13040101 		addi	s0,sp,16
 386              		.cfi_def_cfa 8, 0
  86:src/APP.cpp   ****     assert(*((int*)p) == 420);
 387              		.loc 1 86 5
 388 0298 83270500 		lw	a5,0(a0)
GAS LISTING /tmp/ccq14iul.s 			page 12


 389 029c 9387C7E5 		addi	a5,a5,-420
 390              	.LVL50:
 391              	.LBB22:
 392              	.LBB23:
  21:src/../h/my_console.h ****         return;
 393              		.loc 2 21 5
 394 02a0 639A0706 		bnez	a5,.L14
  22:src/../h/my_console.h **** 
 395              		.loc 2 22 9
 396              	.LVL51:
 397              	.LBE23:
 398              	.LBE22:
  87:src/APP.cpp   ****     thread_dispatch();
 399              		.loc 1 87 5
 400              		.loc 1 87 20 is_stmt 0
 401 02a4 97000000 		call	_Z15thread_dispatchv@plt
 401      E7800000 
 402              	.LVL52:
  88:src/APP.cpp   **** 
  89:src/APP.cpp   ****     __asm__ volatile("mv x10, x10");
 403              		.loc 1 89 5 is_stmt 1
 404              		.loc 1 89 36 is_stmt 0
 405              	#APP
 406              	# 89 "src/APP.cpp" 1
  90              	    thread_exit();
 407              		mv x10, x10
 408              	# 0 "" 2
 409              		.loc 1 90 5 is_stmt 1
 410              		.loc 1 90 16 is_stmt 0
 411              	#NO_APP
 412 02b0 97000000 		call	_Z11thread_exitv@plt
 412      E7800000 
 413              	.LVL53:
  91:src/APP.cpp   ****     assert(false);
 414              		.loc 1 91 5 is_stmt 1
 415              	.LBB25:
 416              	.LBB26:
  21:src/../h/my_console.h ****         return;
 417              		.loc 2 21 5
  24:src/../h/my_console.h ****     putString(file);
 418              		.loc 2 24 5
  24:src/../h/my_console.h ****     putString(file);
 419              		.loc 2 24 14 is_stmt 0
 420 02b8 17050000 		lla	a0,.LC4
 420      13050500 
 421 02c0 97000000 		call	_Z9putStringPKc@plt
 421      E7800000 
 422              	.LVL54:
  25:src/../h/my_console.h ****     putString("    line: ");
 423              		.loc 2 25 5 is_stmt 1
  25:src/../h/my_console.h ****     putString("    line: ");
 424              		.loc 2 25 14 is_stmt 0
 425 02c8 17050000 		lla	a0,.LC5
 425      13050500 
 426 02d0 97000000 		call	_Z9putStringPKc@plt
 426      E7800000 
 427              	.LVL55:
GAS LISTING /tmp/ccq14iul.s 			page 13


  26:src/../h/my_console.h ****     putInt(line);
 428              		.loc 2 26 5 is_stmt 1
  26:src/../h/my_console.h ****     putInt(line);
 429              		.loc 2 26 14 is_stmt 0
 430 02d8 17050000 		lla	a0,.LC6
 430      13050500 
 431 02e0 97000000 		call	_Z9putStringPKc@plt
 431      E7800000 
 432              	.LVL56:
  27:src/../h/my_console.h ****     putString("   ===========================");
 433              		.loc 2 27 5 is_stmt 1
  27:src/../h/my_console.h ****     putString("   ===========================");
 434              		.loc 2 27 11 is_stmt 0
 435 02e8 1305B005 		li	a0,91
 436 02ec 97000000 		call	_Z6putInti@plt
 436      E7800000 
 437              	.LVL57:
  28:src/../h/my_console.h ****     putNewline();
 438              		.loc 2 28 5 is_stmt 1
  28:src/../h/my_console.h ****     putNewline();
 439              		.loc 2 28 14 is_stmt 0
 440 02f4 17050000 		lla	a0,.LC7
 440      13050500 
 441 02fc 97000000 		call	_Z9putStringPKc@plt
 441      E7800000 
 442              	.LVL58:
  29:src/../h/my_console.h **** 
 443              		.loc 2 29 5 is_stmt 1
  29:src/../h/my_console.h **** 
 444              		.loc 2 29 15 is_stmt 0
 445 0304 97000000 		call	_Z10putNewlinev@plt
 445      E7800000 
 446              	.LVL59:
 447              		.loc 2 31 5 is_stmt 1
 448              		.loc 2 31 15 is_stmt 0
 449 030c 97000000 		call	_Z10stopKernelv@plt
 449      E7800000 
 450              	.LVL60:
 451              	.L14:
 452              	.LBE26:
 453              	.LBE25:
 454              	.LBB27:
 455              	.LBB24:
  24:src/../h/my_console.h ****     putString(file);
 456              		.loc 2 24 5 is_stmt 1
  24:src/../h/my_console.h ****     putString(file);
 457              		.loc 2 24 14 is_stmt 0
 458 0314 17050000 		lla	a0,.LC4
 458      13050500 
 459              	.LVL61:
 460 031c 97000000 		call	_Z9putStringPKc@plt
 460      E7800000 
 461              	.LVL62:
  25:src/../h/my_console.h ****     putString("    line: ");
 462              		.loc 2 25 5 is_stmt 1
  25:src/../h/my_console.h ****     putString("    line: ");
 463              		.loc 2 25 14 is_stmt 0
GAS LISTING /tmp/ccq14iul.s 			page 14


 464 0324 17050000 		lla	a0,.LC5
 464      13050500 
 465 032c 97000000 		call	_Z9putStringPKc@plt
 465      E7800000 
 466              	.LVL63:
  26:src/../h/my_console.h ****     putInt(line);
 467              		.loc 2 26 5 is_stmt 1
  26:src/../h/my_console.h ****     putInt(line);
 468              		.loc 2 26 14 is_stmt 0
 469 0334 17050000 		lla	a0,.LC6
 469      13050500 
 470 033c 97000000 		call	_Z9putStringPKc@plt
 470      E7800000 
 471              	.LVL64:
  27:src/../h/my_console.h ****     putString("   ===========================");
 472              		.loc 2 27 5 is_stmt 1
  27:src/../h/my_console.h ****     putString("   ===========================");
 473              		.loc 2 27 11 is_stmt 0
 474 0344 13056005 		li	a0,86
 475 0348 97000000 		call	_Z6putInti@plt
 475      E7800000 
 476              	.LVL65:
  28:src/../h/my_console.h ****     putNewline();
 477              		.loc 2 28 5 is_stmt 1
  28:src/../h/my_console.h ****     putNewline();
 478              		.loc 2 28 14 is_stmt 0
 479 0350 17050000 		lla	a0,.LC7
 479      13050500 
 480 0358 97000000 		call	_Z9putStringPKc@plt
 480      E7800000 
 481              	.LVL66:
  29:src/../h/my_console.h **** 
 482              		.loc 2 29 5 is_stmt 1
  29:src/../h/my_console.h **** 
 483              		.loc 2 29 15 is_stmt 0
 484 0360 97000000 		call	_Z10putNewlinev@plt
 484      E7800000 
 485              	.LVL67:
 486              		.loc 2 31 5 is_stmt 1
 487              		.loc 2 31 15 is_stmt 0
 488 0368 97000000 		call	_Z10stopKernelv@plt
 488      E7800000 
 489              	.LVL68:
 490              	.LBE24:
 491              	.LBE27:
 492              		.cfi_endproc
 493              	.LFE13:
 495              		.align	2
 496              		.globl	_Z3fibm
 498              	_Z3fibm:
 499              	.LFB14:
  92:src/APP.cpp   **** }
  93:src/APP.cpp   **** 
  94:src/APP.cpp   **** //
  95:src/APP.cpp   **** //    for(int i=0; ; i++)
  96:src/APP.cpp   **** //    {
  97:src/APP.cpp   **** //        putString("A i=");
GAS LISTING /tmp/ccq14iul.s 			page 15


  98:src/APP.cpp   **** //        putU64(i);
  99:src/APP.cpp   **** //        putNewline();
 100:src/APP.cpp   **** //
 101:src/APP.cpp   **** //        assert(fib(i) == test_call(i));
 102:src/APP.cpp   **** //        if(i == 5)
 103:src/APP.cpp   **** //        {
 104:src/APP.cpp   **** //            break;
 105:src/APP.cpp   **** //            assert(false);
 106:src/APP.cpp   **** //        }
 107:src/APP.cpp   **** //        thread_dispatch();
 108:src/APP.cpp   **** //    }
 109:src/APP.cpp   **** //for(int i=0; ; i++)
 110:src/APP.cpp   **** //{
 111:src/APP.cpp   **** //putString("B i=");
 112:src/APP.cpp   **** //putU64(i);
 113:src/APP.cpp   **** //putNewline();
 114:src/APP.cpp   **** //
 115:src/APP.cpp   **** //assert(fib(i) == test_call(i));
 116:src/APP.cpp   **** //thread_dispatch();
 117:src/APP.cpp   **** //
 118:src/APP.cpp   **** //if(i == 10)
 119:src/APP.cpp   **** //break;
 120:src/APP.cpp   **** //}
 121:src/APP.cpp   **** 
 122:src/APP.cpp   **** uint64 fib(uint64 n)
 123:src/APP.cpp   **** {
 500              		.loc 1 123 1 is_stmt 1
 501              		.cfi_startproc
 502              	.LVL69:
 503 0370 130101FE 		addi	sp,sp,-32
 504              		.cfi_def_cfa_offset 32
 505 0374 233C1100 		sd	ra,24(sp)
 506 0378 23388100 		sd	s0,16(sp)
 507 037c 23349100 		sd	s1,8(sp)
 508 0380 23302101 		sd	s2,0(sp)
 509              		.cfi_offset 1, -8
 510              		.cfi_offset 8, -16
 511              		.cfi_offset 9, -24
 512              		.cfi_offset 18, -32
 513 0384 13040102 		addi	s0,sp,32
 514              		.cfi_def_cfa 8, 0
 515 0388 93040500 		mv	s1,a0
 124:src/APP.cpp   ****     if(n == 1)
 516              		.loc 1 124 5
 517 038c 93071000 		li	a5,1
 518 0390 6304F500 		beq	a0,a5,.L16
 125:src/APP.cpp   ****         return 1;
 126:src/APP.cpp   ****     else if (n == 0)
 519              		.loc 1 126 10
 520 0394 63100502 		bnez	a0,.L18
 521              	.LVL70:
 522              	.L16:
 127:src/APP.cpp   ****         return 0;
 128:src/APP.cpp   ****     else return fib(n-1) + fib(n-2);
 129:src/APP.cpp   **** }
 523              		.loc 1 129 1 is_stmt 0
 524 0398 13850400 		mv	a0,s1
GAS LISTING /tmp/ccq14iul.s 			page 16


 525 039c 83308101 		ld	ra,24(sp)
 526              		.cfi_remember_state
 527              		.cfi_restore 1
 528 03a0 03340101 		ld	s0,16(sp)
 529              		.cfi_restore 8
 530              		.cfi_def_cfa 2, 32
 531 03a4 83348100 		ld	s1,8(sp)
 532              		.cfi_restore 9
 533 03a8 03390100 		ld	s2,0(sp)
 534              		.cfi_restore 18
 535 03ac 13010102 		addi	sp,sp,32
 536              		.cfi_def_cfa_offset 0
 537 03b0 67800000 		jr	ra
 538              	.LVL71:
 539              	.L18:
 540              		.cfi_restore_state
 128:src/APP.cpp   **** }
 541              		.loc 1 128 10 is_stmt 1
 128:src/APP.cpp   **** }
 542              		.loc 1 128 20 is_stmt 0
 543 03b4 1305F5FF 		addi	a0,a0,-1
 544 03b8 97000000 		call	_Z3fibm
 544      E7800000 
 545              	.LVL72:
 546 03c0 13090500 		mv	s2,a0
 128:src/APP.cpp   **** }
 547              		.loc 1 128 31
 548 03c4 1385E4FF 		addi	a0,s1,-2
 549 03c8 97000000 		call	_Z3fibm
 549      E7800000 
 550              	.LVL73:
 128:src/APP.cpp   **** }
 551              		.loc 1 128 35
 552 03d0 B304A900 		add	s1,s2,a0
 553              	.LVL74:
 554 03d4 6FF05FFC 		j	.L16
 555              		.cfi_endproc
 556              	.LFE14:
 558              		.section	.rodata.str1.8
 559 00c2 00000000 		.align	3
 559      0000
 560              	.LC9:
 561 00c8 3D3D3D20 		.string	"=== Testing \"testSystemCalls\""
 561      54657374 
 561      696E6720 
 561      22746573 
 561      74537973 
 562 00e6 0000     		.align	3
 563              	.LC10:
 564 00e8 74657374 		.string	"test_call() error. i="
 564      5F63616C 
 564      6C282920 
 564      6572726F 
 564      722E2069 
 565 00fe 0000     		.align	3
 566              	.LC11:
 567 0100 20666962 		.string	" fib(i)="
GAS LISTING /tmp/ccq14iul.s 			page 17


 567      2869293D 
 567      00
 568 0109 00000000 		.align	3
 568      000000
 569              	.LC12:
 570 0110 20746573 		.string	" test_call(i)="
 570      745F6361 
 570      6C6C2869 
 570      293D00
 571 011f 00       		.align	3
 572              	.LC13:
 573 0120 3D3D3D3D 		.string	"====== Done testing system calls"
 573      3D3D2044 
 573      6F6E6520 
 573      74657374 
 573      696E6720 
 574              		.text
 575              		.align	2
 576              		.globl	_Z15testSystemCallsv
 578              	_Z15testSystemCallsv:
 579              	.LFB15:
 130:src/APP.cpp   **** 
 131:src/APP.cpp   **** void testSystemCalls()
 132:src/APP.cpp   **** {
 580              		.loc 1 132 1 is_stmt 1
 581              		.cfi_startproc
 582 03d8 130101FB 		addi	sp,sp,-80
 583              		.cfi_def_cfa_offset 80
 584 03dc 23341104 		sd	ra,72(sp)
 585 03e0 23308104 		sd	s0,64(sp)
 586 03e4 233C9102 		sd	s1,56(sp)
 587 03e8 23382103 		sd	s2,48(sp)
 588 03ec 23343103 		sd	s3,40(sp)
 589 03f0 23304103 		sd	s4,32(sp)
 590 03f4 233C5101 		sd	s5,24(sp)
 591 03f8 23386101 		sd	s6,16(sp)
 592 03fc 23347101 		sd	s7,8(sp)
 593              		.cfi_offset 1, -8
 594              		.cfi_offset 8, -16
 595              		.cfi_offset 9, -24
 596              		.cfi_offset 18, -32
 597              		.cfi_offset 19, -40
 598              		.cfi_offset 20, -48
 599              		.cfi_offset 21, -56
 600              		.cfi_offset 22, -64
 601              		.cfi_offset 23, -72
 602 0400 13040105 		addi	s0,sp,80
 603              		.cfi_def_cfa 8, 0
 133:src/APP.cpp   ****     putString("=== Testing \"testSystemCalls\"");
 604              		.loc 1 133 5
 605              		.loc 1 133 14 is_stmt 0
 606 0404 17050000 		lla	a0,.LC9
 606      13050500 
 607 040c 97000000 		call	_Z9putStringPKc@plt
 607      E7800000 
 608              	.LVL75:
 134:src/APP.cpp   ****     putNewline();
GAS LISTING /tmp/ccq14iul.s 			page 18


 609              		.loc 1 134 5 is_stmt 1
 610              		.loc 1 134 15 is_stmt 0
 611 0414 97000000 		call	_Z10putNewlinev@plt
 611      E7800000 
 612              	.LVL76:
 135:src/APP.cpp   **** 
 136:src/APP.cpp   ****     int a = 0;
 613              		.loc 1 136 5 is_stmt 1
 137:src/APP.cpp   ****     int b = 0;
 614              		.loc 1 137 5
 138:src/APP.cpp   **** 
 139:src/APP.cpp   ****     for(int i=1; i<10; i++)
 615              		.loc 1 139 5
 616              	.LBB36:
 617              		.loc 1 139 13 is_stmt 0
 618 041c 93041000 		li	s1,1
 619              	.LBE36:
 137:src/APP.cpp   ****     int b = 0;
 620              		.loc 1 137 9
 621 0420 930A0000 		li	s5,0
 136:src/APP.cpp   ****     int b = 0;
 622              		.loc 1 136 9
 623 0424 130A0000 		li	s4,0
 624              	.LVL77:
 625              	.L23:
 626              	.LBB46:
 627              		.loc 1 139 19 is_stmt 1 discriminator 1
 628 0428 93079000 		li	a5,9
 629 042c 63CC9714 		bgt	s1,a5,.L20
 630              	.LBB37:
 140:src/APP.cpp   ****     {
 141:src/APP.cpp   ****         a++;
 631              		.loc 1 141 9
 632              		.loc 1 141 10 is_stmt 0
 633 0430 1B0B1A00 		addiw	s6,s4,1
 634              	.LVL78:
 142:src/APP.cpp   ****         b++;
 635              		.loc 1 142 9 is_stmt 1
 636              		.loc 1 142 10 is_stmt 0
 637 0434 9B8B1A00 		addiw	s7,s5,1
 638              	.LVL79:
 143:src/APP.cpp   **** 
 144:src/APP.cpp   ****         uint64 called = test_call(i);
 639              		.loc 1 144 9 is_stmt 1
 640              		.loc 1 144 34 is_stmt 0
 641 0438 13850400 		mv	a0,s1
 642 043c 97000000 		call	_Z9test_callm@plt
 642      E7800000 
 643              	.LVL80:
 644 0444 13090500 		mv	s2,a0
 645              	.LVL81:
 145:src/APP.cpp   ****         uint64 actual = fib(i);
 646              		.loc 1 145 9 is_stmt 1
 647              		.loc 1 145 28 is_stmt 0
 648 0448 13850400 		mv	a0,s1
 649              	.LVL82:
 650 044c 97000000 		call	_Z3fibm
GAS LISTING /tmp/ccq14iul.s 			page 19


 650      E7800000 
 651              	.LVL83:
 652 0454 93090500 		mv	s3,a0
 653              	.LVL84:
 146:src/APP.cpp   **** 
 147:src/APP.cpp   ****         if(called != actual)
 654              		.loc 1 147 9 is_stmt 1
 655 0458 631CA900 		bne	s2,a0,.L26
 148:src/APP.cpp   ****         {
 149:src/APP.cpp   ****             putString("test_call() error. i=");
 150:src/APP.cpp   ****             putInt(i);
 151:src/APP.cpp   ****             putString(" fib(i)=");
 152:src/APP.cpp   ****             putU64(actual);
 153:src/APP.cpp   ****             putString(" test_call(i)=");
 154:src/APP.cpp   ****             putU64(called);
 155:src/APP.cpp   ****             putNewline();
 156:src/APP.cpp   ****             assert(false);
 157:src/APP.cpp   ****         }
 158:src/APP.cpp   **** 
 159:src/APP.cpp   ****         assert(a == b);
 656              		.loc 1 159 9 discriminator 2
 657              	.LVL85:
 658              	.LBB38:
 659              	.LBB39:
  21:src/../h/my_console.h ****         return;
 660              		.loc 2 21 5 discriminator 2
 661 045c 63165A0D 		bne	s4,s5,.L27
  22:src/../h/my_console.h **** 
 662              		.loc 2 22 9 discriminator 2
 663              	.LVL86:
 664              	.LBE39:
 665              	.LBE38:
 666              	.LBE37:
 139:src/APP.cpp   ****     {
 667              		.loc 1 139 5 discriminator 2
 668 0460 9B841400 		addiw	s1,s1,1
 669              	.LVL87:
 670              	.LBB44:
 142:src/APP.cpp   **** 
 671              		.loc 1 142 10 is_stmt 0 discriminator 2
 672 0464 938A0B00 		mv	s5,s7
 673              	.LVL88:
 141:src/APP.cpp   ****         b++;
 674              		.loc 1 141 10 discriminator 2
 675 0468 130A0B00 		mv	s4,s6
 676              	.LVL89:
 677              	.LBE44:
 139:src/APP.cpp   ****     {
 678              		.loc 1 139 5 discriminator 2
 679 046c 6FF0DFFB 		j	.L23
 680              	.LVL90:
 681              	.L26:
 682              	.LBB45:
 149:src/APP.cpp   ****             putInt(i);
 683              		.loc 1 149 13 is_stmt 1
 149:src/APP.cpp   ****             putInt(i);
 684              		.loc 1 149 22 is_stmt 0
GAS LISTING /tmp/ccq14iul.s 			page 20


 685 0470 17050000 		lla	a0,.LC10
 685      13050500 
 686              	.LVL91:
 687 0478 97000000 		call	_Z9putStringPKc@plt
 687      E7800000 
 688              	.LVL92:
 150:src/APP.cpp   ****             putString(" fib(i)=");
 689              		.loc 1 150 13 is_stmt 1
 150:src/APP.cpp   ****             putString(" fib(i)=");
 690              		.loc 1 150 19 is_stmt 0
 691 0480 13850400 		mv	a0,s1
 692 0484 97000000 		call	_Z6putInti@plt
 692      E7800000 
 693              	.LVL93:
 151:src/APP.cpp   ****             putU64(actual);
 694              		.loc 1 151 13 is_stmt 1
 151:src/APP.cpp   ****             putU64(actual);
 695              		.loc 1 151 22 is_stmt 0
 696 048c 17050000 		lla	a0,.LC11
 696      13050500 
 697 0494 97000000 		call	_Z9putStringPKc@plt
 697      E7800000 
 698              	.LVL94:
 152:src/APP.cpp   ****             putString(" test_call(i)=");
 699              		.loc 1 152 13 is_stmt 1
 152:src/APP.cpp   ****             putString(" test_call(i)=");
 700              		.loc 1 152 19 is_stmt 0
 701 049c 13850900 		mv	a0,s3
 702 04a0 97000000 		call	_Z6putU64m@plt
 702      E7800000 
 703              	.LVL95:
 153:src/APP.cpp   ****             putU64(called);
 704              		.loc 1 153 13 is_stmt 1
 153:src/APP.cpp   ****             putU64(called);
 705              		.loc 1 153 22 is_stmt 0
 706 04a8 17050000 		lla	a0,.LC12
 706      13050500 
 707 04b0 97000000 		call	_Z9putStringPKc@plt
 707      E7800000 
 708              	.LVL96:
 154:src/APP.cpp   ****             putNewline();
 709              		.loc 1 154 13 is_stmt 1
 154:src/APP.cpp   ****             putNewline();
 710              		.loc 1 154 19 is_stmt 0
 711 04b8 13050900 		mv	a0,s2
 712 04bc 97000000 		call	_Z6putU64m@plt
 712      E7800000 
 713              	.LVL97:
 155:src/APP.cpp   ****             assert(false);
 714              		.loc 1 155 13 is_stmt 1
 155:src/APP.cpp   ****             assert(false);
 715              		.loc 1 155 23 is_stmt 0
 716 04c4 97000000 		call	_Z10putNewlinev@plt
 716      E7800000 
 717              	.LVL98:
 156:src/APP.cpp   ****         }
 718              		.loc 1 156 13 is_stmt 1
GAS LISTING /tmp/ccq14iul.s 			page 21


 719              	.LBB41:
 720              	.LBB42:
  21:src/../h/my_console.h ****         return;
 721              		.loc 2 21 5
  24:src/../h/my_console.h ****     putString(file);
 722              		.loc 2 24 5
  24:src/../h/my_console.h ****     putString(file);
 723              		.loc 2 24 14 is_stmt 0
 724 04cc 17050000 		lla	a0,.LC4
 724      13050500 
 725 04d4 97000000 		call	_Z9putStringPKc@plt
 725      E7800000 
 726              	.LVL99:
  25:src/../h/my_console.h ****     putString("    line: ");
 727              		.loc 2 25 5 is_stmt 1
  25:src/../h/my_console.h ****     putString("    line: ");
 728              		.loc 2 25 14 is_stmt 0
 729 04dc 17050000 		lla	a0,.LC5
 729      13050500 
 730 04e4 97000000 		call	_Z9putStringPKc@plt
 730      E7800000 
 731              	.LVL100:
  26:src/../h/my_console.h ****     putInt(line);
 732              		.loc 2 26 5 is_stmt 1
  26:src/../h/my_console.h ****     putInt(line);
 733              		.loc 2 26 14 is_stmt 0
 734 04ec 17050000 		lla	a0,.LC6
 734      13050500 
 735 04f4 97000000 		call	_Z9putStringPKc@plt
 735      E7800000 
 736              	.LVL101:
  27:src/../h/my_console.h ****     putString("   ===========================");
 737              		.loc 2 27 5 is_stmt 1
  27:src/../h/my_console.h ****     putString("   ===========================");
 738              		.loc 2 27 11 is_stmt 0
 739 04fc 1305C009 		li	a0,156
 740 0500 97000000 		call	_Z6putInti@plt
 740      E7800000 
 741              	.LVL102:
  28:src/../h/my_console.h ****     putNewline();
 742              		.loc 2 28 5 is_stmt 1
  28:src/../h/my_console.h ****     putNewline();
 743              		.loc 2 28 14 is_stmt 0
 744 0508 17050000 		lla	a0,.LC7
 744      13050500 
 745 0510 97000000 		call	_Z9putStringPKc@plt
 745      E7800000 
 746              	.LVL103:
  29:src/../h/my_console.h **** 
 747              		.loc 2 29 5 is_stmt 1
  29:src/../h/my_console.h **** 
 748              		.loc 2 29 15 is_stmt 0
 749 0518 97000000 		call	_Z10putNewlinev@plt
 749      E7800000 
 750              	.LVL104:
 751              		.loc 2 31 5 is_stmt 1
 752              		.loc 2 31 15 is_stmt 0
GAS LISTING /tmp/ccq14iul.s 			page 22


 753 0520 97000000 		call	_Z10stopKernelv@plt
 753      E7800000 
 754              	.LVL105:
 755              	.L27:
 756              	.LBE42:
 757              	.LBE41:
 758              	.LBB43:
 759              	.LBB40:
  24:src/../h/my_console.h ****     putString(file);
 760              		.loc 2 24 5 is_stmt 1
  24:src/../h/my_console.h ****     putString(file);
 761              		.loc 2 24 14 is_stmt 0
 762 0528 17050000 		lla	a0,.LC4
 762      13050500 
 763              	.LVL106:
 764 0530 97000000 		call	_Z9putStringPKc@plt
 764      E7800000 
 765              	.LVL107:
  25:src/../h/my_console.h ****     putString("    line: ");
 766              		.loc 2 25 5 is_stmt 1
  25:src/../h/my_console.h ****     putString("    line: ");
 767              		.loc 2 25 14 is_stmt 0
 768 0538 17050000 		lla	a0,.LC5
 768      13050500 
 769 0540 97000000 		call	_Z9putStringPKc@plt
 769      E7800000 
 770              	.LVL108:
  26:src/../h/my_console.h ****     putInt(line);
 771              		.loc 2 26 5 is_stmt 1
  26:src/../h/my_console.h ****     putInt(line);
 772              		.loc 2 26 14 is_stmt 0
 773 0548 17050000 		lla	a0,.LC6
 773      13050500 
 774 0550 97000000 		call	_Z9putStringPKc@plt
 774      E7800000 
 775              	.LVL109:
  27:src/../h/my_console.h ****     putString("   ===========================");
 776              		.loc 2 27 5 is_stmt 1
  27:src/../h/my_console.h ****     putString("   ===========================");
 777              		.loc 2 27 11 is_stmt 0
 778 0558 1305F009 		li	a0,159
 779 055c 97000000 		call	_Z6putInti@plt
 779      E7800000 
 780              	.LVL110:
  28:src/../h/my_console.h ****     putNewline();
 781              		.loc 2 28 5 is_stmt 1
  28:src/../h/my_console.h ****     putNewline();
 782              		.loc 2 28 14 is_stmt 0
 783 0564 17050000 		lla	a0,.LC7
 783      13050500 
 784 056c 97000000 		call	_Z9putStringPKc@plt
 784      E7800000 
 785              	.LVL111:
  29:src/../h/my_console.h **** 
 786              		.loc 2 29 5 is_stmt 1
  29:src/../h/my_console.h **** 
 787              		.loc 2 29 15 is_stmt 0
GAS LISTING /tmp/ccq14iul.s 			page 23


 788 0574 97000000 		call	_Z10putNewlinev@plt
 788      E7800000 
 789              	.LVL112:
 790              		.loc 2 31 5 is_stmt 1
 791              		.loc 2 31 15 is_stmt 0
 792 057c 97000000 		call	_Z10stopKernelv@plt
 792      E7800000 
 793              	.LVL113:
 794              	.L20:
 795              	.LBE40:
 796              	.LBE43:
 797              	.LBE45:
 798              	.LBE46:
 160:src/APP.cpp   ****     }
 161:src/APP.cpp   **** 
 162:src/APP.cpp   ****     assert(MemAlloc::get()->getUserlandUsage() == Thread::initialUserMemoryUsage);
 799              		.loc 1 162 5 is_stmt 1
 800 0584 97000000 		call	_ZN8MemAlloc3getEv@plt
 800      E7800000 
 801              	.LVL114:
 802 058c 97000000 		call	_ZN8MemAlloc16getUserlandUsageEv@plt
 802      E7800000 
 803              	.LVL115:
 804 0594 97070000 		la	a5,_ZN6Thread22initialUserMemoryUsageE
 804      83B70700 
 805 059c 83B70700 		ld	a5,0(a5)
 806              	.LVL116:
 807              	.LBB47:
 808              	.LBB48:
  21:src/../h/my_console.h ****         return;
 809              		.loc 2 21 5
 810 05a0 6394A704 		bne	a5,a0,.L28
  22:src/../h/my_console.h **** 
 811              		.loc 2 22 9
 812              	.LVL117:
 813              	.LBE48:
 814              	.LBE47:
 163:src/APP.cpp   ****     putString("====== Done testing system calls");
 815              		.loc 1 163 5
 816              		.loc 1 163 14 is_stmt 0
 817 05a4 17050000 		lla	a0,.LC13
 817      13050500 
 818 05ac 97000000 		call	_Z9putStringPKc@plt
 818      E7800000 
 819              	.LVL118:
 164:src/APP.cpp   ****     putNewline();
 820              		.loc 1 164 5 is_stmt 1
 821              		.loc 1 164 15 is_stmt 0
 822 05b4 97000000 		call	_Z10putNewlinev@plt
 822      E7800000 
 823              	.LVL119:
 165:src/APP.cpp   **** }
 824              		.loc 1 165 1
 825 05bc 83308104 		ld	ra,72(sp)
 826              		.cfi_remember_state
 827              		.cfi_restore 1
 828 05c0 03340104 		ld	s0,64(sp)
GAS LISTING /tmp/ccq14iul.s 			page 24


 829              		.cfi_restore 8
 830              		.cfi_def_cfa 2, 80
 831 05c4 83348103 		ld	s1,56(sp)
 832              		.cfi_restore 9
 833              	.LVL120:
 834 05c8 03390103 		ld	s2,48(sp)
 835              		.cfi_restore 18
 836 05cc 83398102 		ld	s3,40(sp)
 837              		.cfi_restore 19
 838 05d0 033A0102 		ld	s4,32(sp)
 839              		.cfi_restore 20
 840              	.LVL121:
 841 05d4 833A8101 		ld	s5,24(sp)
 842              		.cfi_restore 21
 843              	.LVL122:
 844 05d8 033B0101 		ld	s6,16(sp)
 845              		.cfi_restore 22
 846 05dc 833B8100 		ld	s7,8(sp)
 847              		.cfi_restore 23
 848 05e0 13010105 		addi	sp,sp,80
 849              		.cfi_def_cfa_offset 0
 850 05e4 67800000 		jr	ra
 851              	.LVL123:
 852              	.L28:
 853              		.cfi_restore_state
 854              	.LBB50:
 855              	.LBB49:
  24:src/../h/my_console.h ****     putString(file);
 856              		.loc 2 24 5 is_stmt 1
  24:src/../h/my_console.h ****     putString(file);
 857              		.loc 2 24 14 is_stmt 0
 858 05e8 17050000 		lla	a0,.LC4
 858      13050500 
 859              	.LVL124:
 860 05f0 97000000 		call	_Z9putStringPKc@plt
 860      E7800000 
 861              	.LVL125:
  25:src/../h/my_console.h ****     putString("    line: ");
 862              		.loc 2 25 5 is_stmt 1
  25:src/../h/my_console.h ****     putString("    line: ");
 863              		.loc 2 25 14 is_stmt 0
 864 05f8 17050000 		lla	a0,.LC5
 864      13050500 
 865 0600 97000000 		call	_Z9putStringPKc@plt
 865      E7800000 
 866              	.LVL126:
  26:src/../h/my_console.h ****     putInt(line);
 867              		.loc 2 26 5 is_stmt 1
  26:src/../h/my_console.h ****     putInt(line);
 868              		.loc 2 26 14 is_stmt 0
 869 0608 17050000 		lla	a0,.LC6
 869      13050500 
 870 0610 97000000 		call	_Z9putStringPKc@plt
 870      E7800000 
 871              	.LVL127:
  27:src/../h/my_console.h ****     putString("   ===========================");
 872              		.loc 2 27 5 is_stmt 1
GAS LISTING /tmp/ccq14iul.s 			page 25


  27:src/../h/my_console.h ****     putString("   ===========================");
 873              		.loc 2 27 11 is_stmt 0
 874 0618 1305200A 		li	a0,162
 875 061c 97000000 		call	_Z6putInti@plt
 875      E7800000 
 876              	.LVL128:
  28:src/../h/my_console.h ****     putNewline();
 877              		.loc 2 28 5 is_stmt 1
  28:src/../h/my_console.h ****     putNewline();
 878              		.loc 2 28 14 is_stmt 0
 879 0624 17050000 		lla	a0,.LC7
 879      13050500 
 880 062c 97000000 		call	_Z9putStringPKc@plt
 880      E7800000 
 881              	.LVL129:
  29:src/../h/my_console.h **** 
 882              		.loc 2 29 5 is_stmt 1
  29:src/../h/my_console.h **** 
 883              		.loc 2 29 15 is_stmt 0
 884 0634 97000000 		call	_Z10putNewlinev@plt
 884      E7800000 
 885              	.LVL130:
 886              		.loc 2 31 5 is_stmt 1
 887              		.loc 2 31 15 is_stmt 0
 888 063c 97000000 		call	_Z10stopKernelv@plt
 888      E7800000 
 889              	.LVL131:
 890              	.LBE49:
 891              	.LBE50:
 892              		.cfi_endproc
 893              	.LFE15:
 895              		.section	.rodata.str1.8
 896 0141 00000000 		.align	3
 896      000000
 897              	.LC14:
 898 0148 3D3D3D20 		.string	"=== Testing \"testMemoryAllocator\""
 898      54657374 
 898      696E6720 
 898      22746573 
 898      744D656D 
 899 016a 00000000 		.align	3
 899      0000
 900              	.LC15:
 901 0170 3D3D3D20 		.string	"=== Done testing memory allocator"
 901      446F6E65 
 901      20746573 
 901      74696E67 
 901      206D656D 
 902              		.text
 903              		.align	2
 904              		.globl	_Z19testMemoryAllocatorv
 906              	_Z19testMemoryAllocatorv:
 907              	.LFB16:
 166:src/APP.cpp   **** 
 167:src/APP.cpp   **** void testMemoryAllocator()
 168:src/APP.cpp   **** {
 908              		.loc 1 168 1 is_stmt 1
GAS LISTING /tmp/ccq14iul.s 			page 26


 909              		.cfi_startproc
 910 0644 130101FD 		addi	sp,sp,-48
 911              		.cfi_def_cfa_offset 48
 912 0648 23341102 		sd	ra,40(sp)
 913 064c 23308102 		sd	s0,32(sp)
 914 0650 233C9100 		sd	s1,24(sp)
 915 0654 23382101 		sd	s2,16(sp)
 916 0658 23343101 		sd	s3,8(sp)
 917              		.cfi_offset 1, -8
 918              		.cfi_offset 8, -16
 919              		.cfi_offset 9, -24
 920              		.cfi_offset 18, -32
 921              		.cfi_offset 19, -40
 922 065c 13040103 		addi	s0,sp,48
 923              		.cfi_def_cfa 8, 0
 169:src/APP.cpp   ****     putString("=== Testing \"testMemoryAllocator\"");
 924              		.loc 1 169 5
 925              		.loc 1 169 14 is_stmt 0
 926 0660 17050000 		lla	a0,.LC14
 926      13050500 
 927 0668 97000000 		call	_Z9putStringPKc@plt
 927      E7800000 
 928              	.LVL132:
 170:src/APP.cpp   ****     putNewline();
 929              		.loc 1 170 5 is_stmt 1
 930              		.loc 1 170 15 is_stmt 0
 931 0670 97000000 		call	_Z10putNewlinev@plt
 931      E7800000 
 932              	.LVL133:
 171:src/APP.cpp   ****     int n = 1000;
 933              		.loc 1 171 5 is_stmt 1
 172:src/APP.cpp   ****     int **a;
 934              		.loc 1 172 5
 173:src/APP.cpp   ****     a = (int**)mem_alloc(n * sizeof(void*));
 935              		.loc 1 173 5
 936              		.loc 1 173 25 is_stmt 0
 937 0678 37250000 		li	a0,8192
 938 067c 130505F4 		addi	a0,a0,-192
 939 0680 97000000 		call	_Z9mem_allocm@plt
 939      E7800000 
 940              	.LVL134:
 941 0688 93090500 		mv	s3,a0
 942              	.LVL135:
 174:src/APP.cpp   ****     for(int i=0; i<n; i++)
 943              		.loc 1 174 5 is_stmt 1
 944              	.LBB62:
 945              		.loc 1 174 13 is_stmt 0
 946 068c 93040000 		li	s1,0
 947              	.LVL136:
 948              	.L31:
 949              		.loc 1 174 19 is_stmt 1 discriminator 3
 950 0690 9307703E 		li	a5,999
 951 0694 63C49702 		bgt	s1,a5,.L38
 175:src/APP.cpp   ****     {
 176:src/APP.cpp   ****         a[i] = (int*)mem_alloc(sizeof(int));
 952              		.loc 1 176 9 discriminator 2
 953              		.loc 1 176 12 is_stmt 0 discriminator 2
GAS LISTING /tmp/ccq14iul.s 			page 27


 954 0698 13993400 		slli	s2,s1,3
 955 069c 33892901 		add	s2,s3,s2
 956              		.loc 1 176 31 discriminator 2
 957 06a0 13054000 		li	a0,4
 958 06a4 97000000 		call	_Z9mem_allocm@plt
 958      E7800000 
 959              	.LVL137:
 960              		.loc 1 176 14 discriminator 2
 961 06ac 2330A900 		sd	a0,0(s2)
 177:src/APP.cpp   ****         *a[i] = i;
 962              		.loc 1 177 9 is_stmt 1 discriminator 2
 963              		.loc 1 177 15 is_stmt 0 discriminator 2
 964 06b0 23209500 		sw	s1,0(a0)
 174:src/APP.cpp   ****     for(int i=0; i<n; i++)
 965              		.loc 1 174 5 is_stmt 1 discriminator 2
 966 06b4 9B841400 		addiw	s1,s1,1
 967              	.LVL138:
 968 06b8 6FF09FFD 		j	.L31
 969              	.LVL139:
 970              	.L38:
 971              	.LBE62:
 972              	.LBB63:
 178:src/APP.cpp   ****     }
 179:src/APP.cpp   **** 
 180:src/APP.cpp   ****     int result = 0;
 181:src/APP.cpp   ****     for(int i=0; i<n; i++)
 973              		.loc 1 181 13 is_stmt 0
 974 06bc 93070000 		li	a5,0
 975              	.LBE63:
 180:src/APP.cpp   ****     for(int i=0; i<n; i++)
 976              		.loc 1 180 9
 977 06c0 93060000 		li	a3,0
 978              	.L30:
 979              	.LVL140:
 980              	.LBB64:
 981              		.loc 1 181 19 is_stmt 1 discriminator 3
 982 06c4 1307703E 		li	a4,999
 983 06c8 6340F702 		bgt	a5,a4,.L32
 182:src/APP.cpp   ****     {
 183:src/APP.cpp   ****         result += *a[i];
 984              		.loc 1 183 9 discriminator 2
 985              		.loc 1 183 23 is_stmt 0 discriminator 2
 986 06cc 13973700 		slli	a4,a5,3
 987 06d0 3387E900 		add	a4,s3,a4
 988 06d4 03370700 		ld	a4,0(a4)
 989              		.loc 1 183 19 discriminator 2
 990 06d8 03270700 		lw	a4,0(a4)
 991              		.loc 1 183 16 discriminator 2
 992 06dc BB06D700 		addw	a3,a4,a3
 993              	.LVL141:
 181:src/APP.cpp   ****     {
 994              		.loc 1 181 5 is_stmt 1 discriminator 2
 995 06e0 9B871700 		addiw	a5,a5,1
 996              	.LVL142:
 997 06e4 6FF01FFE 		j	.L30
 998              	.LVL143:
 999              	.L32:
GAS LISTING /tmp/ccq14iul.s 			page 28


 1000              	.LBE64:
 184:src/APP.cpp   ****     }
 185:src/APP.cpp   **** 
 186:src/APP.cpp   **** //    uint64 vau = n * sizeof(void*);
 187:src/APP.cpp   **** //    if(n % MEM_BLOCK_SIZE != 0)
 188:src/APP.cpp   **** //        vau +=  MEM_BLOCK_SIZE - ((sizeof(int)* n) % MEM_BLOCK_SIZE);
 189:src/APP.cpp   **** //    vau += MEM_BLOCK_SIZE * n;
 190:src/APP.cpp   **** //    assert(MemAlloc::get()->getUserlandUsage() == vau);
 191:src/APP.cpp   **** 
 192:src/APP.cpp   **** //    putInt(result);
 193:src/APP.cpp   **** //    putNewline();
 194:src/APP.cpp   **** 
 195:src/APP.cpp   ****     assert(result == (n-1) * n / 2);
 1001              		.loc 1 195 5
 1002 06e8 B7A70700 		li	a5,499712
 1003              	.LVL144:
 1004 06ec 9387C7F2 		addi	a5,a5,-212
 1005              	.LVL145:
 1006              	.LBB65:
 1007              	.LBB66:
  21:src/../h/my_console.h ****         return;
 1008              		.loc 2 21 5
 1009 06f0 6398F602 		bne	a3,a5,.L41
 1010              	.LBE66:
 1011              	.LBE65:
 1012              	.LBB68:
 196:src/APP.cpp   **** 
 197:src/APP.cpp   **** //    uint64 oldTaken = MemAlloc::get()->getUserlandUsage();
 198:src/APP.cpp   **** //    uint64 newTaken;
 199:src/APP.cpp   **** 
 200:src/APP.cpp   ****     int t;
 201:src/APP.cpp   ****     for(int i=0; i<n; i++)
 1013              		.loc 1 201 13 is_stmt 0
 1014 06f4 93040000 		li	s1,0
 1015              	.LVL146:
 1016              	.L33:
 1017              		.loc 1 201 19 is_stmt 1 discriminator 3
 1018 06f8 9307703E 		li	a5,999
 1019 06fc 63CE970C 		bgt	s1,a5,.L34
 202:src/APP.cpp   ****     {
 203:src/APP.cpp   ****         t = mem_free(a[i]);
 1020              		.loc 1 203 9 discriminator 2
 1021              		.loc 1 203 25 is_stmt 0 discriminator 2
 1022 0700 93973400 		slli	a5,s1,3
 1023 0704 B387F900 		add	a5,s3,a5
 1024              		.loc 1 203 21 discriminator 2
 1025 0708 03B50700 		ld	a0,0(a5)
 1026 070c 97000000 		call	_Z8mem_freePv@plt
 1026      E7800000 
 1027              	.LVL147:
 204:src/APP.cpp   ****         assert(t == 0);
 1028              		.loc 1 204 9 is_stmt 1 discriminator 2
 1029              	.LBB69:
 1030              	.LBB70:
  21:src/../h/my_console.h ****         return;
 1031              		.loc 2 21 5 discriminator 2
 1032 0714 63140506 		bnez	a0,.L42
GAS LISTING /tmp/ccq14iul.s 			page 29


  22:src/../h/my_console.h **** 
 1033              		.loc 2 22 9 discriminator 2
 1034              	.LVL148:
 1035              	.LBE70:
 1036              	.LBE69:
 201:src/APP.cpp   ****     {
 1037              		.loc 1 201 5 discriminator 2
 1038 0718 9B841400 		addiw	s1,s1,1
 1039              	.LVL149:
 1040 071c 6FF0DFFD 		j	.L33
 1041              	.LVL150:
 1042              	.L41:
 1043              	.LBE68:
 1044              	.LBB73:
 1045              	.LBB67:
  24:src/../h/my_console.h ****     putString(file);
 1046              		.loc 2 24 5
  24:src/../h/my_console.h ****     putString(file);
 1047              		.loc 2 24 14 is_stmt 0
 1048 0720 17050000 		lla	a0,.LC4
 1048      13050500 
 1049 0728 97000000 		call	_Z9putStringPKc@plt
 1049      E7800000 
 1050              	.LVL151:
  25:src/../h/my_console.h ****     putString("    line: ");
 1051              		.loc 2 25 5 is_stmt 1
  25:src/../h/my_console.h ****     putString("    line: ");
 1052              		.loc 2 25 14 is_stmt 0
 1053 0730 17050000 		lla	a0,.LC5
 1053      13050500 
 1054 0738 97000000 		call	_Z9putStringPKc@plt
 1054      E7800000 
 1055              	.LVL152:
  26:src/../h/my_console.h ****     putInt(line);
 1056              		.loc 2 26 5 is_stmt 1
  26:src/../h/my_console.h ****     putInt(line);
 1057              		.loc 2 26 14 is_stmt 0
 1058 0740 17050000 		lla	a0,.LC6
 1058      13050500 
 1059 0748 97000000 		call	_Z9putStringPKc@plt
 1059      E7800000 
 1060              	.LVL153:
  27:src/../h/my_console.h ****     putString("   ===========================");
 1061              		.loc 2 27 5 is_stmt 1
  27:src/../h/my_console.h ****     putString("   ===========================");
 1062              		.loc 2 27 11 is_stmt 0
 1063 0750 1305300C 		li	a0,195
 1064 0754 97000000 		call	_Z6putInti@plt
 1064      E7800000 
 1065              	.LVL154:
  28:src/../h/my_console.h ****     putNewline();
 1066              		.loc 2 28 5 is_stmt 1
  28:src/../h/my_console.h ****     putNewline();
 1067              		.loc 2 28 14 is_stmt 0
 1068 075c 17050000 		lla	a0,.LC7
 1068      13050500 
 1069 0764 97000000 		call	_Z9putStringPKc@plt
GAS LISTING /tmp/ccq14iul.s 			page 30


 1069      E7800000 
 1070              	.LVL155:
  29:src/../h/my_console.h **** 
 1071              		.loc 2 29 5 is_stmt 1
  29:src/../h/my_console.h **** 
 1072              		.loc 2 29 15 is_stmt 0
 1073 076c 97000000 		call	_Z10putNewlinev@plt
 1073      E7800000 
 1074              	.LVL156:
 1075              		.loc 2 31 5 is_stmt 1
 1076              		.loc 2 31 15 is_stmt 0
 1077 0774 97000000 		call	_Z10stopKernelv@plt
 1077      E7800000 
 1078              	.LVL157:
 1079              	.L42:
 1080              	.LBE67:
 1081              	.LBE73:
 1082              	.LBB74:
 1083              	.LBB72:
 1084              	.LBB71:
  24:src/../h/my_console.h ****     putString(file);
 1085              		.loc 2 24 5 is_stmt 1
  24:src/../h/my_console.h ****     putString(file);
 1086              		.loc 2 24 14 is_stmt 0
 1087 077c 17050000 		lla	a0,.LC4
 1087      13050500 
 1088              	.LVL158:
 1089 0784 97000000 		call	_Z9putStringPKc@plt
 1089      E7800000 
 1090              	.LVL159:
  25:src/../h/my_console.h ****     putString("    line: ");
 1091              		.loc 2 25 5 is_stmt 1
  25:src/../h/my_console.h ****     putString("    line: ");
 1092              		.loc 2 25 14 is_stmt 0
 1093 078c 17050000 		lla	a0,.LC5
 1093      13050500 
 1094 0794 97000000 		call	_Z9putStringPKc@plt
 1094      E7800000 
 1095              	.LVL160:
  26:src/../h/my_console.h ****     putInt(line);
 1096              		.loc 2 26 5 is_stmt 1
  26:src/../h/my_console.h ****     putInt(line);
 1097              		.loc 2 26 14 is_stmt 0
 1098 079c 17050000 		lla	a0,.LC6
 1098      13050500 
 1099 07a4 97000000 		call	_Z9putStringPKc@plt
 1099      E7800000 
 1100              	.LVL161:
  27:src/../h/my_console.h ****     putString("   ===========================");
 1101              		.loc 2 27 5 is_stmt 1
  27:src/../h/my_console.h ****     putString("   ===========================");
 1102              		.loc 2 27 11 is_stmt 0
 1103 07ac 1305C00C 		li	a0,204
 1104 07b0 97000000 		call	_Z6putInti@plt
 1104      E7800000 
 1105              	.LVL162:
  28:src/../h/my_console.h ****     putNewline();
GAS LISTING /tmp/ccq14iul.s 			page 31


 1106              		.loc 2 28 5 is_stmt 1
  28:src/../h/my_console.h ****     putNewline();
 1107              		.loc 2 28 14 is_stmt 0
 1108 07b8 17050000 		lla	a0,.LC7
 1108      13050500 
 1109 07c0 97000000 		call	_Z9putStringPKc@plt
 1109      E7800000 
 1110              	.LVL163:
  29:src/../h/my_console.h **** 
 1111              		.loc 2 29 5 is_stmt 1
  29:src/../h/my_console.h **** 
 1112              		.loc 2 29 15 is_stmt 0
 1113 07c8 97000000 		call	_Z10putNewlinev@plt
 1113      E7800000 
 1114              	.LVL164:
 1115              		.loc 2 31 5 is_stmt 1
 1116              		.loc 2 31 15 is_stmt 0
 1117 07d0 97000000 		call	_Z10stopKernelv@plt
 1117      E7800000 
 1118              	.LVL165:
 1119              	.L34:
 1120              	.LBE71:
 1121              	.LBE72:
 1122              	.LBE74:
 205:src/APP.cpp   **** 
 206:src/APP.cpp   **** //        newTaken = MemAlloc::get()->getUserlandUsage();
 207:src/APP.cpp   **** //        assert(oldTaken - newTaken == MEM_BLOCK_SIZE);
 208:src/APP.cpp   ****     }
 209:src/APP.cpp   **** 
 210:src/APP.cpp   **** //    assert(MemAlloc::get()->getUserlandUsage() == MEM_BLOCK_SIZE);
 211:src/APP.cpp   **** 
 212:src/APP.cpp   ****     t = mem_free(a);
 1123              		.loc 1 212 5 is_stmt 1
 1124              		.loc 1 212 17 is_stmt 0
 1125 07d8 13850900 		mv	a0,s3
 1126 07dc 97000000 		call	_Z8mem_freePv@plt
 1126      E7800000 
 1127              	.LVL166:
 213:src/APP.cpp   ****     assert(t == 0);
 1128              		.loc 1 213 5 is_stmt 1
 1129              	.LBB75:
 1130              	.LBB76:
  21:src/../h/my_console.h ****         return;
 1131              		.loc 2 21 5
 1132 07e4 631C0504 		bnez	a0,.L43
  22:src/../h/my_console.h **** 
 1133              		.loc 2 22 9
 1134              	.LVL167:
 1135              	.LBE76:
 1136              	.LBE75:
 214:src/APP.cpp   **** 
 215:src/APP.cpp   ****     assert(MemAlloc::get()->getUserlandUsage() == Thread::initialUserMemoryUsage);
 1137              		.loc 1 215 5
 1138 07e8 97000000 		call	_ZN8MemAlloc3getEv@plt
 1138      E7800000 
 1139              	.LVL168:
 1140 07f0 97000000 		call	_ZN8MemAlloc16getUserlandUsageEv@plt
GAS LISTING /tmp/ccq14iul.s 			page 32


 1140      E7800000 
 1141              	.LVL169:
 1142 07f8 97070000 		la	a5,_ZN6Thread22initialUserMemoryUsageE
 1142      83B70700 
 1143 0800 83B70700 		ld	a5,0(a5)
 1144              	.LVL170:
 1145              	.LBB78:
 1146              	.LBB79:
  21:src/../h/my_console.h ****         return;
 1147              		.loc 2 21 5
 1148 0804 639AA708 		bne	a5,a0,.L44
  22:src/../h/my_console.h **** 
 1149              		.loc 2 22 9
 1150              	.LVL171:
 1151              	.LBE79:
 1152              	.LBE78:
 216:src/APP.cpp   ****     putString("=== Done testing memory allocator");
 1153              		.loc 1 216 5
 1154              		.loc 1 216 14 is_stmt 0
 1155 0808 17050000 		lla	a0,.LC15
 1155      13050500 
 1156 0810 97000000 		call	_Z9putStringPKc@plt
 1156      E7800000 
 1157              	.LVL172:
 217:src/APP.cpp   ****     putNewline();
 1158              		.loc 1 217 5 is_stmt 1
 1159              		.loc 1 217 15 is_stmt 0
 1160 0818 97000000 		call	_Z10putNewlinev@plt
 1160      E7800000 
 1161              	.LVL173:
 218:src/APP.cpp   **** }
 1162              		.loc 1 218 1
 1163 0820 83308102 		ld	ra,40(sp)
 1164              		.cfi_remember_state
 1165              		.cfi_restore 1
 1166 0824 03340102 		ld	s0,32(sp)
 1167              		.cfi_restore 8
 1168              		.cfi_def_cfa 2, 48
 1169 0828 83348101 		ld	s1,24(sp)
 1170              		.cfi_restore 9
 1171              	.LVL174:
 1172 082c 03390101 		ld	s2,16(sp)
 1173              		.cfi_restore 18
 1174 0830 83398100 		ld	s3,8(sp)
 1175              		.cfi_restore 19
 1176              	.LVL175:
 1177 0834 13010103 		addi	sp,sp,48
 1178              		.cfi_def_cfa_offset 0
 1179 0838 67800000 		jr	ra
 1180              	.LVL176:
 1181              	.L43:
 1182              		.cfi_restore_state
 1183              	.LBB81:
 1184              	.LBB77:
  24:src/../h/my_console.h ****     putString(file);
 1185              		.loc 2 24 5 is_stmt 1
  24:src/../h/my_console.h ****     putString(file);
GAS LISTING /tmp/ccq14iul.s 			page 33


 1186              		.loc 2 24 14 is_stmt 0
 1187 083c 17050000 		lla	a0,.LC4
 1187      13050500 
 1188              	.LVL177:
 1189 0844 97000000 		call	_Z9putStringPKc@plt
 1189      E7800000 
 1190              	.LVL178:
  25:src/../h/my_console.h ****     putString("    line: ");
 1191              		.loc 2 25 5 is_stmt 1
  25:src/../h/my_console.h ****     putString("    line: ");
 1192              		.loc 2 25 14 is_stmt 0
 1193 084c 17050000 		lla	a0,.LC5
 1193      13050500 
 1194 0854 97000000 		call	_Z9putStringPKc@plt
 1194      E7800000 
 1195              	.LVL179:
  26:src/../h/my_console.h ****     putInt(line);
 1196              		.loc 2 26 5 is_stmt 1
  26:src/../h/my_console.h ****     putInt(line);
 1197              		.loc 2 26 14 is_stmt 0
 1198 085c 17050000 		lla	a0,.LC6
 1198      13050500 
 1199 0864 97000000 		call	_Z9putStringPKc@plt
 1199      E7800000 
 1200              	.LVL180:
  27:src/../h/my_console.h ****     putString("   ===========================");
 1201              		.loc 2 27 5 is_stmt 1
  27:src/../h/my_console.h ****     putString("   ===========================");
 1202              		.loc 2 27 11 is_stmt 0
 1203 086c 1305500D 		li	a0,213
 1204 0870 97000000 		call	_Z6putInti@plt
 1204      E7800000 
 1205              	.LVL181:
  28:src/../h/my_console.h ****     putNewline();
 1206              		.loc 2 28 5 is_stmt 1
  28:src/../h/my_console.h ****     putNewline();
 1207              		.loc 2 28 14 is_stmt 0
 1208 0878 17050000 		lla	a0,.LC7
 1208      13050500 
 1209 0880 97000000 		call	_Z9putStringPKc@plt
 1209      E7800000 
 1210              	.LVL182:
  29:src/../h/my_console.h **** 
 1211              		.loc 2 29 5 is_stmt 1
  29:src/../h/my_console.h **** 
 1212              		.loc 2 29 15 is_stmt 0
 1213 0888 97000000 		call	_Z10putNewlinev@plt
 1213      E7800000 
 1214              	.LVL183:
 1215              		.loc 2 31 5 is_stmt 1
 1216              		.loc 2 31 15 is_stmt 0
 1217 0890 97000000 		call	_Z10stopKernelv@plt
 1217      E7800000 
 1218              	.LVL184:
 1219              	.L44:
 1220              	.LBE77:
 1221              	.LBE81:
GAS LISTING /tmp/ccq14iul.s 			page 34


 1222              	.LBB82:
 1223              	.LBB80:
  24:src/../h/my_console.h ****     putString(file);
 1224              		.loc 2 24 5 is_stmt 1
  24:src/../h/my_console.h ****     putString(file);
 1225              		.loc 2 24 14 is_stmt 0
 1226 0898 17050000 		lla	a0,.LC4
 1226      13050500 
 1227              	.LVL185:
 1228 08a0 97000000 		call	_Z9putStringPKc@plt
 1228      E7800000 
 1229              	.LVL186:
  25:src/../h/my_console.h ****     putString("    line: ");
 1230              		.loc 2 25 5 is_stmt 1
  25:src/../h/my_console.h ****     putString("    line: ");
 1231              		.loc 2 25 14 is_stmt 0
 1232 08a8 17050000 		lla	a0,.LC5
 1232      13050500 
 1233 08b0 97000000 		call	_Z9putStringPKc@plt
 1233      E7800000 
 1234              	.LVL187:
  26:src/../h/my_console.h ****     putInt(line);
 1235              		.loc 2 26 5 is_stmt 1
  26:src/../h/my_console.h ****     putInt(line);
 1236              		.loc 2 26 14 is_stmt 0
 1237 08b8 17050000 		lla	a0,.LC6
 1237      13050500 
 1238 08c0 97000000 		call	_Z9putStringPKc@plt
 1238      E7800000 
 1239              	.LVL188:
  27:src/../h/my_console.h ****     putString("   ===========================");
 1240              		.loc 2 27 5 is_stmt 1
  27:src/../h/my_console.h ****     putString("   ===========================");
 1241              		.loc 2 27 11 is_stmt 0
 1242 08c8 1305700D 		li	a0,215
 1243 08cc 97000000 		call	_Z6putInti@plt
 1243      E7800000 
 1244              	.LVL189:
  28:src/../h/my_console.h ****     putNewline();
 1245              		.loc 2 28 5 is_stmt 1
  28:src/../h/my_console.h ****     putNewline();
 1246              		.loc 2 28 14 is_stmt 0
 1247 08d4 17050000 		lla	a0,.LC7
 1247      13050500 
 1248 08dc 97000000 		call	_Z9putStringPKc@plt
 1248      E7800000 
 1249              	.LVL190:
  29:src/../h/my_console.h **** 
 1250              		.loc 2 29 5 is_stmt 1
  29:src/../h/my_console.h **** 
 1251              		.loc 2 29 15 is_stmt 0
 1252 08e4 97000000 		call	_Z10putNewlinev@plt
 1252      E7800000 
 1253              	.LVL191:
 1254              		.loc 2 31 5 is_stmt 1
 1255              		.loc 2 31 15 is_stmt 0
 1256 08ec 97000000 		call	_Z10stopKernelv@plt
GAS LISTING /tmp/ccq14iul.s 			page 35


 1256      E7800000 
 1257              	.LVL192:
 1258              	.LBE80:
 1259              	.LBE82:
 1260              		.cfi_endproc
 1261              	.LFE16:
 1263              	.Letext0:
 1264              		.file 3 "src/../h/../lib/hw.h"
 1265              		.file 4 "src/../h/c_api.h"
 1266              		.file 5 "src/../h/alloc.h"
GAS LISTING /tmp/ccq14iul.s 			page 36


DEFINED SYMBOLS
                            *ABS*:0000000000000000 APP.cpp
     /tmp/ccq14iul.s:20     .text:0000000000000000 _Z12testSyncCallv
     /tmp/ccq14iul.s:24     .text:0000000000000000 .L0 
     /tmp/ccq14iul.s:25     .text:0000000000000000 .L0 
     /tmp/ccq14iul.s:26     .text:0000000000000004 .L0 
     /tmp/ccq14iul.s:29     .text:000000000000000c .L0 
     /tmp/ccq14iul.s:30     .text:000000000000000c .L0 
     /tmp/ccq14iul.s:32     .text:0000000000000010 .L0 
     /tmp/ccq14iul.s:34     .text:0000000000000010 .L0 
     /tmp/ccq14iul.s:35     .text:0000000000000010 .L0 
     /tmp/ccq14iul.s:39     .text:0000000000000020 .L0 
     /tmp/ccq14iul.s:40     .text:0000000000000020 .L0 
     /tmp/ccq14iul.s:43     .text:0000000000000028 .L0 
     /tmp/ccq14iul.s:44     .text:0000000000000028 .L0 
     /tmp/ccq14iul.s:45     .text:0000000000000028 .L0 
     /tmp/ccq14iul.s:46     .text:0000000000000028 .L0 
     /tmp/ccq14iul.s:49     .text:0000000000000030 .L0 
     /tmp/ccq14iul.s:50     .text:0000000000000030 .L0 
     /tmp/ccq14iul.s:53     .text:0000000000000038 .L0 
     /tmp/ccq14iul.s:54     .text:0000000000000038 .L0 
     /tmp/ccq14iul.s:55     .text:0000000000000038 .L0 
     /tmp/ccq14iul.s:56     .text:0000000000000038 .L0 
     /tmp/ccq14iul.s:250    .text:00000000000001a0 _Z3doAPv
     /tmp/ccq14iul.s:62     .text:0000000000000050 .L0 
     /tmp/ccq14iul.s:63     .text:0000000000000050 .L0 
     /tmp/ccq14iul.s:374    .text:0000000000000288 _Z3doBPv
     /tmp/ccq14iul.s:69     .text:0000000000000068 .L0 
     /tmp/ccq14iul.s:70     .text:0000000000000068 .L0 
     /tmp/ccq14iul.s:73     .text:0000000000000070 .L0 
     /tmp/ccq14iul.s:74     .text:0000000000000070 .L0 
     /tmp/ccq14iul.s:78     .text:0000000000000080 .L0 
     /tmp/ccq14iul.s:79     .text:0000000000000080 .L0 
     /tmp/ccq14iul.s:83     .text:000000000000008c .L0 
     /tmp/ccq14iul.s:84     .text:000000000000008c .L0 
     /tmp/ccq14iul.s:87     .text:0000000000000094 .L0 
     /tmp/ccq14iul.s:88     .text:0000000000000094 .L0 
     /tmp/ccq14iul.s:92     .text:00000000000000a4 .L0 
     /tmp/ccq14iul.s:93     .text:00000000000000a4 .L0 
     /tmp/ccq14iul.s:97     .text:00000000000000b0 .L0 
     /tmp/ccq14iul.s:98     .text:00000000000000b0 .L0 
     /tmp/ccq14iul.s:101    .text:00000000000000b8 .L0 
         src/APP.cpp:70     .text:00000000000000b8 .L0 
     /tmp/ccq14iul.s:108    .text:00000000000000bc .L0 
     /tmp/ccq14iul.s:109    .text:00000000000000c0 .L0 
     /tmp/ccq14iul.s:111    .text:00000000000000c4 .L0 
     /tmp/ccq14iul.s:112    .text:00000000000000c4 .L0 
     /tmp/ccq14iul.s:114    .text:00000000000000c8 .L0 
     /tmp/ccq14iul.s:116    .text:00000000000000cc .L0 
     /tmp/ccq14iul.s:142    .text:00000000000000cc _Z8userMainv
     /tmp/ccq14iul.s:145    .text:00000000000000cc .L0 
     /tmp/ccq14iul.s:146    .text:00000000000000cc .L0 
     /tmp/ccq14iul.s:147    .text:00000000000000d0 .L0 
     /tmp/ccq14iul.s:150    .text:00000000000000d8 .L0 
     /tmp/ccq14iul.s:151    .text:00000000000000d8 .L0 
     /tmp/ccq14iul.s:153    .text:00000000000000dc .L0 
     /tmp/ccq14iul.s:155    .text:00000000000000dc .L0 
GAS LISTING /tmp/ccq14iul.s 			page 37


     /tmp/ccq14iul.s:156    .text:00000000000000dc .L0 
     /tmp/ccq14iul.s:160    .text:00000000000000ec .L0 
     /tmp/ccq14iul.s:161    .text:00000000000000ec .L0 
     /tmp/ccq14iul.s:164    .text:00000000000000f4 .L0 
     /tmp/ccq14iul.s:175    .text:0000000000000110 .L0 
     /tmp/ccq14iul.s:180    .text:0000000000000114 .L0 
     /tmp/ccq14iul.s:181    .text:0000000000000114 .L0 
     /tmp/ccq14iul.s:182    .text:0000000000000114 .L0 
     /tmp/ccq14iul.s:185    .text:000000000000011c .L0 
     /tmp/ccq14iul.s:186    .text:000000000000011c .L0 
     /tmp/ccq14iul.s:190    .text:000000000000012c .L0 
     /tmp/ccq14iul.s:191    .text:000000000000012c .L0 
     /tmp/ccq14iul.s:194    .text:0000000000000134 .L0 
     /tmp/ccq14iul.s:195    .text:0000000000000138 .L0 
     /tmp/ccq14iul.s:196    .text:0000000000000138 .L0 
     /tmp/ccq14iul.s:198    .text:000000000000013c .L0 
     /tmp/ccq14iul.s:199    .text:000000000000013c .L0 
     /tmp/ccq14iul.s:201    .text:0000000000000140 .L0 
     /tmp/ccq14iul.s:205    .text:0000000000000144 .L0 
     /tmp/ccq14iul.s:209    .text:0000000000000144 .L0 
     /tmp/ccq14iul.s:210    .text:0000000000000144 .L0 
     /tmp/ccq14iul.s:215    .text:0000000000000154 .L0 
     /tmp/ccq14iul.s:216    .text:0000000000000154 .L0 
     /tmp/ccq14iul.s:220    .text:0000000000000164 .L0 
     /tmp/ccq14iul.s:221    .text:0000000000000164 .L0 
     /tmp/ccq14iul.s:225    .text:0000000000000174 .L0 
     /tmp/ccq14iul.s:226    .text:0000000000000174 .L0 
     /tmp/ccq14iul.s:230    .text:0000000000000180 .L0 
     /tmp/ccq14iul.s:231    .text:0000000000000180 .L0 
     /tmp/ccq14iul.s:235    .text:0000000000000190 .L0 
     /tmp/ccq14iul.s:236    .text:0000000000000190 .L0 
     /tmp/ccq14iul.s:239    .text:0000000000000198 .L0 
     /tmp/ccq14iul.s:240    .text:0000000000000198 .L0 
     /tmp/ccq14iul.s:244    .text:00000000000001a0 .L0 
     /tmp/ccq14iul.s:253    .text:00000000000001a0 .L0 
     /tmp/ccq14iul.s:255    .text:00000000000001a0 .L0 
     /tmp/ccq14iul.s:256    .text:00000000000001a4 .L0 
     /tmp/ccq14iul.s:259    .text:00000000000001ac .L0 
     /tmp/ccq14iul.s:260    .text:00000000000001ac .L0 
     /tmp/ccq14iul.s:262    .text:00000000000001b0 .L0 
     /tmp/ccq14iul.s:264    .text:00000000000001b0 .L0 
     /tmp/ccq14iul.s:270    .text:00000000000001b8 .L0 
     /tmp/ccq14iul.s:275    .text:00000000000001bc .L0 
     /tmp/ccq14iul.s:276    .text:00000000000001bc .L0 
     /tmp/ccq14iul.s:277    .text:00000000000001bc .L0 
     /tmp/ccq14iul.s:280    .text:00000000000001c4 .L0 
         src/APP.cpp:79     .text:00000000000001c4 .L0 
     /tmp/ccq14iul.s:286    .text:00000000000001c8 .L0 
     /tmp/ccq14iul.s:288    .text:00000000000001c8 .L0 
     /tmp/ccq14iul.s:293    .text:00000000000001d0 .L0 
     /tmp/ccq14iul.s:294    .text:00000000000001d0 .L0 
     /tmp/ccq14iul.s:295    .text:00000000000001d0 .L0 
     /tmp/ccq14iul.s:296    .text:00000000000001d0 .L0 
     /tmp/ccq14iul.s:300    .text:00000000000001e0 .L0 
     /tmp/ccq14iul.s:301    .text:00000000000001e0 .L0 
     /tmp/ccq14iul.s:305    .text:00000000000001f0 .L0 
     /tmp/ccq14iul.s:306    .text:00000000000001f0 .L0 
GAS LISTING /tmp/ccq14iul.s 			page 38


     /tmp/ccq14iul.s:310    .text:0000000000000200 .L0 
     /tmp/ccq14iul.s:311    .text:0000000000000200 .L0 
     /tmp/ccq14iul.s:315    .text:000000000000020c .L0 
     /tmp/ccq14iul.s:316    .text:000000000000020c .L0 
     /tmp/ccq14iul.s:320    .text:000000000000021c .L0 
     /tmp/ccq14iul.s:321    .text:000000000000021c .L0 
     /tmp/ccq14iul.s:324    .text:0000000000000224 .L0 
     /tmp/ccq14iul.s:325    .text:0000000000000224 .L0 
     /tmp/ccq14iul.s:333    .text:000000000000022c .L0 
     /tmp/ccq14iul.s:334    .text:000000000000022c .L0 
     /tmp/ccq14iul.s:339    .text:000000000000023c .L0 
     /tmp/ccq14iul.s:340    .text:000000000000023c .L0 
     /tmp/ccq14iul.s:344    .text:000000000000024c .L0 
     /tmp/ccq14iul.s:345    .text:000000000000024c .L0 
     /tmp/ccq14iul.s:349    .text:000000000000025c .L0 
     /tmp/ccq14iul.s:350    .text:000000000000025c .L0 
     /tmp/ccq14iul.s:354    .text:0000000000000268 .L0 
     /tmp/ccq14iul.s:355    .text:0000000000000268 .L0 
     /tmp/ccq14iul.s:359    .text:0000000000000278 .L0 
     /tmp/ccq14iul.s:360    .text:0000000000000278 .L0 
     /tmp/ccq14iul.s:363    .text:0000000000000280 .L0 
     /tmp/ccq14iul.s:364    .text:0000000000000280 .L0 
     /tmp/ccq14iul.s:368    .text:0000000000000288 .L0 
     /tmp/ccq14iul.s:377    .text:0000000000000288 .L0 
     /tmp/ccq14iul.s:379    .text:0000000000000288 .L0 
     /tmp/ccq14iul.s:380    .text:000000000000028c .L0 
     /tmp/ccq14iul.s:383    .text:0000000000000294 .L0 
     /tmp/ccq14iul.s:384    .text:0000000000000294 .L0 
     /tmp/ccq14iul.s:386    .text:0000000000000298 .L0 
     /tmp/ccq14iul.s:388    .text:0000000000000298 .L0 
     /tmp/ccq14iul.s:394    .text:00000000000002a0 .L0 
     /tmp/ccq14iul.s:399    .text:00000000000002a4 .L0 
     /tmp/ccq14iul.s:400    .text:00000000000002a4 .L0 
     /tmp/ccq14iul.s:401    .text:00000000000002a4 .L0 
     /tmp/ccq14iul.s:404    .text:00000000000002ac .L0 
         src/APP.cpp:89     .text:00000000000002ac .L0 
     /tmp/ccq14iul.s:410    .text:00000000000002b0 .L0 
     /tmp/ccq14iul.s:412    .text:00000000000002b0 .L0 
     /tmp/ccq14iul.s:417    .text:00000000000002b8 .L0 
     /tmp/ccq14iul.s:418    .text:00000000000002b8 .L0 
     /tmp/ccq14iul.s:419    .text:00000000000002b8 .L0 
     /tmp/ccq14iul.s:420    .text:00000000000002b8 .L0 
     /tmp/ccq14iul.s:424    .text:00000000000002c8 .L0 
     /tmp/ccq14iul.s:425    .text:00000000000002c8 .L0 
     /tmp/ccq14iul.s:429    .text:00000000000002d8 .L0 
     /tmp/ccq14iul.s:430    .text:00000000000002d8 .L0 
     /tmp/ccq14iul.s:434    .text:00000000000002e8 .L0 
     /tmp/ccq14iul.s:435    .text:00000000000002e8 .L0 
     /tmp/ccq14iul.s:439    .text:00000000000002f4 .L0 
     /tmp/ccq14iul.s:440    .text:00000000000002f4 .L0 
     /tmp/ccq14iul.s:444    .text:0000000000000304 .L0 
     /tmp/ccq14iul.s:445    .text:0000000000000304 .L0 
     /tmp/ccq14iul.s:448    .text:000000000000030c .L0 
     /tmp/ccq14iul.s:449    .text:000000000000030c .L0 
     /tmp/ccq14iul.s:457    .text:0000000000000314 .L0 
     /tmp/ccq14iul.s:458    .text:0000000000000314 .L0 
     /tmp/ccq14iul.s:463    .text:0000000000000324 .L0 
GAS LISTING /tmp/ccq14iul.s 			page 39


     /tmp/ccq14iul.s:464    .text:0000000000000324 .L0 
     /tmp/ccq14iul.s:468    .text:0000000000000334 .L0 
     /tmp/ccq14iul.s:469    .text:0000000000000334 .L0 
     /tmp/ccq14iul.s:473    .text:0000000000000344 .L0 
     /tmp/ccq14iul.s:474    .text:0000000000000344 .L0 
     /tmp/ccq14iul.s:478    .text:0000000000000350 .L0 
     /tmp/ccq14iul.s:479    .text:0000000000000350 .L0 
     /tmp/ccq14iul.s:483    .text:0000000000000360 .L0 
     /tmp/ccq14iul.s:484    .text:0000000000000360 .L0 
     /tmp/ccq14iul.s:487    .text:0000000000000368 .L0 
     /tmp/ccq14iul.s:488    .text:0000000000000368 .L0 
     /tmp/ccq14iul.s:492    .text:0000000000000370 .L0 
     /tmp/ccq14iul.s:498    .text:0000000000000370 _Z3fibm
     /tmp/ccq14iul.s:501    .text:0000000000000370 .L0 
     /tmp/ccq14iul.s:503    .text:0000000000000370 .L0 
     /tmp/ccq14iul.s:504    .text:0000000000000374 .L0 
     /tmp/ccq14iul.s:509    .text:0000000000000384 .L0 
     /tmp/ccq14iul.s:510    .text:0000000000000384 .L0 
     /tmp/ccq14iul.s:511    .text:0000000000000384 .L0 
     /tmp/ccq14iul.s:512    .text:0000000000000384 .L0 
     /tmp/ccq14iul.s:514    .text:0000000000000388 .L0 
     /tmp/ccq14iul.s:517    .text:000000000000038c .L0 
     /tmp/ccq14iul.s:520    .text:0000000000000394 .L0 
     /tmp/ccq14iul.s:524    .text:0000000000000398 .L0 
     /tmp/ccq14iul.s:526    .text:00000000000003a0 .L0 
     /tmp/ccq14iul.s:527    .text:00000000000003a0 .L0 
     /tmp/ccq14iul.s:529    .text:00000000000003a4 .L0 
     /tmp/ccq14iul.s:530    .text:00000000000003a4 .L0 
     /tmp/ccq14iul.s:532    .text:00000000000003a8 .L0 
     /tmp/ccq14iul.s:534    .text:00000000000003ac .L0 
     /tmp/ccq14iul.s:536    .text:00000000000003b0 .L0 
     /tmp/ccq14iul.s:540    .text:00000000000003b4 .L0 
     /tmp/ccq14iul.s:542    .text:00000000000003b4 .L0 
     /tmp/ccq14iul.s:543    .text:00000000000003b4 .L0 
     /tmp/ccq14iul.s:548    .text:00000000000003c4 .L0 
     /tmp/ccq14iul.s:552    .text:00000000000003d0 .L0 
     /tmp/ccq14iul.s:555    .text:00000000000003d8 .L0 
     /tmp/ccq14iul.s:578    .text:00000000000003d8 _Z15testSystemCallsv
     /tmp/ccq14iul.s:581    .text:00000000000003d8 .L0 
     /tmp/ccq14iul.s:582    .text:00000000000003d8 .L0 
     /tmp/ccq14iul.s:583    .text:00000000000003dc .L0 
     /tmp/ccq14iul.s:593    .text:0000000000000400 .L0 
     /tmp/ccq14iul.s:594    .text:0000000000000400 .L0 
     /tmp/ccq14iul.s:595    .text:0000000000000400 .L0 
     /tmp/ccq14iul.s:596    .text:0000000000000400 .L0 
     /tmp/ccq14iul.s:597    .text:0000000000000400 .L0 
     /tmp/ccq14iul.s:598    .text:0000000000000400 .L0 
     /tmp/ccq14iul.s:599    .text:0000000000000400 .L0 
     /tmp/ccq14iul.s:600    .text:0000000000000400 .L0 
     /tmp/ccq14iul.s:601    .text:0000000000000400 .L0 
     /tmp/ccq14iul.s:603    .text:0000000000000404 .L0 
     /tmp/ccq14iul.s:605    .text:0000000000000404 .L0 
     /tmp/ccq14iul.s:606    .text:0000000000000404 .L0 
     /tmp/ccq14iul.s:610    .text:0000000000000414 .L0 
     /tmp/ccq14iul.s:611    .text:0000000000000414 .L0 
     /tmp/ccq14iul.s:614    .text:000000000000041c .L0 
     /tmp/ccq14iul.s:615    .text:000000000000041c .L0 
GAS LISTING /tmp/ccq14iul.s 			page 40


     /tmp/ccq14iul.s:617    .text:000000000000041c .L0 
     /tmp/ccq14iul.s:618    .text:000000000000041c .L0 
     /tmp/ccq14iul.s:621    .text:0000000000000420 .L0 
     /tmp/ccq14iul.s:623    .text:0000000000000424 .L0 
     /tmp/ccq14iul.s:628    .text:0000000000000428 .L0 
     /tmp/ccq14iul.s:632    .text:0000000000000430 .L0 
     /tmp/ccq14iul.s:633    .text:0000000000000430 .L0 
     /tmp/ccq14iul.s:636    .text:0000000000000434 .L0 
     /tmp/ccq14iul.s:637    .text:0000000000000434 .L0 
     /tmp/ccq14iul.s:640    .text:0000000000000438 .L0 
     /tmp/ccq14iul.s:641    .text:0000000000000438 .L0 
     /tmp/ccq14iul.s:647    .text:0000000000000448 .L0 
     /tmp/ccq14iul.s:648    .text:0000000000000448 .L0 
     /tmp/ccq14iul.s:655    .text:0000000000000458 .L0 
     /tmp/ccq14iul.s:660    .text:000000000000045c .L0 
     /tmp/ccq14iul.s:661    .text:000000000000045c .L0 
     /tmp/ccq14iul.s:667    .text:0000000000000460 .L0 
     /tmp/ccq14iul.s:668    .text:0000000000000460 .L0 
     /tmp/ccq14iul.s:672    .text:0000000000000464 .L0 
     /tmp/ccq14iul.s:675    .text:0000000000000468 .L0 
     /tmp/ccq14iul.s:679    .text:000000000000046c .L0 
     /tmp/ccq14iul.s:684    .text:0000000000000470 .L0 
     /tmp/ccq14iul.s:685    .text:0000000000000470 .L0 
     /tmp/ccq14iul.s:690    .text:0000000000000480 .L0 
     /tmp/ccq14iul.s:691    .text:0000000000000480 .L0 
     /tmp/ccq14iul.s:695    .text:000000000000048c .L0 
     /tmp/ccq14iul.s:696    .text:000000000000048c .L0 
     /tmp/ccq14iul.s:700    .text:000000000000049c .L0 
     /tmp/ccq14iul.s:701    .text:000000000000049c .L0 
     /tmp/ccq14iul.s:705    .text:00000000000004a8 .L0 
     /tmp/ccq14iul.s:706    .text:00000000000004a8 .L0 
     /tmp/ccq14iul.s:710    .text:00000000000004b8 .L0 
     /tmp/ccq14iul.s:711    .text:00000000000004b8 .L0 
     /tmp/ccq14iul.s:715    .text:00000000000004c4 .L0 
     /tmp/ccq14iul.s:716    .text:00000000000004c4 .L0 
     /tmp/ccq14iul.s:721    .text:00000000000004cc .L0 
     /tmp/ccq14iul.s:722    .text:00000000000004cc .L0 
     /tmp/ccq14iul.s:723    .text:00000000000004cc .L0 
     /tmp/ccq14iul.s:724    .text:00000000000004cc .L0 
     /tmp/ccq14iul.s:728    .text:00000000000004dc .L0 
     /tmp/ccq14iul.s:729    .text:00000000000004dc .L0 
     /tmp/ccq14iul.s:733    .text:00000000000004ec .L0 
     /tmp/ccq14iul.s:734    .text:00000000000004ec .L0 
     /tmp/ccq14iul.s:738    .text:00000000000004fc .L0 
     /tmp/ccq14iul.s:739    .text:00000000000004fc .L0 
     /tmp/ccq14iul.s:743    .text:0000000000000508 .L0 
     /tmp/ccq14iul.s:744    .text:0000000000000508 .L0 
     /tmp/ccq14iul.s:748    .text:0000000000000518 .L0 
     /tmp/ccq14iul.s:749    .text:0000000000000518 .L0 
     /tmp/ccq14iul.s:752    .text:0000000000000520 .L0 
     /tmp/ccq14iul.s:753    .text:0000000000000520 .L0 
     /tmp/ccq14iul.s:761    .text:0000000000000528 .L0 
     /tmp/ccq14iul.s:762    .text:0000000000000528 .L0 
     /tmp/ccq14iul.s:767    .text:0000000000000538 .L0 
     /tmp/ccq14iul.s:768    .text:0000000000000538 .L0 
     /tmp/ccq14iul.s:772    .text:0000000000000548 .L0 
     /tmp/ccq14iul.s:773    .text:0000000000000548 .L0 
GAS LISTING /tmp/ccq14iul.s 			page 41


     /tmp/ccq14iul.s:777    .text:0000000000000558 .L0 
     /tmp/ccq14iul.s:778    .text:0000000000000558 .L0 
     /tmp/ccq14iul.s:782    .text:0000000000000564 .L0 
     /tmp/ccq14iul.s:783    .text:0000000000000564 .L0 
     /tmp/ccq14iul.s:787    .text:0000000000000574 .L0 
     /tmp/ccq14iul.s:788    .text:0000000000000574 .L0 
     /tmp/ccq14iul.s:791    .text:000000000000057c .L0 
     /tmp/ccq14iul.s:792    .text:000000000000057c .L0 
     /tmp/ccq14iul.s:800    .text:0000000000000584 .L0 
     /tmp/ccq14iul.s:810    .text:00000000000005a0 .L0 
     /tmp/ccq14iul.s:815    .text:00000000000005a4 .L0 
     /tmp/ccq14iul.s:816    .text:00000000000005a4 .L0 
     /tmp/ccq14iul.s:817    .text:00000000000005a4 .L0 
     /tmp/ccq14iul.s:821    .text:00000000000005b4 .L0 
     /tmp/ccq14iul.s:822    .text:00000000000005b4 .L0 
     /tmp/ccq14iul.s:825    .text:00000000000005bc .L0 
     /tmp/ccq14iul.s:826    .text:00000000000005c0 .L0 
     /tmp/ccq14iul.s:827    .text:00000000000005c0 .L0 
     /tmp/ccq14iul.s:829    .text:00000000000005c4 .L0 
     /tmp/ccq14iul.s:830    .text:00000000000005c4 .L0 
     /tmp/ccq14iul.s:832    .text:00000000000005c8 .L0 
     /tmp/ccq14iul.s:835    .text:00000000000005cc .L0 
     /tmp/ccq14iul.s:837    .text:00000000000005d0 .L0 
     /tmp/ccq14iul.s:839    .text:00000000000005d4 .L0 
     /tmp/ccq14iul.s:842    .text:00000000000005d8 .L0 
     /tmp/ccq14iul.s:845    .text:00000000000005dc .L0 
     /tmp/ccq14iul.s:847    .text:00000000000005e0 .L0 
     /tmp/ccq14iul.s:849    .text:00000000000005e4 .L0 
     /tmp/ccq14iul.s:853    .text:00000000000005e8 .L0 
     /tmp/ccq14iul.s:857    .text:00000000000005e8 .L0 
     /tmp/ccq14iul.s:858    .text:00000000000005e8 .L0 
     /tmp/ccq14iul.s:863    .text:00000000000005f8 .L0 
     /tmp/ccq14iul.s:864    .text:00000000000005f8 .L0 
     /tmp/ccq14iul.s:868    .text:0000000000000608 .L0 
     /tmp/ccq14iul.s:869    .text:0000000000000608 .L0 
     /tmp/ccq14iul.s:873    .text:0000000000000618 .L0 
     /tmp/ccq14iul.s:874    .text:0000000000000618 .L0 
     /tmp/ccq14iul.s:878    .text:0000000000000624 .L0 
     /tmp/ccq14iul.s:879    .text:0000000000000624 .L0 
     /tmp/ccq14iul.s:883    .text:0000000000000634 .L0 
     /tmp/ccq14iul.s:884    .text:0000000000000634 .L0 
     /tmp/ccq14iul.s:887    .text:000000000000063c .L0 
     /tmp/ccq14iul.s:888    .text:000000000000063c .L0 
     /tmp/ccq14iul.s:892    .text:0000000000000644 .L0 
     /tmp/ccq14iul.s:906    .text:0000000000000644 _Z19testMemoryAllocatorv
     /tmp/ccq14iul.s:909    .text:0000000000000644 .L0 
     /tmp/ccq14iul.s:910    .text:0000000000000644 .L0 
     /tmp/ccq14iul.s:911    .text:0000000000000648 .L0 
     /tmp/ccq14iul.s:917    .text:000000000000065c .L0 
     /tmp/ccq14iul.s:918    .text:000000000000065c .L0 
     /tmp/ccq14iul.s:919    .text:000000000000065c .L0 
     /tmp/ccq14iul.s:920    .text:000000000000065c .L0 
     /tmp/ccq14iul.s:921    .text:000000000000065c .L0 
     /tmp/ccq14iul.s:923    .text:0000000000000660 .L0 
     /tmp/ccq14iul.s:925    .text:0000000000000660 .L0 
     /tmp/ccq14iul.s:926    .text:0000000000000660 .L0 
     /tmp/ccq14iul.s:930    .text:0000000000000670 .L0 
GAS LISTING /tmp/ccq14iul.s 			page 42


     /tmp/ccq14iul.s:931    .text:0000000000000670 .L0 
     /tmp/ccq14iul.s:934    .text:0000000000000678 .L0 
     /tmp/ccq14iul.s:935    .text:0000000000000678 .L0 
     /tmp/ccq14iul.s:936    .text:0000000000000678 .L0 
     /tmp/ccq14iul.s:937    .text:0000000000000678 .L0 
     /tmp/ccq14iul.s:945    .text:000000000000068c .L0 
     /tmp/ccq14iul.s:946    .text:000000000000068c .L0 
     /tmp/ccq14iul.s:950    .text:0000000000000690 .L0 
     /tmp/ccq14iul.s:953    .text:0000000000000698 .L0 
     /tmp/ccq14iul.s:954    .text:0000000000000698 .L0 
     /tmp/ccq14iul.s:957    .text:00000000000006a0 .L0 
     /tmp/ccq14iul.s:961    .text:00000000000006ac .L0 
     /tmp/ccq14iul.s:963    .text:00000000000006b0 .L0 
     /tmp/ccq14iul.s:964    .text:00000000000006b0 .L0 
     /tmp/ccq14iul.s:966    .text:00000000000006b4 .L0 
     /tmp/ccq14iul.s:974    .text:00000000000006bc .L0 
     /tmp/ccq14iul.s:977    .text:00000000000006c0 .L0 
     /tmp/ccq14iul.s:982    .text:00000000000006c4 .L0 
     /tmp/ccq14iul.s:985    .text:00000000000006cc .L0 
     /tmp/ccq14iul.s:986    .text:00000000000006cc .L0 
     /tmp/ccq14iul.s:990    .text:00000000000006d8 .L0 
     /tmp/ccq14iul.s:992    .text:00000000000006dc .L0 
     /tmp/ccq14iul.s:995    .text:00000000000006e0 .L0 
     /tmp/ccq14iul.s:1002   .text:00000000000006e8 .L0 
     /tmp/ccq14iul.s:1009   .text:00000000000006f0 .L0 
     /tmp/ccq14iul.s:1014   .text:00000000000006f4 .L0 
     /tmp/ccq14iul.s:1018   .text:00000000000006f8 .L0 
     /tmp/ccq14iul.s:1021   .text:0000000000000700 .L0 
     /tmp/ccq14iul.s:1022   .text:0000000000000700 .L0 
     /tmp/ccq14iul.s:1025   .text:0000000000000708 .L0 
     /tmp/ccq14iul.s:1031   .text:0000000000000714 .L0 
     /tmp/ccq14iul.s:1032   .text:0000000000000714 .L0 
     /tmp/ccq14iul.s:1037   .text:0000000000000718 .L0 
     /tmp/ccq14iul.s:1038   .text:0000000000000718 .L0 
     /tmp/ccq14iul.s:1047   .text:0000000000000720 .L0 
     /tmp/ccq14iul.s:1048   .text:0000000000000720 .L0 
     /tmp/ccq14iul.s:1052   .text:0000000000000730 .L0 
     /tmp/ccq14iul.s:1053   .text:0000000000000730 .L0 
     /tmp/ccq14iul.s:1057   .text:0000000000000740 .L0 
     /tmp/ccq14iul.s:1058   .text:0000000000000740 .L0 
     /tmp/ccq14iul.s:1062   .text:0000000000000750 .L0 
     /tmp/ccq14iul.s:1063   .text:0000000000000750 .L0 
     /tmp/ccq14iul.s:1067   .text:000000000000075c .L0 
     /tmp/ccq14iul.s:1068   .text:000000000000075c .L0 
     /tmp/ccq14iul.s:1072   .text:000000000000076c .L0 
     /tmp/ccq14iul.s:1073   .text:000000000000076c .L0 
     /tmp/ccq14iul.s:1076   .text:0000000000000774 .L0 
     /tmp/ccq14iul.s:1077   .text:0000000000000774 .L0 
     /tmp/ccq14iul.s:1086   .text:000000000000077c .L0 
     /tmp/ccq14iul.s:1087   .text:000000000000077c .L0 
     /tmp/ccq14iul.s:1092   .text:000000000000078c .L0 
     /tmp/ccq14iul.s:1093   .text:000000000000078c .L0 
     /tmp/ccq14iul.s:1097   .text:000000000000079c .L0 
     /tmp/ccq14iul.s:1098   .text:000000000000079c .L0 
     /tmp/ccq14iul.s:1102   .text:00000000000007ac .L0 
     /tmp/ccq14iul.s:1103   .text:00000000000007ac .L0 
     /tmp/ccq14iul.s:1107   .text:00000000000007b8 .L0 
GAS LISTING /tmp/ccq14iul.s 			page 43


     /tmp/ccq14iul.s:1108   .text:00000000000007b8 .L0 
     /tmp/ccq14iul.s:1112   .text:00000000000007c8 .L0 
     /tmp/ccq14iul.s:1113   .text:00000000000007c8 .L0 
     /tmp/ccq14iul.s:1116   .text:00000000000007d0 .L0 
     /tmp/ccq14iul.s:1117   .text:00000000000007d0 .L0 
     /tmp/ccq14iul.s:1124   .text:00000000000007d8 .L0 
     /tmp/ccq14iul.s:1125   .text:00000000000007d8 .L0 
     /tmp/ccq14iul.s:1131   .text:00000000000007e4 .L0 
     /tmp/ccq14iul.s:1132   .text:00000000000007e4 .L0 
     /tmp/ccq14iul.s:1137   .text:00000000000007e8 .L0 
     /tmp/ccq14iul.s:1138   .text:00000000000007e8 .L0 
     /tmp/ccq14iul.s:1148   .text:0000000000000804 .L0 
     /tmp/ccq14iul.s:1153   .text:0000000000000808 .L0 
     /tmp/ccq14iul.s:1154   .text:0000000000000808 .L0 
     /tmp/ccq14iul.s:1155   .text:0000000000000808 .L0 
     /tmp/ccq14iul.s:1159   .text:0000000000000818 .L0 
     /tmp/ccq14iul.s:1160   .text:0000000000000818 .L0 
     /tmp/ccq14iul.s:1163   .text:0000000000000820 .L0 
     /tmp/ccq14iul.s:1164   .text:0000000000000824 .L0 
     /tmp/ccq14iul.s:1165   .text:0000000000000824 .L0 
     /tmp/ccq14iul.s:1167   .text:0000000000000828 .L0 
     /tmp/ccq14iul.s:1168   .text:0000000000000828 .L0 
     /tmp/ccq14iul.s:1170   .text:000000000000082c .L0 
     /tmp/ccq14iul.s:1173   .text:0000000000000830 .L0 
     /tmp/ccq14iul.s:1175   .text:0000000000000834 .L0 
     /tmp/ccq14iul.s:1178   .text:0000000000000838 .L0 
     /tmp/ccq14iul.s:1182   .text:000000000000083c .L0 
     /tmp/ccq14iul.s:1186   .text:000000000000083c .L0 
     /tmp/ccq14iul.s:1187   .text:000000000000083c .L0 
     /tmp/ccq14iul.s:1192   .text:000000000000084c .L0 
     /tmp/ccq14iul.s:1193   .text:000000000000084c .L0 
     /tmp/ccq14iul.s:1197   .text:000000000000085c .L0 
     /tmp/ccq14iul.s:1198   .text:000000000000085c .L0 
     /tmp/ccq14iul.s:1202   .text:000000000000086c .L0 
     /tmp/ccq14iul.s:1203   .text:000000000000086c .L0 
     /tmp/ccq14iul.s:1207   .text:0000000000000878 .L0 
     /tmp/ccq14iul.s:1208   .text:0000000000000878 .L0 
     /tmp/ccq14iul.s:1212   .text:0000000000000888 .L0 
     /tmp/ccq14iul.s:1213   .text:0000000000000888 .L0 
     /tmp/ccq14iul.s:1216   .text:0000000000000890 .L0 
     /tmp/ccq14iul.s:1217   .text:0000000000000890 .L0 
     /tmp/ccq14iul.s:1225   .text:0000000000000898 .L0 
     /tmp/ccq14iul.s:1226   .text:0000000000000898 .L0 
     /tmp/ccq14iul.s:1231   .text:00000000000008a8 .L0 
     /tmp/ccq14iul.s:1232   .text:00000000000008a8 .L0 
     /tmp/ccq14iul.s:1236   .text:00000000000008b8 .L0 
     /tmp/ccq14iul.s:1237   .text:00000000000008b8 .L0 
     /tmp/ccq14iul.s:1241   .text:00000000000008c8 .L0 
     /tmp/ccq14iul.s:1242   .text:00000000000008c8 .L0 
     /tmp/ccq14iul.s:1246   .text:00000000000008d4 .L0 
     /tmp/ccq14iul.s:1247   .text:00000000000008d4 .L0 
     /tmp/ccq14iul.s:1251   .text:00000000000008e4 .L0 
     /tmp/ccq14iul.s:1252   .text:00000000000008e4 .L0 
     /tmp/ccq14iul.s:1255   .text:00000000000008ec .L0 
     /tmp/ccq14iul.s:1256   .text:00000000000008ec .L0 
     /tmp/ccq14iul.s:1260   .text:00000000000008f4 .L0 
     /tmp/ccq14iul.s:1267   .text:00000000000008f4 .L0 
GAS LISTING /tmp/ccq14iul.s 			page 44


     /tmp/ccq14iul.s:8      .rodata.str1.8:0000000000000000 .LC0
     /tmp/ccq14iul.s:35     .text:0000000000000010 .L0 
     /tmp/ccq14iul.s:57     .text:000000000000003c .L0 
     /tmp/ccq14iul.s:64     .text:0000000000000054 .L0 
     /tmp/ccq14iul.s:11     .rodata.str1.8:0000000000000020 .LC1
     /tmp/ccq14iul.s:74     .text:0000000000000070 .L0 
     /tmp/ccq14iul.s:14     .rodata.str1.8:0000000000000030 .LC2
     /tmp/ccq14iul.s:88     .text:0000000000000094 .L0 
     /tmp/ccq14iul.s:121    .rodata.str1.8:0000000000000040 .LC3
     /tmp/ccq14iul.s:156    .text:00000000000000dc .L0 
     /tmp/ccq14iul.s:168    .text:0000000000000104 .L0 
     /tmp/ccq14iul.s:136    .rodata.str1.8:00000000000000b8 .LC8
     /tmp/ccq14iul.s:186    .text:000000000000011c .L0 
     /tmp/ccq14iul.s:124    .rodata.str1.8:0000000000000050 .LC4
     /tmp/ccq14iul.s:210    .text:0000000000000144 .L0 
     /tmp/ccq14iul.s:127    .rodata.str1.8:0000000000000078 .LC5
     /tmp/ccq14iul.s:216    .text:0000000000000154 .L0 
     /tmp/ccq14iul.s:130    .rodata.str1.8:0000000000000088 .LC6
     /tmp/ccq14iul.s:221    .text:0000000000000164 .L0 
     /tmp/ccq14iul.s:133    .rodata.str1.8:0000000000000098 .LC7
     /tmp/ccq14iul.s:231    .text:0000000000000180 .L0 
     /tmp/ccq14iul.s:296    .text:00000000000001d0 .L0 
     /tmp/ccq14iul.s:301    .text:00000000000001e0 .L0 
     /tmp/ccq14iul.s:306    .text:00000000000001f0 .L0 
     /tmp/ccq14iul.s:316    .text:000000000000020c .L0 
     /tmp/ccq14iul.s:334    .text:000000000000022c .L0 
     /tmp/ccq14iul.s:340    .text:000000000000023c .L0 
     /tmp/ccq14iul.s:345    .text:000000000000024c .L0 
     /tmp/ccq14iul.s:355    .text:0000000000000268 .L0 
     /tmp/ccq14iul.s:420    .text:00000000000002b8 .L0 
     /tmp/ccq14iul.s:425    .text:00000000000002c8 .L0 
     /tmp/ccq14iul.s:430    .text:00000000000002d8 .L0 
     /tmp/ccq14iul.s:440    .text:00000000000002f4 .L0 
     /tmp/ccq14iul.s:458    .text:0000000000000314 .L0 
     /tmp/ccq14iul.s:464    .text:0000000000000324 .L0 
     /tmp/ccq14iul.s:469    .text:0000000000000334 .L0 
     /tmp/ccq14iul.s:479    .text:0000000000000350 .L0 
     /tmp/ccq14iul.s:560    .rodata.str1.8:00000000000000c8 .LC9
     /tmp/ccq14iul.s:606    .text:0000000000000404 .L0 
     /tmp/ccq14iul.s:563    .rodata.str1.8:00000000000000e8 .LC10
     /tmp/ccq14iul.s:685    .text:0000000000000470 .L0 
     /tmp/ccq14iul.s:566    .rodata.str1.8:0000000000000100 .LC11
     /tmp/ccq14iul.s:696    .text:000000000000048c .L0 
     /tmp/ccq14iul.s:569    .rodata.str1.8:0000000000000110 .LC12
     /tmp/ccq14iul.s:706    .text:00000000000004a8 .L0 
     /tmp/ccq14iul.s:724    .text:00000000000004cc .L0 
     /tmp/ccq14iul.s:729    .text:00000000000004dc .L0 
     /tmp/ccq14iul.s:734    .text:00000000000004ec .L0 
     /tmp/ccq14iul.s:744    .text:0000000000000508 .L0 
     /tmp/ccq14iul.s:762    .text:0000000000000528 .L0 
     /tmp/ccq14iul.s:768    .text:0000000000000538 .L0 
     /tmp/ccq14iul.s:773    .text:0000000000000548 .L0 
     /tmp/ccq14iul.s:783    .text:0000000000000564 .L0 
     /tmp/ccq14iul.s:804    .text:0000000000000594 .L0 
     /tmp/ccq14iul.s:572    .rodata.str1.8:0000000000000120 .LC13
     /tmp/ccq14iul.s:817    .text:00000000000005a4 .L0 
     /tmp/ccq14iul.s:858    .text:00000000000005e8 .L0 
GAS LISTING /tmp/ccq14iul.s 			page 45


     /tmp/ccq14iul.s:864    .text:00000000000005f8 .L0 
     /tmp/ccq14iul.s:869    .text:0000000000000608 .L0 
     /tmp/ccq14iul.s:879    .text:0000000000000624 .L0 
     /tmp/ccq14iul.s:897    .rodata.str1.8:0000000000000148 .LC14
     /tmp/ccq14iul.s:926    .text:0000000000000660 .L0 
     /tmp/ccq14iul.s:1048   .text:0000000000000720 .L0 
     /tmp/ccq14iul.s:1053   .text:0000000000000730 .L0 
     /tmp/ccq14iul.s:1058   .text:0000000000000740 .L0 
     /tmp/ccq14iul.s:1068   .text:000000000000075c .L0 
     /tmp/ccq14iul.s:1087   .text:000000000000077c .L0 
     /tmp/ccq14iul.s:1093   .text:000000000000078c .L0 
     /tmp/ccq14iul.s:1098   .text:000000000000079c .L0 
     /tmp/ccq14iul.s:1108   .text:00000000000007b8 .L0 
     /tmp/ccq14iul.s:1142   .text:00000000000007f8 .L0 
     /tmp/ccq14iul.s:900    .rodata.str1.8:0000000000000170 .LC15
     /tmp/ccq14iul.s:1155   .text:0000000000000808 .L0 
     /tmp/ccq14iul.s:1187   .text:000000000000083c .L0 
     /tmp/ccq14iul.s:1193   .text:000000000000084c .L0 
     /tmp/ccq14iul.s:1198   .text:000000000000085c .L0 
     /tmp/ccq14iul.s:1208   .text:0000000000000878 .L0 
     /tmp/ccq14iul.s:1226   .text:0000000000000898 .L0 
     /tmp/ccq14iul.s:1232   .text:00000000000008a8 .L0 
     /tmp/ccq14iul.s:1237   .text:00000000000008b8 .L0 
     /tmp/ccq14iul.s:1247   .text:00000000000008d4 .L0 
     /tmp/ccq14iul.s:204    .text:0000000000000144 .L6
     /tmp/ccq14iul.s:327    .text:000000000000022c .L10
     /tmp/ccq14iul.s:451    .text:0000000000000314 .L14
     /tmp/ccq14iul.s:522    .text:0000000000000398 .L16
     /tmp/ccq14iul.s:539    .text:00000000000003b4 .L18
     /tmp/ccq14iul.s:794    .text:0000000000000584 .L20
     /tmp/ccq14iul.s:681    .text:0000000000000470 .L26
     /tmp/ccq14iul.s:755    .text:0000000000000528 .L27
     /tmp/ccq14iul.s:625    .text:0000000000000428 .L23
     /tmp/ccq14iul.s:852    .text:00000000000005e8 .L28
     /tmp/ccq14iul.s:970    .text:00000000000006bc .L38
     /tmp/ccq14iul.s:948    .text:0000000000000690 .L31
     /tmp/ccq14iul.s:999    .text:00000000000006e8 .L32
     /tmp/ccq14iul.s:978    .text:00000000000006c4 .L30
     /tmp/ccq14iul.s:1042   .text:0000000000000720 .L41
     /tmp/ccq14iul.s:1119   .text:00000000000007d8 .L34
     /tmp/ccq14iul.s:1079   .text:000000000000077c .L42
     /tmp/ccq14iul.s:1016   .text:00000000000006f8 .L33
     /tmp/ccq14iul.s:1181   .text:000000000000083c .L43
     /tmp/ccq14iul.s:1219   .text:0000000000000898 .L44
     /tmp/ccq14iul.s:3277   .debug_abbrev:0000000000000000 .Ldebug_abbrev0
     /tmp/ccq14iul.s:5065   .debug_str:000000000000040f .LASF80
     /tmp/ccq14iul.s:5025   .debug_str:0000000000000303 .LASF81
     /tmp/ccq14iul.s:5037   .debug_str:0000000000000342 .LASF82
     /tmp/ccq14iul.s:5      .text:0000000000000000 .Ltext0
     /tmp/ccq14iul.s:1263   .text:00000000000008f4 .Letext0
     /tmp/ccq14iul.s:4911   .debug_line:0000000000000000 .Ldebug_line0
     /tmp/ccq14iul.s:5011   .debug_str:0000000000000287 .LASF0
     /tmp/ccq14iul.s:5019   .debug_str:00000000000002cc .LASF1
     /tmp/ccq14iul.s:5001   .debug_str:000000000000024d .LASF2
     /tmp/ccq14iul.s:4979   .debug_str:00000000000001c4 .LASF4
     /tmp/ccq14iul.s:5053   .debug_str:00000000000003bc .LASF3
     /tmp/ccq14iul.s:4925   .debug_str:0000000000000068 .LASF5
GAS LISTING /tmp/ccq14iul.s 			page 46


     /tmp/ccq14iul.s:5023   .debug_str:00000000000002f0 .LASF6
     /tmp/ccq14iul.s:5009   .debug_str:0000000000000274 .LASF7
     /tmp/ccq14iul.s:5071   .debug_str:00000000000004f3 .LASF8
     /tmp/ccq14iul.s:4965   .debug_str:0000000000000178 .LASF9
     /tmp/ccq14iul.s:5035   .debug_str:0000000000000333 .LASF10
     /tmp/ccq14iul.s:5067   .debug_str:00000000000004d3 .LASF11
     /tmp/ccq14iul.s:4927   .debug_str:000000000000006f .LASF12
     /tmp/ccq14iul.s:4921   .debug_str:000000000000004e .LASF13
     /tmp/ccq14iul.s:4933   .debug_str:00000000000000a7 .LASF14
     /tmp/ccq14iul.s:5049   .debug_str:0000000000000396 .LASF15
     /tmp/ccq14iul.s:4943   .debug_str:00000000000000e6 .LASF16
     /tmp/ccq14iul.s:4913   .debug_str:0000000000000000 .LASF17
     /tmp/ccq14iul.s:5003   .debug_str:000000000000025b .LASF34
     /tmp/ccq14iul.s:4963   .debug_str:0000000000000165 .LASF83
     /tmp/ccq14iul.s:5061   .debug_str:0000000000000401 .LASF21
     /tmp/ccq14iul.s:4969   .debug_str:000000000000018b .LASF18
     /tmp/ccq14iul.s:5063   .debug_str:000000000000040a .LASF19
     /tmp/ccq14iul.s:5079   .debug_str:0000000000000524 .LASF20
     /tmp/ccq14iul.s:4917   .debug_str:0000000000000010 .LASF23
     /tmp/ccq14iul.s:5007   .debug_str:000000000000026a .LASF25
     /tmp/ccq14iul.s:4977   .debug_str:00000000000001ba .LASF22
     /tmp/ccq14iul.s:4997   .debug_str:000000000000021a .LASF24
     /tmp/ccq14iul.s:4955   .debug_str:0000000000000137 .LASF26
     /tmp/ccq14iul.s:5077   .debug_str:000000000000051b .LASF27
     /tmp/ccq14iul.s:4931   .debug_str:000000000000008f .LASF29
     /tmp/ccq14iul.s:5029   .debug_str:0000000000000314 .LASF28
     /tmp/ccq14iul.s:4971   .debug_str:0000000000000191 .LASF30
     /tmp/ccq14iul.s:5069   .debug_str:00000000000004e2 .LASF31
     /tmp/ccq14iul.s:4919   .debug_str:000000000000002d .LASF32
     /tmp/ccq14iul.s:5081   .debug_str:0000000000000529 .LASF84
     /tmp/ccq14iul.s:5083   .debug_str:000000000000053c .LASF85
     /tmp/ccq14iul.s:4995   .debug_str:000000000000020c .LASF33
     /tmp/ccq14iul.s:5017   .debug_str:00000000000002bb .LASF35
     /tmp/ccq14iul.s:5027   .debug_str:000000000000030f .LASF36
     /tmp/ccq14iul.s:4957   .debug_str:0000000000000142 .LASF37
     /tmp/ccq14iul.s:4953   .debug_str:0000000000000123 .LASF38
     /tmp/ccq14iul.s:5057   .debug_str:00000000000003d8 .LASF39
     /tmp/ccq14iul.s:907    .text:0000000000000644 .LFB16
     /tmp/ccq14iul.s:1261   .text:00000000000008f4 .LFE16
     /tmp/ccq14iul.s:3975   .debug_loc:0000000000000000 .LLST32
     /tmp/ccq14iul.s:4981   .debug_str:00000000000001cb .LASF40
     /tmp/ccq14iul.s:3990   .debug_loc:0000000000000049 .LLST33
     /tmp/ccq14iul.s:4005   .debug_loc:0000000000000092 .LLST34
     /tmp/ccq14iul.s:944    .text:000000000000068c .LBB62
     /tmp/ccq14iul.s:971    .text:00000000000006bc .LBE62
     /tmp/ccq14iul.s:4024   .debug_loc:00000000000000ee .LLST35
     /tmp/ccq14iul.s:959    .text:00000000000006ac .LVL137
     /tmp/ccq14iul.s:4829   .debug_ranges:0000000000000000 .Ldebug_ranges0
     /tmp/ccq14iul.s:4054   .debug_loc:0000000000000164 .LLST36
     /tmp/ccq14iul.s:4065   .debug_loc:000000000000019a .LLST40
     /tmp/ccq14iul.s:1029   .text:0000000000000714 .LBB69
     /tmp/ccq14iul.s:4080   .debug_loc:00000000000001e3 .LLST41
     /tmp/ccq14iul.s:4095   .debug_loc:000000000000021d .LLST42
     /tmp/ccq14iul.s:4110   .debug_loc:0000000000000265 .LLST43
     /tmp/ccq14iul.s:1090   .text:000000000000078c .LVL159
     /tmp/ccq14iul.s:1095   .text:000000000000079c .LVL160
     /tmp/ccq14iul.s:1100   .text:00000000000007ac .LVL161
GAS LISTING /tmp/ccq14iul.s 			page 47


     /tmp/ccq14iul.s:1105   .text:00000000000007b8 .LVL162
     /tmp/ccq14iul.s:1110   .text:00000000000007c8 .LVL163
     /tmp/ccq14iul.s:1114   .text:00000000000007d0 .LVL164
     /tmp/ccq14iul.s:1118   .text:00000000000007d8 .LVL165
     /tmp/ccq14iul.s:1027   .text:0000000000000714 .LVL147
     /tmp/ccq14iul.s:1006   .text:00000000000006f0 .LBB65
     /tmp/ccq14iul.s:4129   .debug_loc:00000000000002a3 .LLST37
     /tmp/ccq14iul.s:4144   .debug_loc:00000000000002dd .LLST38
     /tmp/ccq14iul.s:4159   .debug_loc:0000000000000325 .LLST39
     /tmp/ccq14iul.s:1050   .text:0000000000000730 .LVL151
     /tmp/ccq14iul.s:1055   .text:0000000000000740 .LVL152
     /tmp/ccq14iul.s:1060   .text:0000000000000750 .LVL153
     /tmp/ccq14iul.s:1065   .text:000000000000075c .LVL154
     /tmp/ccq14iul.s:1070   .text:000000000000076c .LVL155
     /tmp/ccq14iul.s:1074   .text:0000000000000774 .LVL156
     /tmp/ccq14iul.s:1078   .text:000000000000077c .LVL157
     /tmp/ccq14iul.s:1129   .text:00000000000007e4 .LBB75
     /tmp/ccq14iul.s:4184   .debug_loc:0000000000000369 .LLST44
     /tmp/ccq14iul.s:4199   .debug_loc:00000000000003a3 .LLST45
     /tmp/ccq14iul.s:4214   .debug_loc:00000000000003eb .LLST46
     /tmp/ccq14iul.s:1190   .text:000000000000084c .LVL178
     /tmp/ccq14iul.s:1195   .text:000000000000085c .LVL179
     /tmp/ccq14iul.s:1200   .text:000000000000086c .LVL180
     /tmp/ccq14iul.s:1205   .text:0000000000000878 .LVL181
     /tmp/ccq14iul.s:1210   .text:0000000000000888 .LVL182
     /tmp/ccq14iul.s:1214   .text:0000000000000890 .LVL183
     /tmp/ccq14iul.s:1218   .text:0000000000000898 .LVL184
     /tmp/ccq14iul.s:1145   .text:0000000000000804 .LBB78
     /tmp/ccq14iul.s:4233   .debug_loc:0000000000000429 .LLST47
     /tmp/ccq14iul.s:4248   .debug_loc:0000000000000463 .LLST48
     /tmp/ccq14iul.s:4263   .debug_loc:00000000000004ab .LLST49
     /tmp/ccq14iul.s:1229   .text:00000000000008a8 .LVL186
     /tmp/ccq14iul.s:1234   .text:00000000000008b8 .LVL187
     /tmp/ccq14iul.s:1239   .text:00000000000008c8 .LVL188
     /tmp/ccq14iul.s:1244   .text:00000000000008d4 .LVL189
     /tmp/ccq14iul.s:1249   .text:00000000000008e4 .LVL190
     /tmp/ccq14iul.s:1253   .text:00000000000008ec .LVL191
     /tmp/ccq14iul.s:1257   .text:00000000000008f4 .LVL192
     /tmp/ccq14iul.s:928    .text:0000000000000670 .LVL132
     /tmp/ccq14iul.s:932    .text:0000000000000678 .LVL133
     /tmp/ccq14iul.s:940    .text:0000000000000688 .LVL134
     /tmp/ccq14iul.s:1127   .text:00000000000007e4 .LVL166
     /tmp/ccq14iul.s:1139   .text:00000000000007f0 .LVL168
     /tmp/ccq14iul.s:1141   .text:00000000000007f8 .LVL169
     /tmp/ccq14iul.s:1157   .text:0000000000000818 .LVL172
     /tmp/ccq14iul.s:1161   .text:0000000000000820 .LVL173
     /tmp/ccq14iul.s:5051   .debug_str:00000000000003ac .LASF41
     /tmp/ccq14iul.s:4999   .debug_str:0000000000000238 .LASF42
     /tmp/ccq14iul.s:579    .text:00000000000003d8 .LFB15
     /tmp/ccq14iul.s:893    .text:0000000000000644 .LFE15
     /tmp/ccq14iul.s:4288   .debug_loc:00000000000004ef .LLST18
     /tmp/ccq14iul.s:4320   .debug_loc:0000000000000576 .LLST19
     /tmp/ccq14iul.s:4352   .debug_loc:00000000000005fd .LLST20
     /tmp/ccq14iul.s:4915   .debug_str:0000000000000009 .LASF43
     /tmp/ccq14iul.s:4372   .debug_loc:000000000000065a .LLST21
     /tmp/ccq14iul.s:4947   .debug_str:000000000000010a .LASF44
     /tmp/ccq14iul.s:4383   .debug_loc:0000000000000690 .LLST22
GAS LISTING /tmp/ccq14iul.s 			page 48


     /tmp/ccq14iul.s:658    .text:000000000000045c .LBB38
     /tmp/ccq14iul.s:4402   .debug_loc:00000000000006ec .LLST23
     /tmp/ccq14iul.s:4417   .debug_loc:0000000000000726 .LLST24
     /tmp/ccq14iul.s:4432   .debug_loc:000000000000076e .LLST25
     /tmp/ccq14iul.s:765    .text:0000000000000538 .LVL107
     /tmp/ccq14iul.s:770    .text:0000000000000548 .LVL108
     /tmp/ccq14iul.s:775    .text:0000000000000558 .LVL109
     /tmp/ccq14iul.s:780    .text:0000000000000564 .LVL110
     /tmp/ccq14iul.s:785    .text:0000000000000574 .LVL111
     /tmp/ccq14iul.s:789    .text:000000000000057c .LVL112
     /tmp/ccq14iul.s:793    .text:0000000000000584 .LVL113
     /tmp/ccq14iul.s:719    .text:00000000000004cc .LBB41
     /tmp/ccq14iul.s:757    .text:0000000000000528 .LBE41
     /tmp/ccq14iul.s:4457   .debug_loc:00000000000007b2 .LLST26
     /tmp/ccq14iul.s:4466   .debug_loc:00000000000007d7 .LLST27
     /tmp/ccq14iul.s:4475   .debug_loc:0000000000000803 .LLST28
     /tmp/ccq14iul.s:726    .text:00000000000004dc .LVL99
     /tmp/ccq14iul.s:731    .text:00000000000004ec .LVL100
     /tmp/ccq14iul.s:736    .text:00000000000004fc .LVL101
     /tmp/ccq14iul.s:741    .text:0000000000000508 .LVL102
     /tmp/ccq14iul.s:746    .text:0000000000000518 .LVL103
     /tmp/ccq14iul.s:750    .text:0000000000000520 .LVL104
     /tmp/ccq14iul.s:754    .text:0000000000000528 .LVL105
     /tmp/ccq14iul.s:643    .text:0000000000000444 .LVL80
     /tmp/ccq14iul.s:651    .text:0000000000000454 .LVL83
     /tmp/ccq14iul.s:688    .text:0000000000000480 .LVL92
     /tmp/ccq14iul.s:693    .text:000000000000048c .LVL93
     /tmp/ccq14iul.s:698    .text:000000000000049c .LVL94
     /tmp/ccq14iul.s:703    .text:00000000000004a8 .LVL95
     /tmp/ccq14iul.s:708    .text:00000000000004b8 .LVL96
     /tmp/ccq14iul.s:713    .text:00000000000004c4 .LVL97
     /tmp/ccq14iul.s:717    .text:00000000000004cc .LVL98
     /tmp/ccq14iul.s:807    .text:00000000000005a0 .LBB47
     /tmp/ccq14iul.s:4483   .debug_loc:0000000000000827 .LLST29
     /tmp/ccq14iul.s:4498   .debug_loc:0000000000000861 .LLST30
     /tmp/ccq14iul.s:4513   .debug_loc:00000000000008a9 .LLST31
     /tmp/ccq14iul.s:861    .text:00000000000005f8 .LVL125
     /tmp/ccq14iul.s:866    .text:0000000000000608 .LVL126
     /tmp/ccq14iul.s:871    .text:0000000000000618 .LVL127
     /tmp/ccq14iul.s:876    .text:0000000000000624 .LVL128
     /tmp/ccq14iul.s:881    .text:0000000000000634 .LVL129
     /tmp/ccq14iul.s:885    .text:000000000000063c .LVL130
     /tmp/ccq14iul.s:889    .text:0000000000000644 .LVL131
     /tmp/ccq14iul.s:608    .text:0000000000000414 .LVL75
     /tmp/ccq14iul.s:612    .text:000000000000041c .LVL76
     /tmp/ccq14iul.s:801    .text:000000000000058c .LVL114
     /tmp/ccq14iul.s:803    .text:0000000000000594 .LVL115
     /tmp/ccq14iul.s:819    .text:00000000000005b4 .LVL118
     /tmp/ccq14iul.s:823    .text:00000000000005bc .LVL119
     /tmp/ccq14iul.s:5041   .debug_str:0000000000000366 .LASF86
     /tmp/ccq14iul.s:499    .text:0000000000000370 .LFB14
     /tmp/ccq14iul.s:556    .text:00000000000003d8 .LFE14
     /tmp/ccq14iul.s:4538   .debug_loc:00000000000008ed .LLST17
     /tmp/ccq14iul.s:545    .text:00000000000003c0 .LVL72
     /tmp/ccq14iul.s:550    .text:00000000000003d0 .LVL73
     /tmp/ccq14iul.s:4961   .debug_str:000000000000015c .LASF45
     /tmp/ccq14iul.s:375    .text:0000000000000288 .LFB13
GAS LISTING /tmp/ccq14iul.s 			page 49


     /tmp/ccq14iul.s:493    .text:0000000000000370 .LFE13
     /tmp/ccq14iul.s:4563   .debug_loc:000000000000094f .LLST10
     /tmp/ccq14iul.s:391    .text:00000000000002a0 .LBB22
     /tmp/ccq14iul.s:4588   .debug_loc:00000000000009b1 .LLST11
     /tmp/ccq14iul.s:4603   .debug_loc:00000000000009eb .LLST12
     /tmp/ccq14iul.s:4618   .debug_loc:0000000000000a33 .LLST13
     /tmp/ccq14iul.s:461    .text:0000000000000324 .LVL62
     /tmp/ccq14iul.s:466    .text:0000000000000334 .LVL63
     /tmp/ccq14iul.s:471    .text:0000000000000344 .LVL64
     /tmp/ccq14iul.s:476    .text:0000000000000350 .LVL65
     /tmp/ccq14iul.s:481    .text:0000000000000360 .LVL66
     /tmp/ccq14iul.s:485    .text:0000000000000368 .LVL67
     /tmp/ccq14iul.s:489    .text:0000000000000370 .LVL68
     /tmp/ccq14iul.s:415    .text:00000000000002b8 .LBB25
     /tmp/ccq14iul.s:453    .text:0000000000000314 .LBE25
     /tmp/ccq14iul.s:4637   .debug_loc:0000000000000a71 .LLST14
     /tmp/ccq14iul.s:4646   .debug_loc:0000000000000a96 .LLST15
     /tmp/ccq14iul.s:4655   .debug_loc:0000000000000ac2 .LLST16
     /tmp/ccq14iul.s:422    .text:00000000000002c8 .LVL54
     /tmp/ccq14iul.s:427    .text:00000000000002d8 .LVL55
     /tmp/ccq14iul.s:432    .text:00000000000002e8 .LVL56
     /tmp/ccq14iul.s:437    .text:00000000000002f4 .LVL57
     /tmp/ccq14iul.s:442    .text:0000000000000304 .LVL58
     /tmp/ccq14iul.s:446    .text:000000000000030c .LVL59
     /tmp/ccq14iul.s:450    .text:0000000000000314 .LVL60
     /tmp/ccq14iul.s:402    .text:00000000000002ac .LVL52
     /tmp/ccq14iul.s:413    .text:00000000000002b8 .LVL53
     /tmp/ccq14iul.s:4951   .debug_str:000000000000011a .LASF46
     /tmp/ccq14iul.s:251    .text:00000000000001a0 .LFB12
     /tmp/ccq14iul.s:369    .text:0000000000000288 .LFE12
     /tmp/ccq14iul.s:4663   .debug_loc:0000000000000ae6 .LLST3
     /tmp/ccq14iul.s:267    .text:00000000000001b8 .LBB12
     /tmp/ccq14iul.s:4688   .debug_loc:0000000000000b48 .LLST4
     /tmp/ccq14iul.s:4703   .debug_loc:0000000000000b82 .LLST5
     /tmp/ccq14iul.s:4718   .debug_loc:0000000000000bca .LLST6
     /tmp/ccq14iul.s:337    .text:000000000000023c .LVL42
     /tmp/ccq14iul.s:342    .text:000000000000024c .LVL43
     /tmp/ccq14iul.s:347    .text:000000000000025c .LVL44
     /tmp/ccq14iul.s:352    .text:0000000000000268 .LVL45
     /tmp/ccq14iul.s:357    .text:0000000000000278 .LVL46
     /tmp/ccq14iul.s:361    .text:0000000000000280 .LVL47
     /tmp/ccq14iul.s:365    .text:0000000000000288 .LVL48
     /tmp/ccq14iul.s:291    .text:00000000000001d0 .LBB15
     /tmp/ccq14iul.s:329    .text:000000000000022c .LBE15
     /tmp/ccq14iul.s:4737   .debug_loc:0000000000000c08 .LLST7
     /tmp/ccq14iul.s:4746   .debug_loc:0000000000000c2d .LLST8
     /tmp/ccq14iul.s:4755   .debug_loc:0000000000000c59 .LLST9
     /tmp/ccq14iul.s:298    .text:00000000000001e0 .LVL34
     /tmp/ccq14iul.s:303    .text:00000000000001f0 .LVL35
     /tmp/ccq14iul.s:308    .text:0000000000000200 .LVL36
     /tmp/ccq14iul.s:313    .text:000000000000020c .LVL37
     /tmp/ccq14iul.s:318    .text:000000000000021c .LVL38
     /tmp/ccq14iul.s:322    .text:0000000000000224 .LVL39
     /tmp/ccq14iul.s:326    .text:000000000000022c .LVL40
     /tmp/ccq14iul.s:278    .text:00000000000001c4 .LVL32
     /tmp/ccq14iul.s:289    .text:00000000000001d0 .LVL33
     /tmp/ccq14iul.s:5073   .debug_str:0000000000000503 .LASF47
GAS LISTING /tmp/ccq14iul.s 			page 50


     /tmp/ccq14iul.s:5045   .debug_str:000000000000037c .LASF48
     /tmp/ccq14iul.s:21     .text:0000000000000000 .LFB11
     /tmp/ccq14iul.s:117    .text:00000000000000cc .LFE11
     /tmp/ccq14iul.s:4975   .debug_str:00000000000001b5 .LASF49
     /tmp/ccq14iul.s:4967   .debug_str:0000000000000186 .LASF50
     /tmp/ccq14iul.s:37     .text:0000000000000020 .LVL0
     /tmp/ccq14iul.s:41     .text:0000000000000028 .LVL1
     /tmp/ccq14iul.s:60     .text:0000000000000050 .LVL2
     /tmp/ccq14iul.s:67     .text:0000000000000068 .LVL3
     /tmp/ccq14iul.s:71     .text:0000000000000070 .LVL4
     /tmp/ccq14iul.s:76     .text:0000000000000080 .LVL5
     /tmp/ccq14iul.s:81     .text:000000000000008c .LVL6
     /tmp/ccq14iul.s:85     .text:0000000000000094 .LVL7
     /tmp/ccq14iul.s:90     .text:00000000000000a4 .LVL8
     /tmp/ccq14iul.s:95     .text:00000000000000b0 .LVL9
     /tmp/ccq14iul.s:99     .text:00000000000000b8 .LVL10
     /tmp/ccq14iul.s:5033   .debug_str:000000000000032a .LASF51
     /tmp/ccq14iul.s:4987   .debug_str:00000000000001e8 .LASF52
     /tmp/ccq14iul.s:143    .text:00000000000000cc .LFB10
     /tmp/ccq14iul.s:245    .text:00000000000001a0 .LFE10
     /tmp/ccq14iul.s:171    .text:0000000000000110 .LBB4
     /tmp/ccq14iul.s:4763   .debug_loc:0000000000000c7d .LLST0
     /tmp/ccq14iul.s:4776   .debug_loc:0000000000000cb5 .LLST1
     /tmp/ccq14iul.s:4791   .debug_loc:0000000000000cfd .LLST2
     /tmp/ccq14iul.s:213    .text:0000000000000154 .LVL22
     /tmp/ccq14iul.s:218    .text:0000000000000164 .LVL23
     /tmp/ccq14iul.s:223    .text:0000000000000174 .LVL24
     /tmp/ccq14iul.s:228    .text:0000000000000180 .LVL25
     /tmp/ccq14iul.s:233    .text:0000000000000190 .LVL26
     /tmp/ccq14iul.s:237    .text:0000000000000198 .LVL27
     /tmp/ccq14iul.s:241    .text:00000000000001a0 .LVL28
     /tmp/ccq14iul.s:158    .text:00000000000000ec .LVL11
     /tmp/ccq14iul.s:162    .text:00000000000000f4 .LVL12
     /tmp/ccq14iul.s:165    .text:00000000000000fc .LVL13
     /tmp/ccq14iul.s:167    .text:0000000000000104 .LVL14
     /tmp/ccq14iul.s:183    .text:000000000000011c .LVL17
     /tmp/ccq14iul.s:188    .text:000000000000012c .LVL18
     /tmp/ccq14iul.s:192    .text:0000000000000134 .LVL19
     /tmp/ccq14iul.s:5047   .debug_str:000000000000038e .LASF53
     /tmp/ccq14iul.s:4941   .debug_str:00000000000000d6 .LASF54
     /tmp/ccq14iul.s:5005   .debug_str:0000000000000264 .LASF55
     /tmp/ccq14iul.s:4937   .debug_str:00000000000000c3 .LASF56
     /tmp/ccq14iul.s:4989   .debug_str:00000000000001f5 .LASF57
     /tmp/ccq14iul.s:4939   .debug_str:00000000000000c8 .LASF58
     /tmp/ccq14iul.s:5055   .debug_str:00000000000003ce .LASF60
     /tmp/ccq14iul.s:4929   .debug_str:000000000000007f .LASF59
     /tmp/ccq14iul.s:4923   .debug_str:000000000000005e .LASF61
     /tmp/ccq14iul.s:4983   .debug_str:00000000000001d2 .LASF62
     /tmp/ccq14iul.s:5085   .debug_str:000000000000055f .LASF63
     /tmp/ccq14iul.s:5059   .debug_str:00000000000003f1 .LASF64
     /tmp/ccq14iul.s:4985   .debug_str:00000000000001dd .LASF65
     /tmp/ccq14iul.s:5039   .debug_str:0000000000000356 .LASF66
     /tmp/ccq14iul.s:4993   .debug_str:0000000000000201 .LASF67
     /tmp/ccq14iul.s:5031   .debug_str:000000000000031c .LASF68
     /tmp/ccq14iul.s:4949   .debug_str:0000000000000111 .LASF69
     /tmp/ccq14iul.s:5043   .debug_str:000000000000036e .LASF70
     /tmp/ccq14iul.s:5015   .debug_str:00000000000002b1 .LASF71
GAS LISTING /tmp/ccq14iul.s 			page 51


     /tmp/ccq14iul.s:5075   .debug_str:0000000000000510 .LASF72
     /tmp/ccq14iul.s:4991   .debug_str:00000000000001fa .LASF73
     /tmp/ccq14iul.s:4959   .debug_str:0000000000000147 .LASF74
     /tmp/ccq14iul.s:4935   .debug_str:00000000000000b3 .LASF75
     /tmp/ccq14iul.s:5021   .debug_str:00000000000002df .LASF76
     /tmp/ccq14iul.s:4973   .debug_str:00000000000001a9 .LASF77
     /tmp/ccq14iul.s:5013   .debug_str:0000000000000294 .LASF78
     /tmp/ccq14iul.s:4945   .debug_str:00000000000000fc .LASF79
     /tmp/ccq14iul.s:942    .text:000000000000068c .LVL135
     /tmp/ccq14iul.s:947    .text:0000000000000690 .LVL136
     /tmp/ccq14iul.s:1176   .text:0000000000000834 .LVL175
     /tmp/ccq14iul.s:1180   .text:000000000000083c .LVL176
     /tmp/ccq14iul.s:979    .text:00000000000006c4 .LVL140
     /tmp/ccq14iul.s:993    .text:00000000000006e0 .LVL141
     /tmp/ccq14iul.s:998    .text:00000000000006e8 .LVL143
     /tmp/ccq14iul.s:1015   .text:00000000000006f8 .LVL146
     /tmp/ccq14iul.s:1041   .text:0000000000000720 .LVL150
     /tmp/ccq14iul.s:1088   .text:0000000000000784 .LVL158
     /tmp/ccq14iul.s:1188   .text:0000000000000844 .LVL177
     /tmp/ccq14iul.s:967    .text:00000000000006b8 .LVL138
     /tmp/ccq14iul.s:969    .text:00000000000006bc .LVL139
     /tmp/ccq14iul.s:996    .text:00000000000006e4 .LVL142
     /tmp/ccq14iul.s:1003   .text:00000000000006ec .LVL144
     /tmp/ccq14iul.s:1039   .text:000000000000071c .LVL149
     /tmp/ccq14iul.s:1171   .text:000000000000082c .LVL174
     /tmp/ccq14iul.s:1034   .text:0000000000000718 .LVL148
     /tmp/ccq14iul.s:1005   .text:00000000000006f0 .LVL145
     /tmp/ccq14iul.s:1134   .text:00000000000007e8 .LVL167
     /tmp/ccq14iul.s:1144   .text:0000000000000804 .LVL170
     /tmp/ccq14iul.s:1150   .text:0000000000000808 .LVL171
     /tmp/ccq14iul.s:1227   .text:00000000000008a0 .LVL185
     /tmp/ccq14iul.s:624    .text:0000000000000428 .LVL77
     /tmp/ccq14iul.s:634    .text:0000000000000434 .LVL78
     /tmp/ccq14iul.s:676    .text:000000000000046c .LVL89
     /tmp/ccq14iul.s:680    .text:0000000000000470 .LVL90
     /tmp/ccq14iul.s:840    .text:00000000000005d4 .LVL121
     /tmp/ccq14iul.s:851    .text:00000000000005e8 .LVL123
     /tmp/ccq14iul.s:638    .text:0000000000000438 .LVL79
     /tmp/ccq14iul.s:673    .text:0000000000000468 .LVL88
     /tmp/ccq14iul.s:843    .text:00000000000005d8 .LVL122
     /tmp/ccq14iul.s:669    .text:0000000000000464 .LVL87
     /tmp/ccq14iul.s:833    .text:00000000000005c8 .LVL120
     /tmp/ccq14iul.s:645    .text:0000000000000448 .LVL81
     /tmp/ccq14iul.s:649    .text:000000000000044c .LVL82
     /tmp/ccq14iul.s:653    .text:0000000000000458 .LVL84
     /tmp/ccq14iul.s:686    .text:0000000000000478 .LVL91
     /tmp/ccq14iul.s:763    .text:0000000000000530 .LVL106
     /tmp/ccq14iul.s:657    .text:000000000000045c .LVL85
     /tmp/ccq14iul.s:663    .text:0000000000000460 .LVL86
     /tmp/ccq14iul.s:806    .text:00000000000005a0 .LVL116
     /tmp/ccq14iul.s:812    .text:00000000000005a4 .LVL117
     /tmp/ccq14iul.s:859    .text:00000000000005f0 .LVL124
     /tmp/ccq14iul.s:502    .text:0000000000000370 .LVL69
     /tmp/ccq14iul.s:521    .text:0000000000000398 .LVL70
     /tmp/ccq14iul.s:538    .text:00000000000003b4 .LVL71
     /tmp/ccq14iul.s:553    .text:00000000000003d4 .LVL74
     /tmp/ccq14iul.s:378    .text:0000000000000288 .LVL49
GAS LISTING /tmp/ccq14iul.s 			page 52


     /tmp/ccq14iul.s:459    .text:000000000000031c .LVL61
     /tmp/ccq14iul.s:390    .text:00000000000002a0 .LVL50
     /tmp/ccq14iul.s:396    .text:00000000000002a4 .LVL51
     /tmp/ccq14iul.s:254    .text:00000000000001a0 .LVL29
     /tmp/ccq14iul.s:335    .text:0000000000000234 .LVL41
     /tmp/ccq14iul.s:266    .text:00000000000001b8 .LVL30
     /tmp/ccq14iul.s:272    .text:00000000000001bc .LVL31
     /tmp/ccq14iul.s:170    .text:0000000000000110 .LVL15
     /tmp/ccq14iul.s:177    .text:0000000000000114 .LVL16
     /tmp/ccq14iul.s:203    .text:0000000000000144 .LVL20
     /tmp/ccq14iul.s:211    .text:000000000000014c .LVL21
     /tmp/ccq14iul.s:1268   .debug_info:0000000000000000 .Ldebug_info0
     /tmp/ccq14iul.s:179    .text:0000000000000114 .LBE4
     /tmp/ccq14iul.s:206    .text:0000000000000144 .LBB7
     /tmp/ccq14iul.s:243    .text:00000000000001a0 .LBE7
     /tmp/ccq14iul.s:274    .text:00000000000001bc .LBE12
     /tmp/ccq14iul.s:330    .text:000000000000022c .LBB17
     /tmp/ccq14iul.s:367    .text:0000000000000288 .LBE17
     /tmp/ccq14iul.s:398    .text:00000000000002a4 .LBE22
     /tmp/ccq14iul.s:454    .text:0000000000000314 .LBB27
     /tmp/ccq14iul.s:491    .text:0000000000000370 .LBE27
     /tmp/ccq14iul.s:616    .text:000000000000041c .LBB36
     /tmp/ccq14iul.s:619    .text:0000000000000420 .LBE36
     /tmp/ccq14iul.s:626    .text:0000000000000428 .LBB46
     /tmp/ccq14iul.s:798    .text:0000000000000584 .LBE46
     /tmp/ccq14iul.s:630    .text:0000000000000430 .LBB37
     /tmp/ccq14iul.s:666    .text:0000000000000460 .LBE37
     /tmp/ccq14iul.s:670    .text:0000000000000464 .LBB44
     /tmp/ccq14iul.s:677    .text:000000000000046c .LBE44
     /tmp/ccq14iul.s:682    .text:0000000000000470 .LBB45
     /tmp/ccq14iul.s:797    .text:0000000000000584 .LBE45
     /tmp/ccq14iul.s:665    .text:0000000000000460 .LBE38
     /tmp/ccq14iul.s:758    .text:0000000000000528 .LBB43
     /tmp/ccq14iul.s:796    .text:0000000000000584 .LBE43
     /tmp/ccq14iul.s:814    .text:00000000000005a4 .LBE47
     /tmp/ccq14iul.s:854    .text:00000000000005e8 .LBB50
     /tmp/ccq14iul.s:891    .text:0000000000000644 .LBE50
     /tmp/ccq14iul.s:972    .text:00000000000006bc .LBB63
     /tmp/ccq14iul.s:975    .text:00000000000006c0 .LBE63
     /tmp/ccq14iul.s:980    .text:00000000000006c4 .LBB64
     /tmp/ccq14iul.s:1000   .text:00000000000006e8 .LBE64
     /tmp/ccq14iul.s:1011   .text:00000000000006f4 .LBE65
     /tmp/ccq14iul.s:1044   .text:0000000000000720 .LBB73
     /tmp/ccq14iul.s:1081   .text:000000000000077c .LBE73
     /tmp/ccq14iul.s:1012   .text:00000000000006f4 .LBB68
     /tmp/ccq14iul.s:1043   .text:0000000000000720 .LBE68
     /tmp/ccq14iul.s:1082   .text:000000000000077c .LBB74
     /tmp/ccq14iul.s:1122   .text:00000000000007d8 .LBE74
     /tmp/ccq14iul.s:1036   .text:0000000000000718 .LBE69
     /tmp/ccq14iul.s:1083   .text:000000000000077c .LBB72
     /tmp/ccq14iul.s:1121   .text:00000000000007d8 .LBE72
     /tmp/ccq14iul.s:1136   .text:00000000000007e8 .LBE75
     /tmp/ccq14iul.s:1183   .text:000000000000083c .LBB81
     /tmp/ccq14iul.s:1221   .text:0000000000000898 .LBE81
     /tmp/ccq14iul.s:1152   .text:0000000000000808 .LBE78
     /tmp/ccq14iul.s:1222   .text:0000000000000898 .LBB82
     /tmp/ccq14iul.s:1259   .text:00000000000008f4 .LBE82
GAS LISTING /tmp/ccq14iul.s 			page 53



UNDEFINED SYMBOLS
_Z9putStringPKc
_Z10putNewlinev
_Z13thread_createPmPFvPvES0_
_Z15thread_dispatchv
_Z6putU64m
_ZN8MemAlloc3getEv
_ZN8MemAlloc16getUserlandUsageEv
_ZN6Thread22initialUserMemoryUsageE
_Z6putInti
_Z10stopKernelv
_Z11thread_exitv
_Z9test_callm
_Z9mem_allocm
_Z8mem_freePv
