GAS LISTING /tmp/ccJ3M6SS.s 			page 1


   1              		.file	"APP.cpp"
   2              		.option pic
   3              		.option norelax
   4              		.text
   5              	.Ltext0:
   6              		.section	.rodata.str1.8,"aMS",@progbits,1
   7              		.align	3
   8              	.LC0:
   9 0000 3D3D3D20 		.string	"=== Testing \"testSyncCall\""
   9      54657374 
   9      696E6720 
   9      22746573 
   9      7453796E 
  10 001b 00000000 		.align	3
  10      00
  11              	.LC1:
  12 0020 3D3D3D20 		.string	"=== Success in testing \"testSyncCall\""
  12      53756363 
  12      65737320 
  12      696E2074 
  12      65737469 
  13              		.text
  14              		.align	2
  15              		.globl	_Z12testSyncCallv
  17              	_Z12testSyncCallv:
  18              	.LFB11:
  19              		.file 1 "src/APP.cpp"
   1:src/APP.cpp   **** #include "../h/my_console.h"
   2:src/APP.cpp   **** #include "../h/c_api.h"
   3:src/APP.cpp   **** #include "../h/alloc.h"
   4:src/APP.cpp   **** #include "../h/thread.h"
   5:src/APP.cpp   **** 
   6:src/APP.cpp   **** void testSystemCalls();
   7:src/APP.cpp   **** void testMemoryAllocator();
   8:src/APP.cpp   **** void testSyncCall();
   9:src/APP.cpp   **** uint64 fib(uint64);
  10:src/APP.cpp   **** 
  11:src/APP.cpp   **** void myUserMain()
  12:src/APP.cpp   **** {
  13:src/APP.cpp   **** //    __asm__ volatile ("csrw sscratch, x1"); // set spie bit to 1. spie signifies that we dont wan
  14:src/APP.cpp   **** 
  15:src/APP.cpp   ****     putString("=== App started");
  16:src/APP.cpp   ****     putNewline();
  17:src/APP.cpp   ****     assert(MemAlloc::get()->getUserlandUsage() == Thread::initialUserMemoryUsage);
  18:src/APP.cpp   **** 
  19:src/APP.cpp   ****     testSystemCalls();
  20:src/APP.cpp   ****     testMemoryAllocator();
  21:src/APP.cpp   ****     testSyncCall();
  22:src/APP.cpp   **** 
  23:src/APP.cpp   ****     for(uint64 i=0; i<3500000000; i++)
  24:src/APP.cpp   ****     {
  25:src/APP.cpp   **** 
  26:src/APP.cpp   ****     }
  27:src/APP.cpp   **** 
  28:src/APP.cpp   **** //    assert(MemAlloc::get()->getUserlandUsage() == Thread::initialUserMemoryUsage); // TODO: enabl
  29:src/APP.cpp   **** 
  30:src/APP.cpp   **** 
GAS LISTING /tmp/ccJ3M6SS.s 			page 2


  31:src/APP.cpp   ****     putString("=== App ended");
  32:src/APP.cpp   ****     putNewline();
  33:src/APP.cpp   **** }
  34:src/APP.cpp   **** 
  35:src/APP.cpp   **** void testSyncCall()
  36:src/APP.cpp   **** {
  20              		.loc 1 36 1
  21              		.cfi_startproc
  22 0000 130101FD 		addi	sp,sp,-48
  23              		.cfi_def_cfa_offset 48
  24 0004 23341102 		sd	ra,40(sp)
  25 0008 23308102 		sd	s0,32(sp)
  26              		.cfi_offset 1, -8
  27              		.cfi_offset 8, -16
  28 000c 13040103 		addi	s0,sp,48
  29              		.cfi_def_cfa 8, 0
  37:src/APP.cpp   ****     disableExternalInterrupts();
  30              		.loc 1 37 5
  31              		.loc 1 37 30 is_stmt 0
  32 0010 97000000 		call	_Z25disableExternalInterruptsv@plt
  32      E7800000 
  33              	.LVL0:
  38:src/APP.cpp   **** 
  39:src/APP.cpp   **** //    assert(MemAlloc::get()->getUserlandUsage() == Thread::initialUserMemoryUsage);
  40:src/APP.cpp   **** 
  41:src/APP.cpp   ****     putString("=== Testing \"testSyncCall\"");
  34              		.loc 1 41 5 is_stmt 1
  35              		.loc 1 41 14 is_stmt 0
  36 0018 17050000 		lla	a0,.LC0
  36      13050500 
  37 0020 97000000 		call	_Z9putStringPKc@plt
  37      E7800000 
  38              	.LVL1:
  42:src/APP.cpp   ****     putNewline();
  39              		.loc 1 42 5 is_stmt 1
  40              		.loc 1 42 15 is_stmt 0
  41 0028 97000000 		call	_Z10putNewlinev@plt
  41      E7800000 
  42              	.LVL2:
  43:src/APP.cpp   **** 
  44:src/APP.cpp   ****     void doA(void*);
  43              		.loc 1 44 5 is_stmt 1
  45:src/APP.cpp   ****     void doB(void*);
  44              		.loc 1 45 5
  46:src/APP.cpp   **** 
  47:src/APP.cpp   ****     int argA = 69;
  45              		.loc 1 47 5
  46              		.loc 1 47 9 is_stmt 0
  47 0030 93075004 		li	a5,69
  48 0034 2326F4FE 		sw	a5,-20(s0)
  48:src/APP.cpp   ****     int argB = 420;
  49              		.loc 1 48 5 is_stmt 1
  50              		.loc 1 48 9 is_stmt 0
  51 0038 9307401A 		li	a5,420
  52 003c 2324F4FE 		sw	a5,-24(s0)
  49:src/APP.cpp   ****     thread_t a;
  53              		.loc 1 49 5 is_stmt 1
GAS LISTING /tmp/ccJ3M6SS.s 			page 3


  50:src/APP.cpp   ****     thread_t b;
  54              		.loc 1 50 5
  51:src/APP.cpp   ****     thread_create(&a, doA, &argA);
  55              		.loc 1 51 5
  56              		.loc 1 51 18 is_stmt 0
  57 0040 1306C4FE 		addi	a2,s0,-20
  58 0044 97050000 		la	a1,_Z3doAPv
  58      83B50500 
  59 004c 130504FE 		addi	a0,s0,-32
  60 0050 97000000 		call	_Z13thread_createPmPFvPvES0_@plt
  60      E7800000 
  61              	.LVL3:
  52:src/APP.cpp   ****     thread_create(&b, doB, &argB);
  62              		.loc 1 52 5 is_stmt 1
  63              		.loc 1 52 18 is_stmt 0
  64 0058 130684FE 		addi	a2,s0,-24
  65 005c 97050000 		la	a1,_Z3doBPv
  65      83B50500 
  66 0064 130584FD 		addi	a0,s0,-40
  67 0068 97000000 		call	_Z13thread_createPmPFvPvES0_@plt
  67      E7800000 
  68              	.LVL4:
  53:src/APP.cpp   ****     thread_dispatch();
  69              		.loc 1 53 5 is_stmt 1
  70              		.loc 1 53 20 is_stmt 0
  71 0070 97000000 		call	_Z15thread_dispatchv@plt
  71      E7800000 
  72              	.LVL5:
  54:src/APP.cpp   **** 
  55:src/APP.cpp   **** //    putString("thread_t a = ");
  56:src/APP.cpp   **** //    putU64(a);
  57:src/APP.cpp   **** //    putNewline();
  58:src/APP.cpp   **** //    putString("thread_t b = ");
  59:src/APP.cpp   **** //    putU64(b);
  60:src/APP.cpp   **** //    putNewline();
  61:src/APP.cpp   **** 
  62:src/APP.cpp   ****     thread_join(b);
  73              		.loc 1 62 5 is_stmt 1
  74              		.loc 1 62 16 is_stmt 0
  75 0078 033584FD 		ld	a0,-40(s0)
  76 007c 97000000 		call	_Z11thread_joinm@plt
  76      E7800000 
  77              	.LVL6:
  63:src/APP.cpp   ****     thread_join(a);
  78              		.loc 1 63 5 is_stmt 1
  79              		.loc 1 63 16 is_stmt 0
  80 0084 033504FE 		ld	a0,-32(s0)
  81 0088 97000000 		call	_Z11thread_joinm@plt
  81      E7800000 
  82              	.LVL7:
  64:src/APP.cpp   **** //    assert(Thread::pAllThreads[a]->id == Thread::pAllThreads[b]->id-1);
  65:src/APP.cpp   **** //    assert(MemAlloc::get()->getUserlandUsage() == Thread::initialUserMemoryUsage);
  66:src/APP.cpp   **** 
  67:src/APP.cpp   ****     enableExternalInterrupts();
  83              		.loc 1 67 5 is_stmt 1
  84              		.loc 1 67 29 is_stmt 0
  85 0090 97000000 		call	_Z24enableExternalInterruptsv@plt
GAS LISTING /tmp/ccJ3M6SS.s 			page 4


  85      E7800000 
  86              	.LVL8:
  68:src/APP.cpp   **** 
  69:src/APP.cpp   ****     putString("=== Success in testing \"testSyncCall\"");
  87              		.loc 1 69 5 is_stmt 1
  88              		.loc 1 69 14 is_stmt 0
  89 0098 17050000 		lla	a0,.LC1
  89      13050500 
  90 00a0 97000000 		call	_Z9putStringPKc@plt
  90      E7800000 
  91              	.LVL9:
  70:src/APP.cpp   ****     putNewline();
  92              		.loc 1 70 5 is_stmt 1
  93              		.loc 1 70 15 is_stmt 0
  94 00a8 97000000 		call	_Z10putNewlinev@plt
  94      E7800000 
  95              	.LVL10:
  71:src/APP.cpp   **** }
  96              		.loc 1 71 1
  97 00b0 83308102 		ld	ra,40(sp)
  98              		.cfi_restore 1
  99 00b4 03340102 		ld	s0,32(sp)
 100              		.cfi_restore 8
 101              		.cfi_def_cfa 2, 48
 102 00b8 13010103 		addi	sp,sp,48
 103              		.cfi_def_cfa_offset 0
 104 00bc 67800000 		jr	ra
 105              		.cfi_endproc
 106              	.LFE11:
 108              		.align	2
 109              		.globl	_Z3fibm
 111              	_Z3fibm:
 112              	.LFB14:
  72:src/APP.cpp   **** 
  73:src/APP.cpp   **** 
  74:src/APP.cpp   **** void doA(void* p)
  75:src/APP.cpp   **** {
  76:src/APP.cpp   ****     assert(*((int*)p) == 69);
  77:src/APP.cpp   **** 
  78:src/APP.cpp   ****     for(int i=0; i<=5; i++)
  79:src/APP.cpp   ****     {
  80:src/APP.cpp   **** //        putString("A i=");
  81:src/APP.cpp   **** //        putU64(i);
  82:src/APP.cpp   **** //        putNewline();
  83:src/APP.cpp   **** 
  84:src/APP.cpp   ****         assert(fib(i) == test_call(i));
  85:src/APP.cpp   ****         thread_dispatch();
  86:src/APP.cpp   ****     }
  87:src/APP.cpp   **** 
  88:src/APP.cpp   ****     __asm__ volatile("mv x10, x10");
  89:src/APP.cpp   ****     thread_exit();
  90:src/APP.cpp   ****     assert(false);
  91:src/APP.cpp   **** }
  92:src/APP.cpp   **** 
  93:src/APP.cpp   **** void doB(void* p)
  94:src/APP.cpp   **** {
  95:src/APP.cpp   ****     assert(*((int*)p) == 420);
GAS LISTING /tmp/ccJ3M6SS.s 			page 5


  96:src/APP.cpp   **** 
  97:src/APP.cpp   ****     for(int i=0; i<=10; i++)
  98:src/APP.cpp   ****     {
  99:src/APP.cpp   **** //        putString("B i=");
 100:src/APP.cpp   **** //        putU64(i);
 101:src/APP.cpp   **** //        putNewline();
 102:src/APP.cpp   **** 
 103:src/APP.cpp   ****         assert(fib(i) == test_call(i));
 104:src/APP.cpp   ****         thread_dispatch();
 105:src/APP.cpp   ****     }
 106:src/APP.cpp   **** 
 107:src/APP.cpp   ****     thread_exit();
 108:src/APP.cpp   ****     assert(false);
 109:src/APP.cpp   **** }
 110:src/APP.cpp   **** 
 111:src/APP.cpp   **** 
 112:src/APP.cpp   **** uint64 fib(uint64 n)
 113:src/APP.cpp   **** {
 113              		.loc 1 113 1 is_stmt 1
 114              		.cfi_startproc
 115              	.LVL11:
 116 00c0 130101FE 		addi	sp,sp,-32
 117              		.cfi_def_cfa_offset 32
 118 00c4 233C1100 		sd	ra,24(sp)
 119 00c8 23388100 		sd	s0,16(sp)
 120 00cc 23349100 		sd	s1,8(sp)
 121 00d0 23302101 		sd	s2,0(sp)
 122              		.cfi_offset 1, -8
 123              		.cfi_offset 8, -16
 124              		.cfi_offset 9, -24
 125              		.cfi_offset 18, -32
 126 00d4 13040102 		addi	s0,sp,32
 127              		.cfi_def_cfa 8, 0
 128 00d8 93040500 		mv	s1,a0
 114:src/APP.cpp   ****     if(n == 1)
 129              		.loc 1 114 5
 130 00dc 93071000 		li	a5,1
 131 00e0 6304F500 		beq	a0,a5,.L4
 115:src/APP.cpp   ****         return 1;
 116:src/APP.cpp   ****     else if (n == 0)
 132              		.loc 1 116 10
 133 00e4 63100502 		bnez	a0,.L6
 134              	.LVL12:
 135              	.L4:
 117:src/APP.cpp   ****         return 0;
 118:src/APP.cpp   ****     else return fib(n-1) + fib(n-2);
 119:src/APP.cpp   **** }
 136              		.loc 1 119 1 is_stmt 0
 137 00e8 13850400 		mv	a0,s1
 138 00ec 83308101 		ld	ra,24(sp)
 139              		.cfi_remember_state
 140              		.cfi_restore 1
 141 00f0 03340101 		ld	s0,16(sp)
 142              		.cfi_restore 8
 143              		.cfi_def_cfa 2, 32
 144 00f4 83348100 		ld	s1,8(sp)
 145              		.cfi_restore 9
GAS LISTING /tmp/ccJ3M6SS.s 			page 6


 146 00f8 03390100 		ld	s2,0(sp)
 147              		.cfi_restore 18
 148 00fc 13010102 		addi	sp,sp,32
 149              		.cfi_def_cfa_offset 0
 150 0100 67800000 		jr	ra
 151              	.LVL13:
 152              	.L6:
 153              		.cfi_restore_state
 118:src/APP.cpp   **** }
 154              		.loc 1 118 10 is_stmt 1
 118:src/APP.cpp   **** }
 155              		.loc 1 118 20 is_stmt 0
 156 0104 1305F5FF 		addi	a0,a0,-1
 157 0108 97000000 		call	_Z3fibm
 157      E7800000 
 158              	.LVL14:
 159 0110 13090500 		mv	s2,a0
 118:src/APP.cpp   **** }
 160              		.loc 1 118 31
 161 0114 1385E4FF 		addi	a0,s1,-2
 162 0118 97000000 		call	_Z3fibm
 162      E7800000 
 163              	.LVL15:
 118:src/APP.cpp   **** }
 164              		.loc 1 118 35
 165 0120 B304A900 		add	s1,s2,a0
 166              	.LVL16:
 167 0124 6FF05FFC 		j	.L4
 168              		.cfi_endproc
 169              	.LFE14:
 171              		.section	.rodata.str1.8
 172 0046 0000     		.align	3
 173              	.LC2:
 174 0048 3D3D3D3D 		.string	"===================== ASSERT file: "
 174      3D3D3D3D 
 174      3D3D3D3D 
 174      3D3D3D3D 
 174      3D3D3D3D 
 175 006c 00000000 		.align	3
 176              	.LC3:
 177 0070 7372632F 		.string	"src/APP.cpp"
 177      4150502E 
 177      63707000 
 178 007c 00000000 		.align	3
 179              	.LC4:
 180 0080 20202020 		.string	"    line: "
 180      6C696E65 
 180      3A2000
 181 008b 00000000 		.align	3
 181      00
 182              	.LC5:
 183 0090 2020203D 		.string	"   ==========================="
 183      3D3D3D3D 
 183      3D3D3D3D 
 183      3D3D3D3D 
 183      3D3D3D3D 
 184              		.text
GAS LISTING /tmp/ccJ3M6SS.s 			page 7


 185              		.align	2
 186              		.globl	_Z3doAPv
 188              	_Z3doAPv:
 189              	.LFB12:
  75:src/APP.cpp   ****     assert(*((int*)p) == 69);
 190              		.loc 1 75 1 is_stmt 1
 191              		.cfi_startproc
 192              	.LVL17:
 193 0128 130101FE 		addi	sp,sp,-32
 194              		.cfi_def_cfa_offset 32
 195 012c 233C1100 		sd	ra,24(sp)
 196 0130 23388100 		sd	s0,16(sp)
 197 0134 23349100 		sd	s1,8(sp)
 198 0138 23302101 		sd	s2,0(sp)
 199              		.cfi_offset 1, -8
 200              		.cfi_offset 8, -16
 201              		.cfi_offset 9, -24
 202              		.cfi_offset 18, -32
 203 013c 13040102 		addi	s0,sp,32
 204              		.cfi_def_cfa 8, 0
  76:src/APP.cpp   **** 
 205              		.loc 1 76 5
 206 0140 83270500 		lw	a5,0(a0)
 207 0144 9387B7FB 		addi	a5,a5,-69
 208              	.LVL18:
 209              	.LBB9:
 210              	.LBB10:
 211              		.file 2 "src/../h/my_console.h"
   1:src/../h/my_console.h **** #pragma once
   2:src/../h/my_console.h **** 
   3:src/../h/my_console.h **** #include "../h/risc.h"
   4:src/../h/my_console.h **** 
   5:src/../h/my_console.h **** #include "../lib/hw.h"
   6:src/../h/my_console.h **** 
   7:src/../h/my_console.h **** #define __DEBUG_MODE
   8:src/../h/my_console.h **** 
   9:src/../h/my_console.h **** 
  10:src/../h/my_console.h **** void putString(const char* s);
  11:src/../h/my_console.h **** void putInt(int n);
  12:src/../h/my_console.h **** void putNewline();
  13:src/../h/my_console.h **** void putU64(uint64 n);
  14:src/../h/my_console.h **** void putBinary(uint64 n);
  15:src/../h/my_console.h **** 
  16:src/../h/my_console.h **** [[noreturn]] void stopKernel();
  17:src/../h/my_console.h **** 
  18:src/../h/my_console.h **** inline void _assert(bool valid, const char* file, int line) // MUST be inline
  19:src/../h/my_console.h **** {
  20:src/../h/my_console.h ****     if(valid)
 212              		.loc 2 20 5
 213 0148 63900704 		bnez	a5,.L13
 214              	.LBE10:
 215              	.LBE9:
 216              	.LBB12:
  78:src/APP.cpp   ****     {
 217              		.loc 1 78 13 is_stmt 0
 218 014c 93040000 		li	s1,0
 219              	.LVL19:
GAS LISTING /tmp/ccJ3M6SS.s 			page 8


 220              	.L8:
  78:src/APP.cpp   ****     {
 221              		.loc 1 78 19 is_stmt 1 discriminator 3
 222 0150 93075000 		li	a5,5
 223 0154 63C6970E 		bgt	s1,a5,.L9
  84:src/APP.cpp   ****         thread_dispatch();
 224              		.loc 1 84 9 discriminator 2
 225 0158 13850400 		mv	a0,s1
 226 015c 97000000 		call	_Z3fibm
 226      E7800000 
 227              	.LVL20:
 228 0164 13090500 		mv	s2,a0
 229 0168 13850400 		mv	a0,s1
 230 016c 97000000 		call	_Z9test_callm@plt
 230      E7800000 
 231              	.LVL21:
 232              	.LBB13:
 233              	.LBB14:
 234              		.loc 2 20 5 discriminator 2
 235 0174 6318A906 		bne	s2,a0,.L14
  21:src/../h/my_console.h ****         return;
 236              		.loc 2 21 9 discriminator 2
 237              	.LVL22:
 238              	.LBE14:
 239              	.LBE13:
  85:src/APP.cpp   ****     }
 240              		.loc 1 85 9 discriminator 2
  85:src/APP.cpp   ****     }
 241              		.loc 1 85 24 is_stmt 0 discriminator 2
 242 0178 97000000 		call	_Z15thread_dispatchv@plt
 242      E7800000 
 243              	.LVL23:
  78:src/APP.cpp   ****     {
 244              		.loc 1 78 5 is_stmt 1 discriminator 2
 245 0180 9B841400 		addiw	s1,s1,1
 246              	.LVL24:
 247 0184 6FF0DFFC 		j	.L8
 248              	.LVL25:
 249              	.L13:
 250              	.LBE12:
 251              	.LBB17:
 252              	.LBB11:
  22:src/../h/my_console.h **** 
  23:src/../h/my_console.h ****     putString("===================== ASSERT file: ");
 253              		.loc 2 23 5
 254              		.loc 2 23 14 is_stmt 0
 255 0188 17050000 		lla	a0,.LC2
 255      13050500 
 256              	.LVL26:
 257 0190 97000000 		call	_Z9putStringPKc@plt
 257      E7800000 
 258              	.LVL27:
  24:src/../h/my_console.h ****     putString(file);
 259              		.loc 2 24 5 is_stmt 1
 260              		.loc 2 24 14 is_stmt 0
 261 0198 17050000 		lla	a0,.LC3
 261      13050500 
GAS LISTING /tmp/ccJ3M6SS.s 			page 9


 262 01a0 97000000 		call	_Z9putStringPKc@plt
 262      E7800000 
 263              	.LVL28:
  25:src/../h/my_console.h ****     putString("    line: ");
 264              		.loc 2 25 5 is_stmt 1
 265              		.loc 2 25 14 is_stmt 0
 266 01a8 17050000 		lla	a0,.LC4
 266      13050500 
 267 01b0 97000000 		call	_Z9putStringPKc@plt
 267      E7800000 
 268              	.LVL29:
  26:src/../h/my_console.h ****     putInt(line);
 269              		.loc 2 26 5 is_stmt 1
 270              		.loc 2 26 11 is_stmt 0
 271 01b8 1305C004 		li	a0,76
 272 01bc 97000000 		call	_Z6putInti@plt
 272      E7800000 
 273              	.LVL30:
  27:src/../h/my_console.h ****     putString("   ===========================");
 274              		.loc 2 27 5 is_stmt 1
 275              		.loc 2 27 14 is_stmt 0
 276 01c4 17050000 		lla	a0,.LC5
 276      13050500 
 277 01cc 97000000 		call	_Z9putStringPKc@plt
 277      E7800000 
 278              	.LVL31:
  28:src/../h/my_console.h ****     putNewline();
 279              		.loc 2 28 5 is_stmt 1
 280              		.loc 2 28 15 is_stmt 0
 281 01d4 97000000 		call	_Z10putNewlinev@plt
 281      E7800000 
 282              	.LVL32:
  29:src/../h/my_console.h **** 
  30:src/../h/my_console.h ****     stopKernel();
 283              		.loc 2 30 5 is_stmt 1
 284              		.loc 2 30 15 is_stmt 0
 285 01dc 97000000 		call	_Z10stopKernelv@plt
 285      E7800000 
 286              	.LVL33:
 287              	.L14:
 288              	.LBE11:
 289              	.LBE17:
 290              	.LBB18:
 291              	.LBB16:
 292              	.LBB15:
  23:src/../h/my_console.h ****     putString(file);
 293              		.loc 2 23 5 is_stmt 1
  23:src/../h/my_console.h ****     putString(file);
 294              		.loc 2 23 14 is_stmt 0
 295 01e4 17050000 		lla	a0,.LC2
 295      13050500 
 296              	.LVL34:
 297 01ec 97000000 		call	_Z9putStringPKc@plt
 297      E7800000 
 298              	.LVL35:
  24:src/../h/my_console.h ****     putString("    line: ");
 299              		.loc 2 24 5 is_stmt 1
GAS LISTING /tmp/ccJ3M6SS.s 			page 10


  24:src/../h/my_console.h ****     putString("    line: ");
 300              		.loc 2 24 14 is_stmt 0
 301 01f4 17050000 		lla	a0,.LC3
 301      13050500 
 302 01fc 97000000 		call	_Z9putStringPKc@plt
 302      E7800000 
 303              	.LVL36:
  25:src/../h/my_console.h ****     putInt(line);
 304              		.loc 2 25 5 is_stmt 1
  25:src/../h/my_console.h ****     putInt(line);
 305              		.loc 2 25 14 is_stmt 0
 306 0204 17050000 		lla	a0,.LC4
 306      13050500 
 307 020c 97000000 		call	_Z9putStringPKc@plt
 307      E7800000 
 308              	.LVL37:
  26:src/../h/my_console.h ****     putString("   ===========================");
 309              		.loc 2 26 5 is_stmt 1
  26:src/../h/my_console.h ****     putString("   ===========================");
 310              		.loc 2 26 11 is_stmt 0
 311 0214 13054005 		li	a0,84
 312 0218 97000000 		call	_Z6putInti@plt
 312      E7800000 
 313              	.LVL38:
  27:src/../h/my_console.h ****     putNewline();
 314              		.loc 2 27 5 is_stmt 1
  27:src/../h/my_console.h ****     putNewline();
 315              		.loc 2 27 14 is_stmt 0
 316 0220 17050000 		lla	a0,.LC5
 316      13050500 
 317 0228 97000000 		call	_Z9putStringPKc@plt
 317      E7800000 
 318              	.LVL39:
  28:src/../h/my_console.h **** 
 319              		.loc 2 28 5 is_stmt 1
  28:src/../h/my_console.h **** 
 320              		.loc 2 28 15 is_stmt 0
 321 0230 97000000 		call	_Z10putNewlinev@plt
 321      E7800000 
 322              	.LVL40:
 323              		.loc 2 30 5 is_stmt 1
 324              		.loc 2 30 15 is_stmt 0
 325 0238 97000000 		call	_Z10stopKernelv@plt
 325      E7800000 
 326              	.LVL41:
 327              	.L9:
 328              	.LBE15:
 329              	.LBE16:
 330              	.LBE18:
  88:src/APP.cpp   ****     thread_exit();
 331              		.loc 1 88 5 is_stmt 1
  88:src/APP.cpp   ****     thread_exit();
 332              		.loc 1 88 36 is_stmt 0
 333              	#APP
 334              	# 88 "src/APP.cpp" 1
  89:src/APP.cpp   ****     assert(false);
 335              		mv x10, x10
GAS LISTING /tmp/ccJ3M6SS.s 			page 11


 336              	# 0 "" 2
 337              		.loc 1 89 5 is_stmt 1
  89:src/APP.cpp   ****     assert(false);
 338              		.loc 1 89 16 is_stmt 0
 339              	#NO_APP
 340 0244 97000000 		call	_Z11thread_exitv@plt
 340      E7800000 
 341              	.LVL42:
  90:src/APP.cpp   **** }
 342              		.loc 1 90 5 is_stmt 1
 343              	.LBB19:
 344              	.LBB20:
  20:src/../h/my_console.h ****         return;
 345              		.loc 2 20 5
  23:src/../h/my_console.h ****     putString(file);
 346              		.loc 2 23 5
  23:src/../h/my_console.h ****     putString(file);
 347              		.loc 2 23 14 is_stmt 0
 348 024c 17050000 		lla	a0,.LC2
 348      13050500 
 349 0254 97000000 		call	_Z9putStringPKc@plt
 349      E7800000 
 350              	.LVL43:
  24:src/../h/my_console.h ****     putString("    line: ");
 351              		.loc 2 24 5 is_stmt 1
  24:src/../h/my_console.h ****     putString("    line: ");
 352              		.loc 2 24 14 is_stmt 0
 353 025c 17050000 		lla	a0,.LC3
 353      13050500 
 354 0264 97000000 		call	_Z9putStringPKc@plt
 354      E7800000 
 355              	.LVL44:
  25:src/../h/my_console.h ****     putInt(line);
 356              		.loc 2 25 5 is_stmt 1
  25:src/../h/my_console.h ****     putInt(line);
 357              		.loc 2 25 14 is_stmt 0
 358 026c 17050000 		lla	a0,.LC4
 358      13050500 
 359 0274 97000000 		call	_Z9putStringPKc@plt
 359      E7800000 
 360              	.LVL45:
  26:src/../h/my_console.h ****     putString("   ===========================");
 361              		.loc 2 26 5 is_stmt 1
  26:src/../h/my_console.h ****     putString("   ===========================");
 362              		.loc 2 26 11 is_stmt 0
 363 027c 1305A005 		li	a0,90
 364 0280 97000000 		call	_Z6putInti@plt
 364      E7800000 
 365              	.LVL46:
  27:src/../h/my_console.h ****     putNewline();
 366              		.loc 2 27 5 is_stmt 1
  27:src/../h/my_console.h ****     putNewline();
 367              		.loc 2 27 14 is_stmt 0
 368 0288 17050000 		lla	a0,.LC5
 368      13050500 
 369 0290 97000000 		call	_Z9putStringPKc@plt
 369      E7800000 
GAS LISTING /tmp/ccJ3M6SS.s 			page 12


 370              	.LVL47:
  28:src/../h/my_console.h **** 
 371              		.loc 2 28 5 is_stmt 1
  28:src/../h/my_console.h **** 
 372              		.loc 2 28 15 is_stmt 0
 373 0298 97000000 		call	_Z10putNewlinev@plt
 373      E7800000 
 374              	.LVL48:
 375              		.loc 2 30 5 is_stmt 1
 376              		.loc 2 30 15 is_stmt 0
 377 02a0 97000000 		call	_Z10stopKernelv@plt
 377      E7800000 
 378              	.LVL49:
 379              	.LBE20:
 380              	.LBE19:
 381              		.cfi_endproc
 382              	.LFE12:
 384              		.align	2
 385              		.globl	_Z3doBPv
 387              	_Z3doBPv:
 388              	.LFB13:
  94:src/APP.cpp   ****     assert(*((int*)p) == 420);
 389              		.loc 1 94 1 is_stmt 1
 390              		.cfi_startproc
 391              	.LVL50:
 392 02a8 130101FE 		addi	sp,sp,-32
 393              		.cfi_def_cfa_offset 32
 394 02ac 233C1100 		sd	ra,24(sp)
 395 02b0 23388100 		sd	s0,16(sp)
 396 02b4 23349100 		sd	s1,8(sp)
 397 02b8 23302101 		sd	s2,0(sp)
 398              		.cfi_offset 1, -8
 399              		.cfi_offset 8, -16
 400              		.cfi_offset 9, -24
 401              		.cfi_offset 18, -32
 402 02bc 13040102 		addi	s0,sp,32
 403              		.cfi_def_cfa 8, 0
  95:src/APP.cpp   **** 
 404              		.loc 1 95 5
 405 02c0 83270500 		lw	a5,0(a0)
 406 02c4 9387C7E5 		addi	a5,a5,-420
 407              	.LVL51:
 408              	.LBB28:
 409              	.LBB29:
  20:src/../h/my_console.h ****         return;
 410              		.loc 2 20 5
 411 02c8 63900704 		bnez	a5,.L21
 412              	.LBE29:
 413              	.LBE28:
 414              	.LBB31:
  97:src/APP.cpp   ****     {
 415              		.loc 1 97 13 is_stmt 0
 416 02cc 93040000 		li	s1,0
 417              	.LVL52:
 418              	.L16:
  97:src/APP.cpp   ****     {
 419              		.loc 1 97 19 is_stmt 1 discriminator 3
GAS LISTING /tmp/ccJ3M6SS.s 			page 13


 420 02d0 9307A000 		li	a5,10
 421 02d4 63C6970E 		bgt	s1,a5,.L17
 103:src/APP.cpp   ****         thread_dispatch();
 422              		.loc 1 103 9 discriminator 2
 423 02d8 13850400 		mv	a0,s1
 424 02dc 97000000 		call	_Z3fibm
 424      E7800000 
 425              	.LVL53:
 426 02e4 13090500 		mv	s2,a0
 427 02e8 13850400 		mv	a0,s1
 428 02ec 97000000 		call	_Z9test_callm@plt
 428      E7800000 
 429              	.LVL54:
 430              	.LBB32:
 431              	.LBB33:
  20:src/../h/my_console.h ****         return;
 432              		.loc 2 20 5 discriminator 2
 433 02f4 6318A906 		bne	s2,a0,.L22
  21:src/../h/my_console.h **** 
 434              		.loc 2 21 9 discriminator 2
 435              	.LVL55:
 436              	.LBE33:
 437              	.LBE32:
 104:src/APP.cpp   ****     }
 438              		.loc 1 104 9 discriminator 2
 104:src/APP.cpp   ****     }
 439              		.loc 1 104 24 is_stmt 0 discriminator 2
 440 02f8 97000000 		call	_Z15thread_dispatchv@plt
 440      E7800000 
 441              	.LVL56:
  97:src/APP.cpp   ****     {
 442              		.loc 1 97 5 is_stmt 1 discriminator 2
 443 0300 9B841400 		addiw	s1,s1,1
 444              	.LVL57:
 445 0304 6FF0DFFC 		j	.L16
 446              	.LVL58:
 447              	.L21:
 448              	.LBE31:
 449              	.LBB36:
 450              	.LBB30:
  23:src/../h/my_console.h ****     putString(file);
 451              		.loc 2 23 5
  23:src/../h/my_console.h ****     putString(file);
 452              		.loc 2 23 14 is_stmt 0
 453 0308 17050000 		lla	a0,.LC2
 453      13050500 
 454              	.LVL59:
 455 0310 97000000 		call	_Z9putStringPKc@plt
 455      E7800000 
 456              	.LVL60:
  24:src/../h/my_console.h ****     putString("    line: ");
 457              		.loc 2 24 5 is_stmt 1
  24:src/../h/my_console.h ****     putString("    line: ");
 458              		.loc 2 24 14 is_stmt 0
 459 0318 17050000 		lla	a0,.LC3
 459      13050500 
 460 0320 97000000 		call	_Z9putStringPKc@plt
GAS LISTING /tmp/ccJ3M6SS.s 			page 14


 460      E7800000 
 461              	.LVL61:
  25:src/../h/my_console.h ****     putInt(line);
 462              		.loc 2 25 5 is_stmt 1
  25:src/../h/my_console.h ****     putInt(line);
 463              		.loc 2 25 14 is_stmt 0
 464 0328 17050000 		lla	a0,.LC4
 464      13050500 
 465 0330 97000000 		call	_Z9putStringPKc@plt
 465      E7800000 
 466              	.LVL62:
  26:src/../h/my_console.h ****     putString("   ===========================");
 467              		.loc 2 26 5 is_stmt 1
  26:src/../h/my_console.h ****     putString("   ===========================");
 468              		.loc 2 26 11 is_stmt 0
 469 0338 1305F005 		li	a0,95
 470 033c 97000000 		call	_Z6putInti@plt
 470      E7800000 
 471              	.LVL63:
  27:src/../h/my_console.h ****     putNewline();
 472              		.loc 2 27 5 is_stmt 1
  27:src/../h/my_console.h ****     putNewline();
 473              		.loc 2 27 14 is_stmt 0
 474 0344 17050000 		lla	a0,.LC5
 474      13050500 
 475 034c 97000000 		call	_Z9putStringPKc@plt
 475      E7800000 
 476              	.LVL64:
  28:src/../h/my_console.h **** 
 477              		.loc 2 28 5 is_stmt 1
  28:src/../h/my_console.h **** 
 478              		.loc 2 28 15 is_stmt 0
 479 0354 97000000 		call	_Z10putNewlinev@plt
 479      E7800000 
 480              	.LVL65:
 481              		.loc 2 30 5 is_stmt 1
 482              		.loc 2 30 15 is_stmt 0
 483 035c 97000000 		call	_Z10stopKernelv@plt
 483      E7800000 
 484              	.LVL66:
 485              	.L22:
 486              	.LBE30:
 487              	.LBE36:
 488              	.LBB37:
 489              	.LBB35:
 490              	.LBB34:
  23:src/../h/my_console.h ****     putString(file);
 491              		.loc 2 23 5 is_stmt 1
  23:src/../h/my_console.h ****     putString(file);
 492              		.loc 2 23 14 is_stmt 0
 493 0364 17050000 		lla	a0,.LC2
 493      13050500 
 494              	.LVL67:
 495 036c 97000000 		call	_Z9putStringPKc@plt
 495      E7800000 
 496              	.LVL68:
  24:src/../h/my_console.h ****     putString("    line: ");
GAS LISTING /tmp/ccJ3M6SS.s 			page 15


 497              		.loc 2 24 5 is_stmt 1
  24:src/../h/my_console.h ****     putString("    line: ");
 498              		.loc 2 24 14 is_stmt 0
 499 0374 17050000 		lla	a0,.LC3
 499      13050500 
 500 037c 97000000 		call	_Z9putStringPKc@plt
 500      E7800000 
 501              	.LVL69:
  25:src/../h/my_console.h ****     putInt(line);
 502              		.loc 2 25 5 is_stmt 1
  25:src/../h/my_console.h ****     putInt(line);
 503              		.loc 2 25 14 is_stmt 0
 504 0384 17050000 		lla	a0,.LC4
 504      13050500 
 505 038c 97000000 		call	_Z9putStringPKc@plt
 505      E7800000 
 506              	.LVL70:
  26:src/../h/my_console.h ****     putString("   ===========================");
 507              		.loc 2 26 5 is_stmt 1
  26:src/../h/my_console.h ****     putString("   ===========================");
 508              		.loc 2 26 11 is_stmt 0
 509 0394 13057006 		li	a0,103
 510 0398 97000000 		call	_Z6putInti@plt
 510      E7800000 
 511              	.LVL71:
  27:src/../h/my_console.h ****     putNewline();
 512              		.loc 2 27 5 is_stmt 1
  27:src/../h/my_console.h ****     putNewline();
 513              		.loc 2 27 14 is_stmt 0
 514 03a0 17050000 		lla	a0,.LC5
 514      13050500 
 515 03a8 97000000 		call	_Z9putStringPKc@plt
 515      E7800000 
 516              	.LVL72:
  28:src/../h/my_console.h **** 
 517              		.loc 2 28 5 is_stmt 1
  28:src/../h/my_console.h **** 
 518              		.loc 2 28 15 is_stmt 0
 519 03b0 97000000 		call	_Z10putNewlinev@plt
 519      E7800000 
 520              	.LVL73:
 521              		.loc 2 30 5 is_stmt 1
 522              		.loc 2 30 15 is_stmt 0
 523 03b8 97000000 		call	_Z10stopKernelv@plt
 523      E7800000 
 524              	.LVL74:
 525              	.L17:
 526              	.LBE34:
 527              	.LBE35:
 528              	.LBE37:
 107:src/APP.cpp   ****     assert(false);
 529              		.loc 1 107 5 is_stmt 1
 107:src/APP.cpp   ****     assert(false);
 530              		.loc 1 107 16 is_stmt 0
 531 03c0 97000000 		call	_Z11thread_exitv@plt
 531      E7800000 
 532              	.LVL75:
GAS LISTING /tmp/ccJ3M6SS.s 			page 16


 108:src/APP.cpp   **** }
 533              		.loc 1 108 5 is_stmt 1
 534              	.LBB38:
 535              	.LBB39:
  20:src/../h/my_console.h ****         return;
 536              		.loc 2 20 5
  23:src/../h/my_console.h ****     putString(file);
 537              		.loc 2 23 5
  23:src/../h/my_console.h ****     putString(file);
 538              		.loc 2 23 14 is_stmt 0
 539 03c8 17050000 		lla	a0,.LC2
 539      13050500 
 540 03d0 97000000 		call	_Z9putStringPKc@plt
 540      E7800000 
 541              	.LVL76:
  24:src/../h/my_console.h ****     putString("    line: ");
 542              		.loc 2 24 5 is_stmt 1
  24:src/../h/my_console.h ****     putString("    line: ");
 543              		.loc 2 24 14 is_stmt 0
 544 03d8 17050000 		lla	a0,.LC3
 544      13050500 
 545 03e0 97000000 		call	_Z9putStringPKc@plt
 545      E7800000 
 546              	.LVL77:
  25:src/../h/my_console.h ****     putInt(line);
 547              		.loc 2 25 5 is_stmt 1
  25:src/../h/my_console.h ****     putInt(line);
 548              		.loc 2 25 14 is_stmt 0
 549 03e8 17050000 		lla	a0,.LC4
 549      13050500 
 550 03f0 97000000 		call	_Z9putStringPKc@plt
 550      E7800000 
 551              	.LVL78:
  26:src/../h/my_console.h ****     putString("   ===========================");
 552              		.loc 2 26 5 is_stmt 1
  26:src/../h/my_console.h ****     putString("   ===========================");
 553              		.loc 2 26 11 is_stmt 0
 554 03f8 1305C006 		li	a0,108
 555 03fc 97000000 		call	_Z6putInti@plt
 555      E7800000 
 556              	.LVL79:
  27:src/../h/my_console.h ****     putNewline();
 557              		.loc 2 27 5 is_stmt 1
  27:src/../h/my_console.h ****     putNewline();
 558              		.loc 2 27 14 is_stmt 0
 559 0404 17050000 		lla	a0,.LC5
 559      13050500 
 560 040c 97000000 		call	_Z9putStringPKc@plt
 560      E7800000 
 561              	.LVL80:
  28:src/../h/my_console.h **** 
 562              		.loc 2 28 5 is_stmt 1
  28:src/../h/my_console.h **** 
 563              		.loc 2 28 15 is_stmt 0
 564 0414 97000000 		call	_Z10putNewlinev@plt
 564      E7800000 
 565              	.LVL81:
GAS LISTING /tmp/ccJ3M6SS.s 			page 17


 566              		.loc 2 30 5 is_stmt 1
 567              		.loc 2 30 15 is_stmt 0
 568 041c 97000000 		call	_Z10stopKernelv@plt
 568      E7800000 
 569              	.LVL82:
 570              	.LBE39:
 571              	.LBE38:
 572              		.cfi_endproc
 573              	.LFE13:
 575              		.section	.rodata.str1.8
 576 00af 00       		.align	3
 577              	.LC6:
 578 00b0 3D3D3D20 		.string	"=== Testing \"testSystemCalls\""
 578      54657374 
 578      696E6720 
 578      22746573 
 578      74537973 
 579 00ce 0000     		.align	3
 580              	.LC7:
 581 00d0 74657374 		.string	"test_call() error. i="
 581      5F63616C 
 581      6C282920 
 581      6572726F 
 581      722E2069 
 582 00e6 0000     		.align	3
 583              	.LC8:
 584 00e8 20666962 		.string	" fib(i)="
 584      2869293D 
 584      00
 585 00f1 00000000 		.align	3
 585      000000
 586              	.LC9:
 587 00f8 20746573 		.string	" test_call(i)="
 587      745F6361 
 587      6C6C2869 
 587      293D00
 588 0107 00       		.align	3
 589              	.LC10:
 590 0108 3D3D3D20 		.string	"=== Success in testing system calls"
 590      53756363 
 590      65737320 
 590      696E2074 
 590      65737469 
 591              		.text
 592              		.align	2
 593              		.globl	_Z15testSystemCallsv
 595              	_Z15testSystemCallsv:
 596              	.LFB15:
 120:src/APP.cpp   **** 
 121:src/APP.cpp   **** void testSystemCalls()
 122:src/APP.cpp   **** {
 597              		.loc 1 122 1 is_stmt 1
 598              		.cfi_startproc
 599 0424 130101FB 		addi	sp,sp,-80
 600              		.cfi_def_cfa_offset 80
 601 0428 23341104 		sd	ra,72(sp)
 602 042c 23308104 		sd	s0,64(sp)
GAS LISTING /tmp/ccJ3M6SS.s 			page 18


 603 0430 233C9102 		sd	s1,56(sp)
 604 0434 23382103 		sd	s2,48(sp)
 605 0438 23343103 		sd	s3,40(sp)
 606 043c 23304103 		sd	s4,32(sp)
 607 0440 233C5101 		sd	s5,24(sp)
 608 0444 23386101 		sd	s6,16(sp)
 609 0448 23347101 		sd	s7,8(sp)
 610              		.cfi_offset 1, -8
 611              		.cfi_offset 8, -16
 612              		.cfi_offset 9, -24
 613              		.cfi_offset 18, -32
 614              		.cfi_offset 19, -40
 615              		.cfi_offset 20, -48
 616              		.cfi_offset 21, -56
 617              		.cfi_offset 22, -64
 618              		.cfi_offset 23, -72
 619 044c 13040105 		addi	s0,sp,80
 620              		.cfi_def_cfa 8, 0
 123:src/APP.cpp   ****     putString("=== Testing \"testSystemCalls\"");
 621              		.loc 1 123 5
 622              		.loc 1 123 14 is_stmt 0
 623 0450 17050000 		lla	a0,.LC6
 623      13050500 
 624 0458 97000000 		call	_Z9putStringPKc@plt
 624      E7800000 
 625              	.LVL83:
 124:src/APP.cpp   ****     putNewline();
 626              		.loc 1 124 5 is_stmt 1
 627              		.loc 1 124 15 is_stmt 0
 628 0460 97000000 		call	_Z10putNewlinev@plt
 628      E7800000 
 629              	.LVL84:
 125:src/APP.cpp   **** 
 126:src/APP.cpp   ****     int a = 0;
 630              		.loc 1 126 5 is_stmt 1
 127:src/APP.cpp   ****     int b = 0;
 631              		.loc 1 127 5
 128:src/APP.cpp   **** 
 129:src/APP.cpp   ****     for(int i=1; i<10; i++)
 632              		.loc 1 129 5
 633              	.LBB48:
 634              		.loc 1 129 13 is_stmt 0
 635 0468 93041000 		li	s1,1
 636              	.LBE48:
 127:src/APP.cpp   ****     int b = 0;
 637              		.loc 1 127 9
 638 046c 930A0000 		li	s5,0
 126:src/APP.cpp   ****     int b = 0;
 639              		.loc 1 126 9
 640 0470 130A0000 		li	s4,0
 641              	.LVL85:
 642              	.L27:
 643              	.LBB58:
 644              		.loc 1 129 19 is_stmt 1 discriminator 1
 645 0474 93079000 		li	a5,9
 646 0478 63CC9714 		bgt	s1,a5,.L24
 647              	.LBB49:
GAS LISTING /tmp/ccJ3M6SS.s 			page 19


 130:src/APP.cpp   ****     {
 131:src/APP.cpp   ****         a++;
 648              		.loc 1 131 9
 649              		.loc 1 131 10 is_stmt 0
 650 047c 1B0B1A00 		addiw	s6,s4,1
 651              	.LVL86:
 132:src/APP.cpp   ****         b++;
 652              		.loc 1 132 9 is_stmt 1
 653              		.loc 1 132 10 is_stmt 0
 654 0480 9B8B1A00 		addiw	s7,s5,1
 655              	.LVL87:
 133:src/APP.cpp   **** 
 134:src/APP.cpp   ****         uint64 called = test_call(i);
 656              		.loc 1 134 9 is_stmt 1
 657              		.loc 1 134 34 is_stmt 0
 658 0484 13850400 		mv	a0,s1
 659 0488 97000000 		call	_Z9test_callm@plt
 659      E7800000 
 660              	.LVL88:
 661 0490 13090500 		mv	s2,a0
 662              	.LVL89:
 135:src/APP.cpp   ****         uint64 actual = fib(i);
 663              		.loc 1 135 9 is_stmt 1
 664              		.loc 1 135 28 is_stmt 0
 665 0494 13850400 		mv	a0,s1
 666              	.LVL90:
 667 0498 97000000 		call	_Z3fibm
 667      E7800000 
 668              	.LVL91:
 669 04a0 93090500 		mv	s3,a0
 670              	.LVL92:
 136:src/APP.cpp   **** 
 137:src/APP.cpp   ****         if(called != actual)
 671              		.loc 1 137 9 is_stmt 1
 672 04a4 631CA900 		bne	s2,a0,.L30
 138:src/APP.cpp   ****         {
 139:src/APP.cpp   ****             putString("test_call() error. i=");
 140:src/APP.cpp   ****             putInt(i);
 141:src/APP.cpp   ****             putString(" fib(i)=");
 142:src/APP.cpp   ****             putU64(actual);
 143:src/APP.cpp   ****             putString(" test_call(i)=");
 144:src/APP.cpp   ****             putU64(called);
 145:src/APP.cpp   ****             putNewline();
 146:src/APP.cpp   ****             assert(false);
 147:src/APP.cpp   ****         }
 148:src/APP.cpp   **** 
 149:src/APP.cpp   ****         assert(a == b);
 673              		.loc 1 149 9 discriminator 2
 674              	.LVL93:
 675              	.LBB50:
 676              	.LBB51:
  20:src/../h/my_console.h ****         return;
 677              		.loc 2 20 5 discriminator 2
 678 04a8 63165A0D 		bne	s4,s5,.L31
  21:src/../h/my_console.h **** 
 679              		.loc 2 21 9 discriminator 2
 680              	.LVL94:
GAS LISTING /tmp/ccJ3M6SS.s 			page 20


 681              	.LBE51:
 682              	.LBE50:
 683              	.LBE49:
 129:src/APP.cpp   ****     {
 684              		.loc 1 129 5 discriminator 2
 685 04ac 9B841400 		addiw	s1,s1,1
 686              	.LVL95:
 687              	.LBB56:
 132:src/APP.cpp   **** 
 688              		.loc 1 132 10 is_stmt 0 discriminator 2
 689 04b0 938A0B00 		mv	s5,s7
 690              	.LVL96:
 131:src/APP.cpp   ****         b++;
 691              		.loc 1 131 10 discriminator 2
 692 04b4 130A0B00 		mv	s4,s6
 693              	.LVL97:
 694              	.LBE56:
 129:src/APP.cpp   ****     {
 695              		.loc 1 129 5 discriminator 2
 696 04b8 6FF0DFFB 		j	.L27
 697              	.LVL98:
 698              	.L30:
 699              	.LBB57:
 139:src/APP.cpp   ****             putInt(i);
 700              		.loc 1 139 13 is_stmt 1
 139:src/APP.cpp   ****             putInt(i);
 701              		.loc 1 139 22 is_stmt 0
 702 04bc 17050000 		lla	a0,.LC7
 702      13050500 
 703              	.LVL99:
 704 04c4 97000000 		call	_Z9putStringPKc@plt
 704      E7800000 
 705              	.LVL100:
 140:src/APP.cpp   ****             putString(" fib(i)=");
 706              		.loc 1 140 13 is_stmt 1
 140:src/APP.cpp   ****             putString(" fib(i)=");
 707              		.loc 1 140 19 is_stmt 0
 708 04cc 13850400 		mv	a0,s1
 709 04d0 97000000 		call	_Z6putInti@plt
 709      E7800000 
 710              	.LVL101:
 141:src/APP.cpp   ****             putU64(actual);
 711              		.loc 1 141 13 is_stmt 1
 141:src/APP.cpp   ****             putU64(actual);
 712              		.loc 1 141 22 is_stmt 0
 713 04d8 17050000 		lla	a0,.LC8
 713      13050500 
 714 04e0 97000000 		call	_Z9putStringPKc@plt
 714      E7800000 
 715              	.LVL102:
 142:src/APP.cpp   ****             putString(" test_call(i)=");
 716              		.loc 1 142 13 is_stmt 1
 142:src/APP.cpp   ****             putString(" test_call(i)=");
 717              		.loc 1 142 19 is_stmt 0
 718 04e8 13850900 		mv	a0,s3
 719 04ec 97000000 		call	_Z6putU64m@plt
 719      E7800000 
GAS LISTING /tmp/ccJ3M6SS.s 			page 21


 720              	.LVL103:
 143:src/APP.cpp   ****             putU64(called);
 721              		.loc 1 143 13 is_stmt 1
 143:src/APP.cpp   ****             putU64(called);
 722              		.loc 1 143 22 is_stmt 0
 723 04f4 17050000 		lla	a0,.LC9
 723      13050500 
 724 04fc 97000000 		call	_Z9putStringPKc@plt
 724      E7800000 
 725              	.LVL104:
 144:src/APP.cpp   ****             putNewline();
 726              		.loc 1 144 13 is_stmt 1
 144:src/APP.cpp   ****             putNewline();
 727              		.loc 1 144 19 is_stmt 0
 728 0504 13050900 		mv	a0,s2
 729 0508 97000000 		call	_Z6putU64m@plt
 729      E7800000 
 730              	.LVL105:
 145:src/APP.cpp   ****             assert(false);
 731              		.loc 1 145 13 is_stmt 1
 145:src/APP.cpp   ****             assert(false);
 732              		.loc 1 145 23 is_stmt 0
 733 0510 97000000 		call	_Z10putNewlinev@plt
 733      E7800000 
 734              	.LVL106:
 146:src/APP.cpp   ****         }
 735              		.loc 1 146 13 is_stmt 1
 736              	.LBB53:
 737              	.LBB54:
  20:src/../h/my_console.h ****         return;
 738              		.loc 2 20 5
  23:src/../h/my_console.h ****     putString(file);
 739              		.loc 2 23 5
  23:src/../h/my_console.h ****     putString(file);
 740              		.loc 2 23 14 is_stmt 0
 741 0518 17050000 		lla	a0,.LC2
 741      13050500 
 742 0520 97000000 		call	_Z9putStringPKc@plt
 742      E7800000 
 743              	.LVL107:
  24:src/../h/my_console.h ****     putString("    line: ");
 744              		.loc 2 24 5 is_stmt 1
  24:src/../h/my_console.h ****     putString("    line: ");
 745              		.loc 2 24 14 is_stmt 0
 746 0528 17050000 		lla	a0,.LC3
 746      13050500 
 747 0530 97000000 		call	_Z9putStringPKc@plt
 747      E7800000 
 748              	.LVL108:
  25:src/../h/my_console.h ****     putInt(line);
 749              		.loc 2 25 5 is_stmt 1
  25:src/../h/my_console.h ****     putInt(line);
 750              		.loc 2 25 14 is_stmt 0
 751 0538 17050000 		lla	a0,.LC4
 751      13050500 
 752 0540 97000000 		call	_Z9putStringPKc@plt
 752      E7800000 
GAS LISTING /tmp/ccJ3M6SS.s 			page 22


 753              	.LVL109:
  26:src/../h/my_console.h ****     putString("   ===========================");
 754              		.loc 2 26 5 is_stmt 1
  26:src/../h/my_console.h ****     putString("   ===========================");
 755              		.loc 2 26 11 is_stmt 0
 756 0548 13052009 		li	a0,146
 757 054c 97000000 		call	_Z6putInti@plt
 757      E7800000 
 758              	.LVL110:
  27:src/../h/my_console.h ****     putNewline();
 759              		.loc 2 27 5 is_stmt 1
  27:src/../h/my_console.h ****     putNewline();
 760              		.loc 2 27 14 is_stmt 0
 761 0554 17050000 		lla	a0,.LC5
 761      13050500 
 762 055c 97000000 		call	_Z9putStringPKc@plt
 762      E7800000 
 763              	.LVL111:
  28:src/../h/my_console.h **** 
 764              		.loc 2 28 5 is_stmt 1
  28:src/../h/my_console.h **** 
 765              		.loc 2 28 15 is_stmt 0
 766 0564 97000000 		call	_Z10putNewlinev@plt
 766      E7800000 
 767              	.LVL112:
 768              		.loc 2 30 5 is_stmt 1
 769              		.loc 2 30 15 is_stmt 0
 770 056c 97000000 		call	_Z10stopKernelv@plt
 770      E7800000 
 771              	.LVL113:
 772              	.L31:
 773              	.LBE54:
 774              	.LBE53:
 775              	.LBB55:
 776              	.LBB52:
  23:src/../h/my_console.h ****     putString(file);
 777              		.loc 2 23 5 is_stmt 1
  23:src/../h/my_console.h ****     putString(file);
 778              		.loc 2 23 14 is_stmt 0
 779 0574 17050000 		lla	a0,.LC2
 779      13050500 
 780              	.LVL114:
 781 057c 97000000 		call	_Z9putStringPKc@plt
 781      E7800000 
 782              	.LVL115:
  24:src/../h/my_console.h ****     putString("    line: ");
 783              		.loc 2 24 5 is_stmt 1
  24:src/../h/my_console.h ****     putString("    line: ");
 784              		.loc 2 24 14 is_stmt 0
 785 0584 17050000 		lla	a0,.LC3
 785      13050500 
 786 058c 97000000 		call	_Z9putStringPKc@plt
 786      E7800000 
 787              	.LVL116:
  25:src/../h/my_console.h ****     putInt(line);
 788              		.loc 2 25 5 is_stmt 1
  25:src/../h/my_console.h ****     putInt(line);
GAS LISTING /tmp/ccJ3M6SS.s 			page 23


 789              		.loc 2 25 14 is_stmt 0
 790 0594 17050000 		lla	a0,.LC4
 790      13050500 
 791 059c 97000000 		call	_Z9putStringPKc@plt
 791      E7800000 
 792              	.LVL117:
  26:src/../h/my_console.h ****     putString("   ===========================");
 793              		.loc 2 26 5 is_stmt 1
  26:src/../h/my_console.h ****     putString("   ===========================");
 794              		.loc 2 26 11 is_stmt 0
 795 05a4 13055009 		li	a0,149
 796 05a8 97000000 		call	_Z6putInti@plt
 796      E7800000 
 797              	.LVL118:
  27:src/../h/my_console.h ****     putNewline();
 798              		.loc 2 27 5 is_stmt 1
  27:src/../h/my_console.h ****     putNewline();
 799              		.loc 2 27 14 is_stmt 0
 800 05b0 17050000 		lla	a0,.LC5
 800      13050500 
 801 05b8 97000000 		call	_Z9putStringPKc@plt
 801      E7800000 
 802              	.LVL119:
  28:src/../h/my_console.h **** 
 803              		.loc 2 28 5 is_stmt 1
  28:src/../h/my_console.h **** 
 804              		.loc 2 28 15 is_stmt 0
 805 05c0 97000000 		call	_Z10putNewlinev@plt
 805      E7800000 
 806              	.LVL120:
 807              		.loc 2 30 5 is_stmt 1
 808              		.loc 2 30 15 is_stmt 0
 809 05c8 97000000 		call	_Z10stopKernelv@plt
 809      E7800000 
 810              	.LVL121:
 811              	.L24:
 812              	.LBE52:
 813              	.LBE55:
 814              	.LBE57:
 815              	.LBE58:
 150:src/APP.cpp   ****     }
 151:src/APP.cpp   **** 
 152:src/APP.cpp   ****     assert(MemAlloc::get()->getUserlandUsage() == Thread::initialUserMemoryUsage);
 816              		.loc 1 152 5 is_stmt 1
 817 05d0 97000000 		call	_ZN8MemAlloc3getEv@plt
 817      E7800000 
 818              	.LVL122:
 819 05d8 97000000 		call	_ZN8MemAlloc16getUserlandUsageEv@plt
 819      E7800000 
 820              	.LVL123:
 821 05e0 97070000 		la	a5,_ZN6Thread22initialUserMemoryUsageE
 821      83B70700 
 822 05e8 83B70700 		ld	a5,0(a5)
 823              	.LVL124:
 824              	.LBB59:
 825              	.LBB60:
  20:src/../h/my_console.h ****         return;
GAS LISTING /tmp/ccJ3M6SS.s 			page 24


 826              		.loc 2 20 5
 827 05ec 6394A704 		bne	a5,a0,.L32
  21:src/../h/my_console.h **** 
 828              		.loc 2 21 9
 829              	.LVL125:
 830              	.LBE60:
 831              	.LBE59:
 153:src/APP.cpp   ****     putString("=== Success in testing system calls");
 832              		.loc 1 153 5
 833              		.loc 1 153 14 is_stmt 0
 834 05f0 17050000 		lla	a0,.LC10
 834      13050500 
 835 05f8 97000000 		call	_Z9putStringPKc@plt
 835      E7800000 
 836              	.LVL126:
 154:src/APP.cpp   ****     putNewline();
 837              		.loc 1 154 5 is_stmt 1
 838              		.loc 1 154 15 is_stmt 0
 839 0600 97000000 		call	_Z10putNewlinev@plt
 839      E7800000 
 840              	.LVL127:
 155:src/APP.cpp   **** }
 841              		.loc 1 155 1
 842 0608 83308104 		ld	ra,72(sp)
 843              		.cfi_remember_state
 844              		.cfi_restore 1
 845 060c 03340104 		ld	s0,64(sp)
 846              		.cfi_restore 8
 847              		.cfi_def_cfa 2, 80
 848 0610 83348103 		ld	s1,56(sp)
 849              		.cfi_restore 9
 850              	.LVL128:
 851 0614 03390103 		ld	s2,48(sp)
 852              		.cfi_restore 18
 853 0618 83398102 		ld	s3,40(sp)
 854              		.cfi_restore 19
 855 061c 033A0102 		ld	s4,32(sp)
 856              		.cfi_restore 20
 857              	.LVL129:
 858 0620 833A8101 		ld	s5,24(sp)
 859              		.cfi_restore 21
 860              	.LVL130:
 861 0624 033B0101 		ld	s6,16(sp)
 862              		.cfi_restore 22
 863 0628 833B8100 		ld	s7,8(sp)
 864              		.cfi_restore 23
 865 062c 13010105 		addi	sp,sp,80
 866              		.cfi_def_cfa_offset 0
 867 0630 67800000 		jr	ra
 868              	.LVL131:
 869              	.L32:
 870              		.cfi_restore_state
 871              	.LBB62:
 872              	.LBB61:
  23:src/../h/my_console.h ****     putString(file);
 873              		.loc 2 23 5 is_stmt 1
  23:src/../h/my_console.h ****     putString(file);
GAS LISTING /tmp/ccJ3M6SS.s 			page 25


 874              		.loc 2 23 14 is_stmt 0
 875 0634 17050000 		lla	a0,.LC2
 875      13050500 
 876              	.LVL132:
 877 063c 97000000 		call	_Z9putStringPKc@plt
 877      E7800000 
 878              	.LVL133:
  24:src/../h/my_console.h ****     putString("    line: ");
 879              		.loc 2 24 5 is_stmt 1
  24:src/../h/my_console.h ****     putString("    line: ");
 880              		.loc 2 24 14 is_stmt 0
 881 0644 17050000 		lla	a0,.LC3
 881      13050500 
 882 064c 97000000 		call	_Z9putStringPKc@plt
 882      E7800000 
 883              	.LVL134:
  25:src/../h/my_console.h ****     putInt(line);
 884              		.loc 2 25 5 is_stmt 1
  25:src/../h/my_console.h ****     putInt(line);
 885              		.loc 2 25 14 is_stmt 0
 886 0654 17050000 		lla	a0,.LC4
 886      13050500 
 887 065c 97000000 		call	_Z9putStringPKc@plt
 887      E7800000 
 888              	.LVL135:
  26:src/../h/my_console.h ****     putString("   ===========================");
 889              		.loc 2 26 5 is_stmt 1
  26:src/../h/my_console.h ****     putString("   ===========================");
 890              		.loc 2 26 11 is_stmt 0
 891 0664 13058009 		li	a0,152
 892 0668 97000000 		call	_Z6putInti@plt
 892      E7800000 
 893              	.LVL136:
  27:src/../h/my_console.h ****     putNewline();
 894              		.loc 2 27 5 is_stmt 1
  27:src/../h/my_console.h ****     putNewline();
 895              		.loc 2 27 14 is_stmt 0
 896 0670 17050000 		lla	a0,.LC5
 896      13050500 
 897 0678 97000000 		call	_Z9putStringPKc@plt
 897      E7800000 
 898              	.LVL137:
  28:src/../h/my_console.h **** 
 899              		.loc 2 28 5 is_stmt 1
  28:src/../h/my_console.h **** 
 900              		.loc 2 28 15 is_stmt 0
 901 0680 97000000 		call	_Z10putNewlinev@plt
 901      E7800000 
 902              	.LVL138:
 903              		.loc 2 30 5 is_stmt 1
 904              		.loc 2 30 15 is_stmt 0
 905 0688 97000000 		call	_Z10stopKernelv@plt
 905      E7800000 
 906              	.LVL139:
 907              	.LBE61:
 908              	.LBE62:
 909              		.cfi_endproc
GAS LISTING /tmp/ccJ3M6SS.s 			page 26


 910              	.LFE15:
 912              		.section	.rodata.str1.8
 913 012c 00000000 		.align	3
 914              	.LC11:
 915 0130 3D3D3D20 		.string	"=== Testing \"testMemoryAllocator\""
 915      54657374 
 915      696E6720 
 915      22746573 
 915      744D656D 
 916 0152 00000000 		.align	3
 916      0000
 917              	.LC12:
 918 0158 3D3D3D20 		.string	"=== Success in testing memory allocator"
 918      53756363 
 918      65737320 
 918      696E2074 
 918      65737469 
 919              		.text
 920              		.align	2
 921              		.globl	_Z19testMemoryAllocatorv
 923              	_Z19testMemoryAllocatorv:
 924              	.LFB16:
 156:src/APP.cpp   **** 
 157:src/APP.cpp   **** void testMemoryAllocator()
 158:src/APP.cpp   **** {
 925              		.loc 1 158 1 is_stmt 1
 926              		.cfi_startproc
 927 0690 130101FD 		addi	sp,sp,-48
 928              		.cfi_def_cfa_offset 48
 929 0694 23341102 		sd	ra,40(sp)
 930 0698 23308102 		sd	s0,32(sp)
 931 069c 233C9100 		sd	s1,24(sp)
 932 06a0 23382101 		sd	s2,16(sp)
 933 06a4 23343101 		sd	s3,8(sp)
 934              		.cfi_offset 1, -8
 935              		.cfi_offset 8, -16
 936              		.cfi_offset 9, -24
 937              		.cfi_offset 18, -32
 938              		.cfi_offset 19, -40
 939 06a8 13040103 		addi	s0,sp,48
 940              		.cfi_def_cfa 8, 0
 159:src/APP.cpp   ****     putString("=== Testing \"testMemoryAllocator\"");
 941              		.loc 1 159 5
 942              		.loc 1 159 14 is_stmt 0
 943 06ac 17050000 		lla	a0,.LC11
 943      13050500 
 944 06b4 97000000 		call	_Z9putStringPKc@plt
 944      E7800000 
 945              	.LVL140:
 160:src/APP.cpp   ****     putNewline();
 946              		.loc 1 160 5 is_stmt 1
 947              		.loc 1 160 15 is_stmt 0
 948 06bc 97000000 		call	_Z10putNewlinev@plt
 948      E7800000 
 949              	.LVL141:
 161:src/APP.cpp   ****     int n = 1000;
 950              		.loc 1 161 5 is_stmt 1
GAS LISTING /tmp/ccJ3M6SS.s 			page 27


 162:src/APP.cpp   ****     int **a;
 951              		.loc 1 162 5
 163:src/APP.cpp   ****     a = (int**)mem_alloc(n * sizeof(void*));
 952              		.loc 1 163 5
 953              		.loc 1 163 25 is_stmt 0
 954 06c4 37250000 		li	a0,8192
 955 06c8 130505F4 		addi	a0,a0,-192
 956 06cc 97000000 		call	_Z9mem_allocm@plt
 956      E7800000 
 957              	.LVL142:
 958 06d4 93090500 		mv	s3,a0
 959              	.LVL143:
 164:src/APP.cpp   ****     for(int i=0; i<n; i++)
 960              		.loc 1 164 5 is_stmt 1
 961              	.LBB74:
 962              		.loc 1 164 13 is_stmt 0
 963 06d8 93040000 		li	s1,0
 964              	.LVL144:
 965              	.L35:
 966              		.loc 1 164 19 is_stmt 1 discriminator 3
 967 06dc 9307703E 		li	a5,999
 968 06e0 63C49702 		bgt	s1,a5,.L42
 165:src/APP.cpp   ****     {
 166:src/APP.cpp   ****         a[i] = (int*)mem_alloc(sizeof(int));
 969              		.loc 1 166 9 discriminator 2
 970              		.loc 1 166 12 is_stmt 0 discriminator 2
 971 06e4 13993400 		slli	s2,s1,3
 972 06e8 33892901 		add	s2,s3,s2
 973              		.loc 1 166 31 discriminator 2
 974 06ec 13054000 		li	a0,4
 975 06f0 97000000 		call	_Z9mem_allocm@plt
 975      E7800000 
 976              	.LVL145:
 977              		.loc 1 166 14 discriminator 2
 978 06f8 2330A900 		sd	a0,0(s2)
 167:src/APP.cpp   ****         *a[i] = i;
 979              		.loc 1 167 9 is_stmt 1 discriminator 2
 980              		.loc 1 167 15 is_stmt 0 discriminator 2
 981 06fc 23209500 		sw	s1,0(a0)
 164:src/APP.cpp   ****     for(int i=0; i<n; i++)
 982              		.loc 1 164 5 is_stmt 1 discriminator 2
 983 0700 9B841400 		addiw	s1,s1,1
 984              	.LVL146:
 985 0704 6FF09FFD 		j	.L35
 986              	.LVL147:
 987              	.L42:
 988              	.LBE74:
 989              	.LBB75:
 168:src/APP.cpp   ****     }
 169:src/APP.cpp   **** 
 170:src/APP.cpp   ****     int result = 0;
 171:src/APP.cpp   ****     for(int i=0; i<n; i++)
 990              		.loc 1 171 13 is_stmt 0
 991 0708 93070000 		li	a5,0
 992              	.LBE75:
 170:src/APP.cpp   ****     for(int i=0; i<n; i++)
 993              		.loc 1 170 9
GAS LISTING /tmp/ccJ3M6SS.s 			page 28


 994 070c 93060000 		li	a3,0
 995              	.L34:
 996              	.LVL148:
 997              	.LBB76:
 998              		.loc 1 171 19 is_stmt 1 discriminator 3
 999 0710 1307703E 		li	a4,999
 1000 0714 6340F702 		bgt	a5,a4,.L36
 172:src/APP.cpp   ****     {
 173:src/APP.cpp   ****         result += *a[i];
 1001              		.loc 1 173 9 discriminator 2
 1002              		.loc 1 173 23 is_stmt 0 discriminator 2
 1003 0718 13973700 		slli	a4,a5,3
 1004 071c 3387E900 		add	a4,s3,a4
 1005 0720 03370700 		ld	a4,0(a4)
 1006              		.loc 1 173 19 discriminator 2
 1007 0724 03270700 		lw	a4,0(a4)
 1008              		.loc 1 173 16 discriminator 2
 1009 0728 BB06D700 		addw	a3,a4,a3
 1010              	.LVL149:
 171:src/APP.cpp   ****     {
 1011              		.loc 1 171 5 is_stmt 1 discriminator 2
 1012 072c 9B871700 		addiw	a5,a5,1
 1013              	.LVL150:
 1014 0730 6FF01FFE 		j	.L34
 1015              	.LVL151:
 1016              	.L36:
 1017              	.LBE76:
 174:src/APP.cpp   ****     }
 175:src/APP.cpp   **** 
 176:src/APP.cpp   **** //    uint64 vau = n * sizeof(void*);
 177:src/APP.cpp   **** //    if(n % MEM_BLOCK_SIZE != 0)
 178:src/APP.cpp   **** //        vau +=  MEM_BLOCK_SIZE - ((sizeof(int)* n) % MEM_BLOCK_SIZE);
 179:src/APP.cpp   **** //    vau += MEM_BLOCK_SIZE * n;
 180:src/APP.cpp   **** //    assert(MemAlloc::get()->getUserlandUsage() == vau);
 181:src/APP.cpp   **** 
 182:src/APP.cpp   **** //    putInt(result);
 183:src/APP.cpp   **** //    putNewline();
 184:src/APP.cpp   **** 
 185:src/APP.cpp   ****     assert(result == (n-1) * n / 2);
 1018              		.loc 1 185 5
 1019 0734 B7A70700 		li	a5,499712
 1020              	.LVL152:
 1021 0738 9387C7F2 		addi	a5,a5,-212
 1022              	.LVL153:
 1023              	.LBB77:
 1024              	.LBB78:
  20:src/../h/my_console.h ****         return;
 1025              		.loc 2 20 5
 1026 073c 6398F602 		bne	a3,a5,.L45
 1027              	.LBE78:
 1028              	.LBE77:
 1029              	.LBB80:
 186:src/APP.cpp   **** 
 187:src/APP.cpp   **** //    uint64 oldTaken = MemAlloc::get()->getUserlandUsage();
 188:src/APP.cpp   **** //    uint64 newTaken;
 189:src/APP.cpp   **** 
 190:src/APP.cpp   ****     int t;
GAS LISTING /tmp/ccJ3M6SS.s 			page 29


 191:src/APP.cpp   ****     for(int i=0; i<n; i++)
 1030              		.loc 1 191 13 is_stmt 0
 1031 0740 93040000 		li	s1,0
 1032              	.LVL154:
 1033              	.L37:
 1034              		.loc 1 191 19 is_stmt 1 discriminator 3
 1035 0744 9307703E 		li	a5,999
 1036 0748 63CE970C 		bgt	s1,a5,.L38
 192:src/APP.cpp   ****     {
 193:src/APP.cpp   ****         t = mem_free(a[i]);
 1037              		.loc 1 193 9 discriminator 2
 1038              		.loc 1 193 25 is_stmt 0 discriminator 2
 1039 074c 93973400 		slli	a5,s1,3
 1040 0750 B387F900 		add	a5,s3,a5
 1041              		.loc 1 193 21 discriminator 2
 1042 0754 03B50700 		ld	a0,0(a5)
 1043 0758 97000000 		call	_Z8mem_freePv@plt
 1043      E7800000 
 1044              	.LVL155:
 194:src/APP.cpp   ****         assert(t == 0);
 1045              		.loc 1 194 9 is_stmt 1 discriminator 2
 1046              	.LBB81:
 1047              	.LBB82:
  20:src/../h/my_console.h ****         return;
 1048              		.loc 2 20 5 discriminator 2
 1049 0760 63140506 		bnez	a0,.L46
  21:src/../h/my_console.h **** 
 1050              		.loc 2 21 9 discriminator 2
 1051              	.LVL156:
 1052              	.LBE82:
 1053              	.LBE81:
 191:src/APP.cpp   ****     {
 1054              		.loc 1 191 5 discriminator 2
 1055 0764 9B841400 		addiw	s1,s1,1
 1056              	.LVL157:
 1057 0768 6FF0DFFD 		j	.L37
 1058              	.LVL158:
 1059              	.L45:
 1060              	.LBE80:
 1061              	.LBB85:
 1062              	.LBB79:
  23:src/../h/my_console.h ****     putString(file);
 1063              		.loc 2 23 5
  23:src/../h/my_console.h ****     putString(file);
 1064              		.loc 2 23 14 is_stmt 0
 1065 076c 17050000 		lla	a0,.LC2
 1065      13050500 
 1066 0774 97000000 		call	_Z9putStringPKc@plt
 1066      E7800000 
 1067              	.LVL159:
  24:src/../h/my_console.h ****     putString("    line: ");
 1068              		.loc 2 24 5 is_stmt 1
  24:src/../h/my_console.h ****     putString("    line: ");
 1069              		.loc 2 24 14 is_stmt 0
 1070 077c 17050000 		lla	a0,.LC3
 1070      13050500 
 1071 0784 97000000 		call	_Z9putStringPKc@plt
GAS LISTING /tmp/ccJ3M6SS.s 			page 30


 1071      E7800000 
 1072              	.LVL160:
  25:src/../h/my_console.h ****     putInt(line);
 1073              		.loc 2 25 5 is_stmt 1
  25:src/../h/my_console.h ****     putInt(line);
 1074              		.loc 2 25 14 is_stmt 0
 1075 078c 17050000 		lla	a0,.LC4
 1075      13050500 
 1076 0794 97000000 		call	_Z9putStringPKc@plt
 1076      E7800000 
 1077              	.LVL161:
  26:src/../h/my_console.h ****     putString("   ===========================");
 1078              		.loc 2 26 5 is_stmt 1
  26:src/../h/my_console.h ****     putString("   ===========================");
 1079              		.loc 2 26 11 is_stmt 0
 1080 079c 1305900B 		li	a0,185
 1081 07a0 97000000 		call	_Z6putInti@plt
 1081      E7800000 
 1082              	.LVL162:
  27:src/../h/my_console.h ****     putNewline();
 1083              		.loc 2 27 5 is_stmt 1
  27:src/../h/my_console.h ****     putNewline();
 1084              		.loc 2 27 14 is_stmt 0
 1085 07a8 17050000 		lla	a0,.LC5
 1085      13050500 
 1086 07b0 97000000 		call	_Z9putStringPKc@plt
 1086      E7800000 
 1087              	.LVL163:
  28:src/../h/my_console.h **** 
 1088              		.loc 2 28 5 is_stmt 1
  28:src/../h/my_console.h **** 
 1089              		.loc 2 28 15 is_stmt 0
 1090 07b8 97000000 		call	_Z10putNewlinev@plt
 1090      E7800000 
 1091              	.LVL164:
 1092              		.loc 2 30 5 is_stmt 1
 1093              		.loc 2 30 15 is_stmt 0
 1094 07c0 97000000 		call	_Z10stopKernelv@plt
 1094      E7800000 
 1095              	.LVL165:
 1096              	.L46:
 1097              	.LBE79:
 1098              	.LBE85:
 1099              	.LBB86:
 1100              	.LBB84:
 1101              	.LBB83:
  23:src/../h/my_console.h ****     putString(file);
 1102              		.loc 2 23 5 is_stmt 1
  23:src/../h/my_console.h ****     putString(file);
 1103              		.loc 2 23 14 is_stmt 0
 1104 07c8 17050000 		lla	a0,.LC2
 1104      13050500 
 1105              	.LVL166:
 1106 07d0 97000000 		call	_Z9putStringPKc@plt
 1106      E7800000 
 1107              	.LVL167:
  24:src/../h/my_console.h ****     putString("    line: ");
GAS LISTING /tmp/ccJ3M6SS.s 			page 31


 1108              		.loc 2 24 5 is_stmt 1
  24:src/../h/my_console.h ****     putString("    line: ");
 1109              		.loc 2 24 14 is_stmt 0
 1110 07d8 17050000 		lla	a0,.LC3
 1110      13050500 
 1111 07e0 97000000 		call	_Z9putStringPKc@plt
 1111      E7800000 
 1112              	.LVL168:
  25:src/../h/my_console.h ****     putInt(line);
 1113              		.loc 2 25 5 is_stmt 1
  25:src/../h/my_console.h ****     putInt(line);
 1114              		.loc 2 25 14 is_stmt 0
 1115 07e8 17050000 		lla	a0,.LC4
 1115      13050500 
 1116 07f0 97000000 		call	_Z9putStringPKc@plt
 1116      E7800000 
 1117              	.LVL169:
  26:src/../h/my_console.h ****     putString("   ===========================");
 1118              		.loc 2 26 5 is_stmt 1
  26:src/../h/my_console.h ****     putString("   ===========================");
 1119              		.loc 2 26 11 is_stmt 0
 1120 07f8 1305200C 		li	a0,194
 1121 07fc 97000000 		call	_Z6putInti@plt
 1121      E7800000 
 1122              	.LVL170:
  27:src/../h/my_console.h ****     putNewline();
 1123              		.loc 2 27 5 is_stmt 1
  27:src/../h/my_console.h ****     putNewline();
 1124              		.loc 2 27 14 is_stmt 0
 1125 0804 17050000 		lla	a0,.LC5
 1125      13050500 
 1126 080c 97000000 		call	_Z9putStringPKc@plt
 1126      E7800000 
 1127              	.LVL171:
  28:src/../h/my_console.h **** 
 1128              		.loc 2 28 5 is_stmt 1
  28:src/../h/my_console.h **** 
 1129              		.loc 2 28 15 is_stmt 0
 1130 0814 97000000 		call	_Z10putNewlinev@plt
 1130      E7800000 
 1131              	.LVL172:
 1132              		.loc 2 30 5 is_stmt 1
 1133              		.loc 2 30 15 is_stmt 0
 1134 081c 97000000 		call	_Z10stopKernelv@plt
 1134      E7800000 
 1135              	.LVL173:
 1136              	.L38:
 1137              	.LBE83:
 1138              	.LBE84:
 1139              	.LBE86:
 195:src/APP.cpp   **** 
 196:src/APP.cpp   **** //        newTaken = MemAlloc::get()->getUserlandUsage();
 197:src/APP.cpp   **** //        assert(oldTaken - newTaken == MEM_BLOCK_SIZE);
 198:src/APP.cpp   ****     }
 199:src/APP.cpp   **** 
 200:src/APP.cpp   **** //    assert(MemAlloc::get()->getUserlandUsage() == MEM_BLOCK_SIZE);
 201:src/APP.cpp   **** 
GAS LISTING /tmp/ccJ3M6SS.s 			page 32


 202:src/APP.cpp   ****     t = mem_free(a);
 1140              		.loc 1 202 5 is_stmt 1
 1141              		.loc 1 202 17 is_stmt 0
 1142 0824 13850900 		mv	a0,s3
 1143 0828 97000000 		call	_Z8mem_freePv@plt
 1143      E7800000 
 1144              	.LVL174:
 203:src/APP.cpp   ****     assert(t == 0);
 1145              		.loc 1 203 5 is_stmt 1
 1146              	.LBB87:
 1147              	.LBB88:
  20:src/../h/my_console.h ****         return;
 1148              		.loc 2 20 5
 1149 0830 631C0504 		bnez	a0,.L47
  21:src/../h/my_console.h **** 
 1150              		.loc 2 21 9
 1151              	.LVL175:
 1152              	.LBE88:
 1153              	.LBE87:
 204:src/APP.cpp   **** 
 205:src/APP.cpp   ****     assert(MemAlloc::get()->getUserlandUsage() == Thread::initialUserMemoryUsage);
 1154              		.loc 1 205 5
 1155 0834 97000000 		call	_ZN8MemAlloc3getEv@plt
 1155      E7800000 
 1156              	.LVL176:
 1157 083c 97000000 		call	_ZN8MemAlloc16getUserlandUsageEv@plt
 1157      E7800000 
 1158              	.LVL177:
 1159 0844 97070000 		la	a5,_ZN6Thread22initialUserMemoryUsageE
 1159      83B70700 
 1160 084c 83B70700 		ld	a5,0(a5)
 1161              	.LVL178:
 1162              	.LBB90:
 1163              	.LBB91:
  20:src/../h/my_console.h ****         return;
 1164              		.loc 2 20 5
 1165 0850 639AA708 		bne	a5,a0,.L48
  21:src/../h/my_console.h **** 
 1166              		.loc 2 21 9
 1167              	.LVL179:
 1168              	.LBE91:
 1169              	.LBE90:
 206:src/APP.cpp   ****     putString("=== Success in testing memory allocator");
 1170              		.loc 1 206 5
 1171              		.loc 1 206 14 is_stmt 0
 1172 0854 17050000 		lla	a0,.LC12
 1172      13050500 
 1173 085c 97000000 		call	_Z9putStringPKc@plt
 1173      E7800000 
 1174              	.LVL180:
 207:src/APP.cpp   ****     putNewline();
 1175              		.loc 1 207 5 is_stmt 1
 1176              		.loc 1 207 15 is_stmt 0
 1177 0864 97000000 		call	_Z10putNewlinev@plt
 1177      E7800000 
 1178              	.LVL181:
 208:src/APP.cpp   **** }
GAS LISTING /tmp/ccJ3M6SS.s 			page 33


 1179              		.loc 1 208 1
 1180 086c 83308102 		ld	ra,40(sp)
 1181              		.cfi_remember_state
 1182              		.cfi_restore 1
 1183 0870 03340102 		ld	s0,32(sp)
 1184              		.cfi_restore 8
 1185              		.cfi_def_cfa 2, 48
 1186 0874 83348101 		ld	s1,24(sp)
 1187              		.cfi_restore 9
 1188              	.LVL182:
 1189 0878 03390101 		ld	s2,16(sp)
 1190              		.cfi_restore 18
 1191 087c 83398100 		ld	s3,8(sp)
 1192              		.cfi_restore 19
 1193              	.LVL183:
 1194 0880 13010103 		addi	sp,sp,48
 1195              		.cfi_def_cfa_offset 0
 1196 0884 67800000 		jr	ra
 1197              	.LVL184:
 1198              	.L47:
 1199              		.cfi_restore_state
 1200              	.LBB93:
 1201              	.LBB89:
  23:src/../h/my_console.h ****     putString(file);
 1202              		.loc 2 23 5 is_stmt 1
  23:src/../h/my_console.h ****     putString(file);
 1203              		.loc 2 23 14 is_stmt 0
 1204 0888 17050000 		lla	a0,.LC2
 1204      13050500 
 1205              	.LVL185:
 1206 0890 97000000 		call	_Z9putStringPKc@plt
 1206      E7800000 
 1207              	.LVL186:
  24:src/../h/my_console.h ****     putString("    line: ");
 1208              		.loc 2 24 5 is_stmt 1
  24:src/../h/my_console.h ****     putString("    line: ");
 1209              		.loc 2 24 14 is_stmt 0
 1210 0898 17050000 		lla	a0,.LC3
 1210      13050500 
 1211 08a0 97000000 		call	_Z9putStringPKc@plt
 1211      E7800000 
 1212              	.LVL187:
  25:src/../h/my_console.h ****     putInt(line);
 1213              		.loc 2 25 5 is_stmt 1
  25:src/../h/my_console.h ****     putInt(line);
 1214              		.loc 2 25 14 is_stmt 0
 1215 08a8 17050000 		lla	a0,.LC4
 1215      13050500 
 1216 08b0 97000000 		call	_Z9putStringPKc@plt
 1216      E7800000 
 1217              	.LVL188:
  26:src/../h/my_console.h ****     putString("   ===========================");
 1218              		.loc 2 26 5 is_stmt 1
  26:src/../h/my_console.h ****     putString("   ===========================");
 1219              		.loc 2 26 11 is_stmt 0
 1220 08b8 1305B00C 		li	a0,203
 1221 08bc 97000000 		call	_Z6putInti@plt
GAS LISTING /tmp/ccJ3M6SS.s 			page 34


 1221      E7800000 
 1222              	.LVL189:
  27:src/../h/my_console.h ****     putNewline();
 1223              		.loc 2 27 5 is_stmt 1
  27:src/../h/my_console.h ****     putNewline();
 1224              		.loc 2 27 14 is_stmt 0
 1225 08c4 17050000 		lla	a0,.LC5
 1225      13050500 
 1226 08cc 97000000 		call	_Z9putStringPKc@plt
 1226      E7800000 
 1227              	.LVL190:
  28:src/../h/my_console.h **** 
 1228              		.loc 2 28 5 is_stmt 1
  28:src/../h/my_console.h **** 
 1229              		.loc 2 28 15 is_stmt 0
 1230 08d4 97000000 		call	_Z10putNewlinev@plt
 1230      E7800000 
 1231              	.LVL191:
 1232              		.loc 2 30 5 is_stmt 1
 1233              		.loc 2 30 15 is_stmt 0
 1234 08dc 97000000 		call	_Z10stopKernelv@plt
 1234      E7800000 
 1235              	.LVL192:
 1236              	.L48:
 1237              	.LBE89:
 1238              	.LBE93:
 1239              	.LBB94:
 1240              	.LBB92:
  23:src/../h/my_console.h ****     putString(file);
 1241              		.loc 2 23 5 is_stmt 1
  23:src/../h/my_console.h ****     putString(file);
 1242              		.loc 2 23 14 is_stmt 0
 1243 08e4 17050000 		lla	a0,.LC2
 1243      13050500 
 1244              	.LVL193:
 1245 08ec 97000000 		call	_Z9putStringPKc@plt
 1245      E7800000 
 1246              	.LVL194:
  24:src/../h/my_console.h ****     putString("    line: ");
 1247              		.loc 2 24 5 is_stmt 1
  24:src/../h/my_console.h ****     putString("    line: ");
 1248              		.loc 2 24 14 is_stmt 0
 1249 08f4 17050000 		lla	a0,.LC3
 1249      13050500 
 1250 08fc 97000000 		call	_Z9putStringPKc@plt
 1250      E7800000 
 1251              	.LVL195:
  25:src/../h/my_console.h ****     putInt(line);
 1252              		.loc 2 25 5 is_stmt 1
  25:src/../h/my_console.h ****     putInt(line);
 1253              		.loc 2 25 14 is_stmt 0
 1254 0904 17050000 		lla	a0,.LC4
 1254      13050500 
 1255 090c 97000000 		call	_Z9putStringPKc@plt
 1255      E7800000 
 1256              	.LVL196:
  26:src/../h/my_console.h ****     putString("   ===========================");
GAS LISTING /tmp/ccJ3M6SS.s 			page 35


 1257              		.loc 2 26 5 is_stmt 1
  26:src/../h/my_console.h ****     putString("   ===========================");
 1258              		.loc 2 26 11 is_stmt 0
 1259 0914 1305D00C 		li	a0,205
 1260 0918 97000000 		call	_Z6putInti@plt
 1260      E7800000 
 1261              	.LVL197:
  27:src/../h/my_console.h ****     putNewline();
 1262              		.loc 2 27 5 is_stmt 1
  27:src/../h/my_console.h ****     putNewline();
 1263              		.loc 2 27 14 is_stmt 0
 1264 0920 17050000 		lla	a0,.LC5
 1264      13050500 
 1265 0928 97000000 		call	_Z9putStringPKc@plt
 1265      E7800000 
 1266              	.LVL198:
  28:src/../h/my_console.h **** 
 1267              		.loc 2 28 5 is_stmt 1
  28:src/../h/my_console.h **** 
 1268              		.loc 2 28 15 is_stmt 0
 1269 0930 97000000 		call	_Z10putNewlinev@plt
 1269      E7800000 
 1270              	.LVL199:
 1271              		.loc 2 30 5 is_stmt 1
 1272              		.loc 2 30 15 is_stmt 0
 1273 0938 97000000 		call	_Z10stopKernelv@plt
 1273      E7800000 
 1274              	.LVL200:
 1275              	.LBE92:
 1276              	.LBE94:
 1277              		.cfi_endproc
 1278              	.LFE16:
 1280              		.section	.rodata.str1.8
 1281              		.align	3
 1282              	.LC13:
 1283 0180 3D3D3D20 		.string	"=== App started"
 1283      41707020 
 1283      73746172 
 1283      74656400 
 1284              		.align	3
 1285              	.LC14:
 1286 0190 3D3D3D20 		.string	"=== App ended"
 1286      41707020 
 1286      656E6465 
 1286      6400
 1287              		.text
 1288              		.align	2
 1289              		.globl	_Z10myUserMainv
 1291              	_Z10myUserMainv:
 1292              	.LFB10:
  12:src/APP.cpp   **** //    __asm__ volatile ("csrw sscratch, x1"); // set spie bit to 1. spie signifies that we dont wan
 1293              		.loc 1 12 1 is_stmt 1
 1294              		.cfi_startproc
 1295 0940 130101FF 		addi	sp,sp,-16
 1296              		.cfi_def_cfa_offset 16
 1297 0944 23341100 		sd	ra,8(sp)
 1298 0948 23308100 		sd	s0,0(sp)
GAS LISTING /tmp/ccJ3M6SS.s 			page 36


 1299              		.cfi_offset 1, -8
 1300              		.cfi_offset 8, -16
 1301 094c 13040101 		addi	s0,sp,16
 1302              		.cfi_def_cfa 8, 0
  15:src/APP.cpp   ****     putNewline();
 1303              		.loc 1 15 5
  15:src/APP.cpp   ****     putNewline();
 1304              		.loc 1 15 14 is_stmt 0
 1305 0950 17050000 		lla	a0,.LC13
 1305      13050500 
 1306 0958 97000000 		call	_Z9putStringPKc@plt
 1306      E7800000 
 1307              	.LVL201:
  16:src/APP.cpp   ****     assert(MemAlloc::get()->getUserlandUsage() == Thread::initialUserMemoryUsage);
 1308              		.loc 1 16 5 is_stmt 1
  16:src/APP.cpp   ****     assert(MemAlloc::get()->getUserlandUsage() == Thread::initialUserMemoryUsage);
 1309              		.loc 1 16 15 is_stmt 0
 1310 0960 97000000 		call	_Z10putNewlinev@plt
 1310      E7800000 
 1311              	.LVL202:
  17:src/APP.cpp   **** 
 1312              		.loc 1 17 5 is_stmt 1
 1313 0968 97000000 		call	_ZN8MemAlloc3getEv@plt
 1313      E7800000 
 1314              	.LVL203:
 1315 0970 97000000 		call	_ZN8MemAlloc16getUserlandUsageEv@plt
 1315      E7800000 
 1316              	.LVL204:
 1317 0978 97070000 		la	a5,_ZN6Thread22initialUserMemoryUsageE
 1317      83B70700 
 1318 0980 83B70700 		ld	a5,0(a5)
 1319              	.LVL205:
 1320              	.LBB98:
 1321              	.LBB99:
  20:src/../h/my_console.h ****         return;
 1322              		.loc 2 20 5
 1323 0984 639CA702 		bne	a5,a0,.L54
  21:src/../h/my_console.h **** 
 1324              		.loc 2 21 9
 1325              	.LVL206:
 1326              	.LBE99:
 1327              	.LBE98:
  19:src/APP.cpp   ****     testMemoryAllocator();
 1328              		.loc 1 19 5
  19:src/APP.cpp   ****     testMemoryAllocator();
 1329              		.loc 1 19 20 is_stmt 0
 1330 0988 97000000 		call	_Z15testSystemCallsv
 1330      E7800000 
 1331              	.LVL207:
  20:src/APP.cpp   ****     testSyncCall();
 1332              		.loc 1 20 5 is_stmt 1
  20:src/APP.cpp   ****     testSyncCall();
 1333              		.loc 1 20 24 is_stmt 0
 1334 0990 97000000 		call	_Z19testMemoryAllocatorv
 1334      E7800000 
 1335              	.LVL208:
  21:src/APP.cpp   **** 
GAS LISTING /tmp/ccJ3M6SS.s 			page 37


 1336              		.loc 1 21 5 is_stmt 1
  21:src/APP.cpp   **** 
 1337              		.loc 1 21 17 is_stmt 0
 1338 0998 97000000 		call	_Z12testSyncCallv
 1338      E7800000 
 1339              	.LVL209:
  23:src/APP.cpp   ****     {
 1340              		.loc 1 23 5 is_stmt 1
 1341              	.LBB101:
  23:src/APP.cpp   ****     {
 1342              		.loc 1 23 16 is_stmt 0
 1343 09a0 13070000 		li	a4,0
 1344              	.LVL210:
 1345              	.L52:
  23:src/APP.cpp   ****     {
 1346              		.loc 1 23 22 is_stmt 1 discriminator 3
 1347 09a4 B7772734 		li	a5,874999808
 1348 09a8 93972700 		slli	a5,a5,2
 1349 09ac 9387F72F 		addi	a5,a5,767
 1350 09b0 63E4E706 		bgtu	a4,a5,.L51
  23:src/APP.cpp   ****     {
 1351              		.loc 1 23 5 discriminator 2
 1352 09b4 13071700 		addi	a4,a4,1
 1353              	.LVL211:
 1354 09b8 6FF0DFFE 		j	.L52
 1355              	.LVL212:
 1356              	.L54:
 1357              	.LBE101:
 1358              	.LBB102:
 1359              	.LBB100:
  23:src/../h/my_console.h ****     putString(file);
 1360              		.loc 2 23 5
  23:src/../h/my_console.h ****     putString(file);
 1361              		.loc 2 23 14 is_stmt 0
 1362 09bc 17050000 		lla	a0,.LC2
 1362      13050500 
 1363              	.LVL213:
 1364 09c4 97000000 		call	_Z9putStringPKc@plt
 1364      E7800000 
 1365              	.LVL214:
  24:src/../h/my_console.h ****     putString("    line: ");
 1366              		.loc 2 24 5 is_stmt 1
  24:src/../h/my_console.h ****     putString("    line: ");
 1367              		.loc 2 24 14 is_stmt 0
 1368 09cc 17050000 		lla	a0,.LC3
 1368      13050500 
 1369 09d4 97000000 		call	_Z9putStringPKc@plt
 1369      E7800000 
 1370              	.LVL215:
  25:src/../h/my_console.h ****     putInt(line);
 1371              		.loc 2 25 5 is_stmt 1
  25:src/../h/my_console.h ****     putInt(line);
 1372              		.loc 2 25 14 is_stmt 0
 1373 09dc 17050000 		lla	a0,.LC4
 1373      13050500 
 1374 09e4 97000000 		call	_Z9putStringPKc@plt
 1374      E7800000 
GAS LISTING /tmp/ccJ3M6SS.s 			page 38


 1375              	.LVL216:
  26:src/../h/my_console.h ****     putString("   ===========================");
 1376              		.loc 2 26 5 is_stmt 1
  26:src/../h/my_console.h ****     putString("   ===========================");
 1377              		.loc 2 26 11 is_stmt 0
 1378 09ec 13051001 		li	a0,17
 1379 09f0 97000000 		call	_Z6putInti@plt
 1379      E7800000 
 1380              	.LVL217:
  27:src/../h/my_console.h ****     putNewline();
 1381              		.loc 2 27 5 is_stmt 1
  27:src/../h/my_console.h ****     putNewline();
 1382              		.loc 2 27 14 is_stmt 0
 1383 09f8 17050000 		lla	a0,.LC5
 1383      13050500 
 1384 0a00 97000000 		call	_Z9putStringPKc@plt
 1384      E7800000 
 1385              	.LVL218:
  28:src/../h/my_console.h **** 
 1386              		.loc 2 28 5 is_stmt 1
  28:src/../h/my_console.h **** 
 1387              		.loc 2 28 15 is_stmt 0
 1388 0a08 97000000 		call	_Z10putNewlinev@plt
 1388      E7800000 
 1389              	.LVL219:
 1390              		.loc 2 30 5 is_stmt 1
 1391              		.loc 2 30 15 is_stmt 0
 1392 0a10 97000000 		call	_Z10stopKernelv@plt
 1392      E7800000 
 1393              	.LVL220:
 1394              	.L51:
 1395              	.LBE100:
 1396              	.LBE102:
  31:src/APP.cpp   ****     putNewline();
 1397              		.loc 1 31 5 is_stmt 1
  31:src/APP.cpp   ****     putNewline();
 1398              		.loc 1 31 14 is_stmt 0
 1399 0a18 17050000 		lla	a0,.LC14
 1399      13050500 
 1400 0a20 97000000 		call	_Z9putStringPKc@plt
 1400      E7800000 
 1401              	.LVL221:
  32:src/APP.cpp   **** }
 1402              		.loc 1 32 5 is_stmt 1
  32:src/APP.cpp   **** }
 1403              		.loc 1 32 15 is_stmt 0
 1404 0a28 97000000 		call	_Z10putNewlinev@plt
 1404      E7800000 
 1405              	.LVL222:
  33:src/APP.cpp   **** 
 1406              		.loc 1 33 1
 1407 0a30 83308100 		ld	ra,8(sp)
 1408              		.cfi_restore 1
 1409 0a34 03340100 		ld	s0,0(sp)
 1410              		.cfi_restore 8
 1411              		.cfi_def_cfa 2, 16
 1412 0a38 13010101 		addi	sp,sp,16
GAS LISTING /tmp/ccJ3M6SS.s 			page 39


 1413              		.cfi_def_cfa_offset 0
 1414 0a3c 67800000 		jr	ra
 1415              		.cfi_endproc
 1416              	.LFE10:
 1418              	.Letext0:
 1419              		.file 3 "src/../h/../lib/hw.h"
 1420              		.file 4 "src/../h/c_api.h"
 1421              		.file 5 "src/../h/alloc.h"
 1422              		.file 6 "src/../h/../h/risc.h"
GAS LISTING /tmp/ccJ3M6SS.s 			page 40


DEFINED SYMBOLS
                            *ABS*:0000000000000000 APP.cpp
     /tmp/ccJ3M6SS.s:17     .text:0000000000000000 _Z12testSyncCallv
     /tmp/ccJ3M6SS.s:21     .text:0000000000000000 .L0 
     /tmp/ccJ3M6SS.s:22     .text:0000000000000000 .L0 
     /tmp/ccJ3M6SS.s:23     .text:0000000000000004 .L0 
     /tmp/ccJ3M6SS.s:26     .text:000000000000000c .L0 
     /tmp/ccJ3M6SS.s:27     .text:000000000000000c .L0 
     /tmp/ccJ3M6SS.s:29     .text:0000000000000010 .L0 
     /tmp/ccJ3M6SS.s:31     .text:0000000000000010 .L0 
     /tmp/ccJ3M6SS.s:32     .text:0000000000000010 .L0 
     /tmp/ccJ3M6SS.s:35     .text:0000000000000018 .L0 
     /tmp/ccJ3M6SS.s:36     .text:0000000000000018 .L0 
     /tmp/ccJ3M6SS.s:40     .text:0000000000000028 .L0 
     /tmp/ccJ3M6SS.s:41     .text:0000000000000028 .L0 
     /tmp/ccJ3M6SS.s:44     .text:0000000000000030 .L0 
     /tmp/ccJ3M6SS.s:45     .text:0000000000000030 .L0 
     /tmp/ccJ3M6SS.s:46     .text:0000000000000030 .L0 
     /tmp/ccJ3M6SS.s:47     .text:0000000000000030 .L0 
     /tmp/ccJ3M6SS.s:50     .text:0000000000000038 .L0 
     /tmp/ccJ3M6SS.s:51     .text:0000000000000038 .L0 
     /tmp/ccJ3M6SS.s:54     .text:0000000000000040 .L0 
     /tmp/ccJ3M6SS.s:55     .text:0000000000000040 .L0 
     /tmp/ccJ3M6SS.s:56     .text:0000000000000040 .L0 
     /tmp/ccJ3M6SS.s:57     .text:0000000000000040 .L0 
     /tmp/ccJ3M6SS.s:188    .text:0000000000000128 _Z3doAPv
     /tmp/ccJ3M6SS.s:63     .text:0000000000000058 .L0 
     /tmp/ccJ3M6SS.s:64     .text:0000000000000058 .L0 
     /tmp/ccJ3M6SS.s:387    .text:00000000000002a8 _Z3doBPv
     /tmp/ccJ3M6SS.s:70     .text:0000000000000070 .L0 
     /tmp/ccJ3M6SS.s:71     .text:0000000000000070 .L0 
     /tmp/ccJ3M6SS.s:74     .text:0000000000000078 .L0 
     /tmp/ccJ3M6SS.s:75     .text:0000000000000078 .L0 
     /tmp/ccJ3M6SS.s:79     .text:0000000000000084 .L0 
     /tmp/ccJ3M6SS.s:80     .text:0000000000000084 .L0 
     /tmp/ccJ3M6SS.s:84     .text:0000000000000090 .L0 
     /tmp/ccJ3M6SS.s:85     .text:0000000000000090 .L0 
     /tmp/ccJ3M6SS.s:88     .text:0000000000000098 .L0 
     /tmp/ccJ3M6SS.s:89     .text:0000000000000098 .L0 
     /tmp/ccJ3M6SS.s:93     .text:00000000000000a8 .L0 
     /tmp/ccJ3M6SS.s:94     .text:00000000000000a8 .L0 
     /tmp/ccJ3M6SS.s:97     .text:00000000000000b0 .L0 
     /tmp/ccJ3M6SS.s:98     .text:00000000000000b4 .L0 
     /tmp/ccJ3M6SS.s:100    .text:00000000000000b8 .L0 
     /tmp/ccJ3M6SS.s:101    .text:00000000000000b8 .L0 
     /tmp/ccJ3M6SS.s:103    .text:00000000000000bc .L0 
     /tmp/ccJ3M6SS.s:105    .text:00000000000000c0 .L0 
     /tmp/ccJ3M6SS.s:111    .text:00000000000000c0 _Z3fibm
     /tmp/ccJ3M6SS.s:114    .text:00000000000000c0 .L0 
     /tmp/ccJ3M6SS.s:116    .text:00000000000000c0 .L0 
     /tmp/ccJ3M6SS.s:117    .text:00000000000000c4 .L0 
     /tmp/ccJ3M6SS.s:122    .text:00000000000000d4 .L0 
     /tmp/ccJ3M6SS.s:123    .text:00000000000000d4 .L0 
     /tmp/ccJ3M6SS.s:124    .text:00000000000000d4 .L0 
     /tmp/ccJ3M6SS.s:125    .text:00000000000000d4 .L0 
     /tmp/ccJ3M6SS.s:127    .text:00000000000000d8 .L0 
     /tmp/ccJ3M6SS.s:130    .text:00000000000000dc .L0 
GAS LISTING /tmp/ccJ3M6SS.s 			page 41


     /tmp/ccJ3M6SS.s:133    .text:00000000000000e4 .L0 
     /tmp/ccJ3M6SS.s:137    .text:00000000000000e8 .L0 
     /tmp/ccJ3M6SS.s:139    .text:00000000000000f0 .L0 
     /tmp/ccJ3M6SS.s:140    .text:00000000000000f0 .L0 
     /tmp/ccJ3M6SS.s:142    .text:00000000000000f4 .L0 
     /tmp/ccJ3M6SS.s:143    .text:00000000000000f4 .L0 
     /tmp/ccJ3M6SS.s:145    .text:00000000000000f8 .L0 
     /tmp/ccJ3M6SS.s:147    .text:00000000000000fc .L0 
     /tmp/ccJ3M6SS.s:149    .text:0000000000000100 .L0 
     /tmp/ccJ3M6SS.s:153    .text:0000000000000104 .L0 
     /tmp/ccJ3M6SS.s:155    .text:0000000000000104 .L0 
     /tmp/ccJ3M6SS.s:156    .text:0000000000000104 .L0 
     /tmp/ccJ3M6SS.s:161    .text:0000000000000114 .L0 
     /tmp/ccJ3M6SS.s:165    .text:0000000000000120 .L0 
     /tmp/ccJ3M6SS.s:168    .text:0000000000000128 .L0 
     /tmp/ccJ3M6SS.s:191    .text:0000000000000128 .L0 
     /tmp/ccJ3M6SS.s:193    .text:0000000000000128 .L0 
     /tmp/ccJ3M6SS.s:194    .text:000000000000012c .L0 
     /tmp/ccJ3M6SS.s:199    .text:000000000000013c .L0 
     /tmp/ccJ3M6SS.s:200    .text:000000000000013c .L0 
     /tmp/ccJ3M6SS.s:201    .text:000000000000013c .L0 
     /tmp/ccJ3M6SS.s:202    .text:000000000000013c .L0 
     /tmp/ccJ3M6SS.s:204    .text:0000000000000140 .L0 
     /tmp/ccJ3M6SS.s:206    .text:0000000000000140 .L0 
     /tmp/ccJ3M6SS.s:213    .text:0000000000000148 .L0 
     /tmp/ccJ3M6SS.s:218    .text:000000000000014c .L0 
     /tmp/ccJ3M6SS.s:222    .text:0000000000000150 .L0 
     /tmp/ccJ3M6SS.s:225    .text:0000000000000158 .L0 
     /tmp/ccJ3M6SS.s:235    .text:0000000000000174 .L0 
     /tmp/ccJ3M6SS.s:240    .text:0000000000000178 .L0 
     /tmp/ccJ3M6SS.s:241    .text:0000000000000178 .L0 
     /tmp/ccJ3M6SS.s:242    .text:0000000000000178 .L0 
     /tmp/ccJ3M6SS.s:245    .text:0000000000000180 .L0 
     /tmp/ccJ3M6SS.s:254    .text:0000000000000188 .L0 
     /tmp/ccJ3M6SS.s:255    .text:0000000000000188 .L0 
     /tmp/ccJ3M6SS.s:260    .text:0000000000000198 .L0 
     /tmp/ccJ3M6SS.s:261    .text:0000000000000198 .L0 
     /tmp/ccJ3M6SS.s:265    .text:00000000000001a8 .L0 
     /tmp/ccJ3M6SS.s:266    .text:00000000000001a8 .L0 
     /tmp/ccJ3M6SS.s:270    .text:00000000000001b8 .L0 
     /tmp/ccJ3M6SS.s:271    .text:00000000000001b8 .L0 
     /tmp/ccJ3M6SS.s:275    .text:00000000000001c4 .L0 
     /tmp/ccJ3M6SS.s:276    .text:00000000000001c4 .L0 
     /tmp/ccJ3M6SS.s:280    .text:00000000000001d4 .L0 
     /tmp/ccJ3M6SS.s:281    .text:00000000000001d4 .L0 
     /tmp/ccJ3M6SS.s:284    .text:00000000000001dc .L0 
     /tmp/ccJ3M6SS.s:285    .text:00000000000001dc .L0 
     /tmp/ccJ3M6SS.s:294    .text:00000000000001e4 .L0 
     /tmp/ccJ3M6SS.s:295    .text:00000000000001e4 .L0 
     /tmp/ccJ3M6SS.s:300    .text:00000000000001f4 .L0 
     /tmp/ccJ3M6SS.s:301    .text:00000000000001f4 .L0 
     /tmp/ccJ3M6SS.s:305    .text:0000000000000204 .L0 
     /tmp/ccJ3M6SS.s:306    .text:0000000000000204 .L0 
     /tmp/ccJ3M6SS.s:310    .text:0000000000000214 .L0 
     /tmp/ccJ3M6SS.s:311    .text:0000000000000214 .L0 
     /tmp/ccJ3M6SS.s:315    .text:0000000000000220 .L0 
     /tmp/ccJ3M6SS.s:316    .text:0000000000000220 .L0 
GAS LISTING /tmp/ccJ3M6SS.s 			page 42


     /tmp/ccJ3M6SS.s:320    .text:0000000000000230 .L0 
     /tmp/ccJ3M6SS.s:321    .text:0000000000000230 .L0 
     /tmp/ccJ3M6SS.s:324    .text:0000000000000238 .L0 
     /tmp/ccJ3M6SS.s:325    .text:0000000000000238 .L0 
     /tmp/ccJ3M6SS.s:332    .text:0000000000000240 .L0 
         src/APP.cpp:88     .text:0000000000000240 .L0 
     /tmp/ccJ3M6SS.s:338    .text:0000000000000244 .L0 
     /tmp/ccJ3M6SS.s:340    .text:0000000000000244 .L0 
     /tmp/ccJ3M6SS.s:345    .text:000000000000024c .L0 
     /tmp/ccJ3M6SS.s:346    .text:000000000000024c .L0 
     /tmp/ccJ3M6SS.s:347    .text:000000000000024c .L0 
     /tmp/ccJ3M6SS.s:348    .text:000000000000024c .L0 
     /tmp/ccJ3M6SS.s:352    .text:000000000000025c .L0 
     /tmp/ccJ3M6SS.s:353    .text:000000000000025c .L0 
     /tmp/ccJ3M6SS.s:357    .text:000000000000026c .L0 
     /tmp/ccJ3M6SS.s:358    .text:000000000000026c .L0 
     /tmp/ccJ3M6SS.s:362    .text:000000000000027c .L0 
     /tmp/ccJ3M6SS.s:363    .text:000000000000027c .L0 
     /tmp/ccJ3M6SS.s:367    .text:0000000000000288 .L0 
     /tmp/ccJ3M6SS.s:368    .text:0000000000000288 .L0 
     /tmp/ccJ3M6SS.s:372    .text:0000000000000298 .L0 
     /tmp/ccJ3M6SS.s:373    .text:0000000000000298 .L0 
     /tmp/ccJ3M6SS.s:376    .text:00000000000002a0 .L0 
     /tmp/ccJ3M6SS.s:377    .text:00000000000002a0 .L0 
     /tmp/ccJ3M6SS.s:381    .text:00000000000002a8 .L0 
     /tmp/ccJ3M6SS.s:390    .text:00000000000002a8 .L0 
     /tmp/ccJ3M6SS.s:392    .text:00000000000002a8 .L0 
     /tmp/ccJ3M6SS.s:393    .text:00000000000002ac .L0 
     /tmp/ccJ3M6SS.s:398    .text:00000000000002bc .L0 
     /tmp/ccJ3M6SS.s:399    .text:00000000000002bc .L0 
     /tmp/ccJ3M6SS.s:400    .text:00000000000002bc .L0 
     /tmp/ccJ3M6SS.s:401    .text:00000000000002bc .L0 
     /tmp/ccJ3M6SS.s:403    .text:00000000000002c0 .L0 
     /tmp/ccJ3M6SS.s:405    .text:00000000000002c0 .L0 
     /tmp/ccJ3M6SS.s:411    .text:00000000000002c8 .L0 
     /tmp/ccJ3M6SS.s:416    .text:00000000000002cc .L0 
     /tmp/ccJ3M6SS.s:420    .text:00000000000002d0 .L0 
     /tmp/ccJ3M6SS.s:423    .text:00000000000002d8 .L0 
     /tmp/ccJ3M6SS.s:433    .text:00000000000002f4 .L0 
     /tmp/ccJ3M6SS.s:438    .text:00000000000002f8 .L0 
     /tmp/ccJ3M6SS.s:439    .text:00000000000002f8 .L0 
     /tmp/ccJ3M6SS.s:440    .text:00000000000002f8 .L0 
     /tmp/ccJ3M6SS.s:443    .text:0000000000000300 .L0 
     /tmp/ccJ3M6SS.s:452    .text:0000000000000308 .L0 
     /tmp/ccJ3M6SS.s:453    .text:0000000000000308 .L0 
     /tmp/ccJ3M6SS.s:458    .text:0000000000000318 .L0 
     /tmp/ccJ3M6SS.s:459    .text:0000000000000318 .L0 
     /tmp/ccJ3M6SS.s:463    .text:0000000000000328 .L0 
     /tmp/ccJ3M6SS.s:464    .text:0000000000000328 .L0 
     /tmp/ccJ3M6SS.s:468    .text:0000000000000338 .L0 
     /tmp/ccJ3M6SS.s:469    .text:0000000000000338 .L0 
     /tmp/ccJ3M6SS.s:473    .text:0000000000000344 .L0 
     /tmp/ccJ3M6SS.s:474    .text:0000000000000344 .L0 
     /tmp/ccJ3M6SS.s:478    .text:0000000000000354 .L0 
     /tmp/ccJ3M6SS.s:479    .text:0000000000000354 .L0 
     /tmp/ccJ3M6SS.s:482    .text:000000000000035c .L0 
     /tmp/ccJ3M6SS.s:483    .text:000000000000035c .L0 
GAS LISTING /tmp/ccJ3M6SS.s 			page 43


     /tmp/ccJ3M6SS.s:492    .text:0000000000000364 .L0 
     /tmp/ccJ3M6SS.s:493    .text:0000000000000364 .L0 
     /tmp/ccJ3M6SS.s:498    .text:0000000000000374 .L0 
     /tmp/ccJ3M6SS.s:499    .text:0000000000000374 .L0 
     /tmp/ccJ3M6SS.s:503    .text:0000000000000384 .L0 
     /tmp/ccJ3M6SS.s:504    .text:0000000000000384 .L0 
     /tmp/ccJ3M6SS.s:508    .text:0000000000000394 .L0 
     /tmp/ccJ3M6SS.s:509    .text:0000000000000394 .L0 
     /tmp/ccJ3M6SS.s:513    .text:00000000000003a0 .L0 
     /tmp/ccJ3M6SS.s:514    .text:00000000000003a0 .L0 
     /tmp/ccJ3M6SS.s:518    .text:00000000000003b0 .L0 
     /tmp/ccJ3M6SS.s:519    .text:00000000000003b0 .L0 
     /tmp/ccJ3M6SS.s:522    .text:00000000000003b8 .L0 
     /tmp/ccJ3M6SS.s:523    .text:00000000000003b8 .L0 
     /tmp/ccJ3M6SS.s:530    .text:00000000000003c0 .L0 
     /tmp/ccJ3M6SS.s:531    .text:00000000000003c0 .L0 
     /tmp/ccJ3M6SS.s:536    .text:00000000000003c8 .L0 
     /tmp/ccJ3M6SS.s:537    .text:00000000000003c8 .L0 
     /tmp/ccJ3M6SS.s:538    .text:00000000000003c8 .L0 
     /tmp/ccJ3M6SS.s:539    .text:00000000000003c8 .L0 
     /tmp/ccJ3M6SS.s:543    .text:00000000000003d8 .L0 
     /tmp/ccJ3M6SS.s:544    .text:00000000000003d8 .L0 
     /tmp/ccJ3M6SS.s:548    .text:00000000000003e8 .L0 
     /tmp/ccJ3M6SS.s:549    .text:00000000000003e8 .L0 
     /tmp/ccJ3M6SS.s:553    .text:00000000000003f8 .L0 
     /tmp/ccJ3M6SS.s:554    .text:00000000000003f8 .L0 
     /tmp/ccJ3M6SS.s:558    .text:0000000000000404 .L0 
     /tmp/ccJ3M6SS.s:559    .text:0000000000000404 .L0 
     /tmp/ccJ3M6SS.s:563    .text:0000000000000414 .L0 
     /tmp/ccJ3M6SS.s:564    .text:0000000000000414 .L0 
     /tmp/ccJ3M6SS.s:567    .text:000000000000041c .L0 
     /tmp/ccJ3M6SS.s:568    .text:000000000000041c .L0 
     /tmp/ccJ3M6SS.s:572    .text:0000000000000424 .L0 
     /tmp/ccJ3M6SS.s:595    .text:0000000000000424 _Z15testSystemCallsv
     /tmp/ccJ3M6SS.s:598    .text:0000000000000424 .L0 
     /tmp/ccJ3M6SS.s:599    .text:0000000000000424 .L0 
     /tmp/ccJ3M6SS.s:600    .text:0000000000000428 .L0 
     /tmp/ccJ3M6SS.s:610    .text:000000000000044c .L0 
     /tmp/ccJ3M6SS.s:611    .text:000000000000044c .L0 
     /tmp/ccJ3M6SS.s:612    .text:000000000000044c .L0 
     /tmp/ccJ3M6SS.s:613    .text:000000000000044c .L0 
     /tmp/ccJ3M6SS.s:614    .text:000000000000044c .L0 
     /tmp/ccJ3M6SS.s:615    .text:000000000000044c .L0 
     /tmp/ccJ3M6SS.s:616    .text:000000000000044c .L0 
     /tmp/ccJ3M6SS.s:617    .text:000000000000044c .L0 
     /tmp/ccJ3M6SS.s:618    .text:000000000000044c .L0 
     /tmp/ccJ3M6SS.s:620    .text:0000000000000450 .L0 
     /tmp/ccJ3M6SS.s:622    .text:0000000000000450 .L0 
     /tmp/ccJ3M6SS.s:623    .text:0000000000000450 .L0 
     /tmp/ccJ3M6SS.s:627    .text:0000000000000460 .L0 
     /tmp/ccJ3M6SS.s:628    .text:0000000000000460 .L0 
     /tmp/ccJ3M6SS.s:631    .text:0000000000000468 .L0 
     /tmp/ccJ3M6SS.s:632    .text:0000000000000468 .L0 
     /tmp/ccJ3M6SS.s:634    .text:0000000000000468 .L0 
     /tmp/ccJ3M6SS.s:635    .text:0000000000000468 .L0 
     /tmp/ccJ3M6SS.s:638    .text:000000000000046c .L0 
     /tmp/ccJ3M6SS.s:640    .text:0000000000000470 .L0 
GAS LISTING /tmp/ccJ3M6SS.s 			page 44


     /tmp/ccJ3M6SS.s:645    .text:0000000000000474 .L0 
     /tmp/ccJ3M6SS.s:649    .text:000000000000047c .L0 
     /tmp/ccJ3M6SS.s:650    .text:000000000000047c .L0 
     /tmp/ccJ3M6SS.s:653    .text:0000000000000480 .L0 
     /tmp/ccJ3M6SS.s:654    .text:0000000000000480 .L0 
     /tmp/ccJ3M6SS.s:657    .text:0000000000000484 .L0 
     /tmp/ccJ3M6SS.s:658    .text:0000000000000484 .L0 
     /tmp/ccJ3M6SS.s:664    .text:0000000000000494 .L0 
     /tmp/ccJ3M6SS.s:665    .text:0000000000000494 .L0 
     /tmp/ccJ3M6SS.s:672    .text:00000000000004a4 .L0 
     /tmp/ccJ3M6SS.s:677    .text:00000000000004a8 .L0 
     /tmp/ccJ3M6SS.s:678    .text:00000000000004a8 .L0 
     /tmp/ccJ3M6SS.s:684    .text:00000000000004ac .L0 
     /tmp/ccJ3M6SS.s:685    .text:00000000000004ac .L0 
     /tmp/ccJ3M6SS.s:689    .text:00000000000004b0 .L0 
     /tmp/ccJ3M6SS.s:692    .text:00000000000004b4 .L0 
     /tmp/ccJ3M6SS.s:696    .text:00000000000004b8 .L0 
     /tmp/ccJ3M6SS.s:701    .text:00000000000004bc .L0 
     /tmp/ccJ3M6SS.s:702    .text:00000000000004bc .L0 
     /tmp/ccJ3M6SS.s:707    .text:00000000000004cc .L0 
     /tmp/ccJ3M6SS.s:708    .text:00000000000004cc .L0 
     /tmp/ccJ3M6SS.s:712    .text:00000000000004d8 .L0 
     /tmp/ccJ3M6SS.s:713    .text:00000000000004d8 .L0 
     /tmp/ccJ3M6SS.s:717    .text:00000000000004e8 .L0 
     /tmp/ccJ3M6SS.s:718    .text:00000000000004e8 .L0 
     /tmp/ccJ3M6SS.s:722    .text:00000000000004f4 .L0 
     /tmp/ccJ3M6SS.s:723    .text:00000000000004f4 .L0 
     /tmp/ccJ3M6SS.s:727    .text:0000000000000504 .L0 
     /tmp/ccJ3M6SS.s:728    .text:0000000000000504 .L0 
     /tmp/ccJ3M6SS.s:732    .text:0000000000000510 .L0 
     /tmp/ccJ3M6SS.s:733    .text:0000000000000510 .L0 
     /tmp/ccJ3M6SS.s:738    .text:0000000000000518 .L0 
     /tmp/ccJ3M6SS.s:739    .text:0000000000000518 .L0 
     /tmp/ccJ3M6SS.s:740    .text:0000000000000518 .L0 
     /tmp/ccJ3M6SS.s:741    .text:0000000000000518 .L0 
     /tmp/ccJ3M6SS.s:745    .text:0000000000000528 .L0 
     /tmp/ccJ3M6SS.s:746    .text:0000000000000528 .L0 
     /tmp/ccJ3M6SS.s:750    .text:0000000000000538 .L0 
     /tmp/ccJ3M6SS.s:751    .text:0000000000000538 .L0 
     /tmp/ccJ3M6SS.s:755    .text:0000000000000548 .L0 
     /tmp/ccJ3M6SS.s:756    .text:0000000000000548 .L0 
     /tmp/ccJ3M6SS.s:760    .text:0000000000000554 .L0 
     /tmp/ccJ3M6SS.s:761    .text:0000000000000554 .L0 
     /tmp/ccJ3M6SS.s:765    .text:0000000000000564 .L0 
     /tmp/ccJ3M6SS.s:766    .text:0000000000000564 .L0 
     /tmp/ccJ3M6SS.s:769    .text:000000000000056c .L0 
     /tmp/ccJ3M6SS.s:770    .text:000000000000056c .L0 
     /tmp/ccJ3M6SS.s:778    .text:0000000000000574 .L0 
     /tmp/ccJ3M6SS.s:779    .text:0000000000000574 .L0 
     /tmp/ccJ3M6SS.s:784    .text:0000000000000584 .L0 
     /tmp/ccJ3M6SS.s:785    .text:0000000000000584 .L0 
     /tmp/ccJ3M6SS.s:789    .text:0000000000000594 .L0 
     /tmp/ccJ3M6SS.s:790    .text:0000000000000594 .L0 
     /tmp/ccJ3M6SS.s:794    .text:00000000000005a4 .L0 
     /tmp/ccJ3M6SS.s:795    .text:00000000000005a4 .L0 
     /tmp/ccJ3M6SS.s:799    .text:00000000000005b0 .L0 
     /tmp/ccJ3M6SS.s:800    .text:00000000000005b0 .L0 
GAS LISTING /tmp/ccJ3M6SS.s 			page 45


     /tmp/ccJ3M6SS.s:804    .text:00000000000005c0 .L0 
     /tmp/ccJ3M6SS.s:805    .text:00000000000005c0 .L0 
     /tmp/ccJ3M6SS.s:808    .text:00000000000005c8 .L0 
     /tmp/ccJ3M6SS.s:809    .text:00000000000005c8 .L0 
     /tmp/ccJ3M6SS.s:817    .text:00000000000005d0 .L0 
     /tmp/ccJ3M6SS.s:827    .text:00000000000005ec .L0 
     /tmp/ccJ3M6SS.s:832    .text:00000000000005f0 .L0 
     /tmp/ccJ3M6SS.s:833    .text:00000000000005f0 .L0 
     /tmp/ccJ3M6SS.s:834    .text:00000000000005f0 .L0 
     /tmp/ccJ3M6SS.s:838    .text:0000000000000600 .L0 
     /tmp/ccJ3M6SS.s:839    .text:0000000000000600 .L0 
     /tmp/ccJ3M6SS.s:842    .text:0000000000000608 .L0 
     /tmp/ccJ3M6SS.s:843    .text:000000000000060c .L0 
     /tmp/ccJ3M6SS.s:844    .text:000000000000060c .L0 
     /tmp/ccJ3M6SS.s:846    .text:0000000000000610 .L0 
     /tmp/ccJ3M6SS.s:847    .text:0000000000000610 .L0 
     /tmp/ccJ3M6SS.s:849    .text:0000000000000614 .L0 
     /tmp/ccJ3M6SS.s:852    .text:0000000000000618 .L0 
     /tmp/ccJ3M6SS.s:854    .text:000000000000061c .L0 
     /tmp/ccJ3M6SS.s:856    .text:0000000000000620 .L0 
     /tmp/ccJ3M6SS.s:859    .text:0000000000000624 .L0 
     /tmp/ccJ3M6SS.s:862    .text:0000000000000628 .L0 
     /tmp/ccJ3M6SS.s:864    .text:000000000000062c .L0 
     /tmp/ccJ3M6SS.s:866    .text:0000000000000630 .L0 
     /tmp/ccJ3M6SS.s:870    .text:0000000000000634 .L0 
     /tmp/ccJ3M6SS.s:874    .text:0000000000000634 .L0 
     /tmp/ccJ3M6SS.s:875    .text:0000000000000634 .L0 
     /tmp/ccJ3M6SS.s:880    .text:0000000000000644 .L0 
     /tmp/ccJ3M6SS.s:881    .text:0000000000000644 .L0 
     /tmp/ccJ3M6SS.s:885    .text:0000000000000654 .L0 
     /tmp/ccJ3M6SS.s:886    .text:0000000000000654 .L0 
     /tmp/ccJ3M6SS.s:890    .text:0000000000000664 .L0 
     /tmp/ccJ3M6SS.s:891    .text:0000000000000664 .L0 
     /tmp/ccJ3M6SS.s:895    .text:0000000000000670 .L0 
     /tmp/ccJ3M6SS.s:896    .text:0000000000000670 .L0 
     /tmp/ccJ3M6SS.s:900    .text:0000000000000680 .L0 
     /tmp/ccJ3M6SS.s:901    .text:0000000000000680 .L0 
     /tmp/ccJ3M6SS.s:904    .text:0000000000000688 .L0 
     /tmp/ccJ3M6SS.s:905    .text:0000000000000688 .L0 
     /tmp/ccJ3M6SS.s:909    .text:0000000000000690 .L0 
     /tmp/ccJ3M6SS.s:923    .text:0000000000000690 _Z19testMemoryAllocatorv
     /tmp/ccJ3M6SS.s:926    .text:0000000000000690 .L0 
     /tmp/ccJ3M6SS.s:927    .text:0000000000000690 .L0 
     /tmp/ccJ3M6SS.s:928    .text:0000000000000694 .L0 
     /tmp/ccJ3M6SS.s:934    .text:00000000000006a8 .L0 
     /tmp/ccJ3M6SS.s:935    .text:00000000000006a8 .L0 
     /tmp/ccJ3M6SS.s:936    .text:00000000000006a8 .L0 
     /tmp/ccJ3M6SS.s:937    .text:00000000000006a8 .L0 
     /tmp/ccJ3M6SS.s:938    .text:00000000000006a8 .L0 
     /tmp/ccJ3M6SS.s:940    .text:00000000000006ac .L0 
     /tmp/ccJ3M6SS.s:942    .text:00000000000006ac .L0 
     /tmp/ccJ3M6SS.s:943    .text:00000000000006ac .L0 
     /tmp/ccJ3M6SS.s:947    .text:00000000000006bc .L0 
     /tmp/ccJ3M6SS.s:948    .text:00000000000006bc .L0 
     /tmp/ccJ3M6SS.s:951    .text:00000000000006c4 .L0 
     /tmp/ccJ3M6SS.s:952    .text:00000000000006c4 .L0 
     /tmp/ccJ3M6SS.s:953    .text:00000000000006c4 .L0 
GAS LISTING /tmp/ccJ3M6SS.s 			page 46


     /tmp/ccJ3M6SS.s:954    .text:00000000000006c4 .L0 
     /tmp/ccJ3M6SS.s:962    .text:00000000000006d8 .L0 
     /tmp/ccJ3M6SS.s:963    .text:00000000000006d8 .L0 
     /tmp/ccJ3M6SS.s:967    .text:00000000000006dc .L0 
     /tmp/ccJ3M6SS.s:970    .text:00000000000006e4 .L0 
     /tmp/ccJ3M6SS.s:971    .text:00000000000006e4 .L0 
     /tmp/ccJ3M6SS.s:974    .text:00000000000006ec .L0 
     /tmp/ccJ3M6SS.s:978    .text:00000000000006f8 .L0 
     /tmp/ccJ3M6SS.s:980    .text:00000000000006fc .L0 
     /tmp/ccJ3M6SS.s:981    .text:00000000000006fc .L0 
     /tmp/ccJ3M6SS.s:983    .text:0000000000000700 .L0 
     /tmp/ccJ3M6SS.s:991    .text:0000000000000708 .L0 
     /tmp/ccJ3M6SS.s:994    .text:000000000000070c .L0 
     /tmp/ccJ3M6SS.s:999    .text:0000000000000710 .L0 
     /tmp/ccJ3M6SS.s:1002   .text:0000000000000718 .L0 
     /tmp/ccJ3M6SS.s:1003   .text:0000000000000718 .L0 
     /tmp/ccJ3M6SS.s:1007   .text:0000000000000724 .L0 
     /tmp/ccJ3M6SS.s:1009   .text:0000000000000728 .L0 
     /tmp/ccJ3M6SS.s:1012   .text:000000000000072c .L0 
     /tmp/ccJ3M6SS.s:1019   .text:0000000000000734 .L0 
     /tmp/ccJ3M6SS.s:1026   .text:000000000000073c .L0 
     /tmp/ccJ3M6SS.s:1031   .text:0000000000000740 .L0 
     /tmp/ccJ3M6SS.s:1035   .text:0000000000000744 .L0 
     /tmp/ccJ3M6SS.s:1038   .text:000000000000074c .L0 
     /tmp/ccJ3M6SS.s:1039   .text:000000000000074c .L0 
     /tmp/ccJ3M6SS.s:1042   .text:0000000000000754 .L0 
     /tmp/ccJ3M6SS.s:1048   .text:0000000000000760 .L0 
     /tmp/ccJ3M6SS.s:1049   .text:0000000000000760 .L0 
     /tmp/ccJ3M6SS.s:1054   .text:0000000000000764 .L0 
     /tmp/ccJ3M6SS.s:1055   .text:0000000000000764 .L0 
     /tmp/ccJ3M6SS.s:1064   .text:000000000000076c .L0 
     /tmp/ccJ3M6SS.s:1065   .text:000000000000076c .L0 
     /tmp/ccJ3M6SS.s:1069   .text:000000000000077c .L0 
     /tmp/ccJ3M6SS.s:1070   .text:000000000000077c .L0 
     /tmp/ccJ3M6SS.s:1074   .text:000000000000078c .L0 
     /tmp/ccJ3M6SS.s:1075   .text:000000000000078c .L0 
     /tmp/ccJ3M6SS.s:1079   .text:000000000000079c .L0 
     /tmp/ccJ3M6SS.s:1080   .text:000000000000079c .L0 
     /tmp/ccJ3M6SS.s:1084   .text:00000000000007a8 .L0 
     /tmp/ccJ3M6SS.s:1085   .text:00000000000007a8 .L0 
     /tmp/ccJ3M6SS.s:1089   .text:00000000000007b8 .L0 
     /tmp/ccJ3M6SS.s:1090   .text:00000000000007b8 .L0 
     /tmp/ccJ3M6SS.s:1093   .text:00000000000007c0 .L0 
     /tmp/ccJ3M6SS.s:1094   .text:00000000000007c0 .L0 
     /tmp/ccJ3M6SS.s:1103   .text:00000000000007c8 .L0 
     /tmp/ccJ3M6SS.s:1104   .text:00000000000007c8 .L0 
     /tmp/ccJ3M6SS.s:1109   .text:00000000000007d8 .L0 
     /tmp/ccJ3M6SS.s:1110   .text:00000000000007d8 .L0 
     /tmp/ccJ3M6SS.s:1114   .text:00000000000007e8 .L0 
     /tmp/ccJ3M6SS.s:1115   .text:00000000000007e8 .L0 
     /tmp/ccJ3M6SS.s:1119   .text:00000000000007f8 .L0 
     /tmp/ccJ3M6SS.s:1120   .text:00000000000007f8 .L0 
     /tmp/ccJ3M6SS.s:1124   .text:0000000000000804 .L0 
     /tmp/ccJ3M6SS.s:1125   .text:0000000000000804 .L0 
     /tmp/ccJ3M6SS.s:1129   .text:0000000000000814 .L0 
     /tmp/ccJ3M6SS.s:1130   .text:0000000000000814 .L0 
     /tmp/ccJ3M6SS.s:1133   .text:000000000000081c .L0 
GAS LISTING /tmp/ccJ3M6SS.s 			page 47


     /tmp/ccJ3M6SS.s:1134   .text:000000000000081c .L0 
     /tmp/ccJ3M6SS.s:1141   .text:0000000000000824 .L0 
     /tmp/ccJ3M6SS.s:1142   .text:0000000000000824 .L0 
     /tmp/ccJ3M6SS.s:1148   .text:0000000000000830 .L0 
     /tmp/ccJ3M6SS.s:1149   .text:0000000000000830 .L0 
     /tmp/ccJ3M6SS.s:1154   .text:0000000000000834 .L0 
     /tmp/ccJ3M6SS.s:1155   .text:0000000000000834 .L0 
     /tmp/ccJ3M6SS.s:1165   .text:0000000000000850 .L0 
     /tmp/ccJ3M6SS.s:1170   .text:0000000000000854 .L0 
     /tmp/ccJ3M6SS.s:1171   .text:0000000000000854 .L0 
     /tmp/ccJ3M6SS.s:1172   .text:0000000000000854 .L0 
     /tmp/ccJ3M6SS.s:1176   .text:0000000000000864 .L0 
     /tmp/ccJ3M6SS.s:1177   .text:0000000000000864 .L0 
     /tmp/ccJ3M6SS.s:1180   .text:000000000000086c .L0 
     /tmp/ccJ3M6SS.s:1181   .text:0000000000000870 .L0 
     /tmp/ccJ3M6SS.s:1182   .text:0000000000000870 .L0 
     /tmp/ccJ3M6SS.s:1184   .text:0000000000000874 .L0 
     /tmp/ccJ3M6SS.s:1185   .text:0000000000000874 .L0 
     /tmp/ccJ3M6SS.s:1187   .text:0000000000000878 .L0 
     /tmp/ccJ3M6SS.s:1190   .text:000000000000087c .L0 
     /tmp/ccJ3M6SS.s:1192   .text:0000000000000880 .L0 
     /tmp/ccJ3M6SS.s:1195   .text:0000000000000884 .L0 
     /tmp/ccJ3M6SS.s:1199   .text:0000000000000888 .L0 
     /tmp/ccJ3M6SS.s:1203   .text:0000000000000888 .L0 
     /tmp/ccJ3M6SS.s:1204   .text:0000000000000888 .L0 
     /tmp/ccJ3M6SS.s:1209   .text:0000000000000898 .L0 
     /tmp/ccJ3M6SS.s:1210   .text:0000000000000898 .L0 
     /tmp/ccJ3M6SS.s:1214   .text:00000000000008a8 .L0 
     /tmp/ccJ3M6SS.s:1215   .text:00000000000008a8 .L0 
     /tmp/ccJ3M6SS.s:1219   .text:00000000000008b8 .L0 
     /tmp/ccJ3M6SS.s:1220   .text:00000000000008b8 .L0 
     /tmp/ccJ3M6SS.s:1224   .text:00000000000008c4 .L0 
     /tmp/ccJ3M6SS.s:1225   .text:00000000000008c4 .L0 
     /tmp/ccJ3M6SS.s:1229   .text:00000000000008d4 .L0 
     /tmp/ccJ3M6SS.s:1230   .text:00000000000008d4 .L0 
     /tmp/ccJ3M6SS.s:1233   .text:00000000000008dc .L0 
     /tmp/ccJ3M6SS.s:1234   .text:00000000000008dc .L0 
     /tmp/ccJ3M6SS.s:1242   .text:00000000000008e4 .L0 
     /tmp/ccJ3M6SS.s:1243   .text:00000000000008e4 .L0 
     /tmp/ccJ3M6SS.s:1248   .text:00000000000008f4 .L0 
     /tmp/ccJ3M6SS.s:1249   .text:00000000000008f4 .L0 
     /tmp/ccJ3M6SS.s:1253   .text:0000000000000904 .L0 
     /tmp/ccJ3M6SS.s:1254   .text:0000000000000904 .L0 
     /tmp/ccJ3M6SS.s:1258   .text:0000000000000914 .L0 
     /tmp/ccJ3M6SS.s:1259   .text:0000000000000914 .L0 
     /tmp/ccJ3M6SS.s:1263   .text:0000000000000920 .L0 
     /tmp/ccJ3M6SS.s:1264   .text:0000000000000920 .L0 
     /tmp/ccJ3M6SS.s:1268   .text:0000000000000930 .L0 
     /tmp/ccJ3M6SS.s:1269   .text:0000000000000930 .L0 
     /tmp/ccJ3M6SS.s:1272   .text:0000000000000938 .L0 
     /tmp/ccJ3M6SS.s:1273   .text:0000000000000938 .L0 
     /tmp/ccJ3M6SS.s:1277   .text:0000000000000940 .L0 
     /tmp/ccJ3M6SS.s:1291   .text:0000000000000940 _Z10myUserMainv
     /tmp/ccJ3M6SS.s:1294   .text:0000000000000940 .L0 
     /tmp/ccJ3M6SS.s:1295   .text:0000000000000940 .L0 
     /tmp/ccJ3M6SS.s:1296   .text:0000000000000944 .L0 
     /tmp/ccJ3M6SS.s:1299   .text:000000000000094c .L0 
GAS LISTING /tmp/ccJ3M6SS.s 			page 48


     /tmp/ccJ3M6SS.s:1300   .text:000000000000094c .L0 
     /tmp/ccJ3M6SS.s:1302   .text:0000000000000950 .L0 
     /tmp/ccJ3M6SS.s:1304   .text:0000000000000950 .L0 
     /tmp/ccJ3M6SS.s:1305   .text:0000000000000950 .L0 
     /tmp/ccJ3M6SS.s:1309   .text:0000000000000960 .L0 
     /tmp/ccJ3M6SS.s:1310   .text:0000000000000960 .L0 
     /tmp/ccJ3M6SS.s:1313   .text:0000000000000968 .L0 
     /tmp/ccJ3M6SS.s:1323   .text:0000000000000984 .L0 
     /tmp/ccJ3M6SS.s:1328   .text:0000000000000988 .L0 
     /tmp/ccJ3M6SS.s:1329   .text:0000000000000988 .L0 
     /tmp/ccJ3M6SS.s:1330   .text:0000000000000988 .L0 
     /tmp/ccJ3M6SS.s:1333   .text:0000000000000990 .L0 
     /tmp/ccJ3M6SS.s:1334   .text:0000000000000990 .L0 
     /tmp/ccJ3M6SS.s:1337   .text:0000000000000998 .L0 
     /tmp/ccJ3M6SS.s:1338   .text:0000000000000998 .L0 
     /tmp/ccJ3M6SS.s:1342   .text:00000000000009a0 .L0 
     /tmp/ccJ3M6SS.s:1343   .text:00000000000009a0 .L0 
     /tmp/ccJ3M6SS.s:1347   .text:00000000000009a4 .L0 
     /tmp/ccJ3M6SS.s:1352   .text:00000000000009b4 .L0 
     /tmp/ccJ3M6SS.s:1361   .text:00000000000009bc .L0 
     /tmp/ccJ3M6SS.s:1362   .text:00000000000009bc .L0 
     /tmp/ccJ3M6SS.s:1367   .text:00000000000009cc .L0 
     /tmp/ccJ3M6SS.s:1368   .text:00000000000009cc .L0 
     /tmp/ccJ3M6SS.s:1372   .text:00000000000009dc .L0 
     /tmp/ccJ3M6SS.s:1373   .text:00000000000009dc .L0 
     /tmp/ccJ3M6SS.s:1377   .text:00000000000009ec .L0 
     /tmp/ccJ3M6SS.s:1378   .text:00000000000009ec .L0 
     /tmp/ccJ3M6SS.s:1382   .text:00000000000009f8 .L0 
     /tmp/ccJ3M6SS.s:1383   .text:00000000000009f8 .L0 
     /tmp/ccJ3M6SS.s:1387   .text:0000000000000a08 .L0 
     /tmp/ccJ3M6SS.s:1388   .text:0000000000000a08 .L0 
     /tmp/ccJ3M6SS.s:1391   .text:0000000000000a10 .L0 
     /tmp/ccJ3M6SS.s:1392   .text:0000000000000a10 .L0 
     /tmp/ccJ3M6SS.s:1398   .text:0000000000000a18 .L0 
     /tmp/ccJ3M6SS.s:1399   .text:0000000000000a18 .L0 
     /tmp/ccJ3M6SS.s:1403   .text:0000000000000a28 .L0 
     /tmp/ccJ3M6SS.s:1404   .text:0000000000000a28 .L0 
     /tmp/ccJ3M6SS.s:1407   .text:0000000000000a30 .L0 
     /tmp/ccJ3M6SS.s:1408   .text:0000000000000a34 .L0 
     /tmp/ccJ3M6SS.s:1410   .text:0000000000000a38 .L0 
     /tmp/ccJ3M6SS.s:1411   .text:0000000000000a38 .L0 
     /tmp/ccJ3M6SS.s:1413   .text:0000000000000a3c .L0 
     /tmp/ccJ3M6SS.s:1415   .text:0000000000000a40 .L0 
     /tmp/ccJ3M6SS.s:1423   .text:0000000000000a40 .L0 
     /tmp/ccJ3M6SS.s:8      .rodata.str1.8:0000000000000000 .LC0
     /tmp/ccJ3M6SS.s:36     .text:0000000000000018 .L0 
     /tmp/ccJ3M6SS.s:58     .text:0000000000000044 .L0 
     /tmp/ccJ3M6SS.s:65     .text:000000000000005c .L0 
     /tmp/ccJ3M6SS.s:11     .rodata.str1.8:0000000000000020 .LC1
     /tmp/ccJ3M6SS.s:89     .text:0000000000000098 .L0 
     /tmp/ccJ3M6SS.s:173    .rodata.str1.8:0000000000000048 .LC2
     /tmp/ccJ3M6SS.s:255    .text:0000000000000188 .L0 
     /tmp/ccJ3M6SS.s:176    .rodata.str1.8:0000000000000070 .LC3
     /tmp/ccJ3M6SS.s:261    .text:0000000000000198 .L0 
     /tmp/ccJ3M6SS.s:179    .rodata.str1.8:0000000000000080 .LC4
     /tmp/ccJ3M6SS.s:266    .text:00000000000001a8 .L0 
     /tmp/ccJ3M6SS.s:182    .rodata.str1.8:0000000000000090 .LC5
GAS LISTING /tmp/ccJ3M6SS.s 			page 49


     /tmp/ccJ3M6SS.s:276    .text:00000000000001c4 .L0 
     /tmp/ccJ3M6SS.s:295    .text:00000000000001e4 .L0 
     /tmp/ccJ3M6SS.s:301    .text:00000000000001f4 .L0 
     /tmp/ccJ3M6SS.s:306    .text:0000000000000204 .L0 
     /tmp/ccJ3M6SS.s:316    .text:0000000000000220 .L0 
     /tmp/ccJ3M6SS.s:348    .text:000000000000024c .L0 
     /tmp/ccJ3M6SS.s:353    .text:000000000000025c .L0 
     /tmp/ccJ3M6SS.s:358    .text:000000000000026c .L0 
     /tmp/ccJ3M6SS.s:368    .text:0000000000000288 .L0 
     /tmp/ccJ3M6SS.s:453    .text:0000000000000308 .L0 
     /tmp/ccJ3M6SS.s:459    .text:0000000000000318 .L0 
     /tmp/ccJ3M6SS.s:464    .text:0000000000000328 .L0 
     /tmp/ccJ3M6SS.s:474    .text:0000000000000344 .L0 
     /tmp/ccJ3M6SS.s:493    .text:0000000000000364 .L0 
     /tmp/ccJ3M6SS.s:499    .text:0000000000000374 .L0 
     /tmp/ccJ3M6SS.s:504    .text:0000000000000384 .L0 
     /tmp/ccJ3M6SS.s:514    .text:00000000000003a0 .L0 
     /tmp/ccJ3M6SS.s:539    .text:00000000000003c8 .L0 
     /tmp/ccJ3M6SS.s:544    .text:00000000000003d8 .L0 
     /tmp/ccJ3M6SS.s:549    .text:00000000000003e8 .L0 
     /tmp/ccJ3M6SS.s:559    .text:0000000000000404 .L0 
     /tmp/ccJ3M6SS.s:577    .rodata.str1.8:00000000000000b0 .LC6
     /tmp/ccJ3M6SS.s:623    .text:0000000000000450 .L0 
     /tmp/ccJ3M6SS.s:580    .rodata.str1.8:00000000000000d0 .LC7
     /tmp/ccJ3M6SS.s:702    .text:00000000000004bc .L0 
     /tmp/ccJ3M6SS.s:583    .rodata.str1.8:00000000000000e8 .LC8
     /tmp/ccJ3M6SS.s:713    .text:00000000000004d8 .L0 
     /tmp/ccJ3M6SS.s:586    .rodata.str1.8:00000000000000f8 .LC9
     /tmp/ccJ3M6SS.s:723    .text:00000000000004f4 .L0 
     /tmp/ccJ3M6SS.s:741    .text:0000000000000518 .L0 
     /tmp/ccJ3M6SS.s:746    .text:0000000000000528 .L0 
     /tmp/ccJ3M6SS.s:751    .text:0000000000000538 .L0 
     /tmp/ccJ3M6SS.s:761    .text:0000000000000554 .L0 
     /tmp/ccJ3M6SS.s:779    .text:0000000000000574 .L0 
     /tmp/ccJ3M6SS.s:785    .text:0000000000000584 .L0 
     /tmp/ccJ3M6SS.s:790    .text:0000000000000594 .L0 
     /tmp/ccJ3M6SS.s:800    .text:00000000000005b0 .L0 
     /tmp/ccJ3M6SS.s:821    .text:00000000000005e0 .L0 
     /tmp/ccJ3M6SS.s:589    .rodata.str1.8:0000000000000108 .LC10
     /tmp/ccJ3M6SS.s:834    .text:00000000000005f0 .L0 
     /tmp/ccJ3M6SS.s:875    .text:0000000000000634 .L0 
     /tmp/ccJ3M6SS.s:881    .text:0000000000000644 .L0 
     /tmp/ccJ3M6SS.s:886    .text:0000000000000654 .L0 
     /tmp/ccJ3M6SS.s:896    .text:0000000000000670 .L0 
     /tmp/ccJ3M6SS.s:914    .rodata.str1.8:0000000000000130 .LC11
     /tmp/ccJ3M6SS.s:943    .text:00000000000006ac .L0 
     /tmp/ccJ3M6SS.s:1065   .text:000000000000076c .L0 
     /tmp/ccJ3M6SS.s:1070   .text:000000000000077c .L0 
     /tmp/ccJ3M6SS.s:1075   .text:000000000000078c .L0 
     /tmp/ccJ3M6SS.s:1085   .text:00000000000007a8 .L0 
     /tmp/ccJ3M6SS.s:1104   .text:00000000000007c8 .L0 
     /tmp/ccJ3M6SS.s:1110   .text:00000000000007d8 .L0 
     /tmp/ccJ3M6SS.s:1115   .text:00000000000007e8 .L0 
     /tmp/ccJ3M6SS.s:1125   .text:0000000000000804 .L0 
     /tmp/ccJ3M6SS.s:1159   .text:0000000000000844 .L0 
     /tmp/ccJ3M6SS.s:917    .rodata.str1.8:0000000000000158 .LC12
     /tmp/ccJ3M6SS.s:1172   .text:0000000000000854 .L0 
GAS LISTING /tmp/ccJ3M6SS.s 			page 50


     /tmp/ccJ3M6SS.s:1204   .text:0000000000000888 .L0 
     /tmp/ccJ3M6SS.s:1210   .text:0000000000000898 .L0 
     /tmp/ccJ3M6SS.s:1215   .text:00000000000008a8 .L0 
     /tmp/ccJ3M6SS.s:1225   .text:00000000000008c4 .L0 
     /tmp/ccJ3M6SS.s:1243   .text:00000000000008e4 .L0 
     /tmp/ccJ3M6SS.s:1249   .text:00000000000008f4 .L0 
     /tmp/ccJ3M6SS.s:1254   .text:0000000000000904 .L0 
     /tmp/ccJ3M6SS.s:1264   .text:0000000000000920 .L0 
     /tmp/ccJ3M6SS.s:1282   .rodata.str1.8:0000000000000180 .LC13
     /tmp/ccJ3M6SS.s:1305   .text:0000000000000950 .L0 
     /tmp/ccJ3M6SS.s:1317   .text:0000000000000978 .L0 
     /tmp/ccJ3M6SS.s:1362   .text:00000000000009bc .L0 
     /tmp/ccJ3M6SS.s:1368   .text:00000000000009cc .L0 
     /tmp/ccJ3M6SS.s:1373   .text:00000000000009dc .L0 
     /tmp/ccJ3M6SS.s:1383   .text:00000000000009f8 .L0 
     /tmp/ccJ3M6SS.s:1285   .rodata.str1.8:0000000000000190 .LC14
     /tmp/ccJ3M6SS.s:1399   .text:0000000000000a18 .L0 
     /tmp/ccJ3M6SS.s:135    .text:00000000000000e8 .L4
     /tmp/ccJ3M6SS.s:152    .text:0000000000000104 .L6
     /tmp/ccJ3M6SS.s:249    .text:0000000000000188 .L13
     /tmp/ccJ3M6SS.s:327    .text:0000000000000240 .L9
     /tmp/ccJ3M6SS.s:287    .text:00000000000001e4 .L14
     /tmp/ccJ3M6SS.s:220    .text:0000000000000150 .L8
     /tmp/ccJ3M6SS.s:447    .text:0000000000000308 .L21
     /tmp/ccJ3M6SS.s:525    .text:00000000000003c0 .L17
     /tmp/ccJ3M6SS.s:485    .text:0000000000000364 .L22
     /tmp/ccJ3M6SS.s:418    .text:00000000000002d0 .L16
     /tmp/ccJ3M6SS.s:811    .text:00000000000005d0 .L24
     /tmp/ccJ3M6SS.s:698    .text:00000000000004bc .L30
     /tmp/ccJ3M6SS.s:772    .text:0000000000000574 .L31
     /tmp/ccJ3M6SS.s:642    .text:0000000000000474 .L27
     /tmp/ccJ3M6SS.s:869    .text:0000000000000634 .L32
     /tmp/ccJ3M6SS.s:987    .text:0000000000000708 .L42
     /tmp/ccJ3M6SS.s:965    .text:00000000000006dc .L35
     /tmp/ccJ3M6SS.s:1016   .text:0000000000000734 .L36
     /tmp/ccJ3M6SS.s:995    .text:0000000000000710 .L34
     /tmp/ccJ3M6SS.s:1059   .text:000000000000076c .L45
     /tmp/ccJ3M6SS.s:1136   .text:0000000000000824 .L38
     /tmp/ccJ3M6SS.s:1096   .text:00000000000007c8 .L46
     /tmp/ccJ3M6SS.s:1033   .text:0000000000000744 .L37
     /tmp/ccJ3M6SS.s:1198   .text:0000000000000888 .L47
     /tmp/ccJ3M6SS.s:1236   .text:00000000000008e4 .L48
     /tmp/ccJ3M6SS.s:1356   .text:00000000000009bc .L54
     /tmp/ccJ3M6SS.s:1394   .text:0000000000000a18 .L51
     /tmp/ccJ3M6SS.s:1345   .text:00000000000009a4 .L52
     /tmp/ccJ3M6SS.s:3700   .debug_abbrev:0000000000000000 .Ldebug_abbrev0
     /tmp/ccJ3M6SS.s:5653   .debug_str:0000000000000491 .LASF86
     /tmp/ccJ3M6SS.s:5613   .debug_str:0000000000000382 .LASF87
     /tmp/ccJ3M6SS.s:5623   .debug_str:00000000000003b8 .LASF88
     /tmp/ccJ3M6SS.s:5      .text:0000000000000000 .Ltext0
     /tmp/ccJ3M6SS.s:1418   .text:0000000000000a40 .Letext0
     /tmp/ccJ3M6SS.s:5489   .debug_line:0000000000000000 .Ldebug_line0
     /tmp/ccJ3M6SS.s:5597   .debug_str:00000000000002e8 .LASF0
     /tmp/ccJ3M6SS.s:5607   .debug_str:000000000000034b .LASF1
     /tmp/ccJ3M6SS.s:5587   .debug_str:00000000000002ae .LASF2
     /tmp/ccJ3M6SS.s:5563   .debug_str:0000000000000216 .LASF4
     /tmp/ccJ3M6SS.s:5639   .debug_str:0000000000000432 .LASF3
GAS LISTING /tmp/ccJ3M6SS.s 			page 51


     /tmp/ccJ3M6SS.s:5505   .debug_str:0000000000000087 .LASF5
     /tmp/ccJ3M6SS.s:5611   .debug_str:000000000000036f .LASF6
     /tmp/ccJ3M6SS.s:5595   .debug_str:00000000000002d5 .LASF7
     /tmp/ccJ3M6SS.s:5659   .debug_str:0000000000000575 .LASF8
     /tmp/ccJ3M6SS.s:5549   .debug_str:00000000000001ca .LASF9
     /tmp/ccJ3M6SS.s:5621   .debug_str:00000000000003a9 .LASF10
     /tmp/ccJ3M6SS.s:5655   .debug_str:0000000000000555 .LASF11
     /tmp/ccJ3M6SS.s:5507   .debug_str:000000000000008e .LASF12
     /tmp/ccJ3M6SS.s:5499   .debug_str:000000000000004e .LASF13
     /tmp/ccJ3M6SS.s:5513   .debug_str:00000000000000c6 .LASF14
     /tmp/ccJ3M6SS.s:5635   .debug_str:000000000000040c .LASF15
     /tmp/ccJ3M6SS.s:5523   .debug_str:0000000000000105 .LASF16
     /tmp/ccJ3M6SS.s:5491   .debug_str:0000000000000000 .LASF17
     /tmp/ccJ3M6SS.s:5589   .debug_str:00000000000002bc .LASF34
     /tmp/ccJ3M6SS.s:5547   .debug_str:00000000000001b7 .LASF89
     /tmp/ccJ3M6SS.s:5647   .debug_str:0000000000000477 .LASF21
     /tmp/ccJ3M6SS.s:5553   .debug_str:00000000000001dd .LASF18
     /tmp/ccJ3M6SS.s:5649   .debug_str:0000000000000480 .LASF19
     /tmp/ccJ3M6SS.s:5667   .debug_str:00000000000005a6 .LASF20
     /tmp/ccJ3M6SS.s:5495   .debug_str:0000000000000010 .LASF23
     /tmp/ccJ3M6SS.s:5593   .debug_str:00000000000002cb .LASF25
     /tmp/ccJ3M6SS.s:5561   .debug_str:000000000000020c .LASF22
     /tmp/ccJ3M6SS.s:5583   .debug_str:000000000000027b .LASF24
     /tmp/ccJ3M6SS.s:5537   .debug_str:0000000000000170 .LASF26
     /tmp/ccJ3M6SS.s:5665   .debug_str:000000000000059d .LASF27
     /tmp/ccJ3M6SS.s:5511   .debug_str:00000000000000ae .LASF29
     /tmp/ccJ3M6SS.s:5617   .debug_str:0000000000000393 .LASF28
     /tmp/ccJ3M6SS.s:5555   .debug_str:00000000000001e3 .LASF30
     /tmp/ccJ3M6SS.s:5657   .debug_str:0000000000000564 .LASF31
     /tmp/ccJ3M6SS.s:5497   .debug_str:000000000000002d .LASF32
     /tmp/ccJ3M6SS.s:5671   .debug_str:00000000000005bb .LASF90
     /tmp/ccJ3M6SS.s:5673   .debug_str:00000000000005ce .LASF91
     /tmp/ccJ3M6SS.s:5579   .debug_str:0000000000000262 .LASF33
     /tmp/ccJ3M6SS.s:5605   .debug_str:000000000000033a .LASF35
     /tmp/ccJ3M6SS.s:5615   .debug_str:000000000000038e .LASF36
     /tmp/ccJ3M6SS.s:5539   .debug_str:000000000000017b .LASF37
     /tmp/ccJ3M6SS.s:5535   .debug_str:000000000000015c .LASF38
     /tmp/ccJ3M6SS.s:5643   .debug_str:000000000000044e .LASF39
     /tmp/ccJ3M6SS.s:924    .text:0000000000000690 .LFB16
     /tmp/ccJ3M6SS.s:1278   .text:0000000000000940 .LFE16
     /tmp/ccJ3M6SS.s:4433   .debug_loc:0000000000000000 .LLST31
     /tmp/ccJ3M6SS.s:5565   .debug_str:000000000000021d .LASF40
     /tmp/ccJ3M6SS.s:4448   .debug_loc:0000000000000049 .LLST32
     /tmp/ccJ3M6SS.s:4463   .debug_loc:0000000000000092 .LLST33
     /tmp/ccJ3M6SS.s:961    .text:00000000000006d8 .LBB74
     /tmp/ccJ3M6SS.s:988    .text:0000000000000708 .LBE74
     /tmp/ccJ3M6SS.s:4482   .debug_loc:00000000000000ee .LLST34
     /tmp/ccJ3M6SS.s:976    .text:00000000000006f8 .LVL145
     /tmp/ccJ3M6SS.s:5383   .debug_ranges:0000000000000000 .Ldebug_ranges0
     /tmp/ccJ3M6SS.s:4512   .debug_loc:0000000000000164 .LLST35
     /tmp/ccJ3M6SS.s:4523   .debug_loc:000000000000019a .LLST39
     /tmp/ccJ3M6SS.s:1046   .text:0000000000000760 .LBB81
     /tmp/ccJ3M6SS.s:4538   .debug_loc:00000000000001e3 .LLST40
     /tmp/ccJ3M6SS.s:4553   .debug_loc:000000000000021d .LLST41
     /tmp/ccJ3M6SS.s:4568   .debug_loc:0000000000000265 .LLST42
     /tmp/ccJ3M6SS.s:1107   .text:00000000000007d8 .LVL167
     /tmp/ccJ3M6SS.s:1112   .text:00000000000007e8 .LVL168
GAS LISTING /tmp/ccJ3M6SS.s 			page 52


     /tmp/ccJ3M6SS.s:1117   .text:00000000000007f8 .LVL169
     /tmp/ccJ3M6SS.s:1122   .text:0000000000000804 .LVL170
     /tmp/ccJ3M6SS.s:1127   .text:0000000000000814 .LVL171
     /tmp/ccJ3M6SS.s:1131   .text:000000000000081c .LVL172
     /tmp/ccJ3M6SS.s:1135   .text:0000000000000824 .LVL173
     /tmp/ccJ3M6SS.s:1044   .text:0000000000000760 .LVL155
     /tmp/ccJ3M6SS.s:1023   .text:000000000000073c .LBB77
     /tmp/ccJ3M6SS.s:4587   .debug_loc:00000000000002a3 .LLST36
     /tmp/ccJ3M6SS.s:4602   .debug_loc:00000000000002dd .LLST37
     /tmp/ccJ3M6SS.s:4617   .debug_loc:0000000000000325 .LLST38
     /tmp/ccJ3M6SS.s:1067   .text:000000000000077c .LVL159
     /tmp/ccJ3M6SS.s:1072   .text:000000000000078c .LVL160
     /tmp/ccJ3M6SS.s:1077   .text:000000000000079c .LVL161
     /tmp/ccJ3M6SS.s:1082   .text:00000000000007a8 .LVL162
     /tmp/ccJ3M6SS.s:1087   .text:00000000000007b8 .LVL163
     /tmp/ccJ3M6SS.s:1091   .text:00000000000007c0 .LVL164
     /tmp/ccJ3M6SS.s:1095   .text:00000000000007c8 .LVL165
     /tmp/ccJ3M6SS.s:1146   .text:0000000000000830 .LBB87
     /tmp/ccJ3M6SS.s:4642   .debug_loc:0000000000000369 .LLST43
     /tmp/ccJ3M6SS.s:4657   .debug_loc:00000000000003a3 .LLST44
     /tmp/ccJ3M6SS.s:4672   .debug_loc:00000000000003eb .LLST45
     /tmp/ccJ3M6SS.s:1207   .text:0000000000000898 .LVL186
     /tmp/ccJ3M6SS.s:1212   .text:00000000000008a8 .LVL187
     /tmp/ccJ3M6SS.s:1217   .text:00000000000008b8 .LVL188
     /tmp/ccJ3M6SS.s:1222   .text:00000000000008c4 .LVL189
     /tmp/ccJ3M6SS.s:1227   .text:00000000000008d4 .LVL190
     /tmp/ccJ3M6SS.s:1231   .text:00000000000008dc .LVL191
     /tmp/ccJ3M6SS.s:1235   .text:00000000000008e4 .LVL192
     /tmp/ccJ3M6SS.s:1162   .text:0000000000000850 .LBB90
     /tmp/ccJ3M6SS.s:4691   .debug_loc:0000000000000429 .LLST46
     /tmp/ccJ3M6SS.s:4706   .debug_loc:0000000000000463 .LLST47
     /tmp/ccJ3M6SS.s:4721   .debug_loc:00000000000004ab .LLST48
     /tmp/ccJ3M6SS.s:1246   .text:00000000000008f4 .LVL194
     /tmp/ccJ3M6SS.s:1251   .text:0000000000000904 .LVL195
     /tmp/ccJ3M6SS.s:1256   .text:0000000000000914 .LVL196
     /tmp/ccJ3M6SS.s:1261   .text:0000000000000920 .LVL197
     /tmp/ccJ3M6SS.s:1266   .text:0000000000000930 .LVL198
     /tmp/ccJ3M6SS.s:1270   .text:0000000000000938 .LVL199
     /tmp/ccJ3M6SS.s:1274   .text:0000000000000940 .LVL200
     /tmp/ccJ3M6SS.s:945    .text:00000000000006bc .LVL140
     /tmp/ccJ3M6SS.s:949    .text:00000000000006c4 .LVL141
     /tmp/ccJ3M6SS.s:957    .text:00000000000006d4 .LVL142
     /tmp/ccJ3M6SS.s:1144   .text:0000000000000830 .LVL174
     /tmp/ccJ3M6SS.s:1156   .text:000000000000083c .LVL176
     /tmp/ccJ3M6SS.s:1158   .text:0000000000000844 .LVL177
     /tmp/ccJ3M6SS.s:1174   .text:0000000000000864 .LVL180
     /tmp/ccJ3M6SS.s:1178   .text:000000000000086c .LVL181
     /tmp/ccJ3M6SS.s:5637   .debug_str:0000000000000422 .LASF41
     /tmp/ccJ3M6SS.s:5585   .debug_str:0000000000000299 .LASF42
     /tmp/ccJ3M6SS.s:596    .text:0000000000000424 .LFB15
     /tmp/ccJ3M6SS.s:910    .text:0000000000000690 .LFE15
     /tmp/ccJ3M6SS.s:4746   .debug_loc:00000000000004ef .LLST17
     /tmp/ccJ3M6SS.s:4778   .debug_loc:0000000000000576 .LLST18
     /tmp/ccJ3M6SS.s:4810   .debug_loc:00000000000005fd .LLST19
     /tmp/ccJ3M6SS.s:5493   .debug_str:0000000000000009 .LASF43
     /tmp/ccJ3M6SS.s:4830   .debug_loc:000000000000065a .LLST20
     /tmp/ccJ3M6SS.s:5527   .debug_str:0000000000000129 .LASF44
GAS LISTING /tmp/ccJ3M6SS.s 			page 53


     /tmp/ccJ3M6SS.s:4841   .debug_loc:0000000000000690 .LLST21
     /tmp/ccJ3M6SS.s:675    .text:00000000000004a8 .LBB50
     /tmp/ccJ3M6SS.s:4860   .debug_loc:00000000000006ec .LLST22
     /tmp/ccJ3M6SS.s:4875   .debug_loc:0000000000000726 .LLST23
     /tmp/ccJ3M6SS.s:4890   .debug_loc:000000000000076e .LLST24
     /tmp/ccJ3M6SS.s:782    .text:0000000000000584 .LVL115
     /tmp/ccJ3M6SS.s:787    .text:0000000000000594 .LVL116
     /tmp/ccJ3M6SS.s:792    .text:00000000000005a4 .LVL117
     /tmp/ccJ3M6SS.s:797    .text:00000000000005b0 .LVL118
     /tmp/ccJ3M6SS.s:802    .text:00000000000005c0 .LVL119
     /tmp/ccJ3M6SS.s:806    .text:00000000000005c8 .LVL120
     /tmp/ccJ3M6SS.s:810    .text:00000000000005d0 .LVL121
     /tmp/ccJ3M6SS.s:736    .text:0000000000000518 .LBB53
     /tmp/ccJ3M6SS.s:774    .text:0000000000000574 .LBE53
     /tmp/ccJ3M6SS.s:4915   .debug_loc:00000000000007b2 .LLST25
     /tmp/ccJ3M6SS.s:4924   .debug_loc:00000000000007d7 .LLST26
     /tmp/ccJ3M6SS.s:4933   .debug_loc:0000000000000803 .LLST27
     /tmp/ccJ3M6SS.s:743    .text:0000000000000528 .LVL107
     /tmp/ccJ3M6SS.s:748    .text:0000000000000538 .LVL108
     /tmp/ccJ3M6SS.s:753    .text:0000000000000548 .LVL109
     /tmp/ccJ3M6SS.s:758    .text:0000000000000554 .LVL110
     /tmp/ccJ3M6SS.s:763    .text:0000000000000564 .LVL111
     /tmp/ccJ3M6SS.s:767    .text:000000000000056c .LVL112
     /tmp/ccJ3M6SS.s:771    .text:0000000000000574 .LVL113
     /tmp/ccJ3M6SS.s:660    .text:0000000000000490 .LVL88
     /tmp/ccJ3M6SS.s:668    .text:00000000000004a0 .LVL91
     /tmp/ccJ3M6SS.s:705    .text:00000000000004cc .LVL100
     /tmp/ccJ3M6SS.s:710    .text:00000000000004d8 .LVL101
     /tmp/ccJ3M6SS.s:715    .text:00000000000004e8 .LVL102
     /tmp/ccJ3M6SS.s:720    .text:00000000000004f4 .LVL103
     /tmp/ccJ3M6SS.s:725    .text:0000000000000504 .LVL104
     /tmp/ccJ3M6SS.s:730    .text:0000000000000510 .LVL105
     /tmp/ccJ3M6SS.s:734    .text:0000000000000518 .LVL106
     /tmp/ccJ3M6SS.s:824    .text:00000000000005ec .LBB59
     /tmp/ccJ3M6SS.s:4941   .debug_loc:0000000000000827 .LLST28
     /tmp/ccJ3M6SS.s:4956   .debug_loc:0000000000000861 .LLST29
     /tmp/ccJ3M6SS.s:4971   .debug_loc:00000000000008a9 .LLST30
     /tmp/ccJ3M6SS.s:878    .text:0000000000000644 .LVL133
     /tmp/ccJ3M6SS.s:883    .text:0000000000000654 .LVL134
     /tmp/ccJ3M6SS.s:888    .text:0000000000000664 .LVL135
     /tmp/ccJ3M6SS.s:893    .text:0000000000000670 .LVL136
     /tmp/ccJ3M6SS.s:898    .text:0000000000000680 .LVL137
     /tmp/ccJ3M6SS.s:902    .text:0000000000000688 .LVL138
     /tmp/ccJ3M6SS.s:906    .text:0000000000000690 .LVL139
     /tmp/ccJ3M6SS.s:625    .text:0000000000000460 .LVL83
     /tmp/ccJ3M6SS.s:629    .text:0000000000000468 .LVL84
     /tmp/ccJ3M6SS.s:818    .text:00000000000005d8 .LVL122
     /tmp/ccJ3M6SS.s:820    .text:00000000000005e0 .LVL123
     /tmp/ccJ3M6SS.s:836    .text:0000000000000600 .LVL126
     /tmp/ccJ3M6SS.s:840    .text:0000000000000608 .LVL127
     /tmp/ccJ3M6SS.s:5627   .debug_str:00000000000003dc .LASF92
     /tmp/ccJ3M6SS.s:112    .text:00000000000000c0 .LFB14
     /tmp/ccJ3M6SS.s:169    .text:0000000000000128 .LFE14
     /tmp/ccJ3M6SS.s:4996   .debug_loc:00000000000008ed .LLST0
     /tmp/ccJ3M6SS.s:158    .text:0000000000000110 .LVL14
     /tmp/ccJ3M6SS.s:163    .text:0000000000000120 .LVL15
     /tmp/ccJ3M6SS.s:5545   .debug_str:00000000000001ae .LASF45
GAS LISTING /tmp/ccJ3M6SS.s 			page 54


     /tmp/ccJ3M6SS.s:388    .text:00000000000002a8 .LFB13
     /tmp/ccJ3M6SS.s:573    .text:0000000000000424 .LFE13
     /tmp/ccJ3M6SS.s:5021   .debug_loc:000000000000094f .LLST9
     /tmp/ccJ3M6SS.s:5046   .debug_loc:00000000000009b1 .LLST13
     /tmp/ccJ3M6SS.s:430    .text:00000000000002f4 .LBB32
     /tmp/ccJ3M6SS.s:5057   .debug_loc:00000000000009e7 .LLST14
     /tmp/ccJ3M6SS.s:5072   .debug_loc:0000000000000a21 .LLST15
     /tmp/ccJ3M6SS.s:5087   .debug_loc:0000000000000a69 .LLST16
     /tmp/ccJ3M6SS.s:496    .text:0000000000000374 .LVL68
     /tmp/ccJ3M6SS.s:501    .text:0000000000000384 .LVL69
     /tmp/ccJ3M6SS.s:506    .text:0000000000000394 .LVL70
     /tmp/ccJ3M6SS.s:511    .text:00000000000003a0 .LVL71
     /tmp/ccJ3M6SS.s:516    .text:00000000000003b0 .LVL72
     /tmp/ccJ3M6SS.s:520    .text:00000000000003b8 .LVL73
     /tmp/ccJ3M6SS.s:524    .text:00000000000003c0 .LVL74
     /tmp/ccJ3M6SS.s:425    .text:00000000000002e4 .LVL53
     /tmp/ccJ3M6SS.s:429    .text:00000000000002f4 .LVL54
     /tmp/ccJ3M6SS.s:441    .text:0000000000000300 .LVL56
     /tmp/ccJ3M6SS.s:408    .text:00000000000002c8 .LBB28
     /tmp/ccJ3M6SS.s:5112   .debug_loc:0000000000000aad .LLST10
     /tmp/ccJ3M6SS.s:5127   .debug_loc:0000000000000ae7 .LLST11
     /tmp/ccJ3M6SS.s:5142   .debug_loc:0000000000000b2f .LLST12
     /tmp/ccJ3M6SS.s:456    .text:0000000000000318 .LVL60
     /tmp/ccJ3M6SS.s:461    .text:0000000000000328 .LVL61
     /tmp/ccJ3M6SS.s:466    .text:0000000000000338 .LVL62
     /tmp/ccJ3M6SS.s:471    .text:0000000000000344 .LVL63
     /tmp/ccJ3M6SS.s:476    .text:0000000000000354 .LVL64
     /tmp/ccJ3M6SS.s:480    .text:000000000000035c .LVL65
     /tmp/ccJ3M6SS.s:484    .text:0000000000000364 .LVL66
     /tmp/ccJ3M6SS.s:534    .text:00000000000003c8 .LBB38
     /tmp/ccJ3M6SS.s:571    .text:0000000000000424 .LBE38
     /tmp/ccJ3M6SS.s:541    .text:00000000000003d8 .LVL76
     /tmp/ccJ3M6SS.s:546    .text:00000000000003e8 .LVL77
     /tmp/ccJ3M6SS.s:551    .text:00000000000003f8 .LVL78
     /tmp/ccJ3M6SS.s:556    .text:0000000000000404 .LVL79
     /tmp/ccJ3M6SS.s:561    .text:0000000000000414 .LVL80
     /tmp/ccJ3M6SS.s:565    .text:000000000000041c .LVL81
     /tmp/ccJ3M6SS.s:569    .text:0000000000000424 .LVL82
     /tmp/ccJ3M6SS.s:532    .text:00000000000003c8 .LVL75
     /tmp/ccJ3M6SS.s:5533   .debug_str:0000000000000153 .LASF46
     /tmp/ccJ3M6SS.s:189    .text:0000000000000128 .LFB12
     /tmp/ccJ3M6SS.s:382    .text:00000000000002a8 .LFE12
     /tmp/ccJ3M6SS.s:5161   .debug_loc:0000000000000b6d .LLST1
     /tmp/ccJ3M6SS.s:5186   .debug_loc:0000000000000bcf .LLST5
     /tmp/ccJ3M6SS.s:232    .text:0000000000000174 .LBB13
     /tmp/ccJ3M6SS.s:5197   .debug_loc:0000000000000c05 .LLST6
     /tmp/ccJ3M6SS.s:5212   .debug_loc:0000000000000c3f .LLST7
     /tmp/ccJ3M6SS.s:5227   .debug_loc:0000000000000c87 .LLST8
     /tmp/ccJ3M6SS.s:298    .text:00000000000001f4 .LVL35
     /tmp/ccJ3M6SS.s:303    .text:0000000000000204 .LVL36
     /tmp/ccJ3M6SS.s:308    .text:0000000000000214 .LVL37
     /tmp/ccJ3M6SS.s:313    .text:0000000000000220 .LVL38
     /tmp/ccJ3M6SS.s:318    .text:0000000000000230 .LVL39
     /tmp/ccJ3M6SS.s:322    .text:0000000000000238 .LVL40
     /tmp/ccJ3M6SS.s:326    .text:0000000000000240 .LVL41
     /tmp/ccJ3M6SS.s:227    .text:0000000000000164 .LVL20
     /tmp/ccJ3M6SS.s:231    .text:0000000000000174 .LVL21
GAS LISTING /tmp/ccJ3M6SS.s 			page 55


     /tmp/ccJ3M6SS.s:243    .text:0000000000000180 .LVL23
     /tmp/ccJ3M6SS.s:209    .text:0000000000000148 .LBB9
     /tmp/ccJ3M6SS.s:5252   .debug_loc:0000000000000ccb .LLST2
     /tmp/ccJ3M6SS.s:5267   .debug_loc:0000000000000d05 .LLST3
     /tmp/ccJ3M6SS.s:5282   .debug_loc:0000000000000d4d .LLST4
     /tmp/ccJ3M6SS.s:258    .text:0000000000000198 .LVL27
     /tmp/ccJ3M6SS.s:263    .text:00000000000001a8 .LVL28
     /tmp/ccJ3M6SS.s:268    .text:00000000000001b8 .LVL29
     /tmp/ccJ3M6SS.s:273    .text:00000000000001c4 .LVL30
     /tmp/ccJ3M6SS.s:278    .text:00000000000001d4 .LVL31
     /tmp/ccJ3M6SS.s:282    .text:00000000000001dc .LVL32
     /tmp/ccJ3M6SS.s:286    .text:00000000000001e4 .LVL33
     /tmp/ccJ3M6SS.s:343    .text:000000000000024c .LBB19
     /tmp/ccJ3M6SS.s:380    .text:00000000000002a8 .LBE19
     /tmp/ccJ3M6SS.s:350    .text:000000000000025c .LVL43
     /tmp/ccJ3M6SS.s:355    .text:000000000000026c .LVL44
     /tmp/ccJ3M6SS.s:360    .text:000000000000027c .LVL45
     /tmp/ccJ3M6SS.s:365    .text:0000000000000288 .LVL46
     /tmp/ccJ3M6SS.s:370    .text:0000000000000298 .LVL47
     /tmp/ccJ3M6SS.s:374    .text:00000000000002a0 .LVL48
     /tmp/ccJ3M6SS.s:378    .text:00000000000002a8 .LVL49
     /tmp/ccJ3M6SS.s:341    .text:000000000000024c .LVL42
     /tmp/ccJ3M6SS.s:5661   .debug_str:0000000000000585 .LASF47
     /tmp/ccJ3M6SS.s:5631   .debug_str:00000000000003f2 .LASF48
     /tmp/ccJ3M6SS.s:18     .text:0000000000000000 .LFB11
     /tmp/ccJ3M6SS.s:106    .text:00000000000000c0 .LFE11
     /tmp/ccJ3M6SS.s:5559   .debug_str:0000000000000207 .LASF49
     /tmp/ccJ3M6SS.s:5551   .debug_str:00000000000001d8 .LASF50
     /tmp/ccJ3M6SS.s:33     .text:0000000000000018 .LVL0
     /tmp/ccJ3M6SS.s:38     .text:0000000000000028 .LVL1
     /tmp/ccJ3M6SS.s:42     .text:0000000000000030 .LVL2
     /tmp/ccJ3M6SS.s:61     .text:0000000000000058 .LVL3
     /tmp/ccJ3M6SS.s:68     .text:0000000000000070 .LVL4
     /tmp/ccJ3M6SS.s:72     .text:0000000000000078 .LVL5
     /tmp/ccJ3M6SS.s:77     .text:0000000000000084 .LVL6
     /tmp/ccJ3M6SS.s:82     .text:0000000000000090 .LVL7
     /tmp/ccJ3M6SS.s:86     .text:0000000000000098 .LVL8
     /tmp/ccJ3M6SS.s:91     .text:00000000000000a8 .LVL9
     /tmp/ccJ3M6SS.s:95     .text:00000000000000b0 .LVL10
     /tmp/ccJ3M6SS.s:5581   .debug_str:0000000000000270 .LASF51
     /tmp/ccJ3M6SS.s:5669   .debug_str:00000000000005ab .LASF52
     /tmp/ccJ3M6SS.s:1292   .text:0000000000000940 .LFB10
     /tmp/ccJ3M6SS.s:1416   .text:0000000000000a40 .LFE10
     /tmp/ccJ3M6SS.s:1341   .text:00000000000009a0 .LBB101
     /tmp/ccJ3M6SS.s:1357   .text:00000000000009bc .LBE101
     /tmp/ccJ3M6SS.s:5301   .debug_loc:0000000000000d8b .LLST52
     /tmp/ccJ3M6SS.s:1320   .text:0000000000000984 .LBB98
     /tmp/ccJ3M6SS.s:5317   .debug_loc:0000000000000dd5 .LLST49
     /tmp/ccJ3M6SS.s:5330   .debug_loc:0000000000000e0d .LLST50
     /tmp/ccJ3M6SS.s:5345   .debug_loc:0000000000000e55 .LLST51
     /tmp/ccJ3M6SS.s:1365   .text:00000000000009cc .LVL214
     /tmp/ccJ3M6SS.s:1370   .text:00000000000009dc .LVL215
     /tmp/ccJ3M6SS.s:1375   .text:00000000000009ec .LVL216
     /tmp/ccJ3M6SS.s:1380   .text:00000000000009f8 .LVL217
     /tmp/ccJ3M6SS.s:1385   .text:0000000000000a08 .LVL218
     /tmp/ccJ3M6SS.s:1389   .text:0000000000000a10 .LVL219
     /tmp/ccJ3M6SS.s:1393   .text:0000000000000a18 .LVL220
GAS LISTING /tmp/ccJ3M6SS.s 			page 56


     /tmp/ccJ3M6SS.s:1307   .text:0000000000000960 .LVL201
     /tmp/ccJ3M6SS.s:1311   .text:0000000000000968 .LVL202
     /tmp/ccJ3M6SS.s:1314   .text:0000000000000970 .LVL203
     /tmp/ccJ3M6SS.s:1316   .text:0000000000000978 .LVL204
     /tmp/ccJ3M6SS.s:1331   .text:0000000000000990 .LVL207
     /tmp/ccJ3M6SS.s:1335   .text:0000000000000998 .LVL208
     /tmp/ccJ3M6SS.s:1339   .text:00000000000009a0 .LVL209
     /tmp/ccJ3M6SS.s:1401   .text:0000000000000a28 .LVL221
     /tmp/ccJ3M6SS.s:1405   .text:0000000000000a30 .LVL222
     /tmp/ccJ3M6SS.s:5633   .debug_str:0000000000000404 .LASF53
     /tmp/ccJ3M6SS.s:5521   .debug_str:00000000000000f5 .LASF54
     /tmp/ccJ3M6SS.s:5591   .debug_str:00000000000002c5 .LASF55
     /tmp/ccJ3M6SS.s:5517   .debug_str:00000000000000e2 .LASF56
     /tmp/ccJ3M6SS.s:5573   .debug_str:000000000000024b .LASF57
     /tmp/ccJ3M6SS.s:5519   .debug_str:00000000000000e7 .LASF58
     /tmp/ccJ3M6SS.s:5641   .debug_str:0000000000000444 .LASF60
     /tmp/ccJ3M6SS.s:5509   .debug_str:000000000000009e .LASF59
     /tmp/ccJ3M6SS.s:5501   .debug_str:000000000000005e .LASF61
     /tmp/ccJ3M6SS.s:5567   .debug_str:0000000000000224 .LASF62
     /tmp/ccJ3M6SS.s:5675   .debug_str:00000000000005f1 .LASF63
     /tmp/ccJ3M6SS.s:5645   .debug_str:0000000000000467 .LASF64
     /tmp/ccJ3M6SS.s:5569   .debug_str:000000000000022f .LASF65
     /tmp/ccJ3M6SS.s:5625   .debug_str:00000000000003cc .LASF66
     /tmp/ccJ3M6SS.s:5577   .debug_str:0000000000000257 .LASF67
     /tmp/ccJ3M6SS.s:5619   .debug_str:000000000000039b .LASF68
     /tmp/ccJ3M6SS.s:5531   .debug_str:000000000000014a .LASF69
     /tmp/ccJ3M6SS.s:5629   .debug_str:00000000000003e4 .LASF70
     /tmp/ccJ3M6SS.s:5603   .debug_str:0000000000000330 .LASF71
     /tmp/ccJ3M6SS.s:5663   .debug_str:0000000000000592 .LASF72
     /tmp/ccJ3M6SS.s:5575   .debug_str:0000000000000250 .LASF73
     /tmp/ccJ3M6SS.s:5541   .debug_str:0000000000000180 .LASF74
     /tmp/ccJ3M6SS.s:5515   .debug_str:00000000000000d2 .LASF75
     /tmp/ccJ3M6SS.s:5609   .debug_str:000000000000035e .LASF76
     /tmp/ccJ3M6SS.s:5557   .debug_str:00000000000001fb .LASF77
     /tmp/ccJ3M6SS.s:5503   .debug_str:0000000000000068 .LASF78
     /tmp/ccJ3M6SS.s:5529   .debug_str:0000000000000130 .LASF79
     /tmp/ccJ3M6SS.s:5601   .debug_str:0000000000000313 .LASF80
     /tmp/ccJ3M6SS.s:5525   .debug_str:000000000000011b .LASF81
     /tmp/ccJ3M6SS.s:5571   .debug_str:000000000000023a .LASF82
     /tmp/ccJ3M6SS.s:5651   .debug_str:0000000000000485 .LASF83
     /tmp/ccJ3M6SS.s:5599   .debug_str:00000000000002f5 .LASF84
     /tmp/ccJ3M6SS.s:5543   .debug_str:0000000000000195 .LASF85
     /tmp/ccJ3M6SS.s:959    .text:00000000000006d8 .LVL143
     /tmp/ccJ3M6SS.s:964    .text:00000000000006dc .LVL144
     /tmp/ccJ3M6SS.s:1193   .text:0000000000000880 .LVL183
     /tmp/ccJ3M6SS.s:1197   .text:0000000000000888 .LVL184
     /tmp/ccJ3M6SS.s:996    .text:0000000000000710 .LVL148
     /tmp/ccJ3M6SS.s:1010   .text:000000000000072c .LVL149
     /tmp/ccJ3M6SS.s:1015   .text:0000000000000734 .LVL151
     /tmp/ccJ3M6SS.s:1032   .text:0000000000000744 .LVL154
     /tmp/ccJ3M6SS.s:1058   .text:000000000000076c .LVL158
     /tmp/ccJ3M6SS.s:1105   .text:00000000000007d0 .LVL166
     /tmp/ccJ3M6SS.s:1205   .text:0000000000000890 .LVL185
     /tmp/ccJ3M6SS.s:984    .text:0000000000000704 .LVL146
     /tmp/ccJ3M6SS.s:986    .text:0000000000000708 .LVL147
     /tmp/ccJ3M6SS.s:1013   .text:0000000000000730 .LVL150
     /tmp/ccJ3M6SS.s:1020   .text:0000000000000738 .LVL152
GAS LISTING /tmp/ccJ3M6SS.s 			page 57


     /tmp/ccJ3M6SS.s:1056   .text:0000000000000768 .LVL157
     /tmp/ccJ3M6SS.s:1188   .text:0000000000000878 .LVL182
     /tmp/ccJ3M6SS.s:1051   .text:0000000000000764 .LVL156
     /tmp/ccJ3M6SS.s:1022   .text:000000000000073c .LVL153
     /tmp/ccJ3M6SS.s:1151   .text:0000000000000834 .LVL175
     /tmp/ccJ3M6SS.s:1161   .text:0000000000000850 .LVL178
     /tmp/ccJ3M6SS.s:1167   .text:0000000000000854 .LVL179
     /tmp/ccJ3M6SS.s:1244   .text:00000000000008ec .LVL193
     /tmp/ccJ3M6SS.s:641    .text:0000000000000474 .LVL85
     /tmp/ccJ3M6SS.s:651    .text:0000000000000480 .LVL86
     /tmp/ccJ3M6SS.s:693    .text:00000000000004b8 .LVL97
     /tmp/ccJ3M6SS.s:697    .text:00000000000004bc .LVL98
     /tmp/ccJ3M6SS.s:857    .text:0000000000000620 .LVL129
     /tmp/ccJ3M6SS.s:868    .text:0000000000000634 .LVL131
     /tmp/ccJ3M6SS.s:655    .text:0000000000000484 .LVL87
     /tmp/ccJ3M6SS.s:690    .text:00000000000004b4 .LVL96
     /tmp/ccJ3M6SS.s:860    .text:0000000000000624 .LVL130
     /tmp/ccJ3M6SS.s:686    .text:00000000000004b0 .LVL95
     /tmp/ccJ3M6SS.s:850    .text:0000000000000614 .LVL128
     /tmp/ccJ3M6SS.s:662    .text:0000000000000494 .LVL89
     /tmp/ccJ3M6SS.s:666    .text:0000000000000498 .LVL90
     /tmp/ccJ3M6SS.s:670    .text:00000000000004a4 .LVL92
     /tmp/ccJ3M6SS.s:703    .text:00000000000004c4 .LVL99
     /tmp/ccJ3M6SS.s:780    .text:000000000000057c .LVL114
     /tmp/ccJ3M6SS.s:674    .text:00000000000004a8 .LVL93
     /tmp/ccJ3M6SS.s:680    .text:00000000000004ac .LVL94
     /tmp/ccJ3M6SS.s:823    .text:00000000000005ec .LVL124
     /tmp/ccJ3M6SS.s:829    .text:00000000000005f0 .LVL125
     /tmp/ccJ3M6SS.s:876    .text:000000000000063c .LVL132
     /tmp/ccJ3M6SS.s:115    .text:00000000000000c0 .LVL11
     /tmp/ccJ3M6SS.s:134    .text:00000000000000e8 .LVL12
     /tmp/ccJ3M6SS.s:151    .text:0000000000000104 .LVL13
     /tmp/ccJ3M6SS.s:166    .text:0000000000000124 .LVL16
     /tmp/ccJ3M6SS.s:391    .text:00000000000002a8 .LVL50
     /tmp/ccJ3M6SS.s:417    .text:00000000000002d0 .LVL52
     /tmp/ccJ3M6SS.s:446    .text:0000000000000308 .LVL58
     /tmp/ccJ3M6SS.s:454    .text:0000000000000310 .LVL59
     /tmp/ccJ3M6SS.s:444    .text:0000000000000304 .LVL57
     /tmp/ccJ3M6SS.s:435    .text:00000000000002f8 .LVL55
     /tmp/ccJ3M6SS.s:494    .text:000000000000036c .LVL67
     /tmp/ccJ3M6SS.s:407    .text:00000000000002c8 .LVL51
     /tmp/ccJ3M6SS.s:192    .text:0000000000000128 .LVL17
     /tmp/ccJ3M6SS.s:219    .text:0000000000000150 .LVL19
     /tmp/ccJ3M6SS.s:248    .text:0000000000000188 .LVL25
     /tmp/ccJ3M6SS.s:256    .text:0000000000000190 .LVL26
     /tmp/ccJ3M6SS.s:246    .text:0000000000000184 .LVL24
     /tmp/ccJ3M6SS.s:237    .text:0000000000000178 .LVL22
     /tmp/ccJ3M6SS.s:296    .text:00000000000001ec .LVL34
     /tmp/ccJ3M6SS.s:208    .text:0000000000000148 .LVL18
     /tmp/ccJ3M6SS.s:1344   .text:00000000000009a4 .LVL210
     /tmp/ccJ3M6SS.s:1355   .text:00000000000009bc .LVL212
     /tmp/ccJ3M6SS.s:1319   .text:0000000000000984 .LVL205
     /tmp/ccJ3M6SS.s:1325   .text:0000000000000988 .LVL206
     /tmp/ccJ3M6SS.s:1363   .text:00000000000009c4 .LVL213
     /tmp/ccJ3M6SS.s:1424   .debug_info:0000000000000000 .Ldebug_info0
     /tmp/ccJ3M6SS.s:215    .text:000000000000014c .LBE9
     /tmp/ccJ3M6SS.s:251    .text:0000000000000188 .LBB17
GAS LISTING /tmp/ccJ3M6SS.s 			page 58


     /tmp/ccJ3M6SS.s:289    .text:00000000000001e4 .LBE17
     /tmp/ccJ3M6SS.s:216    .text:000000000000014c .LBB12
     /tmp/ccJ3M6SS.s:250    .text:0000000000000188 .LBE12
     /tmp/ccJ3M6SS.s:290    .text:00000000000001e4 .LBB18
     /tmp/ccJ3M6SS.s:330    .text:0000000000000240 .LBE18
     /tmp/ccJ3M6SS.s:239    .text:0000000000000178 .LBE13
     /tmp/ccJ3M6SS.s:291    .text:00000000000001e4 .LBB16
     /tmp/ccJ3M6SS.s:329    .text:0000000000000240 .LBE16
     /tmp/ccJ3M6SS.s:413    .text:00000000000002cc .LBE28
     /tmp/ccJ3M6SS.s:449    .text:0000000000000308 .LBB36
     /tmp/ccJ3M6SS.s:487    .text:0000000000000364 .LBE36
     /tmp/ccJ3M6SS.s:414    .text:00000000000002cc .LBB31
     /tmp/ccJ3M6SS.s:448    .text:0000000000000308 .LBE31
     /tmp/ccJ3M6SS.s:488    .text:0000000000000364 .LBB37
     /tmp/ccJ3M6SS.s:528    .text:00000000000003c0 .LBE37
     /tmp/ccJ3M6SS.s:437    .text:00000000000002f8 .LBE32
     /tmp/ccJ3M6SS.s:489    .text:0000000000000364 .LBB35
     /tmp/ccJ3M6SS.s:527    .text:00000000000003c0 .LBE35
     /tmp/ccJ3M6SS.s:633    .text:0000000000000468 .LBB48
     /tmp/ccJ3M6SS.s:636    .text:000000000000046c .LBE48
     /tmp/ccJ3M6SS.s:643    .text:0000000000000474 .LBB58
     /tmp/ccJ3M6SS.s:815    .text:00000000000005d0 .LBE58
     /tmp/ccJ3M6SS.s:647    .text:000000000000047c .LBB49
     /tmp/ccJ3M6SS.s:683    .text:00000000000004ac .LBE49
     /tmp/ccJ3M6SS.s:687    .text:00000000000004b0 .LBB56
     /tmp/ccJ3M6SS.s:694    .text:00000000000004b8 .LBE56
     /tmp/ccJ3M6SS.s:699    .text:00000000000004bc .LBB57
     /tmp/ccJ3M6SS.s:814    .text:00000000000005d0 .LBE57
     /tmp/ccJ3M6SS.s:682    .text:00000000000004ac .LBE50
     /tmp/ccJ3M6SS.s:775    .text:0000000000000574 .LBB55
     /tmp/ccJ3M6SS.s:813    .text:00000000000005d0 .LBE55
     /tmp/ccJ3M6SS.s:831    .text:00000000000005f0 .LBE59
     /tmp/ccJ3M6SS.s:871    .text:0000000000000634 .LBB62
     /tmp/ccJ3M6SS.s:908    .text:0000000000000690 .LBE62
     /tmp/ccJ3M6SS.s:989    .text:0000000000000708 .LBB75
     /tmp/ccJ3M6SS.s:992    .text:000000000000070c .LBE75
     /tmp/ccJ3M6SS.s:997    .text:0000000000000710 .LBB76
     /tmp/ccJ3M6SS.s:1017   .text:0000000000000734 .LBE76
     /tmp/ccJ3M6SS.s:1028   .text:0000000000000740 .LBE77
     /tmp/ccJ3M6SS.s:1061   .text:000000000000076c .LBB85
     /tmp/ccJ3M6SS.s:1098   .text:00000000000007c8 .LBE85
     /tmp/ccJ3M6SS.s:1029   .text:0000000000000740 .LBB80
     /tmp/ccJ3M6SS.s:1060   .text:000000000000076c .LBE80
     /tmp/ccJ3M6SS.s:1099   .text:00000000000007c8 .LBB86
     /tmp/ccJ3M6SS.s:1139   .text:0000000000000824 .LBE86
     /tmp/ccJ3M6SS.s:1053   .text:0000000000000764 .LBE81
     /tmp/ccJ3M6SS.s:1100   .text:00000000000007c8 .LBB84
     /tmp/ccJ3M6SS.s:1138   .text:0000000000000824 .LBE84
     /tmp/ccJ3M6SS.s:1153   .text:0000000000000834 .LBE87
     /tmp/ccJ3M6SS.s:1200   .text:0000000000000888 .LBB93
     /tmp/ccJ3M6SS.s:1238   .text:00000000000008e4 .LBE93
     /tmp/ccJ3M6SS.s:1169   .text:0000000000000854 .LBE90
     /tmp/ccJ3M6SS.s:1239   .text:00000000000008e4 .LBB94
     /tmp/ccJ3M6SS.s:1276   .text:0000000000000940 .LBE94
     /tmp/ccJ3M6SS.s:1327   .text:0000000000000988 .LBE98
     /tmp/ccJ3M6SS.s:1358   .text:00000000000009bc .LBB102
     /tmp/ccJ3M6SS.s:1396   .text:0000000000000a18 .LBE102
GAS LISTING /tmp/ccJ3M6SS.s 			page 59



UNDEFINED SYMBOLS
_Z25disableExternalInterruptsv
_Z9putStringPKc
_Z10putNewlinev
_Z13thread_createPmPFvPvES0_
_Z15thread_dispatchv
_Z11thread_joinm
_Z24enableExternalInterruptsv
_Z9test_callm
_Z6putInti
_Z10stopKernelv
_Z11thread_exitv
_Z6putU64m
_ZN8MemAlloc3getEv
_ZN8MemAlloc16getUserlandUsageEv
_ZN6Thread22initialUserMemoryUsageE
_Z9mem_allocm
_Z8mem_freePv
