GAS LISTING /tmp/cct92wyA.s 			page 1


   1              		.file	"c_api.cpp"
   2              		.option pic
   3              		.option norelax
   4              		.text
   5              	.Ltext0:
   6              		.align	2
   8              	_ZL15helperRet64P164mm:
   9              	.LFB11:
  10              		.file 1 "src/c_api.cpp"
   1:src/c_api.cpp **** #include "../h/c_api.h"
   2:src/c_api.cpp **** #include "../h/my_console.h"
   3:src/c_api.cpp **** #include "../h/thread.h"
   4:src/c_api.cpp **** #include "../h/0_console.h"
   5:src/c_api.cpp **** 
   6:src/c_api.cpp **** uint64 fib(uint64);
   7:src/c_api.cpp **** 
   8:src/c_api.cpp **** char helperRet8(uint64 code)
   9:src/c_api.cpp **** {
  10:src/c_api.cpp **** 
  11:src/c_api.cpp ****     __asm__ volatile ("mv a0, %[name]" : : [name] "r" (code)); // WARNING: this instruction must be
  12:src/c_api.cpp **** 
  13:src/c_api.cpp ****     __asm__ volatile ("ecall");
  14:src/c_api.cpp **** 
  15:src/c_api.cpp ****     uint64 ret;
  16:src/c_api.cpp ****     __asm__ volatile ("mv %[name], a0" : [name] "=r"(ret));
  17:src/c_api.cpp **** 
  18:src/c_api.cpp ****     return *((char*)&ret);
  19:src/c_api.cpp **** }
  20:src/c_api.cpp **** 
  21:src/c_api.cpp **** void helperP164(uint64 code, uint64 parameter1)
  22:src/c_api.cpp **** {
  23:src/c_api.cpp ****     __asm__ volatile ("mv a1, %[name]" : : [name] "r" (parameter1));
  24:src/c_api.cpp ****     __asm__ volatile ("mv a0, %[name]" : : [name] "r" (code)); // WARNING: this instruction must be
  25:src/c_api.cpp **** 
  26:src/c_api.cpp ****     __asm__ volatile ("ecall");
  27:src/c_api.cpp **** }
  28:src/c_api.cpp **** 
  29:src/c_api.cpp **** int helperRet32P164P264P364(uint64 code, uint64 parameter1, uint64 parameter2, uint64 parameter3)
  30:src/c_api.cpp **** {
  31:src/c_api.cpp ****     __asm__ volatile ("mv a3, %[name]" : : [name] "r" (parameter3));
  32:src/c_api.cpp ****     __asm__ volatile ("mv a2, %[name]" : : [name] "r" (parameter2));
  33:src/c_api.cpp ****     __asm__ volatile ("mv a1, %[name]" : : [name] "r" (parameter1));
  34:src/c_api.cpp ****     __asm__ volatile ("mv a0, %[name]" : : [name] "r" (code)); // WARNING: this instruction must be
  35:src/c_api.cpp **** 
  36:src/c_api.cpp ****     __asm__ volatile ("ecall");
  37:src/c_api.cpp **** 
  38:src/c_api.cpp ****     __asm__ volatile("mv x10, x10"); // temp
  39:src/c_api.cpp **** 
  40:src/c_api.cpp ****     uint64 ret;
  41:src/c_api.cpp ****     __asm__ volatile ("mv %[name], a0" : [name] "=r"(ret));
  42:src/c_api.cpp **** 
  43:src/c_api.cpp ****     return *((int*)&ret);
  44:src/c_api.cpp **** }
  45:src/c_api.cpp **** 
  46:src/c_api.cpp **** static uint64 helperRet64P164(uint64 code, uint64 parameter1) // returns 64bit and takes a 64bit pa
  47:src/c_api.cpp **** {
  11              		.loc 1 47 1
GAS LISTING /tmp/cct92wyA.s 			page 2


  12              		.cfi_startproc
  13              	.LVL0:
  14 0000 130101FF 		addi	sp,sp,-16
  15              		.cfi_def_cfa_offset 16
  16 0004 23348100 		sd	s0,8(sp)
  17              		.cfi_offset 8, -8
  18 0008 13040101 		addi	s0,sp,16
  19              		.cfi_def_cfa 8, 0
  48:src/c_api.cpp ****     __asm__ volatile ("mv a1, %[name]" : : [name] "r" (parameter1));
  20              		.loc 1 48 5
  21              		.loc 1 48 68 is_stmt 0
  22              	#APP
  23              	# 48 "src/c_api.cpp" 1
  49              	    __asm__ volatile ("mv a0, %[name]" : : [name] "r" (code)); // WARNING: this instruction must be
  24              		mv a1, a1
  25              	# 0 "" 2
  26              		.loc 1 49 5 is_stmt 1
  27              		.loc 1 49 62 is_stmt 0
  28              	# 49 "src/c_api.cpp" 1
  50              	
  51:src/c_api.cpp ****     __asm__ volatile ("ecall");
  29              		mv a0, a0
  30              	# 0 "" 2
  31              		.loc 1 51 5 is_stmt 1
  32              		.loc 1 51 31 is_stmt 0
  33              	# 51 "src/c_api.cpp" 1
  52              	
  53:src/c_api.cpp ****     __asm__ volatile ("mv x10, x10");
  34              		ecall
  35              	# 0 "" 2
  36              		.loc 1 53 5 is_stmt 1
  37              		.loc 1 53 37 is_stmt 0
  38              	# 53 "src/c_api.cpp" 1
  54              	
  55:src/c_api.cpp ****     uint64 ret;
  39              		mv x10, x10
  40              	# 0 "" 2
  41              		.loc 1 55 5 is_stmt 1
  56:src/c_api.cpp ****     __asm__ volatile ("mv %[name], a0" : [name] "=r"(ret));
  42              		.loc 1 56 5
  43              		.loc 1 56 59 is_stmt 0
  44              	# 56 "src/c_api.cpp" 1
  57              	
  45              		mv a0, a0
  46              	# 0 "" 2
  47              	.LVL1:
  58:src/c_api.cpp ****     return ret;
  48              		.loc 1 58 5 is_stmt 1
  59:src/c_api.cpp **** }
  49              		.loc 1 59 1 is_stmt 0
  50              	#NO_APP
  51 0020 03348100 		ld	s0,8(sp)
  52              		.cfi_restore 8
  53              		.cfi_def_cfa 2, 16
  54 0024 13010101 		addi	sp,sp,16
  55              		.cfi_def_cfa_offset 0
  56 0028 67800000 		jr	ra
GAS LISTING /tmp/cct92wyA.s 			page 3


  57              		.cfi_endproc
  58              	.LFE11:
  60              		.align	2
  62              	_ZL11helperRet32m:
  63              	.LFB12:
  60:src/c_api.cpp **** 
  61:src/c_api.cpp **** static int helperRet32(uint64 code) // returns 64bit and takes no params
  62:src/c_api.cpp **** {
  64              		.loc 1 62 1 is_stmt 1
  65              		.cfi_startproc
  66              	.LVL2:
  67 002c 130101FF 		addi	sp,sp,-16
  68              		.cfi_def_cfa_offset 16
  69 0030 23348100 		sd	s0,8(sp)
  70              		.cfi_offset 8, -8
  71 0034 13040101 		addi	s0,sp,16
  72              		.cfi_def_cfa 8, 0
  63:src/c_api.cpp ****     __asm__ volatile ("mv a0, %[name]" : : [name] "r" (code));
  73              		.loc 1 63 5
  74              		.loc 1 63 62 is_stmt 0
  75              	#APP
  76              	# 63 "src/c_api.cpp" 1
  64              	
  65:src/c_api.cpp ****     __asm__ volatile ("ecall");
  77              		mv a0, a0
  78              	# 0 "" 2
  79              		.loc 1 65 5 is_stmt 1
  80              		.loc 1 65 31 is_stmt 0
  81              	# 65 "src/c_api.cpp" 1
  66              	
  67:src/c_api.cpp ****     uint64 ret;
  82              		ecall
  83              	# 0 "" 2
  84              		.loc 1 67 5 is_stmt 1
  68:src/c_api.cpp ****     __asm__ volatile ("mv %[name], a0" : [name] "=r"(ret));
  85              		.loc 1 68 5
  86              		.loc 1 68 59 is_stmt 0
  87              	# 68 "src/c_api.cpp" 1
  69              	
  88              		mv a0, a0
  89              	# 0 "" 2
  90              	.LVL3:
  70:src/c_api.cpp ****     return *((int*)&ret);
  91              		.loc 1 70 5 is_stmt 1
  71:src/c_api.cpp **** }
  92              		.loc 1 71 1 is_stmt 0
  93              	#NO_APP
  94 0044 1B050500 		sext.w	a0,a0
  95 0048 03348100 		ld	s0,8(sp)
  96              		.cfi_restore 8
  97              		.cfi_def_cfa 2, 16
  98 004c 13010101 		addi	sp,sp,16
  99              		.cfi_def_cfa_offset 0
 100 0050 67800000 		jr	ra
 101              		.cfi_endproc
 102              	.LFE12:
 104              		.align	2
GAS LISTING /tmp/cct92wyA.s 			page 4


 106              	_ZL6helperm:
 107              	.LFB13:
  72:src/c_api.cpp **** 
  73:src/c_api.cpp **** static void helper(uint64 code) // returns nothing and takes no parameters (eg thread_dispatch)
  74:src/c_api.cpp **** {
 108              		.loc 1 74 1 is_stmt 1
 109              		.cfi_startproc
 110              	.LVL4:
 111 0054 130101FF 		addi	sp,sp,-16
 112              		.cfi_def_cfa_offset 16
 113 0058 23348100 		sd	s0,8(sp)
 114              		.cfi_offset 8, -8
 115 005c 13040101 		addi	s0,sp,16
 116              		.cfi_def_cfa 8, 0
  75:src/c_api.cpp ****     __asm__ volatile ("mv a0, %[name]" : : [name] "r" (code));
 117              		.loc 1 75 5
 118              		.loc 1 75 62 is_stmt 0
 119              	#APP
 120              	# 75 "src/c_api.cpp" 1
  76              	    __asm__ volatile ("ecall");
 121              		mv a0, a0
 122              	# 0 "" 2
 123              		.loc 1 76 5 is_stmt 1
 124              		.loc 1 76 31 is_stmt 0
 125              	# 76 "src/c_api.cpp" 1
  77              	
  78:src/c_api.cpp ****     __asm__ volatile ("mv x10, x10");
 126              		ecall
 127              	# 0 "" 2
 128              		.loc 1 78 5 is_stmt 1
 129              		.loc 1 78 37 is_stmt 0
 130              	# 78 "src/c_api.cpp" 1
  79              	}
 131              		mv x10, x10
 132              	# 0 "" 2
 133              		.loc 1 79 1
 134              	#NO_APP
 135 006c 03348100 		ld	s0,8(sp)
 136              		.cfi_restore 8
 137              		.cfi_def_cfa 2, 16
 138 0070 13010101 		addi	sp,sp,16
 139              		.cfi_def_cfa_offset 0
 140 0074 67800000 		jr	ra
 141              		.cfi_endproc
 142              	.LFE13:
 144              		.align	2
 145              		.globl	_Z10helperRet8m
 147              	_Z10helperRet8m:
 148              	.LFB8:
   9:src/c_api.cpp **** 
 149              		.loc 1 9 1 is_stmt 1
 150              		.cfi_startproc
 151              	.LVL5:
 152 0078 130101FF 		addi	sp,sp,-16
 153              		.cfi_def_cfa_offset 16
 154 007c 23348100 		sd	s0,8(sp)
 155              		.cfi_offset 8, -8
GAS LISTING /tmp/cct92wyA.s 			page 5


 156 0080 13040101 		addi	s0,sp,16
 157              		.cfi_def_cfa 8, 0
  11:src/c_api.cpp **** 
 158              		.loc 1 11 5
  11:src/c_api.cpp **** 
 159              		.loc 1 11 62 is_stmt 0
 160              	#APP
 161              	# 11 "src/c_api.cpp" 1
  13:src/c_api.cpp **** 
 162              		mv a0, a0
 163              	# 0 "" 2
 164              		.loc 1 13 5 is_stmt 1
  13:src/c_api.cpp **** 
 165              		.loc 1 13 31 is_stmt 0
 166              	# 13 "src/c_api.cpp" 1
  15:src/c_api.cpp ****     __asm__ volatile ("mv %[name], a0" : [name] "=r"(ret));
 167              		ecall
 168              	# 0 "" 2
 169              		.loc 1 15 5 is_stmt 1
  16:src/c_api.cpp **** 
 170              		.loc 1 16 5
  16:src/c_api.cpp **** 
 171              		.loc 1 16 59 is_stmt 0
 172              	# 16 "src/c_api.cpp" 1
 173              		mv a0, a0
 174              	# 0 "" 2
 175              	.LVL6:
  18:src/c_api.cpp **** }
 176              		.loc 1 18 5 is_stmt 1
  19:src/c_api.cpp **** 
 177              		.loc 1 19 1 is_stmt 0
 178              	#NO_APP
 179 0090 1375F50F 		andi	a0,a0,0xff
 180 0094 03348100 		ld	s0,8(sp)
 181              		.cfi_restore 8
 182              		.cfi_def_cfa 2, 16
 183 0098 13010101 		addi	sp,sp,16
 184              		.cfi_def_cfa_offset 0
 185 009c 67800000 		jr	ra
 186              		.cfi_endproc
 187              	.LFE8:
 189              		.align	2
 190              		.globl	_Z10helperP164mm
 192              	_Z10helperP164mm:
 193              	.LFB9:
  22:src/c_api.cpp ****     __asm__ volatile ("mv a1, %[name]" : : [name] "r" (parameter1));
 194              		.loc 1 22 1 is_stmt 1
 195              		.cfi_startproc
 196              	.LVL7:
 197 00a0 130101FF 		addi	sp,sp,-16
 198              		.cfi_def_cfa_offset 16
 199 00a4 23348100 		sd	s0,8(sp)
 200              		.cfi_offset 8, -8
 201 00a8 13040101 		addi	s0,sp,16
 202              		.cfi_def_cfa 8, 0
  23:src/c_api.cpp ****     __asm__ volatile ("mv a0, %[name]" : : [name] "r" (code)); // WARNING: this instruction must be
 203              		.loc 1 23 5
GAS LISTING /tmp/cct92wyA.s 			page 6


  23:src/c_api.cpp ****     __asm__ volatile ("mv a0, %[name]" : : [name] "r" (code)); // WARNING: this instruction must be
 204              		.loc 1 23 68 is_stmt 0
 205              	#APP
 206              	# 23 "src/c_api.cpp" 1
  24:src/c_api.cpp **** 
 207              		mv a1, a1
 208              	# 0 "" 2
 209              		.loc 1 24 5 is_stmt 1
  24:src/c_api.cpp **** 
 210              		.loc 1 24 62 is_stmt 0
 211              	# 24 "src/c_api.cpp" 1
  26:src/c_api.cpp **** }
 212              		mv a0, a0
 213              	# 0 "" 2
 214              		.loc 1 26 5 is_stmt 1
  26:src/c_api.cpp **** }
 215              		.loc 1 26 31 is_stmt 0
 216              	# 26 "src/c_api.cpp" 1
  27:src/c_api.cpp **** 
 217              		ecall
 218              	# 0 "" 2
 219              		.loc 1 27 1
 220              	#NO_APP
 221 00b8 03348100 		ld	s0,8(sp)
 222              		.cfi_restore 8
 223              		.cfi_def_cfa 2, 16
 224 00bc 13010101 		addi	sp,sp,16
 225              		.cfi_def_cfa_offset 0
 226 00c0 67800000 		jr	ra
 227              		.cfi_endproc
 228              	.LFE9:
 230              		.align	2
 231              		.globl	_Z23helperRet32P164P264P364mmmm
 233              	_Z23helperRet32P164P264P364mmmm:
 234              	.LFB10:
  30:src/c_api.cpp ****     __asm__ volatile ("mv a3, %[name]" : : [name] "r" (parameter3));
 235              		.loc 1 30 1 is_stmt 1
 236              		.cfi_startproc
 237              	.LVL8:
 238 00c4 130101FF 		addi	sp,sp,-16
 239              		.cfi_def_cfa_offset 16
 240 00c8 23348100 		sd	s0,8(sp)
 241              		.cfi_offset 8, -8
 242 00cc 13040101 		addi	s0,sp,16
 243              		.cfi_def_cfa 8, 0
  31:src/c_api.cpp ****     __asm__ volatile ("mv a2, %[name]" : : [name] "r" (parameter2));
 244              		.loc 1 31 5
  31:src/c_api.cpp ****     __asm__ volatile ("mv a2, %[name]" : : [name] "r" (parameter2));
 245              		.loc 1 31 68 is_stmt 0
 246              	#APP
 247              	# 31 "src/c_api.cpp" 1
  32:src/c_api.cpp ****     __asm__ volatile ("mv a1, %[name]" : : [name] "r" (parameter1));
 248              		mv a3, a3
 249              	# 0 "" 2
 250              		.loc 1 32 5 is_stmt 1
  32:src/c_api.cpp ****     __asm__ volatile ("mv a1, %[name]" : : [name] "r" (parameter1));
 251              		.loc 1 32 68 is_stmt 0
GAS LISTING /tmp/cct92wyA.s 			page 7


 252              	# 32 "src/c_api.cpp" 1
  33:src/c_api.cpp ****     __asm__ volatile ("mv a0, %[name]" : : [name] "r" (code)); // WARNING: this instruction must be
 253              		mv a2, a2
 254              	# 0 "" 2
 255              		.loc 1 33 5 is_stmt 1
  33:src/c_api.cpp ****     __asm__ volatile ("mv a0, %[name]" : : [name] "r" (code)); // WARNING: this instruction must be
 256              		.loc 1 33 68 is_stmt 0
 257              	# 33 "src/c_api.cpp" 1
  34:src/c_api.cpp **** 
 258              		mv a1, a1
 259              	# 0 "" 2
 260              		.loc 1 34 5 is_stmt 1
  34:src/c_api.cpp **** 
 261              		.loc 1 34 62 is_stmt 0
 262              	# 34 "src/c_api.cpp" 1
  36:src/c_api.cpp **** 
 263              		mv a0, a0
 264              	# 0 "" 2
 265              		.loc 1 36 5 is_stmt 1
  36:src/c_api.cpp **** 
 266              		.loc 1 36 31 is_stmt 0
 267              	# 36 "src/c_api.cpp" 1
  38:src/c_api.cpp **** 
 268              		ecall
 269              	# 0 "" 2
 270              		.loc 1 38 5 is_stmt 1
  38:src/c_api.cpp **** 
 271              		.loc 1 38 36 is_stmt 0
 272              	# 38 "src/c_api.cpp" 1
  40:src/c_api.cpp ****     __asm__ volatile ("mv %[name], a0" : [name] "=r"(ret));
 273              		mv x10, x10
 274              	# 0 "" 2
 275              		.loc 1 40 5 is_stmt 1
  41:src/c_api.cpp **** 
 276              		.loc 1 41 5
  41:src/c_api.cpp **** 
 277              		.loc 1 41 59 is_stmt 0
 278              	# 41 "src/c_api.cpp" 1
 279              		mv a0, a0
 280              	# 0 "" 2
 281              	.LVL9:
  43:src/c_api.cpp **** }
 282              		.loc 1 43 5 is_stmt 1
  44:src/c_api.cpp **** 
 283              		.loc 1 44 1 is_stmt 0
 284              	#NO_APP
 285 00ec 1B050500 		sext.w	a0,a0
 286 00f0 03348100 		ld	s0,8(sp)
 287              		.cfi_restore 8
 288              		.cfi_def_cfa 2, 16
 289 00f4 13010101 		addi	sp,sp,16
 290              		.cfi_def_cfa_offset 0
 291 00f8 67800000 		jr	ra
 292              		.cfi_endproc
 293              	.LFE10:
 295              		.align	2
 296              		.globl	_Z9mem_allocm
GAS LISTING /tmp/cct92wyA.s 			page 8


 298              	_Z9mem_allocm:
 299              	.LFB14:
  80:src/c_api.cpp **** 
  81:src/c_api.cpp **** void* mem_alloc(size_t size)
  82:src/c_api.cpp **** {
 300              		.loc 1 82 1 is_stmt 1
 301              		.cfi_startproc
 302              	.LVL10:
 303 00fc 130101FF 		addi	sp,sp,-16
 304              		.cfi_def_cfa_offset 16
 305 0100 23341100 		sd	ra,8(sp)
 306 0104 23308100 		sd	s0,0(sp)
 307              		.cfi_offset 1, -8
 308              		.cfi_offset 8, -16
 309 0108 13040101 		addi	s0,sp,16
 310              		.cfi_def_cfa 8, 0
 311 010c 93050500 		mv	a1,a0
  83:src/c_api.cpp ****     return (void*) helperRet64P164(1, size);
 312              		.loc 1 83 5
 313              		.loc 1 83 35 is_stmt 0
 314 0110 13051000 		li	a0,1
 315              	.LVL11:
 316 0114 97000000 		call	_ZL15helperRet64P164mm
 316      E7800000 
 317              	.LVL12:
  84:src/c_api.cpp **** }
 318              		.loc 1 84 1
 319 011c 83308100 		ld	ra,8(sp)
 320              		.cfi_restore 1
 321 0120 03340100 		ld	s0,0(sp)
 322              		.cfi_restore 8
 323              		.cfi_def_cfa 2, 16
 324 0124 13010101 		addi	sp,sp,16
 325              		.cfi_def_cfa_offset 0
 326 0128 67800000 		jr	ra
 327              		.cfi_endproc
 328              	.LFE14:
 330              		.align	2
 331              		.globl	_Z8mem_freePv
 333              	_Z8mem_freePv:
 334              	.LFB15:
  85:src/c_api.cpp **** 
  86:src/c_api.cpp **** int mem_free(void* ptr)
  87:src/c_api.cpp **** {
 335              		.loc 1 87 1 is_stmt 1
 336              		.cfi_startproc
 337              	.LVL13:
 338 012c 130101FF 		addi	sp,sp,-16
 339              		.cfi_def_cfa_offset 16
 340 0130 23341100 		sd	ra,8(sp)
 341 0134 23308100 		sd	s0,0(sp)
 342              		.cfi_offset 1, -8
 343              		.cfi_offset 8, -16
 344 0138 13040101 		addi	s0,sp,16
 345              		.cfi_def_cfa 8, 0
 346 013c 93050500 		mv	a1,a0
  88:src/c_api.cpp ****     return helperRet64P164(2, (uint64) ptr);
GAS LISTING /tmp/cct92wyA.s 			page 9


 347              		.loc 1 88 5
 348              		.loc 1 88 27 is_stmt 0
 349 0140 13052000 		li	a0,2
 350              	.LVL14:
 351 0144 97000000 		call	_ZL15helperRet64P164mm
 351      E7800000 
 352              	.LVL15:
  89:src/c_api.cpp **** }
 353              		.loc 1 89 1
 354 014c 1B050500 		sext.w	a0,a0
 355 0150 83308100 		ld	ra,8(sp)
 356              		.cfi_restore 1
 357 0154 03340100 		ld	s0,0(sp)
 358              		.cfi_restore 8
 359              		.cfi_def_cfa 2, 16
 360 0158 13010101 		addi	sp,sp,16
 361              		.cfi_def_cfa_offset 0
 362 015c 67800000 		jr	ra
 363              		.cfi_endproc
 364              	.LFE15:
 366              		.align	2
 367              		.globl	_Z15thread_dispatchv
 369              	_Z15thread_dispatchv:
 370              	.LFB16:
  90:src/c_api.cpp **** 
  91:src/c_api.cpp **** void thread_dispatch() // WARNING: different than Scheduler::dispatchToNext()
  92:src/c_api.cpp **** {
 371              		.loc 1 92 1 is_stmt 1
 372              		.cfi_startproc
 373 0160 130101FF 		addi	sp,sp,-16
 374              		.cfi_def_cfa_offset 16
 375 0164 23341100 		sd	ra,8(sp)
 376 0168 23308100 		sd	s0,0(sp)
 377              		.cfi_offset 1, -8
 378              		.cfi_offset 8, -16
 379 016c 13040101 		addi	s0,sp,16
 380              		.cfi_def_cfa 8, 0
  93:src/c_api.cpp ****     helper(0x13);
 381              		.loc 1 93 5
 382              		.loc 1 93 11 is_stmt 0
 383 0170 13053001 		li	a0,19
 384 0174 97000000 		call	_ZL6helperm
 384      E7800000 
 385              	.LVL16:
  94:src/c_api.cpp **** }
 386              		.loc 1 94 1
 387 017c 83308100 		ld	ra,8(sp)
 388              		.cfi_restore 1
 389 0180 03340100 		ld	s0,0(sp)
 390              		.cfi_restore 8
 391              		.cfi_def_cfa 2, 16
 392 0184 13010101 		addi	sp,sp,16
 393              		.cfi_def_cfa_offset 0
 394 0188 67800000 		jr	ra
 395              		.cfi_endproc
 396              	.LFE16:
 398              		.align	2
GAS LISTING /tmp/cct92wyA.s 			page 10


 399              		.globl	_Z11thread_exitv
 401              	_Z11thread_exitv:
 402              	.LFB17:
  95:src/c_api.cpp **** 
  96:src/c_api.cpp **** int thread_exit()
  97:src/c_api.cpp **** {
 403              		.loc 1 97 1 is_stmt 1
 404              		.cfi_startproc
 405 018c 130101FF 		addi	sp,sp,-16
 406              		.cfi_def_cfa_offset 16
 407 0190 23341100 		sd	ra,8(sp)
 408 0194 23308100 		sd	s0,0(sp)
 409              		.cfi_offset 1, -8
 410              		.cfi_offset 8, -16
 411 0198 13040101 		addi	s0,sp,16
 412              		.cfi_def_cfa 8, 0
  98:src/c_api.cpp ****     return helperRet32(0x12);
 413              		.loc 1 98 5
 414              		.loc 1 98 23 is_stmt 0
 415 019c 13052001 		li	a0,18
 416 01a0 97000000 		call	_ZL11helperRet32m
 416      E7800000 
 417              	.LVL17:
  99:src/c_api.cpp **** }
 418              		.loc 1 99 1
 419 01a8 83308100 		ld	ra,8(sp)
 420              		.cfi_restore 1
 421 01ac 03340100 		ld	s0,0(sp)
 422              		.cfi_restore 8
 423              		.cfi_def_cfa 2, 16
 424 01b0 13010101 		addi	sp,sp,16
 425              		.cfi_def_cfa_offset 0
 426 01b4 67800000 		jr	ra
 427              		.cfi_endproc
 428              	.LFE17:
 430              		.align	2
 431              		.globl	_Z13thread_createPmPFvPvES0_
 433              	_Z13thread_createPmPFvPvES0_:
 434              	.LFB18:
 100:src/c_api.cpp **** 
 101:src/c_api.cpp **** int thread_create(thread_t* handle, void(*start_routine)(void*), void*arg)
 102:src/c_api.cpp **** {
 435              		.loc 1 102 1 is_stmt 1
 436              		.cfi_startproc
 437              	.LVL18:
 438 01b8 130101FF 		addi	sp,sp,-16
 439              		.cfi_def_cfa_offset 16
 440 01bc 23341100 		sd	ra,8(sp)
 441 01c0 23308100 		sd	s0,0(sp)
 442              		.cfi_offset 1, -8
 443              		.cfi_offset 8, -16
 444 01c4 13040101 		addi	s0,sp,16
 445              		.cfi_def_cfa 8, 0
 446 01c8 93060600 		mv	a3,a2
 103:src/c_api.cpp ****     return helperRet32P164P264P364(0x11, (uint64)handle, (uint64)start_routine, (uint64)arg);
 447              		.loc 1 103 5
 448              		.loc 1 103 35 is_stmt 0
GAS LISTING /tmp/cct92wyA.s 			page 11


 449 01cc 13860500 		mv	a2,a1
 450              	.LVL19:
 451 01d0 93050500 		mv	a1,a0
 452              	.LVL20:
 453 01d4 13051001 		li	a0,17
 454              	.LVL21:
 455 01d8 97000000 		call	_Z23helperRet32P164P264P364mmmm
 455      E7800000 
 456              	.LVL22:
 104:src/c_api.cpp **** }
 457              		.loc 1 104 1
 458 01e0 83308100 		ld	ra,8(sp)
 459              		.cfi_restore 1
 460 01e4 03340100 		ld	s0,0(sp)
 461              		.cfi_restore 8
 462              		.cfi_def_cfa 2, 16
 463 01e8 13010101 		addi	sp,sp,16
 464              		.cfi_def_cfa_offset 0
 465 01ec 67800000 		jr	ra
 466              		.cfi_endproc
 467              	.LFE18:
 469              		.align	2
 470              		.globl	_Z11thread_joinm
 472              	_Z11thread_joinm:
 473              	.LFB19:
 105:src/c_api.cpp **** 
 106:src/c_api.cpp **** void thread_join(thread_t handle)
 107:src/c_api.cpp **** {
 474              		.loc 1 107 1 is_stmt 1
 475              		.cfi_startproc
 476              	.LVL23:
 477 01f0 130101FF 		addi	sp,sp,-16
 478              		.cfi_def_cfa_offset 16
 479 01f4 23341100 		sd	ra,8(sp)
 480 01f8 23308100 		sd	s0,0(sp)
 481              		.cfi_offset 1, -8
 482              		.cfi_offset 8, -16
 483 01fc 13040101 		addi	s0,sp,16
 484              		.cfi_def_cfa 8, 0
 485 0200 93050500 		mv	a1,a0
 108:src/c_api.cpp ****     helperP164(0x14, handle);
 486              		.loc 1 108 5
 487              		.loc 1 108 15 is_stmt 0
 488 0204 13054001 		li	a0,20
 489              	.LVL24:
 490 0208 97000000 		call	_Z10helperP164mm
 490      E7800000 
 491              	.LVL25:
 109:src/c_api.cpp **** }
 492              		.loc 1 109 1
 493 0210 83308100 		ld	ra,8(sp)
 494              		.cfi_restore 1
 495 0214 03340100 		ld	s0,0(sp)
 496              		.cfi_restore 8
 497              		.cfi_def_cfa 2, 16
 498 0218 13010101 		addi	sp,sp,16
 499              		.cfi_def_cfa_offset 0
GAS LISTING /tmp/cct92wyA.s 			page 12


 500 021c 67800000 		jr	ra
 501              		.cfi_endproc
 502              	.LFE19:
 504              		.align	2
 505              		.globl	_Z9test_callm
 507              	_Z9test_callm:
 508              	.LFB20:
 110:src/c_api.cpp **** 
 111:src/c_api.cpp **** uint64 test_call(uint64 n)
 112:src/c_api.cpp **** {
 509              		.loc 1 112 1 is_stmt 1
 510              		.cfi_startproc
 511              	.LVL26:
 512 0220 130101FF 		addi	sp,sp,-16
 513              		.cfi_def_cfa_offset 16
 514 0224 23341100 		sd	ra,8(sp)
 515 0228 23308100 		sd	s0,0(sp)
 516              		.cfi_offset 1, -8
 517              		.cfi_offset 8, -16
 518 022c 13040101 		addi	s0,sp,16
 519              		.cfi_def_cfa 8, 0
 520 0230 93050500 		mv	a1,a0
 113:src/c_api.cpp ****     return helperRet64P164(3, n);
 521              		.loc 1 113 5
 522              		.loc 1 113 27 is_stmt 0
 523 0234 13053000 		li	a0,3
 524              	.LVL27:
 525 0238 97000000 		call	_ZL15helperRet64P164mm
 525      E7800000 
 526              	.LVL28:
 114:src/c_api.cpp **** }
 527              		.loc 1 114 1
 528 0240 83308100 		ld	ra,8(sp)
 529              		.cfi_restore 1
 530 0244 03340100 		ld	s0,0(sp)
 531              		.cfi_restore 8
 532              		.cfi_def_cfa 2, 16
 533 0248 13010101 		addi	sp,sp,16
 534              		.cfi_def_cfa_offset 0
 535 024c 67800000 		jr	ra
 536              		.cfi_endproc
 537              	.LFE20:
 539              		.align	2
 540              		.globl	_Z4getcv
 542              	_Z4getcv:
 543              	.LFB21:
 115:src/c_api.cpp **** 
 116:src/c_api.cpp **** char getc()
 117:src/c_api.cpp **** {
 544              		.loc 1 117 1 is_stmt 1
 545              		.cfi_startproc
 546 0250 130101FF 		addi	sp,sp,-16
 547              		.cfi_def_cfa_offset 16
 548 0254 23341100 		sd	ra,8(sp)
 549 0258 23308100 		sd	s0,0(sp)
 550              		.cfi_offset 1, -8
 551              		.cfi_offset 8, -16
GAS LISTING /tmp/cct92wyA.s 			page 13


 552 025c 13040101 		addi	s0,sp,16
 553              		.cfi_def_cfa 8, 0
 118:src/c_api.cpp ****     return helperRet8(0x41);
 554              		.loc 1 118 5
 555              		.loc 1 118 22 is_stmt 0
 556 0260 13051004 		li	a0,65
 557 0264 97000000 		call	_Z10helperRet8m
 557      E7800000 
 558              	.LVL29:
 119:src/c_api.cpp **** }
 559              		.loc 1 119 1
 560 026c 83308100 		ld	ra,8(sp)
 561              		.cfi_restore 1
 562 0270 03340100 		ld	s0,0(sp)
 563              		.cfi_restore 8
 564              		.cfi_def_cfa 2, 16
 565 0274 13010101 		addi	sp,sp,16
 566              		.cfi_def_cfa_offset 0
 567 0278 67800000 		jr	ra
 568              		.cfi_endproc
 569              	.LFE21:
 571              		.align	2
 572              		.globl	_Z4putcc
 574              	_Z4putcc:
 575              	.LFB22:
 120:src/c_api.cpp **** 
 121:src/c_api.cpp **** void putc(char c)
 122:src/c_api.cpp **** {
 576              		.loc 1 122 1 is_stmt 1
 577              		.cfi_startproc
 578              	.LVL30:
 579 027c 130101FF 		addi	sp,sp,-16
 580              		.cfi_def_cfa_offset 16
 581 0280 23341100 		sd	ra,8(sp)
 582 0284 23308100 		sd	s0,0(sp)
 583              		.cfi_offset 1, -8
 584              		.cfi_offset 8, -16
 585 0288 13040101 		addi	s0,sp,16
 586              		.cfi_def_cfa 8, 0
 587 028c 93050500 		mv	a1,a0
 123:src/c_api.cpp **** //    uint64 a;
 124:src/c_api.cpp **** //    *((char*)(&a)) = c;
 125:src/c_api.cpp **** //
 126:src/c_api.cpp **** //    helperP164(0x42, a);
 127:src/c_api.cpp ****     Console::get()->putc(c);
 588              		.loc 1 127 5
 589              	.LBB10:
 590              	.LBB11:
 591              		.file 2 "src/../h/0_console.h"
   1:src/../h/0_console.h **** #pragma once
   2:src/../h/0_console.h **** 
   3:src/../h/0_console.h **** #include "../lib/hw.h"
   4:src/../h/0_console.h **** 
   5:src/../h/0_console.h **** #define PUT_BUFFER_SIZE 1000
   6:src/../h/0_console.h **** 
   7:src/../h/0_console.h **** class Console // singleton class
   8:src/../h/0_console.h **** {
GAS LISTING /tmp/cct92wyA.s 			page 14


   9:src/../h/0_console.h **** public:
  10:src/../h/0_console.h ****     static Console* get()
  11:src/../h/0_console.h ****     {
  12:src/../h/0_console.h ****         static Console instance;
 592              		.loc 2 12 9
 593              		.loc 2 12 24 is_stmt 0
 594 0290 97070000 		lbu	a5,_ZGVZN7Console3getEvE8instance
 594      83C70700 
 595 0298 63920702 		bnez	a5,.L30
 596              	.LVL31:
 597              	.LBB12:
 598              	.LBB13:
 599              	.LBB14:
  13:src/../h/0_console.h ****         return &instance;
  14:src/../h/0_console.h ****     }
  15:src/../h/0_console.h **** 
  16:src/../h/0_console.h ****     uint64 putBufferHead, putBufferTail;
  17:src/../h/0_console.h ****     char putBuffer[PUT_BUFFER_SIZE];
  18:src/../h/0_console.h ****     uint64 putBufferItems;
  19:src/../h/0_console.h **** 
  20:src/../h/0_console.h ****     void putc(char c);
  21:src/../h/0_console.h ****     char getc();
  22:src/../h/0_console.h ****     void consoleHandler();
  23:src/../h/0_console.h **** 
  24:src/../h/0_console.h **** private:
  25:src/../h/0_console.h ****     Console()
  26:src/../h/0_console.h ****         : putBufferHead(0), putBufferTail(0), putBufferItems(0)
 600              		.loc 2 26 63
 601 029c 97070000 		lla	a5,_ZZN7Console3getEvE8instance
 601      93870700 
 602 02a4 23B00700 		sd	zero,0(a5)
 603 02a8 23B40700 		sd	zero,8(a5)
 604 02ac 23BC073E 		sd	zero,1016(a5)
 605              	.LVL32:
 606              	.LBE14:
 607              	.LBE13:
 608              	.LBE12:
  12:src/../h/0_console.h ****         return &instance;
 609              		.loc 2 12 24
 610 02b0 93071000 		li	a5,1
 611 02b4 17070000 		sb	a5,_ZGVZN7Console3getEvE8instance,a4
 611      2300F700 
 612              	.L30:
  13:src/../h/0_console.h ****         return &instance;
 613              		.loc 2 13 9 is_stmt 1
 614              	.LBE11:
 615              	.LBE10:
 616              		.loc 1 127 25 is_stmt 0
 617 02bc 17050000 		lla	a0,_ZZN7Console3getEvE8instance
 617      13050500 
 618              	.LVL33:
 619 02c4 97000000 		call	_ZN7Console4putcEc@plt
 619      E7800000 
 620              	.LVL34:
 128:src/c_api.cpp **** }...
 621              		.loc 1 128 1
 622 02cc 83308100 		ld	ra,8(sp)
GAS LISTING /tmp/cct92wyA.s 			page 15


 623              		.cfi_restore 1
 624 02d0 03340100 		ld	s0,0(sp)
 625              		.cfi_restore 8
 626              		.cfi_def_cfa 2, 16
 627 02d4 13010101 		addi	sp,sp,16
 628              		.cfi_def_cfa_offset 0
 629 02d8 67800000 		jr	ra
 630              		.cfi_endproc
 631              	.LFE22:
 633              		.weak	_ZGVZN7Console3getEvE8instance
 634              		.section	.bss._ZGVZN7Console3getEvE8instance,"awG",@nobits,_ZGVZN7Console3getEvE8instance,comdat
 635              		.align	3
 638              	_ZGVZN7Console3getEvE8instance:
 639 0000 00000000 		.zero	8
 639      00000000 
 640              		.weak	_ZZN7Console3getEvE8instance
 641              		.section	.bss._ZZN7Console3getEvE8instance,"awG",@nobits,_ZZN7Console3getEvE8instance,comdat
 642              		.align	3
 645              	_ZZN7Console3getEvE8instance:
 646 0000 00000000 		.zero	1024
 646      00000000 
 646      00000000 
 646      00000000 
 646      00000000 
 647              		.text
 648              	.Letext0:
 649              		.file 3 "src/../h/../lib/hw.h"
 650              		.file 4 "src/../h/c_api.h"
GAS LISTING /tmp/cct92wyA.s 			page 16


DEFINED SYMBOLS
                            *ABS*:0000000000000000 c_api.cpp
     /tmp/cct92wyA.s:8      .text:0000000000000000 _ZL15helperRet64P164mm
     /tmp/cct92wyA.s:12     .text:0000000000000000 .L0 
     /tmp/cct92wyA.s:14     .text:0000000000000000 .L0 
     /tmp/cct92wyA.s:15     .text:0000000000000004 .L0 
     /tmp/cct92wyA.s:17     .text:0000000000000008 .L0 
     /tmp/cct92wyA.s:19     .text:000000000000000c .L0 
     /tmp/cct92wyA.s:21     .text:000000000000000c .L0 
       src/c_api.cpp:48     .text:000000000000000c .L0 
     /tmp/cct92wyA.s:27     .text:0000000000000010 .L0 
       src/c_api.cpp:49     .text:0000000000000010 .L0 
     /tmp/cct92wyA.s:32     .text:0000000000000014 .L0 
       src/c_api.cpp:51     .text:0000000000000014 .L0 
     /tmp/cct92wyA.s:37     .text:0000000000000018 .L0 
       src/c_api.cpp:53     .text:0000000000000018 .L0 
     /tmp/cct92wyA.s:42     .text:000000000000001c .L0 
     /tmp/cct92wyA.s:43     .text:000000000000001c .L0 
       src/c_api.cpp:56     .text:000000000000001c .L0 
     /tmp/cct92wyA.s:49     .text:0000000000000020 .L0 
     /tmp/cct92wyA.s:51     .text:0000000000000020 .L0 
     /tmp/cct92wyA.s:52     .text:0000000000000024 .L0 
     /tmp/cct92wyA.s:53     .text:0000000000000024 .L0 
     /tmp/cct92wyA.s:55     .text:0000000000000028 .L0 
     /tmp/cct92wyA.s:57     .text:000000000000002c .L0 
     /tmp/cct92wyA.s:62     .text:000000000000002c _ZL11helperRet32m
     /tmp/cct92wyA.s:65     .text:000000000000002c .L0 
     /tmp/cct92wyA.s:67     .text:000000000000002c .L0 
     /tmp/cct92wyA.s:68     .text:0000000000000030 .L0 
     /tmp/cct92wyA.s:70     .text:0000000000000034 .L0 
     /tmp/cct92wyA.s:72     .text:0000000000000038 .L0 
     /tmp/cct92wyA.s:74     .text:0000000000000038 .L0 
       src/c_api.cpp:63     .text:0000000000000038 .L0 
     /tmp/cct92wyA.s:80     .text:000000000000003c .L0 
       src/c_api.cpp:65     .text:000000000000003c .L0 
     /tmp/cct92wyA.s:85     .text:0000000000000040 .L0 
     /tmp/cct92wyA.s:86     .text:0000000000000040 .L0 
       src/c_api.cpp:68     .text:0000000000000040 .L0 
     /tmp/cct92wyA.s:92     .text:0000000000000044 .L0 
     /tmp/cct92wyA.s:94     .text:0000000000000044 .L0 
     /tmp/cct92wyA.s:96     .text:000000000000004c .L0 
     /tmp/cct92wyA.s:97     .text:000000000000004c .L0 
     /tmp/cct92wyA.s:99     .text:0000000000000050 .L0 
     /tmp/cct92wyA.s:101    .text:0000000000000054 .L0 
     /tmp/cct92wyA.s:106    .text:0000000000000054 _ZL6helperm
     /tmp/cct92wyA.s:109    .text:0000000000000054 .L0 
     /tmp/cct92wyA.s:111    .text:0000000000000054 .L0 
     /tmp/cct92wyA.s:112    .text:0000000000000058 .L0 
     /tmp/cct92wyA.s:114    .text:000000000000005c .L0 
     /tmp/cct92wyA.s:116    .text:0000000000000060 .L0 
     /tmp/cct92wyA.s:118    .text:0000000000000060 .L0 
       src/c_api.cpp:75     .text:0000000000000060 .L0 
     /tmp/cct92wyA.s:124    .text:0000000000000064 .L0 
       src/c_api.cpp:76     .text:0000000000000064 .L0 
     /tmp/cct92wyA.s:129    .text:0000000000000068 .L0 
       src/c_api.cpp:78     .text:0000000000000068 .L0 
     /tmp/cct92wyA.s:135    .text:000000000000006c .L0 
GAS LISTING /tmp/cct92wyA.s 			page 17


     /tmp/cct92wyA.s:136    .text:0000000000000070 .L0 
     /tmp/cct92wyA.s:137    .text:0000000000000070 .L0 
     /tmp/cct92wyA.s:139    .text:0000000000000074 .L0 
     /tmp/cct92wyA.s:141    .text:0000000000000078 .L0 
     /tmp/cct92wyA.s:147    .text:0000000000000078 _Z10helperRet8m
     /tmp/cct92wyA.s:150    .text:0000000000000078 .L0 
     /tmp/cct92wyA.s:152    .text:0000000000000078 .L0 
     /tmp/cct92wyA.s:153    .text:000000000000007c .L0 
     /tmp/cct92wyA.s:155    .text:0000000000000080 .L0 
     /tmp/cct92wyA.s:157    .text:0000000000000084 .L0 
     /tmp/cct92wyA.s:159    .text:0000000000000084 .L0 
       src/c_api.cpp:11     .text:0000000000000084 .L0 
     /tmp/cct92wyA.s:165    .text:0000000000000088 .L0 
       src/c_api.cpp:13     .text:0000000000000088 .L0 
     /tmp/cct92wyA.s:170    .text:000000000000008c .L0 
     /tmp/cct92wyA.s:171    .text:000000000000008c .L0 
       src/c_api.cpp:16     .text:000000000000008c .L0 
     /tmp/cct92wyA.s:177    .text:0000000000000090 .L0 
     /tmp/cct92wyA.s:179    .text:0000000000000090 .L0 
     /tmp/cct92wyA.s:181    .text:0000000000000098 .L0 
     /tmp/cct92wyA.s:182    .text:0000000000000098 .L0 
     /tmp/cct92wyA.s:184    .text:000000000000009c .L0 
     /tmp/cct92wyA.s:186    .text:00000000000000a0 .L0 
     /tmp/cct92wyA.s:192    .text:00000000000000a0 _Z10helperP164mm
     /tmp/cct92wyA.s:195    .text:00000000000000a0 .L0 
     /tmp/cct92wyA.s:197    .text:00000000000000a0 .L0 
     /tmp/cct92wyA.s:198    .text:00000000000000a4 .L0 
     /tmp/cct92wyA.s:200    .text:00000000000000a8 .L0 
     /tmp/cct92wyA.s:202    .text:00000000000000ac .L0 
     /tmp/cct92wyA.s:204    .text:00000000000000ac .L0 
       src/c_api.cpp:23     .text:00000000000000ac .L0 
     /tmp/cct92wyA.s:210    .text:00000000000000b0 .L0 
       src/c_api.cpp:24     .text:00000000000000b0 .L0 
     /tmp/cct92wyA.s:215    .text:00000000000000b4 .L0 
       src/c_api.cpp:26     .text:00000000000000b4 .L0 
     /tmp/cct92wyA.s:221    .text:00000000000000b8 .L0 
     /tmp/cct92wyA.s:222    .text:00000000000000bc .L0 
     /tmp/cct92wyA.s:223    .text:00000000000000bc .L0 
     /tmp/cct92wyA.s:225    .text:00000000000000c0 .L0 
     /tmp/cct92wyA.s:227    .text:00000000000000c4 .L0 
     /tmp/cct92wyA.s:233    .text:00000000000000c4 _Z23helperRet32P164P264P364mmmm
     /tmp/cct92wyA.s:236    .text:00000000000000c4 .L0 
     /tmp/cct92wyA.s:238    .text:00000000000000c4 .L0 
     /tmp/cct92wyA.s:239    .text:00000000000000c8 .L0 
     /tmp/cct92wyA.s:241    .text:00000000000000cc .L0 
     /tmp/cct92wyA.s:243    .text:00000000000000d0 .L0 
     /tmp/cct92wyA.s:245    .text:00000000000000d0 .L0 
       src/c_api.cpp:31     .text:00000000000000d0 .L0 
     /tmp/cct92wyA.s:251    .text:00000000000000d4 .L0 
       src/c_api.cpp:32     .text:00000000000000d4 .L0 
     /tmp/cct92wyA.s:256    .text:00000000000000d8 .L0 
       src/c_api.cpp:33     .text:00000000000000d8 .L0 
     /tmp/cct92wyA.s:261    .text:00000000000000dc .L0 
       src/c_api.cpp:34     .text:00000000000000dc .L0 
     /tmp/cct92wyA.s:266    .text:00000000000000e0 .L0 
       src/c_api.cpp:36     .text:00000000000000e0 .L0 
     /tmp/cct92wyA.s:271    .text:00000000000000e4 .L0 
GAS LISTING /tmp/cct92wyA.s 			page 18


       src/c_api.cpp:38     .text:00000000000000e4 .L0 
     /tmp/cct92wyA.s:276    .text:00000000000000e8 .L0 
     /tmp/cct92wyA.s:277    .text:00000000000000e8 .L0 
       src/c_api.cpp:41     .text:00000000000000e8 .L0 
     /tmp/cct92wyA.s:283    .text:00000000000000ec .L0 
     /tmp/cct92wyA.s:285    .text:00000000000000ec .L0 
     /tmp/cct92wyA.s:287    .text:00000000000000f4 .L0 
     /tmp/cct92wyA.s:288    .text:00000000000000f4 .L0 
     /tmp/cct92wyA.s:290    .text:00000000000000f8 .L0 
     /tmp/cct92wyA.s:292    .text:00000000000000fc .L0 
     /tmp/cct92wyA.s:298    .text:00000000000000fc _Z9mem_allocm
     /tmp/cct92wyA.s:301    .text:00000000000000fc .L0 
     /tmp/cct92wyA.s:303    .text:00000000000000fc .L0 
     /tmp/cct92wyA.s:304    .text:0000000000000100 .L0 
     /tmp/cct92wyA.s:307    .text:0000000000000108 .L0 
     /tmp/cct92wyA.s:308    .text:0000000000000108 .L0 
     /tmp/cct92wyA.s:310    .text:000000000000010c .L0 
     /tmp/cct92wyA.s:313    .text:0000000000000110 .L0 
     /tmp/cct92wyA.s:314    .text:0000000000000110 .L0 
     /tmp/cct92wyA.s:319    .text:000000000000011c .L0 
     /tmp/cct92wyA.s:320    .text:0000000000000120 .L0 
     /tmp/cct92wyA.s:322    .text:0000000000000124 .L0 
     /tmp/cct92wyA.s:323    .text:0000000000000124 .L0 
     /tmp/cct92wyA.s:325    .text:0000000000000128 .L0 
     /tmp/cct92wyA.s:327    .text:000000000000012c .L0 
     /tmp/cct92wyA.s:333    .text:000000000000012c _Z8mem_freePv
     /tmp/cct92wyA.s:336    .text:000000000000012c .L0 
     /tmp/cct92wyA.s:338    .text:000000000000012c .L0 
     /tmp/cct92wyA.s:339    .text:0000000000000130 .L0 
     /tmp/cct92wyA.s:342    .text:0000000000000138 .L0 
     /tmp/cct92wyA.s:343    .text:0000000000000138 .L0 
     /tmp/cct92wyA.s:345    .text:000000000000013c .L0 
     /tmp/cct92wyA.s:348    .text:0000000000000140 .L0 
     /tmp/cct92wyA.s:349    .text:0000000000000140 .L0 
     /tmp/cct92wyA.s:354    .text:000000000000014c .L0 
     /tmp/cct92wyA.s:356    .text:0000000000000154 .L0 
     /tmp/cct92wyA.s:358    .text:0000000000000158 .L0 
     /tmp/cct92wyA.s:359    .text:0000000000000158 .L0 
     /tmp/cct92wyA.s:361    .text:000000000000015c .L0 
     /tmp/cct92wyA.s:363    .text:0000000000000160 .L0 
     /tmp/cct92wyA.s:369    .text:0000000000000160 _Z15thread_dispatchv
     /tmp/cct92wyA.s:372    .text:0000000000000160 .L0 
     /tmp/cct92wyA.s:373    .text:0000000000000160 .L0 
     /tmp/cct92wyA.s:374    .text:0000000000000164 .L0 
     /tmp/cct92wyA.s:377    .text:000000000000016c .L0 
     /tmp/cct92wyA.s:378    .text:000000000000016c .L0 
     /tmp/cct92wyA.s:380    .text:0000000000000170 .L0 
     /tmp/cct92wyA.s:382    .text:0000000000000170 .L0 
     /tmp/cct92wyA.s:383    .text:0000000000000170 .L0 
     /tmp/cct92wyA.s:387    .text:000000000000017c .L0 
     /tmp/cct92wyA.s:388    .text:0000000000000180 .L0 
     /tmp/cct92wyA.s:390    .text:0000000000000184 .L0 
     /tmp/cct92wyA.s:391    .text:0000000000000184 .L0 
     /tmp/cct92wyA.s:393    .text:0000000000000188 .L0 
     /tmp/cct92wyA.s:395    .text:000000000000018c .L0 
     /tmp/cct92wyA.s:401    .text:000000000000018c _Z11thread_exitv
     /tmp/cct92wyA.s:404    .text:000000000000018c .L0 
GAS LISTING /tmp/cct92wyA.s 			page 19


     /tmp/cct92wyA.s:405    .text:000000000000018c .L0 
     /tmp/cct92wyA.s:406    .text:0000000000000190 .L0 
     /tmp/cct92wyA.s:409    .text:0000000000000198 .L0 
     /tmp/cct92wyA.s:410    .text:0000000000000198 .L0 
     /tmp/cct92wyA.s:412    .text:000000000000019c .L0 
     /tmp/cct92wyA.s:414    .text:000000000000019c .L0 
     /tmp/cct92wyA.s:415    .text:000000000000019c .L0 
     /tmp/cct92wyA.s:419    .text:00000000000001a8 .L0 
     /tmp/cct92wyA.s:420    .text:00000000000001ac .L0 
     /tmp/cct92wyA.s:422    .text:00000000000001b0 .L0 
     /tmp/cct92wyA.s:423    .text:00000000000001b0 .L0 
     /tmp/cct92wyA.s:425    .text:00000000000001b4 .L0 
     /tmp/cct92wyA.s:427    .text:00000000000001b8 .L0 
     /tmp/cct92wyA.s:433    .text:00000000000001b8 _Z13thread_createPmPFvPvES0_
     /tmp/cct92wyA.s:436    .text:00000000000001b8 .L0 
     /tmp/cct92wyA.s:438    .text:00000000000001b8 .L0 
     /tmp/cct92wyA.s:439    .text:00000000000001bc .L0 
     /tmp/cct92wyA.s:442    .text:00000000000001c4 .L0 
     /tmp/cct92wyA.s:443    .text:00000000000001c4 .L0 
     /tmp/cct92wyA.s:445    .text:00000000000001c8 .L0 
     /tmp/cct92wyA.s:448    .text:00000000000001cc .L0 
     /tmp/cct92wyA.s:449    .text:00000000000001cc .L0 
     /tmp/cct92wyA.s:458    .text:00000000000001e0 .L0 
     /tmp/cct92wyA.s:459    .text:00000000000001e4 .L0 
     /tmp/cct92wyA.s:461    .text:00000000000001e8 .L0 
     /tmp/cct92wyA.s:462    .text:00000000000001e8 .L0 
     /tmp/cct92wyA.s:464    .text:00000000000001ec .L0 
     /tmp/cct92wyA.s:466    .text:00000000000001f0 .L0 
     /tmp/cct92wyA.s:472    .text:00000000000001f0 _Z11thread_joinm
     /tmp/cct92wyA.s:475    .text:00000000000001f0 .L0 
     /tmp/cct92wyA.s:477    .text:00000000000001f0 .L0 
     /tmp/cct92wyA.s:478    .text:00000000000001f4 .L0 
     /tmp/cct92wyA.s:481    .text:00000000000001fc .L0 
     /tmp/cct92wyA.s:482    .text:00000000000001fc .L0 
     /tmp/cct92wyA.s:484    .text:0000000000000200 .L0 
     /tmp/cct92wyA.s:487    .text:0000000000000204 .L0 
     /tmp/cct92wyA.s:488    .text:0000000000000204 .L0 
     /tmp/cct92wyA.s:493    .text:0000000000000210 .L0 
     /tmp/cct92wyA.s:494    .text:0000000000000214 .L0 
     /tmp/cct92wyA.s:496    .text:0000000000000218 .L0 
     /tmp/cct92wyA.s:497    .text:0000000000000218 .L0 
     /tmp/cct92wyA.s:499    .text:000000000000021c .L0 
     /tmp/cct92wyA.s:501    .text:0000000000000220 .L0 
     /tmp/cct92wyA.s:507    .text:0000000000000220 _Z9test_callm
     /tmp/cct92wyA.s:510    .text:0000000000000220 .L0 
     /tmp/cct92wyA.s:512    .text:0000000000000220 .L0 
     /tmp/cct92wyA.s:513    .text:0000000000000224 .L0 
     /tmp/cct92wyA.s:516    .text:000000000000022c .L0 
     /tmp/cct92wyA.s:517    .text:000000000000022c .L0 
     /tmp/cct92wyA.s:519    .text:0000000000000230 .L0 
     /tmp/cct92wyA.s:522    .text:0000000000000234 .L0 
     /tmp/cct92wyA.s:523    .text:0000000000000234 .L0 
     /tmp/cct92wyA.s:528    .text:0000000000000240 .L0 
     /tmp/cct92wyA.s:529    .text:0000000000000244 .L0 
     /tmp/cct92wyA.s:531    .text:0000000000000248 .L0 
     /tmp/cct92wyA.s:532    .text:0000000000000248 .L0 
     /tmp/cct92wyA.s:534    .text:000000000000024c .L0 
GAS LISTING /tmp/cct92wyA.s 			page 20


     /tmp/cct92wyA.s:536    .text:0000000000000250 .L0 
     /tmp/cct92wyA.s:542    .text:0000000000000250 _Z4getcv
     /tmp/cct92wyA.s:545    .text:0000000000000250 .L0 
     /tmp/cct92wyA.s:546    .text:0000000000000250 .L0 
     /tmp/cct92wyA.s:547    .text:0000000000000254 .L0 
     /tmp/cct92wyA.s:550    .text:000000000000025c .L0 
     /tmp/cct92wyA.s:551    .text:000000000000025c .L0 
     /tmp/cct92wyA.s:553    .text:0000000000000260 .L0 
     /tmp/cct92wyA.s:555    .text:0000000000000260 .L0 
     /tmp/cct92wyA.s:556    .text:0000000000000260 .L0 
     /tmp/cct92wyA.s:560    .text:000000000000026c .L0 
     /tmp/cct92wyA.s:561    .text:0000000000000270 .L0 
     /tmp/cct92wyA.s:563    .text:0000000000000274 .L0 
     /tmp/cct92wyA.s:564    .text:0000000000000274 .L0 
     /tmp/cct92wyA.s:566    .text:0000000000000278 .L0 
     /tmp/cct92wyA.s:568    .text:000000000000027c .L0 
     /tmp/cct92wyA.s:574    .text:000000000000027c _Z4putcc
     /tmp/cct92wyA.s:577    .text:000000000000027c .L0 
     /tmp/cct92wyA.s:579    .text:000000000000027c .L0 
     /tmp/cct92wyA.s:580    .text:0000000000000280 .L0 
     /tmp/cct92wyA.s:583    .text:0000000000000288 .L0 
     /tmp/cct92wyA.s:584    .text:0000000000000288 .L0 
     /tmp/cct92wyA.s:586    .text:000000000000028c .L0 
     /tmp/cct92wyA.s:592    .text:0000000000000290 .L0 
     /tmp/cct92wyA.s:593    .text:0000000000000290 .L0 
     /tmp/cct92wyA.s:638    .bss._ZGVZN7Console3getEvE8instance:0000000000000000 _ZGVZN7Console3getEvE8instance
     /tmp/cct92wyA.s:594    .text:0000000000000290 .L0 
     /tmp/cct92wyA.s:645    .bss._ZZN7Console3getEvE8instance:0000000000000000 _ZZN7Console3getEvE8instance
     /tmp/cct92wyA.s:601    .text:000000000000029c .L0 
     /tmp/cct92wyA.s:610    .text:00000000000002b0 .L0 
     /tmp/cct92wyA.s:616    .text:00000000000002bc .L0 
     /tmp/cct92wyA.s:617    .text:00000000000002bc .L0 
     /tmp/cct92wyA.s:622    .text:00000000000002cc .L0 
     /tmp/cct92wyA.s:623    .text:00000000000002d0 .L0 
     /tmp/cct92wyA.s:625    .text:00000000000002d4 .L0 
     /tmp/cct92wyA.s:626    .text:00000000000002d4 .L0 
     /tmp/cct92wyA.s:628    .text:00000000000002d8 .L0 
     /tmp/cct92wyA.s:630    .text:00000000000002dc .L0 
     /tmp/cct92wyA.s:651    .text:00000000000002dc .L0 
     /tmp/cct92wyA.s:594    .text:0000000000000290 .L0 
     /tmp/cct92wyA.s:601    .text:000000000000029c .L0 
     /tmp/cct92wyA.s:611    .text:00000000000002b4 .L0 
     /tmp/cct92wyA.s:617    .text:00000000000002bc .L0 
     /tmp/cct92wyA.s:612    .text:00000000000002bc .L30
     /tmp/cct92wyA.s:1460   .debug_abbrev:0000000000000000 .Ldebug_abbrev0
     /tmp/cct92wyA.s:2474   .debug_str:0000000000000338 .LASF61
     /tmp/cct92wyA.s:2464   .debug_str:0000000000000302 .LASF62
     /tmp/cct92wyA.s:2452   .debug_str:00000000000002a4 .LASF63
     /tmp/cct92wyA.s:5      .text:0000000000000000 .Ltext0
     /tmp/cct92wyA.s:648    .text:00000000000002dc .Letext0
     /tmp/cct92wyA.s:2352   .debug_line:0000000000000000 .Ldebug_line0
     /tmp/cct92wyA.s:2428   .debug_str:00000000000001dd .LASF0
     /tmp/cct92wyA.s:2438   .debug_str:000000000000021f .LASF1
     /tmp/cct92wyA.s:2422   .debug_str:00000000000001b7 .LASF2
     /tmp/cct92wyA.s:2414   .debug_str:000000000000018a .LASF4
     /tmp/cct92wyA.s:2466   .debug_str:0000000000000310 .LASF3
     /tmp/cct92wyA.s:2370   .debug_str:000000000000006b .LASF5
GAS LISTING /tmp/cct92wyA.s 			page 21


     /tmp/cct92wyA.s:2444   .debug_str:0000000000000256 .LASF6
     /tmp/cct92wyA.s:2426   .debug_str:00000000000001ca .LASF7
     /tmp/cct92wyA.s:2480   .debug_str:000000000000041d .LASF8
     /tmp/cct92wyA.s:2404   .debug_str:0000000000000154 .LASF9
     /tmp/cct92wyA.s:2450   .debug_str:0000000000000295 .LASF10
     /tmp/cct92wyA.s:2476   .debug_str:00000000000003fc .LASF11
     /tmp/cct92wyA.s:2372   .debug_str:0000000000000072 .LASF12
     /tmp/cct92wyA.s:2358   .debug_str:0000000000000021 .LASF13
     /tmp/cct92wyA.s:2376   .debug_str:0000000000000095 .LASF14
     /tmp/cct92wyA.s:2460   .debug_str:00000000000002dc .LASF15
     /tmp/cct92wyA.s:2388   .debug_str:00000000000000e0 .LASF16
     /tmp/cct92wyA.s:2354   .debug_str:0000000000000000 .LASF17
     /tmp/cct92wyA.s:2396   .debug_str:000000000000011b .LASF18
     /tmp/cct92wyA.s:2410   .debug_str:0000000000000176 .LASF64
     /tmp/cct92wyA.s:2478   .debug_str:000000000000040b .LASF65
     /tmp/cct92wyA.s:2418   .debug_str:00000000000001a2 .LASF19
     /tmp/cct92wyA.s:2390   .debug_str:00000000000000f6 .LASF20
     /tmp/cct92wyA.s:2486   .debug_str:0000000000000449 .LASF21
     /tmp/cct92wyA.s:2406   .debug_str:0000000000000162 .LASF22
     /tmp/cct92wyA.s:2424   .debug_str:00000000000001c5 .LASF23
     /tmp/cct92wyA.s:2440   .debug_str:0000000000000232 .LASF25
     /tmp/cct92wyA.s:2360   .debug_str:0000000000000031 .LASF28
     /tmp/cct92wyA.s:2374   .debug_str:0000000000000082 .LASF29
     /tmp/cct92wyA.s:2490   .debug_str:0000000000000463 .LASF24
     /tmp/cct92wyA.s:2446   .debug_str:0000000000000269 .LASF26
     /tmp/cct92wyA.s:2462   .debug_str:00000000000002f2 .LASF66
     /tmp/cct92wyA.s:2408   .debug_str:0000000000000171 .LASF27
     /tmp/cct92wyA.s:2400   .debug_str:000000000000013d .LASF30
     /tmp/cct92wyA.s:575    .text:000000000000027c .LFB22
     /tmp/cct92wyA.s:631    .text:00000000000002dc .LFE22
     /tmp/cct92wyA.s:2134   .debug_loc:0000000000000000 .LLST11
     /tmp/cct92wyA.s:589    .text:0000000000000290 .LBB10
     /tmp/cct92wyA.s:615    .text:00000000000002bc .LBE10
     /tmp/cct92wyA.s:597    .text:000000000000029c .LBB12
     /tmp/cct92wyA.s:608    .text:00000000000002b0 .LBE12
     /tmp/cct92wyA.s:2148   .debug_loc:0000000000000039 .LLST12
     /tmp/cct92wyA.s:620    .text:00000000000002cc .LVL34
     /tmp/cct92wyA.s:2368   .debug_str:0000000000000062 .LASF32
     /tmp/cct92wyA.s:543    .text:0000000000000250 .LFB21
     /tmp/cct92wyA.s:569    .text:000000000000027c .LFE21
     /tmp/cct92wyA.s:558    .text:000000000000026c .LVL29
     /tmp/cct92wyA.s:2436   .debug_str:0000000000000215 .LASF31
     /tmp/cct92wyA.s:2458   .debug_str:00000000000002ce .LASF33
     /tmp/cct92wyA.s:508    .text:0000000000000220 .LFB20
     /tmp/cct92wyA.s:537    .text:0000000000000250 .LFE20
     /tmp/cct92wyA.s:2157   .debug_loc:0000000000000065 .LLST10
     /tmp/cct92wyA.s:526    .text:0000000000000240 .LVL28
     /tmp/cct92wyA.s:2412   .debug_str:000000000000017e .LASF34
     /tmp/cct92wyA.s:2416   .debug_str:0000000000000191 .LASF35
     /tmp/cct92wyA.s:473    .text:00000000000001f0 .LFB19
     /tmp/cct92wyA.s:502    .text:0000000000000220 .LFE19
     /tmp/cct92wyA.s:2470   .debug_str:000000000000032c .LASF36
     /tmp/cct92wyA.s:2175   .debug_loc:00000000000000b1 .LLST9
     /tmp/cct92wyA.s:491    .text:0000000000000210 .LVL25
     /tmp/cct92wyA.s:2392   .debug_str:0000000000000104 .LASF37
     /tmp/cct92wyA.s:2434   .debug_str:00000000000001f8 .LASF38
     /tmp/cct92wyA.s:434    .text:00000000000001b8 .LFB18
GAS LISTING /tmp/cct92wyA.s 			page 22


     /tmp/cct92wyA.s:467    .text:00000000000001f0 .LFE18
     /tmp/cct92wyA.s:2193   .debug_loc:00000000000000fd .LLST6
     /tmp/cct92wyA.s:2402   .debug_str:0000000000000146 .LASF39
     /tmp/cct92wyA.s:2211   .debug_loc:0000000000000149 .LLST7
     /tmp/cct92wyA.s:2229   .debug_loc:0000000000000195 .LLST8
     /tmp/cct92wyA.s:456    .text:00000000000001e0 .LVL22
     /tmp/cct92wyA.s:2364   .debug_str:0000000000000041 .LASF40
     /tmp/cct92wyA.s:2442   .debug_str:0000000000000245 .LASF41
     /tmp/cct92wyA.s:402    .text:000000000000018c .LFB17
     /tmp/cct92wyA.s:428    .text:00000000000001b8 .LFE17
     /tmp/cct92wyA.s:417    .text:00000000000001a8 .LVL17
     /tmp/cct92wyA.s:2378   .debug_str:00000000000000a1 .LASF42
     /tmp/cct92wyA.s:2366   .debug_str:000000000000004d .LASF43
     /tmp/cct92wyA.s:370    .text:0000000000000160 .LFB16
     /tmp/cct92wyA.s:396    .text:000000000000018c .LFE16
     /tmp/cct92wyA.s:385    .text:000000000000017c .LVL16
     /tmp/cct92wyA.s:2394   .debug_str:0000000000000112 .LASF44
     /tmp/cct92wyA.s:2448   .debug_str:0000000000000287 .LASF45
     /tmp/cct92wyA.s:334    .text:000000000000012c .LFB15
     /tmp/cct92wyA.s:364    .text:0000000000000160 .LFE15
     /tmp/cct92wyA.s:2247   .debug_loc:00000000000001e1 .LLST5
     /tmp/cct92wyA.s:352    .text:000000000000014c .LVL15
     /tmp/cct92wyA.s:2468   .debug_str:0000000000000322 .LASF46
     /tmp/cct92wyA.s:2386   .debug_str:00000000000000d2 .LASF47
     /tmp/cct92wyA.s:299    .text:00000000000000fc .LFB14
     /tmp/cct92wyA.s:328    .text:000000000000012c .LFE14
     /tmp/cct92wyA.s:2472   .debug_str:0000000000000333 .LASF48
     /tmp/cct92wyA.s:2265   .debug_loc:000000000000022d .LLST4
     /tmp/cct92wyA.s:317    .text:000000000000011c .LVL12
     /tmp/cct92wyA.s:2420   .debug_str:00000000000001b0 .LASF67
     /tmp/cct92wyA.s:107    .text:0000000000000054 .LFB13
     /tmp/cct92wyA.s:142    .text:0000000000000078 .LFE13
     /tmp/cct92wyA.s:2432   .debug_str:00000000000001f3 .LASF49
     /tmp/cct92wyA.s:2482   .debug_str:000000000000042d .LASF50
     /tmp/cct92wyA.s:63     .text:000000000000002c .LFB12
     /tmp/cct92wyA.s:102    .text:0000000000000054 .LFE12
     /tmp/cct92wyA.s:2283   .debug_loc:0000000000000279 .LLST1
     /tmp/cct92wyA.s:2484   .debug_str:0000000000000439 .LASF51
     /tmp/cct92wyA.s:9      .text:0000000000000000 .LFB11
     /tmp/cct92wyA.s:58     .text:000000000000002c .LFE11
     /tmp/cct92wyA.s:2297   .debug_loc:00000000000002b2 .LLST0
     /tmp/cct92wyA.s:2380   .debug_str:00000000000000b1 .LASF52
     /tmp/cct92wyA.s:2356   .debug_str:0000000000000009 .LASF53
     /tmp/cct92wyA.s:2496   .debug_str:000000000000048d .LASF54
     /tmp/cct92wyA.s:234    .text:00000000000000c4 .LFB10
     /tmp/cct92wyA.s:293    .text:00000000000000fc .LFE10
     /tmp/cct92wyA.s:2311   .debug_loc:00000000000002eb .LLST3
     /tmp/cct92wyA.s:2382   .debug_str:00000000000000bc .LASF55
     /tmp/cct92wyA.s:2384   .debug_str:00000000000000c7 .LASF56
     /tmp/cct92wyA.s:2494   .debug_str:0000000000000482 .LASF57
     /tmp/cct92wyA.s:2454   .debug_str:00000000000002b8 .LASF58
     /tmp/cct92wyA.s:193    .text:00000000000000a0 .LFB9
     /tmp/cct92wyA.s:228    .text:00000000000000c4 .LFE9
     /tmp/cct92wyA.s:2362   .debug_str:0000000000000036 .LASF59
     /tmp/cct92wyA.s:2492   .debug_str:0000000000000472 .LASF60
     /tmp/cct92wyA.s:148    .text:0000000000000078 .LFB8
     /tmp/cct92wyA.s:187    .text:00000000000000a0 .LFE8
GAS LISTING /tmp/cct92wyA.s 			page 23


     /tmp/cct92wyA.s:2325   .debug_loc:0000000000000324 .LLST2
     /tmp/cct92wyA.s:2456   .debug_str:00000000000002c9 .LASF68
     /tmp/cct92wyA.s:2488   .debug_str:0000000000000453 .LASF69
     /tmp/cct92wyA.s:2430   .debug_str:00000000000001ea .LASF70
     /tmp/cct92wyA.s:2398   .debug_str:0000000000000120 .LASF71
     /tmp/cct92wyA.s:578    .text:000000000000027c .LVL30
     /tmp/cct92wyA.s:618    .text:00000000000002c4 .LVL33
     /tmp/cct92wyA.s:596    .text:000000000000029c .LVL31
     /tmp/cct92wyA.s:605    .text:00000000000002b0 .LVL32
     /tmp/cct92wyA.s:511    .text:0000000000000220 .LVL26
     /tmp/cct92wyA.s:524    .text:0000000000000238 .LVL27
     /tmp/cct92wyA.s:476    .text:00000000000001f0 .LVL23
     /tmp/cct92wyA.s:489    .text:0000000000000208 .LVL24
     /tmp/cct92wyA.s:437    .text:00000000000001b8 .LVL18
     /tmp/cct92wyA.s:454    .text:00000000000001d8 .LVL21
     /tmp/cct92wyA.s:452    .text:00000000000001d4 .LVL20
     /tmp/cct92wyA.s:450    .text:00000000000001d0 .LVL19
     /tmp/cct92wyA.s:337    .text:000000000000012c .LVL13
     /tmp/cct92wyA.s:350    .text:0000000000000144 .LVL14
     /tmp/cct92wyA.s:302    .text:00000000000000fc .LVL10
     /tmp/cct92wyA.s:315    .text:0000000000000114 .LVL11
     /tmp/cct92wyA.s:66     .text:000000000000002c .LVL2
     /tmp/cct92wyA.s:90     .text:0000000000000044 .LVL3
     /tmp/cct92wyA.s:13     .text:0000000000000000 .LVL0
     /tmp/cct92wyA.s:47     .text:0000000000000020 .LVL1
     /tmp/cct92wyA.s:237    .text:00000000000000c4 .LVL8
     /tmp/cct92wyA.s:281    .text:00000000000000ec .LVL9
     /tmp/cct92wyA.s:151    .text:0000000000000078 .LVL5
     /tmp/cct92wyA.s:175    .text:0000000000000090 .LVL6
     /tmp/cct92wyA.s:652    .debug_info:0000000000000000 .Ldebug_info0

UNDEFINED SYMBOLS
_ZN7Console4putcEc
