GAS LISTING /tmp/ccb4iuiZ.s 			page 1


   1              		.file	"c_api.cpp"
   2              		.option pic
   3              		.option norelax
   4              		.text
   5              	.Ltext0:
   6              		.align	2
   8              	_ZL15helperRet64P164mm:
   9              	.LFB6:
  10              		.file 1 "src/c_api.cpp"
   1:src/c_api.cpp **** #include "../h/c_api.h"
   2:src/c_api.cpp **** #include "../h/my_console.h"
   3:src/c_api.cpp **** #include "../h/thread.h"
   4:src/c_api.cpp **** 
   5:src/c_api.cpp **** uint64 fib(uint64);
   6:src/c_api.cpp **** 
   7:src/c_api.cpp **** void helperP164(uint64 code, uint64 parameter1)
   8:src/c_api.cpp **** {
   9:src/c_api.cpp ****     __asm__ volatile ("mv a1, %[name]" : : [name] "r" (parameter1));
  10:src/c_api.cpp ****     __asm__ volatile ("mv a0, %[name]" : : [name] "r" (code)); // WARNING: this instruction must be
  11:src/c_api.cpp **** 
  12:src/c_api.cpp ****     __asm__ volatile ("ecall");
  13:src/c_api.cpp **** }
  14:src/c_api.cpp **** 
  15:src/c_api.cpp **** int helperRet32P164P264P364(uint64 code, uint64 parameter1, uint64 parameter2, uint64 parameter3)
  16:src/c_api.cpp **** {
  17:src/c_api.cpp ****     __asm__ volatile ("mv a3, %[name]" : : [name] "r" (parameter3));
  18:src/c_api.cpp ****     __asm__ volatile ("mv a2, %[name]" : : [name] "r" (parameter2));
  19:src/c_api.cpp ****     __asm__ volatile ("mv a1, %[name]" : : [name] "r" (parameter1));
  20:src/c_api.cpp ****     __asm__ volatile ("mv a0, %[name]" : : [name] "r" (code)); // WARNING: this instruction must be
  21:src/c_api.cpp **** 
  22:src/c_api.cpp ****     __asm__ volatile ("ecall");
  23:src/c_api.cpp **** 
  24:src/c_api.cpp ****     __asm__ volatile("mv x10, x10"); // temp
  25:src/c_api.cpp **** 
  26:src/c_api.cpp ****     uint64 ret;
  27:src/c_api.cpp ****     __asm__ volatile ("mv %[name], a0" : [name] "=r"(ret));
  28:src/c_api.cpp **** 
  29:src/c_api.cpp ****     return *((int*)&ret);
  30:src/c_api.cpp **** }
  31:src/c_api.cpp **** 
  32:src/c_api.cpp **** static uint64 helperRet64P164(uint64 code, uint64 parameter1) // returns 64bit and takes a 64bit pa
  33:src/c_api.cpp **** {
  11              		.loc 1 33 1
  12              		.cfi_startproc
  13              	.LVL0:
  14 0000 130101FF 		addi	sp,sp,-16
  15              		.cfi_def_cfa_offset 16
  16 0004 23348100 		sd	s0,8(sp)
  17              		.cfi_offset 8, -8
  18 0008 13040101 		addi	s0,sp,16
  19              		.cfi_def_cfa 8, 0
  34:src/c_api.cpp ****     __asm__ volatile ("mv a1, %[name]" : : [name] "r" (parameter1));
  20              		.loc 1 34 5
  21              		.loc 1 34 68 is_stmt 0
  22              	#APP
  23              	# 34 "src/c_api.cpp" 1
  35              	    __asm__ volatile ("mv a0, %[name]" : : [name] "r" (code)); // WARNING: this instruction must be
GAS LISTING /tmp/ccb4iuiZ.s 			page 2


  24              		mv a1, a1
  25              	# 0 "" 2
  26              		.loc 1 35 5 is_stmt 1
  27              		.loc 1 35 62 is_stmt 0
  28              	# 35 "src/c_api.cpp" 1
  36              	
  37:src/c_api.cpp ****     __asm__ volatile ("ecall");
  29              		mv a0, a0
  30              	# 0 "" 2
  31              		.loc 1 37 5 is_stmt 1
  32              		.loc 1 37 31 is_stmt 0
  33              	# 37 "src/c_api.cpp" 1
  38              	
  39:src/c_api.cpp ****     __asm__ volatile ("mv x10, x10");
  34              		ecall
  35              	# 0 "" 2
  36              		.loc 1 39 5 is_stmt 1
  37              		.loc 1 39 37 is_stmt 0
  38              	# 39 "src/c_api.cpp" 1
  40              	
  41:src/c_api.cpp ****     uint64 ret;
  39              		mv x10, x10
  40              	# 0 "" 2
  41              		.loc 1 41 5 is_stmt 1
  42:src/c_api.cpp ****     __asm__ volatile ("mv %[name], a0" : [name] "=r"(ret));
  42              		.loc 1 42 5
  43              		.loc 1 42 59 is_stmt 0
  44              	# 42 "src/c_api.cpp" 1
  43              	
  45              		mv a0, a0
  46              	# 0 "" 2
  47              	.LVL1:
  44:src/c_api.cpp ****     return ret;
  48              		.loc 1 44 5 is_stmt 1
  45:src/c_api.cpp **** }
  49              		.loc 1 45 1 is_stmt 0
  50              	#NO_APP
  51 0020 03348100 		ld	s0,8(sp)
  52              		.cfi_restore 8
  53              		.cfi_def_cfa 2, 16
  54 0024 13010101 		addi	sp,sp,16
  55              		.cfi_def_cfa_offset 0
  56 0028 67800000 		jr	ra
  57              		.cfi_endproc
  58              	.LFE6:
  60              		.align	2
  62              	_ZL11helperRet32m:
  63              	.LFB7:
  46:src/c_api.cpp **** 
  47:src/c_api.cpp **** static int helperRet32(uint64 code) // returns 64bit and takes no params
  48:src/c_api.cpp **** {
  64              		.loc 1 48 1 is_stmt 1
  65              		.cfi_startproc
  66              	.LVL2:
  67 002c 130101FF 		addi	sp,sp,-16
  68              		.cfi_def_cfa_offset 16
  69 0030 23348100 		sd	s0,8(sp)
GAS LISTING /tmp/ccb4iuiZ.s 			page 3


  70              		.cfi_offset 8, -8
  71 0034 13040101 		addi	s0,sp,16
  72              		.cfi_def_cfa 8, 0
  49:src/c_api.cpp ****     __asm__ volatile ("mv a0, %[name]" : : [name] "r" (code));
  73              		.loc 1 49 5
  74              		.loc 1 49 62 is_stmt 0
  75              	#APP
  76              	# 49 "src/c_api.cpp" 1
  50              	
  51:src/c_api.cpp ****     __asm__ volatile ("ecall");
  77              		mv a0, a0
  78              	# 0 "" 2
  79              		.loc 1 51 5 is_stmt 1
  80              		.loc 1 51 31 is_stmt 0
  81              	# 51 "src/c_api.cpp" 1
  52              	
  53:src/c_api.cpp ****     uint64 ret;
  82              		ecall
  83              	# 0 "" 2
  84              		.loc 1 53 5 is_stmt 1
  54:src/c_api.cpp ****     __asm__ volatile ("mv %[name], a0" : [name] "=r"(ret));
  85              		.loc 1 54 5
  86              		.loc 1 54 59 is_stmt 0
  87              	# 54 "src/c_api.cpp" 1
  55              	
  88              		mv a0, a0
  89              	# 0 "" 2
  90              	.LVL3:
  56:src/c_api.cpp ****     return *((int*)&ret);
  91              		.loc 1 56 5 is_stmt 1
  57:src/c_api.cpp **** }
  92              		.loc 1 57 1 is_stmt 0
  93              	#NO_APP
  94 0044 1B050500 		sext.w	a0,a0
  95 0048 03348100 		ld	s0,8(sp)
  96              		.cfi_restore 8
  97              		.cfi_def_cfa 2, 16
  98 004c 13010101 		addi	sp,sp,16
  99              		.cfi_def_cfa_offset 0
 100 0050 67800000 		jr	ra
 101              		.cfi_endproc
 102              	.LFE7:
 104              		.align	2
 106              	_ZL6helperm:
 107              	.LFB8:
  58:src/c_api.cpp **** 
  59:src/c_api.cpp **** static void helper(uint64 code) // returns nothing and takes no parameters (eg thread_dispatch)
  60:src/c_api.cpp **** {
 108              		.loc 1 60 1 is_stmt 1
 109              		.cfi_startproc
 110              	.LVL4:
 111 0054 130101FF 		addi	sp,sp,-16
 112              		.cfi_def_cfa_offset 16
 113 0058 23348100 		sd	s0,8(sp)
 114              		.cfi_offset 8, -8
 115 005c 13040101 		addi	s0,sp,16
 116              		.cfi_def_cfa 8, 0
GAS LISTING /tmp/ccb4iuiZ.s 			page 4


  61:src/c_api.cpp ****     __asm__ volatile ("mv a0, %[name]" : : [name] "r" (code));
 117              		.loc 1 61 5
 118              		.loc 1 61 62 is_stmt 0
 119              	#APP
 120              	# 61 "src/c_api.cpp" 1
  62              	    __asm__ volatile ("ecall");
 121              		mv a0, a0
 122              	# 0 "" 2
 123              		.loc 1 62 5 is_stmt 1
 124              		.loc 1 62 31 is_stmt 0
 125              	# 62 "src/c_api.cpp" 1
  63              	
  64:src/c_api.cpp ****     __asm__ volatile ("mv x10, x10");
 126              		ecall
 127              	# 0 "" 2
 128              		.loc 1 64 5 is_stmt 1
 129              		.loc 1 64 37 is_stmt 0
 130              	# 64 "src/c_api.cpp" 1
  65              	}
 131              		mv x10, x10
 132              	# 0 "" 2
 133              		.loc 1 65 1
 134              	#NO_APP
 135 006c 03348100 		ld	s0,8(sp)
 136              		.cfi_restore 8
 137              		.cfi_def_cfa 2, 16
 138 0070 13010101 		addi	sp,sp,16
 139              		.cfi_def_cfa_offset 0
 140 0074 67800000 		jr	ra
 141              		.cfi_endproc
 142              	.LFE8:
 144              		.align	2
 145              		.globl	_Z10helperP164mm
 147              	_Z10helperP164mm:
 148              	.LFB4:
   8:src/c_api.cpp ****     __asm__ volatile ("mv a1, %[name]" : : [name] "r" (parameter1));
 149              		.loc 1 8 1 is_stmt 1
 150              		.cfi_startproc
 151              	.LVL5:
 152 0078 130101FF 		addi	sp,sp,-16
 153              		.cfi_def_cfa_offset 16
 154 007c 23348100 		sd	s0,8(sp)
 155              		.cfi_offset 8, -8
 156 0080 13040101 		addi	s0,sp,16
 157              		.cfi_def_cfa 8, 0
   9:src/c_api.cpp ****     __asm__ volatile ("mv a0, %[name]" : : [name] "r" (code)); // WARNING: this instruction must be
 158              		.loc 1 9 5
   9:src/c_api.cpp ****     __asm__ volatile ("mv a0, %[name]" : : [name] "r" (code)); // WARNING: this instruction must be
 159              		.loc 1 9 68 is_stmt 0
 160              	#APP
 161              	# 9 "src/c_api.cpp" 1
  10:src/c_api.cpp **** 
 162              		mv a1, a1
 163              	# 0 "" 2
 164              		.loc 1 10 5 is_stmt 1
  10:src/c_api.cpp **** 
 165              		.loc 1 10 62 is_stmt 0
GAS LISTING /tmp/ccb4iuiZ.s 			page 5


 166              	# 10 "src/c_api.cpp" 1
  12:src/c_api.cpp **** }
 167              		mv a0, a0
 168              	# 0 "" 2
 169              		.loc 1 12 5 is_stmt 1
  12:src/c_api.cpp **** }
 170              		.loc 1 12 31 is_stmt 0
 171              	# 12 "src/c_api.cpp" 1
  13:src/c_api.cpp **** 
 172              		ecall
 173              	# 0 "" 2
 174              		.loc 1 13 1
 175              	#NO_APP
 176 0090 03348100 		ld	s0,8(sp)
 177              		.cfi_restore 8
 178              		.cfi_def_cfa 2, 16
 179 0094 13010101 		addi	sp,sp,16
 180              		.cfi_def_cfa_offset 0
 181 0098 67800000 		jr	ra
 182              		.cfi_endproc
 183              	.LFE4:
 185              		.align	2
 186              		.globl	_Z23helperRet32P164P264P364mmmm
 188              	_Z23helperRet32P164P264P364mmmm:
 189              	.LFB5:
  16:src/c_api.cpp ****     __asm__ volatile ("mv a3, %[name]" : : [name] "r" (parameter3));
 190              		.loc 1 16 1 is_stmt 1
 191              		.cfi_startproc
 192              	.LVL6:
 193 009c 130101FF 		addi	sp,sp,-16
 194              		.cfi_def_cfa_offset 16
 195 00a0 23348100 		sd	s0,8(sp)
 196              		.cfi_offset 8, -8
 197 00a4 13040101 		addi	s0,sp,16
 198              		.cfi_def_cfa 8, 0
  17:src/c_api.cpp ****     __asm__ volatile ("mv a2, %[name]" : : [name] "r" (parameter2));
 199              		.loc 1 17 5
  17:src/c_api.cpp ****     __asm__ volatile ("mv a2, %[name]" : : [name] "r" (parameter2));
 200              		.loc 1 17 68 is_stmt 0
 201              	#APP
 202              	# 17 "src/c_api.cpp" 1
  18:src/c_api.cpp ****     __asm__ volatile ("mv a1, %[name]" : : [name] "r" (parameter1));
 203              		mv a3, a3
 204              	# 0 "" 2
 205              		.loc 1 18 5 is_stmt 1
  18:src/c_api.cpp ****     __asm__ volatile ("mv a1, %[name]" : : [name] "r" (parameter1));
 206              		.loc 1 18 68 is_stmt 0
 207              	# 18 "src/c_api.cpp" 1
  19:src/c_api.cpp ****     __asm__ volatile ("mv a0, %[name]" : : [name] "r" (code)); // WARNING: this instruction must be
 208              		mv a2, a2
 209              	# 0 "" 2
 210              		.loc 1 19 5 is_stmt 1
  19:src/c_api.cpp ****     __asm__ volatile ("mv a0, %[name]" : : [name] "r" (code)); // WARNING: this instruction must be
 211              		.loc 1 19 68 is_stmt 0
 212              	# 19 "src/c_api.cpp" 1
  20:src/c_api.cpp **** 
 213              		mv a1, a1
GAS LISTING /tmp/ccb4iuiZ.s 			page 6


 214              	# 0 "" 2
 215              		.loc 1 20 5 is_stmt 1
  20:src/c_api.cpp **** 
 216              		.loc 1 20 62 is_stmt 0
 217              	# 20 "src/c_api.cpp" 1
  22:src/c_api.cpp **** 
 218              		mv a0, a0
 219              	# 0 "" 2
 220              		.loc 1 22 5 is_stmt 1
  22:src/c_api.cpp **** 
 221              		.loc 1 22 31 is_stmt 0
 222              	# 22 "src/c_api.cpp" 1
  24:src/c_api.cpp **** 
 223              		ecall
 224              	# 0 "" 2
 225              		.loc 1 24 5 is_stmt 1
  24:src/c_api.cpp **** 
 226              		.loc 1 24 36 is_stmt 0
 227              	# 24 "src/c_api.cpp" 1
  26:src/c_api.cpp ****     __asm__ volatile ("mv %[name], a0" : [name] "=r"(ret));
 228              		mv x10, x10
 229              	# 0 "" 2
 230              		.loc 1 26 5 is_stmt 1
  27:src/c_api.cpp **** 
 231              		.loc 1 27 5
  27:src/c_api.cpp **** 
 232              		.loc 1 27 59 is_stmt 0
 233              	# 27 "src/c_api.cpp" 1
 234              		mv a0, a0
 235              	# 0 "" 2
 236              	.LVL7:
  29:src/c_api.cpp **** }
 237              		.loc 1 29 5 is_stmt 1
  30:src/c_api.cpp **** 
 238              		.loc 1 30 1 is_stmt 0
 239              	#NO_APP
 240 00c4 1B050500 		sext.w	a0,a0
 241 00c8 03348100 		ld	s0,8(sp)
 242              		.cfi_restore 8
 243              		.cfi_def_cfa 2, 16
 244 00cc 13010101 		addi	sp,sp,16
 245              		.cfi_def_cfa_offset 0
 246 00d0 67800000 		jr	ra
 247              		.cfi_endproc
 248              	.LFE5:
 250              		.align	2
 251              		.globl	_Z9mem_allocm
 253              	_Z9mem_allocm:
 254              	.LFB9:
  66:src/c_api.cpp **** 
  67:src/c_api.cpp **** void* mem_alloc(size_t size)
  68:src/c_api.cpp **** {
 255              		.loc 1 68 1 is_stmt 1
 256              		.cfi_startproc
 257              	.LVL8:
 258 00d4 130101FF 		addi	sp,sp,-16
 259              		.cfi_def_cfa_offset 16
GAS LISTING /tmp/ccb4iuiZ.s 			page 7


 260 00d8 23341100 		sd	ra,8(sp)
 261 00dc 23308100 		sd	s0,0(sp)
 262              		.cfi_offset 1, -8
 263              		.cfi_offset 8, -16
 264 00e0 13040101 		addi	s0,sp,16
 265              		.cfi_def_cfa 8, 0
 266 00e4 93050500 		mv	a1,a0
  69:src/c_api.cpp ****     return (void*) helperRet64P164(1, size);
 267              		.loc 1 69 5
 268              		.loc 1 69 35 is_stmt 0
 269 00e8 13051000 		li	a0,1
 270              	.LVL9:
 271 00ec 97000000 		call	_ZL15helperRet64P164mm
 271      E7800000 
 272              	.LVL10:
  70:src/c_api.cpp **** }
 273              		.loc 1 70 1
 274 00f4 83308100 		ld	ra,8(sp)
 275              		.cfi_restore 1
 276 00f8 03340100 		ld	s0,0(sp)
 277              		.cfi_restore 8
 278              		.cfi_def_cfa 2, 16
 279 00fc 13010101 		addi	sp,sp,16
 280              		.cfi_def_cfa_offset 0
 281 0100 67800000 		jr	ra
 282              		.cfi_endproc
 283              	.LFE9:
 285              		.align	2
 286              		.globl	_Z8mem_freePv
 288              	_Z8mem_freePv:
 289              	.LFB10:
  71:src/c_api.cpp **** 
  72:src/c_api.cpp **** int mem_free(void* ptr)
  73:src/c_api.cpp **** {
 290              		.loc 1 73 1 is_stmt 1
 291              		.cfi_startproc
 292              	.LVL11:
 293 0104 130101FF 		addi	sp,sp,-16
 294              		.cfi_def_cfa_offset 16
 295 0108 23341100 		sd	ra,8(sp)
 296 010c 23308100 		sd	s0,0(sp)
 297              		.cfi_offset 1, -8
 298              		.cfi_offset 8, -16
 299 0110 13040101 		addi	s0,sp,16
 300              		.cfi_def_cfa 8, 0
 301 0114 93050500 		mv	a1,a0
  74:src/c_api.cpp ****     return helperRet64P164(2, (uint64) ptr);
 302              		.loc 1 74 5
 303              		.loc 1 74 27 is_stmt 0
 304 0118 13052000 		li	a0,2
 305              	.LVL12:
 306 011c 97000000 		call	_ZL15helperRet64P164mm
 306      E7800000 
 307              	.LVL13:
  75:src/c_api.cpp **** }
 308              		.loc 1 75 1
 309 0124 1B050500 		sext.w	a0,a0
GAS LISTING /tmp/ccb4iuiZ.s 			page 8


 310 0128 83308100 		ld	ra,8(sp)
 311              		.cfi_restore 1
 312 012c 03340100 		ld	s0,0(sp)
 313              		.cfi_restore 8
 314              		.cfi_def_cfa 2, 16
 315 0130 13010101 		addi	sp,sp,16
 316              		.cfi_def_cfa_offset 0
 317 0134 67800000 		jr	ra
 318              		.cfi_endproc
 319              	.LFE10:
 321              		.align	2
 322              		.globl	_Z15thread_dispatchv
 324              	_Z15thread_dispatchv:
 325              	.LFB11:
  76:src/c_api.cpp **** 
  77:src/c_api.cpp **** void thread_dispatch() // WARNING: different than Scheduler::dispatchToNext()
  78:src/c_api.cpp **** {
 326              		.loc 1 78 1 is_stmt 1
 327              		.cfi_startproc
 328 0138 130101FF 		addi	sp,sp,-16
 329              		.cfi_def_cfa_offset 16
 330 013c 23341100 		sd	ra,8(sp)
 331 0140 23308100 		sd	s0,0(sp)
 332              		.cfi_offset 1, -8
 333              		.cfi_offset 8, -16
 334 0144 13040101 		addi	s0,sp,16
 335              		.cfi_def_cfa 8, 0
  79:src/c_api.cpp ****     helper(0x13);
 336              		.loc 1 79 5
 337              		.loc 1 79 11 is_stmt 0
 338 0148 13053001 		li	a0,19
 339 014c 97000000 		call	_ZL6helperm
 339      E7800000 
 340              	.LVL14:
  80:src/c_api.cpp **** }
 341              		.loc 1 80 1
 342 0154 83308100 		ld	ra,8(sp)
 343              		.cfi_restore 1
 344 0158 03340100 		ld	s0,0(sp)
 345              		.cfi_restore 8
 346              		.cfi_def_cfa 2, 16
 347 015c 13010101 		addi	sp,sp,16
 348              		.cfi_def_cfa_offset 0
 349 0160 67800000 		jr	ra
 350              		.cfi_endproc
 351              	.LFE11:
 353              		.align	2
 354              		.globl	_Z11thread_exitv
 356              	_Z11thread_exitv:
 357              	.LFB12:
  81:src/c_api.cpp **** 
  82:src/c_api.cpp **** int thread_exit()
  83:src/c_api.cpp **** {
 358              		.loc 1 83 1 is_stmt 1
 359              		.cfi_startproc
 360 0164 130101FF 		addi	sp,sp,-16
 361              		.cfi_def_cfa_offset 16
GAS LISTING /tmp/ccb4iuiZ.s 			page 9


 362 0168 23341100 		sd	ra,8(sp)
 363 016c 23308100 		sd	s0,0(sp)
 364              		.cfi_offset 1, -8
 365              		.cfi_offset 8, -16
 366 0170 13040101 		addi	s0,sp,16
 367              		.cfi_def_cfa 8, 0
  84:src/c_api.cpp ****     return helperRet32(0x12);
 368              		.loc 1 84 5
 369              		.loc 1 84 23 is_stmt 0
 370 0174 13052001 		li	a0,18
 371 0178 97000000 		call	_ZL11helperRet32m
 371      E7800000 
 372              	.LVL15:
  85:src/c_api.cpp **** }
 373              		.loc 1 85 1
 374 0180 83308100 		ld	ra,8(sp)
 375              		.cfi_restore 1
 376 0184 03340100 		ld	s0,0(sp)
 377              		.cfi_restore 8
 378              		.cfi_def_cfa 2, 16
 379 0188 13010101 		addi	sp,sp,16
 380              		.cfi_def_cfa_offset 0
 381 018c 67800000 		jr	ra
 382              		.cfi_endproc
 383              	.LFE12:
 385              		.align	2
 386              		.globl	_Z13thread_createPmPFvPvES0_
 388              	_Z13thread_createPmPFvPvES0_:
 389              	.LFB13:
  86:src/c_api.cpp **** 
  87:src/c_api.cpp **** int thread_create(thread_t* handle, void(*start_routine)(void*), void*arg)
  88:src/c_api.cpp **** {
 390              		.loc 1 88 1 is_stmt 1
 391              		.cfi_startproc
 392              	.LVL16:
 393 0190 130101FF 		addi	sp,sp,-16
 394              		.cfi_def_cfa_offset 16
 395 0194 23341100 		sd	ra,8(sp)
 396 0198 23308100 		sd	s0,0(sp)
 397              		.cfi_offset 1, -8
 398              		.cfi_offset 8, -16
 399 019c 13040101 		addi	s0,sp,16
 400              		.cfi_def_cfa 8, 0
 401 01a0 93060600 		mv	a3,a2
  89:src/c_api.cpp ****     return helperRet32P164P264P364(0x11, (uint64)handle, (uint64)start_routine, (uint64)arg);
 402              		.loc 1 89 5
 403              		.loc 1 89 35 is_stmt 0
 404 01a4 13860500 		mv	a2,a1
 405              	.LVL17:
 406 01a8 93050500 		mv	a1,a0
 407              	.LVL18:
 408 01ac 13051001 		li	a0,17
 409              	.LVL19:
 410 01b0 97000000 		call	_Z23helperRet32P164P264P364mmmm
 410      E7800000 
 411              	.LVL20:
  90:src/c_api.cpp **** }
GAS LISTING /tmp/ccb4iuiZ.s 			page 10


 412              		.loc 1 90 1
 413 01b8 83308100 		ld	ra,8(sp)
 414              		.cfi_restore 1
 415 01bc 03340100 		ld	s0,0(sp)
 416              		.cfi_restore 8
 417              		.cfi_def_cfa 2, 16
 418 01c0 13010101 		addi	sp,sp,16
 419              		.cfi_def_cfa_offset 0
 420 01c4 67800000 		jr	ra
 421              		.cfi_endproc
 422              	.LFE13:
 424              		.align	2
 425              		.globl	_Z11thread_joinm
 427              	_Z11thread_joinm:
 428              	.LFB14:
  91:src/c_api.cpp **** 
  92:src/c_api.cpp **** void thread_join(thread_t handle)
  93:src/c_api.cpp **** {
 429              		.loc 1 93 1 is_stmt 1
 430              		.cfi_startproc
 431              	.LVL21:
 432 01c8 130101FF 		addi	sp,sp,-16
 433              		.cfi_def_cfa_offset 16
 434 01cc 23341100 		sd	ra,8(sp)
 435 01d0 23308100 		sd	s0,0(sp)
 436              		.cfi_offset 1, -8
 437              		.cfi_offset 8, -16
 438 01d4 13040101 		addi	s0,sp,16
 439              		.cfi_def_cfa 8, 0
 440 01d8 93050500 		mv	a1,a0
  94:src/c_api.cpp ****     helperP164(0x14, handle);
 441              		.loc 1 94 5
 442              		.loc 1 94 15 is_stmt 0
 443 01dc 13054001 		li	a0,20
 444              	.LVL22:
 445 01e0 97000000 		call	_Z10helperP164mm
 445      E7800000 
 446              	.LVL23:
  95:src/c_api.cpp **** }
 447              		.loc 1 95 1
 448 01e8 83308100 		ld	ra,8(sp)
 449              		.cfi_restore 1
 450 01ec 03340100 		ld	s0,0(sp)
 451              		.cfi_restore 8
 452              		.cfi_def_cfa 2, 16
 453 01f0 13010101 		addi	sp,sp,16
 454              		.cfi_def_cfa_offset 0
 455 01f4 67800000 		jr	ra
 456              		.cfi_endproc
 457              	.LFE14:
 459              		.align	2
 460              		.globl	_Z9test_callm
 462              	_Z9test_callm:
 463              	.LFB15:
  96:src/c_api.cpp **** 
  97:src/c_api.cpp **** uint64 test_call(uint64 n)
  98:src/c_api.cpp **** {
GAS LISTING /tmp/ccb4iuiZ.s 			page 11


 464              		.loc 1 98 1 is_stmt 1
 465              		.cfi_startproc
 466              	.LVL24:
 467 01f8 130101FF 		addi	sp,sp,-16
 468              		.cfi_def_cfa_offset 16
 469 01fc 23341100 		sd	ra,8(sp)
 470 0200 23308100 		sd	s0,0(sp)
 471              		.cfi_offset 1, -8
 472              		.cfi_offset 8, -16
 473 0204 13040101 		addi	s0,sp,16
 474              		.cfi_def_cfa 8, 0
 475 0208 93050500 		mv	a1,a0
  99:src/c_api.cpp ****     return helperRet64P164(3, n);
 476              		.loc 1 99 5
 477              		.loc 1 99 27 is_stmt 0
 478 020c 13053000 		li	a0,3
 479              	.LVL25:
 480 0210 97000000 		call	_ZL15helperRet64P164mm
 480      E7800000 
 481              	.LVL26:
 100:src/c_api.cpp **** }...
 482              		.loc 1 100 1
 483 0218 83308100 		ld	ra,8(sp)
 484              		.cfi_restore 1
 485 021c 03340100 		ld	s0,0(sp)
 486              		.cfi_restore 8
 487              		.cfi_def_cfa 2, 16
 488 0220 13010101 		addi	sp,sp,16
 489              		.cfi_def_cfa_offset 0
 490 0224 67800000 		jr	ra
 491              		.cfi_endproc
 492              	.LFE15:
 494              	.Letext0:
 495              		.file 2 "src/../h/../lib/hw.h"
 496              		.file 3 "src/../h/c_api.h"
GAS LISTING /tmp/ccb4iuiZ.s 			page 12


DEFINED SYMBOLS
                            *ABS*:0000000000000000 c_api.cpp
     /tmp/ccb4iuiZ.s:8      .text:0000000000000000 _ZL15helperRet64P164mm
     /tmp/ccb4iuiZ.s:12     .text:0000000000000000 .L0 
     /tmp/ccb4iuiZ.s:14     .text:0000000000000000 .L0 
     /tmp/ccb4iuiZ.s:15     .text:0000000000000004 .L0 
     /tmp/ccb4iuiZ.s:17     .text:0000000000000008 .L0 
     /tmp/ccb4iuiZ.s:19     .text:000000000000000c .L0 
     /tmp/ccb4iuiZ.s:21     .text:000000000000000c .L0 
       src/c_api.cpp:34     .text:000000000000000c .L0 
     /tmp/ccb4iuiZ.s:27     .text:0000000000000010 .L0 
       src/c_api.cpp:35     .text:0000000000000010 .L0 
     /tmp/ccb4iuiZ.s:32     .text:0000000000000014 .L0 
       src/c_api.cpp:37     .text:0000000000000014 .L0 
     /tmp/ccb4iuiZ.s:37     .text:0000000000000018 .L0 
       src/c_api.cpp:39     .text:0000000000000018 .L0 
     /tmp/ccb4iuiZ.s:42     .text:000000000000001c .L0 
     /tmp/ccb4iuiZ.s:43     .text:000000000000001c .L0 
       src/c_api.cpp:42     .text:000000000000001c .L0 
     /tmp/ccb4iuiZ.s:49     .text:0000000000000020 .L0 
     /tmp/ccb4iuiZ.s:51     .text:0000000000000020 .L0 
     /tmp/ccb4iuiZ.s:52     .text:0000000000000024 .L0 
     /tmp/ccb4iuiZ.s:53     .text:0000000000000024 .L0 
     /tmp/ccb4iuiZ.s:55     .text:0000000000000028 .L0 
     /tmp/ccb4iuiZ.s:57     .text:000000000000002c .L0 
     /tmp/ccb4iuiZ.s:62     .text:000000000000002c _ZL11helperRet32m
     /tmp/ccb4iuiZ.s:65     .text:000000000000002c .L0 
     /tmp/ccb4iuiZ.s:67     .text:000000000000002c .L0 
     /tmp/ccb4iuiZ.s:68     .text:0000000000000030 .L0 
     /tmp/ccb4iuiZ.s:70     .text:0000000000000034 .L0 
     /tmp/ccb4iuiZ.s:72     .text:0000000000000038 .L0 
     /tmp/ccb4iuiZ.s:74     .text:0000000000000038 .L0 
       src/c_api.cpp:49     .text:0000000000000038 .L0 
     /tmp/ccb4iuiZ.s:80     .text:000000000000003c .L0 
       src/c_api.cpp:51     .text:000000000000003c .L0 
     /tmp/ccb4iuiZ.s:85     .text:0000000000000040 .L0 
     /tmp/ccb4iuiZ.s:86     .text:0000000000000040 .L0 
       src/c_api.cpp:54     .text:0000000000000040 .L0 
     /tmp/ccb4iuiZ.s:92     .text:0000000000000044 .L0 
     /tmp/ccb4iuiZ.s:94     .text:0000000000000044 .L0 
     /tmp/ccb4iuiZ.s:96     .text:000000000000004c .L0 
     /tmp/ccb4iuiZ.s:97     .text:000000000000004c .L0 
     /tmp/ccb4iuiZ.s:99     .text:0000000000000050 .L0 
     /tmp/ccb4iuiZ.s:101    .text:0000000000000054 .L0 
     /tmp/ccb4iuiZ.s:106    .text:0000000000000054 _ZL6helperm
     /tmp/ccb4iuiZ.s:109    .text:0000000000000054 .L0 
     /tmp/ccb4iuiZ.s:111    .text:0000000000000054 .L0 
     /tmp/ccb4iuiZ.s:112    .text:0000000000000058 .L0 
     /tmp/ccb4iuiZ.s:114    .text:000000000000005c .L0 
     /tmp/ccb4iuiZ.s:116    .text:0000000000000060 .L0 
     /tmp/ccb4iuiZ.s:118    .text:0000000000000060 .L0 
       src/c_api.cpp:61     .text:0000000000000060 .L0 
     /tmp/ccb4iuiZ.s:124    .text:0000000000000064 .L0 
       src/c_api.cpp:62     .text:0000000000000064 .L0 
     /tmp/ccb4iuiZ.s:129    .text:0000000000000068 .L0 
       src/c_api.cpp:64     .text:0000000000000068 .L0 
     /tmp/ccb4iuiZ.s:135    .text:000000000000006c .L0 
GAS LISTING /tmp/ccb4iuiZ.s 			page 13


     /tmp/ccb4iuiZ.s:136    .text:0000000000000070 .L0 
     /tmp/ccb4iuiZ.s:137    .text:0000000000000070 .L0 
     /tmp/ccb4iuiZ.s:139    .text:0000000000000074 .L0 
     /tmp/ccb4iuiZ.s:141    .text:0000000000000078 .L0 
     /tmp/ccb4iuiZ.s:147    .text:0000000000000078 _Z10helperP164mm
     /tmp/ccb4iuiZ.s:150    .text:0000000000000078 .L0 
     /tmp/ccb4iuiZ.s:152    .text:0000000000000078 .L0 
     /tmp/ccb4iuiZ.s:153    .text:000000000000007c .L0 
     /tmp/ccb4iuiZ.s:155    .text:0000000000000080 .L0 
     /tmp/ccb4iuiZ.s:157    .text:0000000000000084 .L0 
     /tmp/ccb4iuiZ.s:159    .text:0000000000000084 .L0 
       src/c_api.cpp:9      .text:0000000000000084 .L0 
     /tmp/ccb4iuiZ.s:165    .text:0000000000000088 .L0 
       src/c_api.cpp:10     .text:0000000000000088 .L0 
     /tmp/ccb4iuiZ.s:170    .text:000000000000008c .L0 
       src/c_api.cpp:12     .text:000000000000008c .L0 
     /tmp/ccb4iuiZ.s:176    .text:0000000000000090 .L0 
     /tmp/ccb4iuiZ.s:177    .text:0000000000000094 .L0 
     /tmp/ccb4iuiZ.s:178    .text:0000000000000094 .L0 
     /tmp/ccb4iuiZ.s:180    .text:0000000000000098 .L0 
     /tmp/ccb4iuiZ.s:182    .text:000000000000009c .L0 
     /tmp/ccb4iuiZ.s:188    .text:000000000000009c _Z23helperRet32P164P264P364mmmm
     /tmp/ccb4iuiZ.s:191    .text:000000000000009c .L0 
     /tmp/ccb4iuiZ.s:193    .text:000000000000009c .L0 
     /tmp/ccb4iuiZ.s:194    .text:00000000000000a0 .L0 
     /tmp/ccb4iuiZ.s:196    .text:00000000000000a4 .L0 
     /tmp/ccb4iuiZ.s:198    .text:00000000000000a8 .L0 
     /tmp/ccb4iuiZ.s:200    .text:00000000000000a8 .L0 
       src/c_api.cpp:17     .text:00000000000000a8 .L0 
     /tmp/ccb4iuiZ.s:206    .text:00000000000000ac .L0 
       src/c_api.cpp:18     .text:00000000000000ac .L0 
     /tmp/ccb4iuiZ.s:211    .text:00000000000000b0 .L0 
       src/c_api.cpp:19     .text:00000000000000b0 .L0 
     /tmp/ccb4iuiZ.s:216    .text:00000000000000b4 .L0 
       src/c_api.cpp:20     .text:00000000000000b4 .L0 
     /tmp/ccb4iuiZ.s:221    .text:00000000000000b8 .L0 
       src/c_api.cpp:22     .text:00000000000000b8 .L0 
     /tmp/ccb4iuiZ.s:226    .text:00000000000000bc .L0 
       src/c_api.cpp:24     .text:00000000000000bc .L0 
     /tmp/ccb4iuiZ.s:231    .text:00000000000000c0 .L0 
     /tmp/ccb4iuiZ.s:232    .text:00000000000000c0 .L0 
       src/c_api.cpp:27     .text:00000000000000c0 .L0 
     /tmp/ccb4iuiZ.s:238    .text:00000000000000c4 .L0 
     /tmp/ccb4iuiZ.s:240    .text:00000000000000c4 .L0 
     /tmp/ccb4iuiZ.s:242    .text:00000000000000cc .L0 
     /tmp/ccb4iuiZ.s:243    .text:00000000000000cc .L0 
     /tmp/ccb4iuiZ.s:245    .text:00000000000000d0 .L0 
     /tmp/ccb4iuiZ.s:247    .text:00000000000000d4 .L0 
     /tmp/ccb4iuiZ.s:253    .text:00000000000000d4 _Z9mem_allocm
     /tmp/ccb4iuiZ.s:256    .text:00000000000000d4 .L0 
     /tmp/ccb4iuiZ.s:258    .text:00000000000000d4 .L0 
     /tmp/ccb4iuiZ.s:259    .text:00000000000000d8 .L0 
     /tmp/ccb4iuiZ.s:262    .text:00000000000000e0 .L0 
     /tmp/ccb4iuiZ.s:263    .text:00000000000000e0 .L0 
     /tmp/ccb4iuiZ.s:265    .text:00000000000000e4 .L0 
     /tmp/ccb4iuiZ.s:268    .text:00000000000000e8 .L0 
     /tmp/ccb4iuiZ.s:269    .text:00000000000000e8 .L0 
GAS LISTING /tmp/ccb4iuiZ.s 			page 14


     /tmp/ccb4iuiZ.s:274    .text:00000000000000f4 .L0 
     /tmp/ccb4iuiZ.s:275    .text:00000000000000f8 .L0 
     /tmp/ccb4iuiZ.s:277    .text:00000000000000fc .L0 
     /tmp/ccb4iuiZ.s:278    .text:00000000000000fc .L0 
     /tmp/ccb4iuiZ.s:280    .text:0000000000000100 .L0 
     /tmp/ccb4iuiZ.s:282    .text:0000000000000104 .L0 
     /tmp/ccb4iuiZ.s:288    .text:0000000000000104 _Z8mem_freePv
     /tmp/ccb4iuiZ.s:291    .text:0000000000000104 .L0 
     /tmp/ccb4iuiZ.s:293    .text:0000000000000104 .L0 
     /tmp/ccb4iuiZ.s:294    .text:0000000000000108 .L0 
     /tmp/ccb4iuiZ.s:297    .text:0000000000000110 .L0 
     /tmp/ccb4iuiZ.s:298    .text:0000000000000110 .L0 
     /tmp/ccb4iuiZ.s:300    .text:0000000000000114 .L0 
     /tmp/ccb4iuiZ.s:303    .text:0000000000000118 .L0 
     /tmp/ccb4iuiZ.s:304    .text:0000000000000118 .L0 
     /tmp/ccb4iuiZ.s:309    .text:0000000000000124 .L0 
     /tmp/ccb4iuiZ.s:311    .text:000000000000012c .L0 
     /tmp/ccb4iuiZ.s:313    .text:0000000000000130 .L0 
     /tmp/ccb4iuiZ.s:314    .text:0000000000000130 .L0 
     /tmp/ccb4iuiZ.s:316    .text:0000000000000134 .L0 
     /tmp/ccb4iuiZ.s:318    .text:0000000000000138 .L0 
     /tmp/ccb4iuiZ.s:324    .text:0000000000000138 _Z15thread_dispatchv
     /tmp/ccb4iuiZ.s:327    .text:0000000000000138 .L0 
     /tmp/ccb4iuiZ.s:328    .text:0000000000000138 .L0 
     /tmp/ccb4iuiZ.s:329    .text:000000000000013c .L0 
     /tmp/ccb4iuiZ.s:332    .text:0000000000000144 .L0 
     /tmp/ccb4iuiZ.s:333    .text:0000000000000144 .L0 
     /tmp/ccb4iuiZ.s:335    .text:0000000000000148 .L0 
     /tmp/ccb4iuiZ.s:337    .text:0000000000000148 .L0 
     /tmp/ccb4iuiZ.s:338    .text:0000000000000148 .L0 
     /tmp/ccb4iuiZ.s:342    .text:0000000000000154 .L0 
     /tmp/ccb4iuiZ.s:343    .text:0000000000000158 .L0 
     /tmp/ccb4iuiZ.s:345    .text:000000000000015c .L0 
     /tmp/ccb4iuiZ.s:346    .text:000000000000015c .L0 
     /tmp/ccb4iuiZ.s:348    .text:0000000000000160 .L0 
     /tmp/ccb4iuiZ.s:350    .text:0000000000000164 .L0 
     /tmp/ccb4iuiZ.s:356    .text:0000000000000164 _Z11thread_exitv
     /tmp/ccb4iuiZ.s:359    .text:0000000000000164 .L0 
     /tmp/ccb4iuiZ.s:360    .text:0000000000000164 .L0 
     /tmp/ccb4iuiZ.s:361    .text:0000000000000168 .L0 
     /tmp/ccb4iuiZ.s:364    .text:0000000000000170 .L0 
     /tmp/ccb4iuiZ.s:365    .text:0000000000000170 .L0 
     /tmp/ccb4iuiZ.s:367    .text:0000000000000174 .L0 
     /tmp/ccb4iuiZ.s:369    .text:0000000000000174 .L0 
     /tmp/ccb4iuiZ.s:370    .text:0000000000000174 .L0 
     /tmp/ccb4iuiZ.s:374    .text:0000000000000180 .L0 
     /tmp/ccb4iuiZ.s:375    .text:0000000000000184 .L0 
     /tmp/ccb4iuiZ.s:377    .text:0000000000000188 .L0 
     /tmp/ccb4iuiZ.s:378    .text:0000000000000188 .L0 
     /tmp/ccb4iuiZ.s:380    .text:000000000000018c .L0 
     /tmp/ccb4iuiZ.s:382    .text:0000000000000190 .L0 
     /tmp/ccb4iuiZ.s:388    .text:0000000000000190 _Z13thread_createPmPFvPvES0_
     /tmp/ccb4iuiZ.s:391    .text:0000000000000190 .L0 
     /tmp/ccb4iuiZ.s:393    .text:0000000000000190 .L0 
     /tmp/ccb4iuiZ.s:394    .text:0000000000000194 .L0 
     /tmp/ccb4iuiZ.s:397    .text:000000000000019c .L0 
     /tmp/ccb4iuiZ.s:398    .text:000000000000019c .L0 
GAS LISTING /tmp/ccb4iuiZ.s 			page 15


     /tmp/ccb4iuiZ.s:400    .text:00000000000001a0 .L0 
     /tmp/ccb4iuiZ.s:403    .text:00000000000001a4 .L0 
     /tmp/ccb4iuiZ.s:404    .text:00000000000001a4 .L0 
     /tmp/ccb4iuiZ.s:413    .text:00000000000001b8 .L0 
     /tmp/ccb4iuiZ.s:414    .text:00000000000001bc .L0 
     /tmp/ccb4iuiZ.s:416    .text:00000000000001c0 .L0 
     /tmp/ccb4iuiZ.s:417    .text:00000000000001c0 .L0 
     /tmp/ccb4iuiZ.s:419    .text:00000000000001c4 .L0 
     /tmp/ccb4iuiZ.s:421    .text:00000000000001c8 .L0 
     /tmp/ccb4iuiZ.s:427    .text:00000000000001c8 _Z11thread_joinm
     /tmp/ccb4iuiZ.s:430    .text:00000000000001c8 .L0 
     /tmp/ccb4iuiZ.s:432    .text:00000000000001c8 .L0 
     /tmp/ccb4iuiZ.s:433    .text:00000000000001cc .L0 
     /tmp/ccb4iuiZ.s:436    .text:00000000000001d4 .L0 
     /tmp/ccb4iuiZ.s:437    .text:00000000000001d4 .L0 
     /tmp/ccb4iuiZ.s:439    .text:00000000000001d8 .L0 
     /tmp/ccb4iuiZ.s:442    .text:00000000000001dc .L0 
     /tmp/ccb4iuiZ.s:443    .text:00000000000001dc .L0 
     /tmp/ccb4iuiZ.s:448    .text:00000000000001e8 .L0 
     /tmp/ccb4iuiZ.s:449    .text:00000000000001ec .L0 
     /tmp/ccb4iuiZ.s:451    .text:00000000000001f0 .L0 
     /tmp/ccb4iuiZ.s:452    .text:00000000000001f0 .L0 
     /tmp/ccb4iuiZ.s:454    .text:00000000000001f4 .L0 
     /tmp/ccb4iuiZ.s:456    .text:00000000000001f8 .L0 
     /tmp/ccb4iuiZ.s:462    .text:00000000000001f8 _Z9test_callm
     /tmp/ccb4iuiZ.s:465    .text:00000000000001f8 .L0 
     /tmp/ccb4iuiZ.s:467    .text:00000000000001f8 .L0 
     /tmp/ccb4iuiZ.s:468    .text:00000000000001fc .L0 
     /tmp/ccb4iuiZ.s:471    .text:0000000000000204 .L0 
     /tmp/ccb4iuiZ.s:472    .text:0000000000000204 .L0 
     /tmp/ccb4iuiZ.s:474    .text:0000000000000208 .L0 
     /tmp/ccb4iuiZ.s:477    .text:000000000000020c .L0 
     /tmp/ccb4iuiZ.s:478    .text:000000000000020c .L0 
     /tmp/ccb4iuiZ.s:483    .text:0000000000000218 .L0 
     /tmp/ccb4iuiZ.s:484    .text:000000000000021c .L0 
     /tmp/ccb4iuiZ.s:486    .text:0000000000000220 .L0 
     /tmp/ccb4iuiZ.s:487    .text:0000000000000220 .L0 
     /tmp/ccb4iuiZ.s:489    .text:0000000000000224 .L0 
     /tmp/ccb4iuiZ.s:491    .text:0000000000000228 .L0 
     /tmp/ccb4iuiZ.s:497    .text:0000000000000228 .L0 
     /tmp/ccb4iuiZ.s:1054   .debug_abbrev:0000000000000000 .Ldebug_abbrev0
     /tmp/ccb4iuiZ.s:1708   .debug_str:000000000000025a .LASF44
     /tmp/ccb4iuiZ.s:1698   .debug_str:0000000000000224 .LASF45
     /tmp/ccb4iuiZ.s:1690   .debug_str:00000000000001db .LASF46
     /tmp/ccb4iuiZ.s:5      .text:0000000000000000 .Ltext0
     /tmp/ccb4iuiZ.s:494    .text:0000000000000228 .Letext0
     /tmp/ccb4iuiZ.s:1620   .debug_line:0000000000000000 .Ldebug_line0
     /tmp/ccb4iuiZ.s:1672   .debug_str:000000000000014e .LASF0
     /tmp/ccb4iuiZ.s:1680   .debug_str:0000000000000187 .LASF1
     /tmp/ccb4iuiZ.s:1668   .debug_str:000000000000012d .LASF2
     /tmp/ccb4iuiZ.s:1662   .debug_str:000000000000010e .LASF4
     /tmp/ccb4iuiZ.s:1700   .debug_str:0000000000000232 .LASF3
     /tmp/ccb4iuiZ.s:1630   .debug_str:000000000000003d .LASF5
     /tmp/ccb4iuiZ.s:1684   .debug_str:00000000000001ab .LASF6
     /tmp/ccb4iuiZ.s:1670   .debug_str:000000000000013b .LASF7
     /tmp/ccb4iuiZ.s:1712   .debug_str:000000000000032d .LASF8
     /tmp/ccb4iuiZ.s:1658   .debug_str:00000000000000f4 .LASF9
GAS LISTING /tmp/ccb4iuiZ.s 			page 16


     /tmp/ccb4iuiZ.s:1688   .debug_str:00000000000001cc .LASF10
     /tmp/ccb4iuiZ.s:1710   .debug_str:000000000000031e .LASF11
     /tmp/ccb4iuiZ.s:1632   .debug_str:0000000000000044 .LASF12
     /tmp/ccb4iuiZ.s:1626   .debug_str:0000000000000021 .LASF13
     /tmp/ccb4iuiZ.s:1634   .debug_str:0000000000000054 .LASF14
     /tmp/ccb4iuiZ.s:1696   .debug_str:000000000000020e .LASF15
     /tmp/ccb4iuiZ.s:1646   .debug_str:000000000000009f .LASF16
     /tmp/ccb4iuiZ.s:1622   .debug_str:0000000000000000 .LASF17
     /tmp/ccb4iuiZ.s:1652   .debug_str:00000000000000cc .LASF18
     /tmp/ccb4iuiZ.s:1678   .debug_str:000000000000017d .LASF20
     /tmp/ccb4iuiZ.s:1694   .debug_str:0000000000000200 .LASF22
     /tmp/ccb4iuiZ.s:463    .text:00000000000001f8 .LFB15
     /tmp/ccb4iuiZ.s:492    .text:0000000000000228 .LFE15
     /tmp/ccb4iuiZ.s:1439   .debug_loc:0000000000000000 .LLST9
     /tmp/ccb4iuiZ.s:481    .text:0000000000000218 .LVL26
     /tmp/ccb4iuiZ.s:1660   .debug_str:0000000000000102 .LASF27
     /tmp/ccb4iuiZ.s:1664   .debug_str:0000000000000115 .LASF29
     /tmp/ccb4iuiZ.s:428    .text:00000000000001c8 .LFB14
     /tmp/ccb4iuiZ.s:457    .text:00000000000001f8 .LFE14
     /tmp/ccb4iuiZ.s:1704   .debug_str:000000000000024e .LASF19
     /tmp/ccb4iuiZ.s:1457   .debug_loc:000000000000004c .LLST8
     /tmp/ccb4iuiZ.s:446    .text:00000000000001e8 .LVL23
     /tmp/ccb4iuiZ.s:1648   .debug_str:00000000000000b5 .LASF21
     /tmp/ccb4iuiZ.s:1676   .debug_str:0000000000000160 .LASF23
     /tmp/ccb4iuiZ.s:389    .text:0000000000000190 .LFB13
     /tmp/ccb4iuiZ.s:422    .text:00000000000001c8 .LFE13
     /tmp/ccb4iuiZ.s:1475   .debug_loc:0000000000000098 .LLST5
     /tmp/ccb4iuiZ.s:1656   .debug_str:00000000000000e6 .LASF24
     /tmp/ccb4iuiZ.s:1493   .debug_loc:00000000000000e4 .LLST6
     /tmp/ccb4iuiZ.s:1511   .debug_loc:0000000000000130 .LLST7
     /tmp/ccb4iuiZ.s:411    .text:00000000000001b8 .LVL20
     /tmp/ccb4iuiZ.s:1628   .debug_str:0000000000000031 .LASF25
     /tmp/ccb4iuiZ.s:1682   .debug_str:000000000000019a .LASF26
     /tmp/ccb4iuiZ.s:357    .text:0000000000000164 .LFB12
     /tmp/ccb4iuiZ.s:383    .text:0000000000000190 .LFE12
     /tmp/ccb4iuiZ.s:372    .text:0000000000000180 .LVL15
     /tmp/ccb4iuiZ.s:1636   .debug_str:0000000000000060 .LASF28
     /tmp/ccb4iuiZ.s:1654   .debug_str:00000000000000d1 .LASF30
     /tmp/ccb4iuiZ.s:325    .text:0000000000000138 .LFB11
     /tmp/ccb4iuiZ.s:351    .text:0000000000000164 .LFE11
     /tmp/ccb4iuiZ.s:340    .text:0000000000000154 .LVL14
     /tmp/ccb4iuiZ.s:1650   .debug_str:00000000000000c3 .LASF31
     /tmp/ccb4iuiZ.s:1686   .debug_str:00000000000001be .LASF32
     /tmp/ccb4iuiZ.s:289    .text:0000000000000104 .LFB10
     /tmp/ccb4iuiZ.s:319    .text:0000000000000138 .LFE10
     /tmp/ccb4iuiZ.s:1529   .debug_loc:000000000000017c .LLST4
     /tmp/ccb4iuiZ.s:307    .text:0000000000000124 .LVL13
     /tmp/ccb4iuiZ.s:1702   .debug_str:0000000000000244 .LASF33
     /tmp/ccb4iuiZ.s:1644   .debug_str:0000000000000091 .LASF34
     /tmp/ccb4iuiZ.s:254    .text:00000000000000d4 .LFB9
     /tmp/ccb4iuiZ.s:283    .text:0000000000000104 .LFE9
     /tmp/ccb4iuiZ.s:1706   .debug_str:0000000000000255 .LASF35
     /tmp/ccb4iuiZ.s:1547   .debug_loc:00000000000001c8 .LLST3
     /tmp/ccb4iuiZ.s:272    .text:00000000000000f4 .LVL10
     /tmp/ccb4iuiZ.s:1666   .debug_str:0000000000000126 .LASF47
     /tmp/ccb4iuiZ.s:107    .text:0000000000000054 .LFB8
     /tmp/ccb4iuiZ.s:142    .text:0000000000000078 .LFE8
GAS LISTING /tmp/ccb4iuiZ.s 			page 17


     /tmp/ccb4iuiZ.s:1674   .debug_str:000000000000015b .LASF36
     /tmp/ccb4iuiZ.s:1714   .debug_str:000000000000033d .LASF37
     /tmp/ccb4iuiZ.s:63     .text:000000000000002c .LFB7
     /tmp/ccb4iuiZ.s:102    .text:0000000000000054 .LFE7
     /tmp/ccb4iuiZ.s:1565   .debug_loc:0000000000000214 .LLST1
     /tmp/ccb4iuiZ.s:1716   .debug_str:0000000000000349 .LASF38
     /tmp/ccb4iuiZ.s:9      .text:0000000000000000 .LFB6
     /tmp/ccb4iuiZ.s:58     .text:000000000000002c .LFE6
     /tmp/ccb4iuiZ.s:1579   .debug_loc:000000000000024d .LLST0
     /tmp/ccb4iuiZ.s:1638   .debug_str:0000000000000070 .LASF39
     /tmp/ccb4iuiZ.s:1624   .debug_str:0000000000000009 .LASF40
     /tmp/ccb4iuiZ.s:1720   .debug_str:0000000000000364 .LASF41
     /tmp/ccb4iuiZ.s:189    .text:000000000000009c .LFB5
     /tmp/ccb4iuiZ.s:248    .text:00000000000000d4 .LFE5
     /tmp/ccb4iuiZ.s:1593   .debug_loc:0000000000000286 .LLST2
     /tmp/ccb4iuiZ.s:1640   .debug_str:000000000000007b .LASF42
     /tmp/ccb4iuiZ.s:1642   .debug_str:0000000000000086 .LASF43
     /tmp/ccb4iuiZ.s:1718   .debug_str:0000000000000359 .LASF48
     /tmp/ccb4iuiZ.s:1692   .debug_str:00000000000001ef .LASF49
     /tmp/ccb4iuiZ.s:148    .text:0000000000000078 .LFB4
     /tmp/ccb4iuiZ.s:183    .text:000000000000009c .LFE4
     /tmp/ccb4iuiZ.s:466    .text:00000000000001f8 .LVL24
     /tmp/ccb4iuiZ.s:479    .text:0000000000000210 .LVL25
     /tmp/ccb4iuiZ.s:431    .text:00000000000001c8 .LVL21
     /tmp/ccb4iuiZ.s:444    .text:00000000000001e0 .LVL22
     /tmp/ccb4iuiZ.s:392    .text:0000000000000190 .LVL16
     /tmp/ccb4iuiZ.s:409    .text:00000000000001b0 .LVL19
     /tmp/ccb4iuiZ.s:407    .text:00000000000001ac .LVL18
     /tmp/ccb4iuiZ.s:405    .text:00000000000001a8 .LVL17
     /tmp/ccb4iuiZ.s:292    .text:0000000000000104 .LVL11
     /tmp/ccb4iuiZ.s:305    .text:000000000000011c .LVL12
     /tmp/ccb4iuiZ.s:257    .text:00000000000000d4 .LVL8
     /tmp/ccb4iuiZ.s:270    .text:00000000000000ec .LVL9
     /tmp/ccb4iuiZ.s:66     .text:000000000000002c .LVL2
     /tmp/ccb4iuiZ.s:90     .text:0000000000000044 .LVL3
     /tmp/ccb4iuiZ.s:13     .text:0000000000000000 .LVL0
     /tmp/ccb4iuiZ.s:47     .text:0000000000000020 .LVL1
     /tmp/ccb4iuiZ.s:192    .text:000000000000009c .LVL6
     /tmp/ccb4iuiZ.s:236    .text:00000000000000c4 .LVL7
     /tmp/ccb4iuiZ.s:498    .debug_info:0000000000000000 .Ldebug_info0

NO UNDEFINED SYMBOLS
