GAS LISTING /tmp/ccaH6kN4.s 			page 1


   1              		.file	"c_api.cpp"
   2              		.option pic
   3              		.option norelax
   4              		.text
   5              	.Ltext0:
   6              		.align	2
   8              	_ZL15helperRet64P164mm:
   9              	.LFB5:
  10              		.file 1 "src/c_api.cpp"
   1:src/c_api.cpp **** #include "../h/c_api.h"
   2:src/c_api.cpp **** #include "../h/my_console.h"
   3:src/c_api.cpp **** #include "../h/thread.h"
   4:src/c_api.cpp **** 
   5:src/c_api.cpp **** uint64 fib(uint64);
   6:src/c_api.cpp **** 
   7:src/c_api.cpp **** int helperRet32P164P264P364(uint64 code, uint64 parameter1, uint64 parameter2, uint64 parameter3)
   8:src/c_api.cpp **** {
   9:src/c_api.cpp ****     __asm__ volatile ("mv a3, %[name]" : : [name] "r" (parameter3));
  10:src/c_api.cpp ****     __asm__ volatile ("mv a2, %[name]" : : [name] "r" (parameter2));
  11:src/c_api.cpp ****     __asm__ volatile ("mv a1, %[name]" : : [name] "r" (parameter1));
  12:src/c_api.cpp ****     __asm__ volatile ("mv a0, %[name]" : : [name] "r" (code)); // WARNING: this instruction must be
  13:src/c_api.cpp **** 
  14:src/c_api.cpp ****     __asm__ volatile ("ecall");
  15:src/c_api.cpp **** 
  16:src/c_api.cpp ****     __asm__ volatile("mv x10, x10"); // temp
  17:src/c_api.cpp **** 
  18:src/c_api.cpp ****     uint64 ret;
  19:src/c_api.cpp ****     __asm__ volatile ("mv %[name], a0" : [name] "=r"(ret));
  20:src/c_api.cpp **** 
  21:src/c_api.cpp ****     return *((int*)&ret);
  22:src/c_api.cpp **** }
  23:src/c_api.cpp **** 
  24:src/c_api.cpp **** static uint64 helperRet64P164(uint64 code, uint64 parameter1) // returns 64bit and takes a 64bit pa
  25:src/c_api.cpp **** {
  11              		.loc 1 25 1
  12              		.cfi_startproc
  13              	.LVL0:
  14 0000 130101FF 		addi	sp,sp,-16
  15              		.cfi_def_cfa_offset 16
  16 0004 23348100 		sd	s0,8(sp)
  17              		.cfi_offset 8, -8
  18 0008 13040101 		addi	s0,sp,16
  19              		.cfi_def_cfa 8, 0
  26:src/c_api.cpp ****     __asm__ volatile ("mv a1, %[name]" : : [name] "r" (parameter1));
  20              		.loc 1 26 5
  21              		.loc 1 26 68 is_stmt 0
  22              	#APP
  23              	# 26 "src/c_api.cpp" 1
  27              	    __asm__ volatile ("mv a0, %[name]" : : [name] "r" (code)); // WARNING: this instruction must be
  24              		mv a1, a1
  25              	# 0 "" 2
  26              		.loc 1 27 5 is_stmt 1
  27              		.loc 1 27 62 is_stmt 0
  28              	# 27 "src/c_api.cpp" 1
  28              	
  29:src/c_api.cpp ****     __asm__ volatile ("ecall");
  29              		mv a0, a0
GAS LISTING /tmp/ccaH6kN4.s 			page 2


  30              	# 0 "" 2
  31              		.loc 1 29 5 is_stmt 1
  32              		.loc 1 29 31 is_stmt 0
  33              	# 29 "src/c_api.cpp" 1
  30              	
  31:src/c_api.cpp ****     __asm__ volatile ("mv x10, x10");
  34              		ecall
  35              	# 0 "" 2
  36              		.loc 1 31 5 is_stmt 1
  37              		.loc 1 31 37 is_stmt 0
  38              	# 31 "src/c_api.cpp" 1
  32              	
  33:src/c_api.cpp ****     uint64 ret;
  39              		mv x10, x10
  40              	# 0 "" 2
  41              		.loc 1 33 5 is_stmt 1
  34:src/c_api.cpp ****     __asm__ volatile ("mv %[name], a0" : [name] "=r"(ret));
  42              		.loc 1 34 5
  43              		.loc 1 34 59 is_stmt 0
  44              	# 34 "src/c_api.cpp" 1
  35              	
  45              		mv a0, a0
  46              	# 0 "" 2
  47              	.LVL1:
  36:src/c_api.cpp ****     return ret;
  48              		.loc 1 36 5 is_stmt 1
  37:src/c_api.cpp **** }
  49              		.loc 1 37 1 is_stmt 0
  50              	#NO_APP
  51 0020 03348100 		ld	s0,8(sp)
  52              		.cfi_restore 8
  53              		.cfi_def_cfa 2, 16
  54 0024 13010101 		addi	sp,sp,16
  55              		.cfi_def_cfa_offset 0
  56 0028 67800000 		jr	ra
  57              		.cfi_endproc
  58              	.LFE5:
  60              		.align	2
  62              	_ZL11helperRet32m:
  63              	.LFB6:
  38:src/c_api.cpp **** 
  39:src/c_api.cpp **** static int helperRet32(uint64 code) // returns 64bit and takes no params
  40:src/c_api.cpp **** {
  64              		.loc 1 40 1 is_stmt 1
  65              		.cfi_startproc
  66              	.LVL2:
  67 002c 130101FF 		addi	sp,sp,-16
  68              		.cfi_def_cfa_offset 16
  69 0030 23348100 		sd	s0,8(sp)
  70              		.cfi_offset 8, -8
  71 0034 13040101 		addi	s0,sp,16
  72              		.cfi_def_cfa 8, 0
  41:src/c_api.cpp ****     __asm__ volatile ("mv a0, %[name]" : : [name] "r" (code));
  73              		.loc 1 41 5
  74              		.loc 1 41 62 is_stmt 0
  75              	#APP
  76              	# 41 "src/c_api.cpp" 1
GAS LISTING /tmp/ccaH6kN4.s 			page 3


  42              	
  43:src/c_api.cpp ****     __asm__ volatile ("ecall");
  77              		mv a0, a0
  78              	# 0 "" 2
  79              		.loc 1 43 5 is_stmt 1
  80              		.loc 1 43 31 is_stmt 0
  81              	# 43 "src/c_api.cpp" 1
  44              	
  45:src/c_api.cpp ****     uint64 ret;
  82              		ecall
  83              	# 0 "" 2
  84              		.loc 1 45 5 is_stmt 1
  46:src/c_api.cpp ****     __asm__ volatile ("mv %[name], a0" : [name] "=r"(ret));
  85              		.loc 1 46 5
  86              		.loc 1 46 59 is_stmt 0
  87              	# 46 "src/c_api.cpp" 1
  47              	
  88              		mv a0, a0
  89              	# 0 "" 2
  90              	.LVL3:
  48:src/c_api.cpp ****     return *((int*)&ret);
  91              		.loc 1 48 5 is_stmt 1
  49:src/c_api.cpp **** }
  92              		.loc 1 49 1 is_stmt 0
  93              	#NO_APP
  94 0044 1B050500 		sext.w	a0,a0
  95 0048 03348100 		ld	s0,8(sp)
  96              		.cfi_restore 8
  97              		.cfi_def_cfa 2, 16
  98 004c 13010101 		addi	sp,sp,16
  99              		.cfi_def_cfa_offset 0
 100 0050 67800000 		jr	ra
 101              		.cfi_endproc
 102              	.LFE6:
 104              		.align	2
 106              	_ZL6helperm:
 107              	.LFB7:
  50:src/c_api.cpp **** 
  51:src/c_api.cpp **** static void helper(uint64 code) // returns nothing and takes no parameters (eg thread_dispatch)
  52:src/c_api.cpp **** {
 108              		.loc 1 52 1 is_stmt 1
 109              		.cfi_startproc
 110              	.LVL4:
 111 0054 130101FF 		addi	sp,sp,-16
 112              		.cfi_def_cfa_offset 16
 113 0058 23348100 		sd	s0,8(sp)
 114              		.cfi_offset 8, -8
 115 005c 13040101 		addi	s0,sp,16
 116              		.cfi_def_cfa 8, 0
  53:src/c_api.cpp ****     __asm__ volatile ("mv a0, %[name]" : : [name] "r" (code));
 117              		.loc 1 53 5
 118              		.loc 1 53 62 is_stmt 0
 119              	#APP
 120              	# 53 "src/c_api.cpp" 1
  54              	    __asm__ volatile ("ecall");
 121              		mv a0, a0
 122              	# 0 "" 2
GAS LISTING /tmp/ccaH6kN4.s 			page 4


 123              		.loc 1 54 5 is_stmt 1
 124              		.loc 1 54 31 is_stmt 0
 125              	# 54 "src/c_api.cpp" 1
  55              	
  56:src/c_api.cpp **** }
 126              		ecall
 127              	# 0 "" 2
 128              		.loc 1 56 1
 129              	#NO_APP
 130 0068 03348100 		ld	s0,8(sp)
 131              		.cfi_restore 8
 132              		.cfi_def_cfa 2, 16
 133 006c 13010101 		addi	sp,sp,16
 134              		.cfi_def_cfa_offset 0
 135 0070 67800000 		jr	ra
 136              		.cfi_endproc
 137              	.LFE7:
 139              		.align	2
 140              		.globl	_Z23helperRet32P164P264P364mmmm
 142              	_Z23helperRet32P164P264P364mmmm:
 143              	.LFB4:
   8:src/c_api.cpp ****     __asm__ volatile ("mv a3, %[name]" : : [name] "r" (parameter3));
 144              		.loc 1 8 1 is_stmt 1
 145              		.cfi_startproc
 146              	.LVL5:
 147 0074 130101FF 		addi	sp,sp,-16
 148              		.cfi_def_cfa_offset 16
 149 0078 23348100 		sd	s0,8(sp)
 150              		.cfi_offset 8, -8
 151 007c 13040101 		addi	s0,sp,16
 152              		.cfi_def_cfa 8, 0
   9:src/c_api.cpp ****     __asm__ volatile ("mv a2, %[name]" : : [name] "r" (parameter2));
 153              		.loc 1 9 5
   9:src/c_api.cpp ****     __asm__ volatile ("mv a2, %[name]" : : [name] "r" (parameter2));
 154              		.loc 1 9 68 is_stmt 0
 155              	#APP
 156              	# 9 "src/c_api.cpp" 1
  10:src/c_api.cpp ****     __asm__ volatile ("mv a1, %[name]" : : [name] "r" (parameter1));
 157              		mv a3, a3
 158              	# 0 "" 2
 159              		.loc 1 10 5 is_stmt 1
  10:src/c_api.cpp ****     __asm__ volatile ("mv a1, %[name]" : : [name] "r" (parameter1));
 160              		.loc 1 10 68 is_stmt 0
 161              	# 10 "src/c_api.cpp" 1
  11:src/c_api.cpp ****     __asm__ volatile ("mv a0, %[name]" : : [name] "r" (code)); // WARNING: this instruction must be
 162              		mv a2, a2
 163              	# 0 "" 2
 164              		.loc 1 11 5 is_stmt 1
  11:src/c_api.cpp ****     __asm__ volatile ("mv a0, %[name]" : : [name] "r" (code)); // WARNING: this instruction must be
 165              		.loc 1 11 68 is_stmt 0
 166              	# 11 "src/c_api.cpp" 1
  12:src/c_api.cpp **** 
 167              		mv a1, a1
 168              	# 0 "" 2
 169              		.loc 1 12 5 is_stmt 1
  12:src/c_api.cpp **** 
 170              		.loc 1 12 62 is_stmt 0
GAS LISTING /tmp/ccaH6kN4.s 			page 5


 171              	# 12 "src/c_api.cpp" 1
  14:src/c_api.cpp **** 
 172              		mv a0, a0
 173              	# 0 "" 2
 174              		.loc 1 14 5 is_stmt 1
  14:src/c_api.cpp **** 
 175              		.loc 1 14 31 is_stmt 0
 176              	# 14 "src/c_api.cpp" 1
  16:src/c_api.cpp **** 
 177              		ecall
 178              	# 0 "" 2
 179              		.loc 1 16 5 is_stmt 1
  16:src/c_api.cpp **** 
 180              		.loc 1 16 36 is_stmt 0
 181              	# 16 "src/c_api.cpp" 1
  18:src/c_api.cpp ****     __asm__ volatile ("mv %[name], a0" : [name] "=r"(ret));
 182              		mv x10, x10
 183              	# 0 "" 2
 184              		.loc 1 18 5 is_stmt 1
  19:src/c_api.cpp **** 
 185              		.loc 1 19 5
  19:src/c_api.cpp **** 
 186              		.loc 1 19 59 is_stmt 0
 187              	# 19 "src/c_api.cpp" 1
 188              		mv a0, a0
 189              	# 0 "" 2
 190              	.LVL6:
  21:src/c_api.cpp **** }
 191              		.loc 1 21 5 is_stmt 1
  22:src/c_api.cpp **** 
 192              		.loc 1 22 1 is_stmt 0
 193              	#NO_APP
 194 009c 1B050500 		sext.w	a0,a0
 195 00a0 03348100 		ld	s0,8(sp)
 196              		.cfi_restore 8
 197              		.cfi_def_cfa 2, 16
 198 00a4 13010101 		addi	sp,sp,16
 199              		.cfi_def_cfa_offset 0
 200 00a8 67800000 		jr	ra
 201              		.cfi_endproc
 202              	.LFE4:
 204              		.align	2
 205              		.globl	_Z9mem_allocm
 207              	_Z9mem_allocm:
 208              	.LFB8:
  57:src/c_api.cpp **** 
  58:src/c_api.cpp **** void* mem_alloc(size_t size)
  59:src/c_api.cpp **** {
 209              		.loc 1 59 1 is_stmt 1
 210              		.cfi_startproc
 211              	.LVL7:
 212 00ac 130101FF 		addi	sp,sp,-16
 213              		.cfi_def_cfa_offset 16
 214 00b0 23341100 		sd	ra,8(sp)
 215 00b4 23308100 		sd	s0,0(sp)
 216              		.cfi_offset 1, -8
 217              		.cfi_offset 8, -16
GAS LISTING /tmp/ccaH6kN4.s 			page 6


 218 00b8 13040101 		addi	s0,sp,16
 219              		.cfi_def_cfa 8, 0
 220 00bc 93050500 		mv	a1,a0
  60:src/c_api.cpp ****     return (void*) helperRet64P164(1, size);
 221              		.loc 1 60 5
 222              		.loc 1 60 35 is_stmt 0
 223 00c0 13051000 		li	a0,1
 224              	.LVL8:
 225 00c4 97000000 		call	_ZL15helperRet64P164mm
 225      E7800000 
 226              	.LVL9:
  61:src/c_api.cpp **** }
 227              		.loc 1 61 1
 228 00cc 83308100 		ld	ra,8(sp)
 229              		.cfi_restore 1
 230 00d0 03340100 		ld	s0,0(sp)
 231              		.cfi_restore 8
 232              		.cfi_def_cfa 2, 16
 233 00d4 13010101 		addi	sp,sp,16
 234              		.cfi_def_cfa_offset 0
 235 00d8 67800000 		jr	ra
 236              		.cfi_endproc
 237              	.LFE8:
 239              		.align	2
 240              		.globl	_Z8mem_freePv
 242              	_Z8mem_freePv:
 243              	.LFB9:
  62:src/c_api.cpp **** 
  63:src/c_api.cpp **** int mem_free(void* ptr)
  64:src/c_api.cpp **** {
 244              		.loc 1 64 1 is_stmt 1
 245              		.cfi_startproc
 246              	.LVL10:
 247 00dc 130101FF 		addi	sp,sp,-16
 248              		.cfi_def_cfa_offset 16
 249 00e0 23341100 		sd	ra,8(sp)
 250 00e4 23308100 		sd	s0,0(sp)
 251              		.cfi_offset 1, -8
 252              		.cfi_offset 8, -16
 253 00e8 13040101 		addi	s0,sp,16
 254              		.cfi_def_cfa 8, 0
 255 00ec 93050500 		mv	a1,a0
  65:src/c_api.cpp ****     return helperRet64P164(2, (uint64) ptr);
 256              		.loc 1 65 5
 257              		.loc 1 65 27 is_stmt 0
 258 00f0 13052000 		li	a0,2
 259              	.LVL11:
 260 00f4 97000000 		call	_ZL15helperRet64P164mm
 260      E7800000 
 261              	.LVL12:
  66:src/c_api.cpp **** }
 262              		.loc 1 66 1
 263 00fc 1B050500 		sext.w	a0,a0
 264 0100 83308100 		ld	ra,8(sp)
 265              		.cfi_restore 1
 266 0104 03340100 		ld	s0,0(sp)
 267              		.cfi_restore 8
GAS LISTING /tmp/ccaH6kN4.s 			page 7


 268              		.cfi_def_cfa 2, 16
 269 0108 13010101 		addi	sp,sp,16
 270              		.cfi_def_cfa_offset 0
 271 010c 67800000 		jr	ra
 272              		.cfi_endproc
 273              	.LFE9:
 275              		.align	2
 276              		.globl	_Z15thread_dispatchv
 278              	_Z15thread_dispatchv:
 279              	.LFB10:
  67:src/c_api.cpp **** 
  68:src/c_api.cpp **** void thread_dispatch() // WARNING: different than Scheduler::dispatchToNext()
  69:src/c_api.cpp **** {
 280              		.loc 1 69 1 is_stmt 1
 281              		.cfi_startproc
 282 0110 130101FF 		addi	sp,sp,-16
 283              		.cfi_def_cfa_offset 16
 284 0114 23341100 		sd	ra,8(sp)
 285 0118 23308100 		sd	s0,0(sp)
 286              		.cfi_offset 1, -8
 287              		.cfi_offset 8, -16
 288 011c 13040101 		addi	s0,sp,16
 289              		.cfi_def_cfa 8, 0
  70:src/c_api.cpp ****     helper(0x13);
 290              		.loc 1 70 5
 291              		.loc 1 70 11 is_stmt 0
 292 0120 13053001 		li	a0,19
 293 0124 97000000 		call	_ZL6helperm
 293      E7800000 
 294              	.LVL13:
  71:src/c_api.cpp **** }
 295              		.loc 1 71 1
 296 012c 83308100 		ld	ra,8(sp)
 297              		.cfi_restore 1
 298 0130 03340100 		ld	s0,0(sp)
 299              		.cfi_restore 8
 300              		.cfi_def_cfa 2, 16
 301 0134 13010101 		addi	sp,sp,16
 302              		.cfi_def_cfa_offset 0
 303 0138 67800000 		jr	ra
 304              		.cfi_endproc
 305              	.LFE10:
 307              		.align	2
 308              		.globl	_Z11thread_exitv
 310              	_Z11thread_exitv:
 311              	.LFB11:
  72:src/c_api.cpp **** 
  73:src/c_api.cpp **** int thread_exit()
  74:src/c_api.cpp **** {
 312              		.loc 1 74 1 is_stmt 1
 313              		.cfi_startproc
 314 013c 130101FF 		addi	sp,sp,-16
 315              		.cfi_def_cfa_offset 16
 316 0140 23341100 		sd	ra,8(sp)
 317 0144 23308100 		sd	s0,0(sp)
 318              		.cfi_offset 1, -8
 319              		.cfi_offset 8, -16
GAS LISTING /tmp/ccaH6kN4.s 			page 8


 320 0148 13040101 		addi	s0,sp,16
 321              		.cfi_def_cfa 8, 0
  75:src/c_api.cpp ****     return helperRet32(0x12);
 322              		.loc 1 75 5
 323              		.loc 1 75 23 is_stmt 0
 324 014c 13052001 		li	a0,18
 325 0150 97000000 		call	_ZL11helperRet32m
 325      E7800000 
 326              	.LVL14:
  76:src/c_api.cpp **** }
 327              		.loc 1 76 1
 328 0158 83308100 		ld	ra,8(sp)
 329              		.cfi_restore 1
 330 015c 03340100 		ld	s0,0(sp)
 331              		.cfi_restore 8
 332              		.cfi_def_cfa 2, 16
 333 0160 13010101 		addi	sp,sp,16
 334              		.cfi_def_cfa_offset 0
 335 0164 67800000 		jr	ra
 336              		.cfi_endproc
 337              	.LFE11:
 339              		.align	2
 340              		.globl	_Z13thread_createPmPFvPvES0_
 342              	_Z13thread_createPmPFvPvES0_:
 343              	.LFB12:
  77:src/c_api.cpp **** 
  78:src/c_api.cpp **** int thread_create(thread_t* handle, void(*start_routine)(void*), void*arg)
  79:src/c_api.cpp **** {
 344              		.loc 1 79 1 is_stmt 1
 345              		.cfi_startproc
 346              	.LVL15:
 347 0168 130101FF 		addi	sp,sp,-16
 348              		.cfi_def_cfa_offset 16
 349 016c 23341100 		sd	ra,8(sp)
 350 0170 23308100 		sd	s0,0(sp)
 351              		.cfi_offset 1, -8
 352              		.cfi_offset 8, -16
 353 0174 13040101 		addi	s0,sp,16
 354              		.cfi_def_cfa 8, 0
 355 0178 93060600 		mv	a3,a2
  80:src/c_api.cpp ****     return helperRet32P164P264P364(0x11, (uint64)handle, (uint64)start_routine, (uint64)arg);
 356              		.loc 1 80 5
 357              		.loc 1 80 35 is_stmt 0
 358 017c 13860500 		mv	a2,a1
 359              	.LVL16:
 360 0180 93050500 		mv	a1,a0
 361              	.LVL17:
 362 0184 13051001 		li	a0,17
 363              	.LVL18:
 364 0188 97000000 		call	_Z23helperRet32P164P264P364mmmm
 364      E7800000 
 365              	.LVL19:
  81:src/c_api.cpp **** }
 366              		.loc 1 81 1
 367 0190 83308100 		ld	ra,8(sp)
 368              		.cfi_restore 1
 369 0194 03340100 		ld	s0,0(sp)
GAS LISTING /tmp/ccaH6kN4.s 			page 9


 370              		.cfi_restore 8
 371              		.cfi_def_cfa 2, 16
 372 0198 13010101 		addi	sp,sp,16
 373              		.cfi_def_cfa_offset 0
 374 019c 67800000 		jr	ra
 375              		.cfi_endproc
 376              	.LFE12:
 378              		.align	2
 379              		.globl	_Z9test_callm
 381              	_Z9test_callm:
 382              	.LFB13:
  82:src/c_api.cpp **** 
  83:src/c_api.cpp **** //void thread_join(thread_t handle)
  84:src/c_api.cpp **** //{
  85:src/c_api.cpp **** //    helperP164(0x14, handle);
  86:src/c_api.cpp **** //}
  87:src/c_api.cpp **** 
  88:src/c_api.cpp **** uint64 test_call(uint64 n)
  89:src/c_api.cpp **** {
 383              		.loc 1 89 1 is_stmt 1
 384              		.cfi_startproc
 385              	.LVL20:
 386 01a0 130101FF 		addi	sp,sp,-16
 387              		.cfi_def_cfa_offset 16
 388 01a4 23341100 		sd	ra,8(sp)
 389 01a8 23308100 		sd	s0,0(sp)
 390              		.cfi_offset 1, -8
 391              		.cfi_offset 8, -16
 392 01ac 13040101 		addi	s0,sp,16
 393              		.cfi_def_cfa 8, 0
 394 01b0 93050500 		mv	a1,a0
  90:src/c_api.cpp ****     return helperRet64P164(3, n);
 395              		.loc 1 90 5
 396              		.loc 1 90 27 is_stmt 0
 397 01b4 13053000 		li	a0,3
 398              	.LVL21:
 399 01b8 97000000 		call	_ZL15helperRet64P164mm
 399      E7800000 
 400              	.LVL22:
  91:src/c_api.cpp **** }
 401              		.loc 1 91 1
 402 01c0 83308100 		ld	ra,8(sp)
 403              		.cfi_restore 1
 404 01c4 03340100 		ld	s0,0(sp)
 405              		.cfi_restore 8
 406              		.cfi_def_cfa 2, 16
 407 01c8 13010101 		addi	sp,sp,16
 408              		.cfi_def_cfa_offset 0
 409 01cc 67800000 		jr	ra
 410              		.cfi_endproc
 411              	.LFE13:
 413              	.Letext0:
 414              		.file 2 "src/../h/../lib/hw.h"
 415              		.file 3 "src/../h/c_api.h"
GAS LISTING /tmp/ccaH6kN4.s 			page 10


DEFINED SYMBOLS
                            *ABS*:0000000000000000 c_api.cpp
     /tmp/ccaH6kN4.s:8      .text:0000000000000000 _ZL15helperRet64P164mm
     /tmp/ccaH6kN4.s:12     .text:0000000000000000 .L0 
     /tmp/ccaH6kN4.s:14     .text:0000000000000000 .L0 
     /tmp/ccaH6kN4.s:15     .text:0000000000000004 .L0 
     /tmp/ccaH6kN4.s:17     .text:0000000000000008 .L0 
     /tmp/ccaH6kN4.s:19     .text:000000000000000c .L0 
     /tmp/ccaH6kN4.s:21     .text:000000000000000c .L0 
       src/c_api.cpp:26     .text:000000000000000c .L0 
     /tmp/ccaH6kN4.s:27     .text:0000000000000010 .L0 
       src/c_api.cpp:27     .text:0000000000000010 .L0 
     /tmp/ccaH6kN4.s:32     .text:0000000000000014 .L0 
       src/c_api.cpp:29     .text:0000000000000014 .L0 
     /tmp/ccaH6kN4.s:37     .text:0000000000000018 .L0 
       src/c_api.cpp:31     .text:0000000000000018 .L0 
     /tmp/ccaH6kN4.s:42     .text:000000000000001c .L0 
     /tmp/ccaH6kN4.s:43     .text:000000000000001c .L0 
       src/c_api.cpp:34     .text:000000000000001c .L0 
     /tmp/ccaH6kN4.s:49     .text:0000000000000020 .L0 
     /tmp/ccaH6kN4.s:51     .text:0000000000000020 .L0 
     /tmp/ccaH6kN4.s:52     .text:0000000000000024 .L0 
     /tmp/ccaH6kN4.s:53     .text:0000000000000024 .L0 
     /tmp/ccaH6kN4.s:55     .text:0000000000000028 .L0 
     /tmp/ccaH6kN4.s:57     .text:000000000000002c .L0 
     /tmp/ccaH6kN4.s:62     .text:000000000000002c _ZL11helperRet32m
     /tmp/ccaH6kN4.s:65     .text:000000000000002c .L0 
     /tmp/ccaH6kN4.s:67     .text:000000000000002c .L0 
     /tmp/ccaH6kN4.s:68     .text:0000000000000030 .L0 
     /tmp/ccaH6kN4.s:70     .text:0000000000000034 .L0 
     /tmp/ccaH6kN4.s:72     .text:0000000000000038 .L0 
     /tmp/ccaH6kN4.s:74     .text:0000000000000038 .L0 
       src/c_api.cpp:41     .text:0000000000000038 .L0 
     /tmp/ccaH6kN4.s:80     .text:000000000000003c .L0 
       src/c_api.cpp:43     .text:000000000000003c .L0 
     /tmp/ccaH6kN4.s:85     .text:0000000000000040 .L0 
     /tmp/ccaH6kN4.s:86     .text:0000000000000040 .L0 
       src/c_api.cpp:46     .text:0000000000000040 .L0 
     /tmp/ccaH6kN4.s:92     .text:0000000000000044 .L0 
     /tmp/ccaH6kN4.s:94     .text:0000000000000044 .L0 
     /tmp/ccaH6kN4.s:96     .text:000000000000004c .L0 
     /tmp/ccaH6kN4.s:97     .text:000000000000004c .L0 
     /tmp/ccaH6kN4.s:99     .text:0000000000000050 .L0 
     /tmp/ccaH6kN4.s:101    .text:0000000000000054 .L0 
     /tmp/ccaH6kN4.s:106    .text:0000000000000054 _ZL6helperm
     /tmp/ccaH6kN4.s:109    .text:0000000000000054 .L0 
     /tmp/ccaH6kN4.s:111    .text:0000000000000054 .L0 
     /tmp/ccaH6kN4.s:112    .text:0000000000000058 .L0 
     /tmp/ccaH6kN4.s:114    .text:000000000000005c .L0 
     /tmp/ccaH6kN4.s:116    .text:0000000000000060 .L0 
     /tmp/ccaH6kN4.s:118    .text:0000000000000060 .L0 
       src/c_api.cpp:53     .text:0000000000000060 .L0 
     /tmp/ccaH6kN4.s:124    .text:0000000000000064 .L0 
       src/c_api.cpp:54     .text:0000000000000064 .L0 
     /tmp/ccaH6kN4.s:130    .text:0000000000000068 .L0 
     /tmp/ccaH6kN4.s:131    .text:000000000000006c .L0 
     /tmp/ccaH6kN4.s:132    .text:000000000000006c .L0 
GAS LISTING /tmp/ccaH6kN4.s 			page 11


     /tmp/ccaH6kN4.s:134    .text:0000000000000070 .L0 
     /tmp/ccaH6kN4.s:136    .text:0000000000000074 .L0 
     /tmp/ccaH6kN4.s:142    .text:0000000000000074 _Z23helperRet32P164P264P364mmmm
     /tmp/ccaH6kN4.s:145    .text:0000000000000074 .L0 
     /tmp/ccaH6kN4.s:147    .text:0000000000000074 .L0 
     /tmp/ccaH6kN4.s:148    .text:0000000000000078 .L0 
     /tmp/ccaH6kN4.s:150    .text:000000000000007c .L0 
     /tmp/ccaH6kN4.s:152    .text:0000000000000080 .L0 
     /tmp/ccaH6kN4.s:154    .text:0000000000000080 .L0 
       src/c_api.cpp:9      .text:0000000000000080 .L0 
     /tmp/ccaH6kN4.s:160    .text:0000000000000084 .L0 
       src/c_api.cpp:10     .text:0000000000000084 .L0 
     /tmp/ccaH6kN4.s:165    .text:0000000000000088 .L0 
       src/c_api.cpp:11     .text:0000000000000088 .L0 
     /tmp/ccaH6kN4.s:170    .text:000000000000008c .L0 
       src/c_api.cpp:12     .text:000000000000008c .L0 
     /tmp/ccaH6kN4.s:175    .text:0000000000000090 .L0 
       src/c_api.cpp:14     .text:0000000000000090 .L0 
     /tmp/ccaH6kN4.s:180    .text:0000000000000094 .L0 
       src/c_api.cpp:16     .text:0000000000000094 .L0 
     /tmp/ccaH6kN4.s:185    .text:0000000000000098 .L0 
     /tmp/ccaH6kN4.s:186    .text:0000000000000098 .L0 
       src/c_api.cpp:19     .text:0000000000000098 .L0 
     /tmp/ccaH6kN4.s:192    .text:000000000000009c .L0 
     /tmp/ccaH6kN4.s:194    .text:000000000000009c .L0 
     /tmp/ccaH6kN4.s:196    .text:00000000000000a4 .L0 
     /tmp/ccaH6kN4.s:197    .text:00000000000000a4 .L0 
     /tmp/ccaH6kN4.s:199    .text:00000000000000a8 .L0 
     /tmp/ccaH6kN4.s:201    .text:00000000000000ac .L0 
     /tmp/ccaH6kN4.s:207    .text:00000000000000ac _Z9mem_allocm
     /tmp/ccaH6kN4.s:210    .text:00000000000000ac .L0 
     /tmp/ccaH6kN4.s:212    .text:00000000000000ac .L0 
     /tmp/ccaH6kN4.s:213    .text:00000000000000b0 .L0 
     /tmp/ccaH6kN4.s:216    .text:00000000000000b8 .L0 
     /tmp/ccaH6kN4.s:217    .text:00000000000000b8 .L0 
     /tmp/ccaH6kN4.s:219    .text:00000000000000bc .L0 
     /tmp/ccaH6kN4.s:222    .text:00000000000000c0 .L0 
     /tmp/ccaH6kN4.s:223    .text:00000000000000c0 .L0 
     /tmp/ccaH6kN4.s:228    .text:00000000000000cc .L0 
     /tmp/ccaH6kN4.s:229    .text:00000000000000d0 .L0 
     /tmp/ccaH6kN4.s:231    .text:00000000000000d4 .L0 
     /tmp/ccaH6kN4.s:232    .text:00000000000000d4 .L0 
     /tmp/ccaH6kN4.s:234    .text:00000000000000d8 .L0 
     /tmp/ccaH6kN4.s:236    .text:00000000000000dc .L0 
     /tmp/ccaH6kN4.s:242    .text:00000000000000dc _Z8mem_freePv
     /tmp/ccaH6kN4.s:245    .text:00000000000000dc .L0 
     /tmp/ccaH6kN4.s:247    .text:00000000000000dc .L0 
     /tmp/ccaH6kN4.s:248    .text:00000000000000e0 .L0 
     /tmp/ccaH6kN4.s:251    .text:00000000000000e8 .L0 
     /tmp/ccaH6kN4.s:252    .text:00000000000000e8 .L0 
     /tmp/ccaH6kN4.s:254    .text:00000000000000ec .L0 
     /tmp/ccaH6kN4.s:257    .text:00000000000000f0 .L0 
     /tmp/ccaH6kN4.s:258    .text:00000000000000f0 .L0 
     /tmp/ccaH6kN4.s:263    .text:00000000000000fc .L0 
     /tmp/ccaH6kN4.s:265    .text:0000000000000104 .L0 
     /tmp/ccaH6kN4.s:267    .text:0000000000000108 .L0 
     /tmp/ccaH6kN4.s:268    .text:0000000000000108 .L0 
GAS LISTING /tmp/ccaH6kN4.s 			page 12


     /tmp/ccaH6kN4.s:270    .text:000000000000010c .L0 
     /tmp/ccaH6kN4.s:272    .text:0000000000000110 .L0 
     /tmp/ccaH6kN4.s:278    .text:0000000000000110 _Z15thread_dispatchv
     /tmp/ccaH6kN4.s:281    .text:0000000000000110 .L0 
     /tmp/ccaH6kN4.s:282    .text:0000000000000110 .L0 
     /tmp/ccaH6kN4.s:283    .text:0000000000000114 .L0 
     /tmp/ccaH6kN4.s:286    .text:000000000000011c .L0 
     /tmp/ccaH6kN4.s:287    .text:000000000000011c .L0 
     /tmp/ccaH6kN4.s:289    .text:0000000000000120 .L0 
     /tmp/ccaH6kN4.s:291    .text:0000000000000120 .L0 
     /tmp/ccaH6kN4.s:292    .text:0000000000000120 .L0 
     /tmp/ccaH6kN4.s:296    .text:000000000000012c .L0 
     /tmp/ccaH6kN4.s:297    .text:0000000000000130 .L0 
     /tmp/ccaH6kN4.s:299    .text:0000000000000134 .L0 
     /tmp/ccaH6kN4.s:300    .text:0000000000000134 .L0 
     /tmp/ccaH6kN4.s:302    .text:0000000000000138 .L0 
     /tmp/ccaH6kN4.s:304    .text:000000000000013c .L0 
     /tmp/ccaH6kN4.s:310    .text:000000000000013c _Z11thread_exitv
     /tmp/ccaH6kN4.s:313    .text:000000000000013c .L0 
     /tmp/ccaH6kN4.s:314    .text:000000000000013c .L0 
     /tmp/ccaH6kN4.s:315    .text:0000000000000140 .L0 
     /tmp/ccaH6kN4.s:318    .text:0000000000000148 .L0 
     /tmp/ccaH6kN4.s:319    .text:0000000000000148 .L0 
     /tmp/ccaH6kN4.s:321    .text:000000000000014c .L0 
     /tmp/ccaH6kN4.s:323    .text:000000000000014c .L0 
     /tmp/ccaH6kN4.s:324    .text:000000000000014c .L0 
     /tmp/ccaH6kN4.s:328    .text:0000000000000158 .L0 
     /tmp/ccaH6kN4.s:329    .text:000000000000015c .L0 
     /tmp/ccaH6kN4.s:331    .text:0000000000000160 .L0 
     /tmp/ccaH6kN4.s:332    .text:0000000000000160 .L0 
     /tmp/ccaH6kN4.s:334    .text:0000000000000164 .L0 
     /tmp/ccaH6kN4.s:336    .text:0000000000000168 .L0 
     /tmp/ccaH6kN4.s:342    .text:0000000000000168 _Z13thread_createPmPFvPvES0_
     /tmp/ccaH6kN4.s:345    .text:0000000000000168 .L0 
     /tmp/ccaH6kN4.s:347    .text:0000000000000168 .L0 
     /tmp/ccaH6kN4.s:348    .text:000000000000016c .L0 
     /tmp/ccaH6kN4.s:351    .text:0000000000000174 .L0 
     /tmp/ccaH6kN4.s:352    .text:0000000000000174 .L0 
     /tmp/ccaH6kN4.s:354    .text:0000000000000178 .L0 
     /tmp/ccaH6kN4.s:357    .text:000000000000017c .L0 
     /tmp/ccaH6kN4.s:358    .text:000000000000017c .L0 
     /tmp/ccaH6kN4.s:367    .text:0000000000000190 .L0 
     /tmp/ccaH6kN4.s:368    .text:0000000000000194 .L0 
     /tmp/ccaH6kN4.s:370    .text:0000000000000198 .L0 
     /tmp/ccaH6kN4.s:371    .text:0000000000000198 .L0 
     /tmp/ccaH6kN4.s:373    .text:000000000000019c .L0 
     /tmp/ccaH6kN4.s:375    .text:00000000000001a0 .L0 
     /tmp/ccaH6kN4.s:381    .text:00000000000001a0 _Z9test_callm
     /tmp/ccaH6kN4.s:384    .text:00000000000001a0 .L0 
     /tmp/ccaH6kN4.s:386    .text:00000000000001a0 .L0 
     /tmp/ccaH6kN4.s:387    .text:00000000000001a4 .L0 
     /tmp/ccaH6kN4.s:390    .text:00000000000001ac .L0 
     /tmp/ccaH6kN4.s:391    .text:00000000000001ac .L0 
     /tmp/ccaH6kN4.s:393    .text:00000000000001b0 .L0 
     /tmp/ccaH6kN4.s:396    .text:00000000000001b4 .L0 
     /tmp/ccaH6kN4.s:397    .text:00000000000001b4 .L0 
     /tmp/ccaH6kN4.s:402    .text:00000000000001c0 .L0 
GAS LISTING /tmp/ccaH6kN4.s 			page 13


     /tmp/ccaH6kN4.s:403    .text:00000000000001c4 .L0 
     /tmp/ccaH6kN4.s:405    .text:00000000000001c8 .L0 
     /tmp/ccaH6kN4.s:406    .text:00000000000001c8 .L0 
     /tmp/ccaH6kN4.s:408    .text:00000000000001cc .L0 
     /tmp/ccaH6kN4.s:410    .text:00000000000001d0 .L0 
     /tmp/ccaH6kN4.s:416    .text:00000000000001d0 .L0 
     /tmp/ccaH6kN4.s:910    .debug_abbrev:0000000000000000 .Ldebug_abbrev0
     /tmp/ccaH6kN4.s:1542   .debug_str:000000000000022c .LASF42
     /tmp/ccaH6kN4.s:1532   .debug_str:00000000000001f6 .LASF43
     /tmp/ccaH6kN4.s:1526   .debug_str:00000000000001be .LASF44
     /tmp/ccaH6kN4.s:5      .text:0000000000000000 .Ltext0
     /tmp/ccaH6kN4.s:413    .text:00000000000001d0 .Letext0
     /tmp/ccaH6kN4.s:1460   .debug_line:0000000000000000 .Ldebug_line0
     /tmp/ccaH6kN4.s:1508   .debug_str:0000000000000131 .LASF0
     /tmp/ccaH6kN4.s:1516   .debug_str:000000000000016a .LASF1
     /tmp/ccaH6kN4.s:1504   .debug_str:0000000000000110 .LASF2
     /tmp/ccaH6kN4.s:1500   .debug_str:0000000000000102 .LASF4
     /tmp/ccaH6kN4.s:1534   .debug_str:0000000000000204 .LASF3
     /tmp/ccaH6kN4.s:1470   .debug_str:000000000000003d .LASF5
     /tmp/ccaH6kN4.s:1520   .debug_str:000000000000018e .LASF6
     /tmp/ccaH6kN4.s:1506   .debug_str:000000000000011e .LASF7
     /tmp/ccaH6kN4.s:1546   .debug_str:00000000000002ff .LASF8
     /tmp/ccaH6kN4.s:1498   .debug_str:00000000000000f4 .LASF9
     /tmp/ccaH6kN4.s:1524   .debug_str:00000000000001af .LASF10
     /tmp/ccaH6kN4.s:1544   .debug_str:00000000000002f0 .LASF11
     /tmp/ccaH6kN4.s:1472   .debug_str:0000000000000044 .LASF12
     /tmp/ccaH6kN4.s:1466   .debug_str:0000000000000021 .LASF13
     /tmp/ccaH6kN4.s:1474   .debug_str:0000000000000054 .LASF14
     /tmp/ccaH6kN4.s:1530   .debug_str:00000000000001e0 .LASF15
     /tmp/ccaH6kN4.s:1486   .debug_str:000000000000009f .LASF16
     /tmp/ccaH6kN4.s:1462   .debug_str:0000000000000000 .LASF17
     /tmp/ccaH6kN4.s:1492   .debug_str:00000000000000cc .LASF18
     /tmp/ccaH6kN4.s:1514   .debug_str:0000000000000160 .LASF19
     /tmp/ccaH6kN4.s:1528   .debug_str:00000000000001d2 .LASF21
     /tmp/ccaH6kN4.s:382    .text:00000000000001a0 .LFB13
     /tmp/ccaH6kN4.s:411    .text:00000000000001d0 .LFE13
     /tmp/ccaH6kN4.s:1297   .debug_loc:0000000000000000 .LLST8
     /tmp/ccaH6kN4.s:400    .text:00000000000001c0 .LVL22
     /tmp/ccaH6kN4.s:1488   .debug_str:00000000000000b5 .LASF20
     /tmp/ccaH6kN4.s:1512   .debug_str:0000000000000143 .LASF22
     /tmp/ccaH6kN4.s:343    .text:0000000000000168 .LFB12
     /tmp/ccaH6kN4.s:376    .text:00000000000001a0 .LFE12
     /tmp/ccaH6kN4.s:1538   .debug_str:0000000000000220 .LASF23
     /tmp/ccaH6kN4.s:1315   .debug_loc:000000000000004c .LLST5
     /tmp/ccaH6kN4.s:1496   .debug_str:00000000000000e6 .LASF24
     /tmp/ccaH6kN4.s:1333   .debug_loc:0000000000000098 .LLST6
     /tmp/ccaH6kN4.s:1351   .debug_loc:00000000000000e4 .LLST7
     /tmp/ccaH6kN4.s:365    .text:0000000000000190 .LVL19
     /tmp/ccaH6kN4.s:1468   .debug_str:0000000000000031 .LASF25
     /tmp/ccaH6kN4.s:1518   .debug_str:000000000000017d .LASF26
     /tmp/ccaH6kN4.s:311    .text:000000000000013c .LFB11
     /tmp/ccaH6kN4.s:337    .text:0000000000000168 .LFE11
     /tmp/ccaH6kN4.s:326    .text:0000000000000158 .LVL14
     /tmp/ccaH6kN4.s:1476   .debug_str:0000000000000060 .LASF36
     /tmp/ccaH6kN4.s:1494   .debug_str:00000000000000d1 .LASF38
     /tmp/ccaH6kN4.s:279    .text:0000000000000110 .LFB10
     /tmp/ccaH6kN4.s:305    .text:000000000000013c .LFE10
GAS LISTING /tmp/ccaH6kN4.s 			page 14


     /tmp/ccaH6kN4.s:294    .text:000000000000012c .LVL13
     /tmp/ccaH6kN4.s:1490   .debug_str:00000000000000c3 .LASF27
     /tmp/ccaH6kN4.s:1522   .debug_str:00000000000001a1 .LASF28
     /tmp/ccaH6kN4.s:243    .text:00000000000000dc .LFB9
     /tmp/ccaH6kN4.s:273    .text:0000000000000110 .LFE9
     /tmp/ccaH6kN4.s:1369   .debug_loc:0000000000000130 .LLST4
     /tmp/ccaH6kN4.s:261    .text:00000000000000fc .LVL12
     /tmp/ccaH6kN4.s:1536   .debug_str:0000000000000216 .LASF29
     /tmp/ccaH6kN4.s:1484   .debug_str:0000000000000091 .LASF30
     /tmp/ccaH6kN4.s:208    .text:00000000000000ac .LFB8
     /tmp/ccaH6kN4.s:237    .text:00000000000000dc .LFE8
     /tmp/ccaH6kN4.s:1540   .debug_str:0000000000000227 .LASF31
     /tmp/ccaH6kN4.s:1387   .debug_loc:000000000000017c .LLST3
     /tmp/ccaH6kN4.s:226    .text:00000000000000cc .LVL9
     /tmp/ccaH6kN4.s:1502   .debug_str:0000000000000109 .LASF45
     /tmp/ccaH6kN4.s:107    .text:0000000000000054 .LFB7
     /tmp/ccaH6kN4.s:137    .text:0000000000000074 .LFE7
     /tmp/ccaH6kN4.s:1510   .debug_str:000000000000013e .LASF32
     /tmp/ccaH6kN4.s:1548   .debug_str:000000000000030f .LASF33
     /tmp/ccaH6kN4.s:63     .text:000000000000002c .LFB6
     /tmp/ccaH6kN4.s:102    .text:0000000000000054 .LFE6
     /tmp/ccaH6kN4.s:1405   .debug_loc:00000000000001c8 .LLST1
     /tmp/ccaH6kN4.s:1550   .debug_str:000000000000031b .LASF34
     /tmp/ccaH6kN4.s:9      .text:0000000000000000 .LFB5
     /tmp/ccaH6kN4.s:58     .text:000000000000002c .LFE5
     /tmp/ccaH6kN4.s:1419   .debug_loc:0000000000000201 .LLST0
     /tmp/ccaH6kN4.s:1478   .debug_str:0000000000000070 .LASF35
     /tmp/ccaH6kN4.s:1464   .debug_str:0000000000000009 .LASF37
     /tmp/ccaH6kN4.s:1552   .debug_str:000000000000032b .LASF39
     /tmp/ccaH6kN4.s:143    .text:0000000000000074 .LFB4
     /tmp/ccaH6kN4.s:202    .text:00000000000000ac .LFE4
     /tmp/ccaH6kN4.s:1433   .debug_loc:000000000000023a .LLST2
     /tmp/ccaH6kN4.s:1480   .debug_str:000000000000007b .LASF40
     /tmp/ccaH6kN4.s:1482   .debug_str:0000000000000086 .LASF41
     /tmp/ccaH6kN4.s:385    .text:00000000000001a0 .LVL20
     /tmp/ccaH6kN4.s:398    .text:00000000000001b8 .LVL21
     /tmp/ccaH6kN4.s:346    .text:0000000000000168 .LVL15
     /tmp/ccaH6kN4.s:363    .text:0000000000000188 .LVL18
     /tmp/ccaH6kN4.s:361    .text:0000000000000184 .LVL17
     /tmp/ccaH6kN4.s:359    .text:0000000000000180 .LVL16
     /tmp/ccaH6kN4.s:246    .text:00000000000000dc .LVL10
     /tmp/ccaH6kN4.s:259    .text:00000000000000f4 .LVL11
     /tmp/ccaH6kN4.s:211    .text:00000000000000ac .LVL7
     /tmp/ccaH6kN4.s:224    .text:00000000000000c4 .LVL8
     /tmp/ccaH6kN4.s:66     .text:000000000000002c .LVL2
     /tmp/ccaH6kN4.s:90     .text:0000000000000044 .LVL3
     /tmp/ccaH6kN4.s:13     .text:0000000000000000 .LVL0
     /tmp/ccaH6kN4.s:47     .text:0000000000000020 .LVL1
     /tmp/ccaH6kN4.s:146    .text:0000000000000074 .LVL5
     /tmp/ccaH6kN4.s:190    .text:000000000000009c .LVL6
     /tmp/ccaH6kN4.s:417    .debug_info:0000000000000000 .Ldebug_info0

NO UNDEFINED SYMBOLS
