GAS LISTING /tmp/ccnvfusm.s 			page 1


   1              		.file	"c_api.cpp"
   2              		.option pic
   3              		.option norelax
   4              		.text
   5              	.Ltext0:
   6              		.align	2
   8              	_ZL7helper1mm:
   9              	.LFB1:
  10              		.file 1 "src/c_api.cpp"
   1:src/c_api.cpp **** #include "../h/c_api.h"
   2:src/c_api.cpp **** #include "../h/my_console.h"
   3:src/c_api.cpp **** 
   4:src/c_api.cpp **** static uint64 helper1(uint64 code, uint64 parameter1)
   5:src/c_api.cpp **** {
  11              		.loc 1 5 1
  12              		.cfi_startproc
  13              	.LVL0:
  14 0000 130101FF 		addi	sp,sp,-16
  15              		.cfi_def_cfa_offset 16
  16 0004 23348100 		sd	s0,8(sp)
  17              		.cfi_offset 8, -8
  18 0008 13040101 		addi	s0,sp,16
  19              		.cfi_def_cfa 8, 0
   6:src/c_api.cpp ****     __asm__ volatile ("mv a1, %[name]" : : [name] "r" (parameter1));
  20              		.loc 1 6 5
  21              		.loc 1 6 68 is_stmt 0
  22              	#APP
  23              	# 6 "src/c_api.cpp" 1
   7              	    __asm__ volatile ("mv a0, %[name]" : : [name] "r" (code)); // WARNING: this instruction must be
  24              		mv a1, a1
  25              	# 0 "" 2
  26              		.loc 1 7 5 is_stmt 1
  27              		.loc 1 7 62 is_stmt 0
  28              	# 7 "src/c_api.cpp" 1
   8              	
   9:src/c_api.cpp ****     __asm__ volatile ("ecall");
  29              		mv a0, a0
  30              	# 0 "" 2
  31              		.loc 1 9 5 is_stmt 1
  32              		.loc 1 9 31 is_stmt 0
  33              	# 9 "src/c_api.cpp" 1
  10              	
  11:src/c_api.cpp ****     uint64 ret;
  34              		ecall
  35              	# 0 "" 2
  36              		.loc 1 11 5 is_stmt 1
  12:src/c_api.cpp ****     __asm__ volatile ("mv %[name], a0" : [name] "=r"(ret));
  37              		.loc 1 12 5
  38              		.loc 1 12 59 is_stmt 0
  39              	# 12 "src/c_api.cpp" 1
  13              	
  40              		mv a0, a0
  41              	# 0 "" 2
  42              	.LVL1:
  14:src/c_api.cpp ****     return ret;
  43              		.loc 1 14 5 is_stmt 1
  15:src/c_api.cpp **** }
GAS LISTING /tmp/ccnvfusm.s 			page 2


  44              		.loc 1 15 1 is_stmt 0
  45              	#NO_APP
  46 001c 03348100 		ld	s0,8(sp)
  47              		.cfi_restore 8
  48              		.cfi_def_cfa 2, 16
  49 0020 13010101 		addi	sp,sp,16
  50              		.cfi_def_cfa_offset 0
  51 0024 67800000 		jr	ra
  52              		.cfi_endproc
  53              	.LFE1:
  55              		.align	2
  56              		.globl	_Z9mem_allocm
  58              	_Z9mem_allocm:
  59              	.LFB2:
  16:src/c_api.cpp **** 
  17:src/c_api.cpp **** void* mem_alloc(size_t size)
  18:src/c_api.cpp **** {
  60              		.loc 1 18 1 is_stmt 1
  61              		.cfi_startproc
  62              	.LVL2:
  63 0028 130101FF 		addi	sp,sp,-16
  64              		.cfi_def_cfa_offset 16
  65 002c 23341100 		sd	ra,8(sp)
  66 0030 23308100 		sd	s0,0(sp)
  67              		.cfi_offset 1, -8
  68              		.cfi_offset 8, -16
  69 0034 13040101 		addi	s0,sp,16
  70              		.cfi_def_cfa 8, 0
  71 0038 93050500 		mv	a1,a0
  19:src/c_api.cpp ****     return (void*)helper1(1, size);
  72              		.loc 1 19 5
  73              		.loc 1 19 26 is_stmt 0
  74 003c 13051000 		li	a0,1
  75              	.LVL3:
  76 0040 97000000 		call	_ZL7helper1mm
  76      E7800000 
  77              	.LVL4:
  20:src/c_api.cpp **** 
  21:src/c_api.cpp **** }
  78              		.loc 1 21 1
  79 0048 83308100 		ld	ra,8(sp)
  80              		.cfi_restore 1
  81 004c 03340100 		ld	s0,0(sp)
  82              		.cfi_restore 8
  83              		.cfi_def_cfa 2, 16
  84 0050 13010101 		addi	sp,sp,16
  85              		.cfi_def_cfa_offset 0
  86 0054 67800000 		jr	ra
  87              		.cfi_endproc
  88              	.LFE2:
  90              		.align	2
  91              		.globl	_Z9test_callm
  93              	_Z9test_callm:
  94              	.LFB3:
  22:src/c_api.cpp **** 
  23:src/c_api.cpp **** uint64 test_call(uint64 n)
  24:src/c_api.cpp **** {
GAS LISTING /tmp/ccnvfusm.s 			page 3


  95              		.loc 1 24 1 is_stmt 1
  96              		.cfi_startproc
  97              	.LVL5:
  98 0058 130101FF 		addi	sp,sp,-16
  99              		.cfi_def_cfa_offset 16
 100 005c 23341100 		sd	ra,8(sp)
 101 0060 23308100 		sd	s0,0(sp)
 102              		.cfi_offset 1, -8
 103              		.cfi_offset 8, -16
 104 0064 13040101 		addi	s0,sp,16
 105              		.cfi_def_cfa 8, 0
 106 0068 93050500 		mv	a1,a0
  25:src/c_api.cpp ****     return helper1(3, n);
 107              		.loc 1 25 5
 108              		.loc 1 25 19 is_stmt 0
 109 006c 13053000 		li	a0,3
 110              	.LVL6:
 111 0070 97000000 		call	_ZL7helper1mm
 111      E7800000 
 112              	.LVL7:
  26:src/c_api.cpp **** }
 113              		.loc 1 26 1
 114 0078 83308100 		ld	ra,8(sp)
 115              		.cfi_restore 1
 116 007c 03340100 		ld	s0,0(sp)
 117              		.cfi_restore 8
 118              		.cfi_def_cfa 2, 16
 119 0080 13010101 		addi	sp,sp,16
 120              		.cfi_def_cfa_offset 0
 121 0084 67800000 		jr	ra
 122              		.cfi_endproc
 123              	.LFE3:
 125              		.align	2
 126              		.globl	_Z8mem_freePv
 128              	_Z8mem_freePv:
 129              	.LFB4:
  27:src/c_api.cpp **** 
  28:src/c_api.cpp **** int mem_free(void* ptr)
  29:src/c_api.cpp **** {
 130              		.loc 1 29 1 is_stmt 1
 131              		.cfi_startproc
 132              	.LVL8:
 133 0088 130101FF 		addi	sp,sp,-16
 134              		.cfi_def_cfa_offset 16
 135 008c 23341100 		sd	ra,8(sp)
 136 0090 23308100 		sd	s0,0(sp)
 137              		.cfi_offset 1, -8
 138              		.cfi_offset 8, -16
 139 0094 13040101 		addi	s0,sp,16
 140              		.cfi_def_cfa 8, 0
 141 0098 93050500 		mv	a1,a0
  30:src/c_api.cpp ****     return helper1(2, (uint64)ptr);
 142              		.loc 1 30 5
 143              		.loc 1 30 19 is_stmt 0
 144 009c 13052000 		li	a0,2
 145              	.LVL9:
 146 00a0 97000000 		call	_ZL7helper1mm
GAS LISTING /tmp/ccnvfusm.s 			page 4


 146      E7800000 
 147              	.LVL10:
  31:src/c_api.cpp **** }...
 148              		.loc 1 31 1
 149 00a8 1B050500 		sext.w	a0,a0
 150 00ac 83308100 		ld	ra,8(sp)
 151              		.cfi_restore 1
 152 00b0 03340100 		ld	s0,0(sp)
 153              		.cfi_restore 8
 154              		.cfi_def_cfa 2, 16
 155 00b4 13010101 		addi	sp,sp,16
 156              		.cfi_def_cfa_offset 0
 157 00b8 67800000 		jr	ra
 158              		.cfi_endproc
 159              	.LFE4:
 161              	.Letext0:
 162              		.file 2 "src/../h/../lib/hw.h"
GAS LISTING /tmp/ccnvfusm.s 			page 5


DEFINED SYMBOLS
                            *ABS*:0000000000000000 c_api.cpp
     /tmp/ccnvfusm.s:8      .text:0000000000000000 _ZL7helper1mm
     /tmp/ccnvfusm.s:12     .text:0000000000000000 .L0 
     /tmp/ccnvfusm.s:14     .text:0000000000000000 .L0 
     /tmp/ccnvfusm.s:15     .text:0000000000000004 .L0 
     /tmp/ccnvfusm.s:17     .text:0000000000000008 .L0 
     /tmp/ccnvfusm.s:19     .text:000000000000000c .L0 
     /tmp/ccnvfusm.s:21     .text:000000000000000c .L0 
       src/c_api.cpp:6      .text:000000000000000c .L0 
     /tmp/ccnvfusm.s:27     .text:0000000000000010 .L0 
       src/c_api.cpp:7      .text:0000000000000010 .L0 
     /tmp/ccnvfusm.s:32     .text:0000000000000014 .L0 
       src/c_api.cpp:9      .text:0000000000000014 .L0 
     /tmp/ccnvfusm.s:37     .text:0000000000000018 .L0 
     /tmp/ccnvfusm.s:38     .text:0000000000000018 .L0 
       src/c_api.cpp:12     .text:0000000000000018 .L0 
     /tmp/ccnvfusm.s:44     .text:000000000000001c .L0 
     /tmp/ccnvfusm.s:46     .text:000000000000001c .L0 
     /tmp/ccnvfusm.s:47     .text:0000000000000020 .L0 
     /tmp/ccnvfusm.s:48     .text:0000000000000020 .L0 
     /tmp/ccnvfusm.s:50     .text:0000000000000024 .L0 
     /tmp/ccnvfusm.s:52     .text:0000000000000028 .L0 
     /tmp/ccnvfusm.s:58     .text:0000000000000028 _Z9mem_allocm
     /tmp/ccnvfusm.s:61     .text:0000000000000028 .L0 
     /tmp/ccnvfusm.s:63     .text:0000000000000028 .L0 
     /tmp/ccnvfusm.s:64     .text:000000000000002c .L0 
     /tmp/ccnvfusm.s:67     .text:0000000000000034 .L0 
     /tmp/ccnvfusm.s:68     .text:0000000000000034 .L0 
     /tmp/ccnvfusm.s:70     .text:0000000000000038 .L0 
     /tmp/ccnvfusm.s:73     .text:000000000000003c .L0 
     /tmp/ccnvfusm.s:74     .text:000000000000003c .L0 
     /tmp/ccnvfusm.s:79     .text:0000000000000048 .L0 
     /tmp/ccnvfusm.s:80     .text:000000000000004c .L0 
     /tmp/ccnvfusm.s:82     .text:0000000000000050 .L0 
     /tmp/ccnvfusm.s:83     .text:0000000000000050 .L0 
     /tmp/ccnvfusm.s:85     .text:0000000000000054 .L0 
     /tmp/ccnvfusm.s:87     .text:0000000000000058 .L0 
     /tmp/ccnvfusm.s:93     .text:0000000000000058 _Z9test_callm
     /tmp/ccnvfusm.s:96     .text:0000000000000058 .L0 
     /tmp/ccnvfusm.s:98     .text:0000000000000058 .L0 
     /tmp/ccnvfusm.s:99     .text:000000000000005c .L0 
     /tmp/ccnvfusm.s:102    .text:0000000000000064 .L0 
     /tmp/ccnvfusm.s:103    .text:0000000000000064 .L0 
     /tmp/ccnvfusm.s:105    .text:0000000000000068 .L0 
     /tmp/ccnvfusm.s:108    .text:000000000000006c .L0 
     /tmp/ccnvfusm.s:109    .text:000000000000006c .L0 
     /tmp/ccnvfusm.s:114    .text:0000000000000078 .L0 
     /tmp/ccnvfusm.s:115    .text:000000000000007c .L0 
     /tmp/ccnvfusm.s:117    .text:0000000000000080 .L0 
     /tmp/ccnvfusm.s:118    .text:0000000000000080 .L0 
     /tmp/ccnvfusm.s:120    .text:0000000000000084 .L0 
     /tmp/ccnvfusm.s:122    .text:0000000000000088 .L0 
     /tmp/ccnvfusm.s:128    .text:0000000000000088 _Z8mem_freePv
     /tmp/ccnvfusm.s:131    .text:0000000000000088 .L0 
     /tmp/ccnvfusm.s:133    .text:0000000000000088 .L0 
     /tmp/ccnvfusm.s:134    .text:000000000000008c .L0 
GAS LISTING /tmp/ccnvfusm.s 			page 6


     /tmp/ccnvfusm.s:137    .text:0000000000000094 .L0 
     /tmp/ccnvfusm.s:138    .text:0000000000000094 .L0 
     /tmp/ccnvfusm.s:140    .text:0000000000000098 .L0 
     /tmp/ccnvfusm.s:143    .text:000000000000009c .L0 
     /tmp/ccnvfusm.s:144    .text:000000000000009c .L0 
     /tmp/ccnvfusm.s:149    .text:00000000000000a8 .L0 
     /tmp/ccnvfusm.s:151    .text:00000000000000b0 .L0 
     /tmp/ccnvfusm.s:153    .text:00000000000000b4 .L0 
     /tmp/ccnvfusm.s:154    .text:00000000000000b4 .L0 
     /tmp/ccnvfusm.s:156    .text:00000000000000b8 .L0 
     /tmp/ccnvfusm.s:158    .text:00000000000000bc .L0 
     /tmp/ccnvfusm.s:163    .text:00000000000000bc .L0 
     /tmp/ccnvfusm.s:435    .debug_abbrev:0000000000000000 .Ldebug_abbrev0
     /tmp/ccnvfusm.s:843    .debug_str:000000000000014b .LASF26
     /tmp/ccnvfusm.s:833    .debug_str:00000000000000f3 .LASF27
     /tmp/ccnvfusm.s:815    .debug_str:0000000000000073 .LASF28
     /tmp/ccnvfusm.s:5      .text:0000000000000000 .Ltext0
     /tmp/ccnvfusm.s:161    .text:00000000000000bc .Letext0
     /tmp/ccnvfusm.s:795    .debug_line:0000000000000000 .Ldebug_line0
     /tmp/ccnvfusm.s:799    .debug_str:000000000000000e .LASF0
     /tmp/ccnvfusm.s:841    .debug_str:0000000000000138 .LASF1
     /tmp/ccnvfusm.s:825    .debug_str:00000000000000b6 .LASF2
     /tmp/ccnvfusm.s:819    .debug_str:000000000000009a .LASF4
     /tmp/ccnvfusm.s:813    .debug_str:0000000000000061 .LASF3
     /tmp/ccnvfusm.s:807    .debug_str:0000000000000040 .LASF5
     /tmp/ccnvfusm.s:817    .debug_str:0000000000000087 .LASF6
     /tmp/ccnvfusm.s:839    .debug_str:0000000000000125 .LASF7
     /tmp/ccnvfusm.s:849    .debug_str:0000000000000223 .LASF8
     /tmp/ccnvfusm.s:803    .debug_str:0000000000000023 .LASF9
     /tmp/ccnvfusm.s:805    .debug_str:0000000000000031 .LASF10
     /tmp/ccnvfusm.s:845    .debug_str:000000000000020f .LASF11
     /tmp/ccnvfusm.s:809    .debug_str:0000000000000047 .LASF12
     /tmp/ccnvfusm.s:853    .debug_str:000000000000023d .LASF13
     /tmp/ccnvfusm.s:823    .debug_str:00000000000000aa .LASF14
     /tmp/ccnvfusm.s:835    .debug_str:0000000000000101 .LASF15
     /tmp/ccnvfusm.s:827    .debug_str:00000000000000c4 .LASF16
     /tmp/ccnvfusm.s:821    .debug_str:00000000000000a1 .LASF17
     /tmp/ccnvfusm.s:797    .debug_str:0000000000000000 .LASF19
     /tmp/ccnvfusm.s:129    .text:0000000000000088 .LFB4
     /tmp/ccnvfusm.s:159    .text:00000000000000bc .LFE4
     /tmp/ccnvfusm.s:714    .debug_loc:0000000000000000 .LLST3
     /tmp/ccnvfusm.s:147    .text:00000000000000a8 .LVL10
     /tmp/ccnvfusm.s:811    .debug_str:0000000000000057 .LASF18
     /tmp/ccnvfusm.s:829    .debug_str:00000000000000da .LASF20
     /tmp/ccnvfusm.s:94     .text:0000000000000058 .LFB3
     /tmp/ccnvfusm.s:123    .text:0000000000000088 .LFE3
     /tmp/ccnvfusm.s:732    .debug_loc:000000000000004c .LLST2
     /tmp/ccnvfusm.s:112    .text:0000000000000078 .LVL7
     /tmp/ccnvfusm.s:851    .debug_str:0000000000000233 .LASF21
     /tmp/ccnvfusm.s:837    .debug_str:0000000000000117 .LASF22
     /tmp/ccnvfusm.s:59     .text:0000000000000028 .LFB2
     /tmp/ccnvfusm.s:88     .text:0000000000000058 .LFE2
     /tmp/ccnvfusm.s:847    .debug_str:000000000000021e .LASF23
     /tmp/ccnvfusm.s:750    .debug_loc:0000000000000098 .LLST1
     /tmp/ccnvfusm.s:77     .text:0000000000000048 .LVL4
     /tmp/ccnvfusm.s:801    .debug_str:000000000000001b .LASF29
     /tmp/ccnvfusm.s:9      .text:0000000000000000 .LFB1
GAS LISTING /tmp/ccnvfusm.s 			page 7


     /tmp/ccnvfusm.s:53     .text:0000000000000028 .LFE1
     /tmp/ccnvfusm.s:855    .debug_str:000000000000024d .LASF24
     /tmp/ccnvfusm.s:768    .debug_loc:00000000000000e4 .LLST0
     /tmp/ccnvfusm.s:831    .debug_str:00000000000000e8 .LASF25
     /tmp/ccnvfusm.s:132    .text:0000000000000088 .LVL8
     /tmp/ccnvfusm.s:145    .text:00000000000000a0 .LVL9
     /tmp/ccnvfusm.s:97     .text:0000000000000058 .LVL5
     /tmp/ccnvfusm.s:110    .text:0000000000000070 .LVL6
     /tmp/ccnvfusm.s:62     .text:0000000000000028 .LVL2
     /tmp/ccnvfusm.s:75     .text:0000000000000040 .LVL3
     /tmp/ccnvfusm.s:13     .text:0000000000000000 .LVL0
     /tmp/ccnvfusm.s:42     .text:000000000000001c .LVL1
     /tmp/ccnvfusm.s:164    .debug_info:0000000000000000 .Ldebug_info0

NO UNDEFINED SYMBOLS
