GAS LISTING /tmp/cc9vp3f9.s 			page 1


   1              		.file	"cpp_api.cpp"
   2              		.option pic
   3              		.option norelax
   4              		.text
   5              	.Ltext0:
   6              		.align	2
   7              		.globl	_Znwm
   9              	_Znwm:
  10              	.LFB0:
  11              		.file 1 "src/cpp_api.cpp"
   1:src/cpp_api.cpp **** #include"../h/cpp_api.h"
   2:src/cpp_api.cpp **** 
   3:src/cpp_api.cpp **** void* operator new(size_t size)
   4:src/cpp_api.cpp **** {
  12              		.loc 1 4 1
  13              		.cfi_startproc
  14              	.LVL0:
  15 0000 130101FF 		addi	sp,sp,-16
  16              		.cfi_def_cfa_offset 16
  17 0004 23341100 		sd	ra,8(sp)
  18 0008 23308100 		sd	s0,0(sp)
  19              		.cfi_offset 1, -8
  20              		.cfi_offset 8, -16
  21 000c 13040101 		addi	s0,sp,16
  22              		.cfi_def_cfa 8, 0
   5:src/cpp_api.cpp ****     return mem_alloc(size);
  23              		.loc 1 5 5
  24              		.loc 1 5 21 is_stmt 0
  25 0010 97000000 		call	_Z9mem_allocm@plt
  25      E7800000 
  26              	.LVL1:
   6:src/cpp_api.cpp **** }
  27              		.loc 1 6 1
  28 0018 83308100 		ld	ra,8(sp)
  29              		.cfi_restore 1
  30 001c 03340100 		ld	s0,0(sp)
  31              		.cfi_restore 8
  32              		.cfi_def_cfa 2, 16
  33 0020 13010101 		addi	sp,sp,16
  34              		.cfi_def_cfa_offset 0
  35 0024 67800000 		jr	ra
  36              		.cfi_endproc
  37              	.LFE0:
  39              		.align	2
  40              		.globl	_ZdlPv
  42              	_ZdlPv:
  43              	.LFB1:
   7:src/cpp_api.cpp **** 
   8:src/cpp_api.cpp **** void operator delete(void* p)
   9:src/cpp_api.cpp **** {
  44              		.loc 1 9 1 is_stmt 1
  45              		.cfi_startproc
  46              	.LVL2:
  47 0028 130101FF 		addi	sp,sp,-16
  48              		.cfi_def_cfa_offset 16
  49 002c 23341100 		sd	ra,8(sp)
  50 0030 23308100 		sd	s0,0(sp)
GAS LISTING /tmp/cc9vp3f9.s 			page 2


  51              		.cfi_offset 1, -8
  52              		.cfi_offset 8, -16
  53 0034 13040101 		addi	s0,sp,16
  54              		.cfi_def_cfa 8, 0
  10:src/cpp_api.cpp ****     mem_free(p);
  55              		.loc 1 10 5
  56              		.loc 1 10 13 is_stmt 0
  57 0038 97000000 		call	_Z8mem_freePv@plt
  57      E7800000 
  58              	.LVL3:
  11:src/cpp_api.cpp **** }
  59              		.loc 1 11 1
  60 0040 83308100 		ld	ra,8(sp)
  61              		.cfi_restore 1
  62 0044 03340100 		ld	s0,0(sp)
  63              		.cfi_restore 8
  64              		.cfi_def_cfa 2, 16
  65 0048 13010101 		addi	sp,sp,16
  66              		.cfi_def_cfa_offset 0
  67 004c 67800000 		jr	ra
  68              		.cfi_endproc
  69              	.LFE1:
  71              	.Letext0:
  72              		.file 2 "src/../h/../h/../lib/hw.h"
  73              		.file 3 "src/../h/../h/c_api.h"
GAS LISTING /tmp/cc9vp3f9.s 			page 3

