GAS LISTING /tmp/cccUuu6F.s 			page 1


   1              		.file	"main.cpp"
   2              		.option pic
   3              		.option norelax
   4              		.text
   5              	.Ltext0:
   6              		.section	.rodata.str1.8,"aMS",@progbits,1
   7              		.align	3
   8              	.LC0:
   9 0000 696E7369 		.string	"inside doA()"
   9      64652064 
   9      6F412829 
   9      00
  10              		.text
  11              		.align	2
  12              		.globl	_Z3doAPv
  14              	_Z3doAPv:
  15              	.LFB12:
  16              		.file 1 "src/main.cpp"
   1:src/main.cpp  **** #include "../h/alloc.h"
   2:src/main.cpp  **** #include "../h/c_api.h"
   3:src/main.cpp  **** #include "../h/thread.h"
   4:src/main.cpp  **** 
   5:src/main.cpp  **** extern "C" void trapRoutine();
   6:src/main.cpp  **** extern "C" void newAsmTrap();
   7:src/main.cpp  **** 
   8:src/main.cpp  **** void userMain();
   9:src/main.cpp  **** void doA(void*);
  10:src/main.cpp  **** void doB(void*);
  11:src/main.cpp  **** void doInitialAsserts();
  12:src/main.cpp  **** void initInterruptVector();
  13:src/main.cpp  **** 
  14:src/main.cpp  **** uint64 fib(uint64 n);
  15:src/main.cpp  **** 
  16:src/main.cpp  **** Thread kernelThread;
  17:src/main.cpp  **** char kernelStack[ACTUAL_STACK_SIZE + 16];
  18:src/main.cpp  **** 
  19:src/main.cpp  **** int main()
  20:src/main.cpp  **** {
  21:src/main.cpp  ****     __asm__ volatile ("mv %[name], sp" : [name] "=r"(kernelThread.pStackStart)); // mozda netacno
  22:src/main.cpp  ****     disableExternalInterrupts();
  23:src/main.cpp  ****     initInterruptVector();
  24:src/main.cpp  ****     Thread::setPRunning(&kernelThread);
  25:src/main.cpp  ****     doInitialAsserts();
  26:src/main.cpp  **** 
  27:src/main.cpp  ****     putString("Prvi");
  28:src/main.cpp  ****     putNewline();
  29:src/main.cpp  ****     uint64 a = test_call(1);
  30:src/main.cpp  ****     putString("Drugi about to be executed");
  31:src/main.cpp  ****     putNewline();
  32:src/main.cpp  **** 
  33:src/main.cpp  ****     uint64 b = test_call(1);
  34:src/main.cpp  ****     putString("======== Drugi gotov");
  35:src/main.cpp  **** //    assert(c == 1);
  36:src/main.cpp  **** 
  37:src/main.cpp  ****     assert(a == 1);
  38:src/main.cpp  ****     assert(b == 1);
  39:src/main.cpp  **** 
GAS LISTING /tmp/cccUuu6F.s 			page 2


  40:src/main.cpp  ****     assert(false);
  41:src/main.cpp  **** 
  42:src/main.cpp  ****     for(int i=1; i<5; i++)
  43:src/main.cpp  ****     {
  44:src/main.cpp  ****         uint64 called = test_call(i);
  45:src/main.cpp  ****         uint64 actual = fib(i);
  46:src/main.cpp  ****         if(called != actual)
  47:src/main.cpp  ****         {
  48:src/main.cpp  ****             putString("test_call() error. i=");
  49:src/main.cpp  ****             putInt(i);
  50:src/main.cpp  ****             putString(" fib(i)=");
  51:src/main.cpp  ****             putU64(actual);
  52:src/main.cpp  ****             putString(" test_call(i)=");
  53:src/main.cpp  ****             putU64(called);
  54:src/main.cpp  ****             putNewline();
  55:src/main.cpp  ****             assert(false);
  56:src/main.cpp  ****         }
  57:src/main.cpp  ****     }
  58:src/main.cpp  **** 
  59:src/main.cpp  ****     putString("Calling mem_alloc");
  60:src/main.cpp  ****     putNewline();
  61:src/main.cpp  ****     void* p = mem_alloc(32);
  62:src/main.cpp  ****     putString("ret of mem_alloc: ");
  63:src/main.cpp  ****     putU64((uint64)p);
  64:src/main.cpp  ****     putNewline();
  65:src/main.cpp  **** 
  66:src/main.cpp  **** //    userMain();
  67:src/main.cpp  **** 
  68:src/main.cpp  **** //    enableExternalInterrupts(); // temp location for debug
  69:src/main.cpp  **** 
  70:src/main.cpp  ****     thread_t t1;
  71:src/main.cpp  ****     int Aarg = 3;
  72:src/main.cpp  **** 
  73:src/main.cpp  ****     putString("Creating thread");
  74:src/main.cpp  ****     putNewline();
  75:src/main.cpp  ****     Thread::createThread(&t1, &doA, &Aarg);
  76:src/main.cpp  **** 
  77:src/main.cpp  ****     putString("Thread created");
  78:src/main.cpp  ****     putNewline();
  79:src/main.cpp  ****     //Thread::createThread(&t2, &doB, &Aarg);
  80:src/main.cpp  **** 
  81:src/main.cpp  ****     putString("Going into the loop");
  82:src/main.cpp  ****     putNewline();
  83:src/main.cpp  ****     int i=0;
  84:src/main.cpp  ****     while(1)
  85:src/main.cpp  ****     {
  86:src/main.cpp  **** //        thread_dispatch();
  87:src/main.cpp  ****         i++;
  88:src/main.cpp  ****     };
  89:src/main.cpp  **** 
  90:src/main.cpp  ****     disableExternalInterrupts();
  91:src/main.cpp  ****     return 0;
  92:src/main.cpp  **** }
  93:src/main.cpp  **** 
  94:src/main.cpp  **** void doA(void* p)
  95:src/main.cpp  **** {
  17              		.loc 1 95 1
GAS LISTING /tmp/cccUuu6F.s 			page 3


  18              		.cfi_startproc
  19              	.LVL0:
  20 0000 130101FF 		addi	sp,sp,-16
  21              		.cfi_def_cfa_offset 16
  22 0004 23341100 		sd	ra,8(sp)
  23 0008 23308100 		sd	s0,0(sp)
  24              		.cfi_offset 1, -8
  25              		.cfi_offset 8, -16
  26 000c 13040101 		addi	s0,sp,16
  27              		.cfi_def_cfa 8, 0
  28              	.LVL1:
  29              	.L2:
  96:src/main.cpp  ****     while(1)
  30              		.loc 1 96 5 discriminator 1
  97:src/main.cpp  ****     {
  98:src/main.cpp  ****         putString("inside doA()");
  31              		.loc 1 98 9 discriminator 1
  32              		.loc 1 98 18 is_stmt 0 discriminator 1
  33 0010 17050000 		lla	a0,.LC0
  33      13050500 
  34 0018 97000000 		call	_Z9putStringPKc@plt
  34      E7800000 
  35              	.LVL2:
  99:src/main.cpp  ****         putNewline();
  36              		.loc 1 99 9 is_stmt 1 discriminator 1
  37              		.loc 1 99 19 is_stmt 0 discriminator 1
  38 0020 97000000 		call	_Z10putNewlinev@plt
  38      E7800000 
  39              	.LVL3:
 100:src/main.cpp  ****         thread_dispatch();
  40              		.loc 1 100 9 is_stmt 1 discriminator 1
  41              		.loc 1 100 24 is_stmt 0 discriminator 1
  42 0028 97000000 		call	_Z15thread_dispatchv@plt
  42      E7800000 
  43              	.LVL4:
  96:src/main.cpp  ****     {
  44              		.loc 1 96 5 is_stmt 1 discriminator 1
  45 0030 6FF01FFE 		j	.L2
  46              		.cfi_endproc
  47              	.LFE12:
  49              		.section	.rodata._Z7_assertbPKci.str1.8,"aMS",@progbits,1
  50              		.align	3
  51              	.LC1:
  52 0000 3D3D3D3D 		.string	"===================== ASSERT file: "
  52      3D3D3D3D 
  52      3D3D3D3D 
  52      3D3D3D3D 
  52      3D3D3D3D 
  53 0024 00000000 		.align	3
  54              	.LC2:
  55 0028 20202020 		.string	"    line: "
  55      6C696E65 
  55      3A2000
  56 0033 00000000 		.align	3
  56      00
  57              	.LC3:
  58 0038 2020203D 		.string	"   ==========================="
GAS LISTING /tmp/cccUuu6F.s 			page 4


  58      3D3D3D3D 
  58      3D3D3D3D 
  58      3D3D3D3D 
  58      3D3D3D3D 
  59              		.section	.text._Z7_assertbPKci,"axG",@progbits,_Z7_assertbPKci,comdat
  60              		.align	2
  61              		.weak	_Z7_assertbPKci
  63              	_Z7_assertbPKci:
  64              	.LFB0:
  65              		.file 2 "src/../h/../h/my_console.h"
   1:src/../h/../h/my_console.h **** #pragma once
   2:src/../h/../h/my_console.h **** 
   3:src/../h/../h/my_console.h **** #include "../h/risc.h"
   4:src/../h/../h/my_console.h **** 
   5:src/../h/../h/my_console.h **** #include "../lib/console.h"
   6:src/../h/../h/my_console.h **** #include "../lib/hw.h"
   7:src/../h/../h/my_console.h **** 
   8:src/../h/../h/my_console.h **** #define __DEBUG_MODE
   9:src/../h/../h/my_console.h **** 
  10:src/../h/../h/my_console.h **** 
  11:src/../h/../h/my_console.h **** void putString(const char* s);
  12:src/../h/../h/my_console.h **** void putInt(int n);
  13:src/../h/../h/my_console.h **** void putNewline();
  14:src/../h/../h/my_console.h **** void putU64(uint64 n);
  15:src/../h/../h/my_console.h **** void putBinary(uint64 n);
  16:src/../h/../h/my_console.h **** 
  17:src/../h/../h/my_console.h **** [[noreturn]] void stopKernel();
  18:src/../h/../h/my_console.h **** 
  19:src/../h/../h/my_console.h **** inline void _assert(bool valid, const char* file, int line) // MUST be inline
  20:src/../h/../h/my_console.h **** {
  66              		.loc 2 20 1
  67              		.cfi_startproc
  68              	.LVL5:
  21:src/../h/../h/my_console.h ****     if(valid)
  69              		.loc 2 21 5
  70 0000 63040500 		beqz	a0,.L10
  71 0004 67800000 		ret
  72              	.L10:
  20:src/../h/../h/my_console.h ****     if(valid)
  73              		.loc 2 20 1 is_stmt 0
  74 0008 130101FE 		addi	sp,sp,-32
  75              		.cfi_def_cfa_offset 32
  76 000c 233C1100 		sd	ra,24(sp)
  77 0010 23388100 		sd	s0,16(sp)
  78 0014 23349100 		sd	s1,8(sp)
  79 0018 23302101 		sd	s2,0(sp)
  80              		.cfi_offset 1, -8
  81              		.cfi_offset 8, -16
  82              		.cfi_offset 9, -24
  83              		.cfi_offset 18, -32
  84 001c 13040102 		addi	s0,sp,32
  85              		.cfi_def_cfa 8, 0
  86 0020 13890500 		mv	s2,a1
  87 0024 93040600 		mv	s1,a2
  22:src/../h/../h/my_console.h ****         return;
  23:src/../h/../h/my_console.h **** 
  24:src/../h/../h/my_console.h ****     putString("===================== ASSERT file: ");
GAS LISTING /tmp/cccUuu6F.s 			page 5


  88              		.loc 2 24 5 is_stmt 1
  89              		.loc 2 24 14 is_stmt 0
  90 0028 17050000 		lla	a0,.LC1
  90      13050500 
  91              	.LVL6:
  92 0030 97000000 		call	_Z9putStringPKc@plt
  92      E7800000 
  93              	.LVL7:
  25:src/../h/../h/my_console.h ****     putString(file);
  94              		.loc 2 25 5 is_stmt 1
  95              		.loc 2 25 14 is_stmt 0
  96 0038 13050900 		mv	a0,s2
  97 003c 97000000 		call	_Z9putStringPKc@plt
  97      E7800000 
  98              	.LVL8:
  26:src/../h/../h/my_console.h ****     putString("    line: ");
  99              		.loc 2 26 5 is_stmt 1
 100              		.loc 2 26 14 is_stmt 0
 101 0044 17050000 		lla	a0,.LC2
 101      13050500 
 102 004c 97000000 		call	_Z9putStringPKc@plt
 102      E7800000 
 103              	.LVL9:
  27:src/../h/../h/my_console.h ****     putInt(line);
 104              		.loc 2 27 5 is_stmt 1
 105              		.loc 2 27 11 is_stmt 0
 106 0054 13850400 		mv	a0,s1
 107 0058 97000000 		call	_Z6putInti@plt
 107      E7800000 
 108              	.LVL10:
  28:src/../h/../h/my_console.h ****     putString("   ===========================");
 109              		.loc 2 28 5 is_stmt 1
 110              		.loc 2 28 14 is_stmt 0
 111 0060 17050000 		lla	a0,.LC3
 111      13050500 
 112 0068 97000000 		call	_Z9putStringPKc@plt
 112      E7800000 
 113              	.LVL11:
  29:src/../h/../h/my_console.h ****     putNewline();
 114              		.loc 2 29 5 is_stmt 1
 115              		.loc 2 29 15 is_stmt 0
 116 0070 97000000 		call	_Z10putNewlinev@plt
 116      E7800000 
 117              	.LVL12:
  30:src/../h/../h/my_console.h **** 
  31:src/../h/../h/my_console.h ****     stopKernel();
 118              		.loc 2 31 5 is_stmt 1
 119              		.loc 2 31 15 is_stmt 0
 120 0078 97000000 		call	_Z10stopKernelv@plt
 120      E7800000 
 121              	.LVL13:
 122              		.cfi_endproc
 123              	.LFE0:
 125              		.section	.rodata.str1.8
 126 000d 000000   		.align	3
 127              	.LC4:
 128 0010 4200     		.string	"B"
GAS LISTING /tmp/cccUuu6F.s 			page 6


 129              		.text
 130              		.align	2
 131              		.globl	_Z3doBPv
 133              	_Z3doBPv:
 134              	.LFB13:
 101:src/main.cpp  ****     }
 102:src/main.cpp  **** }
 103:src/main.cpp  **** 
 104:src/main.cpp  **** void doB(void* p)
 105:src/main.cpp  **** {
 135              		.loc 1 105 1 is_stmt 1
 136              		.cfi_startproc
 137              	.LVL14:
 138 0034 130101FF 		addi	sp,sp,-16
 139              		.cfi_def_cfa_offset 16
 140 0038 23341100 		sd	ra,8(sp)
 141 003c 23308100 		sd	s0,0(sp)
 142              		.cfi_offset 1, -8
 143              		.cfi_offset 8, -16
 144 0040 13040101 		addi	s0,sp,16
 145              		.cfi_def_cfa 8, 0
 146              	.LVL15:
 147              	.L12:
 106:src/main.cpp  ****     while(1)
 148              		.loc 1 106 5 discriminator 1
 107:src/main.cpp  ****     {
 108:src/main.cpp  ****         putString("B");
 149              		.loc 1 108 9 discriminator 1
 150              		.loc 1 108 18 is_stmt 0 discriminator 1
 151 0044 17050000 		lla	a0,.LC4
 151      13050500 
 152 004c 97000000 		call	_Z9putStringPKc@plt
 152      E7800000 
 153              	.LVL16:
 109:src/main.cpp  ****         putNewline();
 154              		.loc 1 109 9 is_stmt 1 discriminator 1
 155              		.loc 1 109 19 is_stmt 0 discriminator 1
 156 0054 97000000 		call	_Z10putNewlinev@plt
 156      E7800000 
 157              	.LVL17:
 110:src/main.cpp  ****         thread_dispatch();
 158              		.loc 1 110 9 is_stmt 1 discriminator 1
 159              		.loc 1 110 24 is_stmt 0 discriminator 1
 160 005c 97000000 		call	_Z15thread_dispatchv@plt
 160      E7800000 
 161              	.LVL18:
 106:src/main.cpp  ****     {
 162              		.loc 1 106 5 is_stmt 1 discriminator 1
 163 0064 6FF01FFE 		j	.L12
 164              		.cfi_endproc
 165              	.LFE13:
 167              		.section	.rodata.str1.8
 168 0012 00000000 		.align	3
 168      0000
 169              	.LC5:
 170 0018 7372632F 		.string	"src/main.cpp"
 170      6D61696E 
GAS LISTING /tmp/cccUuu6F.s 			page 7


 170      2E637070 
 170      00
 171              		.text
 172              		.align	2
 173              		.globl	_Z16doInitialAssertsv
 175              	_Z16doInitialAssertsv:
 176              	.LFB14:
 111:src/main.cpp  ****     }
 112:src/main.cpp  **** }
 113:src/main.cpp  **** 
 114:src/main.cpp  **** void doInitialAsserts()
 115:src/main.cpp  **** {
 177              		.loc 1 115 1
 178              		.cfi_startproc
 116:src/main.cpp  ****     assert(sizeof(void*) == 8);
 179              		.loc 1 116 5
 180              	.LVL19:
  21:src/../h/../h/my_console.h ****         return;
 181              		.loc 2 21 5
  22:src/../h/../h/my_console.h **** 
 182              		.loc 2 22 9
 117:src/main.cpp  ****     assert((((uint64)HEAP_END_ADDR - (uint64)HEAP_START_ADDR) / 1024 / 1024) == 127);
 183              		.loc 1 117 5
 184 0068 97070000 		la	a5,HEAP_END_ADDR
 184      83B70700 
 185 0070 83B70700 		ld	a5,0(a5)
 186 0074 17070000 		la	a4,HEAP_START_ADDR
 186      03370700 
 187 007c 03370700 		ld	a4,0(a4)
 188 0080 B387E740 		sub	a5,a5,a4
 189 0084 370710F8 		li	a4,-133169152
 190 0088 B387E700 		add	a5,a5,a4
 191 008c 37071000 		li	a4,1048576
 192              	.LVL20:
 193              	.LBB18:
 194              	.LBB19:
  21:src/../h/../h/my_console.h ****         return;
 195              		.loc 2 21 5
 196 0090 63F4E700 		bgeu	a5,a4,.L19
 197 0094 67800000 		ret
 198              	.L19:
 199              	.LBE19:
 200              	.LBE18:
 115:src/main.cpp  ****     assert(sizeof(void*) == 8);
 201              		.loc 1 115 1 is_stmt 0
 202 0098 130101FF 		addi	sp,sp,-16
 203              		.cfi_def_cfa_offset 16
 204 009c 23341100 		sd	ra,8(sp)
 205 00a0 23308100 		sd	s0,0(sp)
 206              		.cfi_offset 1, -8
 207              		.cfi_offset 8, -16
 208 00a4 13040101 		addi	s0,sp,16
 209              		.cfi_def_cfa 8, 0
 210              	.LBB21:
 211              	.LBB20:
  24:src/../h/../h/my_console.h ****     putString(file);
 212              		.loc 2 24 5 is_stmt 1
GAS LISTING /tmp/cccUuu6F.s 			page 8


  24:src/../h/../h/my_console.h ****     putString(file);
 213              		.loc 2 24 14 is_stmt 0
 214 00a8 17050000 		lla	a0,.LC1
 214      13050500 
 215 00b0 97000000 		call	_Z9putStringPKc@plt
 215      E7800000 
 216              	.LVL21:
  25:src/../h/../h/my_console.h ****     putString("    line: ");
 217              		.loc 2 25 5 is_stmt 1
  25:src/../h/../h/my_console.h ****     putString("    line: ");
 218              		.loc 2 25 14 is_stmt 0
 219 00b8 17050000 		lla	a0,.LC5
 219      13050500 
 220 00c0 97000000 		call	_Z9putStringPKc@plt
 220      E7800000 
 221              	.LVL22:
  26:src/../h/../h/my_console.h ****     putInt(line);
 222              		.loc 2 26 5 is_stmt 1
  26:src/../h/../h/my_console.h ****     putInt(line);
 223              		.loc 2 26 14 is_stmt 0
 224 00c8 17050000 		lla	a0,.LC2
 224      13050500 
 225 00d0 97000000 		call	_Z9putStringPKc@plt
 225      E7800000 
 226              	.LVL23:
  27:src/../h/../h/my_console.h ****     putString("   ===========================");
 227              		.loc 2 27 5 is_stmt 1
  27:src/../h/../h/my_console.h ****     putString("   ===========================");
 228              		.loc 2 27 11 is_stmt 0
 229 00d8 13055007 		li	a0,117
 230 00dc 97000000 		call	_Z6putInti@plt
 230      E7800000 
 231              	.LVL24:
  28:src/../h/../h/my_console.h ****     putNewline();
 232              		.loc 2 28 5 is_stmt 1
  28:src/../h/../h/my_console.h ****     putNewline();
 233              		.loc 2 28 14 is_stmt 0
 234 00e4 17050000 		lla	a0,.LC3
 234      13050500 
 235 00ec 97000000 		call	_Z9putStringPKc@plt
 235      E7800000 
 236              	.LVL25:
  29:src/../h/../h/my_console.h **** 
 237              		.loc 2 29 5 is_stmt 1
  29:src/../h/../h/my_console.h **** 
 238              		.loc 2 29 15 is_stmt 0
 239 00f4 97000000 		call	_Z10putNewlinev@plt
 239      E7800000 
 240              	.LVL26:
 241              		.loc 2 31 5 is_stmt 1
 242              		.loc 2 31 15 is_stmt 0
 243 00fc 97000000 		call	_Z10stopKernelv@plt
 243      E7800000 
 244              	.LVL27:
 245              	.LBE20:
 246              	.LBE21:
 247              		.cfi_endproc
GAS LISTING /tmp/cccUuu6F.s 			page 9


 248              	.LFE14:
 250              		.align	2
 251              		.globl	_Z19initInterruptVectorv
 253              	_Z19initInterruptVectorv:
 254              	.LFB15:
 118:src/main.cpp  ****     assert(DEFAULT_STACK_SIZE == 4096);
 119:src/main.cpp  ****     assert(DEFAULT_TIME_SLICE == 2);
 120:src/main.cpp  ****     assert(sizeof(char) == 1);
 121:src/main.cpp  ****     assert(sizeof(Thread) < 1000);
 122:src/main.cpp  **** }
 123:src/main.cpp  **** 
 124:src/main.cpp  **** void initInterruptVector()
 125:src/main.cpp  **** {
 255              		.loc 1 125 1 is_stmt 1
 256              		.cfi_startproc
 257 0104 130101FF 		addi	sp,sp,-16
 258              		.cfi_def_cfa_offset 16
 259 0108 23348100 		sd	s0,8(sp)
 260              		.cfi_offset 8, -8
 261 010c 13040101 		addi	s0,sp,16
 262              		.cfi_def_cfa 8, 0
 126:src/main.cpp  **** 
 127:src/main.cpp  **** // should be before changing sstatus 0x2 bit
 128:src/main.cpp  ****     __asm__ volatile ("csrw stvec, %[vector]" : : [vector] "r"(&trapRoutine));
 263              		.loc 1 128 5
 264              		.loc 1 128 78 is_stmt 0
 265 0110 97070000 		la	a5,trapRoutine
 265      83B70700 
 266              	#APP
 267              	# 128 "src/main.cpp" 1
 129              	
 130:src/main.cpp  **** // set MODE to 1 - vector mode
 131:src/main.cpp  ****     __asm__ volatile ("csrs stvec, 0x1");
 268              		csrw stvec, a5
 269              	# 0 "" 2
 270              		.loc 1 131 5 is_stmt 1
 271              		.loc 1 131 41 is_stmt 0
 272              	# 131 "src/main.cpp" 1
 132              	    __asm__ volatile ("csrc stvec, 0x2");
 273              		csrs stvec, 0x1
 274              	# 0 "" 2
 275              		.loc 1 132 5 is_stmt 1
 276              		.loc 1 132 41 is_stmt 0
 277              	# 132 "src/main.cpp" 1
 133              	}...
 278              		csrc stvec, 0x2
 279              	# 0 "" 2
 280              		.loc 1 133 1
 281              	#NO_APP
 282 0124 03348100 		ld	s0,8(sp)
 283              		.cfi_restore 8
 284              		.cfi_def_cfa 2, 16
 285 0128 13010101 		addi	sp,sp,16
 286              		.cfi_def_cfa_offset 0
 287 012c 67800000 		jr	ra
 288              		.cfi_endproc
 289              	.LFE15:
GAS LISTING /tmp/cccUuu6F.s 			page 10


 291              		.section	.rodata.str1.8
 292 0025 000000   		.align	3
 293              	.LC6:
 294 0028 50727669 		.string	"Prvi"
 294      00
 295 002d 000000   		.align	3
 296              	.LC7:
 297 0030 44727567 		.string	"Drugi about to be executed"
 297      69206162 
 297      6F757420 
 297      746F2062 
 297      65206578 
 298 004b 00000000 		.align	3
 298      00
 299              	.LC8:
 300 0050 3D3D3D3D 		.string	"======== Drugi gotov"
 300      3D3D3D3D 
 300      20447275 
 300      67692067 
 300      6F746F76 
 301 0065 000000   		.align	3
 302              	.LC9:
 303 0068 74657374 		.string	"test_call() error. i="
 303      5F63616C 
 303      6C282920 
 303      6572726F 
 303      722E2069 
 304 007e 0000     		.align	3
 305              	.LC10:
 306 0080 20666962 		.string	" fib(i)="
 306      2869293D 
 306      00
 307 0089 00000000 		.align	3
 307      000000
 308              	.LC11:
 309 0090 20746573 		.string	" test_call(i)="
 309      745F6361 
 309      6C6C2869 
 309      293D00
 310 009f 00       		.align	3
 311              	.LC12:
 312 00a0 43616C6C 		.string	"Calling mem_alloc"
 312      696E6720 
 312      6D656D5F 
 312      616C6C6F 
 312      6300
 313 00b2 00000000 		.align	3
 313      0000
 314              	.LC13:
 315 00b8 72657420 		.string	"ret of mem_alloc: "
 315      6F66206D 
 315      656D5F61 
 315      6C6C6F63 
 315      3A2000
 316 00cb 00000000 		.align	3
 316      00
 317              	.LC14:
GAS LISTING /tmp/cccUuu6F.s 			page 11


 318 00d0 43726561 		.string	"Creating thread"
 318      74696E67 
 318      20746872 
 318      65616400 
 319              		.align	3
 320              	.LC15:
 321 00e0 54687265 		.string	"Thread created"
 321      61642063 
 321      72656174 
 321      656400
 322 00ef 00       		.align	3
 323              	.LC16:
 324 00f0 476F696E 		.string	"Going into the loop"
 324      6720696E 
 324      746F2074 
 324      6865206C 
 324      6F6F7000 
 325              		.text
 326              		.align	2
 327              		.globl	main
 329              	main:
 330              	.LFB11:
  20:src/main.cpp  **** {
 331              		.loc 1 20 1 is_stmt 1
 332              		.cfi_startproc
 333 0130 130101FC 		addi	sp,sp,-64
 334              		.cfi_def_cfa_offset 64
 335 0134 233C1102 		sd	ra,56(sp)
 336 0138 23388102 		sd	s0,48(sp)
 337 013c 23349102 		sd	s1,40(sp)
 338 0140 23302103 		sd	s2,32(sp)
 339 0144 233C3101 		sd	s3,24(sp)
 340              		.cfi_offset 1, -8
 341              		.cfi_offset 8, -16
 342              		.cfi_offset 9, -24
 343              		.cfi_offset 18, -32
 344              		.cfi_offset 19, -40
 345 0148 13040104 		addi	s0,sp,64
 346              		.cfi_def_cfa 8, 0
  21:src/main.cpp  ****     __asm__ volatile ("mv %[name], sp" : [name] "=r"(kernelThread.pStackStart)); // mozda netacno
 347              		.loc 1 21 5
  21:src/main.cpp  ****     __asm__ volatile ("mv %[name], sp" : [name] "=r"(kernelThread.pStackStart)); // mozda netacno
 348              		.loc 1 21 80 is_stmt 0
 349              	#APP
 350              	# 21 "src/main.cpp" 1
 351              		mv a5, sp
 352              	# 0 "" 2
 353              	#NO_APP
 354 0150 97040000 		lla	s1,.LANCHOR0
 354      93840400 
 355 0158 23B4F41A 		sd	a5,424(s1)
  22:src/main.cpp  ****     disableExternalInterrupts();
 356              		.loc 1 22 5 is_stmt 1
  22:src/main.cpp  ****     disableExternalInterrupts();
 357              		.loc 1 22 30 is_stmt 0
 358 015c 97000000 		call	_Z25disableExternalInterruptsv@plt
 358      E7800000 
GAS LISTING /tmp/cccUuu6F.s 			page 12


 359              	.LVL28:
  23:src/main.cpp  ****     initInterruptVector();
 360              		.loc 1 23 5 is_stmt 1
  23:src/main.cpp  ****     initInterruptVector();
 361              		.loc 1 23 24 is_stmt 0
 362 0164 97000000 		call	_Z19initInterruptVectorv
 362      E7800000 
 363              	.LVL29:
  24:src/main.cpp  ****     Thread::setPRunning(&kernelThread);
 364              		.loc 1 24 5 is_stmt 1
 365              	.LBB28:
 366              	.LBB29:
 367              		.file 3 "src/../h/thread.h"
   1:src/../h/thread.h **** #pragma once
   2:src/../h/thread.h **** 
   3:src/../h/thread.h **** #include "../lib/hw.h"
   4:src/../h/thread.h **** #include "../h/my_console.h"
   5:src/../h/thread.h **** #include "../h/c_api.h"
   6:src/../h/thread.h **** #include "../h/cpp_api.h"
   7:src/../h/thread.h **** 
   8:src/../h/thread.h **** #define NR_MAX_THREADS 10
   9:src/../h/thread.h **** #define NR_REGISTERS 32
  10:src/../h/thread.h **** #define ACTUAL_STACK_SIZE 4096*10
  11:src/../h/thread.h **** 
  12:src/../h/thread.h **** class Thread;
  13:src/../h/thread.h **** typedef Thread* thread_t;
  14:src/../h/thread.h **** 
  15:src/../h/thread.h **** class Thread
  16:src/../h/thread.h **** {
  17:src/../h/thread.h **** public:
  18:src/../h/thread.h ****     enum State
  19:src/../h/thread.h ****     {
  20:src/../h/thread.h ****         RUNNING = 0, SUSPENDED, READY, INITIALIZING, TERMINATING, NONEXISTENT
  21:src/../h/thread.h ****     };
  22:src/../h/thread.h ****     typedef void(*Body)(void*);
  23:src/../h/thread.h ****     typedef uint64 Context[50+1]; // the +1 is for the sepc // temp 50
  24:src/../h/thread.h **** 
  25:src/../h/thread.h ****     static Thread** getAllThreads()
  26:src/../h/thread.h ****     {
  27:src/../h/thread.h ****         static bool firstCall = true;
  28:src/../h/thread.h ****         static Thread* allThreads[NR_MAX_THREADS];
  29:src/../h/thread.h **** 
  30:src/../h/thread.h ****         if(firstCall)
  31:src/../h/thread.h ****         {
  32:src/../h/thread.h ****             for(int i=0; i<NR_MAX_THREADS; i++)
  33:src/../h/thread.h ****                 allThreads[i] = nullptr;
  34:src/../h/thread.h ****             firstCall = false;
  35:src/../h/thread.h ****         }
  36:src/../h/thread.h **** 
  37:src/../h/thread.h ****         return allThreads;
  38:src/../h/thread.h ****     }
  39:src/../h/thread.h **** 
  40:src/../h/thread.h ****     static uint64* pRunningContext;
  41:src/../h/thread.h ****     static bool userThreadExists;
  42:src/../h/thread.h ****     static uint64 timeSliceCounter;
  43:src/../h/thread.h **** 
  44:src/../h/thread.h ****     static Thread* getPRunning()
GAS LISTING /tmp/cccUuu6F.s 			page 13


  45:src/../h/thread.h ****     {
  46:src/../h/thread.h ****         return pRunning;
  47:src/../h/thread.h ****     }
  48:src/../h/thread.h **** 
  49:src/../h/thread.h ****     static void setPRunning(Thread* p)
  50:src/../h/thread.h ****     {
  51:src/../h/thread.h ****         pRunning = p;
 368              		.loc 3 51 9
 369              		.loc 3 51 18 is_stmt 0
 370 016c 97070000 		la	a5,_ZN6Thread8pRunningE
 370      83B70700 
 371 0174 23B09700 		sd	s1,0(a5)
  52:src/../h/thread.h ****         pRunningContext = &(p->context[0]);
 372              		.loc 3 52 9 is_stmt 1
 373              		.loc 3 52 25 is_stmt 0
 374 0178 97070000 		la	a5,_ZN6Thread15pRunningContextE
 374      83B70700 
 375 0180 17070000 		lla	a4,.LANCHOR0+16
 375      13070700 
 376 0188 23B0E700 		sd	a4,0(a5)
 377              	.LVL30:
 378              	.LBE29:
 379              	.LBE28:
  25:src/main.cpp  ****     doInitialAsserts();
 380              		.loc 1 25 5 is_stmt 1
  25:src/main.cpp  ****     doInitialAsserts();
 381              		.loc 1 25 21 is_stmt 0
 382 018c 97000000 		call	_Z16doInitialAssertsv
 382      E7800000 
 383              	.LVL31:
  27:src/main.cpp  ****     putString("Prvi");
 384              		.loc 1 27 5 is_stmt 1
  27:src/main.cpp  ****     putString("Prvi");
 385              		.loc 1 27 14 is_stmt 0
 386 0194 17050000 		lla	a0,.LC6
 386      13050500 
 387 019c 97000000 		call	_Z9putStringPKc@plt
 387      E7800000 
 388              	.LVL32:
  28:src/main.cpp  ****     putNewline();
 389              		.loc 1 28 5 is_stmt 1
  28:src/main.cpp  ****     putNewline();
 390              		.loc 1 28 15 is_stmt 0
 391 01a4 97000000 		call	_Z10putNewlinev@plt
 391      E7800000 
 392              	.LVL33:
  29:src/main.cpp  ****     uint64 a = test_call(1);
 393              		.loc 1 29 5 is_stmt 1
  29:src/main.cpp  ****     uint64 a = test_call(1);
 394              		.loc 1 29 25 is_stmt 0
 395 01ac 13051000 		li	a0,1
 396 01b0 97000000 		call	_Z9test_callm@plt
 396      E7800000 
 397              	.LVL34:
 398 01b8 13090500 		mv	s2,a0
 399              	.LVL35:
  30:src/main.cpp  ****     putString("Drugi about to be executed");
GAS LISTING /tmp/cccUuu6F.s 			page 14


 400              		.loc 1 30 5 is_stmt 1
  30:src/main.cpp  ****     putString("Drugi about to be executed");
 401              		.loc 1 30 14 is_stmt 0
 402 01bc 17050000 		lla	a0,.LC7
 402      13050500 
 403              	.LVL36:
 404 01c4 97000000 		call	_Z9putStringPKc@plt
 404      E7800000 
 405              	.LVL37:
  31:src/main.cpp  ****     putNewline();
 406              		.loc 1 31 5 is_stmt 1
  31:src/main.cpp  ****     putNewline();
 407              		.loc 1 31 15 is_stmt 0
 408 01cc 97000000 		call	_Z10putNewlinev@plt
 408      E7800000 
 409              	.LVL38:
  33:src/main.cpp  ****     uint64 b = test_call(1);
 410              		.loc 1 33 5 is_stmt 1
  33:src/main.cpp  ****     uint64 b = test_call(1);
 411              		.loc 1 33 25 is_stmt 0
 412 01d4 13051000 		li	a0,1
 413 01d8 97000000 		call	_Z9test_callm@plt
 413      E7800000 
 414              	.LVL39:
 415 01e0 93040500 		mv	s1,a0
 416              	.LVL40:
  34:src/main.cpp  ****     putString("======== Drugi gotov");
 417              		.loc 1 34 5 is_stmt 1
  34:src/main.cpp  ****     putString("======== Drugi gotov");
 418              		.loc 1 34 14 is_stmt 0
 419 01e4 17050000 		lla	a0,.LC8
 419      13050500 
 420 01ec 97000000 		call	_Z9putStringPKc@plt
 420      E7800000 
 421              	.LVL41:
  37:src/main.cpp  ****     assert(a == 1);
 422              		.loc 1 37 5 is_stmt 1
 423 01f4 1305F9FF 		addi	a0,s2,-1
 424 01f8 13065002 		li	a2,37
 425 01fc 97050000 		lla	a1,.LC5
 425      93850500 
 426 0204 13351500 		seqz	a0,a0
 427 0208 97000000 		call	_Z7_assertbPKci
 427      E7800000 
 428              	.LVL42:
  38:src/main.cpp  ****     assert(b == 1);
 429              		.loc 1 38 5
 430 0210 1385F4FF 		addi	a0,s1,-1
 431 0214 13066002 		li	a2,38
 432 0218 97050000 		lla	a1,.LC5
 432      93850500 
 433 0220 13351500 		seqz	a0,a0
 434 0224 97000000 		call	_Z7_assertbPKci
 434      E7800000 
 435              	.LVL43:
  40:src/main.cpp  ****     assert(false);
 436              		.loc 1 40 5
GAS LISTING /tmp/cccUuu6F.s 			page 15


 437 022c 13068002 		li	a2,40
 438 0230 97050000 		lla	a1,.LC5
 438      93850500 
 439 0238 13050000 		li	a0,0
 440 023c 97000000 		call	_Z7_assertbPKci
 440      E7800000 
 441              	.LVL44:
 442              	.LBB30:
  42:src/main.cpp  ****     for(int i=1; i<5; i++)
 443              		.loc 1 42 13 is_stmt 0
 444 0244 93041000 		li	s1,1
 445              	.LVL45:
 446              	.L25:
  42:src/main.cpp  ****     for(int i=1; i<5; i++)
 447              		.loc 1 42 19 is_stmt 1 discriminator 1
 448 0248 93074000 		li	a5,4
 449 024c 63C4970E 		bgt	s1,a5,.L23
 450              	.LBB31:
  44:src/main.cpp  ****         uint64 called = test_call(i);
 451              		.loc 1 44 9
  44:src/main.cpp  ****         uint64 called = test_call(i);
 452              		.loc 1 44 34 is_stmt 0
 453 0250 13850400 		mv	a0,s1
 454 0254 97000000 		call	_Z9test_callm@plt
 454      E7800000 
 455              	.LVL46:
 456 025c 13090500 		mv	s2,a0
 457              	.LVL47:
  45:src/main.cpp  ****         uint64 actual = fib(i);
 458              		.loc 1 45 9 is_stmt 1
  45:src/main.cpp  ****         uint64 actual = fib(i);
 459              		.loc 1 45 28 is_stmt 0
 460 0260 13850400 		mv	a0,s1
 461              	.LVL48:
 462 0264 97000000 		call	_Z3fibm@plt
 462      E7800000 
 463              	.LVL49:
 464 026c 93090500 		mv	s3,a0
 465              	.LVL50:
  46:src/main.cpp  ****         if(called != actual)
 466              		.loc 1 46 9 is_stmt 1
 467 0270 6316A900 		bne	s2,a0,.L28
 468              	.LBE31:
  42:src/main.cpp  ****     for(int i=1; i<5; i++)
 469              		.loc 1 42 5 discriminator 2
 470 0274 9B841400 		addiw	s1,s1,1
 471              	.LVL51:
 472 0278 6FF01FFD 		j	.L25
 473              	.LVL52:
 474              	.L28:
 475              	.LBB34:
  48:src/main.cpp  ****             putString("test_call() error. i=");
 476              		.loc 1 48 13
  48:src/main.cpp  ****             putString("test_call() error. i=");
 477              		.loc 1 48 22 is_stmt 0
 478 027c 17050000 		lla	a0,.LC9
 478      13050500 
GAS LISTING /tmp/cccUuu6F.s 			page 16


 479              	.LVL53:
 480 0284 97000000 		call	_Z9putStringPKc@plt
 480      E7800000 
 481              	.LVL54:
  49:src/main.cpp  ****             putInt(i);
 482              		.loc 1 49 13 is_stmt 1
  49:src/main.cpp  ****             putInt(i);
 483              		.loc 1 49 19 is_stmt 0
 484 028c 13850400 		mv	a0,s1
 485 0290 97000000 		call	_Z6putInti@plt
 485      E7800000 
 486              	.LVL55:
  50:src/main.cpp  ****             putString(" fib(i)=");
 487              		.loc 1 50 13 is_stmt 1
  50:src/main.cpp  ****             putString(" fib(i)=");
 488              		.loc 1 50 22 is_stmt 0
 489 0298 17050000 		lla	a0,.LC10
 489      13050500 
 490 02a0 97000000 		call	_Z9putStringPKc@plt
 490      E7800000 
 491              	.LVL56:
  51:src/main.cpp  ****             putU64(actual);
 492              		.loc 1 51 13 is_stmt 1
  51:src/main.cpp  ****             putU64(actual);
 493              		.loc 1 51 19 is_stmt 0
 494 02a8 13850900 		mv	a0,s3
 495 02ac 97000000 		call	_Z6putU64m@plt
 495      E7800000 
 496              	.LVL57:
  52:src/main.cpp  ****             putString(" test_call(i)=");
 497              		.loc 1 52 13 is_stmt 1
  52:src/main.cpp  ****             putString(" test_call(i)=");
 498              		.loc 1 52 22 is_stmt 0
 499 02b4 17050000 		lla	a0,.LC11
 499      13050500 
 500 02bc 97000000 		call	_Z9putStringPKc@plt
 500      E7800000 
 501              	.LVL58:
  53:src/main.cpp  ****             putU64(called);
 502              		.loc 1 53 13 is_stmt 1
  53:src/main.cpp  ****             putU64(called);
 503              		.loc 1 53 19 is_stmt 0
 504 02c4 13050900 		mv	a0,s2
 505 02c8 97000000 		call	_Z6putU64m@plt
 505      E7800000 
 506              	.LVL59:
  54:src/main.cpp  ****             putNewline();
 507              		.loc 1 54 13 is_stmt 1
  54:src/main.cpp  ****             putNewline();
 508              		.loc 1 54 23 is_stmt 0
 509 02d0 97000000 		call	_Z10putNewlinev@plt
 509      E7800000 
 510              	.LVL60:
  55:src/main.cpp  ****             assert(false);
 511              		.loc 1 55 13 is_stmt 1
 512              	.LBB32:
 513              	.LBB33:
GAS LISTING /tmp/cccUuu6F.s 			page 17


  21:src/../h/../h/my_console.h ****         return;
 514              		.loc 2 21 5
  24:src/../h/../h/my_console.h ****     putString(file);
 515              		.loc 2 24 5
  24:src/../h/../h/my_console.h ****     putString(file);
 516              		.loc 2 24 14 is_stmt 0
 517 02d8 17050000 		lla	a0,.LC1
 517      13050500 
 518 02e0 97000000 		call	_Z9putStringPKc@plt
 518      E7800000 
 519              	.LVL61:
  25:src/../h/../h/my_console.h ****     putString("    line: ");
 520              		.loc 2 25 5 is_stmt 1
  25:src/../h/../h/my_console.h ****     putString("    line: ");
 521              		.loc 2 25 14 is_stmt 0
 522 02e8 17050000 		lla	a0,.LC5
 522      13050500 
 523 02f0 97000000 		call	_Z9putStringPKc@plt
 523      E7800000 
 524              	.LVL62:
  26:src/../h/../h/my_console.h ****     putInt(line);
 525              		.loc 2 26 5 is_stmt 1
  26:src/../h/../h/my_console.h ****     putInt(line);
 526              		.loc 2 26 14 is_stmt 0
 527 02f8 17050000 		lla	a0,.LC2
 527      13050500 
 528 0300 97000000 		call	_Z9putStringPKc@plt
 528      E7800000 
 529              	.LVL63:
  27:src/../h/../h/my_console.h ****     putString("   ===========================");
 530              		.loc 2 27 5 is_stmt 1
  27:src/../h/../h/my_console.h ****     putString("   ===========================");
 531              		.loc 2 27 11 is_stmt 0
 532 0308 13057003 		li	a0,55
 533 030c 97000000 		call	_Z6putInti@plt
 533      E7800000 
 534              	.LVL64:
  28:src/../h/../h/my_console.h ****     putNewline();
 535              		.loc 2 28 5 is_stmt 1
  28:src/../h/../h/my_console.h ****     putNewline();
 536              		.loc 2 28 14 is_stmt 0
 537 0314 17050000 		lla	a0,.LC3
 537      13050500 
 538 031c 97000000 		call	_Z9putStringPKc@plt
 538      E7800000 
 539              	.LVL65:
  29:src/../h/../h/my_console.h **** 
 540              		.loc 2 29 5 is_stmt 1
  29:src/../h/../h/my_console.h **** 
 541              		.loc 2 29 15 is_stmt 0
 542 0324 97000000 		call	_Z10putNewlinev@plt
 542      E7800000 
 543              	.LVL66:
 544              		.loc 2 31 5 is_stmt 1
 545              		.loc 2 31 15 is_stmt 0
 546 032c 97000000 		call	_Z10stopKernelv@plt
 546      E7800000 
GAS LISTING /tmp/cccUuu6F.s 			page 18


 547              	.LVL67:
 548              	.L23:
 549              	.LBE33:
 550              	.LBE32:
 551              	.LBE34:
 552              	.LBE30:
  59:src/main.cpp  ****     putString("Calling mem_alloc");
 553              		.loc 1 59 5 is_stmt 1
  59:src/main.cpp  ****     putString("Calling mem_alloc");
 554              		.loc 1 59 14 is_stmt 0
 555 0334 17050000 		lla	a0,.LC12
 555      13050500 
 556 033c 97000000 		call	_Z9putStringPKc@plt
 556      E7800000 
 557              	.LVL68:
  60:src/main.cpp  ****     putNewline();
 558              		.loc 1 60 5 is_stmt 1
  60:src/main.cpp  ****     putNewline();
 559              		.loc 1 60 15 is_stmt 0
 560 0344 97000000 		call	_Z10putNewlinev@plt
 560      E7800000 
 561              	.LVL69:
  61:src/main.cpp  ****     void* p = mem_alloc(32);
 562              		.loc 1 61 5 is_stmt 1
  61:src/main.cpp  ****     void* p = mem_alloc(32);
 563              		.loc 1 61 24 is_stmt 0
 564 034c 13050002 		li	a0,32
 565 0350 97000000 		call	_Z9mem_allocm@plt
 565      E7800000 
 566              	.LVL70:
 567 0358 93040500 		mv	s1,a0
 568              	.LVL71:
  62:src/main.cpp  ****     putString("ret of mem_alloc: ");
 569              		.loc 1 62 5 is_stmt 1
  62:src/main.cpp  ****     putString("ret of mem_alloc: ");
 570              		.loc 1 62 14 is_stmt 0
 571 035c 17050000 		lla	a0,.LC13
 571      13050500 
 572 0364 97000000 		call	_Z9putStringPKc@plt
 572      E7800000 
 573              	.LVL72:
  63:src/main.cpp  ****     putU64((uint64)p);
 574              		.loc 1 63 5 is_stmt 1
  63:src/main.cpp  ****     putU64((uint64)p);
 575              		.loc 1 63 11 is_stmt 0
 576 036c 13850400 		mv	a0,s1
 577 0370 97000000 		call	_Z6putU64m@plt
 577      E7800000 
 578              	.LVL73:
  64:src/main.cpp  ****     putNewline();
 579              		.loc 1 64 5 is_stmt 1
  64:src/main.cpp  ****     putNewline();
 580              		.loc 1 64 15 is_stmt 0
 581 0378 97000000 		call	_Z10putNewlinev@plt
 581      E7800000 
 582              	.LVL74:
  70:src/main.cpp  ****     thread_t t1;
GAS LISTING /tmp/cccUuu6F.s 			page 19


 583              		.loc 1 70 5 is_stmt 1
  71:src/main.cpp  ****     int Aarg = 3;
 584              		.loc 1 71 5
  71:src/main.cpp  ****     int Aarg = 3;
 585              		.loc 1 71 9 is_stmt 0
 586 0380 93073000 		li	a5,3
 587 0384 2322F4FC 		sw	a5,-60(s0)
  73:src/main.cpp  ****     putString("Creating thread");
 588              		.loc 1 73 5 is_stmt 1
  73:src/main.cpp  ****     putString("Creating thread");
 589              		.loc 1 73 14 is_stmt 0
 590 0388 17050000 		lla	a0,.LC14
 590      13050500 
 591 0390 97000000 		call	_Z9putStringPKc@plt
 591      E7800000 
 592              	.LVL75:
  74:src/main.cpp  ****     putNewline();
 593              		.loc 1 74 5 is_stmt 1
  74:src/main.cpp  ****     putNewline();
 594              		.loc 1 74 15 is_stmt 0
 595 0398 97000000 		call	_Z10putNewlinev@plt
 595      E7800000 
 596              	.LVL76:
  75:src/main.cpp  ****     Thread::createThread(&t1, &doA, &Aarg);
 597              		.loc 1 75 5 is_stmt 1
  75:src/main.cpp  ****     Thread::createThread(&t1, &doA, &Aarg);
 598              		.loc 1 75 25 is_stmt 0
 599 03a0 93060000 		li	a3,0
 600 03a4 130644FC 		addi	a2,s0,-60
 601 03a8 97050000 		lla	a1,_Z3doAPv
 601      93850500 
 602 03b0 130584FC 		addi	a0,s0,-56
 603 03b4 97000000 		call	_ZN6Thread12createThreadEPPS_PFvPvES2_S2_@plt
 603      E7800000 
 604              	.LVL77:
  77:src/main.cpp  ****     putString("Thread created");
 605              		.loc 1 77 5 is_stmt 1
  77:src/main.cpp  ****     putString("Thread created");
 606              		.loc 1 77 14 is_stmt 0
 607 03bc 17050000 		lla	a0,.LC15
 607      13050500 
 608 03c4 97000000 		call	_Z9putStringPKc@plt
 608      E7800000 
 609              	.LVL78:
  78:src/main.cpp  ****     putNewline();
 610              		.loc 1 78 5 is_stmt 1
  78:src/main.cpp  ****     putNewline();
 611              		.loc 1 78 15 is_stmt 0
 612 03cc 97000000 		call	_Z10putNewlinev@plt
 612      E7800000 
 613              	.LVL79:
  81:src/main.cpp  ****     putString("Going into the loop");
 614              		.loc 1 81 5 is_stmt 1
  81:src/main.cpp  ****     putString("Going into the loop");
 615              		.loc 1 81 14 is_stmt 0
 616 03d4 17050000 		lla	a0,.LC16
 616      13050500 
GAS LISTING /tmp/cccUuu6F.s 			page 20


 617 03dc 97000000 		call	_Z9putStringPKc@plt
 617      E7800000 
 618              	.LVL80:
  82:src/main.cpp  ****     putNewline();
 619              		.loc 1 82 5 is_stmt 1
  82:src/main.cpp  ****     putNewline();
 620              		.loc 1 82 15 is_stmt 0
 621 03e4 97000000 		call	_Z10putNewlinev@plt
 621      E7800000 
 622              	.LVL81:
 623              	.L26:
  84:src/main.cpp  ****     while(1)
 624              		.loc 1 84 5 is_stmt 1 discriminator 1
  87:src/main.cpp  ****         i++;
 625              		.loc 1 87 9 discriminator 1
  84:src/main.cpp  ****     while(1)
 626              		.loc 1 84 5 discriminator 1
 627 03ec 6F000000 		j	.L26
 628              		.cfi_endproc
 629              	.LFE11:
 631              		.globl	kernelStack
 632              		.globl	kernelThread
 633              		.bss
 634              		.align	3
 635              		.set	.LANCHOR0,. + 0
 638              	kernelThread:
 639 0000 00000000 		.zero	448
 639      00000000 
 639      00000000 
 639      00000000 
 639      00000000 
 642              	kernelStack:
 643 01c0 00000000 		.zero	40976
 643      00000000 
 643      00000000 
 643      00000000 
 643      00000000 
 644              		.text
 645              	.Letext0:
 646              		.file 4 "src/../h/../lib/hw.h"
 647              		.file 5 "src/../h/c_api.h"
 648              		.file 6 "src/../h/../h/../h/risc.h"
GAS LISTING /tmp/cccUuu6F.s 			page 21


DEFINED SYMBOLS
                            *ABS*:0000000000000000 main.cpp
     /tmp/cccUuu6F.s:14     .text:0000000000000000 _Z3doAPv
     /tmp/cccUuu6F.s:18     .text:0000000000000000 .L0 
     /tmp/cccUuu6F.s:20     .text:0000000000000000 .L0 
     /tmp/cccUuu6F.s:21     .text:0000000000000004 .L0 
     /tmp/cccUuu6F.s:24     .text:000000000000000c .L0 
     /tmp/cccUuu6F.s:25     .text:000000000000000c .L0 
     /tmp/cccUuu6F.s:27     .text:0000000000000010 .L0 
     /tmp/cccUuu6F.s:31     .text:0000000000000010 .L0 
     /tmp/cccUuu6F.s:32     .text:0000000000000010 .L0 
     /tmp/cccUuu6F.s:33     .text:0000000000000010 .L0 
     /tmp/cccUuu6F.s:37     .text:0000000000000020 .L0 
     /tmp/cccUuu6F.s:38     .text:0000000000000020 .L0 
     /tmp/cccUuu6F.s:41     .text:0000000000000028 .L0 
     /tmp/cccUuu6F.s:42     .text:0000000000000028 .L0 
     /tmp/cccUuu6F.s:45     .text:0000000000000030 .L0 
     /tmp/cccUuu6F.s:46     .text:0000000000000034 .L0 
     /tmp/cccUuu6F.s:63     .text._Z7_assertbPKci:0000000000000000 _Z7_assertbPKci
     /tmp/cccUuu6F.s:67     .text._Z7_assertbPKci:0000000000000000 .L0 
     /tmp/cccUuu6F.s:69     .text._Z7_assertbPKci:0000000000000000 .L0 
     /tmp/cccUuu6F.s:70     .text._Z7_assertbPKci:0000000000000000 .L0 
     /tmp/cccUuu6F.s:74     .text._Z7_assertbPKci:0000000000000008 .L0 
     /tmp/cccUuu6F.s:75     .text._Z7_assertbPKci:000000000000000c .L0 
     /tmp/cccUuu6F.s:80     .text._Z7_assertbPKci:000000000000001c .L0 
     /tmp/cccUuu6F.s:81     .text._Z7_assertbPKci:000000000000001c .L0 
     /tmp/cccUuu6F.s:82     .text._Z7_assertbPKci:000000000000001c .L0 
     /tmp/cccUuu6F.s:83     .text._Z7_assertbPKci:000000000000001c .L0 
     /tmp/cccUuu6F.s:85     .text._Z7_assertbPKci:0000000000000020 .L0 
     /tmp/cccUuu6F.s:89     .text._Z7_assertbPKci:0000000000000028 .L0 
     /tmp/cccUuu6F.s:90     .text._Z7_assertbPKci:0000000000000028 .L0 
     /tmp/cccUuu6F.s:95     .text._Z7_assertbPKci:0000000000000038 .L0 
     /tmp/cccUuu6F.s:96     .text._Z7_assertbPKci:0000000000000038 .L0 
     /tmp/cccUuu6F.s:100    .text._Z7_assertbPKci:0000000000000044 .L0 
     /tmp/cccUuu6F.s:101    .text._Z7_assertbPKci:0000000000000044 .L0 
     /tmp/cccUuu6F.s:105    .text._Z7_assertbPKci:0000000000000054 .L0 
     /tmp/cccUuu6F.s:106    .text._Z7_assertbPKci:0000000000000054 .L0 
     /tmp/cccUuu6F.s:110    .text._Z7_assertbPKci:0000000000000060 .L0 
     /tmp/cccUuu6F.s:111    .text._Z7_assertbPKci:0000000000000060 .L0 
     /tmp/cccUuu6F.s:115    .text._Z7_assertbPKci:0000000000000070 .L0 
     /tmp/cccUuu6F.s:116    .text._Z7_assertbPKci:0000000000000070 .L0 
     /tmp/cccUuu6F.s:119    .text._Z7_assertbPKci:0000000000000078 .L0 
     /tmp/cccUuu6F.s:120    .text._Z7_assertbPKci:0000000000000078 .L0 
     /tmp/cccUuu6F.s:122    .text._Z7_assertbPKci:0000000000000080 .L0 
     /tmp/cccUuu6F.s:133    .text:0000000000000034 _Z3doBPv
     /tmp/cccUuu6F.s:136    .text:0000000000000034 .L0 
     /tmp/cccUuu6F.s:138    .text:0000000000000034 .L0 
     /tmp/cccUuu6F.s:139    .text:0000000000000038 .L0 
     /tmp/cccUuu6F.s:142    .text:0000000000000040 .L0 
     /tmp/cccUuu6F.s:143    .text:0000000000000040 .L0 
     /tmp/cccUuu6F.s:145    .text:0000000000000044 .L0 
     /tmp/cccUuu6F.s:149    .text:0000000000000044 .L0 
     /tmp/cccUuu6F.s:150    .text:0000000000000044 .L0 
     /tmp/cccUuu6F.s:151    .text:0000000000000044 .L0 
     /tmp/cccUuu6F.s:155    .text:0000000000000054 .L0 
     /tmp/cccUuu6F.s:156    .text:0000000000000054 .L0 
     /tmp/cccUuu6F.s:159    .text:000000000000005c .L0 
GAS LISTING /tmp/cccUuu6F.s 			page 22


     /tmp/cccUuu6F.s:160    .text:000000000000005c .L0 
     /tmp/cccUuu6F.s:163    .text:0000000000000064 .L0 
     /tmp/cccUuu6F.s:164    .text:0000000000000068 .L0 
     /tmp/cccUuu6F.s:175    .text:0000000000000068 _Z16doInitialAssertsv
     /tmp/cccUuu6F.s:178    .text:0000000000000068 .L0 
     /tmp/cccUuu6F.s:179    .text:0000000000000068 .L0 
     /tmp/cccUuu6F.s:181    .text:0000000000000068 .L0 
     /tmp/cccUuu6F.s:182    .text:0000000000000068 .L0 
     /tmp/cccUuu6F.s:183    .text:0000000000000068 .L0 
     /tmp/cccUuu6F.s:184    .text:0000000000000068 .L0 
     /tmp/cccUuu6F.s:196    .text:0000000000000090 .L0 
     /tmp/cccUuu6F.s:202    .text:0000000000000098 .L0 
     /tmp/cccUuu6F.s:203    .text:000000000000009c .L0 
     /tmp/cccUuu6F.s:206    .text:00000000000000a4 .L0 
     /tmp/cccUuu6F.s:207    .text:00000000000000a4 .L0 
     /tmp/cccUuu6F.s:209    .text:00000000000000a8 .L0 
     /tmp/cccUuu6F.s:213    .text:00000000000000a8 .L0 
     /tmp/cccUuu6F.s:214    .text:00000000000000a8 .L0 
     /tmp/cccUuu6F.s:218    .text:00000000000000b8 .L0 
     /tmp/cccUuu6F.s:219    .text:00000000000000b8 .L0 
     /tmp/cccUuu6F.s:223    .text:00000000000000c8 .L0 
     /tmp/cccUuu6F.s:224    .text:00000000000000c8 .L0 
     /tmp/cccUuu6F.s:228    .text:00000000000000d8 .L0 
     /tmp/cccUuu6F.s:229    .text:00000000000000d8 .L0 
     /tmp/cccUuu6F.s:233    .text:00000000000000e4 .L0 
     /tmp/cccUuu6F.s:234    .text:00000000000000e4 .L0 
     /tmp/cccUuu6F.s:238    .text:00000000000000f4 .L0 
     /tmp/cccUuu6F.s:239    .text:00000000000000f4 .L0 
     /tmp/cccUuu6F.s:242    .text:00000000000000fc .L0 
     /tmp/cccUuu6F.s:243    .text:00000000000000fc .L0 
     /tmp/cccUuu6F.s:247    .text:0000000000000104 .L0 
     /tmp/cccUuu6F.s:253    .text:0000000000000104 _Z19initInterruptVectorv
     /tmp/cccUuu6F.s:256    .text:0000000000000104 .L0 
     /tmp/cccUuu6F.s:257    .text:0000000000000104 .L0 
     /tmp/cccUuu6F.s:258    .text:0000000000000108 .L0 
     /tmp/cccUuu6F.s:260    .text:000000000000010c .L0 
     /tmp/cccUuu6F.s:262    .text:0000000000000110 .L0 
     /tmp/cccUuu6F.s:264    .text:0000000000000110 .L0 
     /tmp/cccUuu6F.s:265    .text:0000000000000110 .L0 
     /tmp/cccUuu6F.s:271    .text:000000000000011c .L0 
        src/main.cpp:131    .text:000000000000011c .L0 
     /tmp/cccUuu6F.s:276    .text:0000000000000120 .L0 
        src/main.cpp:132    .text:0000000000000120 .L0 
     /tmp/cccUuu6F.s:282    .text:0000000000000124 .L0 
     /tmp/cccUuu6F.s:283    .text:0000000000000128 .L0 
     /tmp/cccUuu6F.s:284    .text:0000000000000128 .L0 
     /tmp/cccUuu6F.s:286    .text:000000000000012c .L0 
     /tmp/cccUuu6F.s:288    .text:0000000000000130 .L0 
     /tmp/cccUuu6F.s:329    .text:0000000000000130 main
     /tmp/cccUuu6F.s:332    .text:0000000000000130 .L0 
     /tmp/cccUuu6F.s:333    .text:0000000000000130 .L0 
     /tmp/cccUuu6F.s:334    .text:0000000000000134 .L0 
     /tmp/cccUuu6F.s:340    .text:0000000000000148 .L0 
     /tmp/cccUuu6F.s:341    .text:0000000000000148 .L0 
     /tmp/cccUuu6F.s:342    .text:0000000000000148 .L0 
     /tmp/cccUuu6F.s:343    .text:0000000000000148 .L0 
     /tmp/cccUuu6F.s:344    .text:0000000000000148 .L0 
GAS LISTING /tmp/cccUuu6F.s 			page 23


     /tmp/cccUuu6F.s:346    .text:000000000000014c .L0 
     /tmp/cccUuu6F.s:348    .text:000000000000014c .L0 
        src/main.cpp:21     .text:000000000000014c .L0 
     /tmp/cccUuu6F.s:357    .text:000000000000015c .L0 
     /tmp/cccUuu6F.s:358    .text:000000000000015c .L0 
     /tmp/cccUuu6F.s:361    .text:0000000000000164 .L0 
     /tmp/cccUuu6F.s:362    .text:0000000000000164 .L0 
     /tmp/cccUuu6F.s:368    .text:000000000000016c .L0 
     /tmp/cccUuu6F.s:369    .text:000000000000016c .L0 
     /tmp/cccUuu6F.s:370    .text:000000000000016c .L0 
     /tmp/cccUuu6F.s:373    .text:0000000000000178 .L0 
     /tmp/cccUuu6F.s:374    .text:0000000000000178 .L0 
     /tmp/cccUuu6F.s:381    .text:000000000000018c .L0 
     /tmp/cccUuu6F.s:382    .text:000000000000018c .L0 
     /tmp/cccUuu6F.s:385    .text:0000000000000194 .L0 
     /tmp/cccUuu6F.s:386    .text:0000000000000194 .L0 
     /tmp/cccUuu6F.s:390    .text:00000000000001a4 .L0 
     /tmp/cccUuu6F.s:391    .text:00000000000001a4 .L0 
     /tmp/cccUuu6F.s:394    .text:00000000000001ac .L0 
     /tmp/cccUuu6F.s:395    .text:00000000000001ac .L0 
     /tmp/cccUuu6F.s:401    .text:00000000000001bc .L0 
     /tmp/cccUuu6F.s:402    .text:00000000000001bc .L0 
     /tmp/cccUuu6F.s:407    .text:00000000000001cc .L0 
     /tmp/cccUuu6F.s:408    .text:00000000000001cc .L0 
     /tmp/cccUuu6F.s:411    .text:00000000000001d4 .L0 
     /tmp/cccUuu6F.s:412    .text:00000000000001d4 .L0 
     /tmp/cccUuu6F.s:418    .text:00000000000001e4 .L0 
     /tmp/cccUuu6F.s:419    .text:00000000000001e4 .L0 
     /tmp/cccUuu6F.s:423    .text:00000000000001f4 .L0 
     /tmp/cccUuu6F.s:430    .text:0000000000000210 .L0 
     /tmp/cccUuu6F.s:437    .text:000000000000022c .L0 
     /tmp/cccUuu6F.s:444    .text:0000000000000244 .L0 
     /tmp/cccUuu6F.s:448    .text:0000000000000248 .L0 
     /tmp/cccUuu6F.s:452    .text:0000000000000250 .L0 
     /tmp/cccUuu6F.s:453    .text:0000000000000250 .L0 
     /tmp/cccUuu6F.s:459    .text:0000000000000260 .L0 
     /tmp/cccUuu6F.s:460    .text:0000000000000260 .L0 
     /tmp/cccUuu6F.s:467    .text:0000000000000270 .L0 
     /tmp/cccUuu6F.s:470    .text:0000000000000274 .L0 
     /tmp/cccUuu6F.s:477    .text:000000000000027c .L0 
     /tmp/cccUuu6F.s:478    .text:000000000000027c .L0 
     /tmp/cccUuu6F.s:483    .text:000000000000028c .L0 
     /tmp/cccUuu6F.s:484    .text:000000000000028c .L0 
     /tmp/cccUuu6F.s:488    .text:0000000000000298 .L0 
     /tmp/cccUuu6F.s:489    .text:0000000000000298 .L0 
     /tmp/cccUuu6F.s:493    .text:00000000000002a8 .L0 
     /tmp/cccUuu6F.s:494    .text:00000000000002a8 .L0 
     /tmp/cccUuu6F.s:498    .text:00000000000002b4 .L0 
     /tmp/cccUuu6F.s:499    .text:00000000000002b4 .L0 
     /tmp/cccUuu6F.s:503    .text:00000000000002c4 .L0 
     /tmp/cccUuu6F.s:504    .text:00000000000002c4 .L0 
     /tmp/cccUuu6F.s:508    .text:00000000000002d0 .L0 
     /tmp/cccUuu6F.s:509    .text:00000000000002d0 .L0 
     /tmp/cccUuu6F.s:514    .text:00000000000002d8 .L0 
     /tmp/cccUuu6F.s:515    .text:00000000000002d8 .L0 
     /tmp/cccUuu6F.s:516    .text:00000000000002d8 .L0 
     /tmp/cccUuu6F.s:517    .text:00000000000002d8 .L0 
GAS LISTING /tmp/cccUuu6F.s 			page 24


     /tmp/cccUuu6F.s:521    .text:00000000000002e8 .L0 
     /tmp/cccUuu6F.s:522    .text:00000000000002e8 .L0 
     /tmp/cccUuu6F.s:526    .text:00000000000002f8 .L0 
     /tmp/cccUuu6F.s:527    .text:00000000000002f8 .L0 
     /tmp/cccUuu6F.s:531    .text:0000000000000308 .L0 
     /tmp/cccUuu6F.s:532    .text:0000000000000308 .L0 
     /tmp/cccUuu6F.s:536    .text:0000000000000314 .L0 
     /tmp/cccUuu6F.s:537    .text:0000000000000314 .L0 
     /tmp/cccUuu6F.s:541    .text:0000000000000324 .L0 
     /tmp/cccUuu6F.s:542    .text:0000000000000324 .L0 
     /tmp/cccUuu6F.s:545    .text:000000000000032c .L0 
     /tmp/cccUuu6F.s:546    .text:000000000000032c .L0 
     /tmp/cccUuu6F.s:554    .text:0000000000000334 .L0 
     /tmp/cccUuu6F.s:555    .text:0000000000000334 .L0 
     /tmp/cccUuu6F.s:559    .text:0000000000000344 .L0 
     /tmp/cccUuu6F.s:560    .text:0000000000000344 .L0 
     /tmp/cccUuu6F.s:563    .text:000000000000034c .L0 
     /tmp/cccUuu6F.s:564    .text:000000000000034c .L0 
     /tmp/cccUuu6F.s:570    .text:000000000000035c .L0 
     /tmp/cccUuu6F.s:571    .text:000000000000035c .L0 
     /tmp/cccUuu6F.s:575    .text:000000000000036c .L0 
     /tmp/cccUuu6F.s:576    .text:000000000000036c .L0 
     /tmp/cccUuu6F.s:580    .text:0000000000000378 .L0 
     /tmp/cccUuu6F.s:581    .text:0000000000000378 .L0 
     /tmp/cccUuu6F.s:584    .text:0000000000000380 .L0 
     /tmp/cccUuu6F.s:585    .text:0000000000000380 .L0 
     /tmp/cccUuu6F.s:586    .text:0000000000000380 .L0 
     /tmp/cccUuu6F.s:589    .text:0000000000000388 .L0 
     /tmp/cccUuu6F.s:590    .text:0000000000000388 .L0 
     /tmp/cccUuu6F.s:594    .text:0000000000000398 .L0 
     /tmp/cccUuu6F.s:595    .text:0000000000000398 .L0 
     /tmp/cccUuu6F.s:598    .text:00000000000003a0 .L0 
     /tmp/cccUuu6F.s:599    .text:00000000000003a0 .L0 
     /tmp/cccUuu6F.s:606    .text:00000000000003bc .L0 
     /tmp/cccUuu6F.s:607    .text:00000000000003bc .L0 
     /tmp/cccUuu6F.s:611    .text:00000000000003cc .L0 
     /tmp/cccUuu6F.s:612    .text:00000000000003cc .L0 
     /tmp/cccUuu6F.s:615    .text:00000000000003d4 .L0 
     /tmp/cccUuu6F.s:616    .text:00000000000003d4 .L0 
     /tmp/cccUuu6F.s:620    .text:00000000000003e4 .L0 
     /tmp/cccUuu6F.s:621    .text:00000000000003e4 .L0 
     /tmp/cccUuu6F.s:625    .text:00000000000003ec .L0 
     /tmp/cccUuu6F.s:626    .text:00000000000003ec .L0 
     /tmp/cccUuu6F.s:627    .text:00000000000003ec .L0 
     /tmp/cccUuu6F.s:628    .text:00000000000003f0 .L0 
     /tmp/cccUuu6F.s:642    .bss:00000000000001c0 kernelStack
     /tmp/cccUuu6F.s:638    .bss:0000000000000000 kernelThread
     /tmp/cccUuu6F.s:635    .bss:0000000000000000 .LANCHOR0
     /tmp/cccUuu6F.s:649    .text:00000000000003f0 .L0 
     /tmp/cccUuu6F.s:125    .text._Z7_assertbPKci:0000000000000080 .L0 
     /tmp/cccUuu6F.s:8      .rodata.str1.8:0000000000000000 .LC0
     /tmp/cccUuu6F.s:33     .text:0000000000000010 .L0 
     /tmp/cccUuu6F.s:127    .rodata.str1.8:0000000000000010 .LC4
     /tmp/cccUuu6F.s:151    .text:0000000000000044 .L0 
     /tmp/cccUuu6F.s:184    .text:0000000000000068 .L0 
     /tmp/cccUuu6F.s:186    .text:0000000000000074 .L0 
     /tmp/cccUuu6F.s:51     .rodata._Z7_assertbPKci.str1.8:0000000000000000 .LC1
GAS LISTING /tmp/cccUuu6F.s 			page 25


     /tmp/cccUuu6F.s:214    .text:00000000000000a8 .L0 
     /tmp/cccUuu6F.s:169    .rodata.str1.8:0000000000000018 .LC5
     /tmp/cccUuu6F.s:219    .text:00000000000000b8 .L0 
     /tmp/cccUuu6F.s:54     .rodata._Z7_assertbPKci.str1.8:0000000000000028 .LC2
     /tmp/cccUuu6F.s:224    .text:00000000000000c8 .L0 
     /tmp/cccUuu6F.s:57     .rodata._Z7_assertbPKci.str1.8:0000000000000038 .LC3
     /tmp/cccUuu6F.s:234    .text:00000000000000e4 .L0 
     /tmp/cccUuu6F.s:265    .text:0000000000000110 .L0 
     /tmp/cccUuu6F.s:354    .text:0000000000000150 .L0 
     /tmp/cccUuu6F.s:370    .text:000000000000016c .L0 
     /tmp/cccUuu6F.s:374    .text:0000000000000178 .L0 
     /tmp/cccUuu6F.s:375    .text:0000000000000180 .L0 
     /tmp/cccUuu6F.s:293    .rodata.str1.8:0000000000000028 .LC6
     /tmp/cccUuu6F.s:386    .text:0000000000000194 .L0 
     /tmp/cccUuu6F.s:296    .rodata.str1.8:0000000000000030 .LC7
     /tmp/cccUuu6F.s:402    .text:00000000000001bc .L0 
     /tmp/cccUuu6F.s:299    .rodata.str1.8:0000000000000050 .LC8
     /tmp/cccUuu6F.s:419    .text:00000000000001e4 .L0 
     /tmp/cccUuu6F.s:425    .text:00000000000001fc .L0 
     /tmp/cccUuu6F.s:432    .text:0000000000000218 .L0 
     /tmp/cccUuu6F.s:438    .text:0000000000000230 .L0 
     /tmp/cccUuu6F.s:302    .rodata.str1.8:0000000000000068 .LC9
     /tmp/cccUuu6F.s:478    .text:000000000000027c .L0 
     /tmp/cccUuu6F.s:305    .rodata.str1.8:0000000000000080 .LC10
     /tmp/cccUuu6F.s:489    .text:0000000000000298 .L0 
     /tmp/cccUuu6F.s:308    .rodata.str1.8:0000000000000090 .LC11
     /tmp/cccUuu6F.s:499    .text:00000000000002b4 .L0 
     /tmp/cccUuu6F.s:517    .text:00000000000002d8 .L0 
     /tmp/cccUuu6F.s:522    .text:00000000000002e8 .L0 
     /tmp/cccUuu6F.s:527    .text:00000000000002f8 .L0 
     /tmp/cccUuu6F.s:537    .text:0000000000000314 .L0 
     /tmp/cccUuu6F.s:311    .rodata.str1.8:00000000000000a0 .LC12
     /tmp/cccUuu6F.s:555    .text:0000000000000334 .L0 
     /tmp/cccUuu6F.s:314    .rodata.str1.8:00000000000000b8 .LC13
     /tmp/cccUuu6F.s:571    .text:000000000000035c .L0 
     /tmp/cccUuu6F.s:317    .rodata.str1.8:00000000000000d0 .LC14
     /tmp/cccUuu6F.s:590    .text:0000000000000388 .L0 
     /tmp/cccUuu6F.s:601    .text:00000000000003a8 .L0 
     /tmp/cccUuu6F.s:320    .rodata.str1.8:00000000000000e0 .LC15
     /tmp/cccUuu6F.s:607    .text:00000000000003bc .L0 
     /tmp/cccUuu6F.s:323    .rodata.str1.8:00000000000000f0 .LC16
     /tmp/cccUuu6F.s:616    .text:00000000000003d4 .L0 
     /tmp/cccUuu6F.s:29     .text:0000000000000010 .L2
     /tmp/cccUuu6F.s:147    .text:0000000000000044 .L12
     /tmp/cccUuu6F.s:198    .text:0000000000000098 .L19
     /tmp/cccUuu6F.s:548    .text:0000000000000334 .L23
     /tmp/cccUuu6F.s:474    .text:000000000000027c .L28
     /tmp/cccUuu6F.s:446    .text:0000000000000248 .L25
     /tmp/cccUuu6F.s:623    .text:00000000000003ec .L26
     /tmp/cccUuu6F.s:90     .text._Z7_assertbPKci:0000000000000028 .L0 
     /tmp/cccUuu6F.s:101    .text._Z7_assertbPKci:0000000000000044 .L0 
     /tmp/cccUuu6F.s:111    .text._Z7_assertbPKci:0000000000000060 .L0 
     /tmp/cccUuu6F.s:72     .text._Z7_assertbPKci:0000000000000008 .L10
     /tmp/cccUuu6F.s:1983   .debug_abbrev:0000000000000000 .Ldebug_abbrev0
     /tmp/cccUuu6F.s:3341   .debug_str:00000000000004a3 .LASF89
     /tmp/cccUuu6F.s:3249   .debug_str:00000000000001ee .LASF90
     /tmp/cccUuu6F.s:3305   .debug_str:000000000000036c .LASF91
GAS LISTING /tmp/cccUuu6F.s 			page 26


     /tmp/cccUuu6F.s:3149   .debug_ranges:0000000000000000 .Ldebug_ranges0
     /tmp/cccUuu6F.s:3169   .debug_line:0000000000000000 .Ldebug_line0
     /tmp/cccUuu6F.s:3275   .debug_str:0000000000000295 .LASF0
     /tmp/cccUuu6F.s:3285   .debug_str:00000000000002c6 .LASF1
     /tmp/cccUuu6F.s:3263   .debug_str:000000000000023c .LASF2
     /tmp/cccUuu6F.s:3237   .debug_str:00000000000001bb .LASF4
     /tmp/cccUuu6F.s:3323   .debug_str:000000000000040f .LASF3
     /tmp/cccUuu6F.s:3189   .debug_str:0000000000000084 .LASF5
     /tmp/cccUuu6F.s:3287   .debug_str:00000000000002d9 .LASF6
     /tmp/cccUuu6F.s:3273   .debug_str:0000000000000282 .LASF7
     /tmp/cccUuu6F.s:3351   .debug_str:0000000000000598 .LASF8
     /tmp/cccUuu6F.s:3231   .debug_str:00000000000001a1 .LASF9
     /tmp/cccUuu6F.s:3299   .debug_str:0000000000000317 .LASF10
     /tmp/cccUuu6F.s:3343   .debug_str:0000000000000567 .LASF11
     /tmp/cccUuu6F.s:3191   .debug_str:000000000000008b .LASF12
     /tmp/cccUuu6F.s:3175   .debug_str:000000000000001d .LASF13
     /tmp/cccUuu6F.s:3203   .debug_str:00000000000000d5 .LASF14
     /tmp/cccUuu6F.s:3319   .debug_str:00000000000003ee .LASF15
     /tmp/cccUuu6F.s:3213   .debug_str:0000000000000111 .LASF16
     /tmp/cccUuu6F.s:3289   .debug_str:00000000000002ec .LASF17
     /tmp/cccUuu6F.s:3171   .debug_str:0000000000000000 .LASF18
     /tmp/cccUuu6F.s:3347   .debug_str:000000000000058c .LASF47
     /tmp/cccUuu6F.s:3235   .debug_str:00000000000001b5 .LASF92
     /tmp/cccUuu6F.s:3293   .debug_str:00000000000002fd .LASF19
     /tmp/cccUuu6F.s:3269   .debug_str:000000000000025d .LASF20
     /tmp/cccUuu6F.s:3297   .debug_str:0000000000000311 .LASF21
     /tmp/cccUuu6F.s:3267   .debug_str:0000000000000250 .LASF22
     /tmp/cccUuu6F.s:3257   .debug_str:000000000000021e .LASF23
     /tmp/cccUuu6F.s:3291   .debug_str:00000000000002f1 .LASF24
     /tmp/cccUuu6F.s:3357   .debug_str:00000000000005ce .LASF28
     /tmp/cccUuu6F.s:3301   .debug_str:0000000000000326 .LASF30
     /tmp/cccUuu6F.s:3335   .debug_str:0000000000000477 .LASF25
     /tmp/cccUuu6F.s:3361   .debug_str:00000000000005f5 .LASF26
     /tmp/cccUuu6F.s:3325   .debug_str:0000000000000421 .LASF27
     /tmp/cccUuu6F.s:3339   .debug_str:0000000000000497 .LASF29
     /tmp/cccUuu6F.s:3217   .debug_str:000000000000012e .LASF31
     /tmp/cccUuu6F.s:3295   .debug_str:0000000000000305 .LASF50
     /tmp/cccUuu6F.s:3313   .debug_str:00000000000003a0 .LASF51
     /tmp/cccUuu6F.s:3245   .debug_str:00000000000001da .LASF41
     /tmp/cccUuu6F.s:3303   .debug_str:0000000000000342 .LASF43
     /tmp/cccUuu6F.s:3311   .debug_str:000000000000039b .LASF36
     /tmp/cccUuu6F.s:3259   .debug_str:000000000000022a .LASF32
     /tmp/cccUuu6F.s:3187   .debug_str:0000000000000072 .LASF33
     /tmp/cccUuu6F.s:3185   .debug_str:000000000000006c .LASF34
     /tmp/cccUuu6F.s:3241   .debug_str:00000000000001cd .LASF35
     /tmp/cccUuu6F.s:3177   .debug_str:000000000000002d .LASF37
     /tmp/cccUuu6F.s:3243   .debug_str:00000000000001d2 .LASF38
     /tmp/cccUuu6F.s:3367   .debug_str:000000000000061d .LASF39
     /tmp/cccUuu6F.s:3281   .debug_str:00000000000002b2 .LASF40
     /tmp/cccUuu6F.s:3205   .debug_str:00000000000000e1 .LASF42
     /tmp/cccUuu6F.s:3353   .debug_str:00000000000005a8 .LASF44
     /tmp/cccUuu6F.s:3261   .debug_str:000000000000022f .LASF46
     /tmp/cccUuu6F.s:3271   .debug_str:0000000000000267 .LASF48
     /tmp/cccUuu6F.s:3233   .debug_str:00000000000001af .LASF45
     /tmp/cccUuu6F.s:3229   .debug_str:0000000000000192 .LASF49
     /tmp/cccUuu6F.s:3329   .debug_str:000000000000043c .LASF52
     /tmp/cccUuu6F.s:3279   .debug_str:00000000000002a9 .LASF53
GAS LISTING /tmp/cccUuu6F.s 			page 27


     /tmp/cccUuu6F.s:3223   .debug_str:000000000000016f .LASF54
     /tmp/cccUuu6F.s:3221   .debug_str:0000000000000162 .LASF55
     /tmp/cccUuu6F.s:3193   .debug_str:000000000000009b .LASF56
     /tmp/cccUuu6F.s:3195   .debug_str:00000000000000a7 .LASF93
     /tmp/cccUuu6F.s:3315   .debug_str:00000000000003bc .LASF94
     /tmp/cccUuu6F.s:3255   .debug_str:000000000000020f .LASF57
     /tmp/cccUuu6F.s:3307   .debug_str:0000000000000380 .LASF58
     /tmp/cccUuu6F.s:3173   .debug_str:0000000000000009 .LASF95
     /tmp/cccUuu6F.s:3359   .debug_str:00000000000005dc .LASF96
     /tmp/cccUuu6F.s:254    .text:0000000000000104 .LFB15
     /tmp/cccUuu6F.s:289    .text:0000000000000130 .LFE15
     /tmp/cccUuu6F.s:3333   .debug_str:0000000000000466 .LASF59
     /tmp/cccUuu6F.s:3345   .debug_str:0000000000000576 .LASF60
     /tmp/cccUuu6F.s:176    .text:0000000000000068 .LFB14
     /tmp/cccUuu6F.s:248    .text:0000000000000104 .LFE14
     /tmp/cccUuu6F.s:193    .text:0000000000000090 .LBB18
     /tmp/cccUuu6F.s:2965   .debug_loc:0000000000000000 .LLST5
     /tmp/cccUuu6F.s:216    .text:00000000000000b8 .LVL21
     /tmp/cccUuu6F.s:221    .text:00000000000000c8 .LVL22
     /tmp/cccUuu6F.s:226    .text:00000000000000d8 .LVL23
     /tmp/cccUuu6F.s:231    .text:00000000000000e4 .LVL24
     /tmp/cccUuu6F.s:236    .text:00000000000000f4 .LVL25
     /tmp/cccUuu6F.s:240    .text:00000000000000fc .LVL26
     /tmp/cccUuu6F.s:244    .text:0000000000000104 .LVL27
     /tmp/cccUuu6F.s:3227   .debug_str:0000000000000189 .LASF61
     /tmp/cccUuu6F.s:134    .text:0000000000000034 .LFB13
     /tmp/cccUuu6F.s:165    .text:0000000000000068 .LFE13
     /tmp/cccUuu6F.s:2981   .debug_loc:000000000000003e .LLST4
     /tmp/cccUuu6F.s:153    .text:0000000000000054 .LVL16
     /tmp/cccUuu6F.s:157    .text:000000000000005c .LVL17
     /tmp/cccUuu6F.s:161    .text:0000000000000064 .LVL18
     /tmp/cccUuu6F.s:3251   .debug_str:00000000000001fb .LASF62
     /tmp/cccUuu6F.s:15     .text:0000000000000000 .LFB12
     /tmp/cccUuu6F.s:47     .text:0000000000000034 .LFE12
     /tmp/cccUuu6F.s:2995   .debug_loc:0000000000000077 .LLST0
     /tmp/cccUuu6F.s:35     .text:0000000000000020 .LVL2
     /tmp/cccUuu6F.s:39     .text:0000000000000028 .LVL3
     /tmp/cccUuu6F.s:43     .text:0000000000000030 .LVL4
     /tmp/cccUuu6F.s:3199   .debug_str:00000000000000cb .LASF63
     /tmp/cccUuu6F.s:330    .text:0000000000000130 .LFB11
     /tmp/cccUuu6F.s:629    .text:00000000000003f0 .LFE11
     /tmp/cccUuu6F.s:3009   .debug_loc:00000000000000b0 .LLST6
     /tmp/cccUuu6F.s:3020   .debug_loc:00000000000000e6 .LLST7
     /tmp/cccUuu6F.s:3201   .debug_str:00000000000000d0 .LASF64
     /tmp/cccUuu6F.s:442    .text:0000000000000244 .LBB30
     /tmp/cccUuu6F.s:552    .text:0000000000000334 .LBE30
     /tmp/cccUuu6F.s:3027   .debug_loc:0000000000000109 .LLST9
     /tmp/cccUuu6F.s:3277   .debug_str:00000000000002a2 .LASF65
     /tmp/cccUuu6F.s:3038   .debug_loc:000000000000013f .LLST10
     /tmp/cccUuu6F.s:3215   .debug_str:0000000000000127 .LASF66
     /tmp/cccUuu6F.s:3049   .debug_loc:0000000000000175 .LLST11
     /tmp/cccUuu6F.s:512    .text:00000000000002d8 .LBB32
     /tmp/cccUuu6F.s:550    .text:0000000000000334 .LBE32
     /tmp/cccUuu6F.s:3060   .debug_loc:00000000000001ab .LLST12
     /tmp/cccUuu6F.s:3069   .debug_loc:00000000000001d0 .LLST13
     /tmp/cccUuu6F.s:3078   .debug_loc:00000000000001fc .LLST14
     /tmp/cccUuu6F.s:519    .text:00000000000002e8 .LVL61
GAS LISTING /tmp/cccUuu6F.s 			page 28


     /tmp/cccUuu6F.s:524    .text:00000000000002f8 .LVL62
     /tmp/cccUuu6F.s:529    .text:0000000000000308 .LVL63
     /tmp/cccUuu6F.s:534    .text:0000000000000314 .LVL64
     /tmp/cccUuu6F.s:539    .text:0000000000000324 .LVL65
     /tmp/cccUuu6F.s:543    .text:000000000000032c .LVL66
     /tmp/cccUuu6F.s:547    .text:0000000000000334 .LVL67
     /tmp/cccUuu6F.s:455    .text:000000000000025c .LVL46
     /tmp/cccUuu6F.s:463    .text:000000000000026c .LVL49
     /tmp/cccUuu6F.s:481    .text:000000000000028c .LVL54
     /tmp/cccUuu6F.s:486    .text:0000000000000298 .LVL55
     /tmp/cccUuu6F.s:491    .text:00000000000002a8 .LVL56
     /tmp/cccUuu6F.s:496    .text:00000000000002b4 .LVL57
     /tmp/cccUuu6F.s:501    .text:00000000000002c4 .LVL58
     /tmp/cccUuu6F.s:506    .text:00000000000002d0 .LVL59
     /tmp/cccUuu6F.s:510    .text:00000000000002d8 .LVL60
     /tmp/cccUuu6F.s:365    .text:000000000000016c .LBB28
     /tmp/cccUuu6F.s:379    .text:000000000000018c .LBE28
     /tmp/cccUuu6F.s:3086   .debug_loc:0000000000000220 .LLST8
     /tmp/cccUuu6F.s:359    .text:0000000000000164 .LVL28
     /tmp/cccUuu6F.s:363    .text:000000000000016c .LVL29
     /tmp/cccUuu6F.s:383    .text:0000000000000194 .LVL31
     /tmp/cccUuu6F.s:388    .text:00000000000001a4 .LVL32
     /tmp/cccUuu6F.s:392    .text:00000000000001ac .LVL33
     /tmp/cccUuu6F.s:397    .text:00000000000001b8 .LVL34
     /tmp/cccUuu6F.s:405    .text:00000000000001cc .LVL37
     /tmp/cccUuu6F.s:409    .text:00000000000001d4 .LVL38
     /tmp/cccUuu6F.s:414    .text:00000000000001e0 .LVL39
     /tmp/cccUuu6F.s:421    .text:00000000000001f4 .LVL41
     /tmp/cccUuu6F.s:428    .text:0000000000000210 .LVL42
     /tmp/cccUuu6F.s:435    .text:000000000000022c .LVL43
     /tmp/cccUuu6F.s:441    .text:0000000000000244 .LVL44
     /tmp/cccUuu6F.s:557    .text:0000000000000344 .LVL68
     /tmp/cccUuu6F.s:561    .text:000000000000034c .LVL69
     /tmp/cccUuu6F.s:566    .text:0000000000000358 .LVL70
     /tmp/cccUuu6F.s:573    .text:000000000000036c .LVL72
     /tmp/cccUuu6F.s:578    .text:0000000000000378 .LVL73
     /tmp/cccUuu6F.s:582    .text:0000000000000380 .LVL74
     /tmp/cccUuu6F.s:592    .text:0000000000000398 .LVL75
     /tmp/cccUuu6F.s:596    .text:00000000000003a0 .LVL76
     /tmp/cccUuu6F.s:604    .text:00000000000003bc .LVL77
     /tmp/cccUuu6F.s:609    .text:00000000000003cc .LVL78
     /tmp/cccUuu6F.s:613    .text:00000000000003d4 .LVL79
     /tmp/cccUuu6F.s:618    .text:00000000000003e4 .LVL80
     /tmp/cccUuu6F.s:622    .text:00000000000003ec .LVL81
     /tmp/cccUuu6F.s:3317   .debug_str:00000000000003e6 .LASF97
     /tmp/cccUuu6F.s:3337   .debug_str:0000000000000487 .LASF98
     /tmp/cccUuu6F.s:3265   .debug_str:000000000000024a .LASF67
     /tmp/cccUuu6F.s:3209   .debug_str:00000000000000fe .LASF68
     /tmp/cccUuu6F.s:3349   .debug_str:0000000000000593 .LASF69
     /tmp/cccUuu6F.s:64     .text._Z7_assertbPKci:0000000000000000 .LFB0
     /tmp/cccUuu6F.s:123    .text._Z7_assertbPKci:0000000000000080 .LFE0
     /tmp/cccUuu6F.s:3095   .debug_loc:000000000000024c .LLST1
     /tmp/cccUuu6F.s:3109   .debug_loc:0000000000000285 .LLST2
     /tmp/cccUuu6F.s:3120   .debug_loc:00000000000002bb .LLST3
     /tmp/cccUuu6F.s:93     .text._Z7_assertbPKci:0000000000000038 .LVL7
     /tmp/cccUuu6F.s:98     .text._Z7_assertbPKci:0000000000000044 .LVL8
     /tmp/cccUuu6F.s:103    .text._Z7_assertbPKci:0000000000000054 .LVL9
GAS LISTING /tmp/cccUuu6F.s 			page 29


     /tmp/cccUuu6F.s:108    .text._Z7_assertbPKci:0000000000000060 .LVL10
     /tmp/cccUuu6F.s:113    .text._Z7_assertbPKci:0000000000000070 .LVL11
     /tmp/cccUuu6F.s:117    .text._Z7_assertbPKci:0000000000000078 .LVL12
     /tmp/cccUuu6F.s:121    .text._Z7_assertbPKci:0000000000000080 .LVL13
     /tmp/cccUuu6F.s:3365   .debug_str:000000000000060d .LASF70
     /tmp/cccUuu6F.s:3179   .debug_str:0000000000000035 .LASF72
     /tmp/cccUuu6F.s:3239   .debug_str:00000000000001c2 .LASF71
     /tmp/cccUuu6F.s:3363   .debug_str:0000000000000606 .LASF73
     /tmp/cccUuu6F.s:3331   .debug_str:0000000000000456 .LASF74
     /tmp/cccUuu6F.s:3321   .debug_str:0000000000000404 .LASF75
     /tmp/cccUuu6F.s:3309   .debug_str:000000000000038b .LASF76
     /tmp/cccUuu6F.s:3253   .debug_str:0000000000000204 .LASF77
     /tmp/cccUuu6F.s:3225   .debug_str:0000000000000174 .LASF78
     /tmp/cccUuu6F.s:3207   .debug_str:00000000000000ee .LASF79
     /tmp/cccUuu6F.s:3181   .debug_str:000000000000003f .LASF80
     /tmp/cccUuu6F.s:3283   .debug_str:00000000000002bc .LASF81
     /tmp/cccUuu6F.s:3197   .debug_str:00000000000000c3 .LASF82
     /tmp/cccUuu6F.s:3355   .debug_str:00000000000005c3 .LASF83
     /tmp/cccUuu6F.s:3247   .debug_str:00000000000001e7 .LASF84
     /tmp/cccUuu6F.s:3183   .debug_str:000000000000004d .LASF85
     /tmp/cccUuu6F.s:3219   .debug_str:0000000000000148 .LASF86
     /tmp/cccUuu6F.s:3211   .debug_str:0000000000000103 .LASF87
     /tmp/cccUuu6F.s:3327   .debug_str:0000000000000432 .LASF88
     /tmp/cccUuu6F.s:192    .text:0000000000000090 .LVL20
     /tmp/cccUuu6F.s:137    .text:0000000000000034 .LVL14
     /tmp/cccUuu6F.s:146    .text:0000000000000044 .LVL15
     /tmp/cccUuu6F.s:19     .text:0000000000000000 .LVL0
     /tmp/cccUuu6F.s:28     .text:0000000000000010 .LVL1
     /tmp/cccUuu6F.s:399    .text:00000000000001bc .LVL35
     /tmp/cccUuu6F.s:403    .text:00000000000001c4 .LVL36
     /tmp/cccUuu6F.s:445    .text:0000000000000248 .LVL45
     /tmp/cccUuu6F.s:416    .text:00000000000001e4 .LVL40
     /tmp/cccUuu6F.s:471    .text:0000000000000278 .LVL51
     /tmp/cccUuu6F.s:473    .text:000000000000027c .LVL52
     /tmp/cccUuu6F.s:568    .text:000000000000035c .LVL71
     /tmp/cccUuu6F.s:457    .text:0000000000000260 .LVL47
     /tmp/cccUuu6F.s:461    .text:0000000000000264 .LVL48
     /tmp/cccUuu6F.s:465    .text:0000000000000270 .LVL50
     /tmp/cccUuu6F.s:479    .text:0000000000000284 .LVL53
     /tmp/cccUuu6F.s:377    .text:000000000000018c .LVL30
     /tmp/cccUuu6F.s:68     .text._Z7_assertbPKci:0000000000000000 .LVL5
     /tmp/cccUuu6F.s:91     .text._Z7_assertbPKci:0000000000000030 .LVL6
     /tmp/cccUuu6F.s:650    .debug_info:0000000000000000 .Ldebug_info0
     /tmp/cccUuu6F.s:5      .text:0000000000000000 .Ltext0
     /tmp/cccUuu6F.s:645    .text:00000000000003f0 .Letext0
     /tmp/cccUuu6F.s:200    .text:0000000000000098 .LBE18
     /tmp/cccUuu6F.s:210    .text:00000000000000a8 .LBB21
     /tmp/cccUuu6F.s:246    .text:0000000000000104 .LBE21
     /tmp/cccUuu6F.s:450    .text:0000000000000250 .LBB31
     /tmp/cccUuu6F.s:468    .text:0000000000000274 .LBE31
     /tmp/cccUuu6F.s:475    .text:000000000000027c .LBB34
     /tmp/cccUuu6F.s:551    .text:0000000000000334 .LBE34

UNDEFINED SYMBOLS
_Z9putStringPKc
_Z10putNewlinev
_Z15thread_dispatchv
GAS LISTING /tmp/cccUuu6F.s 			page 30


_Z6putInti
_Z10stopKernelv
HEAP_END_ADDR
HEAP_START_ADDR
trapRoutine
_Z25disableExternalInterruptsv
_ZN6Thread8pRunningE
_ZN6Thread15pRunningContextE
_Z9test_callm
_Z3fibm
_Z6putU64m
_Z9mem_allocm
_ZN6Thread12createThreadEPPS_PFvPvES2_S2_
