GAS LISTING /tmp/cckfRW2a.s 			page 1


   1              		.file	"main.cpp"
   2              		.option pic
   3              		.option norelax
   4              		.text
   5              	.Ltext0:
   6              		.align	2
   7              		.globl	_Z3doCPv
   9              	_Z3doCPv:
  10              	.LFB20:
  11              		.file 1 "src/main.cpp"
   1:src/main.cpp  **** #include "../h/alloc.h"
   2:src/main.cpp  **** #include "../h/c_api.h"
   3:src/main.cpp  **** #include "../h/thread.h"
   4:src/main.cpp  **** #include "../h/c_api.h"
   5:src/main.cpp  **** #include "../h/scheduler.h"
   6:src/main.cpp  **** #include "../h/0_console.h"
   7:src/main.cpp  **** 
   8:src/main.cpp  **** extern "C" void trapRoutine();
   9:src/main.cpp  **** 
  10:src/main.cpp  **** void myUserMain();
  11:src/main.cpp  **** //void userMain();
  12:src/main.cpp  **** void doInitialAsserts();
  13:src/main.cpp  **** void initInterruptVector();
  14:src/main.cpp  **** 
  15:src/main.cpp  **** uint64 fib(uint64 n);
  16:src/main.cpp  **** void testAsyncCall();
  17:src/main.cpp  **** 
  18:src/main.cpp  **** Thread kernelThread;
  19:src/main.cpp  **** 
  20:src/main.cpp  **** void userWrapper(void* p)
  21:src/main.cpp  **** {
  22:src/main.cpp  ****     assert(p == nullptr);
  23:src/main.cpp  ****     assert(&(Thread::getPRunning()->sp) == Thread::pRunningSp);
  24:src/main.cpp  **** 
  25:src/main.cpp  ****     enableExternalInterrupts();
  26:src/main.cpp  **** 
  27:src/main.cpp  **** //    myUserMain();
  28:src/main.cpp  **** 
  29:src/main.cpp  ****     for(int i=0; i<10; i++)
  30:src/main.cpp  ****     {
  31:src/main.cpp  ****         Console::get()->putc(i + '0');
  32:src/main.cpp  **** 
  33:src/main.cpp  ****         Console::get()->putc(' ');
  34:src/main.cpp  ****         Console::get()->putc('b');
  35:src/main.cpp  ****         Console::get()->putc('a');
  36:src/main.cpp  ****         Console::get()->putc('b');
  37:src/main.cpp  ****         Console::get()->putc('a');
  38:src/main.cpp  **** 
  39:src/main.cpp  ****         Console::get()->putc('\n');
  40:src/main.cpp  ****     }
  41:src/main.cpp  **** }
  42:src/main.cpp  **** 
  43:src/main.cpp  **** int main()
  44:src/main.cpp  **** {
  45:src/main.cpp  ****     disableExternalInterrupts();
  46:src/main.cpp  **** 
  47:src/main.cpp  ****     initInterruptVector();
GAS LISTING /tmp/cckfRW2a.s 			page 2


  48:src/main.cpp  ****     doInitialAsserts();
  49:src/main.cpp  **** 
  50:src/main.cpp  ****     uint64* sp;
  51:src/main.cpp  ****     __asm__ volatile ("mv %[name], sp" : [name] "=r"(sp));
  52:src/main.cpp  ****     kernelThread.sp = sp;
  53:src/main.cpp  ****     Thread::setPRunning(&kernelThread);
  54:src/main.cpp  ****     assert(&(Thread::getPRunning()->sp) == Thread::pRunningSp);
  55:src/main.cpp  ****     kernelThread.id = 0;
  56:src/main.cpp  ****     Thread::pAllThreads[0] = &kernelThread;
  57:src/main.cpp  **** 
  58:src/main.cpp  ****     thread_t t;
  59:src/main.cpp  ****     thread_create(&t, &userWrapper, nullptr);
  60:src/main.cpp  **** 
  61:src/main.cpp  ****     Thread::initialUserMemoryUsage = MemAlloc::get()->getUserlandUsage();
  62:src/main.cpp  **** 
  63:src/main.cpp  ****     __asm__ volatile ("li a0, 4"); // this is a system call that calls Thread::switchToUser()
  64:src/main.cpp  ****     __asm__ volatile ("ecall");
  65:src/main.cpp  **** 
  66:src/main.cpp  ****     __asm__ volatile ("csrw sscratch, x0"); //TEST permissions
  67:src/main.cpp  **** 
  68:src/main.cpp  ****     return 0;
  69:src/main.cpp  **** }
  70:src/main.cpp  **** 
  71:src/main.cpp  **** void doC(void* p)
  72:src/main.cpp  **** {
  12              		.loc 1 72 1
  13              		.cfi_startproc
  14              	.LVL0:
  15 0000 130101FE 		addi	sp,sp,-32
  16              		.cfi_def_cfa_offset 32
  17 0004 233C8100 		sd	s0,24(sp)
  18              		.cfi_offset 8, -8
  19 0008 13040102 		addi	s0,sp,32
  20              		.cfi_def_cfa 8, 0
  73:src/main.cpp  ****     volatile uint64 i=0;
  21              		.loc 1 73 5
  22              		.loc 1 73 21 is_stmt 0
  23 000c 233404FE 		sd	zero,-24(s0)
  74:src/main.cpp  ****     extern uint64 gTimer;
  24              		.loc 1 74 5 is_stmt 1
  75:src/main.cpp  ****     uint64 oldTimer = gTimer;
  25              		.loc 1 75 5
  26              		.loc 1 75 12 is_stmt 0
  27 0010 97070000 		la	a5,gTimer
  27      83B70700 
  28 0018 83B70700 		ld	a5,0(a5)
  29              	.LVL1:
  30 001c 6F000002 		j	.L3
  31              	.L5:
  76:src/main.cpp  ****     while(i>=0)
  77:src/main.cpp  ****     {
  78:src/main.cpp  ****         if(gTimer != oldTimer)
  79:src/main.cpp  ****         {
  80:src/main.cpp  ****             __asm__ volatile ("mv x1, x1");
  32              		.loc 1 80 13 is_stmt 1
  33              		.loc 1 80 43 is_stmt 0
  34              	#APP
GAS LISTING /tmp/cckfRW2a.s 			page 3


  35              	# 80 "src/main.cpp" 1
  81              	        }
  36              		mv x1, x1
  37              	# 0 "" 2
  38              	#NO_APP
  39              	.L2:
  82:src/main.cpp  ****         i++;
  40              		.loc 1 82 9 is_stmt 1
  41              		.loc 1 82 10 is_stmt 0
  42 0024 833784FE 		ld	a5,-24(s0)
  43              	.LVL2:
  44 0028 93871700 		addi	a5,a5,1
  45 002c 2334F4FE 		sd	a5,-24(s0)
  83:src/main.cpp  ****         oldTimer = gTimer;
  46              		.loc 1 83 9 is_stmt 1
  47              		.loc 1 83 18 is_stmt 0
  48 0030 97070000 		la	a5,gTimer
  48      83B70700 
  49              	.LVL3:
  50 0038 83B70700 		ld	a5,0(a5)
  51              	.LVL4:
  52              	.L3:
  76:src/main.cpp  ****     while(i>=0)
  53              		.loc 1 76 5 is_stmt 1
  76:src/main.cpp  ****     while(i>=0)
  54              		.loc 1 76 12
  76:src/main.cpp  ****     while(i>=0)
  55              		.loc 1 76 11 is_stmt 0
  56 003c 033784FE 		ld	a4,-24(s0)
  78:src/main.cpp  ****         {
  57              		.loc 1 78 9 is_stmt 1
  78:src/main.cpp  ****         {
  58              		.loc 1 78 19 is_stmt 0
  59 0040 17070000 		la	a4,gTimer
  59      03370700 
  60 0048 03370700 		ld	a4,0(a4)
  78:src/main.cpp  ****         {
  61              		.loc 1 78 9
  62 004c E31AF7FC 		bne	a4,a5,.L5
  63 0050 6FF05FFD 		j	.L2
  64              		.cfi_endproc
  65              	.LFE20:
  67              		.align	2
  69              	_Z41__static_initialization_and_destruction_0ii:
  70              	.LFB24:
  84:src/main.cpp  ****     }
  85:src/main.cpp  ****     __asm__ volatile ("mv x1, x1");
  86:src/main.cpp  **** }
  87:src/main.cpp  **** 
  88:src/main.cpp  **** void testAsyncCall()
  89:src/main.cpp  **** {
  90:src/main.cpp  ****     enableExternalInterrupts();
  91:src/main.cpp  **** 
  92:src/main.cpp  ****     assert(MemAlloc::get()->getUserlandUsage() == 0);
  93:src/main.cpp  **** 
  94:src/main.cpp  **** //    void doB(void*);
  95:src/main.cpp  **** 
GAS LISTING /tmp/cckfRW2a.s 			page 4


  96:src/main.cpp  ****     int argA = 69;
  97:src/main.cpp  **** //    int argB = 420;
  98:src/main.cpp  ****     thread_t a;
  99:src/main.cpp  **** //    thread_t b;
 100:src/main.cpp  ****     thread_create(&a, doC, &argA);
 101:src/main.cpp  **** //    thread_create(&b, doB, &argB);
 102:src/main.cpp  ****     thread_dispatch();
 103:src/main.cpp  **** 
 104:src/main.cpp  **** //    assert(Thread::pAllThreads[a]->id == Thread::pAllThreads[b]->id-1);
 105:src/main.cpp  ****     assert(MemAlloc::get()->getUserlandUsage() == 0);
 106:src/main.cpp  **** }
 107:src/main.cpp  **** 
 108:src/main.cpp  **** void doInitialAsserts()
 109:src/main.cpp  **** {
 110:src/main.cpp  ****     assert(sizeof(void*) == 8);
 111:src/main.cpp  ****     assert((((uint64)HEAP_END_ADDR - (uint64)HEAP_START_ADDR) / 1024 / 1024) == 127);
 112:src/main.cpp  ****     assert(DEFAULT_STACK_SIZE == 4096);
 113:src/main.cpp  ****     assert(DEFAULT_TIME_SLICE == 2);
 114:src/main.cpp  ****     assert(sizeof(char) == 1);
 115:src/main.cpp  ****     assert(sizeof(Thread) < 1000);
 116:src/main.cpp  ****     assert(sizeof(int) == 4);
 117:src/main.cpp  ****     assert(sizeof(uint64) == 8);
 118:src/main.cpp  **** }
 119:src/main.cpp  **** 
 120:src/main.cpp  **** void initInterruptVector()
 121:src/main.cpp  **** {
 122:src/main.cpp  **** 
 123:src/main.cpp  **** // should be before changing sstatus 0x2 bit
 124:src/main.cpp  ****     __asm__ volatile ("csrw stvec, %[vector]" : : [vector] "r"(&trapRoutine));
 125:src/main.cpp  **** 
 126:src/main.cpp  **** // set MODE to 1 - vector mode
 127:src/main.cpp  ****     __asm__ volatile ("csrs stvec, 0x1");
 128:src/main.cpp  ****     __asm__ volatile ("csrc stvec, 0x2");
 129:src/main.cpp  **** }
  71              		.loc 1 129 1 is_stmt 1
  72              		.cfi_startproc
  73              	.LVL5:
  74 0054 130101FF 		addi	sp,sp,-16
  75              		.cfi_def_cfa_offset 16
  76 0058 23348100 		sd	s0,8(sp)
  77              		.cfi_offset 8, -8
  78 005c 13040101 		addi	s0,sp,16
  79              		.cfi_def_cfa 8, 0
  80              		.loc 1 129 1 is_stmt 0
  81 0060 93071000 		li	a5,1
  82 0064 6308F500 		beq	a0,a5,.L9
  83              	.L6:
  84 0068 03348100 		ld	s0,8(sp)
  85              		.cfi_remember_state
  86              		.cfi_restore 8
  87              		.cfi_def_cfa 2, 16
  88 006c 13010101 		addi	sp,sp,16
  89              		.cfi_def_cfa_offset 0
  90 0070 67800000 		jr	ra
  91              	.L9:
  92              		.cfi_restore_state
  93              		.loc 1 129 1 discriminator 1
GAS LISTING /tmp/cckfRW2a.s 			page 5


  94 0074 B7070100 		li	a5,65536
  95 0078 9387F7FF 		addi	a5,a5,-1
  96 007c E396F5FE 		bne	a1,a5,.L6
  97              	.LVL6:
  98              	.LBB58:
  99              	.LBB59:
 100              	.LBB60:
 101              		.file 2 "src/../h/thread.h"
   1:src/../h/thread.h **** #pragma once
   2:src/../h/thread.h **** #include "../lib/hw.h"
   3:src/../h/thread.h **** #include "../h/my_console.h"
   4:src/../h/thread.h **** #include "../h/c_api.h"
   5:src/../h/thread.h **** #include "../h/cpp_api.h"
   6:src/../h/thread.h **** 
   7:src/../h/thread.h **** #define NR_MAX_THREADS 10
   8:src/../h/thread.h **** #define NR_REGISTERS 32
   9:src/../h/thread.h **** 
  10:src/../h/thread.h **** // needs to be (DEFAULT_STACK_SIZE+8*34) (probably)
  11:src/../h/thread.h **** #define ACTUAL_STACK_SIZE (DEFAULT_STACK_SIZE+8*34)*10
  12:src/../h/thread.h **** #define MAX_NR_TOTAL_THREADS 100
  13:src/../h/thread.h **** 
  14:src/../h/thread.h **** class Thread;
  15:src/../h/thread.h **** 
  16:src/../h/thread.h **** class Thread
  17:src/../h/thread.h **** {
  18:src/../h/thread.h **** public:
  19:src/../h/thread.h ****     enum State { RUNNING = 0, SUSPENDED, READY, INITIALIZING, TERMINATING, NONEXISTENT };
  20:src/../h/thread.h **** 
  21:src/../h/thread.h ****     typedef void(*Body)(void*);
  22:src/../h/thread.h **** 
  23:src/../h/thread.h ****     static bool switchedToUserThread;
  24:src/../h/thread.h **** //    static uint64** pRunningSp;
  25:src/../h/thread.h **** //    static uint64* runningSp;
  26:src/../h/thread.h ****     static uint64** pRunningSp;
  27:src/../h/thread.h ****     static uint64 timeSliceCounter;
  28:src/../h/thread.h ****     static Thread* pAllThreads[MAX_NR_TOTAL_THREADS];
  29:src/../h/thread.h ****     static uint64 nrTotalThreads;
  30:src/../h/thread.h ****     static uint64 initialUserMemoryUsage;
  31:src/../h/thread.h **** 
  32:src/../h/thread.h ****     static  Thread*  getPRunning();
  33:src/../h/thread.h ****     static void setPRunning(Thread* p);
  34:src/../h/thread.h ****     static int createThread(uint64* id, Body body, void* arg);
  35:src/../h/thread.h ****     static int exit(); // exit the currently running thread
  36:src/../h/thread.h ****     static void switchToUser();
  37:src/../h/thread.h ****     static void join(uint64 id);
  38:src/../h/thread.h **** 
  39:src/../h/thread.h ****     State state;
  40:src/../h/thread.h ****     Body body;
  41:src/../h/thread.h ****     uint64 sepc;
  42:src/../h/thread.h ****     void* pStackStart; // start in terms of the data structure. This adress is the highest one in t
  43:src/../h/thread.h ****     uint64 timeSlice; // private
  44:src/../h/thread.h ****     uint64 id;
  45:src/../h/thread.h ****     Thread* pNext;
  46:src/../h/thread.h ****     Thread* pWaitingHead;
  47:src/../h/thread.h ****     bool done;
  48:src/../h/thread.h **** //    uint64** pSp;
  49:src/../h/thread.h **** 
GAS LISTING /tmp/cckfRW2a.s 			page 6


  50:src/../h/thread.h ****     uint64* sp;
  51:src/../h/thread.h **** 
  52:src/../h/thread.h ****     Thread(Body body, void* arg);
  53:src/../h/thread.h ****     Thread() : pStackStart(nullptr), pNext(nullptr) {} // move to private?. Mind the kernel thread
 102              		.loc 2 53 51
 103 0080 97070000 		lla	a5,.LANCHOR0
 103      93870700 
 104 0088 23BC0700 		sd	zero,24(a5)
 105 008c 23B80702 		sd	zero,48(a5)
 106              	.LVL7:
 107              	.LBE60:
 108              	.LBE59:
 109              	.LBE58:
 110              		.loc 1 129 1
 111 0090 6FF09FFD 		j	.L6
 112              		.cfi_endproc
 113              	.LFE24:
 115              		.section	.rodata.str1.8,"aMS",@progbits,1
 116              		.align	3
 117              	.LC0:
 118 0000 3D3D3D3D 		.string	"===================== ASSERT file: "
 118      3D3D3D3D 
 118      3D3D3D3D 
 118      3D3D3D3D 
 118      3D3D3D3D 
 119 0024 00000000 		.align	3
 120              	.LC1:
 121 0028 7372632F 		.string	"src/main.cpp"
 121      6D61696E 
 121      2E637070 
 121      00
 122 0035 000000   		.align	3
 123              	.LC2:
 124 0038 20202020 		.string	"    line: "
 124      6C696E65 
 124      3A2000
 125 0043 00000000 		.align	3
 125      00
 126              	.LC3:
 127 0048 2020203D 		.string	"   ==========================="
 127      3D3D3D3D 
 127      3D3D3D3D 
 127      3D3D3D3D 
 127      3D3D3D3D 
 128              		.text
 129              		.align	2
 130              		.globl	_Z11userWrapperPv
 132              	_Z11userWrapperPv:
 133              	.LFB18:
  21:src/main.cpp  ****     assert(p == nullptr);
 134              		.loc 1 21 1 is_stmt 1
 135              		.cfi_startproc
 136              	.LVL8:
 137 0094 130101FE 		addi	sp,sp,-32
 138              		.cfi_def_cfa_offset 32
 139 0098 233C1100 		sd	ra,24(sp)
 140 009c 23388100 		sd	s0,16(sp)
GAS LISTING /tmp/cckfRW2a.s 			page 7


 141 00a0 23349100 		sd	s1,8(sp)
 142              		.cfi_offset 1, -8
 143              		.cfi_offset 8, -16
 144              		.cfi_offset 9, -24
 145 00a4 13040102 		addi	s0,sp,32
 146              		.cfi_def_cfa 8, 0
  22:src/main.cpp  ****     assert(&(Thread::getPRunning()->sp) == Thread::pRunningSp);
 147              		.loc 1 22 5
 148              	.LVL9:
 149              	.LBB101:
 150              	.LBB102:
 151              		.file 3 "src/../h/../h/my_console.h"
   1:src/../h/../h/my_console.h **** #pragma once
   2:src/../h/../h/my_console.h **** 
   3:src/../h/../h/my_console.h **** #include "../h/risc.h"
   4:src/../h/../h/my_console.h **** 
   5:src/../h/../h/my_console.h **** #include "../lib/hw.h"
   6:src/../h/../h/my_console.h **** 
   7:src/../h/../h/my_console.h **** #define __DEBUG_MODE
   8:src/../h/../h/my_console.h **** 
   9:src/../h/../h/my_console.h **** 
  10:src/../h/../h/my_console.h **** void putString(const char* s);
  11:src/../h/../h/my_console.h **** void putInt(int n);
  12:src/../h/../h/my_console.h **** void putNewline();
  13:src/../h/../h/my_console.h **** void putU64(uint64 n);
  14:src/../h/../h/my_console.h **** void putBinary(uint64 n);
  15:src/../h/../h/my_console.h **** 
  16:src/../h/../h/my_console.h **** [[noreturn]] void stopKernel();
  17:src/../h/../h/my_console.h **** 
  18:src/../h/../h/my_console.h **** inline void _assert(bool valid, const char* file, int line) // MUST be inline
  19:src/../h/../h/my_console.h **** {
  20:src/../h/../h/my_console.h ****     if(valid)
 152              		.loc 3 20 5
 153 00a8 63180502 		bnez	a0,.L23
  21:src/../h/../h/my_console.h ****         return;
 154              		.loc 3 21 9
 155              	.LVL10:
 156              	.LBE102:
 157              	.LBE101:
  23:src/main.cpp  **** 
 158              		.loc 1 23 5
 159 00ac 97000000 		call	_ZN6Thread11getPRunningEv@plt
 159      E7800000 
 160              	.LVL11:
 161 00b4 13058504 		addi	a0,a0,72
 162 00b8 97070000 		la	a5,_ZN6Thread10pRunningSpE
 162      83B70700 
 163 00c0 83B70700 		ld	a5,0(a5)
 164              	.LVL12:
 165              	.LBB104:
 166              	.LBB105:
  20:src/../h/../h/my_console.h ****         return;
 167              		.loc 3 20 5
 168 00c4 6398A706 		bne	a5,a0,.L24
 169              		.loc 3 21 9
 170              	.LVL13:
 171              	.LBE105:
GAS LISTING /tmp/cckfRW2a.s 			page 8


 172              	.LBE104:
  25:src/main.cpp  **** 
 173              		.loc 1 25 5
  25:src/main.cpp  **** 
 174              		.loc 1 25 29 is_stmt 0
 175 00c8 97000000 		call	_Z24enableExternalInterruptsv@plt
 175      E7800000 
 176              	.LVL14:
  29:src/main.cpp  ****     {
 177              		.loc 1 29 5 is_stmt 1
 178              	.LBB107:
  29:src/main.cpp  ****     {
 179              		.loc 1 29 13 is_stmt 0
 180 00d0 93040000 		li	s1,0
 181 00d4 6F00400D 		j	.L21
 182              	.LVL15:
 183              	.L23:
 184              	.LBE107:
 185              	.LBB145:
 186              	.LBB103:
  22:src/../h/../h/my_console.h **** 
  23:src/../h/../h/my_console.h ****     putString("===================== ASSERT file: ");
 187              		.loc 3 23 5 is_stmt 1
 188              		.loc 3 23 14 is_stmt 0
 189 00d8 17050000 		lla	a0,.LC0
 189      13050500 
 190              	.LVL16:
 191 00e0 97000000 		call	_Z9putStringPKc@plt
 191      E7800000 
 192              	.LVL17:
  24:src/../h/../h/my_console.h ****     putString(file);
 193              		.loc 3 24 5 is_stmt 1
 194              		.loc 3 24 14 is_stmt 0
 195 00e8 17050000 		lla	a0,.LC1
 195      13050500 
 196 00f0 97000000 		call	_Z9putStringPKc@plt
 196      E7800000 
 197              	.LVL18:
  25:src/../h/../h/my_console.h ****     putString("    line: ");
 198              		.loc 3 25 5 is_stmt 1
 199              		.loc 3 25 14 is_stmt 0
 200 00f8 17050000 		lla	a0,.LC2
 200      13050500 
 201 0100 97000000 		call	_Z9putStringPKc@plt
 201      E7800000 
 202              	.LVL19:
  26:src/../h/../h/my_console.h ****     putInt(line);
 203              		.loc 3 26 5 is_stmt 1
 204              		.loc 3 26 11 is_stmt 0
 205 0108 13056001 		li	a0,22
 206 010c 97000000 		call	_Z6putInti@plt
 206      E7800000 
 207              	.LVL20:
  27:src/../h/../h/my_console.h ****     putString("   ===========================");
 208              		.loc 3 27 5 is_stmt 1
 209              		.loc 3 27 14 is_stmt 0
 210 0114 17050000 		lla	a0,.LC3
GAS LISTING /tmp/cckfRW2a.s 			page 9


 210      13050500 
 211 011c 97000000 		call	_Z9putStringPKc@plt
 211      E7800000 
 212              	.LVL21:
  28:src/../h/../h/my_console.h ****     putNewline();
 213              		.loc 3 28 5 is_stmt 1
 214              		.loc 3 28 15 is_stmt 0
 215 0124 97000000 		call	_Z10putNewlinev@plt
 215      E7800000 
 216              	.LVL22:
  29:src/../h/../h/my_console.h **** 
  30:src/../h/../h/my_console.h ****     stopKernel();
 217              		.loc 3 30 5 is_stmt 1
 218              		.loc 3 30 15 is_stmt 0
 219 012c 97000000 		call	_Z10stopKernelv@plt
 219      E7800000 
 220              	.LVL23:
 221              	.L24:
 222              	.LBE103:
 223              	.LBE145:
 224              	.LBB146:
 225              	.LBB106:
  23:src/../h/../h/my_console.h ****     putString(file);
 226              		.loc 3 23 5 is_stmt 1
  23:src/../h/../h/my_console.h ****     putString(file);
 227              		.loc 3 23 14 is_stmt 0
 228 0134 17050000 		lla	a0,.LC0
 228      13050500 
 229              	.LVL24:
 230 013c 97000000 		call	_Z9putStringPKc@plt
 230      E7800000 
 231              	.LVL25:
  24:src/../h/../h/my_console.h ****     putString("    line: ");
 232              		.loc 3 24 5 is_stmt 1
  24:src/../h/../h/my_console.h ****     putString("    line: ");
 233              		.loc 3 24 14 is_stmt 0
 234 0144 17050000 		lla	a0,.LC1
 234      13050500 
 235 014c 97000000 		call	_Z9putStringPKc@plt
 235      E7800000 
 236              	.LVL26:
  25:src/../h/../h/my_console.h ****     putInt(line);
 237              		.loc 3 25 5 is_stmt 1
  25:src/../h/../h/my_console.h ****     putInt(line);
 238              		.loc 3 25 14 is_stmt 0
 239 0154 17050000 		lla	a0,.LC2
 239      13050500 
 240 015c 97000000 		call	_Z9putStringPKc@plt
 240      E7800000 
 241              	.LVL27:
  26:src/../h/../h/my_console.h ****     putString("   ===========================");
 242              		.loc 3 26 5 is_stmt 1
  26:src/../h/../h/my_console.h ****     putString("   ===========================");
 243              		.loc 3 26 11 is_stmt 0
 244 0164 13057001 		li	a0,23
 245 0168 97000000 		call	_Z6putInti@plt
 245      E7800000 
GAS LISTING /tmp/cckfRW2a.s 			page 10


 246              	.LVL28:
  27:src/../h/../h/my_console.h ****     putNewline();
 247              		.loc 3 27 5 is_stmt 1
  27:src/../h/../h/my_console.h ****     putNewline();
 248              		.loc 3 27 14 is_stmt 0
 249 0170 17050000 		lla	a0,.LC3
 249      13050500 
 250 0178 97000000 		call	_Z9putStringPKc@plt
 250      E7800000 
 251              	.LVL29:
  28:src/../h/../h/my_console.h **** 
 252              		.loc 3 28 5 is_stmt 1
  28:src/../h/../h/my_console.h **** 
 253              		.loc 3 28 15 is_stmt 0
 254 0180 97000000 		call	_Z10putNewlinev@plt
 254      E7800000 
 255              	.LVL30:
 256              		.loc 3 30 5 is_stmt 1
 257              		.loc 3 30 15 is_stmt 0
 258 0188 97000000 		call	_Z10stopKernelv@plt
 258      E7800000 
 259              	.LVL31:
 260              	.L20:
 261              	.LBE106:
 262              	.LBE146:
 263              	.LBB147:
 264              	.LBB108:
 265              	.LBB109:
 266              		.file 4 "src/../h/0_console.h"
   1:src/../h/0_console.h **** #pragma once
   2:src/../h/0_console.h **** 
   3:src/../h/0_console.h **** #include "../lib/hw.h"
   4:src/../h/0_console.h **** 
   5:src/../h/0_console.h **** #define PUT_BUFFER_SIZE 1000
   6:src/../h/0_console.h **** 
   7:src/../h/0_console.h **** class Console // singleton class
   8:src/../h/0_console.h **** {
   9:src/../h/0_console.h **** public:
  10:src/../h/0_console.h ****     static Console* get()
  11:src/../h/0_console.h ****     {
  12:src/../h/0_console.h ****         static Console instance;
  13:src/../h/0_console.h ****         return &instance;
 267              		.loc 4 13 9 is_stmt 1
 268              	.LBE109:
 269              	.LBE108:
  39:src/main.cpp  ****     }
 270              		.loc 1 39 29 is_stmt 0
 271 0190 9305A000 		li	a1,10
 272 0194 17050000 		lla	a0,_ZZN7Console3getEvE8instance
 272      13050500 
 273 019c 97000000 		call	_ZN7Console4putcEc@plt
 273      E7800000 
 274              	.LVL32:
  29:src/main.cpp  ****     {
 275              		.loc 1 29 5 is_stmt 1
 276 01a4 9B841400 		addiw	s1,s1,1
 277              	.LVL33:
GAS LISTING /tmp/cckfRW2a.s 			page 11


 278              	.L21:
  29:src/main.cpp  ****     {
 279              		.loc 1 29 19 discriminator 3
 280 01a8 93079000 		li	a5,9
 281 01ac 63CC971A 		bgt	s1,a5,.L10
  31:src/main.cpp  **** 
 282              		.loc 1 31 9
 283              	.LBB114:
 284              	.LBB115:
  12:src/../h/0_console.h ****         return &instance;
 285              		.loc 4 12 9
  12:src/../h/0_console.h ****         return &instance;
 286              		.loc 4 12 24 is_stmt 0
 287 01b0 97070000 		lbu	a5,_ZGVZN7Console3getEvE8instance
 287      83C70700 
 288 01b8 63920702 		bnez	a5,.L14
 289              	.LVL34:
 290              	.LBB116:
 291              	.LBB117:
 292              	.LBB118:
  14:src/../h/0_console.h ****     }
  15:src/../h/0_console.h **** 
  16:src/../h/0_console.h ****     uint64 putBufferHead, putBufferTail;
  17:src/../h/0_console.h ****     char putBuffer[PUT_BUFFER_SIZE];
  18:src/../h/0_console.h ****     uint64 putBufferItems;
  19:src/../h/0_console.h **** 
  20:src/../h/0_console.h ****     void putc(char c);
  21:src/../h/0_console.h ****     char getc();
  22:src/../h/0_console.h ****     void consoleHandler();
  23:src/../h/0_console.h **** 
  24:src/../h/0_console.h **** private:
  25:src/../h/0_console.h ****     Console()
  26:src/../h/0_console.h ****         : putBufferHead(0), putBufferTail(0), putBufferItems(0)
 293              		.loc 4 26 63
 294 01bc 97070000 		lla	a5,_ZZN7Console3getEvE8instance
 294      93870700 
 295 01c4 23B00700 		sd	zero,0(a5)
 296 01c8 23B40700 		sd	zero,8(a5)
 297 01cc 23BC073E 		sd	zero,1016(a5)
 298              	.LVL35:
 299              	.LBE118:
 300              	.LBE117:
 301              	.LBE116:
  12:src/../h/0_console.h ****         return &instance;
 302              		.loc 4 12 24
 303 01d0 93071000 		li	a5,1
 304 01d4 17070000 		sb	a5,_ZGVZN7Console3getEvE8instance,a4
 304      2300F700 
 305              	.L14:
  13:src/../h/0_console.h ****     }
 306              		.loc 4 13 9 is_stmt 1
 307              	.LBE115:
 308              	.LBE114:
  31:src/main.cpp  **** 
 309              		.loc 1 31 29 is_stmt 0
 310 01dc 9B850403 		addiw	a1,s1,48
 311 01e0 93F5F50F 		andi	a1,a1,0xff
GAS LISTING /tmp/cckfRW2a.s 			page 12


 312 01e4 17050000 		lla	a0,_ZZN7Console3getEvE8instance
 312      13050500 
 313 01ec 97000000 		call	_ZN7Console4putcEc@plt
 313      E7800000 
 314              	.LVL36:
  33:src/main.cpp  ****         Console::get()->putc('b');
 315              		.loc 1 33 9 is_stmt 1
 316              	.LBB119:
 317              	.LBB120:
  12:src/../h/0_console.h ****         return &instance;
 318              		.loc 4 12 9
  12:src/../h/0_console.h ****         return &instance;
 319              		.loc 4 12 24 is_stmt 0
 320 01f4 97070000 		lbu	a5,_ZGVZN7Console3getEvE8instance
 320      83C70700 
 321 01fc 63920702 		bnez	a5,.L15
 322              	.LVL37:
 323              	.LBB121:
 324              	.LBB122:
 325              	.LBB123:
 326              		.loc 4 26 63
 327 0200 97070000 		lla	a5,_ZZN7Console3getEvE8instance
 327      93870700 
 328 0208 23B00700 		sd	zero,0(a5)
 329 020c 23B40700 		sd	zero,8(a5)
 330 0210 23BC073E 		sd	zero,1016(a5)
 331              	.LVL38:
 332              	.LBE123:
 333              	.LBE122:
 334              	.LBE121:
  12:src/../h/0_console.h ****         return &instance;
 335              		.loc 4 12 24
 336 0214 93071000 		li	a5,1
 337 0218 17070000 		sb	a5,_ZGVZN7Console3getEvE8instance,a4
 337      2300F700 
 338              	.L15:
  13:src/../h/0_console.h ****     }
 339              		.loc 4 13 9 is_stmt 1
 340              	.LBE120:
 341              	.LBE119:
  33:src/main.cpp  ****         Console::get()->putc('b');
 342              		.loc 1 33 29 is_stmt 0
 343 0220 93050002 		li	a1,32
 344 0224 17050000 		lla	a0,_ZZN7Console3getEvE8instance
 344      13050500 
 345 022c 97000000 		call	_ZN7Console4putcEc@plt
 345      E7800000 
 346              	.LVL39:
  34:src/main.cpp  ****         Console::get()->putc('a');
 347              		.loc 1 34 9 is_stmt 1
 348              	.LBB124:
 349              	.LBB125:
  12:src/../h/0_console.h ****         return &instance;
 350              		.loc 4 12 9
  12:src/../h/0_console.h ****         return &instance;
 351              		.loc 4 12 24 is_stmt 0
 352 0234 97070000 		lbu	a5,_ZGVZN7Console3getEvE8instance
GAS LISTING /tmp/cckfRW2a.s 			page 13


 352      83C70700 
 353 023c 63920702 		bnez	a5,.L16
 354              	.LVL40:
 355              	.LBB126:
 356              	.LBB127:
 357              	.LBB128:
 358              		.loc 4 26 63
 359 0240 97070000 		lla	a5,_ZZN7Console3getEvE8instance
 359      93870700 
 360 0248 23B00700 		sd	zero,0(a5)
 361 024c 23B40700 		sd	zero,8(a5)
 362 0250 23BC073E 		sd	zero,1016(a5)
 363              	.LVL41:
 364              	.LBE128:
 365              	.LBE127:
 366              	.LBE126:
  12:src/../h/0_console.h ****         return &instance;
 367              		.loc 4 12 24
 368 0254 93071000 		li	a5,1
 369 0258 17070000 		sb	a5,_ZGVZN7Console3getEvE8instance,a4
 369      2300F700 
 370              	.L16:
  13:src/../h/0_console.h ****     }
 371              		.loc 4 13 9 is_stmt 1
 372              	.LBE125:
 373              	.LBE124:
  34:src/main.cpp  ****         Console::get()->putc('a');
 374              		.loc 1 34 29 is_stmt 0
 375 0260 93052006 		li	a1,98
 376 0264 17050000 		lla	a0,_ZZN7Console3getEvE8instance
 376      13050500 
 377 026c 97000000 		call	_ZN7Console4putcEc@plt
 377      E7800000 
 378              	.LVL42:
  35:src/main.cpp  ****         Console::get()->putc('b');
 379              		.loc 1 35 9 is_stmt 1
 380              	.LBB129:
 381              	.LBB130:
  12:src/../h/0_console.h ****         return &instance;
 382              		.loc 4 12 9
  12:src/../h/0_console.h ****         return &instance;
 383              		.loc 4 12 24 is_stmt 0
 384 0274 97070000 		lbu	a5,_ZGVZN7Console3getEvE8instance
 384      83C70700 
 385 027c 63920702 		bnez	a5,.L17
 386              	.LVL43:
 387              	.LBB131:
 388              	.LBB132:
 389              	.LBB133:
 390              		.loc 4 26 63
 391 0280 97070000 		lla	a5,_ZZN7Console3getEvE8instance
 391      93870700 
 392 0288 23B00700 		sd	zero,0(a5)
 393 028c 23B40700 		sd	zero,8(a5)
 394 0290 23BC073E 		sd	zero,1016(a5)
 395              	.LVL44:
 396              	.LBE133:
GAS LISTING /tmp/cckfRW2a.s 			page 14


 397              	.LBE132:
 398              	.LBE131:
  12:src/../h/0_console.h ****         return &instance;
 399              		.loc 4 12 24
 400 0294 93071000 		li	a5,1
 401 0298 17070000 		sb	a5,_ZGVZN7Console3getEvE8instance,a4
 401      2300F700 
 402              	.L17:
  13:src/../h/0_console.h ****     }
 403              		.loc 4 13 9 is_stmt 1
 404              	.LBE130:
 405              	.LBE129:
  35:src/main.cpp  ****         Console::get()->putc('b');
 406              		.loc 1 35 29 is_stmt 0
 407 02a0 93051006 		li	a1,97
 408 02a4 17050000 		lla	a0,_ZZN7Console3getEvE8instance
 408      13050500 
 409 02ac 97000000 		call	_ZN7Console4putcEc@plt
 409      E7800000 
 410              	.LVL45:
  36:src/main.cpp  ****         Console::get()->putc('a');
 411              		.loc 1 36 9 is_stmt 1
 412              	.LBB134:
 413              	.LBB135:
  12:src/../h/0_console.h ****         return &instance;
 414              		.loc 4 12 9
  12:src/../h/0_console.h ****         return &instance;
 415              		.loc 4 12 24 is_stmt 0
 416 02b4 97070000 		lbu	a5,_ZGVZN7Console3getEvE8instance
 416      83C70700 
 417 02bc 63920702 		bnez	a5,.L18
 418              	.LVL46:
 419              	.LBB136:
 420              	.LBB137:
 421              	.LBB138:
 422              		.loc 4 26 63
 423 02c0 97070000 		lla	a5,_ZZN7Console3getEvE8instance
 423      93870700 
 424 02c8 23B00700 		sd	zero,0(a5)
 425 02cc 23B40700 		sd	zero,8(a5)
 426 02d0 23BC073E 		sd	zero,1016(a5)
 427              	.LVL47:
 428              	.LBE138:
 429              	.LBE137:
 430              	.LBE136:
  12:src/../h/0_console.h ****         return &instance;
 431              		.loc 4 12 24
 432 02d4 93071000 		li	a5,1
 433 02d8 17070000 		sb	a5,_ZGVZN7Console3getEvE8instance,a4
 433      2300F700 
 434              	.L18:
  13:src/../h/0_console.h ****     }
 435              		.loc 4 13 9 is_stmt 1
 436              	.LBE135:
 437              	.LBE134:
  36:src/main.cpp  ****         Console::get()->putc('a');
 438              		.loc 1 36 29 is_stmt 0
GAS LISTING /tmp/cckfRW2a.s 			page 15


 439 02e0 93052006 		li	a1,98
 440 02e4 17050000 		lla	a0,_ZZN7Console3getEvE8instance
 440      13050500 
 441 02ec 97000000 		call	_ZN7Console4putcEc@plt
 441      E7800000 
 442              	.LVL48:
  37:src/main.cpp  **** 
 443              		.loc 1 37 9 is_stmt 1
 444              	.LBB139:
 445              	.LBB140:
  12:src/../h/0_console.h ****         return &instance;
 446              		.loc 4 12 9
  12:src/../h/0_console.h ****         return &instance;
 447              		.loc 4 12 24 is_stmt 0
 448 02f4 97070000 		lbu	a5,_ZGVZN7Console3getEvE8instance
 448      83C70700 
 449 02fc 63920702 		bnez	a5,.L19
 450              	.LVL49:
 451              	.LBB141:
 452              	.LBB142:
 453              	.LBB143:
 454              		.loc 4 26 63
 455 0300 97070000 		lla	a5,_ZZN7Console3getEvE8instance
 455      93870700 
 456 0308 23B00700 		sd	zero,0(a5)
 457 030c 23B40700 		sd	zero,8(a5)
 458 0310 23BC073E 		sd	zero,1016(a5)
 459              	.LVL50:
 460              	.LBE143:
 461              	.LBE142:
 462              	.LBE141:
  12:src/../h/0_console.h ****         return &instance;
 463              		.loc 4 12 24
 464 0314 93071000 		li	a5,1
 465 0318 17070000 		sb	a5,_ZGVZN7Console3getEvE8instance,a4
 465      2300F700 
 466              	.L19:
  13:src/../h/0_console.h ****     }
 467              		.loc 4 13 9 is_stmt 1
 468              	.LBE140:
 469              	.LBE139:
  37:src/main.cpp  **** 
 470              		.loc 1 37 29 is_stmt 0
 471 0320 93051006 		li	a1,97
 472 0324 17050000 		lla	a0,_ZZN7Console3getEvE8instance
 472      13050500 
 473 032c 97000000 		call	_ZN7Console4putcEc@plt
 473      E7800000 
 474              	.LVL51:
  39:src/main.cpp  ****     }
 475              		.loc 1 39 9 is_stmt 1
 476              	.LBB144:
 477              	.LBB113:
  12:src/../h/0_console.h ****         return &instance;
 478              		.loc 4 12 9
  12:src/../h/0_console.h ****         return &instance;
 479              		.loc 4 12 24 is_stmt 0
GAS LISTING /tmp/cckfRW2a.s 			page 16


 480 0334 97070000 		lbu	a5,_ZGVZN7Console3getEvE8instance
 480      83C70700 
 481 033c E39A07E4 		bnez	a5,.L20
 482              	.LVL52:
 483              	.LBB110:
 484              	.LBB111:
 485              	.LBB112:
 486              		.loc 4 26 63
 487 0340 97070000 		lla	a5,_ZZN7Console3getEvE8instance
 487      93870700 
 488 0348 23B00700 		sd	zero,0(a5)
 489 034c 23B40700 		sd	zero,8(a5)
 490 0350 23BC073E 		sd	zero,1016(a5)
 491              	.LVL53:
 492              	.LBE112:
 493              	.LBE111:
 494              	.LBE110:
  12:src/../h/0_console.h ****         return &instance;
 495              		.loc 4 12 24
 496 0354 93071000 		li	a5,1
 497 0358 17070000 		sb	a5,_ZGVZN7Console3getEvE8instance,a4
 497      2300F700 
 498 0360 6FF01FE3 		j	.L20
 499              	.L10:
 500              	.LBE113:
 501              	.LBE144:
 502              	.LBE147:
  41:src/main.cpp  **** 
 503              		.loc 1 41 1
 504 0364 83308101 		ld	ra,24(sp)
 505              		.cfi_restore 1
 506 0368 03340101 		ld	s0,16(sp)
 507              		.cfi_restore 8
 508              		.cfi_def_cfa 2, 32
 509 036c 83348100 		ld	s1,8(sp)
 510              		.cfi_restore 9
 511              	.LVL54:
 512 0370 13010102 		addi	sp,sp,32
 513              		.cfi_def_cfa_offset 0
 514 0374 67800000 		jr	ra
 515              		.cfi_endproc
 516              	.LFE18:
 518              		.section	.text._Z7_assertbPKci,"axG",@progbits,_Z7_assertbPKci,comdat
 519              		.align	2
 520              		.weak	_Z7_assertbPKci
 522              	_Z7_assertbPKci:
 523              	.LFB0:
  19:src/../h/../h/my_console.h ****     if(valid)
 524              		.loc 3 19 1 is_stmt 1
 525              		.cfi_startproc
 526              	.LVL55:
  20:src/../h/../h/my_console.h ****         return;
 527              		.loc 3 20 5
 528 0000 63040500 		beqz	a0,.L31
 529 0004 67800000 		ret
 530              	.L31:
  19:src/../h/../h/my_console.h ****     if(valid)
GAS LISTING /tmp/cckfRW2a.s 			page 17


 531              		.loc 3 19 1 is_stmt 0
 532 0008 130101FE 		addi	sp,sp,-32
 533              		.cfi_def_cfa_offset 32
 534 000c 233C1100 		sd	ra,24(sp)
 535 0010 23388100 		sd	s0,16(sp)
 536 0014 23349100 		sd	s1,8(sp)
 537 0018 23302101 		sd	s2,0(sp)
 538              		.cfi_offset 1, -8
 539              		.cfi_offset 8, -16
 540              		.cfi_offset 9, -24
 541              		.cfi_offset 18, -32
 542 001c 13040102 		addi	s0,sp,32
 543              		.cfi_def_cfa 8, 0
 544 0020 13890500 		mv	s2,a1
 545 0024 93040600 		mv	s1,a2
  23:src/../h/../h/my_console.h ****     putString(file);
 546              		.loc 3 23 5 is_stmt 1
  23:src/../h/../h/my_console.h ****     putString(file);
 547              		.loc 3 23 14 is_stmt 0
 548 0028 17050000 		lla	a0,.LC0
 548      13050500 
 549              	.LVL56:
 550 0030 97000000 		call	_Z9putStringPKc@plt
 550      E7800000 
 551              	.LVL57:
  24:src/../h/../h/my_console.h ****     putString("    line: ");
 552              		.loc 3 24 5 is_stmt 1
  24:src/../h/../h/my_console.h ****     putString("    line: ");
 553              		.loc 3 24 14 is_stmt 0
 554 0038 13050900 		mv	a0,s2
 555 003c 97000000 		call	_Z9putStringPKc@plt
 555      E7800000 
 556              	.LVL58:
  25:src/../h/../h/my_console.h ****     putInt(line);
 557              		.loc 3 25 5 is_stmt 1
  25:src/../h/../h/my_console.h ****     putInt(line);
 558              		.loc 3 25 14 is_stmt 0
 559 0044 17050000 		lla	a0,.LC2
 559      13050500 
 560 004c 97000000 		call	_Z9putStringPKc@plt
 560      E7800000 
 561              	.LVL59:
  26:src/../h/../h/my_console.h ****     putString("   ===========================");
 562              		.loc 3 26 5 is_stmt 1
  26:src/../h/../h/my_console.h ****     putString("   ===========================");
 563              		.loc 3 26 11 is_stmt 0
 564 0054 13850400 		mv	a0,s1
 565 0058 97000000 		call	_Z6putInti@plt
 565      E7800000 
 566              	.LVL60:
  27:src/../h/../h/my_console.h ****     putNewline();
 567              		.loc 3 27 5 is_stmt 1
  27:src/../h/../h/my_console.h ****     putNewline();
 568              		.loc 3 27 14 is_stmt 0
 569 0060 17050000 		lla	a0,.LC3
 569      13050500 
 570 0068 97000000 		call	_Z9putStringPKc@plt
GAS LISTING /tmp/cckfRW2a.s 			page 18


 570      E7800000 
 571              	.LVL61:
  28:src/../h/../h/my_console.h **** 
 572              		.loc 3 28 5 is_stmt 1
  28:src/../h/../h/my_console.h **** 
 573              		.loc 3 28 15 is_stmt 0
 574 0070 97000000 		call	_Z10putNewlinev@plt
 574      E7800000 
 575              	.LVL62:
 576              		.loc 3 30 5 is_stmt 1
 577              		.loc 3 30 15 is_stmt 0
 578 0078 97000000 		call	_Z10stopKernelv@plt
 578      E7800000 
 579              	.LVL63:
 580              		.cfi_endproc
 581              	.LFE0:
 583              		.text
 584              		.align	2
 585              		.globl	_Z13testAsyncCallv
 587              	_Z13testAsyncCallv:
 588              	.LFB21:
  89:src/main.cpp  ****     enableExternalInterrupts();
 589              		.loc 1 89 1 is_stmt 1
 590              		.cfi_startproc
 591 0378 130101FE 		addi	sp,sp,-32
 592              		.cfi_def_cfa_offset 32
 593 037c 233C1100 		sd	ra,24(sp)
 594 0380 23388100 		sd	s0,16(sp)
 595              		.cfi_offset 1, -8
 596              		.cfi_offset 8, -16
 597 0384 13040102 		addi	s0,sp,32
 598              		.cfi_def_cfa 8, 0
  90:src/main.cpp  **** 
 599              		.loc 1 90 5
  90:src/main.cpp  **** 
 600              		.loc 1 90 29 is_stmt 0
 601 0388 97000000 		call	_Z24enableExternalInterruptsv@plt
 601      E7800000 
 602              	.LVL64:
  92:src/main.cpp  **** 
 603              		.loc 1 92 5 is_stmt 1
 604 0390 97000000 		call	_ZN8MemAlloc3getEv@plt
 604      E7800000 
 605              	.LVL65:
 606 0398 97000000 		call	_ZN8MemAlloc16getUserlandUsageEv@plt
 606      E7800000 
 607              	.LVL66:
 608              	.LBB152:
 609              	.LBB153:
  20:src/../h/../h/my_console.h ****         return;
 610              		.loc 3 20 5
 611 03a0 63180504 		bnez	a0,.L36
  21:src/../h/../h/my_console.h **** 
 612              		.loc 3 21 9
 613              	.LVL67:
 614              	.LBE153:
 615              	.LBE152:
GAS LISTING /tmp/cckfRW2a.s 			page 19


  96:src/main.cpp  **** //    int argB = 420;
 616              		.loc 1 96 5
  96:src/main.cpp  **** //    int argB = 420;
 617              		.loc 1 96 9 is_stmt 0
 618 03a4 93075004 		li	a5,69
 619 03a8 2326F4FE 		sw	a5,-20(s0)
  98:src/main.cpp  **** //    thread_t b;
 620              		.loc 1 98 5 is_stmt 1
 100:src/main.cpp  **** //    thread_create(&b, doB, &argB);
 621              		.loc 1 100 5
 100:src/main.cpp  **** //    thread_create(&b, doB, &argB);
 622              		.loc 1 100 18 is_stmt 0
 623 03ac 1306C4FE 		addi	a2,s0,-20
 624 03b0 97050000 		lla	a1,_Z3doCPv
 624      93850500 
 625 03b8 130504FE 		addi	a0,s0,-32
 626 03bc 97000000 		call	_Z13thread_createPmPFvPvES0_@plt
 626      E7800000 
 627              	.LVL68:
 102:src/main.cpp  **** 
 628              		.loc 1 102 5 is_stmt 1
 102:src/main.cpp  **** 
 629              		.loc 1 102 20 is_stmt 0
 630 03c4 97000000 		call	_Z15thread_dispatchv@plt
 630      E7800000 
 631              	.LVL69:
 105:src/main.cpp  **** }
 632              		.loc 1 105 5 is_stmt 1
 633 03cc 97000000 		call	_ZN8MemAlloc3getEv@plt
 633      E7800000 
 634              	.LVL70:
 635 03d4 97000000 		call	_ZN8MemAlloc16getUserlandUsageEv@plt
 635      E7800000 
 636              	.LVL71:
 637              	.LBB155:
 638              	.LBB156:
  20:src/../h/../h/my_console.h ****         return;
 639              		.loc 3 20 5
 640 03dc 63180506 		bnez	a0,.L37
 641              	.LBE156:
 642              	.LBE155:
 106:src/main.cpp  **** 
 643              		.loc 1 106 1 is_stmt 0
 644 03e0 83308101 		ld	ra,24(sp)
 645              		.cfi_remember_state
 646              		.cfi_restore 1
 647 03e4 03340101 		ld	s0,16(sp)
 648              		.cfi_restore 8
 649              		.cfi_def_cfa 2, 32
 650 03e8 13010102 		addi	sp,sp,32
 651              		.cfi_def_cfa_offset 0
 652 03ec 67800000 		jr	ra
 653              	.LVL72:
 654              	.L36:
 655              		.cfi_restore_state
 656              	.LBB158:
 657              	.LBB154:
GAS LISTING /tmp/cckfRW2a.s 			page 20


  23:src/../h/../h/my_console.h ****     putString(file);
 658              		.loc 3 23 5 is_stmt 1
  23:src/../h/../h/my_console.h ****     putString(file);
 659              		.loc 3 23 14 is_stmt 0
 660 03f0 17050000 		lla	a0,.LC0
 660      13050500 
 661              	.LVL73:
 662 03f8 97000000 		call	_Z9putStringPKc@plt
 662      E7800000 
 663              	.LVL74:
  24:src/../h/../h/my_console.h ****     putString("    line: ");
 664              		.loc 3 24 5 is_stmt 1
  24:src/../h/../h/my_console.h ****     putString("    line: ");
 665              		.loc 3 24 14 is_stmt 0
 666 0400 17050000 		lla	a0,.LC1
 666      13050500 
 667 0408 97000000 		call	_Z9putStringPKc@plt
 667      E7800000 
 668              	.LVL75:
  25:src/../h/../h/my_console.h ****     putInt(line);
 669              		.loc 3 25 5 is_stmt 1
  25:src/../h/../h/my_console.h ****     putInt(line);
 670              		.loc 3 25 14 is_stmt 0
 671 0410 17050000 		lla	a0,.LC2
 671      13050500 
 672 0418 97000000 		call	_Z9putStringPKc@plt
 672      E7800000 
 673              	.LVL76:
  26:src/../h/../h/my_console.h ****     putString("   ===========================");
 674              		.loc 3 26 5 is_stmt 1
  26:src/../h/../h/my_console.h ****     putString("   ===========================");
 675              		.loc 3 26 11 is_stmt 0
 676 0420 1305C005 		li	a0,92
 677 0424 97000000 		call	_Z6putInti@plt
 677      E7800000 
 678              	.LVL77:
  27:src/../h/../h/my_console.h ****     putNewline();
 679              		.loc 3 27 5 is_stmt 1
  27:src/../h/../h/my_console.h ****     putNewline();
 680              		.loc 3 27 14 is_stmt 0
 681 042c 17050000 		lla	a0,.LC3
 681      13050500 
 682 0434 97000000 		call	_Z9putStringPKc@plt
 682      E7800000 
 683              	.LVL78:
  28:src/../h/../h/my_console.h **** 
 684              		.loc 3 28 5 is_stmt 1
  28:src/../h/../h/my_console.h **** 
 685              		.loc 3 28 15 is_stmt 0
 686 043c 97000000 		call	_Z10putNewlinev@plt
 686      E7800000 
 687              	.LVL79:
 688              		.loc 3 30 5 is_stmt 1
 689              		.loc 3 30 15 is_stmt 0
 690 0444 97000000 		call	_Z10stopKernelv@plt
 690      E7800000 
 691              	.LVL80:
GAS LISTING /tmp/cckfRW2a.s 			page 21


 692              	.L37:
 693              	.LBE154:
 694              	.LBE158:
 695              	.LBB159:
 696              	.LBB157:
  23:src/../h/../h/my_console.h ****     putString(file);
 697              		.loc 3 23 5 is_stmt 1
  23:src/../h/../h/my_console.h ****     putString(file);
 698              		.loc 3 23 14 is_stmt 0
 699 044c 17050000 		lla	a0,.LC0
 699      13050500 
 700              	.LVL81:
 701 0454 97000000 		call	_Z9putStringPKc@plt
 701      E7800000 
 702              	.LVL82:
  24:src/../h/../h/my_console.h ****     putString("    line: ");
 703              		.loc 3 24 5 is_stmt 1
  24:src/../h/../h/my_console.h ****     putString("    line: ");
 704              		.loc 3 24 14 is_stmt 0
 705 045c 17050000 		lla	a0,.LC1
 705      13050500 
 706 0464 97000000 		call	_Z9putStringPKc@plt
 706      E7800000 
 707              	.LVL83:
  25:src/../h/../h/my_console.h ****     putInt(line);
 708              		.loc 3 25 5 is_stmt 1
  25:src/../h/../h/my_console.h ****     putInt(line);
 709              		.loc 3 25 14 is_stmt 0
 710 046c 17050000 		lla	a0,.LC2
 710      13050500 
 711 0474 97000000 		call	_Z9putStringPKc@plt
 711      E7800000 
 712              	.LVL84:
  26:src/../h/../h/my_console.h ****     putString("   ===========================");
 713              		.loc 3 26 5 is_stmt 1
  26:src/../h/../h/my_console.h ****     putString("   ===========================");
 714              		.loc 3 26 11 is_stmt 0
 715 047c 13059006 		li	a0,105
 716 0480 97000000 		call	_Z6putInti@plt
 716      E7800000 
 717              	.LVL85:
  27:src/../h/../h/my_console.h ****     putNewline();
 718              		.loc 3 27 5 is_stmt 1
  27:src/../h/../h/my_console.h ****     putNewline();
 719              		.loc 3 27 14 is_stmt 0
 720 0488 17050000 		lla	a0,.LC3
 720      13050500 
 721 0490 97000000 		call	_Z9putStringPKc@plt
 721      E7800000 
 722              	.LVL86:
  28:src/../h/../h/my_console.h **** 
 723              		.loc 3 28 5 is_stmt 1
  28:src/../h/../h/my_console.h **** 
 724              		.loc 3 28 15 is_stmt 0
 725 0498 97000000 		call	_Z10putNewlinev@plt
 725      E7800000 
 726              	.LVL87:
GAS LISTING /tmp/cckfRW2a.s 			page 22


 727              		.loc 3 30 5 is_stmt 1
 728              		.loc 3 30 15 is_stmt 0
 729 04a0 97000000 		call	_Z10stopKernelv@plt
 729      E7800000 
 730              	.LVL88:
 731              	.LBE157:
 732              	.LBE159:
 733              		.cfi_endproc
 734              	.LFE21:
 736              		.align	2
 737              		.globl	_Z16doInitialAssertsv
 739              	_Z16doInitialAssertsv:
 740              	.LFB22:
 109:src/main.cpp  ****     assert(sizeof(void*) == 8);
 741              		.loc 1 109 1 is_stmt 1
 742              		.cfi_startproc
 110:src/main.cpp  ****     assert((((uint64)HEAP_END_ADDR - (uint64)HEAP_START_ADDR) / 1024 / 1024) == 127);
 743              		.loc 1 110 5
 744              	.LVL89:
  20:src/../h/../h/my_console.h ****         return;
 745              		.loc 3 20 5
  21:src/../h/../h/my_console.h **** 
 746              		.loc 3 21 9
 111:src/main.cpp  ****     assert(DEFAULT_STACK_SIZE == 4096);
 747              		.loc 1 111 5
 748 04a8 97070000 		la	a5,HEAP_END_ADDR
 748      83B70700 
 749 04b0 83B70700 		ld	a5,0(a5)
 750 04b4 17070000 		la	a4,HEAP_START_ADDR
 750      03370700 
 751 04bc 03370700 		ld	a4,0(a4)
 752 04c0 B387E740 		sub	a5,a5,a4
 753 04c4 370710F8 		li	a4,-133169152
 754 04c8 B387E700 		add	a5,a5,a4
 755 04cc 37071000 		li	a4,1048576
 756              	.LVL90:
 757              	.LBB162:
 758              	.LBB163:
  20:src/../h/../h/my_console.h ****         return;
 759              		.loc 3 20 5
 760 04d0 63F4E700 		bgeu	a5,a4,.L43
 761 04d4 67800000 		ret
 762              	.L43:
 763              	.LBE163:
 764              	.LBE162:
 109:src/main.cpp  ****     assert(sizeof(void*) == 8);
 765              		.loc 1 109 1 is_stmt 0
 766 04d8 130101FF 		addi	sp,sp,-16
 767              		.cfi_def_cfa_offset 16
 768 04dc 23341100 		sd	ra,8(sp)
 769 04e0 23308100 		sd	s0,0(sp)
 770              		.cfi_offset 1, -8
 771              		.cfi_offset 8, -16
 772 04e4 13040101 		addi	s0,sp,16
 773              		.cfi_def_cfa 8, 0
 774              	.LBB165:
 775              	.LBB164:
GAS LISTING /tmp/cckfRW2a.s 			page 23


  23:src/../h/../h/my_console.h ****     putString(file);
 776              		.loc 3 23 5 is_stmt 1
  23:src/../h/../h/my_console.h ****     putString(file);
 777              		.loc 3 23 14 is_stmt 0
 778 04e8 17050000 		lla	a0,.LC0
 778      13050500 
 779 04f0 97000000 		call	_Z9putStringPKc@plt
 779      E7800000 
 780              	.LVL91:
  24:src/../h/../h/my_console.h ****     putString("    line: ");
 781              		.loc 3 24 5 is_stmt 1
  24:src/../h/../h/my_console.h ****     putString("    line: ");
 782              		.loc 3 24 14 is_stmt 0
 783 04f8 17050000 		lla	a0,.LC1
 783      13050500 
 784 0500 97000000 		call	_Z9putStringPKc@plt
 784      E7800000 
 785              	.LVL92:
  25:src/../h/../h/my_console.h ****     putInt(line);
 786              		.loc 3 25 5 is_stmt 1
  25:src/../h/../h/my_console.h ****     putInt(line);
 787              		.loc 3 25 14 is_stmt 0
 788 0508 17050000 		lla	a0,.LC2
 788      13050500 
 789 0510 97000000 		call	_Z9putStringPKc@plt
 789      E7800000 
 790              	.LVL93:
  26:src/../h/../h/my_console.h ****     putString("   ===========================");
 791              		.loc 3 26 5 is_stmt 1
  26:src/../h/../h/my_console.h ****     putString("   ===========================");
 792              		.loc 3 26 11 is_stmt 0
 793 0518 1305F006 		li	a0,111
 794 051c 97000000 		call	_Z6putInti@plt
 794      E7800000 
 795              	.LVL94:
  27:src/../h/../h/my_console.h ****     putNewline();
 796              		.loc 3 27 5 is_stmt 1
  27:src/../h/../h/my_console.h ****     putNewline();
 797              		.loc 3 27 14 is_stmt 0
 798 0524 17050000 		lla	a0,.LC3
 798      13050500 
 799 052c 97000000 		call	_Z9putStringPKc@plt
 799      E7800000 
 800              	.LVL95:
  28:src/../h/../h/my_console.h **** 
 801              		.loc 3 28 5 is_stmt 1
  28:src/../h/../h/my_console.h **** 
 802              		.loc 3 28 15 is_stmt 0
 803 0534 97000000 		call	_Z10putNewlinev@plt
 803      E7800000 
 804              	.LVL96:
 805              		.loc 3 30 5 is_stmt 1
 806              		.loc 3 30 15 is_stmt 0
 807 053c 97000000 		call	_Z10stopKernelv@plt
 807      E7800000 
 808              	.LVL97:
 809              	.LBE164:
GAS LISTING /tmp/cckfRW2a.s 			page 24


 810              	.LBE165:
 811              		.cfi_endproc
 812              	.LFE22:
 814              		.align	2
 815              		.globl	_Z19initInterruptVectorv
 817              	_Z19initInterruptVectorv:
 818              	.LFB23:
 121:src/main.cpp  **** 
 819              		.loc 1 121 1 is_stmt 1
 820              		.cfi_startproc
 821 0544 130101FF 		addi	sp,sp,-16
 822              		.cfi_def_cfa_offset 16
 823 0548 23348100 		sd	s0,8(sp)
 824              		.cfi_offset 8, -8
 825 054c 13040101 		addi	s0,sp,16
 826              		.cfi_def_cfa 8, 0
 124:src/main.cpp  **** 
 827              		.loc 1 124 5
 124:src/main.cpp  **** 
 828              		.loc 1 124 78 is_stmt 0
 829 0550 97070000 		la	a5,trapRoutine
 829      83B70700 
 830              	#APP
 831              	# 124 "src/main.cpp" 1
 127:src/main.cpp  ****     __asm__ volatile ("csrc stvec, 0x2");
 832              		csrw stvec, a5
 833              	# 0 "" 2
 834              		.loc 1 127 5 is_stmt 1
 127:src/main.cpp  ****     __asm__ volatile ("csrc stvec, 0x2");
 835              		.loc 1 127 41 is_stmt 0
 836              	# 127 "src/main.cpp" 1
 128:src/main.cpp  **** }
 837              		csrs stvec, 0x1
 838              	# 0 "" 2
 839              		.loc 1 128 5 is_stmt 1
 128:src/main.cpp  **** }
 840              		.loc 1 128 41 is_stmt 0
 841              	# 128 "src/main.cpp" 1
 842              		csrc stvec, 0x2
 843              	# 0 "" 2
 844              		.loc 1 129 1
 845              	#NO_APP
 846 0564 03348100 		ld	s0,8(sp)
 847              		.cfi_restore 8
 848              		.cfi_def_cfa 2, 16
 849 0568 13010101 		addi	sp,sp,16
 850              		.cfi_def_cfa_offset 0
 851 056c 67800000 		jr	ra
 852              		.cfi_endproc
 853              	.LFE23:
 855              		.align	2
 856              		.globl	main
 858              	main:
 859              	.LFB19:
  44:src/main.cpp  ****     disableExternalInterrupts();
 860              		.loc 1 44 1 is_stmt 1
 861              		.cfi_startproc
GAS LISTING /tmp/cckfRW2a.s 			page 25


 862 0570 130101FD 		addi	sp,sp,-48
 863              		.cfi_def_cfa_offset 48
 864 0574 23341102 		sd	ra,40(sp)
 865 0578 23308102 		sd	s0,32(sp)
 866 057c 233C9100 		sd	s1,24(sp)
 867              		.cfi_offset 1, -8
 868              		.cfi_offset 8, -16
 869              		.cfi_offset 9, -24
 870 0580 13040103 		addi	s0,sp,48
 871              		.cfi_def_cfa 8, 0
  45:src/main.cpp  **** 
 872              		.loc 1 45 5
  45:src/main.cpp  **** 
 873              		.loc 1 45 30 is_stmt 0
 874 0584 97000000 		call	_Z25disableExternalInterruptsv@plt
 874      E7800000 
 875              	.LVL98:
  47:src/main.cpp  ****     doInitialAsserts();
 876              		.loc 1 47 5 is_stmt 1
  47:src/main.cpp  ****     doInitialAsserts();
 877              		.loc 1 47 24 is_stmt 0
 878 058c 97000000 		call	_Z19initInterruptVectorv
 878      E7800000 
 879              	.LVL99:
  48:src/main.cpp  **** 
 880              		.loc 1 48 5 is_stmt 1
  48:src/main.cpp  **** 
 881              		.loc 1 48 21 is_stmt 0
 882 0594 97000000 		call	_Z16doInitialAssertsv
 882      E7800000 
 883              	.LVL100:
  50:src/main.cpp  ****     __asm__ volatile ("mv %[name], sp" : [name] "=r"(sp));
 884              		.loc 1 50 5 is_stmt 1
  51:src/main.cpp  ****     kernelThread.sp = sp;
 885              		.loc 1 51 5
  51:src/main.cpp  ****     kernelThread.sp = sp;
 886              		.loc 1 51 58 is_stmt 0
 887              	#APP
 888              	# 51 "src/main.cpp" 1
 889              		mv a5, sp
 890              	# 0 "" 2
 891              	.LVL101:
  52:src/main.cpp  ****     Thread::setPRunning(&kernelThread);
 892              		.loc 1 52 5 is_stmt 1
  52:src/main.cpp  ****     Thread::setPRunning(&kernelThread);
 893              		.loc 1 52 21 is_stmt 0
 894              	#NO_APP
 895 05a0 97040000 		lla	s1,.LANCHOR0
 895      93840400 
 896 05a8 23B4F404 		sd	a5,72(s1)
  53:src/main.cpp  ****     assert(&(Thread::getPRunning()->sp) == Thread::pRunningSp);
 897              		.loc 1 53 5 is_stmt 1
  53:src/main.cpp  ****     assert(&(Thread::getPRunning()->sp) == Thread::pRunningSp);
 898              		.loc 1 53 24 is_stmt 0
 899 05ac 13850400 		mv	a0,s1
 900 05b0 97000000 		call	_ZN6Thread11setPRunningEPS_@plt
 900      E7800000 
GAS LISTING /tmp/cckfRW2a.s 			page 26


 901              	.LVL102:
  54:src/main.cpp  ****     kernelThread.id = 0;
 902              		.loc 1 54 5 is_stmt 1
 903 05b8 97000000 		call	_ZN6Thread11getPRunningEv@plt
 903      E7800000 
 904              	.LVL103:
 905 05c0 93078504 		addi	a5,a0,72
 906 05c4 17070000 		la	a4,_ZN6Thread10pRunningSpE
 906      03370700 
 907 05cc 03350700 		ld	a0,0(a4)
 908 05d0 3305F540 		sub	a0,a0,a5
 909 05d4 13066003 		li	a2,54
 910 05d8 97050000 		lla	a1,.LC1
 910      93850500 
 911 05e0 13351500 		seqz	a0,a0
 912 05e4 97000000 		call	_Z7_assertbPKci
 912      E7800000 
 913              	.LVL104:
  55:src/main.cpp  ****     Thread::pAllThreads[0] = &kernelThread;
 914              		.loc 1 55 5
  55:src/main.cpp  ****     Thread::pAllThreads[0] = &kernelThread;
 915              		.loc 1 55 21 is_stmt 0
 916 05ec 23B40402 		sd	zero,40(s1)
  56:src/main.cpp  **** 
 917              		.loc 1 56 5 is_stmt 1
  56:src/main.cpp  **** 
 918              		.loc 1 56 28 is_stmt 0
 919 05f0 97070000 		la	a5,_ZN6Thread11pAllThreadsE
 919      83B70700 
 920 05f8 23B09700 		sd	s1,0(a5)
  58:src/main.cpp  ****     thread_create(&t, &userWrapper, nullptr);
 921              		.loc 1 58 5 is_stmt 1
  59:src/main.cpp  **** 
 922              		.loc 1 59 5
  59:src/main.cpp  **** 
 923              		.loc 1 59 18 is_stmt 0
 924 05fc 13060000 		li	a2,0
 925 0600 97050000 		lla	a1,_Z11userWrapperPv
 925      93850500 
 926 0608 130584FD 		addi	a0,s0,-40
 927 060c 97000000 		call	_Z13thread_createPmPFvPvES0_@plt
 927      E7800000 
 928              	.LVL105:
  61:src/main.cpp  **** 
 929              		.loc 1 61 5 is_stmt 1
  61:src/main.cpp  **** 
 930              		.loc 1 61 71 is_stmt 0
 931 0614 97000000 		call	_ZN8MemAlloc3getEv@plt
 931      E7800000 
 932              	.LVL106:
 933 061c 97000000 		call	_ZN8MemAlloc16getUserlandUsageEv@plt
 933      E7800000 
 934              	.LVL107:
  61:src/main.cpp  **** 
 935              		.loc 1 61 36
 936 0624 97070000 		la	a5,_ZN6Thread22initialUserMemoryUsageE
 936      83B70700 
GAS LISTING /tmp/cckfRW2a.s 			page 27


 937 062c 23B0A700 		sd	a0,0(a5)
  63:src/main.cpp  ****     __asm__ volatile ("ecall");
 938              		.loc 1 63 5 is_stmt 1
  63:src/main.cpp  ****     __asm__ volatile ("ecall");
 939              		.loc 1 63 34 is_stmt 0
 940              	#APP
 941              	# 63 "src/main.cpp" 1
  64:src/main.cpp  **** 
 942              		li a0, 4
 943              	# 0 "" 2
 944              		.loc 1 64 5 is_stmt 1
  64:src/main.cpp  **** 
 945              		.loc 1 64 31 is_stmt 0
 946              	# 64 "src/main.cpp" 1
  66:src/main.cpp  **** 
 947              		ecall
 948              	# 0 "" 2
 949              		.loc 1 66 5 is_stmt 1
  66:src/main.cpp  **** 
 950              		.loc 1 66 43 is_stmt 0
 951              	# 66 "src/main.cpp" 1
  68:src/main.cpp  **** }
 952              		csrw sscratch, x0
 953              	# 0 "" 2
 954              		.loc 1 68 5 is_stmt 1
  69:src/main.cpp  **** 
 955              		.loc 1 69 1 is_stmt 0
 956              	#NO_APP
 957 063c 13050000 		li	a0,0
 958 0640 83308102 		ld	ra,40(sp)
 959              		.cfi_restore 1
 960 0644 03340102 		ld	s0,32(sp)
 961              		.cfi_restore 8
 962              		.cfi_def_cfa 2, 48
 963 0648 83348101 		ld	s1,24(sp)
 964              		.cfi_restore 9
 965 064c 13010103 		addi	sp,sp,48
 966              		.cfi_def_cfa_offset 0
 967 0650 67800000 		jr	ra
 968              		.cfi_endproc
 969              	.LFE19:
 971              		.align	2
 973              	_GLOBAL__sub_I_kernelThread:
 974              	.LFB25:
 975              		.loc 1 129 1 is_stmt 1
 976              		.cfi_startproc
 977 0654 130101FF 		addi	sp,sp,-16
 978              		.cfi_def_cfa_offset 16
 979 0658 23341100 		sd	ra,8(sp)
 980 065c 23308100 		sd	s0,0(sp)
 981              		.cfi_offset 1, -8
 982              		.cfi_offset 8, -16
 983 0660 13040101 		addi	s0,sp,16
 984              		.cfi_def_cfa 8, 0
 985              		.loc 1 129 1 is_stmt 0
 986 0664 B7050100 		li	a1,65536
 987 0668 9385F5FF 		addi	a1,a1,-1
GAS LISTING /tmp/cckfRW2a.s 			page 28


 988 066c 13051000 		li	a0,1
 989 0670 97000000 		call	_Z41__static_initialization_and_destruction_0ii
 989      E7800000 
 990              	.LVL108:
 991 0678 83308100 		ld	ra,8(sp)
 992              		.cfi_restore 1
 993 067c 03340100 		ld	s0,0(sp)
 994              		.cfi_restore 8
 995              		.cfi_def_cfa 2, 16
 996 0680 13010101 		addi	sp,sp,16
 997              		.cfi_def_cfa_offset 0
 998 0684 67800000 		jr	ra
 999              		.cfi_endproc
 1000              	.LFE25:
 1002              		.section	.init_array,"aw"
 1003              		.align	3
 1004 0000 00000000 		.dword	_GLOBAL__sub_I_kernelThread
 1004      00000000 
 1005              		.globl	kernelThread
 1006              		.weak	_ZGVZN7Console3getEvE8instance
 1007              		.section	.bss._ZGVZN7Console3getEvE8instance,"awG",@nobits,_ZGVZN7Console3getEvE8instance,comdat
 1008              		.align	3
 1011              	_ZGVZN7Console3getEvE8instance:
 1012 0000 00000000 		.zero	8
 1012      00000000 
 1013              		.weak	_ZZN7Console3getEvE8instance
 1014              		.section	.bss._ZZN7Console3getEvE8instance,"awG",@nobits,_ZZN7Console3getEvE8instance,comdat
 1015              		.align	3
 1018              	_ZZN7Console3getEvE8instance:
 1019 0000 00000000 		.zero	1024
 1019      00000000 
 1019      00000000 
 1019      00000000 
 1019      00000000 
 1020              		.bss
 1021              		.align	3
 1022              		.set	.LANCHOR0,. + 0
 1025              	kernelThread:
 1026 0000 00000000 		.zero	80
 1026      00000000 
 1026      00000000 
 1026      00000000 
 1026      00000000 
 1027              		.text
 1028              	.Letext0:
 1029              		.file 5 "src/../h/../lib/hw.h"
 1030              		.file 6 "src/../h/alloc.h"
 1031              		.file 7 "src/../h/c_api.h"
 1032              		.file 8 "src/../h/../h/../h/risc.h"
GAS LISTING /tmp/cckfRW2a.s 			page 29


DEFINED SYMBOLS
                            *ABS*:0000000000000000 main.cpp
     /tmp/cckfRW2a.s:9      .text:0000000000000000 _Z3doCPv
     /tmp/cckfRW2a.s:13     .text:0000000000000000 .L0 
     /tmp/cckfRW2a.s:15     .text:0000000000000000 .L0 
     /tmp/cckfRW2a.s:16     .text:0000000000000004 .L0 
     /tmp/cckfRW2a.s:18     .text:0000000000000008 .L0 
     /tmp/cckfRW2a.s:20     .text:000000000000000c .L0 
     /tmp/cckfRW2a.s:22     .text:000000000000000c .L0 
     /tmp/cckfRW2a.s:23     .text:000000000000000c .L0 
     /tmp/cckfRW2a.s:25     .text:0000000000000010 .L0 
     /tmp/cckfRW2a.s:26     .text:0000000000000010 .L0 
     /tmp/cckfRW2a.s:27     .text:0000000000000010 .L0 
     /tmp/cckfRW2a.s:33     .text:0000000000000020 .L0 
        src/main.cpp:80     .text:0000000000000020 .L0 
     /tmp/cckfRW2a.s:41     .text:0000000000000024 .L0 
     /tmp/cckfRW2a.s:42     .text:0000000000000024 .L0 
     /tmp/cckfRW2a.s:47     .text:0000000000000030 .L0 
     /tmp/cckfRW2a.s:48     .text:0000000000000030 .L0 
     /tmp/cckfRW2a.s:54     .text:000000000000003c .L0 
     /tmp/cckfRW2a.s:55     .text:000000000000003c .L0 
     /tmp/cckfRW2a.s:56     .text:000000000000003c .L0 
     /tmp/cckfRW2a.s:58     .text:0000000000000040 .L0 
     /tmp/cckfRW2a.s:59     .text:0000000000000040 .L0 
     /tmp/cckfRW2a.s:62     .text:000000000000004c .L0 
     /tmp/cckfRW2a.s:64     .text:0000000000000054 .L0 
     /tmp/cckfRW2a.s:69     .text:0000000000000054 _Z41__static_initialization_and_destruction_0ii
     /tmp/cckfRW2a.s:72     .text:0000000000000054 .L0 
     /tmp/cckfRW2a.s:74     .text:0000000000000054 .L0 
     /tmp/cckfRW2a.s:75     .text:0000000000000058 .L0 
     /tmp/cckfRW2a.s:77     .text:000000000000005c .L0 
     /tmp/cckfRW2a.s:79     .text:0000000000000060 .L0 
     /tmp/cckfRW2a.s:81     .text:0000000000000060 .L0 
     /tmp/cckfRW2a.s:85     .text:000000000000006c .L0 
     /tmp/cckfRW2a.s:86     .text:000000000000006c .L0 
     /tmp/cckfRW2a.s:87     .text:000000000000006c .L0 
     /tmp/cckfRW2a.s:89     .text:0000000000000070 .L0 
     /tmp/cckfRW2a.s:92     .text:0000000000000074 .L0 
     /tmp/cckfRW2a.s:94     .text:0000000000000074 .L0 
     /tmp/cckfRW2a.s:103    .text:0000000000000080 .L0 
     /tmp/cckfRW2a.s:111    .text:0000000000000090 .L0 
     /tmp/cckfRW2a.s:112    .text:0000000000000094 .L0 
     /tmp/cckfRW2a.s:132    .text:0000000000000094 _Z11userWrapperPv
     /tmp/cckfRW2a.s:135    .text:0000000000000094 .L0 
     /tmp/cckfRW2a.s:137    .text:0000000000000094 .L0 
     /tmp/cckfRW2a.s:138    .text:0000000000000098 .L0 
     /tmp/cckfRW2a.s:142    .text:00000000000000a4 .L0 
     /tmp/cckfRW2a.s:143    .text:00000000000000a4 .L0 
     /tmp/cckfRW2a.s:144    .text:00000000000000a4 .L0 
     /tmp/cckfRW2a.s:146    .text:00000000000000a8 .L0 
     /tmp/cckfRW2a.s:152    .text:00000000000000a8 .L0 
     /tmp/cckfRW2a.s:153    .text:00000000000000a8 .L0 
     /tmp/cckfRW2a.s:158    .text:00000000000000ac .L0 
     /tmp/cckfRW2a.s:159    .text:00000000000000ac .L0 
     /tmp/cckfRW2a.s:168    .text:00000000000000c4 .L0 
     /tmp/cckfRW2a.s:173    .text:00000000000000c8 .L0 
     /tmp/cckfRW2a.s:174    .text:00000000000000c8 .L0 
GAS LISTING /tmp/cckfRW2a.s 			page 30


     /tmp/cckfRW2a.s:175    .text:00000000000000c8 .L0 
     /tmp/cckfRW2a.s:179    .text:00000000000000d0 .L0 
     /tmp/cckfRW2a.s:180    .text:00000000000000d0 .L0 
     /tmp/cckfRW2a.s:188    .text:00000000000000d8 .L0 
     /tmp/cckfRW2a.s:189    .text:00000000000000d8 .L0 
     /tmp/cckfRW2a.s:194    .text:00000000000000e8 .L0 
     /tmp/cckfRW2a.s:195    .text:00000000000000e8 .L0 
     /tmp/cckfRW2a.s:199    .text:00000000000000f8 .L0 
     /tmp/cckfRW2a.s:200    .text:00000000000000f8 .L0 
     /tmp/cckfRW2a.s:204    .text:0000000000000108 .L0 
     /tmp/cckfRW2a.s:205    .text:0000000000000108 .L0 
     /tmp/cckfRW2a.s:209    .text:0000000000000114 .L0 
     /tmp/cckfRW2a.s:210    .text:0000000000000114 .L0 
     /tmp/cckfRW2a.s:214    .text:0000000000000124 .L0 
     /tmp/cckfRW2a.s:215    .text:0000000000000124 .L0 
     /tmp/cckfRW2a.s:218    .text:000000000000012c .L0 
     /tmp/cckfRW2a.s:219    .text:000000000000012c .L0 
     /tmp/cckfRW2a.s:227    .text:0000000000000134 .L0 
     /tmp/cckfRW2a.s:228    .text:0000000000000134 .L0 
     /tmp/cckfRW2a.s:233    .text:0000000000000144 .L0 
     /tmp/cckfRW2a.s:234    .text:0000000000000144 .L0 
     /tmp/cckfRW2a.s:238    .text:0000000000000154 .L0 
     /tmp/cckfRW2a.s:239    .text:0000000000000154 .L0 
     /tmp/cckfRW2a.s:243    .text:0000000000000164 .L0 
     /tmp/cckfRW2a.s:244    .text:0000000000000164 .L0 
     /tmp/cckfRW2a.s:248    .text:0000000000000170 .L0 
     /tmp/cckfRW2a.s:249    .text:0000000000000170 .L0 
     /tmp/cckfRW2a.s:253    .text:0000000000000180 .L0 
     /tmp/cckfRW2a.s:254    .text:0000000000000180 .L0 
     /tmp/cckfRW2a.s:257    .text:0000000000000188 .L0 
     /tmp/cckfRW2a.s:258    .text:0000000000000188 .L0 
     /tmp/cckfRW2a.s:270    .text:0000000000000190 .L0 
     /tmp/cckfRW2a.s:271    .text:0000000000000190 .L0 
     /tmp/cckfRW2a.s:1018   .bss._ZZN7Console3getEvE8instance:0000000000000000 _ZZN7Console3getEvE8instance
     /tmp/cckfRW2a.s:276    .text:00000000000001a4 .L0 
     /tmp/cckfRW2a.s:280    .text:00000000000001a8 .L0 
     /tmp/cckfRW2a.s:285    .text:00000000000001b0 .L0 
     /tmp/cckfRW2a.s:286    .text:00000000000001b0 .L0 
     /tmp/cckfRW2a.s:1011   .bss._ZGVZN7Console3getEvE8instance:0000000000000000 _ZGVZN7Console3getEvE8instance
     /tmp/cckfRW2a.s:287    .text:00000000000001b0 .L0 
     /tmp/cckfRW2a.s:294    .text:00000000000001bc .L0 
     /tmp/cckfRW2a.s:303    .text:00000000000001d0 .L0 
     /tmp/cckfRW2a.s:309    .text:00000000000001dc .L0 
     /tmp/cckfRW2a.s:310    .text:00000000000001dc .L0 
     /tmp/cckfRW2a.s:318    .text:00000000000001f4 .L0 
     /tmp/cckfRW2a.s:319    .text:00000000000001f4 .L0 
     /tmp/cckfRW2a.s:320    .text:00000000000001f4 .L0 
     /tmp/cckfRW2a.s:327    .text:0000000000000200 .L0 
     /tmp/cckfRW2a.s:336    .text:0000000000000214 .L0 
     /tmp/cckfRW2a.s:342    .text:0000000000000220 .L0 
     /tmp/cckfRW2a.s:343    .text:0000000000000220 .L0 
     /tmp/cckfRW2a.s:350    .text:0000000000000234 .L0 
     /tmp/cckfRW2a.s:351    .text:0000000000000234 .L0 
     /tmp/cckfRW2a.s:352    .text:0000000000000234 .L0 
     /tmp/cckfRW2a.s:359    .text:0000000000000240 .L0 
     /tmp/cckfRW2a.s:368    .text:0000000000000254 .L0 
     /tmp/cckfRW2a.s:374    .text:0000000000000260 .L0 
GAS LISTING /tmp/cckfRW2a.s 			page 31


     /tmp/cckfRW2a.s:375    .text:0000000000000260 .L0 
     /tmp/cckfRW2a.s:382    .text:0000000000000274 .L0 
     /tmp/cckfRW2a.s:383    .text:0000000000000274 .L0 
     /tmp/cckfRW2a.s:384    .text:0000000000000274 .L0 
     /tmp/cckfRW2a.s:391    .text:0000000000000280 .L0 
     /tmp/cckfRW2a.s:400    .text:0000000000000294 .L0 
     /tmp/cckfRW2a.s:406    .text:00000000000002a0 .L0 
     /tmp/cckfRW2a.s:407    .text:00000000000002a0 .L0 
     /tmp/cckfRW2a.s:414    .text:00000000000002b4 .L0 
     /tmp/cckfRW2a.s:415    .text:00000000000002b4 .L0 
     /tmp/cckfRW2a.s:416    .text:00000000000002b4 .L0 
     /tmp/cckfRW2a.s:423    .text:00000000000002c0 .L0 
     /tmp/cckfRW2a.s:432    .text:00000000000002d4 .L0 
     /tmp/cckfRW2a.s:438    .text:00000000000002e0 .L0 
     /tmp/cckfRW2a.s:439    .text:00000000000002e0 .L0 
     /tmp/cckfRW2a.s:446    .text:00000000000002f4 .L0 
     /tmp/cckfRW2a.s:447    .text:00000000000002f4 .L0 
     /tmp/cckfRW2a.s:448    .text:00000000000002f4 .L0 
     /tmp/cckfRW2a.s:455    .text:0000000000000300 .L0 
     /tmp/cckfRW2a.s:464    .text:0000000000000314 .L0 
     /tmp/cckfRW2a.s:470    .text:0000000000000320 .L0 
     /tmp/cckfRW2a.s:471    .text:0000000000000320 .L0 
     /tmp/cckfRW2a.s:478    .text:0000000000000334 .L0 
     /tmp/cckfRW2a.s:479    .text:0000000000000334 .L0 
     /tmp/cckfRW2a.s:480    .text:0000000000000334 .L0 
     /tmp/cckfRW2a.s:487    .text:0000000000000340 .L0 
     /tmp/cckfRW2a.s:496    .text:0000000000000354 .L0 
     /tmp/cckfRW2a.s:504    .text:0000000000000364 .L0 
     /tmp/cckfRW2a.s:505    .text:0000000000000368 .L0 
     /tmp/cckfRW2a.s:507    .text:000000000000036c .L0 
     /tmp/cckfRW2a.s:508    .text:000000000000036c .L0 
     /tmp/cckfRW2a.s:510    .text:0000000000000370 .L0 
     /tmp/cckfRW2a.s:513    .text:0000000000000374 .L0 
     /tmp/cckfRW2a.s:515    .text:0000000000000378 .L0 
     /tmp/cckfRW2a.s:522    .text._Z7_assertbPKci:0000000000000000 _Z7_assertbPKci
     /tmp/cckfRW2a.s:525    .text._Z7_assertbPKci:0000000000000000 .L0 
     /tmp/cckfRW2a.s:527    .text._Z7_assertbPKci:0000000000000000 .L0 
     /tmp/cckfRW2a.s:528    .text._Z7_assertbPKci:0000000000000000 .L0 
     /tmp/cckfRW2a.s:532    .text._Z7_assertbPKci:0000000000000008 .L0 
     /tmp/cckfRW2a.s:533    .text._Z7_assertbPKci:000000000000000c .L0 
     /tmp/cckfRW2a.s:538    .text._Z7_assertbPKci:000000000000001c .L0 
     /tmp/cckfRW2a.s:539    .text._Z7_assertbPKci:000000000000001c .L0 
     /tmp/cckfRW2a.s:540    .text._Z7_assertbPKci:000000000000001c .L0 
     /tmp/cckfRW2a.s:541    .text._Z7_assertbPKci:000000000000001c .L0 
     /tmp/cckfRW2a.s:543    .text._Z7_assertbPKci:0000000000000020 .L0 
     /tmp/cckfRW2a.s:547    .text._Z7_assertbPKci:0000000000000028 .L0 
     /tmp/cckfRW2a.s:548    .text._Z7_assertbPKci:0000000000000028 .L0 
     /tmp/cckfRW2a.s:553    .text._Z7_assertbPKci:0000000000000038 .L0 
     /tmp/cckfRW2a.s:554    .text._Z7_assertbPKci:0000000000000038 .L0 
     /tmp/cckfRW2a.s:558    .text._Z7_assertbPKci:0000000000000044 .L0 
     /tmp/cckfRW2a.s:559    .text._Z7_assertbPKci:0000000000000044 .L0 
     /tmp/cckfRW2a.s:563    .text._Z7_assertbPKci:0000000000000054 .L0 
     /tmp/cckfRW2a.s:564    .text._Z7_assertbPKci:0000000000000054 .L0 
     /tmp/cckfRW2a.s:568    .text._Z7_assertbPKci:0000000000000060 .L0 
     /tmp/cckfRW2a.s:569    .text._Z7_assertbPKci:0000000000000060 .L0 
     /tmp/cckfRW2a.s:573    .text._Z7_assertbPKci:0000000000000070 .L0 
     /tmp/cckfRW2a.s:574    .text._Z7_assertbPKci:0000000000000070 .L0 
GAS LISTING /tmp/cckfRW2a.s 			page 32


     /tmp/cckfRW2a.s:577    .text._Z7_assertbPKci:0000000000000078 .L0 
     /tmp/cckfRW2a.s:578    .text._Z7_assertbPKci:0000000000000078 .L0 
     /tmp/cckfRW2a.s:580    .text._Z7_assertbPKci:0000000000000080 .L0 
     /tmp/cckfRW2a.s:587    .text:0000000000000378 _Z13testAsyncCallv
     /tmp/cckfRW2a.s:590    .text:0000000000000378 .L0 
     /tmp/cckfRW2a.s:591    .text:0000000000000378 .L0 
     /tmp/cckfRW2a.s:592    .text:000000000000037c .L0 
     /tmp/cckfRW2a.s:595    .text:0000000000000384 .L0 
     /tmp/cckfRW2a.s:596    .text:0000000000000384 .L0 
     /tmp/cckfRW2a.s:598    .text:0000000000000388 .L0 
     /tmp/cckfRW2a.s:600    .text:0000000000000388 .L0 
     /tmp/cckfRW2a.s:601    .text:0000000000000388 .L0 
     /tmp/cckfRW2a.s:604    .text:0000000000000390 .L0 
     /tmp/cckfRW2a.s:611    .text:00000000000003a0 .L0 
     /tmp/cckfRW2a.s:616    .text:00000000000003a4 .L0 
     /tmp/cckfRW2a.s:617    .text:00000000000003a4 .L0 
     /tmp/cckfRW2a.s:618    .text:00000000000003a4 .L0 
     /tmp/cckfRW2a.s:621    .text:00000000000003ac .L0 
     /tmp/cckfRW2a.s:622    .text:00000000000003ac .L0 
     /tmp/cckfRW2a.s:623    .text:00000000000003ac .L0 
     /tmp/cckfRW2a.s:629    .text:00000000000003c4 .L0 
     /tmp/cckfRW2a.s:630    .text:00000000000003c4 .L0 
     /tmp/cckfRW2a.s:633    .text:00000000000003cc .L0 
     /tmp/cckfRW2a.s:640    .text:00000000000003dc .L0 
     /tmp/cckfRW2a.s:644    .text:00000000000003e0 .L0 
     /tmp/cckfRW2a.s:645    .text:00000000000003e4 .L0 
     /tmp/cckfRW2a.s:646    .text:00000000000003e4 .L0 
     /tmp/cckfRW2a.s:648    .text:00000000000003e8 .L0 
     /tmp/cckfRW2a.s:649    .text:00000000000003e8 .L0 
     /tmp/cckfRW2a.s:651    .text:00000000000003ec .L0 
     /tmp/cckfRW2a.s:655    .text:00000000000003f0 .L0 
     /tmp/cckfRW2a.s:659    .text:00000000000003f0 .L0 
     /tmp/cckfRW2a.s:660    .text:00000000000003f0 .L0 
     /tmp/cckfRW2a.s:665    .text:0000000000000400 .L0 
     /tmp/cckfRW2a.s:666    .text:0000000000000400 .L0 
     /tmp/cckfRW2a.s:670    .text:0000000000000410 .L0 
     /tmp/cckfRW2a.s:671    .text:0000000000000410 .L0 
     /tmp/cckfRW2a.s:675    .text:0000000000000420 .L0 
     /tmp/cckfRW2a.s:676    .text:0000000000000420 .L0 
     /tmp/cckfRW2a.s:680    .text:000000000000042c .L0 
     /tmp/cckfRW2a.s:681    .text:000000000000042c .L0 
     /tmp/cckfRW2a.s:685    .text:000000000000043c .L0 
     /tmp/cckfRW2a.s:686    .text:000000000000043c .L0 
     /tmp/cckfRW2a.s:689    .text:0000000000000444 .L0 
     /tmp/cckfRW2a.s:690    .text:0000000000000444 .L0 
     /tmp/cckfRW2a.s:698    .text:000000000000044c .L0 
     /tmp/cckfRW2a.s:699    .text:000000000000044c .L0 
     /tmp/cckfRW2a.s:704    .text:000000000000045c .L0 
     /tmp/cckfRW2a.s:705    .text:000000000000045c .L0 
     /tmp/cckfRW2a.s:709    .text:000000000000046c .L0 
     /tmp/cckfRW2a.s:710    .text:000000000000046c .L0 
     /tmp/cckfRW2a.s:714    .text:000000000000047c .L0 
     /tmp/cckfRW2a.s:715    .text:000000000000047c .L0 
     /tmp/cckfRW2a.s:719    .text:0000000000000488 .L0 
     /tmp/cckfRW2a.s:720    .text:0000000000000488 .L0 
     /tmp/cckfRW2a.s:724    .text:0000000000000498 .L0 
     /tmp/cckfRW2a.s:725    .text:0000000000000498 .L0 
GAS LISTING /tmp/cckfRW2a.s 			page 33


     /tmp/cckfRW2a.s:728    .text:00000000000004a0 .L0 
     /tmp/cckfRW2a.s:729    .text:00000000000004a0 .L0 
     /tmp/cckfRW2a.s:733    .text:00000000000004a8 .L0 
     /tmp/cckfRW2a.s:739    .text:00000000000004a8 _Z16doInitialAssertsv
     /tmp/cckfRW2a.s:742    .text:00000000000004a8 .L0 
     /tmp/cckfRW2a.s:743    .text:00000000000004a8 .L0 
     /tmp/cckfRW2a.s:745    .text:00000000000004a8 .L0 
     /tmp/cckfRW2a.s:746    .text:00000000000004a8 .L0 
     /tmp/cckfRW2a.s:747    .text:00000000000004a8 .L0 
     /tmp/cckfRW2a.s:748    .text:00000000000004a8 .L0 
     /tmp/cckfRW2a.s:760    .text:00000000000004d0 .L0 
     /tmp/cckfRW2a.s:766    .text:00000000000004d8 .L0 
     /tmp/cckfRW2a.s:767    .text:00000000000004dc .L0 
     /tmp/cckfRW2a.s:770    .text:00000000000004e4 .L0 
     /tmp/cckfRW2a.s:771    .text:00000000000004e4 .L0 
     /tmp/cckfRW2a.s:773    .text:00000000000004e8 .L0 
     /tmp/cckfRW2a.s:777    .text:00000000000004e8 .L0 
     /tmp/cckfRW2a.s:778    .text:00000000000004e8 .L0 
     /tmp/cckfRW2a.s:782    .text:00000000000004f8 .L0 
     /tmp/cckfRW2a.s:783    .text:00000000000004f8 .L0 
     /tmp/cckfRW2a.s:787    .text:0000000000000508 .L0 
     /tmp/cckfRW2a.s:788    .text:0000000000000508 .L0 
     /tmp/cckfRW2a.s:792    .text:0000000000000518 .L0 
     /tmp/cckfRW2a.s:793    .text:0000000000000518 .L0 
     /tmp/cckfRW2a.s:797    .text:0000000000000524 .L0 
     /tmp/cckfRW2a.s:798    .text:0000000000000524 .L0 
     /tmp/cckfRW2a.s:802    .text:0000000000000534 .L0 
     /tmp/cckfRW2a.s:803    .text:0000000000000534 .L0 
     /tmp/cckfRW2a.s:806    .text:000000000000053c .L0 
     /tmp/cckfRW2a.s:807    .text:000000000000053c .L0 
     /tmp/cckfRW2a.s:811    .text:0000000000000544 .L0 
     /tmp/cckfRW2a.s:817    .text:0000000000000544 _Z19initInterruptVectorv
     /tmp/cckfRW2a.s:820    .text:0000000000000544 .L0 
     /tmp/cckfRW2a.s:821    .text:0000000000000544 .L0 
     /tmp/cckfRW2a.s:822    .text:0000000000000548 .L0 
     /tmp/cckfRW2a.s:824    .text:000000000000054c .L0 
     /tmp/cckfRW2a.s:826    .text:0000000000000550 .L0 
     /tmp/cckfRW2a.s:828    .text:0000000000000550 .L0 
     /tmp/cckfRW2a.s:829    .text:0000000000000550 .L0 
     /tmp/cckfRW2a.s:835    .text:000000000000055c .L0 
        src/main.cpp:127    .text:000000000000055c .L0 
     /tmp/cckfRW2a.s:840    .text:0000000000000560 .L0 
        src/main.cpp:128    .text:0000000000000560 .L0 
     /tmp/cckfRW2a.s:846    .text:0000000000000564 .L0 
     /tmp/cckfRW2a.s:847    .text:0000000000000568 .L0 
     /tmp/cckfRW2a.s:848    .text:0000000000000568 .L0 
     /tmp/cckfRW2a.s:850    .text:000000000000056c .L0 
     /tmp/cckfRW2a.s:852    .text:0000000000000570 .L0 
     /tmp/cckfRW2a.s:858    .text:0000000000000570 main
     /tmp/cckfRW2a.s:861    .text:0000000000000570 .L0 
     /tmp/cckfRW2a.s:862    .text:0000000000000570 .L0 
     /tmp/cckfRW2a.s:863    .text:0000000000000574 .L0 
     /tmp/cckfRW2a.s:867    .text:0000000000000580 .L0 
     /tmp/cckfRW2a.s:868    .text:0000000000000580 .L0 
     /tmp/cckfRW2a.s:869    .text:0000000000000580 .L0 
     /tmp/cckfRW2a.s:871    .text:0000000000000584 .L0 
     /tmp/cckfRW2a.s:873    .text:0000000000000584 .L0 
GAS LISTING /tmp/cckfRW2a.s 			page 34


     /tmp/cckfRW2a.s:874    .text:0000000000000584 .L0 
     /tmp/cckfRW2a.s:877    .text:000000000000058c .L0 
     /tmp/cckfRW2a.s:878    .text:000000000000058c .L0 
     /tmp/cckfRW2a.s:881    .text:0000000000000594 .L0 
     /tmp/cckfRW2a.s:882    .text:0000000000000594 .L0 
     /tmp/cckfRW2a.s:885    .text:000000000000059c .L0 
     /tmp/cckfRW2a.s:886    .text:000000000000059c .L0 
        src/main.cpp:51     .text:000000000000059c .L0 
     /tmp/cckfRW2a.s:893    .text:00000000000005a0 .L0 
     /tmp/cckfRW2a.s:895    .text:00000000000005a0 .L0 
     /tmp/cckfRW2a.s:898    .text:00000000000005ac .L0 
     /tmp/cckfRW2a.s:899    .text:00000000000005ac .L0 
     /tmp/cckfRW2a.s:903    .text:00000000000005b8 .L0 
     /tmp/cckfRW2a.s:915    .text:00000000000005ec .L0 
     /tmp/cckfRW2a.s:916    .text:00000000000005ec .L0 
     /tmp/cckfRW2a.s:918    .text:00000000000005f0 .L0 
     /tmp/cckfRW2a.s:919    .text:00000000000005f0 .L0 
     /tmp/cckfRW2a.s:922    .text:00000000000005fc .L0 
     /tmp/cckfRW2a.s:923    .text:00000000000005fc .L0 
     /tmp/cckfRW2a.s:924    .text:00000000000005fc .L0 
     /tmp/cckfRW2a.s:930    .text:0000000000000614 .L0 
     /tmp/cckfRW2a.s:931    .text:0000000000000614 .L0 
     /tmp/cckfRW2a.s:936    .text:0000000000000624 .L0 
     /tmp/cckfRW2a.s:939    .text:0000000000000630 .L0 
        src/main.cpp:63     .text:0000000000000630 .L0 
     /tmp/cckfRW2a.s:945    .text:0000000000000634 .L0 
        src/main.cpp:64     .text:0000000000000634 .L0 
     /tmp/cckfRW2a.s:950    .text:0000000000000638 .L0 
        src/main.cpp:66     .text:0000000000000638 .L0 
     /tmp/cckfRW2a.s:955    .text:000000000000063c .L0 
     /tmp/cckfRW2a.s:957    .text:000000000000063c .L0 
     /tmp/cckfRW2a.s:959    .text:0000000000000644 .L0 
     /tmp/cckfRW2a.s:961    .text:0000000000000648 .L0 
     /tmp/cckfRW2a.s:962    .text:0000000000000648 .L0 
     /tmp/cckfRW2a.s:964    .text:000000000000064c .L0 
     /tmp/cckfRW2a.s:966    .text:0000000000000650 .L0 
     /tmp/cckfRW2a.s:968    .text:0000000000000654 .L0 
     /tmp/cckfRW2a.s:973    .text:0000000000000654 _GLOBAL__sub_I_kernelThread
     /tmp/cckfRW2a.s:976    .text:0000000000000654 .L0 
     /tmp/cckfRW2a.s:977    .text:0000000000000654 .L0 
     /tmp/cckfRW2a.s:978    .text:0000000000000658 .L0 
     /tmp/cckfRW2a.s:981    .text:0000000000000660 .L0 
     /tmp/cckfRW2a.s:982    .text:0000000000000660 .L0 
     /tmp/cckfRW2a.s:984    .text:0000000000000664 .L0 
     /tmp/cckfRW2a.s:986    .text:0000000000000664 .L0 
     /tmp/cckfRW2a.s:992    .text:000000000000067c .L0 
     /tmp/cckfRW2a.s:994    .text:0000000000000680 .L0 
     /tmp/cckfRW2a.s:995    .text:0000000000000680 .L0 
     /tmp/cckfRW2a.s:997    .text:0000000000000684 .L0 
     /tmp/cckfRW2a.s:999    .text:0000000000000688 .L0 
     /tmp/cckfRW2a.s:1025   .bss:0000000000000000 kernelThread
     /tmp/cckfRW2a.s:1022   .bss:0000000000000000 .LANCHOR0
     /tmp/cckfRW2a.s:1033   .text:0000000000000688 .L0 
     /tmp/cckfRW2a.s:583    .text._Z7_assertbPKci:0000000000000080 .L0 
     /tmp/cckfRW2a.s:27     .text:0000000000000010 .L0 
     /tmp/cckfRW2a.s:48     .text:0000000000000030 .L0 
     /tmp/cckfRW2a.s:59     .text:0000000000000040 .L0 
GAS LISTING /tmp/cckfRW2a.s 			page 35


     /tmp/cckfRW2a.s:103    .text:0000000000000080 .L0 
     /tmp/cckfRW2a.s:162    .text:00000000000000b8 .L0 
     /tmp/cckfRW2a.s:117    .rodata.str1.8:0000000000000000 .LC0
     /tmp/cckfRW2a.s:189    .text:00000000000000d8 .L0 
     /tmp/cckfRW2a.s:120    .rodata.str1.8:0000000000000028 .LC1
     /tmp/cckfRW2a.s:195    .text:00000000000000e8 .L0 
     /tmp/cckfRW2a.s:123    .rodata.str1.8:0000000000000038 .LC2
     /tmp/cckfRW2a.s:200    .text:00000000000000f8 .L0 
     /tmp/cckfRW2a.s:126    .rodata.str1.8:0000000000000048 .LC3
     /tmp/cckfRW2a.s:210    .text:0000000000000114 .L0 
     /tmp/cckfRW2a.s:228    .text:0000000000000134 .L0 
     /tmp/cckfRW2a.s:234    .text:0000000000000144 .L0 
     /tmp/cckfRW2a.s:239    .text:0000000000000154 .L0 
     /tmp/cckfRW2a.s:249    .text:0000000000000170 .L0 
     /tmp/cckfRW2a.s:272    .text:0000000000000194 .L0 
     /tmp/cckfRW2a.s:287    .text:00000000000001b0 .L0 
     /tmp/cckfRW2a.s:294    .text:00000000000001bc .L0 
     /tmp/cckfRW2a.s:304    .text:00000000000001d4 .L0 
     /tmp/cckfRW2a.s:312    .text:00000000000001e4 .L0 
     /tmp/cckfRW2a.s:320    .text:00000000000001f4 .L0 
     /tmp/cckfRW2a.s:327    .text:0000000000000200 .L0 
     /tmp/cckfRW2a.s:337    .text:0000000000000218 .L0 
     /tmp/cckfRW2a.s:344    .text:0000000000000224 .L0 
     /tmp/cckfRW2a.s:352    .text:0000000000000234 .L0 
     /tmp/cckfRW2a.s:359    .text:0000000000000240 .L0 
     /tmp/cckfRW2a.s:369    .text:0000000000000258 .L0 
     /tmp/cckfRW2a.s:376    .text:0000000000000264 .L0 
     /tmp/cckfRW2a.s:384    .text:0000000000000274 .L0 
     /tmp/cckfRW2a.s:391    .text:0000000000000280 .L0 
     /tmp/cckfRW2a.s:401    .text:0000000000000298 .L0 
     /tmp/cckfRW2a.s:408    .text:00000000000002a4 .L0 
     /tmp/cckfRW2a.s:416    .text:00000000000002b4 .L0 
     /tmp/cckfRW2a.s:423    .text:00000000000002c0 .L0 
     /tmp/cckfRW2a.s:433    .text:00000000000002d8 .L0 
     /tmp/cckfRW2a.s:440    .text:00000000000002e4 .L0 
     /tmp/cckfRW2a.s:448    .text:00000000000002f4 .L0 
     /tmp/cckfRW2a.s:455    .text:0000000000000300 .L0 
     /tmp/cckfRW2a.s:465    .text:0000000000000318 .L0 
     /tmp/cckfRW2a.s:472    .text:0000000000000324 .L0 
     /tmp/cckfRW2a.s:480    .text:0000000000000334 .L0 
     /tmp/cckfRW2a.s:487    .text:0000000000000340 .L0 
     /tmp/cckfRW2a.s:497    .text:0000000000000358 .L0 
     /tmp/cckfRW2a.s:624    .text:00000000000003b0 .L0 
     /tmp/cckfRW2a.s:660    .text:00000000000003f0 .L0 
     /tmp/cckfRW2a.s:666    .text:0000000000000400 .L0 
     /tmp/cckfRW2a.s:671    .text:0000000000000410 .L0 
     /tmp/cckfRW2a.s:681    .text:000000000000042c .L0 
     /tmp/cckfRW2a.s:699    .text:000000000000044c .L0 
     /tmp/cckfRW2a.s:705    .text:000000000000045c .L0 
     /tmp/cckfRW2a.s:710    .text:000000000000046c .L0 
     /tmp/cckfRW2a.s:720    .text:0000000000000488 .L0 
     /tmp/cckfRW2a.s:748    .text:00000000000004a8 .L0 
     /tmp/cckfRW2a.s:750    .text:00000000000004b4 .L0 
     /tmp/cckfRW2a.s:778    .text:00000000000004e8 .L0 
     /tmp/cckfRW2a.s:783    .text:00000000000004f8 .L0 
     /tmp/cckfRW2a.s:788    .text:0000000000000508 .L0 
     /tmp/cckfRW2a.s:798    .text:0000000000000524 .L0 
GAS LISTING /tmp/cckfRW2a.s 			page 36


     /tmp/cckfRW2a.s:829    .text:0000000000000550 .L0 
     /tmp/cckfRW2a.s:895    .text:00000000000005a0 .L0 
     /tmp/cckfRW2a.s:906    .text:00000000000005c4 .L0 
     /tmp/cckfRW2a.s:910    .text:00000000000005d8 .L0 
     /tmp/cckfRW2a.s:919    .text:00000000000005f0 .L0 
     /tmp/cckfRW2a.s:925    .text:0000000000000600 .L0 
     /tmp/cckfRW2a.s:936    .text:0000000000000624 .L0 
     /tmp/cckfRW2a.s:52     .text:000000000000003c .L3
     /tmp/cckfRW2a.s:31     .text:0000000000000020 .L5
     /tmp/cckfRW2a.s:39     .text:0000000000000024 .L2
     /tmp/cckfRW2a.s:91     .text:0000000000000074 .L9
     /tmp/cckfRW2a.s:83     .text:0000000000000068 .L6
     /tmp/cckfRW2a.s:183    .text:00000000000000d8 .L23
     /tmp/cckfRW2a.s:221    .text:0000000000000134 .L24
     /tmp/cckfRW2a.s:278    .text:00000000000001a8 .L21
     /tmp/cckfRW2a.s:499    .text:0000000000000364 .L10
     /tmp/cckfRW2a.s:305    .text:00000000000001dc .L14
     /tmp/cckfRW2a.s:338    .text:0000000000000220 .L15
     /tmp/cckfRW2a.s:370    .text:0000000000000260 .L16
     /tmp/cckfRW2a.s:402    .text:00000000000002a0 .L17
     /tmp/cckfRW2a.s:434    .text:00000000000002e0 .L18
     /tmp/cckfRW2a.s:466    .text:0000000000000320 .L19
     /tmp/cckfRW2a.s:260    .text:0000000000000190 .L20
     /tmp/cckfRW2a.s:654    .text:00000000000003f0 .L36
     /tmp/cckfRW2a.s:692    .text:000000000000044c .L37
     /tmp/cckfRW2a.s:762    .text:00000000000004d8 .L43
     /tmp/cckfRW2a.s:548    .text._Z7_assertbPKci:0000000000000028 .L0 
     /tmp/cckfRW2a.s:559    .text._Z7_assertbPKci:0000000000000044 .L0 
     /tmp/cckfRW2a.s:569    .text._Z7_assertbPKci:0000000000000060 .L0 
     /tmp/cckfRW2a.s:530    .text._Z7_assertbPKci:0000000000000008 .L31
     /tmp/cckfRW2a.s:3042   .debug_abbrev:0000000000000000 .Ldebug_abbrev0
     /tmp/cckfRW2a.s:4951   .debug_str:0000000000000716 .LASF133
     /tmp/cckfRW2a.s:4825   .debug_str:0000000000000388 .LASF134
     /tmp/cckfRW2a.s:4901   .debug_str:0000000000000593 .LASF135
     /tmp/cckfRW2a.s:4659   .debug_ranges:0000000000000000 .Ldebug_ranges0
     /tmp/cckfRW2a.s:4709   .debug_line:0000000000000000 .Ldebug_line0
     /tmp/cckfRW2a.s:4861   .debug_str:0000000000000485 .LASF0
     /tmp/cckfRW2a.s:4877   .debug_str:00000000000004f4 .LASF1
     /tmp/cckfRW2a.s:4843   .debug_str:0000000000000416 .LASF2
     /tmp/cckfRW2a.s:4815   .debug_str:0000000000000347 .LASF4
     /tmp/cckfRW2a.s:4927   .debug_str:0000000000000663 .LASF3
     /tmp/cckfRW2a.s:4739   .debug_str:000000000000011e .LASF5
     /tmp/cckfRW2a.s:4881   .debug_str:000000000000051a .LASF6
     /tmp/cckfRW2a.s:4859   .debug_str:0000000000000472 .LASF7
     /tmp/cckfRW2a.s:4963   .debug_str:0000000000000829 .LASF8
     /tmp/cckfRW2a.s:4795   .debug_str:00000000000002bb .LASF9
     /tmp/cckfRW2a.s:4897   .debug_str:000000000000056d .LASF10
     /tmp/cckfRW2a.s:4953   .debug_str:00000000000007da .LASF11
     /tmp/cckfRW2a.s:4741   .debug_str:0000000000000125 .LASF12
     /tmp/cckfRW2a.s:4721   .debug_str:0000000000000083 .LASF13
     /tmp/cckfRW2a.s:4751   .debug_str:0000000000000174 .LASF14
     /tmp/cckfRW2a.s:4917   .debug_str:00000000000005ff .LASF15
     /tmp/cckfRW2a.s:4763   .debug_str:00000000000001bd .LASF16
     /tmp/cckfRW2a.s:4845   .debug_str:0000000000000424 .LASF33
     /tmp/cckfRW2a.s:4793   .debug_str:00000000000002a8 .LASF81
     /tmp/cckfRW2a.s:4941   .debug_str:00000000000006d8 .LASF20
     /tmp/cckfRW2a.s:4799   .debug_str:00000000000002d8 .LASF17
GAS LISTING /tmp/cckfRW2a.s 			page 37


     /tmp/cckfRW2a.s:4945   .debug_str:00000000000006fa .LASF18
     /tmp/cckfRW2a.s:4981   .debug_str:000000000000089a .LASF19
     /tmp/cckfRW2a.s:4715   .debug_str:0000000000000020 .LASF22
     /tmp/cckfRW2a.s:4857   .debug_str:0000000000000468 .LASF24
     /tmp/cckfRW2a.s:4811   .debug_str:0000000000000331 .LASF21
     /tmp/cckfRW2a.s:4839   .debug_str:00000000000003ea .LASF23
     /tmp/cckfRW2a.s:4781   .debug_str:000000000000024c .LASF25
     /tmp/cckfRW2a.s:4979   .debug_str:0000000000000891 .LASF26
     /tmp/cckfRW2a.s:4745   .debug_str:000000000000013a .LASF28
     /tmp/cckfRW2a.s:4889   .debug_str:000000000000054b .LASF27
     /tmp/cckfRW2a.s:4805   .debug_str:0000000000000302 .LASF29
     /tmp/cckfRW2a.s:4961   .debug_str:0000000000000818 .LASF30
     /tmp/cckfRW2a.s:4719   .debug_str:0000000000000062 .LASF31
     /tmp/cckfRW2a.s:4985   .debug_str:00000000000008a9 .LASF51
     /tmp/cckfRW2a.s:4987   .debug_str:00000000000008bc .LASF53
     /tmp/cckfRW2a.s:4831   .debug_str:00000000000003bc .LASF32
     /tmp/cckfRW2a.s:4875   .debug_str:00000000000004e3 .LASF34
     /tmp/cckfRW2a.s:4885   .debug_str:0000000000000541 .LASF35
     /tmp/cckfRW2a.s:4711   .debug_str:0000000000000000 .LASF36
     /tmp/cckfRW2a.s:4959   .debug_str:0000000000000811 .LASF37
     /tmp/cckfRW2a.s:4801   .debug_str:00000000000002de .LASF136
     /tmp/cckfRW2a.s:4891   .debug_str:0000000000000553 .LASF38
     /tmp/cckfRW2a.s:4853   .debug_str:0000000000000445 .LASF39
     /tmp/cckfRW2a.s:4895   .debug_str:0000000000000567 .LASF40
     /tmp/cckfRW2a.s:4851   .debug_str:0000000000000438 .LASF41
     /tmp/cckfRW2a.s:4835   .debug_str:00000000000003d9 .LASF42
     /tmp/cckfRW2a.s:4777   .debug_str:0000000000000233 .LASF43
     /tmp/cckfRW2a.s:4873   .debug_str:00000000000004ce .LASF44
     /tmp/cckfRW2a.s:4947   .debug_str:00000000000006ff .LASF45
     /tmp/cckfRW2a.s:4929   .debug_str:0000000000000675 .LASF46
     /tmp/cckfRW2a.s:4813   .debug_str:000000000000033b .LASF47
     /tmp/cckfRW2a.s:4807   .debug_str:000000000000031a .LASF48
     /tmp/cckfRW2a.s:4713   .debug_str:0000000000000009 .LASF49
     /tmp/cckfRW2a.s:4949   .debug_str:000000000000070a .LASF50
     /tmp/cckfRW2a.s:4769   .debug_str:00000000000001ef .LASF56
     /tmp/cckfRW2a.s:4893   .debug_str:000000000000055b .LASF58
     /tmp/cckfRW2a.s:4911   .debug_str:00000000000005cc .LASF60
     /tmp/cckfRW2a.s:4821   .debug_str:000000000000035e .LASF52
     /tmp/cckfRW2a.s:4717   .debug_str:000000000000003d .LASF54
     /tmp/cckfRW2a.s:4909   .debug_str:00000000000005c7 .LASF137
     /tmp/cckfRW2a.s:4837   .debug_str:00000000000003e5 .LASF55
     /tmp/cckfRW2a.s:4737   .debug_str:000000000000010c .LASF57
     /tmp/cckfRW2a.s:4999   .debug_str:0000000000000930 .LASF138
     /tmp/cckfRW2a.s:4863   .debug_str:0000000000000492 .LASF139
     /tmp/cckfRW2a.s:4931   .debug_str:0000000000000686 .LASF59
     /tmp/cckfRW2a.s:4725   .debug_str:000000000000009e .LASF61
     /tmp/cckfRW2a.s:4731   .debug_str:00000000000000ec .LASF62
     /tmp/cckfRW2a.s:4819   .debug_str:0000000000000359 .LASF63
     /tmp/cckfRW2a.s:4869   .debug_str:00000000000004bf .LASF64
     /tmp/cckfRW2a.s:4995   .debug_str:0000000000000906 .LASF65
     /tmp/cckfRW2a.s:4871   .debug_str:00000000000004c4 .LASF66
     /tmp/cckfRW2a.s:4975   .debug_str:0000000000000875 .LASF67
     /tmp/cckfRW2a.s:4849   .debug_str:0000000000000433 .LASF68
     /tmp/cckfRW2a.s:4899   .debug_str:000000000000057c .LASF69
     /tmp/cckfRW2a.s:4913   .debug_str:00000000000005e8 .LASF70
     /tmp/cckfRW2a.s:4887   .debug_str:0000000000000546 .LASF71
     /tmp/cckfRW2a.s:4823   .debug_str:000000000000036b .LASF72
GAS LISTING /tmp/cckfRW2a.s 			page 38


     /tmp/cckfRW2a.s:4723   .debug_str:0000000000000093 .LASF73
     /tmp/cckfRW2a.s:4785   .debug_str:000000000000025c .LASF74
     /tmp/cckfRW2a.s:4775   .debug_str:0000000000000228 .LASF75
     /tmp/cckfRW2a.s:4943   .debug_str:00000000000006e1 .LASF76
     /tmp/cckfRW2a.s:4935   .debug_str:000000000000069d .LASF77
     /tmp/cckfRW2a.s:4865   .debug_str:00000000000004ad .LASF78
     /tmp/cckfRW2a.s:4783   .debug_str:0000000000000257 .LASF79
     /tmp/cckfRW2a.s:4809   .debug_str:0000000000000329 .LASF80
     /tmp/cckfRW2a.s:4955   .debug_str:00000000000007e9 .LASF82
     /tmp/cckfRW2a.s:4841   .debug_str:0000000000000408 .LASF83
     /tmp/cckfRW2a.s:4765   .debug_str:00000000000001d3 .LASF84
     /tmp/cckfRW2a.s:4971   .debug_str:000000000000085b .LASF85
     /tmp/cckfRW2a.s:4797   .debug_str:00000000000002c9 .LASF86
     /tmp/cckfRW2a.s:4743   .debug_str:0000000000000135 .LASF87
     /tmp/cckfRW2a.s:4879   .debug_str:0000000000000507 .LASF88
     /tmp/cckfRW2a.s:4773   .debug_str:0000000000000223 .LASF89
     /tmp/cckfRW2a.s:4735   .debug_str:00000000000000f9 .LASF90
     /tmp/cckfRW2a.s:4977   .debug_str:0000000000000882 .LASF91
     /tmp/cckfRW2a.s:4803   .debug_str:00000000000002e4 .LASF92
     /tmp/cckfRW2a.s:4919   .debug_str:0000000000000615 .LASF93
     /tmp/cckfRW2a.s:4779   .debug_str:000000000000023f .LASF94
     /tmp/cckfRW2a.s:4827   .debug_str:0000000000000395 .LASF95
     /tmp/cckfRW2a.s:974    .text:0000000000000654 .LFB25
     /tmp/cckfRW2a.s:1000   .text:0000000000000688 .LFE25
     /tmp/cckfRW2a.s:990    .text:0000000000000678 .LVL108
     /tmp/cckfRW2a.s:4923   .debug_str:000000000000062e .LASF96
     /tmp/cckfRW2a.s:70     .text:0000000000000054 .LFB24
     /tmp/cckfRW2a.s:113    .text:0000000000000094 .LFE24
     /tmp/cckfRW2a.s:4833   .debug_str:00000000000003ca .LASF97
     /tmp/cckfRW2a.s:4903   .debug_str:00000000000005a7 .LASF98
     /tmp/cckfRW2a.s:98     .text:0000000000000080 .LBB58
     /tmp/cckfRW2a.s:109    .text:0000000000000090 .LBE58
     /tmp/cckfRW2a.s:4250   .debug_loc:0000000000000000 .LLST1
     /tmp/cckfRW2a.s:4883   .debug_str:000000000000052d .LASF140
     /tmp/cckfRW2a.s:4855   .debug_str:000000000000044f .LASF141
     /tmp/cckfRW2a.s:818    .text:0000000000000544 .LFB23
     /tmp/cckfRW2a.s:853    .text:0000000000000570 .LFE23
     /tmp/cckfRW2a.s:4939   .debug_str:00000000000006c7 .LASF99
     /tmp/cckfRW2a.s:4957   .debug_str:00000000000007fb .LASF100
     /tmp/cckfRW2a.s:740    .text:00000000000004a8 .LFB22
     /tmp/cckfRW2a.s:812    .text:0000000000000544 .LFE22
     /tmp/cckfRW2a.s:757    .text:00000000000004d0 .LBB162
     /tmp/cckfRW2a.s:4259   .debug_loc:000000000000002c .LLST26
     /tmp/cckfRW2a.s:780    .text:00000000000004f8 .LVL91
     /tmp/cckfRW2a.s:785    .text:0000000000000508 .LVL92
     /tmp/cckfRW2a.s:790    .text:0000000000000518 .LVL93
     /tmp/cckfRW2a.s:795    .text:0000000000000524 .LVL94
     /tmp/cckfRW2a.s:800    .text:0000000000000534 .LVL95
     /tmp/cckfRW2a.s:804    .text:000000000000053c .LVL96
     /tmp/cckfRW2a.s:808    .text:0000000000000544 .LVL97
     /tmp/cckfRW2a.s:4969   .debug_str:000000000000084d .LASF101
     /tmp/cckfRW2a.s:4759   .debug_str:00000000000001a1 .LASF102
     /tmp/cckfRW2a.s:588    .text:0000000000000378 .LFB21
     /tmp/cckfRW2a.s:734    .text:00000000000004a8 .LFE21
     /tmp/cckfRW2a.s:4791   .debug_str:00000000000002a3 .LASF103
     /tmp/cckfRW2a.s:608    .text:00000000000003a0 .LBB152
     /tmp/cckfRW2a.s:4275   .debug_loc:000000000000006a .LLST20
GAS LISTING /tmp/cckfRW2a.s 			page 39


     /tmp/cckfRW2a.s:4290   .debug_loc:00000000000000a4 .LLST21
     /tmp/cckfRW2a.s:4305   .debug_loc:00000000000000ec .LLST22
     /tmp/cckfRW2a.s:663    .text:0000000000000400 .LVL74
     /tmp/cckfRW2a.s:668    .text:0000000000000410 .LVL75
     /tmp/cckfRW2a.s:673    .text:0000000000000420 .LVL76
     /tmp/cckfRW2a.s:678    .text:000000000000042c .LVL77
     /tmp/cckfRW2a.s:683    .text:000000000000043c .LVL78
     /tmp/cckfRW2a.s:687    .text:0000000000000444 .LVL79
     /tmp/cckfRW2a.s:691    .text:000000000000044c .LVL80
     /tmp/cckfRW2a.s:637    .text:00000000000003dc .LBB155
     /tmp/cckfRW2a.s:4324   .debug_loc:000000000000012a .LLST23
     /tmp/cckfRW2a.s:4339   .debug_loc:0000000000000164 .LLST24
     /tmp/cckfRW2a.s:4354   .debug_loc:00000000000001ac .LLST25
     /tmp/cckfRW2a.s:702    .text:000000000000045c .LVL82
     /tmp/cckfRW2a.s:707    .text:000000000000046c .LVL83
     /tmp/cckfRW2a.s:712    .text:000000000000047c .LVL84
     /tmp/cckfRW2a.s:717    .text:0000000000000488 .LVL85
     /tmp/cckfRW2a.s:722    .text:0000000000000498 .LVL86
     /tmp/cckfRW2a.s:726    .text:00000000000004a0 .LVL87
     /tmp/cckfRW2a.s:730    .text:00000000000004a8 .LVL88
     /tmp/cckfRW2a.s:602    .text:0000000000000390 .LVL64
     /tmp/cckfRW2a.s:605    .text:0000000000000398 .LVL65
     /tmp/cckfRW2a.s:607    .text:00000000000003a0 .LVL66
     /tmp/cckfRW2a.s:627    .text:00000000000003c4 .LVL68
     /tmp/cckfRW2a.s:631    .text:00000000000003cc .LVL69
     /tmp/cckfRW2a.s:634    .text:00000000000003d4 .LVL70
     /tmp/cckfRW2a.s:636    .text:00000000000003dc .LVL71
     /tmp/cckfRW2a.s:4761   .debug_str:00000000000001b4 .LASF142
     /tmp/cckfRW2a.s:10     .text:0000000000000000 .LFB20
     /tmp/cckfRW2a.s:65     .text:0000000000000054 .LFE20
     /tmp/cckfRW2a.s:4733   .debug_str:00000000000000f2 .LASF104
     /tmp/cckfRW2a.s:4921   .debug_str:0000000000000625 .LASF105
     /tmp/cckfRW2a.s:4373   .debug_loc:00000000000001ea .LLST0
     /tmp/cckfRW2a.s:4747   .debug_str:0000000000000152 .LASF106
     /tmp/cckfRW2a.s:859    .text:0000000000000570 .LFB19
     /tmp/cckfRW2a.s:969    .text:0000000000000654 .LFE19
     /tmp/cckfRW2a.s:4389   .debug_loc:0000000000000234 .LLST27
     /tmp/cckfRW2a.s:875    .text:000000000000058c .LVL98
     /tmp/cckfRW2a.s:879    .text:0000000000000594 .LVL99
     /tmp/cckfRW2a.s:883    .text:000000000000059c .LVL100
     /tmp/cckfRW2a.s:901    .text:00000000000005b8 .LVL102
     /tmp/cckfRW2a.s:904    .text:00000000000005c0 .LVL103
     /tmp/cckfRW2a.s:913    .text:00000000000005ec .LVL104
     /tmp/cckfRW2a.s:928    .text:0000000000000614 .LVL105
     /tmp/cckfRW2a.s:932    .text:000000000000061c .LVL106
     /tmp/cckfRW2a.s:934    .text:0000000000000624 .LVL107
     /tmp/cckfRW2a.s:4755   .debug_str:0000000000000190 .LASF107
     /tmp/cckfRW2a.s:4933   .debug_str:000000000000068b .LASF108
     /tmp/cckfRW2a.s:133    .text:0000000000000094 .LFB18
     /tmp/cckfRW2a.s:516    .text:0000000000000378 .LFE18
     /tmp/cckfRW2a.s:4396   .debug_loc:0000000000000257 .LLST2
     /tmp/cckfRW2a.s:4421   .debug_loc:00000000000002b9 .LLST9
     /tmp/cckfRW2a.s:264    .text:0000000000000190 .LBB108
     /tmp/cckfRW2a.s:483    .text:0000000000000340 .LBB110
     /tmp/cckfRW2a.s:494    .text:0000000000000354 .LBE110
     /tmp/cckfRW2a.s:4433   .debug_loc:00000000000002f0 .LLST10
     /tmp/cckfRW2a.s:283    .text:00000000000001b0 .LBB114
GAS LISTING /tmp/cckfRW2a.s 			page 40


     /tmp/cckfRW2a.s:308    .text:00000000000001dc .LBE114
     /tmp/cckfRW2a.s:290    .text:00000000000001bc .LBB116
     /tmp/cckfRW2a.s:301    .text:00000000000001d0 .LBE116
     /tmp/cckfRW2a.s:4442   .debug_loc:000000000000031c .LLST11
     /tmp/cckfRW2a.s:316    .text:00000000000001f4 .LBB119
     /tmp/cckfRW2a.s:341    .text:0000000000000220 .LBE119
     /tmp/cckfRW2a.s:323    .text:0000000000000200 .LBB121
     /tmp/cckfRW2a.s:334    .text:0000000000000214 .LBE121
     /tmp/cckfRW2a.s:4451   .debug_loc:0000000000000348 .LLST12
     /tmp/cckfRW2a.s:348    .text:0000000000000234 .LBB124
     /tmp/cckfRW2a.s:373    .text:0000000000000260 .LBE124
     /tmp/cckfRW2a.s:355    .text:0000000000000240 .LBB126
     /tmp/cckfRW2a.s:366    .text:0000000000000254 .LBE126
     /tmp/cckfRW2a.s:4460   .debug_loc:0000000000000374 .LLST13
     /tmp/cckfRW2a.s:380    .text:0000000000000274 .LBB129
     /tmp/cckfRW2a.s:405    .text:00000000000002a0 .LBE129
     /tmp/cckfRW2a.s:387    .text:0000000000000280 .LBB131
     /tmp/cckfRW2a.s:398    .text:0000000000000294 .LBE131
     /tmp/cckfRW2a.s:4469   .debug_loc:00000000000003a0 .LLST14
     /tmp/cckfRW2a.s:412    .text:00000000000002b4 .LBB134
     /tmp/cckfRW2a.s:437    .text:00000000000002e0 .LBE134
     /tmp/cckfRW2a.s:419    .text:00000000000002c0 .LBB136
     /tmp/cckfRW2a.s:430    .text:00000000000002d4 .LBE136
     /tmp/cckfRW2a.s:4478   .debug_loc:00000000000003cc .LLST15
     /tmp/cckfRW2a.s:444    .text:00000000000002f4 .LBB139
     /tmp/cckfRW2a.s:469    .text:0000000000000320 .LBE139
     /tmp/cckfRW2a.s:451    .text:0000000000000300 .LBB141
     /tmp/cckfRW2a.s:462    .text:0000000000000314 .LBE141
     /tmp/cckfRW2a.s:4487   .debug_loc:00000000000003f8 .LLST16
     /tmp/cckfRW2a.s:274    .text:00000000000001a4 .LVL32
     /tmp/cckfRW2a.s:314    .text:00000000000001f4 .LVL36
     /tmp/cckfRW2a.s:346    .text:0000000000000234 .LVL39
     /tmp/cckfRW2a.s:378    .text:0000000000000274 .LVL42
     /tmp/cckfRW2a.s:410    .text:00000000000002b4 .LVL45
     /tmp/cckfRW2a.s:442    .text:00000000000002f4 .LVL48
     /tmp/cckfRW2a.s:474    .text:0000000000000334 .LVL51
     /tmp/cckfRW2a.s:149    .text:00000000000000a8 .LBB101
     /tmp/cckfRW2a.s:4496   .debug_loc:0000000000000424 .LLST3
     /tmp/cckfRW2a.s:4509   .debug_loc:000000000000045c .LLST4
     /tmp/cckfRW2a.s:4524   .debug_loc:00000000000004a4 .LLST5
     /tmp/cckfRW2a.s:192    .text:00000000000000e8 .LVL17
     /tmp/cckfRW2a.s:197    .text:00000000000000f8 .LVL18
     /tmp/cckfRW2a.s:202    .text:0000000000000108 .LVL19
     /tmp/cckfRW2a.s:207    .text:0000000000000114 .LVL20
     /tmp/cckfRW2a.s:212    .text:0000000000000124 .LVL21
     /tmp/cckfRW2a.s:216    .text:000000000000012c .LVL22
     /tmp/cckfRW2a.s:220    .text:0000000000000134 .LVL23
     /tmp/cckfRW2a.s:165    .text:00000000000000c4 .LBB104
     /tmp/cckfRW2a.s:4552   .debug_loc:00000000000004fa .LLST6
     /tmp/cckfRW2a.s:4565   .debug_loc:0000000000000532 .LLST7
     /tmp/cckfRW2a.s:4580   .debug_loc:000000000000057a .LLST8
     /tmp/cckfRW2a.s:231    .text:0000000000000144 .LVL25
     /tmp/cckfRW2a.s:236    .text:0000000000000154 .LVL26
     /tmp/cckfRW2a.s:241    .text:0000000000000164 .LVL27
     /tmp/cckfRW2a.s:246    .text:0000000000000170 .LVL28
     /tmp/cckfRW2a.s:251    .text:0000000000000180 .LVL29
     /tmp/cckfRW2a.s:255    .text:0000000000000188 .LVL30
GAS LISTING /tmp/cckfRW2a.s 			page 41


     /tmp/cckfRW2a.s:259    .text:0000000000000190 .LVL31
     /tmp/cckfRW2a.s:160    .text:00000000000000b4 .LVL11
     /tmp/cckfRW2a.s:176    .text:00000000000000d0 .LVL14
     /tmp/cckfRW2a.s:4905   .debug_str:00000000000005b2 .LASF109
     /tmp/cckfRW2a.s:4973   .debug_str:0000000000000865 .LASF110
     /tmp/cckfRW2a.s:4867   .debug_str:00000000000004b6 .LASF143
     /tmp/cckfRW2a.s:4749   .debug_str:0000000000000157 .LASF144
     /tmp/cckfRW2a.s:4965   .debug_str:0000000000000839 .LASF111
     /tmp/cckfRW2a.s:4915   .debug_str:00000000000005f7 .LASF112
     /tmp/cckfRW2a.s:4991   .debug_str:00000000000008e6 .LASF113
     /tmp/cckfRW2a.s:4847   .debug_str:000000000000042d .LASF114
     /tmp/cckfRW2a.s:4757   .debug_str:000000000000019c .LASF115
     /tmp/cckfRW2a.s:4967   .debug_str:0000000000000848 .LASF116
     /tmp/cckfRW2a.s:523    .text._Z7_assertbPKci:0000000000000000 .LFB0
     /tmp/cckfRW2a.s:581    .text._Z7_assertbPKci:0000000000000080 .LFE0
     /tmp/cckfRW2a.s:4605   .debug_loc:00000000000005be .LLST17
     /tmp/cckfRW2a.s:4619   .debug_loc:00000000000005f7 .LLST18
     /tmp/cckfRW2a.s:4630   .debug_loc:000000000000062d .LLST19
     /tmp/cckfRW2a.s:551    .text._Z7_assertbPKci:0000000000000038 .LVL57
     /tmp/cckfRW2a.s:556    .text._Z7_assertbPKci:0000000000000044 .LVL58
     /tmp/cckfRW2a.s:561    .text._Z7_assertbPKci:0000000000000054 .LVL59
     /tmp/cckfRW2a.s:566    .text._Z7_assertbPKci:0000000000000060 .LVL60
     /tmp/cckfRW2a.s:571    .text._Z7_assertbPKci:0000000000000070 .LVL61
     /tmp/cckfRW2a.s:575    .text._Z7_assertbPKci:0000000000000078 .LVL62
     /tmp/cckfRW2a.s:579    .text._Z7_assertbPKci:0000000000000080 .LVL63
     /tmp/cckfRW2a.s:4993   .debug_str:00000000000008f6 .LASF117
     /tmp/cckfRW2a.s:4983   .debug_str:000000000000089f .LASF119
     /tmp/cckfRW2a.s:4817   .debug_str:000000000000034e .LASF118
     /tmp/cckfRW2a.s:4989   .debug_str:00000000000008df .LASF120
     /tmp/cckfRW2a.s:4937   .debug_str:00000000000006b7 .LASF121
     /tmp/cckfRW2a.s:4925   .debug_str:0000000000000658 .LASF122
     /tmp/cckfRW2a.s:4907   .debug_str:00000000000005b7 .LASF123
     /tmp/cckfRW2a.s:4829   .debug_str:00000000000003b1 .LASF124
     /tmp/cckfRW2a.s:4997   .debug_str:0000000000000912 .LASF125
     /tmp/cckfRW2a.s:4789   .debug_str:000000000000028a .LASF126
     /tmp/cckfRW2a.s:4729   .debug_str:00000000000000cf .LASF127
     /tmp/cckfRW2a.s:4767   .debug_str:00000000000001e1 .LASF128
     /tmp/cckfRW2a.s:4787   .debug_str:0000000000000275 .LASF129
     /tmp/cckfRW2a.s:4753   .debug_str:0000000000000180 .LASF130
     /tmp/cckfRW2a.s:4727   .debug_str:00000000000000b0 .LASF131
     /tmp/cckfRW2a.s:4771   .debug_str:0000000000000209 .LASF132
     /tmp/cckfRW2a.s:97     .text:0000000000000080 .LVL6
     /tmp/cckfRW2a.s:106    .text:0000000000000090 .LVL7
     /tmp/cckfRW2a.s:756    .text:00000000000004d0 .LVL90
     /tmp/cckfRW2a.s:613    .text:00000000000003a4 .LVL67
     /tmp/cckfRW2a.s:653    .text:00000000000003f0 .LVL72
     /tmp/cckfRW2a.s:661    .text:00000000000003f8 .LVL73
     /tmp/cckfRW2a.s:700    .text:0000000000000454 .LVL81
     /tmp/cckfRW2a.s:29     .text:000000000000001c .LVL1
     /tmp/cckfRW2a.s:43     .text:0000000000000028 .LVL2
     /tmp/cckfRW2a.s:49     .text:0000000000000038 .LVL3
     /tmp/cckfRW2a.s:51     .text:000000000000003c .LVL4
     /tmp/cckfRW2a.s:891    .text:00000000000005a0 .LVL101
     /tmp/cckfRW2a.s:136    .text:0000000000000094 .LVL8
     /tmp/cckfRW2a.s:182    .text:00000000000000d8 .LVL15
     /tmp/cckfRW2a.s:190    .text:00000000000000e0 .LVL16
     /tmp/cckfRW2a.s:511    .text:0000000000000370 .LVL54
GAS LISTING /tmp/cckfRW2a.s 			page 42


     /tmp/cckfRW2a.s:482    .text:0000000000000340 .LVL52
     /tmp/cckfRW2a.s:491    .text:0000000000000354 .LVL53
     /tmp/cckfRW2a.s:289    .text:00000000000001bc .LVL34
     /tmp/cckfRW2a.s:298    .text:00000000000001d0 .LVL35
     /tmp/cckfRW2a.s:322    .text:0000000000000200 .LVL37
     /tmp/cckfRW2a.s:331    .text:0000000000000214 .LVL38
     /tmp/cckfRW2a.s:354    .text:0000000000000240 .LVL40
     /tmp/cckfRW2a.s:363    .text:0000000000000254 .LVL41
     /tmp/cckfRW2a.s:386    .text:0000000000000280 .LVL43
     /tmp/cckfRW2a.s:395    .text:0000000000000294 .LVL44
     /tmp/cckfRW2a.s:418    .text:00000000000002c0 .LVL46
     /tmp/cckfRW2a.s:427    .text:00000000000002d4 .LVL47
     /tmp/cckfRW2a.s:450    .text:0000000000000300 .LVL49
     /tmp/cckfRW2a.s:459    .text:0000000000000314 .LVL50
     /tmp/cckfRW2a.s:148    .text:00000000000000a8 .LVL9
     /tmp/cckfRW2a.s:155    .text:00000000000000ac .LVL10
     /tmp/cckfRW2a.s:164    .text:00000000000000c4 .LVL12
     /tmp/cckfRW2a.s:170    .text:00000000000000c8 .LVL13
     /tmp/cckfRW2a.s:229    .text:000000000000013c .LVL24
     /tmp/cckfRW2a.s:526    .text._Z7_assertbPKci:0000000000000000 .LVL55
     /tmp/cckfRW2a.s:549    .text._Z7_assertbPKci:0000000000000030 .LVL56
     /tmp/cckfRW2a.s:1034   .debug_info:0000000000000000 .Ldebug_info0
     /tmp/cckfRW2a.s:5      .text:0000000000000000 .Ltext0
     /tmp/cckfRW2a.s:1028   .text:0000000000000688 .Letext0
     /tmp/cckfRW2a.s:157    .text:00000000000000ac .LBE101
     /tmp/cckfRW2a.s:185    .text:00000000000000d8 .LBB145
     /tmp/cckfRW2a.s:223    .text:0000000000000134 .LBE145
     /tmp/cckfRW2a.s:172    .text:00000000000000c8 .LBE104
     /tmp/cckfRW2a.s:224    .text:0000000000000134 .LBB146
     /tmp/cckfRW2a.s:262    .text:0000000000000190 .LBE146
     /tmp/cckfRW2a.s:178    .text:00000000000000d0 .LBB107
     /tmp/cckfRW2a.s:184    .text:00000000000000d8 .LBE107
     /tmp/cckfRW2a.s:263    .text:0000000000000190 .LBB147
     /tmp/cckfRW2a.s:502    .text:0000000000000364 .LBE147
     /tmp/cckfRW2a.s:269    .text:0000000000000190 .LBE108
     /tmp/cckfRW2a.s:476    .text:0000000000000334 .LBB144
     /tmp/cckfRW2a.s:501    .text:0000000000000364 .LBE144
     /tmp/cckfRW2a.s:615    .text:00000000000003a4 .LBE152
     /tmp/cckfRW2a.s:656    .text:00000000000003f0 .LBB158
     /tmp/cckfRW2a.s:694    .text:000000000000044c .LBE158
     /tmp/cckfRW2a.s:642    .text:00000000000003e0 .LBE155
     /tmp/cckfRW2a.s:695    .text:000000000000044c .LBB159
     /tmp/cckfRW2a.s:732    .text:00000000000004a8 .LBE159
     /tmp/cckfRW2a.s:764    .text:00000000000004d8 .LBE162
     /tmp/cckfRW2a.s:774    .text:00000000000004e8 .LBB165
     /tmp/cckfRW2a.s:810    .text:0000000000000544 .LBE165

UNDEFINED SYMBOLS
gTimer
_ZN6Thread11getPRunningEv
_ZN6Thread10pRunningSpE
_Z24enableExternalInterruptsv
_Z9putStringPKc
_Z6putInti
_Z10putNewlinev
_Z10stopKernelv
_ZN7Console4putcEc
GAS LISTING /tmp/cckfRW2a.s 			page 43


_ZN8MemAlloc3getEv
_ZN8MemAlloc16getUserlandUsageEv
_Z13thread_createPmPFvPvES0_
_Z15thread_dispatchv
HEAP_END_ADDR
HEAP_START_ADDR
trapRoutine
_Z25disableExternalInterruptsv
_ZN6Thread11setPRunningEPS_
_ZN6Thread11pAllThreadsE
_ZN6Thread22initialUserMemoryUsageE
