GAS LISTING /tmp/cccdGmMk.s 			page 1


   1              		.file	"main.cpp"
   2              		.option pic
   3              		.option norelax
   4              		.text
   5              	.Ltext0:
   6              		.align	2
   8              	_Z41__static_initialization_and_destruction_0ii:
   9              	.LFB23:
  10              		.file 1 "src/main.cpp"
   1:src/main.cpp  **** #include "../h/alloc.h"
   2:src/main.cpp  **** #include "../h/syscall_c.hpp"
   3:src/main.cpp  **** #include "../h/thread.h"
   4:src/main.cpp  **** #include "../h/scheduler.h"
   5:src/main.cpp  **** #include "../h/0_console.h"
   6:src/main.cpp  **** 
   7:src/main.cpp  **** extern "C" void trapRoutine();
   8:src/main.cpp  **** 
   9:src/main.cpp  **** void myUserMain();
  10:src/main.cpp  **** void doInitialAsserts();
  11:src/main.cpp  **** void initInterruptVector();
  12:src/main.cpp  **** void doBusyWaitThread(void*);
  13:src/main.cpp  **** 
  14:src/main.cpp  **** uint64 fib(uint64 n);
  15:src/main.cpp  **** 
  16:src/main.cpp  **** IThread kernelThread;
  17:src/main.cpp  **** 
  18:src/main.cpp  **** void userWrapper(void* p)
  19:src/main.cpp  **** {
  20:src/main.cpp  ****     assert(p == nullptr);
  21:src/main.cpp  ****     assert(&(IThread::getPRunning()->sp) == IThread::pRunningSp);
  22:src/main.cpp  **** 
  23:src/main.cpp  **** //    enableExternalInterrupts();
  24:src/main.cpp  **** 
  25:src/main.cpp  ****     putString("!!!!");
  26:src/main.cpp  ****     putNewline();
  27:src/main.cpp  ****     IConsole::get()->actualWriteToConsole();
  28:src/main.cpp  **** 
  29:src/main.cpp  **** //    IConsole::get()->writeToConsole();
  30:src/main.cpp  **** 
  31:src/main.cpp  ****     myUserMain();
  32:src/main.cpp  **** }
  33:src/main.cpp  **** 
  34:src/main.cpp  **** int main()
  35:src/main.cpp  **** {
  36:src/main.cpp  ****     disableExternalInterrupts();
  37:src/main.cpp  **** 
  38:src/main.cpp  ****     initInterruptVector();
  39:src/main.cpp  ****     doInitialAsserts();
  40:src/main.cpp  **** 
  41:src/main.cpp  ****     uint64* sp;
  42:src/main.cpp  ****     __asm__ volatile ("mv %[name], sp" : [name] "=r"(sp));
  43:src/main.cpp  ****     kernelThread.sp = sp;
  44:src/main.cpp  ****     IThread::setPRunning(&kernelThread);
  45:src/main.cpp  ****     assert(&(IThread::getPRunning()->sp) == IThread::pRunningSp);
  46:src/main.cpp  ****     kernelThread.id = 0;
  47:src/main.cpp  ****     IThread::pAllThreads[0] = &kernelThread;
  48:src/main.cpp  **** 
GAS LISTING /tmp/cccdGmMk.s 			page 2


  49:src/main.cpp  ****     thread_t busyWaitThread;
  50:src/main.cpp  ****     thread_create(&busyWaitThread, &doBusyWaitThread, nullptr);
  51:src/main.cpp  ****     assert(IThread::pAllThreads[busyWaitThread]->id == BUSY_WAIT_THREAD_ID);
  52:src/main.cpp  ****     Scheduler::get()->getNext();                                                 // get this functi
  53:src/main.cpp  **** 
  54:src/main.cpp  ****     thread_t userThread;
  55:src/main.cpp  ****     thread_create(&userThread, &userWrapper, nullptr);
  56:src/main.cpp  ****     assert(IThread::pAllThreads[userThread]->id == USER_THREAD_ID);
  57:src/main.cpp  **** 
  58:src/main.cpp  ****     IThread::initialUserMemoryUsage = MemAlloc::get()->getUserlandUsage();
  59:src/main.cpp  **** 
  60:src/main.cpp  **** //    plic_claim();
  61:src/main.cpp  **** //    plic_complete(10);
  62:src/main.cpp  **** 
  63:src/main.cpp  **** //    putString("BABAA");
  64:src/main.cpp  **** //    putNewline();
  65:src/main.cpp  **** //    putU64(69420);
  66:src/main.cpp  **** //    putNewline();
  67:src/main.cpp  **** 
  68:src/main.cpp  ****     IThread* a = Scheduler::get()->pHead;
  69:src/main.cpp  **** //    IThread* b = Scheduler::get()->getNext();
  70:src/main.cpp  **** //    assert(a == b);
  71:src/main.cpp  ****     assert(a->id == USER_THREAD_ID);
  72:src/main.cpp  **** 
  73:src/main.cpp  ****     __asm__ volatile ("li a0, 4"); // this is a system call that calls IThread::switchToUser()
  74:src/main.cpp  ****     __asm__ volatile ("ecall");
  75:src/main.cpp  **** 
  76:src/main.cpp  ****     __asm__ volatile ("csrw sscratch, x0"); //TEST permissions
  77:src/main.cpp  **** 
  78:src/main.cpp  ****     return 0;
  79:src/main.cpp  **** }
  80:src/main.cpp  **** 
  81:src/main.cpp  **** void doBusyWaitThread(void* p)
  82:src/main.cpp  **** {
  83:src/main.cpp  ****     assert(p == nullptr);
  84:src/main.cpp  ****     __asm__ volatile("mv x10, x10");
  85:src/main.cpp  **** 
  86:src/main.cpp  ****     volatile uint64 a;
  87:src/main.cpp  ****     while(a++)
  88:src/main.cpp  ****     {
  89:src/main.cpp  ****         assert(IThread::getPRunning()->id == BUSY_WAIT_THREAD_ID);
  90:src/main.cpp  **** 
  91:src/main.cpp  ****         if(IThread::getPRunning()->pNext != nullptr)
  92:src/main.cpp  ****         {
  93:src/main.cpp  ****             __asm__ volatile("mv x10, x10");
  94:src/main.cpp  ****             thread_dispatch();
  95:src/main.cpp  ****         }
  96:src/main.cpp  ****     }
  97:src/main.cpp  **** }
  98:src/main.cpp  **** 
  99:src/main.cpp  **** void doInitialAsserts()
 100:src/main.cpp  **** {
 101:src/main.cpp  ****     assert(sizeof(void*) == 8);
 102:src/main.cpp  ****     assert((((uint64)HEAP_END_ADDR - (uint64)HEAP_START_ADDR) / 1024 / 1024) == 127);
 103:src/main.cpp  ****     assert(DEFAULT_STACK_SIZE == 4096);
 104:src/main.cpp  ****     assert(DEFAULT_TIME_SLICE == 2);
 105:src/main.cpp  ****     assert(sizeof(char) == 1);
GAS LISTING /tmp/cccdGmMk.s 			page 3


 106:src/main.cpp  ****     assert(sizeof(IThread) < 1000);
 107:src/main.cpp  ****     assert(sizeof(int) == 4);
 108:src/main.cpp  ****     assert(sizeof(uint64) == 8);
 109:src/main.cpp  ****     assert(sizeof(unsigned long) == sizeof(uint64));
 110:src/main.cpp  **** }
 111:src/main.cpp  **** 
 112:src/main.cpp  **** void initInterruptVector()
 113:src/main.cpp  **** {
 114:src/main.cpp  **** 
 115:src/main.cpp  **** // should be before changing sstatus 0x2 bit
 116:src/main.cpp  ****     __asm__ volatile ("csrw stvec, %[vector]" : : [vector] "r"(&trapRoutine));
 117:src/main.cpp  **** 
 118:src/main.cpp  **** // set MODE to 1 - vector mode
 119:src/main.cpp  ****     __asm__ volatile ("csrs stvec, 0x1");
 120:src/main.cpp  ****     __asm__ volatile ("csrc stvec, 0x2");
 121:src/main.cpp  **** }
  11              		.loc 1 121 1
  12              		.cfi_startproc
  13              	.LVL0:
  14 0000 130101FF 		addi	sp,sp,-16
  15              		.cfi_def_cfa_offset 16
  16 0004 23348100 		sd	s0,8(sp)
  17              		.cfi_offset 8, -8
  18 0008 13040101 		addi	s0,sp,16
  19              		.cfi_def_cfa 8, 0
  20              		.loc 1 121 1 is_stmt 0
  21 000c 93071000 		li	a5,1
  22 0010 6308F500 		beq	a0,a5,.L4
  23              	.L1:
  24 0014 03348100 		ld	s0,8(sp)
  25              		.cfi_remember_state
  26              		.cfi_restore 8
  27              		.cfi_def_cfa 2, 16
  28 0018 13010101 		addi	sp,sp,16
  29              		.cfi_def_cfa_offset 0
  30 001c 67800000 		jr	ra
  31              	.L4:
  32              		.cfi_restore_state
  33              		.loc 1 121 1 discriminator 1
  34 0020 B7070100 		li	a5,65536
  35 0024 9387F7FF 		addi	a5,a5,-1
  36 0028 E396F5FE 		bne	a1,a5,.L1
  37              	.LVL1:
  38              	.LBB87:
  39              	.LBB88:
  40              	.LBB89:
  41              		.file 2 "src/../h/thread.h"
   1:src/../h/thread.h **** #pragma once
   2:src/../h/thread.h **** #include "../lib/hw.h"
   3:src/../h/thread.h **** #include "../h/my_console.h"
   4:src/../h/thread.h **** #include "../h/syscall_c.hpp"
   5:src/../h/thread.h **** 
   6:src/../h/thread.h **** #define NR_MAX_THREADS 10
   7:src/../h/thread.h **** #define BUSY_WAIT_THREAD_ID 1
   8:src/../h/thread.h **** #define USER_THREAD_ID 2
   9:src/../h/thread.h **** 
  10:src/../h/thread.h **** // needs to be (DEFAULT_STACK_SIZE+8*34) (probably)
GAS LISTING /tmp/cccdGmMk.s 			page 4


  11:src/../h/thread.h **** #define ACTUAL_STACK_SIZE (DEFAULT_STACK_SIZE+8*34)*10
  12:src/../h/thread.h **** #define MAX_NR_TOTAL_THREADS 100
  13:src/../h/thread.h **** 
  14:src/../h/thread.h **** class IThread;
  15:src/../h/thread.h **** 
  16:src/../h/thread.h **** class IThread
  17:src/../h/thread.h **** {
  18:src/../h/thread.h **** public:
  19:src/../h/thread.h ****     enum State { RUNNING = 0, SUSPENDED, READY, INITIALIZING, TERMINATING, NONEXISTENT };
  20:src/../h/thread.h **** 
  21:src/../h/thread.h ****     typedef void(*Body)(void*);
  22:src/../h/thread.h **** 
  23:src/../h/thread.h ****     static IThread* pSleepHead;
  24:src/../h/thread.h ****     static uint64 timeSliceCounter;
  25:src/../h/thread.h ****     static bool switchedToUserThread;
  26:src/../h/thread.h ****     static uint64** pRunningSp;
  27:src/../h/thread.h ****     static IThread* pAllThreads[MAX_NR_TOTAL_THREADS];
  28:src/../h/thread.h ****     static uint64 nrTotalThreads;
  29:src/../h/thread.h ****     static uint64 initialUserMemoryUsage;
  30:src/../h/thread.h **** 
  31:src/../h/thread.h ****     static  IThread*  getPRunning();
  32:src/../h/thread.h ****     static void setPRunning(IThread* p);
  33:src/../h/thread.h ****     static int createThread(uint64* id, Body body, void* arg);
  34:src/../h/thread.h ****     static int exit(); // exit the currently running thread
  35:src/../h/thread.h ****     static void switchToUser();
  36:src/../h/thread.h ****     static void join(uint64 id);
  37:src/../h/thread.h **** 
  38:src/../h/thread.h ****     State state;
  39:src/../h/thread.h ****     Body body;
  40:src/../h/thread.h ****     uint64 sepc;
  41:src/../h/thread.h ****     void* pStackStart; // start in terms of the data structure. This adress is the highest one in t
  42:src/../h/thread.h ****     uint64 timeSlice; // private
  43:src/../h/thread.h ****     uint64 id;
  44:src/../h/thread.h ****     IThread* pNext;
  45:src/../h/thread.h ****     IThread* pWaitingHead;
  46:src/../h/thread.h ****     bool done;
  47:src/../h/thread.h ****     uint64 remainingSleep;
  48:src/../h/thread.h **** 
  49:src/../h/thread.h **** //    uint64** pSp;
  50:src/../h/thread.h **** 
  51:src/../h/thread.h ****     uint64* sp;
  52:src/../h/thread.h **** 
  53:src/../h/thread.h ****     IThread(Body body, void* arg);
  54:src/../h/thread.h ****     IThread() : pStackStart(nullptr), pNext(nullptr) {} // move to private?. Mind the kernel thread
  42              		.loc 2 54 52
  43 002c 97070000 		lla	a5,.LANCHOR0
  43      93870700 
  44 0034 23BC0700 		sd	zero,24(a5)
  45 0038 23B80702 		sd	zero,48(a5)
  46              	.LVL2:
  47              	.LBE89:
  48              	.LBE88:
  49              	.LBE87:
  50              		.loc 1 121 1
  51 003c 6FF09FFD 		j	.L1
  52              		.cfi_endproc
  53              	.LFE23:
GAS LISTING /tmp/cccdGmMk.s 			page 5


  55              		.section	.rodata.str1.8,"aMS",@progbits,1
  56              		.align	3
  57              	.LC0:
  58 0000 3D3D3D3D 		.string	"===================== ASSERT file: "
  58      3D3D3D3D 
  58      3D3D3D3D 
  58      3D3D3D3D 
  58      3D3D3D3D 
  59 0024 00000000 		.align	3
  60              	.LC1:
  61 0028 7372632F 		.string	"src/main.cpp"
  61      6D61696E 
  61      2E637070 
  61      00
  62 0035 000000   		.align	3
  63              	.LC2:
  64 0038 20202020 		.string	"    line: "
  64      6C696E65 
  64      3A2000
  65 0043 00000000 		.align	3
  65      00
  66              	.LC3:
  67 0048 2020203D 		.string	"   ==========================="
  67      3D3D3D3D 
  67      3D3D3D3D 
  67      3D3D3D3D 
  67      3D3D3D3D 
  68 0067 00       		.align	3
  69              	.LC4:
  70 0068 21212121 		.string	"!!!!"
  70      00
  71              		.text
  72              		.align	2
  73              		.globl	_Z11userWrapperPv
  75              	_Z11userWrapperPv:
  76              	.LFB18:
  19:src/main.cpp  ****     assert(p == nullptr);
  77              		.loc 1 19 1 is_stmt 1
  78              		.cfi_startproc
  79              	.LVL3:
  80 0040 130101FF 		addi	sp,sp,-16
  81              		.cfi_def_cfa_offset 16
  82 0044 23341100 		sd	ra,8(sp)
  83 0048 23308100 		sd	s0,0(sp)
  84              		.cfi_offset 1, -8
  85              		.cfi_offset 8, -16
  86 004c 13040101 		addi	s0,sp,16
  87              		.cfi_def_cfa 8, 0
  20:src/main.cpp  ****     assert(&(IThread::getPRunning()->sp) == IThread::pRunningSp);
  88              		.loc 1 20 5
  89              	.LVL4:
  90              	.LBB109:
  91              	.LBB110:
  92              		.file 3 "src/../h/../h/my_console.h"
   1:src/../h/../h/my_console.h **** #pragma once
   2:src/../h/../h/my_console.h **** 
   3:src/../h/../h/my_console.h **** #include "../h/risc.h"
GAS LISTING /tmp/cccdGmMk.s 			page 6


   4:src/../h/../h/my_console.h **** #include "../lib/hw.h"
   5:src/../h/../h/my_console.h **** 
   6:src/../h/../h/my_console.h **** #include "../h/0_console.h"
   7:src/../h/../h/my_console.h **** 
   8:src/../h/../h/my_console.h **** #define __DEBUG_MODE
   9:src/../h/../h/my_console.h **** 
  10:src/../h/../h/my_console.h **** 
  11:src/../h/../h/my_console.h **** void putString(const char* s);
  12:src/../h/../h/my_console.h **** void putInt(int n);
  13:src/../h/../h/my_console.h **** void putNewline();
  14:src/../h/../h/my_console.h **** void putU64(uint64 n);
  15:src/../h/../h/my_console.h **** void putBinary(uint64 n);
  16:src/../h/../h/my_console.h **** 
  17:src/../h/../h/my_console.h **** [[noreturn]] void stopKernel();
  18:src/../h/../h/my_console.h **** 
  19:src/../h/../h/my_console.h **** inline void _assert(bool valid, const char* file, int line) // MUST be inline
  20:src/../h/../h/my_console.h **** {
  21:src/../h/../h/my_console.h ****     if(valid)
  93              		.loc 3 21 5
  94 0050 63160508 		bnez	a0,.L12
  22:src/../h/../h/my_console.h ****         return;
  95              		.loc 3 22 9
  96              	.LVL5:
  97              	.LBE110:
  98              	.LBE109:
  21:src/main.cpp  **** 
  99              		.loc 1 21 5
 100 0054 97000000 		call	_ZN7IThread11getPRunningEv@plt
 100      E7800000 
 101              	.LVL6:
 102 005c 13050505 		addi	a0,a0,80
 103 0060 97070000 		la	a5,_ZN7IThread10pRunningSpE
 103      83B70700 
 104 0068 83B70700 		ld	a5,0(a5)
 105              	.LVL7:
 106              	.LBB117:
 107              	.LBB118:
  21:src/../h/../h/my_console.h ****         return;
 108              		.loc 3 21 5
 109 006c 6394A710 		bne	a5,a0,.L13
 110              		.loc 3 22 9
 111              	.LVL8:
 112              	.LBE118:
 113              	.LBE117:
  25:src/main.cpp  ****     putNewline();
 114              		.loc 1 25 5
  25:src/main.cpp  ****     putNewline();
 115              		.loc 1 25 14 is_stmt 0
 116 0070 17050000 		lla	a0,.LC4
 116      13050500 
 117 0078 97000000 		call	_Z9putStringPKc@plt
 117      E7800000 
 118              	.LVL9:
  26:src/main.cpp  ****     IConsole::get()->actualWriteToConsole();
 119              		.loc 1 26 5 is_stmt 1
  26:src/main.cpp  ****     IConsole::get()->actualWriteToConsole();
 120              		.loc 1 26 15 is_stmt 0
GAS LISTING /tmp/cccdGmMk.s 			page 7


 121 0080 97000000 		call	_Z10putNewlinev@plt
 121      E7800000 
 122              	.LVL10:
  27:src/main.cpp  **** 
 123              		.loc 1 27 5 is_stmt 1
 124              	.LBB125:
 125              	.LBB126:
 126              		.file 4 "src/../h/../h/../h/0_console.h"
   1:src/../h/../h/../h/0_console.h **** #pragma once
   2:src/../h/../h/../h/0_console.h **** 
   3:src/../h/../h/../h/0_console.h **** #include "../lib/hw.h"
   4:src/../h/../h/../h/0_console.h **** 
   5:src/../h/../h/../h/0_console.h **** #define BUFFER_SIZE 1000
   6:src/../h/../h/../h/0_console.h **** 
   7:src/../h/../h/../h/0_console.h **** class IConsole // singleton class
   8:src/../h/../h/../h/0_console.h **** {
   9:src/../h/../h/../h/0_console.h **** public:
  10:src/../h/../h/../h/0_console.h ****     static IConsole* get()
  11:src/../h/../h/../h/0_console.h ****     {
  12:src/../h/../h/../h/0_console.h ****         static IConsole instance;
 127              		.loc 4 12 9
 128              		.loc 4 12 25 is_stmt 0
 129 0088 97070000 		lbu	a5,_ZGVZN8IConsole3getEvE8instance
 129      83C70700 
 130 0090 63920702 		bnez	a5,.L10
 131              	.LVL11:
 132              	.LBB127:
 133              	.LBB128:
 134              	.LBB129:
  13:src/../h/../h/../h/0_console.h ****         return &instance;
  14:src/../h/../h/../h/0_console.h ****     }
  15:src/../h/../h/../h/0_console.h **** 
  16:src/../h/../h/../h/0_console.h ****     void writeToConsole();
  17:src/../h/../h/../h/0_console.h ****     uint64 putBufferHead, putBufferTail;
  18:src/../h/../h/../h/0_console.h ****     char putBuffer[BUFFER_SIZE];
  19:src/../h/../h/../h/0_console.h ****     uint64 putBufferItems;
  20:src/../h/../h/../h/0_console.h **** 
  21:src/../h/../h/../h/0_console.h ****     char getBuffer[BUFFER_SIZE];
  22:src/../h/../h/../h/0_console.h ****     uint64 getBufferItems;
  23:src/../h/../h/../h/0_console.h ****     uint64 getBufferHead, getBufferTail;
  24:src/../h/../h/../h/0_console.h **** 
  25:src/../h/../h/../h/0_console.h ****     void putc(char c);
  26:src/../h/../h/../h/0_console.h ****     char getc();
  27:src/../h/../h/../h/0_console.h ****     void consoleHandler();
  28:src/../h/../h/../h/0_console.h ****     void actualWriteToConsole();
  29:src/../h/../h/../h/0_console.h **** 
  30:src/../h/../h/../h/0_console.h **** private:
  31:src/../h/../h/../h/0_console.h ****     IConsole()
  32:src/../h/../h/../h/0_console.h ****         : putBufferHead(0), putBufferTail(0), putBufferItems(0)
 135              		.loc 4 32 63
 136 0094 97070000 		lla	a5,_ZZN8IConsole3getEvE8instance
 136      93870700 
 137 009c 23B00700 		sd	zero,0(a5)
 138 00a0 23B40700 		sd	zero,8(a5)
 139 00a4 23BC073E 		sd	zero,1016(a5)
 140              	.LVL12:
 141              	.LBE129:
GAS LISTING /tmp/cccdGmMk.s 			page 8


 142              	.LBE128:
 143              	.LBE127:
  12:src/../h/../h/../h/0_console.h ****         return &instance;
 144              		.loc 4 12 25
 145 00a8 93071000 		li	a5,1
 146 00ac 17070000 		sb	a5,_ZGVZN8IConsole3getEvE8instance,a4
 146      2300F700 
 147              	.L10:
  13:src/../h/../h/../h/0_console.h ****         return &instance;
 148              		.loc 4 13 9 is_stmt 1
 149              	.LBE126:
 150              	.LBE125:
  27:src/main.cpp  **** 
 151              		.loc 1 27 42 is_stmt 0
 152 00b4 17050000 		lla	a0,_ZZN8IConsole3getEvE8instance
 152      13050500 
 153 00bc 97000000 		call	_ZN8IConsole20actualWriteToConsoleEv@plt
 153      E7800000 
 154              	.LVL13:
  31:src/main.cpp  **** }
 155              		.loc 1 31 5 is_stmt 1
  31:src/main.cpp  **** }
 156              		.loc 1 31 15 is_stmt 0
 157 00c4 97000000 		call	_Z10myUserMainv@plt
 157      E7800000 
 158              	.LVL14:
  32:src/main.cpp  **** 
 159              		.loc 1 32 1
 160 00cc 83308100 		ld	ra,8(sp)
 161              		.cfi_remember_state
 162              		.cfi_restore 1
 163 00d0 03340100 		ld	s0,0(sp)
 164              		.cfi_restore 8
 165              		.cfi_def_cfa 2, 16
 166 00d4 13010101 		addi	sp,sp,16
 167              		.cfi_def_cfa_offset 0
 168 00d8 67800000 		jr	ra
 169              	.LVL15:
 170              	.L12:
 171              		.cfi_restore_state
 172              	.LBB130:
 173              	.LBB116:
  23:src/../h/../h/my_console.h **** 
  24:src/../h/../h/my_console.h ****     putString("===================== ASSERT file: ");
 174              		.loc 3 24 5 is_stmt 1
 175              		.loc 3 24 14 is_stmt 0
 176 00dc 17050000 		lla	a0,.LC0
 176      13050500 
 177              	.LVL16:
 178 00e4 97000000 		call	_Z9putStringPKc@plt
 178      E7800000 
 179              	.LVL17:
  25:src/../h/../h/my_console.h ****     putString(file);
 180              		.loc 3 25 5 is_stmt 1
 181              		.loc 3 25 14 is_stmt 0
 182 00ec 17050000 		lla	a0,.LC1
 182      13050500 
GAS LISTING /tmp/cccdGmMk.s 			page 9


 183 00f4 97000000 		call	_Z9putStringPKc@plt
 183      E7800000 
 184              	.LVL18:
  26:src/../h/../h/my_console.h ****     putString("    line: ");
 185              		.loc 3 26 5 is_stmt 1
 186              		.loc 3 26 14 is_stmt 0
 187 00fc 17050000 		lla	a0,.LC2
 187      13050500 
 188 0104 97000000 		call	_Z9putStringPKc@plt
 188      E7800000 
 189              	.LVL19:
  27:src/../h/../h/my_console.h ****     putInt(line);
 190              		.loc 3 27 5 is_stmt 1
 191              		.loc 3 27 11 is_stmt 0
 192 010c 13054001 		li	a0,20
 193 0110 97000000 		call	_Z6putInti@plt
 193      E7800000 
 194              	.LVL20:
  28:src/../h/../h/my_console.h ****     putString("   ===========================");
 195              		.loc 3 28 5 is_stmt 1
 196              		.loc 3 28 14 is_stmt 0
 197 0118 17050000 		lla	a0,.LC3
 197      13050500 
 198 0120 97000000 		call	_Z9putStringPKc@plt
 198      E7800000 
 199              	.LVL21:
  29:src/../h/../h/my_console.h ****     putNewline();
 200              		.loc 3 29 5 is_stmt 1
 201              		.loc 3 29 15 is_stmt 0
 202 0128 97000000 		call	_Z10putNewlinev@plt
 202      E7800000 
 203              	.LVL22:
  30:src/../h/../h/my_console.h **** 
  31:src/../h/../h/my_console.h ****     IConsole::get()->writeToConsole();
 204              		.loc 3 31 5 is_stmt 1
 205              	.LBB111:
 206              	.LBB112:
  12:src/../h/../h/../h/0_console.h ****         return &instance;
 207              		.loc 4 12 9
  12:src/../h/../h/../h/0_console.h ****         return &instance;
 208              		.loc 4 12 25 is_stmt 0
 209 0130 97070000 		lbu	a5,_ZGVZN8IConsole3getEvE8instance
 209      83C70700 
 210 0138 63920702 		bnez	a5,.L7
 211              	.LVL23:
 212              	.LBB113:
 213              	.LBB114:
 214              	.LBB115:
 215              		.loc 4 32 63
 216 013c 97070000 		lla	a5,_ZZN8IConsole3getEvE8instance
 216      93870700 
 217 0144 23B00700 		sd	zero,0(a5)
 218 0148 23B40700 		sd	zero,8(a5)
 219 014c 23BC073E 		sd	zero,1016(a5)
 220              	.LVL24:
 221              	.LBE115:
 222              	.LBE114:
GAS LISTING /tmp/cccdGmMk.s 			page 10


 223              	.LBE113:
  12:src/../h/../h/../h/0_console.h ****         return &instance;
 224              		.loc 4 12 25
 225 0150 93071000 		li	a5,1
 226 0154 17070000 		sb	a5,_ZGVZN8IConsole3getEvE8instance,a4
 226      2300F700 
 227              	.L7:
  13:src/../h/../h/../h/0_console.h ****     }
 228              		.loc 4 13 9 is_stmt 1
 229              	.LBE112:
 230              	.LBE111:
 231              		.loc 3 31 36 is_stmt 0
 232 015c 17050000 		lla	a0,_ZZN8IConsole3getEvE8instance
 232      13050500 
 233 0164 97000000 		call	_ZN8IConsole14writeToConsoleEv@plt
 233      E7800000 
 234              	.LVL25:
  32:src/../h/../h/my_console.h **** 
  33:src/../h/../h/my_console.h **** 
  34:src/../h/../h/my_console.h ****     stopKernel();
 235              		.loc 3 34 5 is_stmt 1
 236              		.loc 3 34 15 is_stmt 0
 237 016c 97000000 		call	_Z10stopKernelv@plt
 237      E7800000 
 238              	.LVL26:
 239              	.L13:
 240              	.LBE116:
 241              	.LBE130:
 242              	.LBB131:
 243              	.LBB124:
  24:src/../h/../h/my_console.h ****     putString(file);
 244              		.loc 3 24 5 is_stmt 1
  24:src/../h/../h/my_console.h ****     putString(file);
 245              		.loc 3 24 14 is_stmt 0
 246 0174 17050000 		lla	a0,.LC0
 246      13050500 
 247              	.LVL27:
 248 017c 97000000 		call	_Z9putStringPKc@plt
 248      E7800000 
 249              	.LVL28:
  25:src/../h/../h/my_console.h ****     putString("    line: ");
 250              		.loc 3 25 5 is_stmt 1
  25:src/../h/../h/my_console.h ****     putString("    line: ");
 251              		.loc 3 25 14 is_stmt 0
 252 0184 17050000 		lla	a0,.LC1
 252      13050500 
 253 018c 97000000 		call	_Z9putStringPKc@plt
 253      E7800000 
 254              	.LVL29:
  26:src/../h/../h/my_console.h ****     putInt(line);
 255              		.loc 3 26 5 is_stmt 1
  26:src/../h/../h/my_console.h ****     putInt(line);
 256              		.loc 3 26 14 is_stmt 0
 257 0194 17050000 		lla	a0,.LC2
 257      13050500 
 258 019c 97000000 		call	_Z9putStringPKc@plt
 258      E7800000 
GAS LISTING /tmp/cccdGmMk.s 			page 11


 259              	.LVL30:
  27:src/../h/../h/my_console.h ****     putString("   ===========================");
 260              		.loc 3 27 5 is_stmt 1
  27:src/../h/../h/my_console.h ****     putString("   ===========================");
 261              		.loc 3 27 11 is_stmt 0
 262 01a4 13055001 		li	a0,21
 263 01a8 97000000 		call	_Z6putInti@plt
 263      E7800000 
 264              	.LVL31:
  28:src/../h/../h/my_console.h ****     putNewline();
 265              		.loc 3 28 5 is_stmt 1
  28:src/../h/../h/my_console.h ****     putNewline();
 266              		.loc 3 28 14 is_stmt 0
 267 01b0 17050000 		lla	a0,.LC3
 267      13050500 
 268 01b8 97000000 		call	_Z9putStringPKc@plt
 268      E7800000 
 269              	.LVL32:
  29:src/../h/../h/my_console.h **** 
 270              		.loc 3 29 5 is_stmt 1
  29:src/../h/../h/my_console.h **** 
 271              		.loc 3 29 15 is_stmt 0
 272 01c0 97000000 		call	_Z10putNewlinev@plt
 272      E7800000 
 273              	.LVL33:
  31:src/../h/../h/my_console.h **** 
 274              		.loc 3 31 5 is_stmt 1
 275              	.LBB119:
 276              	.LBB120:
  12:src/../h/../h/../h/0_console.h ****         return &instance;
 277              		.loc 4 12 9
  12:src/../h/../h/../h/0_console.h ****         return &instance;
 278              		.loc 4 12 25 is_stmt 0
 279 01c8 97070000 		lbu	a5,_ZGVZN8IConsole3getEvE8instance
 279      83C70700 
 280 01d0 63920702 		bnez	a5,.L9
 281              	.LVL34:
 282              	.LBB121:
 283              	.LBB122:
 284              	.LBB123:
 285              		.loc 4 32 63
 286 01d4 97070000 		lla	a5,_ZZN8IConsole3getEvE8instance
 286      93870700 
 287 01dc 23B00700 		sd	zero,0(a5)
 288 01e0 23B40700 		sd	zero,8(a5)
 289 01e4 23BC073E 		sd	zero,1016(a5)
 290              	.LVL35:
 291              	.LBE123:
 292              	.LBE122:
 293              	.LBE121:
  12:src/../h/../h/../h/0_console.h ****         return &instance;
 294              		.loc 4 12 25
 295 01e8 93071000 		li	a5,1
 296 01ec 17070000 		sb	a5,_ZGVZN8IConsole3getEvE8instance,a4
 296      2300F700 
 297              	.L9:
  13:src/../h/../h/../h/0_console.h ****     }
GAS LISTING /tmp/cccdGmMk.s 			page 12


 298              		.loc 4 13 9 is_stmt 1
 299              	.LBE120:
 300              	.LBE119:
  31:src/../h/../h/my_console.h **** 
 301              		.loc 3 31 36 is_stmt 0
 302 01f4 17050000 		lla	a0,_ZZN8IConsole3getEvE8instance
 302      13050500 
 303 01fc 97000000 		call	_ZN8IConsole14writeToConsoleEv@plt
 303      E7800000 
 304              	.LVL36:
 305              		.loc 3 34 5 is_stmt 1
 306              		.loc 3 34 15 is_stmt 0
 307 0204 97000000 		call	_Z10stopKernelv@plt
 307      E7800000 
 308              	.LVL37:
 309              	.LBE124:
 310              	.LBE131:
 311              		.cfi_endproc
 312              	.LFE18:
 314              		.align	2
 315              		.globl	_Z16doBusyWaitThreadPv
 317              	_Z16doBusyWaitThreadPv:
 318              	.LFB20:
  82:src/main.cpp  ****     assert(p == nullptr);
 319              		.loc 1 82 1 is_stmt 1
 320              		.cfi_startproc
 321              	.LVL38:
 322 020c 130101FE 		addi	sp,sp,-32
 323              		.cfi_def_cfa_offset 32
 324 0210 233C1100 		sd	ra,24(sp)
 325 0214 23388100 		sd	s0,16(sp)
 326              		.cfi_offset 1, -8
 327              		.cfi_offset 8, -16
 328 0218 13040102 		addi	s0,sp,32
 329              		.cfi_def_cfa 8, 0
  83:src/main.cpp  ****     __asm__ volatile("mv x10, x10");
 330              		.loc 1 83 5
 331              	.LVL39:
 332              	.LBB146:
 333              	.LBB147:
  21:src/../h/../h/my_console.h ****         return;
 334              		.loc 3 21 5
 335 021c 63160504 		bnez	a0,.L23
  22:src/../h/../h/my_console.h **** 
 336              		.loc 3 22 9
 337              	.LVL40:
 338              	.LBE147:
 339              	.LBE146:
  84:src/main.cpp  **** 
 340              		.loc 1 84 5
  84:src/main.cpp  **** 
 341              		.loc 1 84 36 is_stmt 0
 342              	#APP
 343              	# 84 "src/main.cpp" 1
 344              		mv x10, x10
 345              	# 0 "" 2
 346              	.LVL41:
GAS LISTING /tmp/cccdGmMk.s 			page 13


 347              	#NO_APP
 348              	.L20:
  86:src/main.cpp  ****     while(a++)
 349              		.loc 1 86 5 is_stmt 1
  87:src/main.cpp  ****     {
 350              		.loc 1 87 5
  87:src/main.cpp  ****     {
 351              		.loc 1 87 12
 352 0224 833784FE 		ld	a5,-24(s0)
 353 0228 13871700 		addi	a4,a5,1
 354 022c 2334E4FE 		sd	a4,-24(s0)
 355 0230 63840716 		beqz	a5,.L14
  89:src/main.cpp  **** 
 356              		.loc 1 89 9
 357 0234 97000000 		call	_ZN7IThread11getPRunningEv@plt
 357      E7800000 
 358              	.LVL42:
 359 023c 83378502 		ld	a5,40(a0)
 360 0240 9387F7FF 		addi	a5,a5,-1
 361              	.LVL43:
 362              	.LBB154:
 363              	.LBB155:
  21:src/../h/../h/my_console.h ****         return;
 364              		.loc 3 21 5
 365 0244 639E070A 		bnez	a5,.L24
  22:src/../h/../h/my_console.h **** 
 366              		.loc 3 22 9
 367              	.LVL44:
 368              	.LBE155:
 369              	.LBE154:
  91:src/main.cpp  ****         {
 370              		.loc 1 91 9
  91:src/main.cpp  ****         {
 371              		.loc 1 91 32 is_stmt 0
 372 0248 97000000 		call	_ZN7IThread11getPRunningEv@plt
 372      E7800000 
 373              	.LVL45:
  91:src/main.cpp  ****         {
 374              		.loc 1 91 36
 375 0250 83370503 		ld	a5,48(a0)
  91:src/main.cpp  ****         {
 376              		.loc 1 91 9
 377 0254 E38807FC 		beqz	a5,.L20
  93:src/main.cpp  ****             thread_dispatch();
 378              		.loc 1 93 13 is_stmt 1
  93:src/main.cpp  ****             thread_dispatch();
 379              		.loc 1 93 44 is_stmt 0
 380              	#APP
 381              	# 93 "src/main.cpp" 1
  94:src/main.cpp  ****         }
 382              		mv x10, x10
 383              	# 0 "" 2
 384              		.loc 1 94 13 is_stmt 1
  94:src/main.cpp  ****         }
 385              		.loc 1 94 28 is_stmt 0
 386              	#NO_APP
 387 025c 97000000 		call	_Z15thread_dispatchv@plt
GAS LISTING /tmp/cccdGmMk.s 			page 14


 387      E7800000 
 388              	.LVL46:
 389 0264 6FF01FFC 		j	.L20
 390              	.LVL47:
 391              	.L23:
 392              	.LBB162:
 393              	.LBB153:
  24:src/../h/../h/my_console.h ****     putString(file);
 394              		.loc 3 24 5 is_stmt 1
  24:src/../h/../h/my_console.h ****     putString(file);
 395              		.loc 3 24 14 is_stmt 0
 396 0268 17050000 		lla	a0,.LC0
 396      13050500 
 397              	.LVL48:
 398 0270 97000000 		call	_Z9putStringPKc@plt
 398      E7800000 
 399              	.LVL49:
  25:src/../h/../h/my_console.h ****     putString("    line: ");
 400              		.loc 3 25 5 is_stmt 1
  25:src/../h/../h/my_console.h ****     putString("    line: ");
 401              		.loc 3 25 14 is_stmt 0
 402 0278 17050000 		lla	a0,.LC1
 402      13050500 
 403 0280 97000000 		call	_Z9putStringPKc@plt
 403      E7800000 
 404              	.LVL50:
  26:src/../h/../h/my_console.h ****     putInt(line);
 405              		.loc 3 26 5 is_stmt 1
  26:src/../h/../h/my_console.h ****     putInt(line);
 406              		.loc 3 26 14 is_stmt 0
 407 0288 17050000 		lla	a0,.LC2
 407      13050500 
 408 0290 97000000 		call	_Z9putStringPKc@plt
 408      E7800000 
 409              	.LVL51:
  27:src/../h/../h/my_console.h ****     putString("   ===========================");
 410              		.loc 3 27 5 is_stmt 1
  27:src/../h/../h/my_console.h ****     putString("   ===========================");
 411              		.loc 3 27 11 is_stmt 0
 412 0298 13053005 		li	a0,83
 413 029c 97000000 		call	_Z6putInti@plt
 413      E7800000 
 414              	.LVL52:
  28:src/../h/../h/my_console.h ****     putNewline();
 415              		.loc 3 28 5 is_stmt 1
  28:src/../h/../h/my_console.h ****     putNewline();
 416              		.loc 3 28 14 is_stmt 0
 417 02a4 17050000 		lla	a0,.LC3
 417      13050500 
 418 02ac 97000000 		call	_Z9putStringPKc@plt
 418      E7800000 
 419              	.LVL53:
  29:src/../h/../h/my_console.h **** 
 420              		.loc 3 29 5 is_stmt 1
  29:src/../h/../h/my_console.h **** 
 421              		.loc 3 29 15 is_stmt 0
 422 02b4 97000000 		call	_Z10putNewlinev@plt
GAS LISTING /tmp/cccdGmMk.s 			page 15


 422      E7800000 
 423              	.LVL54:
  31:src/../h/../h/my_console.h **** 
 424              		.loc 3 31 5 is_stmt 1
 425              	.LBB148:
 426              	.LBB149:
  12:src/../h/../h/../h/0_console.h ****         return &instance;
 427              		.loc 4 12 9
  12:src/../h/../h/../h/0_console.h ****         return &instance;
 428              		.loc 4 12 25 is_stmt 0
 429 02bc 97070000 		lbu	a5,_ZGVZN8IConsole3getEvE8instance
 429      83C70700 
 430 02c4 63920702 		bnez	a5,.L16
 431              	.LVL55:
 432              	.LBB150:
 433              	.LBB151:
 434              	.LBB152:
 435              		.loc 4 32 63
 436 02c8 97070000 		lla	a5,_ZZN8IConsole3getEvE8instance
 436      93870700 
 437 02d0 23B00700 		sd	zero,0(a5)
 438 02d4 23B40700 		sd	zero,8(a5)
 439 02d8 23BC073E 		sd	zero,1016(a5)
 440              	.LVL56:
 441              	.LBE152:
 442              	.LBE151:
 443              	.LBE150:
  12:src/../h/../h/../h/0_console.h ****         return &instance;
 444              		.loc 4 12 25
 445 02dc 93071000 		li	a5,1
 446 02e0 17070000 		sb	a5,_ZGVZN8IConsole3getEvE8instance,a4
 446      2300F700 
 447              	.L16:
  13:src/../h/../h/../h/0_console.h ****     }
 448              		.loc 4 13 9 is_stmt 1
 449              	.LBE149:
 450              	.LBE148:
  31:src/../h/../h/my_console.h **** 
 451              		.loc 3 31 36 is_stmt 0
 452 02e8 17050000 		lla	a0,_ZZN8IConsole3getEvE8instance
 452      13050500 
 453 02f0 97000000 		call	_ZN8IConsole14writeToConsoleEv@plt
 453      E7800000 
 454              	.LVL57:
 455              		.loc 3 34 5 is_stmt 1
 456              		.loc 3 34 15 is_stmt 0
 457 02f8 97000000 		call	_Z10stopKernelv@plt
 457      E7800000 
 458              	.LVL58:
 459              	.L24:
 460              	.LBE153:
 461              	.LBE162:
 462              	.LBB163:
 463              	.LBB161:
  24:src/../h/../h/my_console.h ****     putString(file);
 464              		.loc 3 24 5 is_stmt 1
  24:src/../h/../h/my_console.h ****     putString(file);
GAS LISTING /tmp/cccdGmMk.s 			page 16


 465              		.loc 3 24 14 is_stmt 0
 466 0300 17050000 		lla	a0,.LC0
 466      13050500 
 467 0308 97000000 		call	_Z9putStringPKc@plt
 467      E7800000 
 468              	.LVL59:
  25:src/../h/../h/my_console.h ****     putString("    line: ");
 469              		.loc 3 25 5 is_stmt 1
  25:src/../h/../h/my_console.h ****     putString("    line: ");
 470              		.loc 3 25 14 is_stmt 0
 471 0310 17050000 		lla	a0,.LC1
 471      13050500 
 472 0318 97000000 		call	_Z9putStringPKc@plt
 472      E7800000 
 473              	.LVL60:
  26:src/../h/../h/my_console.h ****     putInt(line);
 474              		.loc 3 26 5 is_stmt 1
  26:src/../h/../h/my_console.h ****     putInt(line);
 475              		.loc 3 26 14 is_stmt 0
 476 0320 17050000 		lla	a0,.LC2
 476      13050500 
 477 0328 97000000 		call	_Z9putStringPKc@plt
 477      E7800000 
 478              	.LVL61:
  27:src/../h/../h/my_console.h ****     putString("   ===========================");
 479              		.loc 3 27 5 is_stmt 1
  27:src/../h/../h/my_console.h ****     putString("   ===========================");
 480              		.loc 3 27 11 is_stmt 0
 481 0330 13059005 		li	a0,89
 482 0334 97000000 		call	_Z6putInti@plt
 482      E7800000 
 483              	.LVL62:
  28:src/../h/../h/my_console.h ****     putNewline();
 484              		.loc 3 28 5 is_stmt 1
  28:src/../h/../h/my_console.h ****     putNewline();
 485              		.loc 3 28 14 is_stmt 0
 486 033c 17050000 		lla	a0,.LC3
 486      13050500 
 487 0344 97000000 		call	_Z9putStringPKc@plt
 487      E7800000 
 488              	.LVL63:
  29:src/../h/../h/my_console.h **** 
 489              		.loc 3 29 5 is_stmt 1
  29:src/../h/../h/my_console.h **** 
 490              		.loc 3 29 15 is_stmt 0
 491 034c 97000000 		call	_Z10putNewlinev@plt
 491      E7800000 
 492              	.LVL64:
  31:src/../h/../h/my_console.h **** 
 493              		.loc 3 31 5 is_stmt 1
 494              	.LBB156:
 495              	.LBB157:
  12:src/../h/../h/../h/0_console.h ****         return &instance;
 496              		.loc 4 12 9
  12:src/../h/../h/../h/0_console.h ****         return &instance;
 497              		.loc 4 12 25 is_stmt 0
 498 0354 97070000 		lbu	a5,_ZGVZN8IConsole3getEvE8instance
GAS LISTING /tmp/cccdGmMk.s 			page 17


 498      83C70700 
 499 035c 63920702 		bnez	a5,.L19
 500              	.LVL65:
 501              	.LBB158:
 502              	.LBB159:
 503              	.LBB160:
 504              		.loc 4 32 63
 505 0360 97070000 		lla	a5,_ZZN8IConsole3getEvE8instance
 505      93870700 
 506 0368 23B00700 		sd	zero,0(a5)
 507 036c 23B40700 		sd	zero,8(a5)
 508 0370 23BC073E 		sd	zero,1016(a5)
 509              	.LVL66:
 510              	.LBE160:
 511              	.LBE159:
 512              	.LBE158:
  12:src/../h/../h/../h/0_console.h ****         return &instance;
 513              		.loc 4 12 25
 514 0374 93071000 		li	a5,1
 515 0378 17070000 		sb	a5,_ZGVZN8IConsole3getEvE8instance,a4
 515      2300F700 
 516              	.L19:
  13:src/../h/../h/../h/0_console.h ****     }
 517              		.loc 4 13 9 is_stmt 1
 518              	.LBE157:
 519              	.LBE156:
  31:src/../h/../h/my_console.h **** 
 520              		.loc 3 31 36 is_stmt 0
 521 0380 17050000 		lla	a0,_ZZN8IConsole3getEvE8instance
 521      13050500 
 522 0388 97000000 		call	_ZN8IConsole14writeToConsoleEv@plt
 522      E7800000 
 523              	.LVL67:
 524              		.loc 3 34 5 is_stmt 1
 525              		.loc 3 34 15 is_stmt 0
 526 0390 97000000 		call	_Z10stopKernelv@plt
 526      E7800000 
 527              	.LVL68:
 528              	.L14:
 529              	.LBE161:
 530              	.LBE163:
  97:src/main.cpp  **** 
 531              		.loc 1 97 1
 532 0398 83308101 		ld	ra,24(sp)
 533              		.cfi_restore 1
 534 039c 03340101 		ld	s0,16(sp)
 535              		.cfi_restore 8
 536              		.cfi_def_cfa 2, 32
 537 03a0 13010102 		addi	sp,sp,32
 538              		.cfi_def_cfa_offset 0
 539 03a4 67800000 		jr	ra
 540              		.cfi_endproc
 541              	.LFE20:
 543              		.section	.text._Z7_assertbPKci,"axG",@progbits,_Z7_assertbPKci,comdat
 544              		.align	2
 545              		.weak	_Z7_assertbPKci
 547              	_Z7_assertbPKci:
GAS LISTING /tmp/cccdGmMk.s 			page 18


 548              	.LFB4:
  20:src/../h/../h/my_console.h ****     if(valid)
 549              		.loc 3 20 1 is_stmt 1
 550              		.cfi_startproc
 551              	.LVL69:
  21:src/../h/../h/my_console.h ****         return;
 552              		.loc 3 21 5
 553 0000 63040500 		beqz	a0,.L32
 554 0004 67800000 		ret
 555              	.L32:
  20:src/../h/../h/my_console.h ****     if(valid)
 556              		.loc 3 20 1 is_stmt 0
 557 0008 130101FE 		addi	sp,sp,-32
 558              		.cfi_def_cfa_offset 32
 559 000c 233C1100 		sd	ra,24(sp)
 560 0010 23388100 		sd	s0,16(sp)
 561 0014 23349100 		sd	s1,8(sp)
 562 0018 23302101 		sd	s2,0(sp)
 563              		.cfi_offset 1, -8
 564              		.cfi_offset 8, -16
 565              		.cfi_offset 9, -24
 566              		.cfi_offset 18, -32
 567 001c 13040102 		addi	s0,sp,32
 568              		.cfi_def_cfa 8, 0
 569 0020 13890500 		mv	s2,a1
 570 0024 93040600 		mv	s1,a2
  24:src/../h/../h/my_console.h ****     putString(file);
 571              		.loc 3 24 5 is_stmt 1
  24:src/../h/../h/my_console.h ****     putString(file);
 572              		.loc 3 24 14 is_stmt 0
 573 0028 17050000 		lla	a0,.LC0
 573      13050500 
 574              	.LVL70:
 575 0030 97000000 		call	_Z9putStringPKc@plt
 575      E7800000 
 576              	.LVL71:
  25:src/../h/../h/my_console.h ****     putString("    line: ");
 577              		.loc 3 25 5 is_stmt 1
  25:src/../h/../h/my_console.h ****     putString("    line: ");
 578              		.loc 3 25 14 is_stmt 0
 579 0038 13050900 		mv	a0,s2
 580 003c 97000000 		call	_Z9putStringPKc@plt
 580      E7800000 
 581              	.LVL72:
  26:src/../h/../h/my_console.h ****     putInt(line);
 582              		.loc 3 26 5 is_stmt 1
  26:src/../h/../h/my_console.h ****     putInt(line);
 583              		.loc 3 26 14 is_stmt 0
 584 0044 17050000 		lla	a0,.LC2
 584      13050500 
 585 004c 97000000 		call	_Z9putStringPKc@plt
 585      E7800000 
 586              	.LVL73:
  27:src/../h/../h/my_console.h ****     putString("   ===========================");
 587              		.loc 3 27 5 is_stmt 1
  27:src/../h/../h/my_console.h ****     putString("   ===========================");
 588              		.loc 3 27 11 is_stmt 0
GAS LISTING /tmp/cccdGmMk.s 			page 19


 589 0054 13850400 		mv	a0,s1
 590 0058 97000000 		call	_Z6putInti@plt
 590      E7800000 
 591              	.LVL74:
  28:src/../h/../h/my_console.h ****     putNewline();
 592              		.loc 3 28 5 is_stmt 1
  28:src/../h/../h/my_console.h ****     putNewline();
 593              		.loc 3 28 14 is_stmt 0
 594 0060 17050000 		lla	a0,.LC3
 594      13050500 
 595 0068 97000000 		call	_Z9putStringPKc@plt
 595      E7800000 
 596              	.LVL75:
  29:src/../h/../h/my_console.h **** 
 597              		.loc 3 29 5 is_stmt 1
  29:src/../h/../h/my_console.h **** 
 598              		.loc 3 29 15 is_stmt 0
 599 0070 97000000 		call	_Z10putNewlinev@plt
 599      E7800000 
 600              	.LVL76:
  31:src/../h/../h/my_console.h **** 
 601              		.loc 3 31 5 is_stmt 1
 602              	.LBB169:
 603              	.LBB170:
  12:src/../h/../h/../h/0_console.h ****         return &instance;
 604              		.loc 4 12 9
  12:src/../h/../h/../h/0_console.h ****         return &instance;
 605              		.loc 4 12 25 is_stmt 0
 606 0078 97070000 		lbu	a5,_ZGVZN8IConsole3getEvE8instance
 606      83C70700 
 607 0080 63920702 		bnez	a5,.L27
 608              	.LVL77:
 609              	.LBB171:
 610              	.LBB172:
 611              	.LBB173:
 612              		.loc 4 32 63
 613 0084 97070000 		lla	a5,_ZZN8IConsole3getEvE8instance
 613      93870700 
 614 008c 23B00700 		sd	zero,0(a5)
 615 0090 23B40700 		sd	zero,8(a5)
 616 0094 23BC073E 		sd	zero,1016(a5)
 617              	.LVL78:
 618              	.LBE173:
 619              	.LBE172:
 620              	.LBE171:
  12:src/../h/../h/../h/0_console.h ****         return &instance;
 621              		.loc 4 12 25
 622 0098 93071000 		li	a5,1
 623 009c 17070000 		sb	a5,_ZGVZN8IConsole3getEvE8instance,a4
 623      2300F700 
 624              	.L27:
  13:src/../h/../h/../h/0_console.h ****     }
 625              		.loc 4 13 9 is_stmt 1
 626              	.LBE170:
 627              	.LBE169:
  31:src/../h/../h/my_console.h **** 
 628              		.loc 3 31 36 is_stmt 0
GAS LISTING /tmp/cccdGmMk.s 			page 20


 629 00a4 17050000 		lla	a0,_ZZN8IConsole3getEvE8instance
 629      13050500 
 630 00ac 97000000 		call	_ZN8IConsole14writeToConsoleEv@plt
 630      E7800000 
 631              	.LVL79:
 632              		.loc 3 34 5 is_stmt 1
 633              		.loc 3 34 15 is_stmt 0
 634 00b4 97000000 		call	_Z10stopKernelv@plt
 634      E7800000 
 635              	.LVL80:
 636              		.cfi_endproc
 637              	.LFE4:
 639              		.text
 640              		.align	2
 641              		.globl	_Z16doInitialAssertsv
 643              	_Z16doInitialAssertsv:
 644              	.LFB21:
 100:src/main.cpp  ****     assert(sizeof(void*) == 8);
 645              		.loc 1 100 1 is_stmt 1
 646              		.cfi_startproc
 101:src/main.cpp  ****     assert((((uint64)HEAP_END_ADDR - (uint64)HEAP_START_ADDR) / 1024 / 1024) == 127);
 647              		.loc 1 101 5
 648              	.LVL81:
  21:src/../h/../h/my_console.h ****         return;
 649              		.loc 3 21 5
  22:src/../h/../h/my_console.h **** 
 650              		.loc 3 22 9
 102:src/main.cpp  ****     assert(DEFAULT_STACK_SIZE == 4096);
 651              		.loc 1 102 5
 652 03a8 97070000 		la	a5,HEAP_END_ADDR
 652      83B70700 
 653 03b0 83B70700 		ld	a5,0(a5)
 654 03b4 17070000 		la	a4,HEAP_START_ADDR
 654      03370700 
 655 03bc 03370700 		ld	a4,0(a4)
 656 03c0 B387E740 		sub	a5,a5,a4
 657 03c4 370710F8 		li	a4,-133169152
 658 03c8 B387E700 		add	a5,a5,a4
 659 03cc 37071000 		li	a4,1048576
 660              	.LVL82:
 661              	.LBB213:
 662              	.LBB214:
  21:src/../h/../h/my_console.h ****         return;
 663              		.loc 3 21 5
 664 03d0 63F4E700 		bgeu	a5,a4,.L39
 665 03d4 67800000 		ret
 666              	.L39:
 667              	.LBE214:
 668              	.LBE213:
 100:src/main.cpp  ****     assert(sizeof(void*) == 8);
 669              		.loc 1 100 1 is_stmt 0
 670 03d8 130101FF 		addi	sp,sp,-16
 671              		.cfi_def_cfa_offset 16
 672 03dc 23341100 		sd	ra,8(sp)
 673 03e0 23308100 		sd	s0,0(sp)
 674              		.cfi_offset 1, -8
 675              		.cfi_offset 8, -16
GAS LISTING /tmp/cccdGmMk.s 			page 21


 676 03e4 13040101 		addi	s0,sp,16
 677              		.cfi_def_cfa 8, 0
 678              	.LBB221:
 679              	.LBB220:
  24:src/../h/../h/my_console.h ****     putString(file);
 680              		.loc 3 24 5 is_stmt 1
  24:src/../h/../h/my_console.h ****     putString(file);
 681              		.loc 3 24 14 is_stmt 0
 682 03e8 17050000 		lla	a0,.LC0
 682      13050500 
 683 03f0 97000000 		call	_Z9putStringPKc@plt
 683      E7800000 
 684              	.LVL83:
  25:src/../h/../h/my_console.h ****     putString("    line: ");
 685              		.loc 3 25 5 is_stmt 1
  25:src/../h/../h/my_console.h ****     putString("    line: ");
 686              		.loc 3 25 14 is_stmt 0
 687 03f8 17050000 		lla	a0,.LC1
 687      13050500 
 688 0400 97000000 		call	_Z9putStringPKc@plt
 688      E7800000 
 689              	.LVL84:
  26:src/../h/../h/my_console.h ****     putInt(line);
 690              		.loc 3 26 5 is_stmt 1
  26:src/../h/../h/my_console.h ****     putInt(line);
 691              		.loc 3 26 14 is_stmt 0
 692 0408 17050000 		lla	a0,.LC2
 692      13050500 
 693 0410 97000000 		call	_Z9putStringPKc@plt
 693      E7800000 
 694              	.LVL85:
  27:src/../h/../h/my_console.h ****     putString("   ===========================");
 695              		.loc 3 27 5 is_stmt 1
  27:src/../h/../h/my_console.h ****     putString("   ===========================");
 696              		.loc 3 27 11 is_stmt 0
 697 0418 13056006 		li	a0,102
 698 041c 97000000 		call	_Z6putInti@plt
 698      E7800000 
 699              	.LVL86:
  28:src/../h/../h/my_console.h ****     putNewline();
 700              		.loc 3 28 5 is_stmt 1
  28:src/../h/../h/my_console.h ****     putNewline();
 701              		.loc 3 28 14 is_stmt 0
 702 0424 17050000 		lla	a0,.LC3
 702      13050500 
 703 042c 97000000 		call	_Z9putStringPKc@plt
 703      E7800000 
 704              	.LVL87:
  29:src/../h/../h/my_console.h **** 
 705              		.loc 3 29 5 is_stmt 1
  29:src/../h/../h/my_console.h **** 
 706              		.loc 3 29 15 is_stmt 0
 707 0434 97000000 		call	_Z10putNewlinev@plt
 707      E7800000 
 708              	.LVL88:
  31:src/../h/../h/my_console.h **** 
 709              		.loc 3 31 5 is_stmt 1
GAS LISTING /tmp/cccdGmMk.s 			page 22


 710              	.LBB215:
 711              	.LBB216:
  12:src/../h/../h/../h/0_console.h ****         return &instance;
 712              		.loc 4 12 9
  12:src/../h/../h/../h/0_console.h ****         return &instance;
 713              		.loc 4 12 25 is_stmt 0
 714 043c 97070000 		lbu	a5,_ZGVZN8IConsole3getEvE8instance
 714      83C70700 
 715 0444 63920702 		bnez	a5,.L35
 716              	.LVL89:
 717              	.LBB217:
 718              	.LBB218:
 719              	.LBB219:
 720              		.loc 4 32 63
 721 0448 97070000 		lla	a5,_ZZN8IConsole3getEvE8instance
 721      93870700 
 722 0450 23B00700 		sd	zero,0(a5)
 723 0454 23B40700 		sd	zero,8(a5)
 724 0458 23BC073E 		sd	zero,1016(a5)
 725              	.LVL90:
 726              	.LBE219:
 727              	.LBE218:
 728              	.LBE217:
  12:src/../h/../h/../h/0_console.h ****         return &instance;
 729              		.loc 4 12 25
 730 045c 93071000 		li	a5,1
 731 0460 17070000 		sb	a5,_ZGVZN8IConsole3getEvE8instance,a4
 731      2300F700 
 732              	.L35:
  13:src/../h/../h/../h/0_console.h ****     }
 733              		.loc 4 13 9 is_stmt 1
 734              	.LBE216:
 735              	.LBE215:
  31:src/../h/../h/my_console.h **** 
 736              		.loc 3 31 36 is_stmt 0
 737 0468 17050000 		lla	a0,_ZZN8IConsole3getEvE8instance
 737      13050500 
 738 0470 97000000 		call	_ZN8IConsole14writeToConsoleEv@plt
 738      E7800000 
 739              	.LVL91:
 740              		.loc 3 34 5 is_stmt 1
 741              		.loc 3 34 15 is_stmt 0
 742 0478 97000000 		call	_Z10stopKernelv@plt
 742      E7800000 
 743              	.LVL92:
 744              	.LBE220:
 745              	.LBE221:
 746              		.cfi_endproc
 747              	.LFE21:
 749              		.align	2
 750              		.globl	_Z19initInterruptVectorv
 752              	_Z19initInterruptVectorv:
 753              	.LFB22:
 113:src/main.cpp  **** 
 754              		.loc 1 113 1 is_stmt 1
 755              		.cfi_startproc
 756 0480 130101FF 		addi	sp,sp,-16
GAS LISTING /tmp/cccdGmMk.s 			page 23


 757              		.cfi_def_cfa_offset 16
 758 0484 23348100 		sd	s0,8(sp)
 759              		.cfi_offset 8, -8
 760 0488 13040101 		addi	s0,sp,16
 761              		.cfi_def_cfa 8, 0
 116:src/main.cpp  **** 
 762              		.loc 1 116 5
 116:src/main.cpp  **** 
 763              		.loc 1 116 78 is_stmt 0
 764 048c 97070000 		la	a5,trapRoutine
 764      83B70700 
 765              	#APP
 766              	# 116 "src/main.cpp" 1
 119:src/main.cpp  ****     __asm__ volatile ("csrc stvec, 0x2");
 767              		csrw stvec, a5
 768              	# 0 "" 2
 769              		.loc 1 119 5 is_stmt 1
 119:src/main.cpp  ****     __asm__ volatile ("csrc stvec, 0x2");
 770              		.loc 1 119 41 is_stmt 0
 771              	# 119 "src/main.cpp" 1
 120:src/main.cpp  **** }
 772              		csrs stvec, 0x1
 773              	# 0 "" 2
 774              		.loc 1 120 5 is_stmt 1
 120:src/main.cpp  **** }
 775              		.loc 1 120 41 is_stmt 0
 776              	# 120 "src/main.cpp" 1
 777              		csrc stvec, 0x2
 778              	# 0 "" 2
 779              		.loc 1 121 1
 780              	#NO_APP
 781 04a0 03348100 		ld	s0,8(sp)
 782              		.cfi_restore 8
 783              		.cfi_def_cfa 2, 16
 784 04a4 13010101 		addi	sp,sp,16
 785              		.cfi_def_cfa_offset 0
 786 04a8 67800000 		jr	ra
 787              		.cfi_endproc
 788              	.LFE22:
 790              		.align	2
 791              		.globl	main
 793              	main:
 794              	.LFB19:
  35:src/main.cpp  ****     disableExternalInterrupts();
 795              		.loc 1 35 1 is_stmt 1
 796              		.cfi_startproc
 797 04ac 130101FD 		addi	sp,sp,-48
 798              		.cfi_def_cfa_offset 48
 799 04b0 23341102 		sd	ra,40(sp)
 800 04b4 23308102 		sd	s0,32(sp)
 801 04b8 233C9100 		sd	s1,24(sp)
 802 04bc 23382101 		sd	s2,16(sp)
 803              		.cfi_offset 1, -8
 804              		.cfi_offset 8, -16
 805              		.cfi_offset 9, -24
 806              		.cfi_offset 18, -32
 807 04c0 13040103 		addi	s0,sp,48
GAS LISTING /tmp/cccdGmMk.s 			page 24


 808              		.cfi_def_cfa 8, 0
  36:src/main.cpp  **** 
 809              		.loc 1 36 5
  36:src/main.cpp  **** 
 810              		.loc 1 36 30 is_stmt 0
 811 04c4 97000000 		call	_Z25disableExternalInterruptsv@plt
 811      E7800000 
 812              	.LVL93:
  38:src/main.cpp  ****     doInitialAsserts();
 813              		.loc 1 38 5 is_stmt 1
  38:src/main.cpp  ****     doInitialAsserts();
 814              		.loc 1 38 24 is_stmt 0
 815 04cc 97000000 		call	_Z19initInterruptVectorv
 815      E7800000 
 816              	.LVL94:
  39:src/main.cpp  **** 
 817              		.loc 1 39 5 is_stmt 1
  39:src/main.cpp  **** 
 818              		.loc 1 39 21 is_stmt 0
 819 04d4 97000000 		call	_Z16doInitialAssertsv
 819      E7800000 
 820              	.LVL95:
  41:src/main.cpp  ****     __asm__ volatile ("mv %[name], sp" : [name] "=r"(sp));
 821              		.loc 1 41 5 is_stmt 1
  42:src/main.cpp  ****     kernelThread.sp = sp;
 822              		.loc 1 42 5
  42:src/main.cpp  ****     kernelThread.sp = sp;
 823              		.loc 1 42 58 is_stmt 0
 824              	#APP
 825              	# 42 "src/main.cpp" 1
 826              		mv a5, sp
 827              	# 0 "" 2
 828              	.LVL96:
  43:src/main.cpp  ****     IThread::setPRunning(&kernelThread);
 829              		.loc 1 43 5 is_stmt 1
  43:src/main.cpp  ****     IThread::setPRunning(&kernelThread);
 830              		.loc 1 43 21 is_stmt 0
 831              	#NO_APP
 832 04e0 17090000 		lla	s2,.LANCHOR0
 832      13090900 
 833 04e8 2338F904 		sd	a5,80(s2)
  44:src/main.cpp  ****     assert(&(IThread::getPRunning()->sp) == IThread::pRunningSp);
 834              		.loc 1 44 5 is_stmt 1
  44:src/main.cpp  ****     assert(&(IThread::getPRunning()->sp) == IThread::pRunningSp);
 835              		.loc 1 44 25 is_stmt 0
 836 04ec 13050900 		mv	a0,s2
 837 04f0 97000000 		call	_ZN7IThread11setPRunningEPS_@plt
 837      E7800000 
 838              	.LVL97:
  45:src/main.cpp  ****     kernelThread.id = 0;
 839              		.loc 1 45 5 is_stmt 1
 840 04f8 97000000 		call	_ZN7IThread11getPRunningEv@plt
 840      E7800000 
 841              	.LVL98:
 842 0500 93070505 		addi	a5,a0,80
 843 0504 17070000 		la	a4,_ZN7IThread10pRunningSpE
 843      03370700 
GAS LISTING /tmp/cccdGmMk.s 			page 25


 844 050c 03350700 		ld	a0,0(a4)
 845 0510 3305F540 		sub	a0,a0,a5
 846 0514 1306D002 		li	a2,45
 847 0518 97050000 		lla	a1,.LC1
 847      93850500 
 848 0520 13351500 		seqz	a0,a0
 849 0524 97000000 		call	_Z7_assertbPKci
 849      E7800000 
 850              	.LVL99:
  46:src/main.cpp  ****     IThread::pAllThreads[0] = &kernelThread;
 851              		.loc 1 46 5
  46:src/main.cpp  ****     IThread::pAllThreads[0] = &kernelThread;
 852              		.loc 1 46 21 is_stmt 0
 853 052c 23340902 		sd	zero,40(s2)
  47:src/main.cpp  **** 
 854              		.loc 1 47 5 is_stmt 1
  47:src/main.cpp  **** 
 855              		.loc 1 47 29 is_stmt 0
 856 0530 97040000 		la	s1,_ZN7IThread11pAllThreadsE
 856      83B40400 
 857 0538 23B02401 		sd	s2,0(s1)
  49:src/main.cpp  ****     thread_create(&busyWaitThread, &doBusyWaitThread, nullptr);
 858              		.loc 1 49 5 is_stmt 1
  50:src/main.cpp  ****     assert(IThread::pAllThreads[busyWaitThread]->id == BUSY_WAIT_THREAD_ID);
 859              		.loc 1 50 5
  50:src/main.cpp  ****     assert(IThread::pAllThreads[busyWaitThread]->id == BUSY_WAIT_THREAD_ID);
 860              		.loc 1 50 18 is_stmt 0
 861 053c 13060000 		li	a2,0
 862 0540 97050000 		lla	a1,_Z16doBusyWaitThreadPv
 862      93850500 
 863 0548 130584FD 		addi	a0,s0,-40
 864 054c 97000000 		call	_Z13thread_createPmPFvPvES0_@plt
 864      E7800000 
 865              	.LVL100:
  51:src/main.cpp  ****     Scheduler::get()->getNext();                                                 // get this functi
 866              		.loc 1 51 5 is_stmt 1
 867 0554 833784FD 		ld	a5,-40(s0)
 868 0558 93973700 		slli	a5,a5,3
 869 055c B384F400 		add	s1,s1,a5
 870 0560 83B70400 		ld	a5,0(s1)
 871 0564 03B58702 		ld	a0,40(a5)
 872 0568 1305F5FF 		addi	a0,a0,-1
 873 056c 13063003 		li	a2,51
 874 0570 97050000 		lla	a1,.LC1
 874      93850500 
 875 0578 13351500 		seqz	a0,a0
 876 057c 97000000 		call	_Z7_assertbPKci
 876      E7800000 
 877              	.LVL101:
  52:src/main.cpp  **** 
 878              		.loc 1 52 5
 879              	.LBB222:
 880              	.LBB223:
 881              		.file 5 "src/../h/scheduler.h"
   1:src/../h/scheduler.h **** #pragma once
   2:src/../h/scheduler.h **** 
   3:src/../h/scheduler.h **** #include "../h/thread.h"
GAS LISTING /tmp/cccdGmMk.s 			page 26


   4:src/../h/scheduler.h **** 
   5:src/../h/scheduler.h **** class Scheduler // singleton
   6:src/../h/scheduler.h **** {
   7:src/../h/scheduler.h **** public:
   8:src/../h/scheduler.h ****     static Scheduler* get()
   9:src/../h/scheduler.h ****     {
  10:src/../h/scheduler.h ****         static Scheduler instance;
 882              		.loc 5 10 9
 883              		.loc 5 10 26 is_stmt 0
 884 0584 97070000 		lbu	a5,_ZGVZN9Scheduler3getEvE8instance
 884      83C70700 
 885 058c 63900702 		bnez	a5,.L43
 886              	.LVL102:
 887              	.LBB224:
 888              	.LBB225:
 889              	.LBB226:
  11:src/../h/scheduler.h ****         return &instance;
  12:src/../h/scheduler.h ****     }
  13:src/../h/scheduler.h **** 
  14:src/../h/scheduler.h ****     int sleep(time_t time);
  15:src/../h/scheduler.h **** 
  16:src/../h/scheduler.h ****     static void dispatchToNext(); // WARNING: different than sys. call dispatch()
  17:src/../h/scheduler.h ****     static void dispatchUserVersion();
  18:src/../h/scheduler.h ****     static IThread* getNext();
  19:src/../h/scheduler.h ****     static void put(IThread*);
  20:src/../h/scheduler.h ****     static void printState();
  21:src/../h/scheduler.h **** 
  22:src/../h/scheduler.h ****     IThread* pHead; // points to the one that is the next to be run
  23:src/../h/scheduler.h ****     IThread* pSleepHead;
  24:src/../h/scheduler.h **** 
  25:src/../h/scheduler.h **** private:
  26:src/../h/scheduler.h ****     Scheduler()
  27:src/../h/scheduler.h ****         : pHead(nullptr), pSleepHead(nullptr)
 890              		.loc 5 27 45
 891 0590 97070000 		lla	a5,_ZZN9Scheduler3getEvE8instance
 891      93870700 
 892 0598 23B00700 		sd	zero,0(a5)
 893 059c 23B40700 		sd	zero,8(a5)
 894              	.LVL103:
 895              	.LBE226:
 896              	.LBE225:
 897              	.LBE224:
  10:src/../h/scheduler.h ****         return &instance;
 898              		.loc 5 10 26
 899 05a0 93071000 		li	a5,1
 900 05a4 17070000 		sb	a5,_ZGVZN9Scheduler3getEvE8instance,a4
 900      2300F700 
 901              	.L43:
  11:src/../h/scheduler.h ****         return &instance;
 902              		.loc 5 11 9 is_stmt 1
 903              	.LBE223:
 904              	.LBE222:
  52:src/main.cpp  **** 
 905              		.loc 1 52 31 is_stmt 0
 906 05ac 97000000 		call	_ZN9Scheduler7getNextEv@plt
 906      E7800000 
 907              	.LVL104:
GAS LISTING /tmp/cccdGmMk.s 			page 27


  54:src/main.cpp  ****     thread_create(&userThread, &userWrapper, nullptr);
 908              		.loc 1 54 5 is_stmt 1
  55:src/main.cpp  ****     assert(IThread::pAllThreads[userThread]->id == USER_THREAD_ID);
 909              		.loc 1 55 5
  55:src/main.cpp  ****     assert(IThread::pAllThreads[userThread]->id == USER_THREAD_ID);
 910              		.loc 1 55 18 is_stmt 0
 911 05b4 13060000 		li	a2,0
 912 05b8 97050000 		lla	a1,_Z11userWrapperPv
 912      93850500 
 913 05c0 130504FD 		addi	a0,s0,-48
 914 05c4 97000000 		call	_Z13thread_createPmPFvPvES0_@plt
 914      E7800000 
 915              	.LVL105:
  56:src/main.cpp  **** 
 916              		.loc 1 56 5 is_stmt 1
 917 05cc 833704FD 		ld	a5,-48(s0)
 918 05d0 13973700 		slli	a4,a5,3
 919 05d4 97070000 		la	a5,_ZN7IThread11pAllThreadsE
 919      83B70700 
 920 05dc B387E700 		add	a5,a5,a4
 921 05e0 83B70700 		ld	a5,0(a5)
 922 05e4 03B58702 		ld	a0,40(a5)
 923 05e8 1305E5FF 		addi	a0,a0,-2
 924 05ec 13068003 		li	a2,56
 925 05f0 97050000 		lla	a1,.LC1
 925      93850500 
 926 05f8 13351500 		seqz	a0,a0
 927 05fc 97000000 		call	_Z7_assertbPKci
 927      E7800000 
 928              	.LVL106:
  58:src/main.cpp  **** 
 929              		.loc 1 58 5
  58:src/main.cpp  **** 
 930              		.loc 1 58 72 is_stmt 0
 931 0604 97000000 		call	_ZN8MemAlloc3getEv@plt
 931      E7800000 
 932              	.LVL107:
 933 060c 97000000 		call	_ZN8MemAlloc16getUserlandUsageEv@plt
 933      E7800000 
 934              	.LVL108:
  58:src/main.cpp  **** 
 935              		.loc 1 58 37
 936 0614 97070000 		la	a5,_ZN7IThread22initialUserMemoryUsageE
 936      83B70700 
 937 061c 23B0A700 		sd	a0,0(a5)
  68:src/main.cpp  **** //    IThread* b = Scheduler::get()->getNext();
 938              		.loc 1 68 5 is_stmt 1
 939              	.LBB227:
 940              	.LBB228:
  10:src/../h/scheduler.h ****         return &instance;
 941              		.loc 5 10 9
  10:src/../h/scheduler.h ****         return &instance;
 942              		.loc 5 10 26 is_stmt 0
 943 0620 97070000 		lbu	a5,_ZGVZN9Scheduler3getEvE8instance
 943      83C70700 
 944 0628 63900702 		bnez	a5,.L44
 945              	.LVL109:
GAS LISTING /tmp/cccdGmMk.s 			page 28


 946              	.LBB229:
 947              	.LBB230:
 948              	.LBB231:
 949              		.loc 5 27 45
 950 062c 97070000 		lla	a5,_ZZN9Scheduler3getEvE8instance
 950      93870700 
 951 0634 23B00700 		sd	zero,0(a5)
 952 0638 23B40700 		sd	zero,8(a5)
 953              	.LVL110:
 954              	.LBE231:
 955              	.LBE230:
 956              	.LBE229:
  10:src/../h/scheduler.h ****         return &instance;
 957              		.loc 5 10 26
 958 063c 93071000 		li	a5,1
 959 0640 17070000 		sb	a5,_ZGVZN9Scheduler3getEvE8instance,a4
 959      2300F700 
 960              	.L44:
  11:src/../h/scheduler.h ****     }
 961              		.loc 5 11 9 is_stmt 1
 962              	.LBE228:
 963              	.LBE227:
  68:src/main.cpp  **** //    IThread* b = Scheduler::get()->getNext();
 964              		.loc 1 68 36 is_stmt 0
 965 0648 97070000 		ld	a5,_ZZN9Scheduler3getEvE8instance
 965      83B70700 
 966              	.LVL111:
  71:src/main.cpp  **** 
 967              		.loc 1 71 5 is_stmt 1
 968 0650 03B58702 		ld	a0,40(a5)
 969 0654 1305E5FF 		addi	a0,a0,-2
 970 0658 13067004 		li	a2,71
 971 065c 97050000 		lla	a1,.LC1
 971      93850500 
 972 0664 13351500 		seqz	a0,a0
 973 0668 97000000 		call	_Z7_assertbPKci
 973      E7800000 
 974              	.LVL112:
  73:src/main.cpp  ****     __asm__ volatile ("ecall");
 975              		.loc 1 73 5
  73:src/main.cpp  ****     __asm__ volatile ("ecall");
 976              		.loc 1 73 34 is_stmt 0
 977              	#APP
 978              	# 73 "src/main.cpp" 1
  74:src/main.cpp  **** 
 979              		li a0, 4
 980              	# 0 "" 2
 981              		.loc 1 74 5 is_stmt 1
  74:src/main.cpp  **** 
 982              		.loc 1 74 31 is_stmt 0
 983              	# 74 "src/main.cpp" 1
  76:src/main.cpp  **** 
 984              		ecall
 985              	# 0 "" 2
 986              		.loc 1 76 5 is_stmt 1
  76:src/main.cpp  **** 
 987              		.loc 1 76 43 is_stmt 0
GAS LISTING /tmp/cccdGmMk.s 			page 29


 988              	# 76 "src/main.cpp" 1
  78:src/main.cpp  **** }
 989              		csrw sscratch, x0
 990              	# 0 "" 2
 991              		.loc 1 78 5 is_stmt 1
  79:src/main.cpp  **** 
 992              		.loc 1 79 1 is_stmt 0
 993              	#NO_APP
 994 067c 13050000 		li	a0,0
 995 0680 83308102 		ld	ra,40(sp)
 996              		.cfi_restore 1
 997 0684 03340102 		ld	s0,32(sp)
 998              		.cfi_restore 8
 999              		.cfi_def_cfa 2, 48
 1000 0688 83348101 		ld	s1,24(sp)
 1001              		.cfi_restore 9
 1002 068c 03390101 		ld	s2,16(sp)
 1003              		.cfi_restore 18
 1004 0690 13010103 		addi	sp,sp,48
 1005              		.cfi_def_cfa_offset 0
 1006 0694 67800000 		jr	ra
 1007              		.cfi_endproc
 1008              	.LFE19:
 1010              		.align	2
 1012              	_GLOBAL__sub_I_kernelThread:
 1013              	.LFB24:
 1014              		.loc 1 121 1 is_stmt 1
 1015              		.cfi_startproc
 1016 0698 130101FF 		addi	sp,sp,-16
 1017              		.cfi_def_cfa_offset 16
 1018 069c 23341100 		sd	ra,8(sp)
 1019 06a0 23308100 		sd	s0,0(sp)
 1020              		.cfi_offset 1, -8
 1021              		.cfi_offset 8, -16
 1022 06a4 13040101 		addi	s0,sp,16
 1023              		.cfi_def_cfa 8, 0
 1024              		.loc 1 121 1 is_stmt 0
 1025 06a8 B7050100 		li	a1,65536
 1026 06ac 9385F5FF 		addi	a1,a1,-1
 1027 06b0 13051000 		li	a0,1
 1028 06b4 97000000 		call	_Z41__static_initialization_and_destruction_0ii
 1028      E7800000 
 1029              	.LVL113:
 1030 06bc 83308100 		ld	ra,8(sp)
 1031              		.cfi_restore 1
 1032 06c0 03340100 		ld	s0,0(sp)
 1033              		.cfi_restore 8
 1034              		.cfi_def_cfa 2, 16
 1035 06c4 13010101 		addi	sp,sp,16
 1036              		.cfi_def_cfa_offset 0
 1037 06c8 67800000 		jr	ra
 1038              		.cfi_endproc
 1039              	.LFE24:
 1041              		.section	.init_array,"aw"
 1042              		.align	3
 1043 0000 00000000 		.dword	_GLOBAL__sub_I_kernelThread
 1043      00000000 
GAS LISTING /tmp/cccdGmMk.s 			page 30


 1044              		.globl	kernelThread
 1045              		.weak	_ZGVZN9Scheduler3getEvE8instance
 1046              		.section	.bss._ZGVZN9Scheduler3getEvE8instance,"awG",@nobits,_ZGVZN9Scheduler3getEvE8instance,comd
 1047              		.align	3
 1050              	_ZGVZN9Scheduler3getEvE8instance:
 1051 0000 00000000 		.zero	8
 1051      00000000 
 1052              		.weak	_ZZN9Scheduler3getEvE8instance
 1053              		.section	.bss._ZZN9Scheduler3getEvE8instance,"awG",@nobits,_ZZN9Scheduler3getEvE8instance,comdat
 1054              		.align	3
 1057              	_ZZN9Scheduler3getEvE8instance:
 1058 0000 00000000 		.zero	16
 1058      00000000 
 1058      00000000 
 1058      00000000 
 1059              		.weak	_ZGVZN8IConsole3getEvE8instance
 1060              		.section	.bss._ZGVZN8IConsole3getEvE8instance,"awG",@nobits,_ZGVZN8IConsole3getEvE8instance,comdat
 1061              		.align	3
 1064              	_ZGVZN8IConsole3getEvE8instance:
 1065 0000 00000000 		.zero	8
 1065      00000000 
 1066              		.weak	_ZZN8IConsole3getEvE8instance
 1067              		.section	.bss._ZZN8IConsole3getEvE8instance,"awG",@nobits,_ZZN8IConsole3getEvE8instance,comdat
 1068              		.align	3
 1071              	_ZZN8IConsole3getEvE8instance:
 1072 0000 00000000 		.zero	2048
 1072      00000000 
 1072      00000000 
 1072      00000000 
 1072      00000000 
 1073              		.bss
 1074              		.align	3
 1075              		.set	.LANCHOR0,. + 0
 1078              	kernelThread:
 1079 0000 00000000 		.zero	88
 1079      00000000 
 1079      00000000 
 1079      00000000 
 1079      00000000 
 1080              		.text
 1081              	.Letext0:
 1082              		.file 6 "src/../h/../lib/hw.h"
 1083              		.file 7 "src/../h/alloc.h"
 1084              		.file 8 "src/../h/syscall_c.hpp"
 1085              		.file 9 "src/../h/../h/../h/risc.h"
GAS LISTING /tmp/cccdGmMk.s 			page 31


DEFINED SYMBOLS
                            *ABS*:0000000000000000 main.cpp
     /tmp/cccdGmMk.s:8      .text:0000000000000000 _Z41__static_initialization_and_destruction_0ii
     /tmp/cccdGmMk.s:12     .text:0000000000000000 .L0 
     /tmp/cccdGmMk.s:14     .text:0000000000000000 .L0 
     /tmp/cccdGmMk.s:15     .text:0000000000000004 .L0 
     /tmp/cccdGmMk.s:17     .text:0000000000000008 .L0 
     /tmp/cccdGmMk.s:19     .text:000000000000000c .L0 
     /tmp/cccdGmMk.s:21     .text:000000000000000c .L0 
     /tmp/cccdGmMk.s:25     .text:0000000000000018 .L0 
     /tmp/cccdGmMk.s:26     .text:0000000000000018 .L0 
     /tmp/cccdGmMk.s:27     .text:0000000000000018 .L0 
     /tmp/cccdGmMk.s:29     .text:000000000000001c .L0 
     /tmp/cccdGmMk.s:32     .text:0000000000000020 .L0 
     /tmp/cccdGmMk.s:34     .text:0000000000000020 .L0 
     /tmp/cccdGmMk.s:43     .text:000000000000002c .L0 
     /tmp/cccdGmMk.s:51     .text:000000000000003c .L0 
     /tmp/cccdGmMk.s:52     .text:0000000000000040 .L0 
     /tmp/cccdGmMk.s:75     .text:0000000000000040 _Z11userWrapperPv
     /tmp/cccdGmMk.s:78     .text:0000000000000040 .L0 
     /tmp/cccdGmMk.s:80     .text:0000000000000040 .L0 
     /tmp/cccdGmMk.s:81     .text:0000000000000044 .L0 
     /tmp/cccdGmMk.s:84     .text:000000000000004c .L0 
     /tmp/cccdGmMk.s:85     .text:000000000000004c .L0 
     /tmp/cccdGmMk.s:87     .text:0000000000000050 .L0 
     /tmp/cccdGmMk.s:93     .text:0000000000000050 .L0 
     /tmp/cccdGmMk.s:94     .text:0000000000000050 .L0 
     /tmp/cccdGmMk.s:99     .text:0000000000000054 .L0 
     /tmp/cccdGmMk.s:100    .text:0000000000000054 .L0 
     /tmp/cccdGmMk.s:109    .text:000000000000006c .L0 
     /tmp/cccdGmMk.s:114    .text:0000000000000070 .L0 
     /tmp/cccdGmMk.s:115    .text:0000000000000070 .L0 
     /tmp/cccdGmMk.s:116    .text:0000000000000070 .L0 
     /tmp/cccdGmMk.s:120    .text:0000000000000080 .L0 
     /tmp/cccdGmMk.s:121    .text:0000000000000080 .L0 
     /tmp/cccdGmMk.s:127    .text:0000000000000088 .L0 
     /tmp/cccdGmMk.s:128    .text:0000000000000088 .L0 
     /tmp/cccdGmMk.s:1064   .bss._ZGVZN8IConsole3getEvE8instance:0000000000000000 _ZGVZN8IConsole3getEvE8instance
     /tmp/cccdGmMk.s:129    .text:0000000000000088 .L0 
     /tmp/cccdGmMk.s:1071   .bss._ZZN8IConsole3getEvE8instance:0000000000000000 _ZZN8IConsole3getEvE8instance
     /tmp/cccdGmMk.s:136    .text:0000000000000094 .L0 
     /tmp/cccdGmMk.s:145    .text:00000000000000a8 .L0 
     /tmp/cccdGmMk.s:151    .text:00000000000000b4 .L0 
     /tmp/cccdGmMk.s:152    .text:00000000000000b4 .L0 
     /tmp/cccdGmMk.s:156    .text:00000000000000c4 .L0 
     /tmp/cccdGmMk.s:157    .text:00000000000000c4 .L0 
     /tmp/cccdGmMk.s:160    .text:00000000000000cc .L0 
     /tmp/cccdGmMk.s:161    .text:00000000000000d0 .L0 
     /tmp/cccdGmMk.s:162    .text:00000000000000d0 .L0 
     /tmp/cccdGmMk.s:164    .text:00000000000000d4 .L0 
     /tmp/cccdGmMk.s:165    .text:00000000000000d4 .L0 
     /tmp/cccdGmMk.s:167    .text:00000000000000d8 .L0 
     /tmp/cccdGmMk.s:171    .text:00000000000000dc .L0 
     /tmp/cccdGmMk.s:175    .text:00000000000000dc .L0 
     /tmp/cccdGmMk.s:176    .text:00000000000000dc .L0 
     /tmp/cccdGmMk.s:181    .text:00000000000000ec .L0 
     /tmp/cccdGmMk.s:182    .text:00000000000000ec .L0 
GAS LISTING /tmp/cccdGmMk.s 			page 32


     /tmp/cccdGmMk.s:186    .text:00000000000000fc .L0 
     /tmp/cccdGmMk.s:187    .text:00000000000000fc .L0 
     /tmp/cccdGmMk.s:191    .text:000000000000010c .L0 
     /tmp/cccdGmMk.s:192    .text:000000000000010c .L0 
     /tmp/cccdGmMk.s:196    .text:0000000000000118 .L0 
     /tmp/cccdGmMk.s:197    .text:0000000000000118 .L0 
     /tmp/cccdGmMk.s:201    .text:0000000000000128 .L0 
     /tmp/cccdGmMk.s:202    .text:0000000000000128 .L0 
     /tmp/cccdGmMk.s:207    .text:0000000000000130 .L0 
     /tmp/cccdGmMk.s:208    .text:0000000000000130 .L0 
     /tmp/cccdGmMk.s:209    .text:0000000000000130 .L0 
     /tmp/cccdGmMk.s:216    .text:000000000000013c .L0 
     /tmp/cccdGmMk.s:225    .text:0000000000000150 .L0 
     /tmp/cccdGmMk.s:231    .text:000000000000015c .L0 
     /tmp/cccdGmMk.s:232    .text:000000000000015c .L0 
     /tmp/cccdGmMk.s:236    .text:000000000000016c .L0 
     /tmp/cccdGmMk.s:237    .text:000000000000016c .L0 
     /tmp/cccdGmMk.s:245    .text:0000000000000174 .L0 
     /tmp/cccdGmMk.s:246    .text:0000000000000174 .L0 
     /tmp/cccdGmMk.s:251    .text:0000000000000184 .L0 
     /tmp/cccdGmMk.s:252    .text:0000000000000184 .L0 
     /tmp/cccdGmMk.s:256    .text:0000000000000194 .L0 
     /tmp/cccdGmMk.s:257    .text:0000000000000194 .L0 
     /tmp/cccdGmMk.s:261    .text:00000000000001a4 .L0 
     /tmp/cccdGmMk.s:262    .text:00000000000001a4 .L0 
     /tmp/cccdGmMk.s:266    .text:00000000000001b0 .L0 
     /tmp/cccdGmMk.s:267    .text:00000000000001b0 .L0 
     /tmp/cccdGmMk.s:271    .text:00000000000001c0 .L0 
     /tmp/cccdGmMk.s:272    .text:00000000000001c0 .L0 
     /tmp/cccdGmMk.s:277    .text:00000000000001c8 .L0 
     /tmp/cccdGmMk.s:278    .text:00000000000001c8 .L0 
     /tmp/cccdGmMk.s:279    .text:00000000000001c8 .L0 
     /tmp/cccdGmMk.s:286    .text:00000000000001d4 .L0 
     /tmp/cccdGmMk.s:295    .text:00000000000001e8 .L0 
     /tmp/cccdGmMk.s:301    .text:00000000000001f4 .L0 
     /tmp/cccdGmMk.s:302    .text:00000000000001f4 .L0 
     /tmp/cccdGmMk.s:306    .text:0000000000000204 .L0 
     /tmp/cccdGmMk.s:307    .text:0000000000000204 .L0 
     /tmp/cccdGmMk.s:311    .text:000000000000020c .L0 
     /tmp/cccdGmMk.s:317    .text:000000000000020c _Z16doBusyWaitThreadPv
     /tmp/cccdGmMk.s:320    .text:000000000000020c .L0 
     /tmp/cccdGmMk.s:322    .text:000000000000020c .L0 
     /tmp/cccdGmMk.s:323    .text:0000000000000210 .L0 
     /tmp/cccdGmMk.s:326    .text:0000000000000218 .L0 
     /tmp/cccdGmMk.s:327    .text:0000000000000218 .L0 
     /tmp/cccdGmMk.s:329    .text:000000000000021c .L0 
     /tmp/cccdGmMk.s:334    .text:000000000000021c .L0 
     /tmp/cccdGmMk.s:335    .text:000000000000021c .L0 
     /tmp/cccdGmMk.s:340    .text:0000000000000220 .L0 
     /tmp/cccdGmMk.s:341    .text:0000000000000220 .L0 
        src/main.cpp:84     .text:0000000000000220 .L0 
     /tmp/cccdGmMk.s:350    .text:0000000000000224 .L0 
     /tmp/cccdGmMk.s:351    .text:0000000000000224 .L0 
     /tmp/cccdGmMk.s:352    .text:0000000000000224 .L0 
     /tmp/cccdGmMk.s:357    .text:0000000000000234 .L0 
     /tmp/cccdGmMk.s:365    .text:0000000000000244 .L0 
     /tmp/cccdGmMk.s:370    .text:0000000000000248 .L0 
GAS LISTING /tmp/cccdGmMk.s 			page 33


     /tmp/cccdGmMk.s:371    .text:0000000000000248 .L0 
     /tmp/cccdGmMk.s:372    .text:0000000000000248 .L0 
     /tmp/cccdGmMk.s:375    .text:0000000000000250 .L0 
     /tmp/cccdGmMk.s:377    .text:0000000000000254 .L0 
     /tmp/cccdGmMk.s:379    .text:0000000000000258 .L0 
        src/main.cpp:93     .text:0000000000000258 .L0 
     /tmp/cccdGmMk.s:385    .text:000000000000025c .L0 
     /tmp/cccdGmMk.s:387    .text:000000000000025c .L0 
     /tmp/cccdGmMk.s:395    .text:0000000000000268 .L0 
     /tmp/cccdGmMk.s:396    .text:0000000000000268 .L0 
     /tmp/cccdGmMk.s:401    .text:0000000000000278 .L0 
     /tmp/cccdGmMk.s:402    .text:0000000000000278 .L0 
     /tmp/cccdGmMk.s:406    .text:0000000000000288 .L0 
     /tmp/cccdGmMk.s:407    .text:0000000000000288 .L0 
     /tmp/cccdGmMk.s:411    .text:0000000000000298 .L0 
     /tmp/cccdGmMk.s:412    .text:0000000000000298 .L0 
     /tmp/cccdGmMk.s:416    .text:00000000000002a4 .L0 
     /tmp/cccdGmMk.s:417    .text:00000000000002a4 .L0 
     /tmp/cccdGmMk.s:421    .text:00000000000002b4 .L0 
     /tmp/cccdGmMk.s:422    .text:00000000000002b4 .L0 
     /tmp/cccdGmMk.s:427    .text:00000000000002bc .L0 
     /tmp/cccdGmMk.s:428    .text:00000000000002bc .L0 
     /tmp/cccdGmMk.s:429    .text:00000000000002bc .L0 
     /tmp/cccdGmMk.s:436    .text:00000000000002c8 .L0 
     /tmp/cccdGmMk.s:445    .text:00000000000002dc .L0 
     /tmp/cccdGmMk.s:451    .text:00000000000002e8 .L0 
     /tmp/cccdGmMk.s:452    .text:00000000000002e8 .L0 
     /tmp/cccdGmMk.s:456    .text:00000000000002f8 .L0 
     /tmp/cccdGmMk.s:457    .text:00000000000002f8 .L0 
     /tmp/cccdGmMk.s:465    .text:0000000000000300 .L0 
     /tmp/cccdGmMk.s:466    .text:0000000000000300 .L0 
     /tmp/cccdGmMk.s:470    .text:0000000000000310 .L0 
     /tmp/cccdGmMk.s:471    .text:0000000000000310 .L0 
     /tmp/cccdGmMk.s:475    .text:0000000000000320 .L0 
     /tmp/cccdGmMk.s:476    .text:0000000000000320 .L0 
     /tmp/cccdGmMk.s:480    .text:0000000000000330 .L0 
     /tmp/cccdGmMk.s:481    .text:0000000000000330 .L0 
     /tmp/cccdGmMk.s:485    .text:000000000000033c .L0 
     /tmp/cccdGmMk.s:486    .text:000000000000033c .L0 
     /tmp/cccdGmMk.s:490    .text:000000000000034c .L0 
     /tmp/cccdGmMk.s:491    .text:000000000000034c .L0 
     /tmp/cccdGmMk.s:496    .text:0000000000000354 .L0 
     /tmp/cccdGmMk.s:497    .text:0000000000000354 .L0 
     /tmp/cccdGmMk.s:498    .text:0000000000000354 .L0 
     /tmp/cccdGmMk.s:505    .text:0000000000000360 .L0 
     /tmp/cccdGmMk.s:514    .text:0000000000000374 .L0 
     /tmp/cccdGmMk.s:520    .text:0000000000000380 .L0 
     /tmp/cccdGmMk.s:521    .text:0000000000000380 .L0 
     /tmp/cccdGmMk.s:525    .text:0000000000000390 .L0 
     /tmp/cccdGmMk.s:526    .text:0000000000000390 .L0 
     /tmp/cccdGmMk.s:532    .text:0000000000000398 .L0 
     /tmp/cccdGmMk.s:533    .text:000000000000039c .L0 
     /tmp/cccdGmMk.s:535    .text:00000000000003a0 .L0 
     /tmp/cccdGmMk.s:536    .text:00000000000003a0 .L0 
     /tmp/cccdGmMk.s:538    .text:00000000000003a4 .L0 
     /tmp/cccdGmMk.s:540    .text:00000000000003a8 .L0 
     /tmp/cccdGmMk.s:547    .text._Z7_assertbPKci:0000000000000000 _Z7_assertbPKci
GAS LISTING /tmp/cccdGmMk.s 			page 34


     /tmp/cccdGmMk.s:550    .text._Z7_assertbPKci:0000000000000000 .L0 
     /tmp/cccdGmMk.s:552    .text._Z7_assertbPKci:0000000000000000 .L0 
     /tmp/cccdGmMk.s:553    .text._Z7_assertbPKci:0000000000000000 .L0 
     /tmp/cccdGmMk.s:557    .text._Z7_assertbPKci:0000000000000008 .L0 
     /tmp/cccdGmMk.s:558    .text._Z7_assertbPKci:000000000000000c .L0 
     /tmp/cccdGmMk.s:563    .text._Z7_assertbPKci:000000000000001c .L0 
     /tmp/cccdGmMk.s:564    .text._Z7_assertbPKci:000000000000001c .L0 
     /tmp/cccdGmMk.s:565    .text._Z7_assertbPKci:000000000000001c .L0 
     /tmp/cccdGmMk.s:566    .text._Z7_assertbPKci:000000000000001c .L0 
     /tmp/cccdGmMk.s:568    .text._Z7_assertbPKci:0000000000000020 .L0 
     /tmp/cccdGmMk.s:572    .text._Z7_assertbPKci:0000000000000028 .L0 
     /tmp/cccdGmMk.s:573    .text._Z7_assertbPKci:0000000000000028 .L0 
     /tmp/cccdGmMk.s:578    .text._Z7_assertbPKci:0000000000000038 .L0 
     /tmp/cccdGmMk.s:579    .text._Z7_assertbPKci:0000000000000038 .L0 
     /tmp/cccdGmMk.s:583    .text._Z7_assertbPKci:0000000000000044 .L0 
     /tmp/cccdGmMk.s:584    .text._Z7_assertbPKci:0000000000000044 .L0 
     /tmp/cccdGmMk.s:588    .text._Z7_assertbPKci:0000000000000054 .L0 
     /tmp/cccdGmMk.s:589    .text._Z7_assertbPKci:0000000000000054 .L0 
     /tmp/cccdGmMk.s:593    .text._Z7_assertbPKci:0000000000000060 .L0 
     /tmp/cccdGmMk.s:594    .text._Z7_assertbPKci:0000000000000060 .L0 
     /tmp/cccdGmMk.s:598    .text._Z7_assertbPKci:0000000000000070 .L0 
     /tmp/cccdGmMk.s:599    .text._Z7_assertbPKci:0000000000000070 .L0 
     /tmp/cccdGmMk.s:604    .text._Z7_assertbPKci:0000000000000078 .L0 
     /tmp/cccdGmMk.s:605    .text._Z7_assertbPKci:0000000000000078 .L0 
     /tmp/cccdGmMk.s:606    .text._Z7_assertbPKci:0000000000000078 .L0 
     /tmp/cccdGmMk.s:613    .text._Z7_assertbPKci:0000000000000084 .L0 
     /tmp/cccdGmMk.s:622    .text._Z7_assertbPKci:0000000000000098 .L0 
     /tmp/cccdGmMk.s:628    .text._Z7_assertbPKci:00000000000000a4 .L0 
     /tmp/cccdGmMk.s:629    .text._Z7_assertbPKci:00000000000000a4 .L0 
     /tmp/cccdGmMk.s:633    .text._Z7_assertbPKci:00000000000000b4 .L0 
     /tmp/cccdGmMk.s:634    .text._Z7_assertbPKci:00000000000000b4 .L0 
     /tmp/cccdGmMk.s:636    .text._Z7_assertbPKci:00000000000000bc .L0 
     /tmp/cccdGmMk.s:643    .text:00000000000003a8 _Z16doInitialAssertsv
     /tmp/cccdGmMk.s:646    .text:00000000000003a8 .L0 
     /tmp/cccdGmMk.s:647    .text:00000000000003a8 .L0 
     /tmp/cccdGmMk.s:649    .text:00000000000003a8 .L0 
     /tmp/cccdGmMk.s:650    .text:00000000000003a8 .L0 
     /tmp/cccdGmMk.s:651    .text:00000000000003a8 .L0 
     /tmp/cccdGmMk.s:652    .text:00000000000003a8 .L0 
     /tmp/cccdGmMk.s:664    .text:00000000000003d0 .L0 
     /tmp/cccdGmMk.s:670    .text:00000000000003d8 .L0 
     /tmp/cccdGmMk.s:671    .text:00000000000003dc .L0 
     /tmp/cccdGmMk.s:674    .text:00000000000003e4 .L0 
     /tmp/cccdGmMk.s:675    .text:00000000000003e4 .L0 
     /tmp/cccdGmMk.s:677    .text:00000000000003e8 .L0 
     /tmp/cccdGmMk.s:681    .text:00000000000003e8 .L0 
     /tmp/cccdGmMk.s:682    .text:00000000000003e8 .L0 
     /tmp/cccdGmMk.s:686    .text:00000000000003f8 .L0 
     /tmp/cccdGmMk.s:687    .text:00000000000003f8 .L0 
     /tmp/cccdGmMk.s:691    .text:0000000000000408 .L0 
     /tmp/cccdGmMk.s:692    .text:0000000000000408 .L0 
     /tmp/cccdGmMk.s:696    .text:0000000000000418 .L0 
     /tmp/cccdGmMk.s:697    .text:0000000000000418 .L0 
     /tmp/cccdGmMk.s:701    .text:0000000000000424 .L0 
     /tmp/cccdGmMk.s:702    .text:0000000000000424 .L0 
     /tmp/cccdGmMk.s:706    .text:0000000000000434 .L0 
     /tmp/cccdGmMk.s:707    .text:0000000000000434 .L0 
GAS LISTING /tmp/cccdGmMk.s 			page 35


     /tmp/cccdGmMk.s:712    .text:000000000000043c .L0 
     /tmp/cccdGmMk.s:713    .text:000000000000043c .L0 
     /tmp/cccdGmMk.s:714    .text:000000000000043c .L0 
     /tmp/cccdGmMk.s:721    .text:0000000000000448 .L0 
     /tmp/cccdGmMk.s:730    .text:000000000000045c .L0 
     /tmp/cccdGmMk.s:736    .text:0000000000000468 .L0 
     /tmp/cccdGmMk.s:737    .text:0000000000000468 .L0 
     /tmp/cccdGmMk.s:741    .text:0000000000000478 .L0 
     /tmp/cccdGmMk.s:742    .text:0000000000000478 .L0 
     /tmp/cccdGmMk.s:746    .text:0000000000000480 .L0 
     /tmp/cccdGmMk.s:752    .text:0000000000000480 _Z19initInterruptVectorv
     /tmp/cccdGmMk.s:755    .text:0000000000000480 .L0 
     /tmp/cccdGmMk.s:756    .text:0000000000000480 .L0 
     /tmp/cccdGmMk.s:757    .text:0000000000000484 .L0 
     /tmp/cccdGmMk.s:759    .text:0000000000000488 .L0 
     /tmp/cccdGmMk.s:761    .text:000000000000048c .L0 
     /tmp/cccdGmMk.s:763    .text:000000000000048c .L0 
     /tmp/cccdGmMk.s:764    .text:000000000000048c .L0 
     /tmp/cccdGmMk.s:770    .text:0000000000000498 .L0 
        src/main.cpp:119    .text:0000000000000498 .L0 
     /tmp/cccdGmMk.s:775    .text:000000000000049c .L0 
        src/main.cpp:120    .text:000000000000049c .L0 
     /tmp/cccdGmMk.s:781    .text:00000000000004a0 .L0 
     /tmp/cccdGmMk.s:782    .text:00000000000004a4 .L0 
     /tmp/cccdGmMk.s:783    .text:00000000000004a4 .L0 
     /tmp/cccdGmMk.s:785    .text:00000000000004a8 .L0 
     /tmp/cccdGmMk.s:787    .text:00000000000004ac .L0 
     /tmp/cccdGmMk.s:793    .text:00000000000004ac main
     /tmp/cccdGmMk.s:796    .text:00000000000004ac .L0 
     /tmp/cccdGmMk.s:797    .text:00000000000004ac .L0 
     /tmp/cccdGmMk.s:798    .text:00000000000004b0 .L0 
     /tmp/cccdGmMk.s:803    .text:00000000000004c0 .L0 
     /tmp/cccdGmMk.s:804    .text:00000000000004c0 .L0 
     /tmp/cccdGmMk.s:805    .text:00000000000004c0 .L0 
     /tmp/cccdGmMk.s:806    .text:00000000000004c0 .L0 
     /tmp/cccdGmMk.s:808    .text:00000000000004c4 .L0 
     /tmp/cccdGmMk.s:810    .text:00000000000004c4 .L0 
     /tmp/cccdGmMk.s:811    .text:00000000000004c4 .L0 
     /tmp/cccdGmMk.s:814    .text:00000000000004cc .L0 
     /tmp/cccdGmMk.s:815    .text:00000000000004cc .L0 
     /tmp/cccdGmMk.s:818    .text:00000000000004d4 .L0 
     /tmp/cccdGmMk.s:819    .text:00000000000004d4 .L0 
     /tmp/cccdGmMk.s:822    .text:00000000000004dc .L0 
     /tmp/cccdGmMk.s:823    .text:00000000000004dc .L0 
        src/main.cpp:42     .text:00000000000004dc .L0 
     /tmp/cccdGmMk.s:830    .text:00000000000004e0 .L0 
     /tmp/cccdGmMk.s:832    .text:00000000000004e0 .L0 
     /tmp/cccdGmMk.s:835    .text:00000000000004ec .L0 
     /tmp/cccdGmMk.s:836    .text:00000000000004ec .L0 
     /tmp/cccdGmMk.s:840    .text:00000000000004f8 .L0 
     /tmp/cccdGmMk.s:852    .text:000000000000052c .L0 
     /tmp/cccdGmMk.s:853    .text:000000000000052c .L0 
     /tmp/cccdGmMk.s:855    .text:0000000000000530 .L0 
     /tmp/cccdGmMk.s:856    .text:0000000000000530 .L0 
     /tmp/cccdGmMk.s:859    .text:000000000000053c .L0 
     /tmp/cccdGmMk.s:860    .text:000000000000053c .L0 
     /tmp/cccdGmMk.s:861    .text:000000000000053c .L0 
GAS LISTING /tmp/cccdGmMk.s 			page 36


     /tmp/cccdGmMk.s:867    .text:0000000000000554 .L0 
     /tmp/cccdGmMk.s:882    .text:0000000000000584 .L0 
     /tmp/cccdGmMk.s:883    .text:0000000000000584 .L0 
     /tmp/cccdGmMk.s:1050   .bss._ZGVZN9Scheduler3getEvE8instance:0000000000000000 _ZGVZN9Scheduler3getEvE8instance
     /tmp/cccdGmMk.s:884    .text:0000000000000584 .L0 
     /tmp/cccdGmMk.s:1057   .bss._ZZN9Scheduler3getEvE8instance:0000000000000000 _ZZN9Scheduler3getEvE8instance
     /tmp/cccdGmMk.s:891    .text:0000000000000590 .L0 
     /tmp/cccdGmMk.s:899    .text:00000000000005a0 .L0 
     /tmp/cccdGmMk.s:905    .text:00000000000005ac .L0 
     /tmp/cccdGmMk.s:906    .text:00000000000005ac .L0 
     /tmp/cccdGmMk.s:909    .text:00000000000005b4 .L0 
     /tmp/cccdGmMk.s:910    .text:00000000000005b4 .L0 
     /tmp/cccdGmMk.s:911    .text:00000000000005b4 .L0 
     /tmp/cccdGmMk.s:917    .text:00000000000005cc .L0 
     /tmp/cccdGmMk.s:930    .text:0000000000000604 .L0 
     /tmp/cccdGmMk.s:931    .text:0000000000000604 .L0 
     /tmp/cccdGmMk.s:936    .text:0000000000000614 .L0 
     /tmp/cccdGmMk.s:941    .text:0000000000000620 .L0 
     /tmp/cccdGmMk.s:942    .text:0000000000000620 .L0 
     /tmp/cccdGmMk.s:943    .text:0000000000000620 .L0 
     /tmp/cccdGmMk.s:950    .text:000000000000062c .L0 
     /tmp/cccdGmMk.s:958    .text:000000000000063c .L0 
     /tmp/cccdGmMk.s:964    .text:0000000000000648 .L0 
     /tmp/cccdGmMk.s:965    .text:0000000000000648 .L0 
     /tmp/cccdGmMk.s:968    .text:0000000000000650 .L0 
     /tmp/cccdGmMk.s:976    .text:0000000000000670 .L0 
        src/main.cpp:73     .text:0000000000000670 .L0 
     /tmp/cccdGmMk.s:982    .text:0000000000000674 .L0 
        src/main.cpp:74     .text:0000000000000674 .L0 
     /tmp/cccdGmMk.s:987    .text:0000000000000678 .L0 
        src/main.cpp:76     .text:0000000000000678 .L0 
     /tmp/cccdGmMk.s:992    .text:000000000000067c .L0 
     /tmp/cccdGmMk.s:994    .text:000000000000067c .L0 
     /tmp/cccdGmMk.s:996    .text:0000000000000684 .L0 
     /tmp/cccdGmMk.s:998    .text:0000000000000688 .L0 
     /tmp/cccdGmMk.s:999    .text:0000000000000688 .L0 
     /tmp/cccdGmMk.s:1001   .text:000000000000068c .L0 
     /tmp/cccdGmMk.s:1003   .text:0000000000000690 .L0 
     /tmp/cccdGmMk.s:1005   .text:0000000000000694 .L0 
     /tmp/cccdGmMk.s:1007   .text:0000000000000698 .L0 
     /tmp/cccdGmMk.s:1012   .text:0000000000000698 _GLOBAL__sub_I_kernelThread
     /tmp/cccdGmMk.s:1015   .text:0000000000000698 .L0 
     /tmp/cccdGmMk.s:1016   .text:0000000000000698 .L0 
     /tmp/cccdGmMk.s:1017   .text:000000000000069c .L0 
     /tmp/cccdGmMk.s:1020   .text:00000000000006a4 .L0 
     /tmp/cccdGmMk.s:1021   .text:00000000000006a4 .L0 
     /tmp/cccdGmMk.s:1023   .text:00000000000006a8 .L0 
     /tmp/cccdGmMk.s:1025   .text:00000000000006a8 .L0 
     /tmp/cccdGmMk.s:1031   .text:00000000000006c0 .L0 
     /tmp/cccdGmMk.s:1033   .text:00000000000006c4 .L0 
     /tmp/cccdGmMk.s:1034   .text:00000000000006c4 .L0 
     /tmp/cccdGmMk.s:1036   .text:00000000000006c8 .L0 
     /tmp/cccdGmMk.s:1038   .text:00000000000006cc .L0 
     /tmp/cccdGmMk.s:1078   .bss:0000000000000000 kernelThread
     /tmp/cccdGmMk.s:1075   .bss:0000000000000000 .LANCHOR0
     /tmp/cccdGmMk.s:1086   .text:00000000000006cc .L0 
     /tmp/cccdGmMk.s:639    .text._Z7_assertbPKci:00000000000000bc .L0 
GAS LISTING /tmp/cccdGmMk.s 			page 37


     /tmp/cccdGmMk.s:43     .text:000000000000002c .L0 
     /tmp/cccdGmMk.s:103    .text:0000000000000060 .L0 
     /tmp/cccdGmMk.s:69     .rodata.str1.8:0000000000000068 .LC4
     /tmp/cccdGmMk.s:116    .text:0000000000000070 .L0 
     /tmp/cccdGmMk.s:129    .text:0000000000000088 .L0 
     /tmp/cccdGmMk.s:136    .text:0000000000000094 .L0 
     /tmp/cccdGmMk.s:146    .text:00000000000000ac .L0 
     /tmp/cccdGmMk.s:152    .text:00000000000000b4 .L0 
     /tmp/cccdGmMk.s:57     .rodata.str1.8:0000000000000000 .LC0
     /tmp/cccdGmMk.s:176    .text:00000000000000dc .L0 
     /tmp/cccdGmMk.s:60     .rodata.str1.8:0000000000000028 .LC1
     /tmp/cccdGmMk.s:182    .text:00000000000000ec .L0 
     /tmp/cccdGmMk.s:63     .rodata.str1.8:0000000000000038 .LC2
     /tmp/cccdGmMk.s:187    .text:00000000000000fc .L0 
     /tmp/cccdGmMk.s:66     .rodata.str1.8:0000000000000048 .LC3
     /tmp/cccdGmMk.s:197    .text:0000000000000118 .L0 
     /tmp/cccdGmMk.s:209    .text:0000000000000130 .L0 
     /tmp/cccdGmMk.s:216    .text:000000000000013c .L0 
     /tmp/cccdGmMk.s:226    .text:0000000000000154 .L0 
     /tmp/cccdGmMk.s:232    .text:000000000000015c .L0 
     /tmp/cccdGmMk.s:246    .text:0000000000000174 .L0 
     /tmp/cccdGmMk.s:252    .text:0000000000000184 .L0 
     /tmp/cccdGmMk.s:257    .text:0000000000000194 .L0 
     /tmp/cccdGmMk.s:267    .text:00000000000001b0 .L0 
     /tmp/cccdGmMk.s:279    .text:00000000000001c8 .L0 
     /tmp/cccdGmMk.s:286    .text:00000000000001d4 .L0 
     /tmp/cccdGmMk.s:296    .text:00000000000001ec .L0 
     /tmp/cccdGmMk.s:302    .text:00000000000001f4 .L0 
     /tmp/cccdGmMk.s:396    .text:0000000000000268 .L0 
     /tmp/cccdGmMk.s:402    .text:0000000000000278 .L0 
     /tmp/cccdGmMk.s:407    .text:0000000000000288 .L0 
     /tmp/cccdGmMk.s:417    .text:00000000000002a4 .L0 
     /tmp/cccdGmMk.s:429    .text:00000000000002bc .L0 
     /tmp/cccdGmMk.s:436    .text:00000000000002c8 .L0 
     /tmp/cccdGmMk.s:446    .text:00000000000002e0 .L0 
     /tmp/cccdGmMk.s:452    .text:00000000000002e8 .L0 
     /tmp/cccdGmMk.s:466    .text:0000000000000300 .L0 
     /tmp/cccdGmMk.s:471    .text:0000000000000310 .L0 
     /tmp/cccdGmMk.s:476    .text:0000000000000320 .L0 
     /tmp/cccdGmMk.s:486    .text:000000000000033c .L0 
     /tmp/cccdGmMk.s:498    .text:0000000000000354 .L0 
     /tmp/cccdGmMk.s:505    .text:0000000000000360 .L0 
     /tmp/cccdGmMk.s:515    .text:0000000000000378 .L0 
     /tmp/cccdGmMk.s:521    .text:0000000000000380 .L0 
     /tmp/cccdGmMk.s:652    .text:00000000000003a8 .L0 
     /tmp/cccdGmMk.s:654    .text:00000000000003b4 .L0 
     /tmp/cccdGmMk.s:682    .text:00000000000003e8 .L0 
     /tmp/cccdGmMk.s:687    .text:00000000000003f8 .L0 
     /tmp/cccdGmMk.s:692    .text:0000000000000408 .L0 
     /tmp/cccdGmMk.s:702    .text:0000000000000424 .L0 
     /tmp/cccdGmMk.s:714    .text:000000000000043c .L0 
     /tmp/cccdGmMk.s:721    .text:0000000000000448 .L0 
     /tmp/cccdGmMk.s:731    .text:0000000000000460 .L0 
     /tmp/cccdGmMk.s:737    .text:0000000000000468 .L0 
     /tmp/cccdGmMk.s:764    .text:000000000000048c .L0 
     /tmp/cccdGmMk.s:832    .text:00000000000004e0 .L0 
     /tmp/cccdGmMk.s:843    .text:0000000000000504 .L0 
GAS LISTING /tmp/cccdGmMk.s 			page 38


     /tmp/cccdGmMk.s:847    .text:0000000000000518 .L0 
     /tmp/cccdGmMk.s:856    .text:0000000000000530 .L0 
     /tmp/cccdGmMk.s:862    .text:0000000000000540 .L0 
     /tmp/cccdGmMk.s:874    .text:0000000000000570 .L0 
     /tmp/cccdGmMk.s:884    .text:0000000000000584 .L0 
     /tmp/cccdGmMk.s:891    .text:0000000000000590 .L0 
     /tmp/cccdGmMk.s:900    .text:00000000000005a4 .L0 
     /tmp/cccdGmMk.s:912    .text:00000000000005b8 .L0 
     /tmp/cccdGmMk.s:919    .text:00000000000005d4 .L0 
     /tmp/cccdGmMk.s:925    .text:00000000000005f0 .L0 
     /tmp/cccdGmMk.s:936    .text:0000000000000614 .L0 
     /tmp/cccdGmMk.s:943    .text:0000000000000620 .L0 
     /tmp/cccdGmMk.s:950    .text:000000000000062c .L0 
     /tmp/cccdGmMk.s:959    .text:0000000000000640 .L0 
     /tmp/cccdGmMk.s:965    .text:0000000000000648 .L0 
     /tmp/cccdGmMk.s:971    .text:000000000000065c .L0 
     /tmp/cccdGmMk.s:31     .text:0000000000000020 .L4
     /tmp/cccdGmMk.s:23     .text:0000000000000014 .L1
     /tmp/cccdGmMk.s:170    .text:00000000000000dc .L12
     /tmp/cccdGmMk.s:239    .text:0000000000000174 .L13
     /tmp/cccdGmMk.s:147    .text:00000000000000b4 .L10
     /tmp/cccdGmMk.s:227    .text:000000000000015c .L7
     /tmp/cccdGmMk.s:297    .text:00000000000001f4 .L9
     /tmp/cccdGmMk.s:391    .text:0000000000000268 .L23
     /tmp/cccdGmMk.s:528    .text:0000000000000398 .L14
     /tmp/cccdGmMk.s:459    .text:0000000000000300 .L24
     /tmp/cccdGmMk.s:348    .text:0000000000000224 .L20
     /tmp/cccdGmMk.s:447    .text:00000000000002e8 .L16
     /tmp/cccdGmMk.s:516    .text:0000000000000380 .L19
     /tmp/cccdGmMk.s:666    .text:00000000000003d8 .L39
     /tmp/cccdGmMk.s:732    .text:0000000000000468 .L35
     /tmp/cccdGmMk.s:901    .text:00000000000005ac .L43
     /tmp/cccdGmMk.s:960    .text:0000000000000648 .L44
     /tmp/cccdGmMk.s:573    .text._Z7_assertbPKci:0000000000000028 .L0 
     /tmp/cccdGmMk.s:584    .text._Z7_assertbPKci:0000000000000044 .L0 
     /tmp/cccdGmMk.s:594    .text._Z7_assertbPKci:0000000000000060 .L0 
     /tmp/cccdGmMk.s:606    .text._Z7_assertbPKci:0000000000000078 .L0 
     /tmp/cccdGmMk.s:613    .text._Z7_assertbPKci:0000000000000084 .L0 
     /tmp/cccdGmMk.s:623    .text._Z7_assertbPKci:000000000000009c .L0 
     /tmp/cccdGmMk.s:629    .text._Z7_assertbPKci:00000000000000a4 .L0 
     /tmp/cccdGmMk.s:555    .text._Z7_assertbPKci:0000000000000008 .L32
     /tmp/cccdGmMk.s:624    .text._Z7_assertbPKci:00000000000000a4 .L27
     /tmp/cccdGmMk.s:3321   .debug_abbrev:0000000000000000 .Ldebug_abbrev0
     /tmp/cccdGmMk.s:5241   .debug_str:00000000000008e3 .LASF163
     /tmp/cccdGmMk.s:5093   .debug_str:000000000000049b .LASF164
     /tmp/cccdGmMk.s:5189   .debug_str:0000000000000746 .LASF165
     /tmp/cccdGmMk.s:4915   .debug_ranges:0000000000000000 .Ldebug_ranges0
     /tmp/cccdGmMk.s:4953   .debug_line:0000000000000000 .Ldebug_line0
     /tmp/cccdGmMk.s:5135   .debug_str:00000000000005a7 .LASF0
     /tmp/cccdGmMk.s:5161   .debug_str:0000000000000665 .LASF1
     /tmp/cccdGmMk.s:5115   .debug_str:000000000000052c .LASF2
     /tmp/cccdGmMk.s:5083   .debug_str:000000000000046b .LASF4
     /tmp/cccdGmMk.s:5217   .debug_str:0000000000000844 .LASF3
     /tmp/cccdGmMk.s:4991   .debug_str:0000000000000143 .LASF5
     /tmp/cccdGmMk.s:5033   .debug_str:00000000000002cf .LASF6
     /tmp/cccdGmMk.s:5165   .debug_str:000000000000068f .LASF7
     /tmp/cccdGmMk.s:5133   .debug_str:0000000000000594 .LASF8
GAS LISTING /tmp/cccdGmMk.s 			page 39


     /tmp/cccdGmMk.s:5259   .debug_str:0000000000000a31 .LASF9
     /tmp/cccdGmMk.s:5063   .debug_str:00000000000003e1 .LASF10
     /tmp/cccdGmMk.s:5185   .debug_str:000000000000072e .LASF11
     /tmp/cccdGmMk.s:5245   .debug_str:00000000000009b2 .LASF12
     /tmp/cccdGmMk.s:4995   .debug_str:000000000000016f .LASF13
     /tmp/cccdGmMk.s:4965   .debug_str:000000000000006b .LASF14
     /tmp/cccdGmMk.s:5009   .debug_str:00000000000001ee .LASF15
     /tmp/cccdGmMk.s:5207   .debug_str:00000000000007d8 .LASF16
     /tmp/cccdGmMk.s:5023   .debug_str:000000000000026b .LASF17
     /tmp/cccdGmMk.s:4997   .debug_str:000000000000017f .LASF35
     /tmp/cccdGmMk.s:5205   .debug_str:00000000000007c5 .LASF37
     /tmp/cccdGmMk.s:5013   .debug_str:0000000000000219 .LASF26
     /tmp/cccdGmMk.s:5011   .debug_str:00000000000001fa .LASF28
     /tmp/cccdGmMk.s:5111   .debug_str:000000000000050d .LASF18
     /tmp/cccdGmMk.s:5025   .debug_str:0000000000000281 .LASF19
     /tmp/cccdGmMk.s:5265   .debug_str:0000000000000a5d .LASF20
     /tmp/cccdGmMk.s:5065   .debug_str:00000000000003ef .LASF21
     /tmp/cccdGmMk.s:5153   .debug_str:000000000000063d .LASF22
     /tmp/cccdGmMk.s:5021   .debug_str:000000000000025c .LASF23
     /tmp/cccdGmMk.s:4969   .debug_str:0000000000000080 .LASF24
     /tmp/cccdGmMk.s:5227   .debug_str:000000000000088e .LASF25
     /tmp/cccdGmMk.s:5125   .debug_str:0000000000000562 .LASF27
     /tmp/cccdGmMk.s:5277   .debug_str:0000000000000a98 .LASF29
     /tmp/cccdGmMk.s:4967   .debug_str:000000000000007b .LASF49
     /tmp/cccdGmMk.s:4971   .debug_str:000000000000008e .LASF51
     /tmp/cccdGmMk.s:5269   .debug_str:0000000000000a74 .LASF30
     /tmp/cccdGmMk.s:5017   .debug_str:0000000000000238 .LASF31
     /tmp/cccdGmMk.s:5047   .debug_str:000000000000034f .LASF32
     /tmp/cccdGmMk.s:4993   .debug_str:000000000000014a .LASF33
     /tmp/cccdGmMk.s:5091   .debug_str:000000000000048a .LASF43
     /tmp/cccdGmMk.s:5169   .debug_str:00000000000006c7 .LASF34
     /tmp/cccdGmMk.s:5117   .debug_str:000000000000053a .LASF36
     /tmp/cccdGmMk.s:5061   .debug_str:00000000000003ce .LASF38
     /tmp/cccdGmMk.s:5229   .debug_str:000000000000089c .LASF42
     /tmp/cccdGmMk.s:5067   .debug_str:00000000000003fe .LASF39
     /tmp/cccdGmMk.s:5233   .debug_str:00000000000008c1 .LASF40
     /tmp/cccdGmMk.s:5275   .debug_str:0000000000000a93 .LASF41
     /tmp/cccdGmMk.s:4961   .debug_str:000000000000002d .LASF44
     /tmp/cccdGmMk.s:5131   .debug_str:000000000000058a .LASF45
     /tmp/cccdGmMk.s:5079   .debug_str:0000000000000455 .LASF46
     /tmp/cccdGmMk.s:5109   .debug_str:00000000000004ef .LASF47
     /tmp/cccdGmMk.s:5051   .debug_str:0000000000000372 .LASF48
     /tmp/cccdGmMk.s:5273   .debug_str:0000000000000a8a .LASF50
     /tmp/cccdGmMk.s:5003   .debug_str:00000000000001b9 .LASF52
     /tmp/cccdGmMk.s:5173   .debug_str:00000000000006f2 .LASF53
     /tmp/cccdGmMk.s:5073   .debug_str:000000000000041a .LASF54
     /tmp/cccdGmMk.s:5255   .debug_str:0000000000000a16 .LASF55
     /tmp/cccdGmMk.s:4963   .debug_str:000000000000004a .LASF56
     /tmp/cccdGmMk.s:5279   .debug_str:0000000000000aac .LASF57
     /tmp/cccdGmMk.s:5281   .debug_str:0000000000000abf .LASF58
     /tmp/cccdGmMk.s:5097   .debug_str:00000000000004ae .LASF59
     /tmp/cccdGmMk.s:5159   .debug_str:0000000000000654 .LASF60
     /tmp/cccdGmMk.s:4955   .debug_str:0000000000000000 .LASF61
     /tmp/cccdGmMk.s:5155   .debug_str:0000000000000647 .LASF62
     /tmp/cccdGmMk.s:5071   .debug_str:0000000000000414 .LASF166
     /tmp/cccdGmMk.s:5175   .debug_str:00000000000006fa .LASF63
     /tmp/cccdGmMk.s:5127   .debug_str:0000000000000567 .LASF64
GAS LISTING /tmp/cccdGmMk.s 			page 40


     /tmp/cccdGmMk.s:5183   .debug_str:0000000000000728 .LASF65
     /tmp/cccdGmMk.s:5263   .debug_str:0000000000000a50 .LASF66
     /tmp/cccdGmMk.s:5101   .debug_str:00000000000004cb .LASF67
     /tmp/cccdGmMk.s:5043   .debug_str:0000000000000324 .LASF68
     /tmp/cccdGmMk.s:5287   .debug_str:0000000000000b0d .LASF69
     /tmp/cccdGmMk.s:5219   .debug_str:0000000000000856 .LASF70
     /tmp/cccdGmMk.s:4999   .debug_str:0000000000000188 .LASF71
     /tmp/cccdGmMk.s:5237   .debug_str:00000000000008cc .LASF72
     /tmp/cccdGmMk.s:5081   .debug_str:000000000000045f .LASF73
     /tmp/cccdGmMk.s:5075   .debug_str:0000000000000432 .LASF74
     /tmp/cccdGmMk.s:4957   .debug_str:0000000000000009 .LASF75
     /tmp/cccdGmMk.s:5239   .debug_str:00000000000008d7 .LASF76
     /tmp/cccdGmMk.s:5147   .debug_str:0000000000000613 .LASF80
     /tmp/cccdGmMk.s:5181   .debug_str:000000000000071c .LASF82
     /tmp/cccdGmMk.s:5057   .debug_str:000000000000039e .LASF84
     /tmp/cccdGmMk.s:4959   .debug_str:0000000000000020 .LASF77
     /tmp/cccdGmMk.s:5171   .debug_str:00000000000006cc .LASF78
     /tmp/cccdGmMk.s:5199   .debug_str:0000000000000791 .LASF167
     /tmp/cccdGmMk.s:5103   .debug_str:00000000000004d7 .LASF79
     /tmp/cccdGmMk.s:4979   .debug_str:00000000000000d4 .LASF81
     /tmp/cccdGmMk.s:5295   .debug_str:0000000000000b39 .LASF109
     /tmp/cccdGmMk.s:4983   .debug_str:0000000000000105 .LASF111
     /tmp/cccdGmMk.s:5221   .debug_str:0000000000000867 .LASF83
     /tmp/cccdGmMk.s:5059   .debug_str:00000000000003bb .LASF85
     /tmp/cccdGmMk.s:5095   .debug_str:00000000000004a8 .LASF86
     /tmp/cccdGmMk.s:5087   .debug_str:000000000000047d .LASF87
     /tmp/cccdGmMk.s:5149   .debug_str:000000000000062e .LASF88
     /tmp/cccdGmMk.s:5291   .debug_str:0000000000000b28 .LASF89
     /tmp/cccdGmMk.s:5151   .debug_str:0000000000000633 .LASF90
     /tmp/cccdGmMk.s:5267   .debug_str:0000000000000a67 .LASF91
     /tmp/cccdGmMk.s:5121   .debug_str:0000000000000549 .LASF92
     /tmp/cccdGmMk.s:5261   .debug_str:0000000000000a41 .LASF93
     /tmp/cccdGmMk.s:5141   .debug_str:00000000000005d5 .LASF94
     /tmp/cccdGmMk.s:5177   .debug_str:0000000000000702 .LASF95
     /tmp/cccdGmMk.s:5293   .debug_str:0000000000000b34 .LASF96
     /tmp/cccdGmMk.s:5247   .debug_str:00000000000009c1 .LASF97
     /tmp/cccdGmMk.s:5283   .debug_str:0000000000000ae2 .LASF98
     /tmp/cccdGmMk.s:5209   .debug_str:00000000000007ee .LASF99
     /tmp/cccdGmMk.s:5041   .debug_str:0000000000000319 .LASF100
     /tmp/cccdGmMk.s:5035   .debug_str:00000000000002d6 .LASF101
     /tmp/cccdGmMk.s:5215   .debug_str:0000000000000829 .LASF102
     /tmp/cccdGmMk.s:5187   .debug_str:000000000000073d .LASF103
     /tmp/cccdGmMk.s:5053   .debug_str:000000000000037d .LASF104
     /tmp/cccdGmMk.s:5179   .debug_str:0000000000000712 .LASF105
     /tmp/cccdGmMk.s:5077   .debug_str:0000000000000441 .LASF106
     /tmp/cccdGmMk.s:5235   .debug_str:00000000000008c6 .LASF107
     /tmp/cccdGmMk.s:5031   .debug_str:00000000000002b9 .LASF108
     /tmp/cccdGmMk.s:5191   .debug_str:000000000000075a .LASF110
     /tmp/cccdGmMk.s:5285   .debug_str:0000000000000aed .LASF112
     /tmp/cccdGmMk.s:5123   .debug_str:000000000000054e .LASF113
     /tmp/cccdGmMk.s:5167   .debug_str:00000000000006a2 .LASF114
     /tmp/cccdGmMk.s:5089   .debug_str:0000000000000482 .LASF115
     /tmp/cccdGmMk.s:5007   .debug_str:00000000000001d6 .LASF116
     /tmp/cccdGmMk.s:5055   .debug_str:0000000000000382 .LASF168
     /tmp/cccdGmMk.s:4987   .debug_str:000000000000012c .LASF117
     /tmp/cccdGmMk.s:5231   .debug_str:00000000000008a5 .LASF118
     /tmp/cccdGmMk.s:5193   .debug_str:0000000000000769 .LASF119
GAS LISTING /tmp/cccdGmMk.s 			page 41


     /tmp/cccdGmMk.s:4975   .debug_str:00000000000000ad .LASF120
     /tmp/cccdGmMk.s:5251   .debug_str:00000000000009f5 .LASF121
     /tmp/cccdGmMk.s:5001   .debug_str:000000000000019d .LASF122
     /tmp/cccdGmMk.s:1013   .text:0000000000000698 .LFB24
     /tmp/cccdGmMk.s:1039   .text:00000000000006cc .LFE24
     /tmp/cccdGmMk.s:1029   .text:00000000000006bc .LVL113
     /tmp/cccdGmMk.s:5203   .debug_str:000000000000079b .LASF123
     /tmp/cccdGmMk.s:9      .text:0000000000000000 .LFB23
     /tmp/cccdGmMk.s:53     .text:0000000000000040 .LFE23
     /tmp/cccdGmMk.s:5099   .debug_str:00000000000004bc .LASF124
     /tmp/cccdGmMk.s:5085   .debug_str:0000000000000472 .LASF125
     /tmp/cccdGmMk.s:38     .text:000000000000002c .LBB87
     /tmp/cccdGmMk.s:49     .text:000000000000003c .LBE87
     /tmp/cccdGmMk.s:4475   .debug_loc:0000000000000000 .LLST0
     /tmp/cccdGmMk.s:5253   .debug_str:0000000000000a02 .LASF169
     /tmp/cccdGmMk.s:5129   .debug_str:0000000000000571 .LASF170
     /tmp/cccdGmMk.s:753    .text:0000000000000480 .LFB22
     /tmp/cccdGmMk.s:788    .text:00000000000004ac .LFE22
     /tmp/cccdGmMk.s:5137   .debug_str:00000000000005b4 .LASF126
     /tmp/cccdGmMk.s:5249   .debug_str:00000000000009df .LASF127
     /tmp/cccdGmMk.s:644    .text:00000000000003a8 .LFB21
     /tmp/cccdGmMk.s:747    .text:0000000000000480 .LFE21
     /tmp/cccdGmMk.s:661    .text:00000000000003d0 .LBB213
     /tmp/cccdGmMk.s:4484   .debug_loc:000000000000002c .LLST24
     /tmp/cccdGmMk.s:710    .text:000000000000043c .LBB215
     /tmp/cccdGmMk.s:735    .text:0000000000000468 .LBE215
     /tmp/cccdGmMk.s:717    .text:0000000000000448 .LBB217
     /tmp/cccdGmMk.s:728    .text:000000000000045c .LBE217
     /tmp/cccdGmMk.s:4500   .debug_loc:000000000000006a .LLST25
     /tmp/cccdGmMk.s:684    .text:00000000000003f8 .LVL83
     /tmp/cccdGmMk.s:689    .text:0000000000000408 .LVL84
     /tmp/cccdGmMk.s:694    .text:0000000000000418 .LVL85
     /tmp/cccdGmMk.s:699    .text:0000000000000424 .LVL86
     /tmp/cccdGmMk.s:704    .text:0000000000000434 .LVL87
     /tmp/cccdGmMk.s:708    .text:000000000000043c .LVL88
     /tmp/cccdGmMk.s:739    .text:0000000000000478 .LVL91
     /tmp/cccdGmMk.s:743    .text:0000000000000480 .LVL92
     /tmp/cccdGmMk.s:5211   .debug_str:0000000000000808 .LASF128
     /tmp/cccdGmMk.s:5163   .debug_str:0000000000000678 .LASF129
     /tmp/cccdGmMk.s:318    .text:000000000000020c .LFB20
     /tmp/cccdGmMk.s:541    .text:00000000000003a8 .LFE20
     /tmp/cccdGmMk.s:4509   .debug_loc:0000000000000096 .LLST11
     /tmp/cccdGmMk.s:332    .text:000000000000021c .LBB146
     /tmp/cccdGmMk.s:4534   .debug_loc:00000000000000f8 .LLST12
     /tmp/cccdGmMk.s:4549   .debug_loc:0000000000000132 .LLST13
     /tmp/cccdGmMk.s:4564   .debug_loc:000000000000017a .LLST14
     /tmp/cccdGmMk.s:425    .text:00000000000002bc .LBB148
     /tmp/cccdGmMk.s:450    .text:00000000000002e8 .LBE148
     /tmp/cccdGmMk.s:432    .text:00000000000002c8 .LBB150
     /tmp/cccdGmMk.s:443    .text:00000000000002dc .LBE150
     /tmp/cccdGmMk.s:4592   .debug_loc:00000000000001d0 .LLST15
     /tmp/cccdGmMk.s:399    .text:0000000000000278 .LVL49
     /tmp/cccdGmMk.s:404    .text:0000000000000288 .LVL50
     /tmp/cccdGmMk.s:409    .text:0000000000000298 .LVL51
     /tmp/cccdGmMk.s:414    .text:00000000000002a4 .LVL52
     /tmp/cccdGmMk.s:419    .text:00000000000002b4 .LVL53
     /tmp/cccdGmMk.s:423    .text:00000000000002bc .LVL54
GAS LISTING /tmp/cccdGmMk.s 			page 42


     /tmp/cccdGmMk.s:454    .text:00000000000002f8 .LVL57
     /tmp/cccdGmMk.s:458    .text:0000000000000300 .LVL58
     /tmp/cccdGmMk.s:362    .text:0000000000000244 .LBB154
     /tmp/cccdGmMk.s:4601   .debug_loc:00000000000001fc .LLST16
     /tmp/cccdGmMk.s:4616   .debug_loc:0000000000000236 .LLST17
     /tmp/cccdGmMk.s:4631   .debug_loc:000000000000027e .LLST18
     /tmp/cccdGmMk.s:494    .text:0000000000000354 .LBB156
     /tmp/cccdGmMk.s:519    .text:0000000000000380 .LBE156
     /tmp/cccdGmMk.s:501    .text:0000000000000360 .LBB158
     /tmp/cccdGmMk.s:512    .text:0000000000000374 .LBE158
     /tmp/cccdGmMk.s:4650   .debug_loc:00000000000002bc .LLST19
     /tmp/cccdGmMk.s:468    .text:0000000000000310 .LVL59
     /tmp/cccdGmMk.s:473    .text:0000000000000320 .LVL60
     /tmp/cccdGmMk.s:478    .text:0000000000000330 .LVL61
     /tmp/cccdGmMk.s:483    .text:000000000000033c .LVL62
     /tmp/cccdGmMk.s:488    .text:000000000000034c .LVL63
     /tmp/cccdGmMk.s:492    .text:0000000000000354 .LVL64
     /tmp/cccdGmMk.s:523    .text:0000000000000390 .LVL67
     /tmp/cccdGmMk.s:527    .text:0000000000000398 .LVL68
     /tmp/cccdGmMk.s:358    .text:000000000000023c .LVL42
     /tmp/cccdGmMk.s:373    .text:0000000000000250 .LVL45
     /tmp/cccdGmMk.s:388    .text:0000000000000264 .LVL46
     /tmp/cccdGmMk.s:5005   .debug_str:00000000000001d1 .LASF130
     /tmp/cccdGmMk.s:794    .text:00000000000004ac .LFB19
     /tmp/cccdGmMk.s:1008   .text:0000000000000698 .LFE19
     /tmp/cccdGmMk.s:4659   .debug_loc:00000000000002e8 .LLST26
     /tmp/cccdGmMk.s:5039   .debug_str:000000000000030a .LASF131
     /tmp/cccdGmMk.s:5105   .debug_str:00000000000004dc .LASF132
     /tmp/cccdGmMk.s:4666   .debug_loc:000000000000030b .LLST27
     /tmp/cccdGmMk.s:879    .text:0000000000000584 .LBB222
     /tmp/cccdGmMk.s:904    .text:00000000000005ac .LBE222
     /tmp/cccdGmMk.s:887    .text:0000000000000590 .LBB224
     /tmp/cccdGmMk.s:897    .text:00000000000005a0 .LBE224
     /tmp/cccdGmMk.s:4673   .debug_loc:000000000000032e .LLST28
     /tmp/cccdGmMk.s:939    .text:0000000000000620 .LBB227
     /tmp/cccdGmMk.s:963    .text:0000000000000648 .LBE227
     /tmp/cccdGmMk.s:946    .text:000000000000062c .LBB229
     /tmp/cccdGmMk.s:956    .text:000000000000063c .LBE229
     /tmp/cccdGmMk.s:4682   .debug_loc:000000000000035a .LLST29
     /tmp/cccdGmMk.s:812    .text:00000000000004cc .LVL93
     /tmp/cccdGmMk.s:816    .text:00000000000004d4 .LVL94
     /tmp/cccdGmMk.s:820    .text:00000000000004dc .LVL95
     /tmp/cccdGmMk.s:838    .text:00000000000004f8 .LVL97
     /tmp/cccdGmMk.s:841    .text:0000000000000500 .LVL98
     /tmp/cccdGmMk.s:850    .text:000000000000052c .LVL99
     /tmp/cccdGmMk.s:865    .text:0000000000000554 .LVL100
     /tmp/cccdGmMk.s:877    .text:0000000000000584 .LVL101
     /tmp/cccdGmMk.s:907    .text:00000000000005b4 .LVL104
     /tmp/cccdGmMk.s:915    .text:00000000000005cc .LVL105
     /tmp/cccdGmMk.s:928    .text:0000000000000604 .LVL106
     /tmp/cccdGmMk.s:932    .text:000000000000060c .LVL107
     /tmp/cccdGmMk.s:934    .text:0000000000000614 .LVL108
     /tmp/cccdGmMk.s:974    .text:0000000000000670 .LVL112
     /tmp/cccdGmMk.s:4989   .debug_str:0000000000000137 .LASF133
     /tmp/cccdGmMk.s:5223   .debug_str:000000000000086c .LASF134
     /tmp/cccdGmMk.s:76     .text:0000000000000040 .LFB18
     /tmp/cccdGmMk.s:312    .text:000000000000020c .LFE18
GAS LISTING /tmp/cccdGmMk.s 			page 43


     /tmp/cccdGmMk.s:4691   .debug_loc:0000000000000386 .LLST1
     /tmp/cccdGmMk.s:90     .text:0000000000000050 .LBB109
     /tmp/cccdGmMk.s:4716   .debug_loc:00000000000003e8 .LLST2
     /tmp/cccdGmMk.s:4729   .debug_loc:0000000000000420 .LLST3
     /tmp/cccdGmMk.s:4744   .debug_loc:0000000000000468 .LLST4
     /tmp/cccdGmMk.s:205    .text:0000000000000130 .LBB111
     /tmp/cccdGmMk.s:230    .text:000000000000015c .LBE111
     /tmp/cccdGmMk.s:212    .text:000000000000013c .LBB113
     /tmp/cccdGmMk.s:223    .text:0000000000000150 .LBE113
     /tmp/cccdGmMk.s:4772   .debug_loc:00000000000004be .LLST5
     /tmp/cccdGmMk.s:179    .text:00000000000000ec .LVL17
     /tmp/cccdGmMk.s:184    .text:00000000000000fc .LVL18
     /tmp/cccdGmMk.s:189    .text:000000000000010c .LVL19
     /tmp/cccdGmMk.s:194    .text:0000000000000118 .LVL20
     /tmp/cccdGmMk.s:199    .text:0000000000000128 .LVL21
     /tmp/cccdGmMk.s:203    .text:0000000000000130 .LVL22
     /tmp/cccdGmMk.s:234    .text:000000000000016c .LVL25
     /tmp/cccdGmMk.s:238    .text:0000000000000174 .LVL26
     /tmp/cccdGmMk.s:106    .text:000000000000006c .LBB117
     /tmp/cccdGmMk.s:4781   .debug_loc:00000000000004ea .LLST6
     /tmp/cccdGmMk.s:4794   .debug_loc:0000000000000522 .LLST7
     /tmp/cccdGmMk.s:4809   .debug_loc:000000000000056a .LLST8
     /tmp/cccdGmMk.s:275    .text:00000000000001c8 .LBB119
     /tmp/cccdGmMk.s:300    .text:00000000000001f4 .LBE119
     /tmp/cccdGmMk.s:282    .text:00000000000001d4 .LBB121
     /tmp/cccdGmMk.s:293    .text:00000000000001e8 .LBE121
     /tmp/cccdGmMk.s:4834   .debug_loc:00000000000005ae .LLST9
     /tmp/cccdGmMk.s:249    .text:0000000000000184 .LVL28
     /tmp/cccdGmMk.s:254    .text:0000000000000194 .LVL29
     /tmp/cccdGmMk.s:259    .text:00000000000001a4 .LVL30
     /tmp/cccdGmMk.s:264    .text:00000000000001b0 .LVL31
     /tmp/cccdGmMk.s:269    .text:00000000000001c0 .LVL32
     /tmp/cccdGmMk.s:273    .text:00000000000001c8 .LVL33
     /tmp/cccdGmMk.s:304    .text:0000000000000204 .LVL36
     /tmp/cccdGmMk.s:308    .text:000000000000020c .LVL37
     /tmp/cccdGmMk.s:124    .text:0000000000000088 .LBB125
     /tmp/cccdGmMk.s:150    .text:00000000000000b4 .LBE125
     /tmp/cccdGmMk.s:132    .text:0000000000000094 .LBB127
     /tmp/cccdGmMk.s:143    .text:00000000000000a8 .LBE127
     /tmp/cccdGmMk.s:4843   .debug_loc:00000000000005da .LLST10
     /tmp/cccdGmMk.s:101    .text:000000000000005c .LVL6
     /tmp/cccdGmMk.s:118    .text:0000000000000080 .LVL9
     /tmp/cccdGmMk.s:122    .text:0000000000000088 .LVL10
     /tmp/cccdGmMk.s:154    .text:00000000000000c4 .LVL13
     /tmp/cccdGmMk.s:158    .text:00000000000000cc .LVL14
     /tmp/cccdGmMk.s:5201   .debug_str:0000000000000796 .LASF135
     /tmp/cccdGmMk.s:5197   .debug_str:000000000000077f .LASF136
     /tmp/cccdGmMk.s:5145   .debug_str:000000000000060a .LASF144
     /tmp/cccdGmMk.s:5045   .debug_str:0000000000000330 .LASF145
     /tmp/cccdGmMk.s:5069   .debug_str:0000000000000404 .LASF137
     /tmp/cccdGmMk.s:5107   .debug_str:00000000000004e7 .LASF138
     /tmp/cccdGmMk.s:5213   .debug_str:0000000000000819 .LASF139
     /tmp/cccdGmMk.s:5119   .debug_str:0000000000000543 .LASF140
     /tmp/cccdGmMk.s:5019   .debug_str:0000000000000257 .LASF141
     /tmp/cccdGmMk.s:5157   .debug_str:000000000000064f .LASF142
     /tmp/cccdGmMk.s:5113   .debug_str:000000000000051b .LASF143
     /tmp/cccdGmMk.s:4981   .debug_str:00000000000000e7 .LASF146
GAS LISTING /tmp/cccdGmMk.s 			page 44


     /tmp/cccdGmMk.s:548    .text._Z7_assertbPKci:0000000000000000 .LFB4
     /tmp/cccdGmMk.s:637    .text._Z7_assertbPKci:00000000000000bc .LFE4
     /tmp/cccdGmMk.s:4852   .debug_loc:0000000000000606 .LLST20
     /tmp/cccdGmMk.s:4866   .debug_loc:000000000000063f .LLST21
     /tmp/cccdGmMk.s:4877   .debug_loc:0000000000000675 .LLST22
     /tmp/cccdGmMk.s:602    .text._Z7_assertbPKci:0000000000000078 .LBB169
     /tmp/cccdGmMk.s:627    .text._Z7_assertbPKci:00000000000000a4 .LBE169
     /tmp/cccdGmMk.s:609    .text._Z7_assertbPKci:0000000000000084 .LBB171
     /tmp/cccdGmMk.s:620    .text._Z7_assertbPKci:0000000000000098 .LBE171
     /tmp/cccdGmMk.s:4891   .debug_loc:00000000000006ae .LLST23
     /tmp/cccdGmMk.s:576    .text._Z7_assertbPKci:0000000000000038 .LVL71
     /tmp/cccdGmMk.s:581    .text._Z7_assertbPKci:0000000000000044 .LVL72
     /tmp/cccdGmMk.s:586    .text._Z7_assertbPKci:0000000000000054 .LVL73
     /tmp/cccdGmMk.s:591    .text._Z7_assertbPKci:0000000000000060 .LVL74
     /tmp/cccdGmMk.s:596    .text._Z7_assertbPKci:0000000000000070 .LVL75
     /tmp/cccdGmMk.s:600    .text._Z7_assertbPKci:0000000000000078 .LVL76
     /tmp/cccdGmMk.s:631    .text._Z7_assertbPKci:00000000000000b4 .LVL79
     /tmp/cccdGmMk.s:635    .text._Z7_assertbPKci:00000000000000bc .LVL80
     /tmp/cccdGmMk.s:5289   .debug_str:0000000000000b18 .LASF147
     /tmp/cccdGmMk.s:5257   .debug_str:0000000000000a27 .LASF149
     /tmp/cccdGmMk.s:5029   .debug_str:00000000000002ae .LASF148
     /tmp/cccdGmMk.s:5271   .debug_str:0000000000000a83 .LASF150
     /tmp/cccdGmMk.s:5225   .debug_str:000000000000087e .LASF151
     /tmp/cccdGmMk.s:4973   .debug_str:00000000000000a2 .LASF152
     /tmp/cccdGmMk.s:5195   .debug_str:000000000000076f .LASF153
     /tmp/cccdGmMk.s:4985   .debug_str:0000000000000121 .LASF154
     /tmp/cccdGmMk.s:4977   .debug_str:00000000000000bf .LASF155
     /tmp/cccdGmMk.s:5015   .debug_str:0000000000000228 .LASF156
     /tmp/cccdGmMk.s:5027   .debug_str:000000000000028f .LASF157
     /tmp/cccdGmMk.s:5037   .debug_str:00000000000002f0 .LASF158
     /tmp/cccdGmMk.s:5143   .debug_str:00000000000005ed .LASF159
     /tmp/cccdGmMk.s:5049   .debug_str:0000000000000364 .LASF160
     /tmp/cccdGmMk.s:5139   .debug_str:00000000000005c5 .LASF161
     /tmp/cccdGmMk.s:5243   .debug_str:00000000000009a7 .LASF162
     /tmp/cccdGmMk.s:37     .text:000000000000002c .LVL1
     /tmp/cccdGmMk.s:46     .text:000000000000003c .LVL2
     /tmp/cccdGmMk.s:660    .text:00000000000003d0 .LVL82
     /tmp/cccdGmMk.s:716    .text:0000000000000448 .LVL89
     /tmp/cccdGmMk.s:725    .text:000000000000045c .LVL90
     /tmp/cccdGmMk.s:321    .text:000000000000020c .LVL38
     /tmp/cccdGmMk.s:346    .text:0000000000000224 .LVL41
     /tmp/cccdGmMk.s:390    .text:0000000000000268 .LVL47
     /tmp/cccdGmMk.s:397    .text:0000000000000270 .LVL48
     /tmp/cccdGmMk.s:331    .text:000000000000021c .LVL39
     /tmp/cccdGmMk.s:337    .text:0000000000000220 .LVL40
     /tmp/cccdGmMk.s:431    .text:00000000000002c8 .LVL55
     /tmp/cccdGmMk.s:440    .text:00000000000002dc .LVL56
     /tmp/cccdGmMk.s:361    .text:0000000000000244 .LVL43
     /tmp/cccdGmMk.s:367    .text:0000000000000248 .LVL44
     /tmp/cccdGmMk.s:500    .text:0000000000000360 .LVL65
     /tmp/cccdGmMk.s:509    .text:0000000000000374 .LVL66
     /tmp/cccdGmMk.s:828    .text:00000000000004e0 .LVL96
     /tmp/cccdGmMk.s:966    .text:0000000000000650 .LVL111
     /tmp/cccdGmMk.s:886    .text:0000000000000590 .LVL102
     /tmp/cccdGmMk.s:894    .text:00000000000005a0 .LVL103
     /tmp/cccdGmMk.s:945    .text:000000000000062c .LVL109
     /tmp/cccdGmMk.s:953    .text:000000000000063c .LVL110
GAS LISTING /tmp/cccdGmMk.s 			page 45


     /tmp/cccdGmMk.s:79     .text:0000000000000040 .LVL3
     /tmp/cccdGmMk.s:169    .text:00000000000000dc .LVL15
     /tmp/cccdGmMk.s:177    .text:00000000000000e4 .LVL16
     /tmp/cccdGmMk.s:89     .text:0000000000000050 .LVL4
     /tmp/cccdGmMk.s:96     .text:0000000000000054 .LVL5
     /tmp/cccdGmMk.s:211    .text:000000000000013c .LVL23
     /tmp/cccdGmMk.s:220    .text:0000000000000150 .LVL24
     /tmp/cccdGmMk.s:105    .text:000000000000006c .LVL7
     /tmp/cccdGmMk.s:111    .text:0000000000000070 .LVL8
     /tmp/cccdGmMk.s:247    .text:000000000000017c .LVL27
     /tmp/cccdGmMk.s:281    .text:00000000000001d4 .LVL34
     /tmp/cccdGmMk.s:290    .text:00000000000001e8 .LVL35
     /tmp/cccdGmMk.s:131    .text:0000000000000094 .LVL11
     /tmp/cccdGmMk.s:140    .text:00000000000000a8 .LVL12
     /tmp/cccdGmMk.s:551    .text._Z7_assertbPKci:0000000000000000 .LVL69
     /tmp/cccdGmMk.s:574    .text._Z7_assertbPKci:0000000000000030 .LVL70
     /tmp/cccdGmMk.s:608    .text._Z7_assertbPKci:0000000000000084 .LVL77
     /tmp/cccdGmMk.s:617    .text._Z7_assertbPKci:0000000000000098 .LVL78
     /tmp/cccdGmMk.s:1087   .debug_info:0000000000000000 .Ldebug_info0
     /tmp/cccdGmMk.s:5      .text:0000000000000000 .Ltext0
     /tmp/cccdGmMk.s:1081   .text:00000000000006cc .Letext0
     /tmp/cccdGmMk.s:98     .text:0000000000000054 .LBE109
     /tmp/cccdGmMk.s:172    .text:00000000000000dc .LBB130
     /tmp/cccdGmMk.s:241    .text:0000000000000174 .LBE130
     /tmp/cccdGmMk.s:113    .text:0000000000000070 .LBE117
     /tmp/cccdGmMk.s:242    .text:0000000000000174 .LBB131
     /tmp/cccdGmMk.s:310    .text:000000000000020c .LBE131
     /tmp/cccdGmMk.s:339    .text:0000000000000220 .LBE146
     /tmp/cccdGmMk.s:392    .text:0000000000000268 .LBB162
     /tmp/cccdGmMk.s:461    .text:0000000000000300 .LBE162
     /tmp/cccdGmMk.s:369    .text:0000000000000248 .LBE154
     /tmp/cccdGmMk.s:462    .text:0000000000000300 .LBB163
     /tmp/cccdGmMk.s:530    .text:0000000000000398 .LBE163
     /tmp/cccdGmMk.s:668    .text:00000000000003d8 .LBE213
     /tmp/cccdGmMk.s:678    .text:00000000000003e8 .LBB221
     /tmp/cccdGmMk.s:745    .text:0000000000000480 .LBE221

UNDEFINED SYMBOLS
_ZN7IThread11getPRunningEv
_ZN7IThread10pRunningSpE
_Z9putStringPKc
_Z10putNewlinev
_ZN8IConsole20actualWriteToConsoleEv
_Z10myUserMainv
_Z6putInti
_ZN8IConsole14writeToConsoleEv
_Z10stopKernelv
_Z15thread_dispatchv
HEAP_END_ADDR
HEAP_START_ADDR
trapRoutine
_Z25disableExternalInterruptsv
_ZN7IThread11setPRunningEPS_
_ZN7IThread11pAllThreadsE
_Z13thread_createPmPFvPvES0_
_ZN9Scheduler7getNextEv
_ZN8MemAlloc3getEv
GAS LISTING /tmp/cccdGmMk.s 			page 46


_ZN8MemAlloc16getUserlandUsageEv
_ZN7IThread22initialUserMemoryUsageE
