GAS LISTING /tmp/ccsOLUNE.s 			page 1


   1              		.file	"main.cpp"
   2              		.option pic
   3              		.option norelax
   4              		.text
   5              	.Ltext0:
   6              		.align	2
   8              	_Z41__static_initialization_and_destruction_0ii:
   9              	.LFB24:
  10              		.file 1 "src/main.cpp"
   1:src/main.cpp  **** #include "../h/alloc.h"
   2:src/main.cpp  **** #include "../h/syscall_c.hpp"
   3:src/main.cpp  **** #include "../h/thread.h"
   4:src/main.cpp  **** #include "../h/scheduler.h"
   5:src/main.cpp  **** #include "../h/0_console.h"
   6:src/main.cpp  **** 
   7:src/main.cpp  **** extern "C" void trapRoutine();
   8:src/main.cpp  **** 
   9:src/main.cpp  **** void myUserMain();
  10:src/main.cpp  **** void doInitialAsserts();
  11:src/main.cpp  **** void initInterruptVector();
  12:src/main.cpp  **** void doBusyWaitThread(void*);
  13:src/main.cpp  **** 
  14:src/main.cpp  **** uint64 fib(uint64 n);
  15:src/main.cpp  **** 
  16:src/main.cpp  **** IThread kernelThread;
  17:src/main.cpp  **** 
  18:src/main.cpp  **** void userWrapper(void* p)
  19:src/main.cpp  **** {
  20:src/main.cpp  ****     assert(p == nullptr);
  21:src/main.cpp  ****     assert(&(IThread::getPRunning()->sp) == IThread::pRunningSp);
  22:src/main.cpp  **** 
  23:src/main.cpp  ****     enableExternalInterrupts();
  24:src/main.cpp  **** 
  25:src/main.cpp  ****     putString("Cigane");
  26:src/main.cpp  ****     putNewline();
  27:src/main.cpp  ****     IConsole::get()->writeToConsole();
  28:src/main.cpp  **** 
  29:src/main.cpp  ****     myUserMain();
  30:src/main.cpp  **** }
  31:src/main.cpp  **** 
  32:src/main.cpp  **** int main()
  33:src/main.cpp  **** {
  34:src/main.cpp  ****     disableExternalInterrupts();
  35:src/main.cpp  **** 
  36:src/main.cpp  ****     initInterruptVector();
  37:src/main.cpp  ****     doInitialAsserts();
  38:src/main.cpp  **** 
  39:src/main.cpp  ****     uint64* sp;
  40:src/main.cpp  ****     __asm__ volatile ("mv %[name], sp" : [name] "=r"(sp));
  41:src/main.cpp  ****     kernelThread.sp = sp;
  42:src/main.cpp  ****     IThread::setPRunning(&kernelThread);
  43:src/main.cpp  ****     assert(&(IThread::getPRunning()->sp) == IThread::pRunningSp);
  44:src/main.cpp  ****     kernelThread.id = 0;
  45:src/main.cpp  ****     IThread::pAllThreads[0] = &kernelThread;
  46:src/main.cpp  **** 
  47:src/main.cpp  ****     thread_t busyWaitThread;
  48:src/main.cpp  ****     thread_create(&busyWaitThread, &doBusyWaitThread, nullptr);
GAS LISTING /tmp/ccsOLUNE.s 			page 2


  49:src/main.cpp  ****     assert(IThread::pAllThreads[busyWaitThread]->id == BUSY_WAIT_THREAD_ID);
  50:src/main.cpp  ****     Scheduler::get()->getNext();                                                 // get this functi
  51:src/main.cpp  **** 
  52:src/main.cpp  ****     thread_t userThread;
  53:src/main.cpp  ****     thread_create(&userThread, &userWrapper, nullptr);
  54:src/main.cpp  ****     assert(IThread::pAllThreads[userThread]->id == USER_THREAD_ID);
  55:src/main.cpp  **** 
  56:src/main.cpp  ****     IThread::initialUserMemoryUsage = MemAlloc::get()->getUserlandUsage();
  57:src/main.cpp  **** 
  58:src/main.cpp  **** //    plic_claim();
  59:src/main.cpp  **** //    plic_complete(10);
  60:src/main.cpp  **** 
  61:src/main.cpp  ****     IThread* a = Scheduler::get()->pHead;
  62:src/main.cpp  **** //    IThread* b = Scheduler::get()->getNext();
  63:src/main.cpp  **** //    assert(a == b);
  64:src/main.cpp  ****     assert(a->id == USER_THREAD_ID);
  65:src/main.cpp  **** 
  66:src/main.cpp  ****     __asm__ volatile ("li a0, 4"); // this is a system call that calls IThread::switchToUser()
  67:src/main.cpp  ****     __asm__ volatile ("ecall");
  68:src/main.cpp  **** 
  69:src/main.cpp  ****     __asm__ volatile ("csrw sscratch, x0"); //TEST permissions
  70:src/main.cpp  **** 
  71:src/main.cpp  ****     return 0;
  72:src/main.cpp  **** }
  73:src/main.cpp  **** 
  74:src/main.cpp  **** void doBusyWaitThread(void* p)
  75:src/main.cpp  **** {
  76:src/main.cpp  ****     assert(p == nullptr);
  77:src/main.cpp  ****     __asm__ volatile("mv x10, x10");
  78:src/main.cpp  **** 
  79:src/main.cpp  ****     volatile uint64 a;
  80:src/main.cpp  ****     while(a++)
  81:src/main.cpp  ****     {
  82:src/main.cpp  ****         assert(IThread::getPRunning()->id == BUSY_WAIT_THREAD_ID);
  83:src/main.cpp  **** 
  84:src/main.cpp  ****         if(IThread::getPRunning()->pNext != nullptr)
  85:src/main.cpp  ****         {
  86:src/main.cpp  ****             __asm__ volatile("mv x10, x10");
  87:src/main.cpp  ****             thread_dispatch();
  88:src/main.cpp  ****         }
  89:src/main.cpp  ****     }
  90:src/main.cpp  **** }
  91:src/main.cpp  **** 
  92:src/main.cpp  **** void doInitialAsserts()
  93:src/main.cpp  **** {
  94:src/main.cpp  ****     assert(sizeof(void*) == 8);
  95:src/main.cpp  ****     assert((((uint64)HEAP_END_ADDR - (uint64)HEAP_START_ADDR) / 1024 / 1024) == 127);
  96:src/main.cpp  ****     assert(DEFAULT_STACK_SIZE == 4096);
  97:src/main.cpp  ****     assert(DEFAULT_TIME_SLICE == 2);
  98:src/main.cpp  ****     assert(sizeof(char) == 1);
  99:src/main.cpp  ****     assert(sizeof(IThread) < 1000);
 100:src/main.cpp  ****     assert(sizeof(int) == 4);
 101:src/main.cpp  ****     assert(sizeof(uint64) == 8);
 102:src/main.cpp  ****     assert(sizeof(unsigned long) == sizeof(uint64));
 103:src/main.cpp  **** }
 104:src/main.cpp  **** 
 105:src/main.cpp  **** void initInterruptVector()
GAS LISTING /tmp/ccsOLUNE.s 			page 3


 106:src/main.cpp  **** {
 107:src/main.cpp  **** 
 108:src/main.cpp  **** // should be before changing sstatus 0x2 bit
 109:src/main.cpp  ****     __asm__ volatile ("csrw stvec, %[vector]" : : [vector] "r"(&trapRoutine));
 110:src/main.cpp  **** 
 111:src/main.cpp  **** // set MODE to 1 - vector mode
 112:src/main.cpp  ****     __asm__ volatile ("csrs stvec, 0x1");
 113:src/main.cpp  ****     __asm__ volatile ("csrc stvec, 0x2");
 114:src/main.cpp  **** }
 115:src/main.cpp  **** 
 116:src/main.cpp  **** 
 117:src/main.cpp  **** void consoleStuff(void* p)
 118:src/main.cpp  **** {
 119:src/main.cpp  ****     assert(false);
 120:src/main.cpp  **** 
 121:src/main.cpp  ****     assert(p == nullptr);
 122:src/main.cpp  **** 
 123:src/main.cpp  ****     IConsole* cons = IConsole::get();
 124:src/main.cpp  **** 
 125:src/main.cpp  ****     while(true)
 126:src/main.cpp  ****     {
 127:src/main.cpp  ****         thread_dispatch();
 128:src/main.cpp  **** 
 129:src/main.cpp  ****         bool readyWrite = false;
 130:src/main.cpp  ****         bool readyRead = false;
 131:src/main.cpp  **** 
 132:src/main.cpp  **** //        int a = plic_claim();
 133:src/main.cpp  **** //
 134:src/main.cpp  **** //        if (a == 0)
 135:src/main.cpp  **** //            continue;
 136:src/main.cpp  **** //
 137:src/main.cpp  **** //        assert(a == 10);
 138:src/main.cpp  **** 
 139:src/main.cpp  ****         if (((*((char *) CONSOLE_STATUS)) & CONSOLE_TX_STATUS_BIT) != 0) {
 140:src/main.cpp  ****             readyWrite = true;
 141:src/main.cpp  ****             if (cons->putBufferItems > 0)
 142:src/main.cpp  ****             {
 143:src/main.cpp  ****                 int a = plic_claim();
 144:src/main.cpp  **** 
 145:src/main.cpp  ****                 char output = cons->putBuffer[cons->putBufferTail];
 146:src/main.cpp  ****                 *((char *) CONSOLE_TX_DATA) = output;
 147:src/main.cpp  **** 
 148:src/main.cpp  ****                 __asm__ volatile ("mv x10, x10");
 149:src/main.cpp  ****                 assert(a == 10);
 150:src/main.cpp  **** 
 151:src/main.cpp  ****                 cons->putBufferItems--;
 152:src/main.cpp  ****                 cons->putBufferTail = (cons->putBufferTail + 1) % BUFFER_SIZE;
 153:src/main.cpp  ****             }
 154:src/main.cpp  ****         }
 155:src/main.cpp  **** 
 156:src/main.cpp  ****         if (((*((char *) CONSOLE_STATUS)) & CONSOLE_RX_STATUS_BIT) != 0)
 157:src/main.cpp  ****         {
 158:src/main.cpp  ****             assert(false);
 159:src/main.cpp  ****             assert(cons->getBufferItems < BUFFER_SIZE - 1);
 160:src/main.cpp  **** 
 161:src/main.cpp  ****             readyRead = true;
 162:src/main.cpp  ****             char c = *((char *) CONSOLE_TX_DATA); // ovde nista ne radim zapravo, samo retriev-ujem
GAS LISTING /tmp/ccsOLUNE.s 			page 4


 163:src/main.cpp  **** 
 164:src/main.cpp  ****             cons->getBuffer[cons->getBufferHead] = c;
 165:src/main.cpp  **** 
 166:src/main.cpp  ****             cons->getBufferHead = (cons->getBufferHead + 1) % BUFFER_SIZE;
 167:src/main.cpp  ****             cons->getBufferItems++;
 168:src/main.cpp  ****         }
 169:src/main.cpp  **** 
 170:src/main.cpp  ****         __asm__ volatile ("mv x10, x10");
 171:src/main.cpp  **** 
 172:src/main.cpp  ****         plic_complete(10);
 173:src/main.cpp  **** 
 174:src/main.cpp  ****         assert(readyRead || readyWrite);
 175:src/main.cpp  ****     }
 176:src/main.cpp  **** }
  11              		.loc 1 176 1
  12              		.cfi_startproc
  13              	.LVL0:
  14 0000 130101FF 		addi	sp,sp,-16
  15              		.cfi_def_cfa_offset 16
  16 0004 23348100 		sd	s0,8(sp)
  17              		.cfi_offset 8, -8
  18 0008 13040101 		addi	s0,sp,16
  19              		.cfi_def_cfa 8, 0
  20              		.loc 1 176 1 is_stmt 0
  21 000c 93071000 		li	a5,1
  22 0010 6308F500 		beq	a0,a5,.L4
  23              	.L1:
  24 0014 03348100 		ld	s0,8(sp)
  25              		.cfi_remember_state
  26              		.cfi_restore 8
  27              		.cfi_def_cfa 2, 16
  28 0018 13010101 		addi	sp,sp,16
  29              		.cfi_def_cfa_offset 0
  30 001c 67800000 		jr	ra
  31              	.L4:
  32              		.cfi_restore_state
  33              		.loc 1 176 1 discriminator 1
  34 0020 B7070100 		li	a5,65536
  35 0024 9387F7FF 		addi	a5,a5,-1
  36 0028 E396F5FE 		bne	a1,a5,.L1
  37              	.LVL1:
  38              	.LBB54:
  39              	.LBB55:
  40              	.LBB56:
  41              		.file 2 "src/../h/thread.h"
   1:src/../h/thread.h **** #pragma once
   2:src/../h/thread.h **** #include "../lib/hw.h"
   3:src/../h/thread.h **** #include "../h/my_console.h"
   4:src/../h/thread.h **** #include "../h/syscall_c.hpp"
   5:src/../h/thread.h **** 
   6:src/../h/thread.h **** #define NR_MAX_THREADS 10
   7:src/../h/thread.h **** #define BUSY_WAIT_THREAD_ID 1
   8:src/../h/thread.h **** #define USER_THREAD_ID 2
   9:src/../h/thread.h **** 
  10:src/../h/thread.h **** // needs to be (DEFAULT_STACK_SIZE+8*34) (probably)
  11:src/../h/thread.h **** #define ACTUAL_STACK_SIZE (DEFAULT_STACK_SIZE+8*34)*10
  12:src/../h/thread.h **** #define MAX_NR_TOTAL_THREADS 100
GAS LISTING /tmp/ccsOLUNE.s 			page 5


  13:src/../h/thread.h **** 
  14:src/../h/thread.h **** class IThread;
  15:src/../h/thread.h **** 
  16:src/../h/thread.h **** class IThread
  17:src/../h/thread.h **** {
  18:src/../h/thread.h **** public:
  19:src/../h/thread.h ****     enum State { RUNNING = 0, SUSPENDED, READY, INITIALIZING, TERMINATING, NONEXISTENT };
  20:src/../h/thread.h **** 
  21:src/../h/thread.h ****     typedef void(*Body)(void*);
  22:src/../h/thread.h **** 
  23:src/../h/thread.h ****     static IThread* pSleepHead;
  24:src/../h/thread.h ****     static uint64 timeSliceCounter;
  25:src/../h/thread.h ****     static bool switchedToUserThread;
  26:src/../h/thread.h ****     static uint64** pRunningSp;
  27:src/../h/thread.h ****     static IThread* pAllThreads[MAX_NR_TOTAL_THREADS];
  28:src/../h/thread.h ****     static uint64 nrTotalThreads;
  29:src/../h/thread.h ****     static uint64 initialUserMemoryUsage;
  30:src/../h/thread.h **** 
  31:src/../h/thread.h ****     static  IThread*  getPRunning();
  32:src/../h/thread.h ****     static void setPRunning(IThread* p);
  33:src/../h/thread.h ****     static int createThread(uint64* id, Body body, void* arg);
  34:src/../h/thread.h ****     static int exit(); // exit the currently running thread
  35:src/../h/thread.h ****     static void switchToUser();
  36:src/../h/thread.h ****     static void join(uint64 id);
  37:src/../h/thread.h **** 
  38:src/../h/thread.h ****     State state;
  39:src/../h/thread.h ****     Body body;
  40:src/../h/thread.h ****     uint64 sepc;
  41:src/../h/thread.h ****     void* pStackStart; // start in terms of the data structure. This adress is the highest one in t
  42:src/../h/thread.h ****     uint64 timeSlice; // private
  43:src/../h/thread.h ****     uint64 id;
  44:src/../h/thread.h ****     IThread* pNext;
  45:src/../h/thread.h ****     IThread* pWaitingHead;
  46:src/../h/thread.h ****     bool done;
  47:src/../h/thread.h ****     uint64 remainingSleep;
  48:src/../h/thread.h **** 
  49:src/../h/thread.h **** //    uint64** pSp;
  50:src/../h/thread.h **** 
  51:src/../h/thread.h ****     uint64* sp;
  52:src/../h/thread.h **** 
  53:src/../h/thread.h ****     IThread(Body body, void* arg);
  54:src/../h/thread.h ****     IThread() : pStackStart(nullptr), pNext(nullptr) {} // move to private?. Mind the kernel thread
  42              		.loc 2 54 52
  43 002c 97070000 		lla	a5,.LANCHOR0
  43      93870700 
  44 0034 23BC0700 		sd	zero,24(a5)
  45 0038 23B80702 		sd	zero,48(a5)
  46              	.LVL2:
  47              	.LBE56:
  48              	.LBE55:
  49              	.LBE54:
  50              		.loc 1 176 1
  51 003c 6FF09FFD 		j	.L1
  52              		.cfi_endproc
  53              	.LFE24:
  55              		.section	.rodata.str1.8,"aMS",@progbits,1
  56              		.align	3
GAS LISTING /tmp/ccsOLUNE.s 			page 6


  57              	.LC0:
  58 0000 3D3D3D3D 		.string	"===================== ASSERT file: "
  58      3D3D3D3D 
  58      3D3D3D3D 
  58      3D3D3D3D 
  58      3D3D3D3D 
  59 0024 00000000 		.align	3
  60              	.LC1:
  61 0028 7372632F 		.string	"src/main.cpp"
  61      6D61696E 
  61      2E637070 
  61      00
  62 0035 000000   		.align	3
  63              	.LC2:
  64 0038 20202020 		.string	"    line: "
  64      6C696E65 
  64      3A2000
  65 0043 00000000 		.align	3
  65      00
  66              	.LC3:
  67 0048 2020203D 		.string	"   ==========================="
  67      3D3D3D3D 
  67      3D3D3D3D 
  67      3D3D3D3D 
  67      3D3D3D3D 
  68              		.text
  69              		.align	2
  70              		.globl	_Z16doBusyWaitThreadPv
  72              	_Z16doBusyWaitThreadPv:
  73              	.LFB20:
  75:src/main.cpp  ****     assert(p == nullptr);
  74              		.loc 1 75 1 is_stmt 1
  75              		.cfi_startproc
  76              	.LVL3:
  77 0040 130101FE 		addi	sp,sp,-32
  78              		.cfi_def_cfa_offset 32
  79 0044 233C1100 		sd	ra,24(sp)
  80 0048 23388100 		sd	s0,16(sp)
  81              		.cfi_offset 1, -8
  82              		.cfi_offset 8, -16
  83 004c 13040102 		addi	s0,sp,32
  84              		.cfi_def_cfa 8, 0
  76:src/main.cpp  ****     __asm__ volatile("mv x10, x10");
  85              		.loc 1 76 5
  86              	.LVL4:
  87              	.LBB61:
  88              	.LBB62:
  89              		.file 3 "src/../h/../h/my_console.h"
   1:src/../h/../h/my_console.h **** #pragma once
   2:src/../h/../h/my_console.h **** 
   3:src/../h/../h/my_console.h **** #include "../h/risc.h"
   4:src/../h/../h/my_console.h **** 
   5:src/../h/../h/my_console.h **** #include "../lib/hw.h"
   6:src/../h/../h/my_console.h **** 
   7:src/../h/../h/my_console.h **** #define __DEBUG_MODE
   8:src/../h/../h/my_console.h **** 
   9:src/../h/../h/my_console.h **** 
GAS LISTING /tmp/ccsOLUNE.s 			page 7


  10:src/../h/../h/my_console.h **** void putString(const char* s);
  11:src/../h/../h/my_console.h **** void putInt(int n);
  12:src/../h/../h/my_console.h **** void putNewline();
  13:src/../h/../h/my_console.h **** void putU64(uint64 n);
  14:src/../h/../h/my_console.h **** void putBinary(uint64 n);
  15:src/../h/../h/my_console.h **** 
  16:src/../h/../h/my_console.h **** [[noreturn]] void stopKernel();
  17:src/../h/../h/my_console.h **** 
  18:src/../h/../h/my_console.h **** inline void _assert(bool valid, const char* file, int line) // MUST be inline
  19:src/../h/../h/my_console.h **** {
  20:src/../h/../h/my_console.h ****     if(valid)
  90              		.loc 3 20 5
  91 0050 63160504 		bnez	a0,.L12
  21:src/../h/../h/my_console.h ****         return;
  92              		.loc 3 21 9
  93              	.LVL5:
  94              	.LBE62:
  95              	.LBE61:
  77:src/main.cpp  **** 
  96              		.loc 1 77 5
  77:src/main.cpp  **** 
  97              		.loc 1 77 36 is_stmt 0
  98              	#APP
  99              	# 77 "src/main.cpp" 1
 100              		mv x10, x10
 101              	# 0 "" 2
 102              	.LVL6:
 103              	#NO_APP
 104              	.L9:
  79:src/main.cpp  ****     while(a++)
 105              		.loc 1 79 5 is_stmt 1
  80:src/main.cpp  ****     {
 106              		.loc 1 80 5
  80:src/main.cpp  ****     {
 107              		.loc 1 80 12
 108 0058 833784FE 		ld	a5,-24(s0)
 109 005c 13871700 		addi	a4,a5,1
 110 0060 2334E4FE 		sd	a4,-24(s0)
 111 0064 6388070E 		beqz	a5,.L5
  82:src/main.cpp  **** 
 112              		.loc 1 82 9
 113 0068 97000000 		call	_ZN7IThread11getPRunningEv@plt
 113      E7800000 
 114              	.LVL7:
 115 0070 83378502 		ld	a5,40(a0)
 116 0074 9387F7FF 		addi	a5,a5,-1
 117              	.LVL8:
 118              	.LBB64:
 119              	.LBB65:
  20:src/../h/../h/my_console.h ****         return;
 120              		.loc 3 20 5
 121 0078 63900708 		bnez	a5,.L13
 122              		.loc 3 21 9
 123              	.LVL9:
 124              	.LBE65:
 125              	.LBE64:
  84:src/main.cpp  ****         {
GAS LISTING /tmp/ccsOLUNE.s 			page 8


 126              		.loc 1 84 9
  84:src/main.cpp  ****         {
 127              		.loc 1 84 32 is_stmt 0
 128 007c 97000000 		call	_ZN7IThread11getPRunningEv@plt
 128      E7800000 
 129              	.LVL10:
  84:src/main.cpp  ****         {
 130              		.loc 1 84 36
 131 0084 83370503 		ld	a5,48(a0)
  84:src/main.cpp  ****         {
 132              		.loc 1 84 9
 133 0088 E38807FC 		beqz	a5,.L9
  86:src/main.cpp  ****             thread_dispatch();
 134              		.loc 1 86 13 is_stmt 1
  86:src/main.cpp  ****             thread_dispatch();
 135              		.loc 1 86 44 is_stmt 0
 136              	#APP
 137              	# 86 "src/main.cpp" 1
  87:src/main.cpp  ****         }
 138              		mv x10, x10
 139              	# 0 "" 2
 140              		.loc 1 87 13 is_stmt 1
  87:src/main.cpp  ****         }
 141              		.loc 1 87 28 is_stmt 0
 142              	#NO_APP
 143 0090 97000000 		call	_Z15thread_dispatchv@plt
 143      E7800000 
 144              	.LVL11:
 145 0098 6FF01FFC 		j	.L9
 146              	.LVL12:
 147              	.L12:
 148              	.LBB67:
 149              	.LBB63:
  22:src/../h/../h/my_console.h **** 
  23:src/../h/../h/my_console.h ****     putString("===================== ASSERT file: ");
 150              		.loc 3 23 5 is_stmt 1
 151              		.loc 3 23 14 is_stmt 0
 152 009c 17050000 		lla	a0,.LC0
 152      13050500 
 153              	.LVL13:
 154 00a4 97000000 		call	_Z9putStringPKc@plt
 154      E7800000 
 155              	.LVL14:
  24:src/../h/../h/my_console.h ****     putString(file);
 156              		.loc 3 24 5 is_stmt 1
 157              		.loc 3 24 14 is_stmt 0
 158 00ac 17050000 		lla	a0,.LC1
 158      13050500 
 159 00b4 97000000 		call	_Z9putStringPKc@plt
 159      E7800000 
 160              	.LVL15:
  25:src/../h/../h/my_console.h ****     putString("    line: ");
 161              		.loc 3 25 5 is_stmt 1
 162              		.loc 3 25 14 is_stmt 0
 163 00bc 17050000 		lla	a0,.LC2
 163      13050500 
 164 00c4 97000000 		call	_Z9putStringPKc@plt
GAS LISTING /tmp/ccsOLUNE.s 			page 9


 164      E7800000 
 165              	.LVL16:
  26:src/../h/../h/my_console.h ****     putInt(line);
 166              		.loc 3 26 5 is_stmt 1
 167              		.loc 3 26 11 is_stmt 0
 168 00cc 1305C004 		li	a0,76
 169 00d0 97000000 		call	_Z6putInti@plt
 169      E7800000 
 170              	.LVL17:
  27:src/../h/../h/my_console.h ****     putString("   ===========================");
 171              		.loc 3 27 5 is_stmt 1
 172              		.loc 3 27 14 is_stmt 0
 173 00d8 17050000 		lla	a0,.LC3
 173      13050500 
 174 00e0 97000000 		call	_Z9putStringPKc@plt
 174      E7800000 
 175              	.LVL18:
  28:src/../h/../h/my_console.h ****     putNewline();
 176              		.loc 3 28 5 is_stmt 1
 177              		.loc 3 28 15 is_stmt 0
 178 00e8 97000000 		call	_Z10putNewlinev@plt
 178      E7800000 
 179              	.LVL19:
  29:src/../h/../h/my_console.h **** 
  30:src/../h/../h/my_console.h ****     stopKernel();
 180              		.loc 3 30 5 is_stmt 1
 181              		.loc 3 30 15 is_stmt 0
 182 00f0 97000000 		call	_Z10stopKernelv@plt
 182      E7800000 
 183              	.LVL20:
 184              	.L13:
 185              	.LBE63:
 186              	.LBE67:
 187              	.LBB68:
 188              	.LBB66:
  23:src/../h/../h/my_console.h ****     putString(file);
 189              		.loc 3 23 5 is_stmt 1
  23:src/../h/../h/my_console.h ****     putString(file);
 190              		.loc 3 23 14 is_stmt 0
 191 00f8 17050000 		lla	a0,.LC0
 191      13050500 
 192 0100 97000000 		call	_Z9putStringPKc@plt
 192      E7800000 
 193              	.LVL21:
  24:src/../h/../h/my_console.h ****     putString("    line: ");
 194              		.loc 3 24 5 is_stmt 1
  24:src/../h/../h/my_console.h ****     putString("    line: ");
 195              		.loc 3 24 14 is_stmt 0
 196 0108 17050000 		lla	a0,.LC1
 196      13050500 
 197 0110 97000000 		call	_Z9putStringPKc@plt
 197      E7800000 
 198              	.LVL22:
  25:src/../h/../h/my_console.h ****     putInt(line);
 199              		.loc 3 25 5 is_stmt 1
  25:src/../h/../h/my_console.h ****     putInt(line);
 200              		.loc 3 25 14 is_stmt 0
GAS LISTING /tmp/ccsOLUNE.s 			page 10


 201 0118 17050000 		lla	a0,.LC2
 201      13050500 
 202 0120 97000000 		call	_Z9putStringPKc@plt
 202      E7800000 
 203              	.LVL23:
  26:src/../h/../h/my_console.h ****     putString("   ===========================");
 204              		.loc 3 26 5 is_stmt 1
  26:src/../h/../h/my_console.h ****     putString("   ===========================");
 205              		.loc 3 26 11 is_stmt 0
 206 0128 13052005 		li	a0,82
 207 012c 97000000 		call	_Z6putInti@plt
 207      E7800000 
 208              	.LVL24:
  27:src/../h/../h/my_console.h ****     putNewline();
 209              		.loc 3 27 5 is_stmt 1
  27:src/../h/../h/my_console.h ****     putNewline();
 210              		.loc 3 27 14 is_stmt 0
 211 0134 17050000 		lla	a0,.LC3
 211      13050500 
 212 013c 97000000 		call	_Z9putStringPKc@plt
 212      E7800000 
 213              	.LVL25:
  28:src/../h/../h/my_console.h **** 
 214              		.loc 3 28 5 is_stmt 1
  28:src/../h/../h/my_console.h **** 
 215              		.loc 3 28 15 is_stmt 0
 216 0144 97000000 		call	_Z10putNewlinev@plt
 216      E7800000 
 217              	.LVL26:
 218              		.loc 3 30 5 is_stmt 1
 219              		.loc 3 30 15 is_stmt 0
 220 014c 97000000 		call	_Z10stopKernelv@plt
 220      E7800000 
 221              	.LVL27:
 222              	.L5:
 223              	.LBE66:
 224              	.LBE68:
  90:src/main.cpp  **** 
 225              		.loc 1 90 1
 226 0154 83308101 		ld	ra,24(sp)
 227              		.cfi_restore 1
 228 0158 03340101 		ld	s0,16(sp)
 229              		.cfi_restore 8
 230              		.cfi_def_cfa 2, 32
 231 015c 13010102 		addi	sp,sp,32
 232              		.cfi_def_cfa_offset 0
 233 0160 67800000 		jr	ra
 234              		.cfi_endproc
 235              	.LFE20:
 237              		.section	.rodata.str1.8
 238 0067 00       		.align	3
 239              	.LC4:
 240 0068 43696761 		.string	"Cigane"
 240      6E6500
 241              		.text
 242              		.align	2
 243              		.globl	_Z11userWrapperPv
GAS LISTING /tmp/ccsOLUNE.s 			page 11


 245              	_Z11userWrapperPv:
 246              	.LFB18:
  19:src/main.cpp  ****     assert(p == nullptr);
 247              		.loc 1 19 1 is_stmt 1
 248              		.cfi_startproc
 249              	.LVL28:
 250 0164 130101FF 		addi	sp,sp,-16
 251              		.cfi_def_cfa_offset 16
 252 0168 23341100 		sd	ra,8(sp)
 253 016c 23308100 		sd	s0,0(sp)
 254              		.cfi_offset 1, -8
 255              		.cfi_offset 8, -16
 256 0170 13040101 		addi	s0,sp,16
 257              		.cfi_def_cfa 8, 0
  20:src/main.cpp  ****     assert(&(IThread::getPRunning()->sp) == IThread::pRunningSp);
 258              		.loc 1 20 5
 259              	.LVL29:
 260              	.LBB78:
 261              	.LBB79:
  20:src/../h/../h/my_console.h ****         return;
 262              		.loc 3 20 5
 263 0174 631A0508 		bnez	a0,.L19
  21:src/../h/../h/my_console.h **** 
 264              		.loc 3 21 9
 265              	.LVL30:
 266              	.LBE79:
 267              	.LBE78:
  21:src/main.cpp  **** 
 268              		.loc 1 21 5
 269 0178 97000000 		call	_ZN7IThread11getPRunningEv@plt
 269      E7800000 
 270              	.LVL31:
 271 0180 13050505 		addi	a0,a0,80
 272 0184 97070000 		la	a5,_ZN7IThread10pRunningSpE
 272      83B70700 
 273 018c 83B70700 		ld	a5,0(a5)
 274              	.LVL32:
 275              	.LBB81:
 276              	.LBB82:
  20:src/../h/../h/my_console.h ****         return;
 277              		.loc 3 20 5
 278 0190 639AA70C 		bne	a5,a0,.L20
  21:src/../h/../h/my_console.h **** 
 279              		.loc 3 21 9
 280              	.LVL33:
 281              	.LBE82:
 282              	.LBE81:
  23:src/main.cpp  **** 
 283              		.loc 1 23 5
  23:src/main.cpp  **** 
 284              		.loc 1 23 29 is_stmt 0
 285 0194 97000000 		call	_Z24enableExternalInterruptsv@plt
 285      E7800000 
 286              	.LVL34:
  25:src/main.cpp  ****     putNewline();
 287              		.loc 1 25 5 is_stmt 1
  25:src/main.cpp  ****     putNewline();
GAS LISTING /tmp/ccsOLUNE.s 			page 12


 288              		.loc 1 25 14 is_stmt 0
 289 019c 17050000 		lla	a0,.LC4
 289      13050500 
 290 01a4 97000000 		call	_Z9putStringPKc@plt
 290      E7800000 
 291              	.LVL35:
  26:src/main.cpp  ****     IConsole::get()->writeToConsole();
 292              		.loc 1 26 5 is_stmt 1
  26:src/main.cpp  ****     IConsole::get()->writeToConsole();
 293              		.loc 1 26 15 is_stmt 0
 294 01ac 97000000 		call	_Z10putNewlinev@plt
 294      E7800000 
 295              	.LVL36:
  27:src/main.cpp  **** 
 296              		.loc 1 27 5 is_stmt 1
 297              	.LBB84:
 298              	.LBB85:
 299              		.file 4 "src/../h/0_console.h"
   1:src/../h/0_console.h **** #pragma once
   2:src/../h/0_console.h **** 
   3:src/../h/0_console.h **** #include "../lib/hw.h"
   4:src/../h/0_console.h **** 
   5:src/../h/0_console.h **** #define BUFFER_SIZE 1000
   6:src/../h/0_console.h **** 
   7:src/../h/0_console.h **** class IConsole // singleton class
   8:src/../h/0_console.h **** {
   9:src/../h/0_console.h **** public:
  10:src/../h/0_console.h ****     static IConsole* get()
  11:src/../h/0_console.h ****     {
  12:src/../h/0_console.h ****         static IConsole instance;
 300              		.loc 4 12 9
 301              		.loc 4 12 25 is_stmt 0
 302 01b4 97070000 		lbu	a5,_ZGVZN8IConsole3getEvE8instance
 302      83C70700 
 303 01bc 63920702 		bnez	a5,.L17
 304              	.LVL37:
 305              	.LBB86:
 306              	.LBB87:
 307              	.LBB88:
  13:src/../h/0_console.h ****         return &instance;
  14:src/../h/0_console.h ****     }
  15:src/../h/0_console.h **** 
  16:src/../h/0_console.h ****     void writeToConsole();
  17:src/../h/0_console.h ****     uint64 putBufferHead, putBufferTail;
  18:src/../h/0_console.h ****     char putBuffer[BUFFER_SIZE];
  19:src/../h/0_console.h ****     uint64 putBufferItems;
  20:src/../h/0_console.h **** 
  21:src/../h/0_console.h ****     char getBuffer[BUFFER_SIZE];
  22:src/../h/0_console.h ****     uint64 getBufferItems;
  23:src/../h/0_console.h ****     uint64 getBufferHead, getBufferTail;
  24:src/../h/0_console.h **** 
  25:src/../h/0_console.h ****     void putc(char c);
  26:src/../h/0_console.h ****     char getc();
  27:src/../h/0_console.h ****     void consoleHandler();
  28:src/../h/0_console.h **** 
  29:src/../h/0_console.h **** private:
  30:src/../h/0_console.h ****     IConsole()
GAS LISTING /tmp/ccsOLUNE.s 			page 13


  31:src/../h/0_console.h ****         : putBufferHead(0), putBufferTail(0), putBufferItems(0)
 308              		.loc 4 31 63
 309 01c0 97070000 		lla	a5,_ZZN8IConsole3getEvE8instance
 309      93870700 
 310 01c8 23B00700 		sd	zero,0(a5)
 311 01cc 23B40700 		sd	zero,8(a5)
 312 01d0 23BC073E 		sd	zero,1016(a5)
 313              	.LVL38:
 314              	.LBE88:
 315              	.LBE87:
 316              	.LBE86:
  12:src/../h/0_console.h ****         return &instance;
 317              		.loc 4 12 25
 318 01d4 93071000 		li	a5,1
 319 01d8 17070000 		sb	a5,_ZGVZN8IConsole3getEvE8instance,a4
 319      2300F700 
 320              	.L17:
  13:src/../h/0_console.h ****         return &instance;
 321              		.loc 4 13 9 is_stmt 1
 322              	.LBE85:
 323              	.LBE84:
  27:src/main.cpp  **** 
 324              		.loc 1 27 36 is_stmt 0
 325 01e0 17050000 		lla	a0,_ZZN8IConsole3getEvE8instance
 325      13050500 
 326 01e8 97000000 		call	_ZN8IConsole14writeToConsoleEv@plt
 326      E7800000 
 327              	.LVL39:
  29:src/main.cpp  **** }
 328              		.loc 1 29 5 is_stmt 1
  29:src/main.cpp  **** }
 329              		.loc 1 29 15 is_stmt 0
 330 01f0 97000000 		call	_Z10myUserMainv@plt
 330      E7800000 
 331              	.LVL40:
  30:src/main.cpp  **** 
 332              		.loc 1 30 1
 333 01f8 83308100 		ld	ra,8(sp)
 334              		.cfi_remember_state
 335              		.cfi_restore 1
 336 01fc 03340100 		ld	s0,0(sp)
 337              		.cfi_restore 8
 338              		.cfi_def_cfa 2, 16
 339 0200 13010101 		addi	sp,sp,16
 340              		.cfi_def_cfa_offset 0
 341 0204 67800000 		jr	ra
 342              	.LVL41:
 343              	.L19:
 344              		.cfi_restore_state
 345              	.LBB89:
 346              	.LBB80:
  23:src/../h/../h/my_console.h ****     putString(file);
 347              		.loc 3 23 5 is_stmt 1
  23:src/../h/../h/my_console.h ****     putString(file);
 348              		.loc 3 23 14 is_stmt 0
 349 0208 17050000 		lla	a0,.LC0
 349      13050500 
GAS LISTING /tmp/ccsOLUNE.s 			page 14


 350              	.LVL42:
 351 0210 97000000 		call	_Z9putStringPKc@plt
 351      E7800000 
 352              	.LVL43:
  24:src/../h/../h/my_console.h ****     putString("    line: ");
 353              		.loc 3 24 5 is_stmt 1
  24:src/../h/../h/my_console.h ****     putString("    line: ");
 354              		.loc 3 24 14 is_stmt 0
 355 0218 17050000 		lla	a0,.LC1
 355      13050500 
 356 0220 97000000 		call	_Z9putStringPKc@plt
 356      E7800000 
 357              	.LVL44:
  25:src/../h/../h/my_console.h ****     putInt(line);
 358              		.loc 3 25 5 is_stmt 1
  25:src/../h/../h/my_console.h ****     putInt(line);
 359              		.loc 3 25 14 is_stmt 0
 360 0228 17050000 		lla	a0,.LC2
 360      13050500 
 361 0230 97000000 		call	_Z9putStringPKc@plt
 361      E7800000 
 362              	.LVL45:
  26:src/../h/../h/my_console.h ****     putString("   ===========================");
 363              		.loc 3 26 5 is_stmt 1
  26:src/../h/../h/my_console.h ****     putString("   ===========================");
 364              		.loc 3 26 11 is_stmt 0
 365 0238 13054001 		li	a0,20
 366 023c 97000000 		call	_Z6putInti@plt
 366      E7800000 
 367              	.LVL46:
  27:src/../h/../h/my_console.h ****     putNewline();
 368              		.loc 3 27 5 is_stmt 1
  27:src/../h/../h/my_console.h ****     putNewline();
 369              		.loc 3 27 14 is_stmt 0
 370 0244 17050000 		lla	a0,.LC3
 370      13050500 
 371 024c 97000000 		call	_Z9putStringPKc@plt
 371      E7800000 
 372              	.LVL47:
  28:src/../h/../h/my_console.h **** 
 373              		.loc 3 28 5 is_stmt 1
  28:src/../h/../h/my_console.h **** 
 374              		.loc 3 28 15 is_stmt 0
 375 0254 97000000 		call	_Z10putNewlinev@plt
 375      E7800000 
 376              	.LVL48:
 377              		.loc 3 30 5 is_stmt 1
 378              		.loc 3 30 15 is_stmt 0
 379 025c 97000000 		call	_Z10stopKernelv@plt
 379      E7800000 
 380              	.LVL49:
 381              	.L20:
 382              	.LBE80:
 383              	.LBE89:
 384              	.LBB90:
 385              	.LBB83:
  23:src/../h/../h/my_console.h ****     putString(file);
GAS LISTING /tmp/ccsOLUNE.s 			page 15


 386              		.loc 3 23 5 is_stmt 1
  23:src/../h/../h/my_console.h ****     putString(file);
 387              		.loc 3 23 14 is_stmt 0
 388 0264 17050000 		lla	a0,.LC0
 388      13050500 
 389              	.LVL50:
 390 026c 97000000 		call	_Z9putStringPKc@plt
 390      E7800000 
 391              	.LVL51:
  24:src/../h/../h/my_console.h ****     putString("    line: ");
 392              		.loc 3 24 5 is_stmt 1
  24:src/../h/../h/my_console.h ****     putString("    line: ");
 393              		.loc 3 24 14 is_stmt 0
 394 0274 17050000 		lla	a0,.LC1
 394      13050500 
 395 027c 97000000 		call	_Z9putStringPKc@plt
 395      E7800000 
 396              	.LVL52:
  25:src/../h/../h/my_console.h ****     putInt(line);
 397              		.loc 3 25 5 is_stmt 1
  25:src/../h/../h/my_console.h ****     putInt(line);
 398              		.loc 3 25 14 is_stmt 0
 399 0284 17050000 		lla	a0,.LC2
 399      13050500 
 400 028c 97000000 		call	_Z9putStringPKc@plt
 400      E7800000 
 401              	.LVL53:
  26:src/../h/../h/my_console.h ****     putString("   ===========================");
 402              		.loc 3 26 5 is_stmt 1
  26:src/../h/../h/my_console.h ****     putString("   ===========================");
 403              		.loc 3 26 11 is_stmt 0
 404 0294 13055001 		li	a0,21
 405 0298 97000000 		call	_Z6putInti@plt
 405      E7800000 
 406              	.LVL54:
  27:src/../h/../h/my_console.h ****     putNewline();
 407              		.loc 3 27 5 is_stmt 1
  27:src/../h/../h/my_console.h ****     putNewline();
 408              		.loc 3 27 14 is_stmt 0
 409 02a0 17050000 		lla	a0,.LC3
 409      13050500 
 410 02a8 97000000 		call	_Z9putStringPKc@plt
 410      E7800000 
 411              	.LVL55:
  28:src/../h/../h/my_console.h **** 
 412              		.loc 3 28 5 is_stmt 1
  28:src/../h/../h/my_console.h **** 
 413              		.loc 3 28 15 is_stmt 0
 414 02b0 97000000 		call	_Z10putNewlinev@plt
 414      E7800000 
 415              	.LVL56:
 416              		.loc 3 30 5 is_stmt 1
 417              		.loc 3 30 15 is_stmt 0
 418 02b8 97000000 		call	_Z10stopKernelv@plt
 418      E7800000 
 419              	.LVL57:
 420              	.LBE83:
GAS LISTING /tmp/ccsOLUNE.s 			page 16


 421              	.LBE90:
 422              		.cfi_endproc
 423              	.LFE18:
 425              		.section	.text._Z7_assertbPKci,"axG",@progbits,_Z7_assertbPKci,comdat
 426              		.align	2
 427              		.weak	_Z7_assertbPKci
 429              	_Z7_assertbPKci:
 430              	.LFB0:
  19:src/../h/../h/my_console.h ****     if(valid)
 431              		.loc 3 19 1 is_stmt 1
 432              		.cfi_startproc
 433              	.LVL58:
  20:src/../h/../h/my_console.h ****         return;
 434              		.loc 3 20 5
 435 0000 63040500 		beqz	a0,.L27
 436 0004 67800000 		ret
 437              	.L27:
  19:src/../h/../h/my_console.h ****     if(valid)
 438              		.loc 3 19 1 is_stmt 0
 439 0008 130101FE 		addi	sp,sp,-32
 440              		.cfi_def_cfa_offset 32
 441 000c 233C1100 		sd	ra,24(sp)
 442 0010 23388100 		sd	s0,16(sp)
 443 0014 23349100 		sd	s1,8(sp)
 444 0018 23302101 		sd	s2,0(sp)
 445              		.cfi_offset 1, -8
 446              		.cfi_offset 8, -16
 447              		.cfi_offset 9, -24
 448              		.cfi_offset 18, -32
 449 001c 13040102 		addi	s0,sp,32
 450              		.cfi_def_cfa 8, 0
 451 0020 13890500 		mv	s2,a1
 452 0024 93040600 		mv	s1,a2
  23:src/../h/../h/my_console.h ****     putString(file);
 453              		.loc 3 23 5 is_stmt 1
  23:src/../h/../h/my_console.h ****     putString(file);
 454              		.loc 3 23 14 is_stmt 0
 455 0028 17050000 		lla	a0,.LC0
 455      13050500 
 456              	.LVL59:
 457 0030 97000000 		call	_Z9putStringPKc@plt
 457      E7800000 
 458              	.LVL60:
  24:src/../h/../h/my_console.h ****     putString("    line: ");
 459              		.loc 3 24 5 is_stmt 1
  24:src/../h/../h/my_console.h ****     putString("    line: ");
 460              		.loc 3 24 14 is_stmt 0
 461 0038 13050900 		mv	a0,s2
 462 003c 97000000 		call	_Z9putStringPKc@plt
 462      E7800000 
 463              	.LVL61:
  25:src/../h/../h/my_console.h ****     putInt(line);
 464              		.loc 3 25 5 is_stmt 1
  25:src/../h/../h/my_console.h ****     putInt(line);
 465              		.loc 3 25 14 is_stmt 0
 466 0044 17050000 		lla	a0,.LC2
 466      13050500 
GAS LISTING /tmp/ccsOLUNE.s 			page 17


 467 004c 97000000 		call	_Z9putStringPKc@plt
 467      E7800000 
 468              	.LVL62:
  26:src/../h/../h/my_console.h ****     putString("   ===========================");
 469              		.loc 3 26 5 is_stmt 1
  26:src/../h/../h/my_console.h ****     putString("   ===========================");
 470              		.loc 3 26 11 is_stmt 0
 471 0054 13850400 		mv	a0,s1
 472 0058 97000000 		call	_Z6putInti@plt
 472      E7800000 
 473              	.LVL63:
  27:src/../h/../h/my_console.h ****     putNewline();
 474              		.loc 3 27 5 is_stmt 1
  27:src/../h/../h/my_console.h ****     putNewline();
 475              		.loc 3 27 14 is_stmt 0
 476 0060 17050000 		lla	a0,.LC3
 476      13050500 
 477 0068 97000000 		call	_Z9putStringPKc@plt
 477      E7800000 
 478              	.LVL64:
  28:src/../h/../h/my_console.h **** 
 479              		.loc 3 28 5 is_stmt 1
  28:src/../h/../h/my_console.h **** 
 480              		.loc 3 28 15 is_stmt 0
 481 0070 97000000 		call	_Z10putNewlinev@plt
 481      E7800000 
 482              	.LVL65:
 483              		.loc 3 30 5 is_stmt 1
 484              		.loc 3 30 15 is_stmt 0
 485 0078 97000000 		call	_Z10stopKernelv@plt
 485      E7800000 
 486              	.LVL66:
 487              		.cfi_endproc
 488              	.LFE0:
 490              		.text
 491              		.align	2
 492              		.globl	_Z16doInitialAssertsv
 494              	_Z16doInitialAssertsv:
 495              	.LFB21:
  93:src/main.cpp  ****     assert(sizeof(void*) == 8);
 496              		.loc 1 93 1 is_stmt 1
 497              		.cfi_startproc
  94:src/main.cpp  ****     assert((((uint64)HEAP_END_ADDR - (uint64)HEAP_START_ADDR) / 1024 / 1024) == 127);
 498              		.loc 1 94 5
 499              	.LVL67:
  20:src/../h/../h/my_console.h ****         return;
 500              		.loc 3 20 5
  21:src/../h/../h/my_console.h **** 
 501              		.loc 3 21 9
  95:src/main.cpp  ****     assert(DEFAULT_STACK_SIZE == 4096);
 502              		.loc 1 95 5
 503 02c0 97070000 		la	a5,HEAP_END_ADDR
 503      83B70700 
 504 02c8 83B70700 		ld	a5,0(a5)
 505 02cc 17070000 		la	a4,HEAP_START_ADDR
 505      03370700 
 506 02d4 03370700 		ld	a4,0(a4)
GAS LISTING /tmp/ccsOLUNE.s 			page 18


 507 02d8 B387E740 		sub	a5,a5,a4
 508 02dc 370710F8 		li	a4,-133169152
 509 02e0 B387E700 		add	a5,a5,a4
 510 02e4 37071000 		li	a4,1048576
 511              	.LVL68:
 512              	.LBB93:
 513              	.LBB94:
  20:src/../h/../h/my_console.h ****         return;
 514              		.loc 3 20 5
 515 02e8 63F4E700 		bgeu	a5,a4,.L33
 516 02ec 67800000 		ret
 517              	.L33:
 518              	.LBE94:
 519              	.LBE93:
  93:src/main.cpp  ****     assert(sizeof(void*) == 8);
 520              		.loc 1 93 1 is_stmt 0
 521 02f0 130101FF 		addi	sp,sp,-16
 522              		.cfi_def_cfa_offset 16
 523 02f4 23341100 		sd	ra,8(sp)
 524 02f8 23308100 		sd	s0,0(sp)
 525              		.cfi_offset 1, -8
 526              		.cfi_offset 8, -16
 527 02fc 13040101 		addi	s0,sp,16
 528              		.cfi_def_cfa 8, 0
 529              	.LBB96:
 530              	.LBB95:
  23:src/../h/../h/my_console.h ****     putString(file);
 531              		.loc 3 23 5 is_stmt 1
  23:src/../h/../h/my_console.h ****     putString(file);
 532              		.loc 3 23 14 is_stmt 0
 533 0300 17050000 		lla	a0,.LC0
 533      13050500 
 534 0308 97000000 		call	_Z9putStringPKc@plt
 534      E7800000 
 535              	.LVL69:
  24:src/../h/../h/my_console.h ****     putString("    line: ");
 536              		.loc 3 24 5 is_stmt 1
  24:src/../h/../h/my_console.h ****     putString("    line: ");
 537              		.loc 3 24 14 is_stmt 0
 538 0310 17050000 		lla	a0,.LC1
 538      13050500 
 539 0318 97000000 		call	_Z9putStringPKc@plt
 539      E7800000 
 540              	.LVL70:
  25:src/../h/../h/my_console.h ****     putInt(line);
 541              		.loc 3 25 5 is_stmt 1
  25:src/../h/../h/my_console.h ****     putInt(line);
 542              		.loc 3 25 14 is_stmt 0
 543 0320 17050000 		lla	a0,.LC2
 543      13050500 
 544 0328 97000000 		call	_Z9putStringPKc@plt
 544      E7800000 
 545              	.LVL71:
  26:src/../h/../h/my_console.h ****     putString("   ===========================");
 546              		.loc 3 26 5 is_stmt 1
  26:src/../h/../h/my_console.h ****     putString("   ===========================");
 547              		.loc 3 26 11 is_stmt 0
GAS LISTING /tmp/ccsOLUNE.s 			page 19


 548 0330 1305F005 		li	a0,95
 549 0334 97000000 		call	_Z6putInti@plt
 549      E7800000 
 550              	.LVL72:
  27:src/../h/../h/my_console.h ****     putNewline();
 551              		.loc 3 27 5 is_stmt 1
  27:src/../h/../h/my_console.h ****     putNewline();
 552              		.loc 3 27 14 is_stmt 0
 553 033c 17050000 		lla	a0,.LC3
 553      13050500 
 554 0344 97000000 		call	_Z9putStringPKc@plt
 554      E7800000 
 555              	.LVL73:
  28:src/../h/../h/my_console.h **** 
 556              		.loc 3 28 5 is_stmt 1
  28:src/../h/../h/my_console.h **** 
 557              		.loc 3 28 15 is_stmt 0
 558 034c 97000000 		call	_Z10putNewlinev@plt
 558      E7800000 
 559              	.LVL74:
 560              		.loc 3 30 5 is_stmt 1
 561              		.loc 3 30 15 is_stmt 0
 562 0354 97000000 		call	_Z10stopKernelv@plt
 562      E7800000 
 563              	.LVL75:
 564              	.LBE95:
 565              	.LBE96:
 566              		.cfi_endproc
 567              	.LFE21:
 569              		.align	2
 570              		.globl	_Z19initInterruptVectorv
 572              	_Z19initInterruptVectorv:
 573              	.LFB22:
 106:src/main.cpp  **** 
 574              		.loc 1 106 1 is_stmt 1
 575              		.cfi_startproc
 576 035c 130101FF 		addi	sp,sp,-16
 577              		.cfi_def_cfa_offset 16
 578 0360 23348100 		sd	s0,8(sp)
 579              		.cfi_offset 8, -8
 580 0364 13040101 		addi	s0,sp,16
 581              		.cfi_def_cfa 8, 0
 109:src/main.cpp  **** 
 582              		.loc 1 109 5
 109:src/main.cpp  **** 
 583              		.loc 1 109 78 is_stmt 0
 584 0368 97070000 		la	a5,trapRoutine
 584      83B70700 
 585              	#APP
 586              	# 109 "src/main.cpp" 1
 112:src/main.cpp  ****     __asm__ volatile ("csrc stvec, 0x2");
 587              		csrw stvec, a5
 588              	# 0 "" 2
 589              		.loc 1 112 5 is_stmt 1
 112:src/main.cpp  ****     __asm__ volatile ("csrc stvec, 0x2");
 590              		.loc 1 112 41 is_stmt 0
 591              	# 112 "src/main.cpp" 1
GAS LISTING /tmp/ccsOLUNE.s 			page 20


 113:src/main.cpp  **** }
 592              		csrs stvec, 0x1
 593              	# 0 "" 2
 594              		.loc 1 113 5 is_stmt 1
 113:src/main.cpp  **** }
 595              		.loc 1 113 41 is_stmt 0
 596              	# 113 "src/main.cpp" 1
 114:src/main.cpp  **** 
 597              		csrc stvec, 0x2
 598              	# 0 "" 2
 599              		.loc 1 114 1
 600              	#NO_APP
 601 037c 03348100 		ld	s0,8(sp)
 602              		.cfi_restore 8
 603              		.cfi_def_cfa 2, 16
 604 0380 13010101 		addi	sp,sp,16
 605              		.cfi_def_cfa_offset 0
 606 0384 67800000 		jr	ra
 607              		.cfi_endproc
 608              	.LFE22:
 610              		.align	2
 611              		.globl	main
 613              	main:
 614              	.LFB19:
  33:src/main.cpp  ****     disableExternalInterrupts();
 615              		.loc 1 33 1 is_stmt 1
 616              		.cfi_startproc
 617 0388 130101FD 		addi	sp,sp,-48
 618              		.cfi_def_cfa_offset 48
 619 038c 23341102 		sd	ra,40(sp)
 620 0390 23308102 		sd	s0,32(sp)
 621 0394 233C9100 		sd	s1,24(sp)
 622 0398 23382101 		sd	s2,16(sp)
 623              		.cfi_offset 1, -8
 624              		.cfi_offset 8, -16
 625              		.cfi_offset 9, -24
 626              		.cfi_offset 18, -32
 627 039c 13040103 		addi	s0,sp,48
 628              		.cfi_def_cfa 8, 0
  34:src/main.cpp  **** 
 629              		.loc 1 34 5
  34:src/main.cpp  **** 
 630              		.loc 1 34 30 is_stmt 0
 631 03a0 97000000 		call	_Z25disableExternalInterruptsv@plt
 631      E7800000 
 632              	.LVL76:
  36:src/main.cpp  ****     doInitialAsserts();
 633              		.loc 1 36 5 is_stmt 1
  36:src/main.cpp  ****     doInitialAsserts();
 634              		.loc 1 36 24 is_stmt 0
 635 03a8 97000000 		call	_Z19initInterruptVectorv
 635      E7800000 
 636              	.LVL77:
  37:src/main.cpp  **** 
 637              		.loc 1 37 5 is_stmt 1
  37:src/main.cpp  **** 
 638              		.loc 1 37 21 is_stmt 0
GAS LISTING /tmp/ccsOLUNE.s 			page 21


 639 03b0 97000000 		call	_Z16doInitialAssertsv
 639      E7800000 
 640              	.LVL78:
  39:src/main.cpp  ****     __asm__ volatile ("mv %[name], sp" : [name] "=r"(sp));
 641              		.loc 1 39 5 is_stmt 1
  40:src/main.cpp  ****     kernelThread.sp = sp;
 642              		.loc 1 40 5
  40:src/main.cpp  ****     kernelThread.sp = sp;
 643              		.loc 1 40 58 is_stmt 0
 644              	#APP
 645              	# 40 "src/main.cpp" 1
 646              		mv a5, sp
 647              	# 0 "" 2
 648              	.LVL79:
  41:src/main.cpp  ****     IThread::setPRunning(&kernelThread);
 649              		.loc 1 41 5 is_stmt 1
  41:src/main.cpp  ****     IThread::setPRunning(&kernelThread);
 650              		.loc 1 41 21 is_stmt 0
 651              	#NO_APP
 652 03bc 17090000 		lla	s2,.LANCHOR0
 652      13090900 
 653 03c4 2338F904 		sd	a5,80(s2)
  42:src/main.cpp  ****     assert(&(IThread::getPRunning()->sp) == IThread::pRunningSp);
 654              		.loc 1 42 5 is_stmt 1
  42:src/main.cpp  ****     assert(&(IThread::getPRunning()->sp) == IThread::pRunningSp);
 655              		.loc 1 42 25 is_stmt 0
 656 03c8 13050900 		mv	a0,s2
 657 03cc 97000000 		call	_ZN7IThread11setPRunningEPS_@plt
 657      E7800000 
 658              	.LVL80:
  43:src/main.cpp  ****     kernelThread.id = 0;
 659              		.loc 1 43 5 is_stmt 1
 660 03d4 97000000 		call	_ZN7IThread11getPRunningEv@plt
 660      E7800000 
 661              	.LVL81:
 662 03dc 93070505 		addi	a5,a0,80
 663 03e0 17070000 		la	a4,_ZN7IThread10pRunningSpE
 663      03370700 
 664 03e8 03350700 		ld	a0,0(a4)
 665 03ec 3305F540 		sub	a0,a0,a5
 666 03f0 1306B002 		li	a2,43
 667 03f4 97050000 		lla	a1,.LC1
 667      93850500 
 668 03fc 13351500 		seqz	a0,a0
 669 0400 97000000 		call	_Z7_assertbPKci
 669      E7800000 
 670              	.LVL82:
  44:src/main.cpp  ****     IThread::pAllThreads[0] = &kernelThread;
 671              		.loc 1 44 5
  44:src/main.cpp  ****     IThread::pAllThreads[0] = &kernelThread;
 672              		.loc 1 44 21 is_stmt 0
 673 0408 23340902 		sd	zero,40(s2)
  45:src/main.cpp  **** 
 674              		.loc 1 45 5 is_stmt 1
  45:src/main.cpp  **** 
 675              		.loc 1 45 29 is_stmt 0
 676 040c 97040000 		la	s1,_ZN7IThread11pAllThreadsE
GAS LISTING /tmp/ccsOLUNE.s 			page 22


 676      83B40400 
 677 0414 23B02401 		sd	s2,0(s1)
  47:src/main.cpp  ****     thread_create(&busyWaitThread, &doBusyWaitThread, nullptr);
 678              		.loc 1 47 5 is_stmt 1
  48:src/main.cpp  ****     assert(IThread::pAllThreads[busyWaitThread]->id == BUSY_WAIT_THREAD_ID);
 679              		.loc 1 48 5
  48:src/main.cpp  ****     assert(IThread::pAllThreads[busyWaitThread]->id == BUSY_WAIT_THREAD_ID);
 680              		.loc 1 48 18 is_stmt 0
 681 0418 13060000 		li	a2,0
 682 041c 97050000 		lla	a1,_Z16doBusyWaitThreadPv
 682      93850500 
 683 0424 130584FD 		addi	a0,s0,-40
 684 0428 97000000 		call	_Z13thread_createPmPFvPvES0_@plt
 684      E7800000 
 685              	.LVL83:
  49:src/main.cpp  ****     Scheduler::get()->getNext();                                                 // get this functi
 686              		.loc 1 49 5 is_stmt 1
 687 0430 833784FD 		ld	a5,-40(s0)
 688 0434 93973700 		slli	a5,a5,3
 689 0438 B384F400 		add	s1,s1,a5
 690 043c 83B70400 		ld	a5,0(s1)
 691 0440 03B58702 		ld	a0,40(a5)
 692 0444 1305F5FF 		addi	a0,a0,-1
 693 0448 13061003 		li	a2,49
 694 044c 97050000 		lla	a1,.LC1
 694      93850500 
 695 0454 13351500 		seqz	a0,a0
 696 0458 97000000 		call	_Z7_assertbPKci
 696      E7800000 
 697              	.LVL84:
  50:src/main.cpp  **** 
 698              		.loc 1 50 5
 699              	.LBB97:
 700              	.LBB98:
 701              		.file 5 "src/../h/scheduler.h"
   1:src/../h/scheduler.h **** #pragma once
   2:src/../h/scheduler.h **** 
   3:src/../h/scheduler.h **** #include "../h/thread.h"
   4:src/../h/scheduler.h **** 
   5:src/../h/scheduler.h **** class Scheduler // singleton
   6:src/../h/scheduler.h **** {
   7:src/../h/scheduler.h **** public:
   8:src/../h/scheduler.h ****     static Scheduler* get()
   9:src/../h/scheduler.h ****     {
  10:src/../h/scheduler.h ****         static Scheduler instance;
 702              		.loc 5 10 9
 703              		.loc 5 10 26 is_stmt 0
 704 0460 97070000 		lbu	a5,_ZGVZN9Scheduler3getEvE8instance
 704      83C70700 
 705 0468 63900702 		bnez	a5,.L37
 706              	.LVL85:
 707              	.LBB99:
 708              	.LBB100:
 709              	.LBB101:
  11:src/../h/scheduler.h ****         return &instance;
  12:src/../h/scheduler.h ****     }
  13:src/../h/scheduler.h **** 
GAS LISTING /tmp/ccsOLUNE.s 			page 23


  14:src/../h/scheduler.h ****     int sleep(time_t time);
  15:src/../h/scheduler.h **** 
  16:src/../h/scheduler.h ****     static void dispatchToNext(); // WARNING: different than sys. call dispatch()
  17:src/../h/scheduler.h ****     static void dispatchUserVersion();
  18:src/../h/scheduler.h ****     static IThread* getNext();
  19:src/../h/scheduler.h ****     static void put(IThread*);
  20:src/../h/scheduler.h ****     static void printState();
  21:src/../h/scheduler.h **** 
  22:src/../h/scheduler.h ****     IThread* pHead; // points to the one that is the next to be run
  23:src/../h/scheduler.h ****     IThread* pSleepHead;
  24:src/../h/scheduler.h **** 
  25:src/../h/scheduler.h **** private:
  26:src/../h/scheduler.h ****     Scheduler()
  27:src/../h/scheduler.h ****         : pHead(nullptr), pSleepHead(nullptr)
 710              		.loc 5 27 45
 711 046c 97070000 		lla	a5,_ZZN9Scheduler3getEvE8instance
 711      93870700 
 712 0474 23B00700 		sd	zero,0(a5)
 713 0478 23B40700 		sd	zero,8(a5)
 714              	.LVL86:
 715              	.LBE101:
 716              	.LBE100:
 717              	.LBE99:
  10:src/../h/scheduler.h ****         return &instance;
 718              		.loc 5 10 26
 719 047c 93071000 		li	a5,1
 720 0480 17070000 		sb	a5,_ZGVZN9Scheduler3getEvE8instance,a4
 720      2300F700 
 721              	.L37:
  11:src/../h/scheduler.h ****         return &instance;
 722              		.loc 5 11 9 is_stmt 1
 723              	.LBE98:
 724              	.LBE97:
  50:src/main.cpp  **** 
 725              		.loc 1 50 31 is_stmt 0
 726 0488 97000000 		call	_ZN9Scheduler7getNextEv@plt
 726      E7800000 
 727              	.LVL87:
  52:src/main.cpp  ****     thread_create(&userThread, &userWrapper, nullptr);
 728              		.loc 1 52 5 is_stmt 1
  53:src/main.cpp  ****     assert(IThread::pAllThreads[userThread]->id == USER_THREAD_ID);
 729              		.loc 1 53 5
  53:src/main.cpp  ****     assert(IThread::pAllThreads[userThread]->id == USER_THREAD_ID);
 730              		.loc 1 53 18 is_stmt 0
 731 0490 13060000 		li	a2,0
 732 0494 97050000 		lla	a1,_Z11userWrapperPv
 732      93850500 
 733 049c 130504FD 		addi	a0,s0,-48
 734 04a0 97000000 		call	_Z13thread_createPmPFvPvES0_@plt
 734      E7800000 
 735              	.LVL88:
  54:src/main.cpp  **** 
 736              		.loc 1 54 5 is_stmt 1
 737 04a8 833704FD 		ld	a5,-48(s0)
 738 04ac 13973700 		slli	a4,a5,3
 739 04b0 97070000 		la	a5,_ZN7IThread11pAllThreadsE
 739      83B70700 
GAS LISTING /tmp/ccsOLUNE.s 			page 24


 740 04b8 B387E700 		add	a5,a5,a4
 741 04bc 83B70700 		ld	a5,0(a5)
 742 04c0 03B58702 		ld	a0,40(a5)
 743 04c4 1305E5FF 		addi	a0,a0,-2
 744 04c8 13066003 		li	a2,54
 745 04cc 97050000 		lla	a1,.LC1
 745      93850500 
 746 04d4 13351500 		seqz	a0,a0
 747 04d8 97000000 		call	_Z7_assertbPKci
 747      E7800000 
 748              	.LVL89:
  56:src/main.cpp  **** 
 749              		.loc 1 56 5
  56:src/main.cpp  **** 
 750              		.loc 1 56 72 is_stmt 0
 751 04e0 97000000 		call	_ZN8MemAlloc3getEv@plt
 751      E7800000 
 752              	.LVL90:
 753 04e8 97000000 		call	_ZN8MemAlloc16getUserlandUsageEv@plt
 753      E7800000 
 754              	.LVL91:
  56:src/main.cpp  **** 
 755              		.loc 1 56 37
 756 04f0 97070000 		la	a5,_ZN7IThread22initialUserMemoryUsageE
 756      83B70700 
 757 04f8 23B0A700 		sd	a0,0(a5)
  61:src/main.cpp  **** //    IThread* b = Scheduler::get()->getNext();
 758              		.loc 1 61 5 is_stmt 1
 759              	.LBB102:
 760              	.LBB103:
  10:src/../h/scheduler.h ****         return &instance;
 761              		.loc 5 10 9
  10:src/../h/scheduler.h ****         return &instance;
 762              		.loc 5 10 26 is_stmt 0
 763 04fc 97070000 		lbu	a5,_ZGVZN9Scheduler3getEvE8instance
 763      83C70700 
 764 0504 63900702 		bnez	a5,.L38
 765              	.LVL92:
 766              	.LBB104:
 767              	.LBB105:
 768              	.LBB106:
 769              		.loc 5 27 45
 770 0508 97070000 		lla	a5,_ZZN9Scheduler3getEvE8instance
 770      93870700 
 771 0510 23B00700 		sd	zero,0(a5)
 772 0514 23B40700 		sd	zero,8(a5)
 773              	.LVL93:
 774              	.LBE106:
 775              	.LBE105:
 776              	.LBE104:
  10:src/../h/scheduler.h ****         return &instance;
 777              		.loc 5 10 26
 778 0518 93071000 		li	a5,1
 779 051c 17070000 		sb	a5,_ZGVZN9Scheduler3getEvE8instance,a4
 779      2300F700 
 780              	.L38:
  11:src/../h/scheduler.h ****     }
GAS LISTING /tmp/ccsOLUNE.s 			page 25


 781              		.loc 5 11 9 is_stmt 1
 782              	.LBE103:
 783              	.LBE102:
  61:src/main.cpp  **** //    IThread* b = Scheduler::get()->getNext();
 784              		.loc 1 61 36 is_stmt 0
 785 0524 97070000 		ld	a5,_ZZN9Scheduler3getEvE8instance
 785      83B70700 
 786              	.LVL94:
  64:src/main.cpp  **** 
 787              		.loc 1 64 5 is_stmt 1
 788 052c 03B58702 		ld	a0,40(a5)
 789 0530 1305E5FF 		addi	a0,a0,-2
 790 0534 13060004 		li	a2,64
 791 0538 97050000 		lla	a1,.LC1
 791      93850500 
 792 0540 13351500 		seqz	a0,a0
 793 0544 97000000 		call	_Z7_assertbPKci
 793      E7800000 
 794              	.LVL95:
  66:src/main.cpp  ****     __asm__ volatile ("ecall");
 795              		.loc 1 66 5
  66:src/main.cpp  ****     __asm__ volatile ("ecall");
 796              		.loc 1 66 34 is_stmt 0
 797              	#APP
 798              	# 66 "src/main.cpp" 1
  67:src/main.cpp  **** 
 799              		li a0, 4
 800              	# 0 "" 2
 801              		.loc 1 67 5 is_stmt 1
  67:src/main.cpp  **** 
 802              		.loc 1 67 31 is_stmt 0
 803              	# 67 "src/main.cpp" 1
  69:src/main.cpp  **** 
 804              		ecall
 805              	# 0 "" 2
 806              		.loc 1 69 5 is_stmt 1
  69:src/main.cpp  **** 
 807              		.loc 1 69 43 is_stmt 0
 808              	# 69 "src/main.cpp" 1
  71:src/main.cpp  **** }
 809              		csrw sscratch, x0
 810              	# 0 "" 2
 811              		.loc 1 71 5 is_stmt 1
  72:src/main.cpp  **** 
 812              		.loc 1 72 1 is_stmt 0
 813              	#NO_APP
 814 0558 13050000 		li	a0,0
 815 055c 83308102 		ld	ra,40(sp)
 816              		.cfi_restore 1
 817 0560 03340102 		ld	s0,32(sp)
 818              		.cfi_restore 8
 819              		.cfi_def_cfa 2, 48
 820 0564 83348101 		ld	s1,24(sp)
 821              		.cfi_restore 9
 822 0568 03390101 		ld	s2,16(sp)
 823              		.cfi_restore 18
 824 056c 13010103 		addi	sp,sp,48
GAS LISTING /tmp/ccsOLUNE.s 			page 26


 825              		.cfi_def_cfa_offset 0
 826 0570 67800000 		jr	ra
 827              		.cfi_endproc
 828              	.LFE19:
 830              		.align	2
 831              		.globl	_Z12consoleStuffPv
 833              	_Z12consoleStuffPv:
 834              	.LFB23:
 118:src/main.cpp  ****     assert(false);
 835              		.loc 1 118 1 is_stmt 1
 836              		.cfi_startproc
 837              	.LVL96:
 838 0574 130101FE 		addi	sp,sp,-32
 839              		.cfi_def_cfa_offset 32
 840 0578 233C1100 		sd	ra,24(sp)
 841 057c 23388100 		sd	s0,16(sp)
 842 0580 23349100 		sd	s1,8(sp)
 843              		.cfi_offset 1, -8
 844              		.cfi_offset 8, -16
 845              		.cfi_offset 9, -24
 846 0584 13040102 		addi	s0,sp,32
 847              		.cfi_def_cfa 8, 0
 848 0588 93040500 		mv	s1,a0
 119:src/main.cpp  **** 
 849              		.loc 1 119 5
 850 058c 13067007 		li	a2,119
 851 0590 97050000 		lla	a1,.LC1
 851      93850500 
 852 0598 13050000 		li	a0,0
 853              	.LVL97:
 854 059c 97000000 		call	_Z7_assertbPKci
 854      E7800000 
 855              	.LVL98:
 121:src/main.cpp  **** 
 856              		.loc 1 121 5
 857 05a4 13069007 		li	a2,121
 858 05a8 97050000 		lla	a1,.LC1
 858      93850500 
 859 05b0 13B51400 		seqz	a0,s1
 860 05b4 97000000 		call	_Z7_assertbPKci
 860      E7800000 
 861              	.LVL99:
 123:src/main.cpp  **** 
 862              		.loc 1 123 5
 863              	.LBB127:
 864              	.LBB128:
  12:src/../h/0_console.h ****         return &instance;
 865              		.loc 4 12 9
  12:src/../h/0_console.h ****         return &instance;
 866              		.loc 4 12 25 is_stmt 0
 867 05bc 97070000 		lbu	a5,_ZGVZN8IConsole3getEvE8instance
 867      83C70700 
 868 05c4 639E0710 		bnez	a5,.L45
 869              	.LVL100:
 870              	.LBB129:
 871              	.LBB130:
 872              	.LBB131:
GAS LISTING /tmp/ccsOLUNE.s 			page 27


 873              		.loc 4 31 63
 874 05c8 97070000 		lla	a5,_ZZN8IConsole3getEvE8instance
 874      93870700 
 875 05d0 23B00700 		sd	zero,0(a5)
 876 05d4 23B40700 		sd	zero,8(a5)
 877 05d8 23BC073E 		sd	zero,1016(a5)
 878              	.LVL101:
 879              	.LBE131:
 880              	.LBE130:
 881              	.LBE129:
  12:src/../h/0_console.h ****         return &instance;
 882              		.loc 4 12 25
 883 05dc 93071000 		li	a5,1
 884 05e0 17070000 		sb	a5,_ZGVZN8IConsole3getEvE8instance,a4
 884      2300F700 
 885 05e8 6F00800F 		j	.L45
 886              	.LVL102:
 887              	.L52:
 888              	.LBE128:
 889              	.LBE127:
 890              	.LBB132:
 891              	.LBB133:
 892              	.LBB134:
 893              	.LBB135:
 894              	.LBB136:
 143:src/main.cpp  **** 
 895              		.loc 1 143 17 is_stmt 1
 143:src/main.cpp  **** 
 896              		.loc 1 143 35 is_stmt 0
 897 05ec 97000000 		call	plic_claim@plt
 897      E7800000 
 898              	.LVL103:
 145:src/main.cpp  ****                 *((char *) CONSOLE_TX_DATA) = output;
 899              		.loc 1 145 17 is_stmt 1
 145:src/main.cpp  ****                 *((char *) CONSOLE_TX_DATA) = output;
 900              		.loc 1 145 53 is_stmt 0
 901 05f4 17070000 		lla	a4,_ZZN8IConsole3getEvE8instance
 901      13070700 
 902 05fc 83368700 		ld	a3,8(a4)
 145:src/main.cpp  ****                 *((char *) CONSOLE_TX_DATA) = output;
 903              		.loc 1 145 22
 904 0600 3307D700 		add	a4,a4,a3
 905 0604 83460701 		lbu	a3,16(a4)
 906              	.LVL104:
 146:src/main.cpp  **** 
 907              		.loc 1 146 17 is_stmt 1
 908 0608 17070000 		la	a4,CONSOLE_TX_DATA
 908      03370700 
 909 0610 03370700 		ld	a4,0(a4)
 146:src/main.cpp  **** 
 910              		.loc 1 146 45 is_stmt 0
 911 0614 2300D700 		sb	a3,0(a4)
 148:src/main.cpp  ****                 assert(a == 10);
 912              		.loc 1 148 17 is_stmt 1
 148:src/main.cpp  ****                 assert(a == 10);
 913              		.loc 1 148 49 is_stmt 0
 914              	#APP
GAS LISTING /tmp/ccsOLUNE.s 			page 28


 915              	# 148 "src/main.cpp" 1
 149:src/main.cpp  **** 
 916              		mv x10, x10
 917              	# 0 "" 2
 918              		.loc 1 149 17 is_stmt 1
 919              	#NO_APP
 920 061c 930765FF 		addi	a5,a0,-10
 921 0620 93B41700 		seqz	s1,a5
 922              	.LVL105:
 923              	.LBB137:
 924              	.LBB138:
  20:src/../h/../h/my_console.h ****         return;
 925              		.loc 3 20 5
 926 0624 63980702 		bnez	a5,.L49
  21:src/../h/../h/my_console.h **** 
 927              		.loc 3 21 9
 928              	.LVL106:
 929              	.LBE138:
 930              	.LBE137:
 151:src/main.cpp  ****                 cons->putBufferTail = (cons->putBufferTail + 1) % BUFFER_SIZE;
 931              		.loc 1 151 17
 151:src/main.cpp  ****                 cons->putBufferTail = (cons->putBufferTail + 1) % BUFFER_SIZE;
 932              		.loc 1 151 23 is_stmt 0
 933 0628 17070000 		lla	a4,_ZZN8IConsole3getEvE8instance
 933      13070700 
 934 0630 8337873F 		ld	a5,1016(a4)
 151:src/main.cpp  ****                 cons->putBufferTail = (cons->putBufferTail + 1) % BUFFER_SIZE;
 935              		.loc 1 151 37
 936 0634 9387F7FF 		addi	a5,a5,-1
 937 0638 233CF73E 		sd	a5,1016(a4)
 152:src/main.cpp  ****             }
 938              		.loc 1 152 17 is_stmt 1
 152:src/main.cpp  ****             }
 939              		.loc 1 152 46 is_stmt 0
 940 063c 83378700 		ld	a5,8(a4)
 152:src/main.cpp  ****             }
 941              		.loc 1 152 60
 942 0640 93871700 		addi	a5,a5,1
 152:src/main.cpp  ****             }
 943              		.loc 1 152 65
 944 0644 9306803E 		li	a3,1000
 945              	.LVL107:
 946 0648 B3F7D702 		remu	a5,a5,a3
 152:src/main.cpp  ****             }
 947              		.loc 1 152 37
 948 064c 2334F700 		sd	a5,8(a4)
 949              	.LBE136:
 950 0650 6F004006 		j	.L42
 951              	.LVL108:
 952              	.L49:
 953              	.LBB141:
 954              	.LBB140:
 955              	.LBB139:
  23:src/../h/../h/my_console.h ****     putString(file);
 956              		.loc 3 23 5 is_stmt 1
  23:src/../h/../h/my_console.h ****     putString(file);
 957              		.loc 3 23 14 is_stmt 0
GAS LISTING /tmp/ccsOLUNE.s 			page 29


 958 0654 17050000 		lla	a0,.LC0
 958      13050500 
 959              	.LVL109:
 960 065c 97000000 		call	_Z9putStringPKc@plt
 960      E7800000 
 961              	.LVL110:
  24:src/../h/../h/my_console.h ****     putString("    line: ");
 962              		.loc 3 24 5 is_stmt 1
  24:src/../h/../h/my_console.h ****     putString("    line: ");
 963              		.loc 3 24 14 is_stmt 0
 964 0664 17050000 		lla	a0,.LC1
 964      13050500 
 965 066c 97000000 		call	_Z9putStringPKc@plt
 965      E7800000 
 966              	.LVL111:
  25:src/../h/../h/my_console.h ****     putInt(line);
 967              		.loc 3 25 5 is_stmt 1
  25:src/../h/../h/my_console.h ****     putInt(line);
 968              		.loc 3 25 14 is_stmt 0
 969 0674 17050000 		lla	a0,.LC2
 969      13050500 
 970 067c 97000000 		call	_Z9putStringPKc@plt
 970      E7800000 
 971              	.LVL112:
  26:src/../h/../h/my_console.h ****     putString("   ===========================");
 972              		.loc 3 26 5 is_stmt 1
  26:src/../h/../h/my_console.h ****     putString("   ===========================");
 973              		.loc 3 26 11 is_stmt 0
 974 0684 13055009 		li	a0,149
 975 0688 97000000 		call	_Z6putInti@plt
 975      E7800000 
 976              	.LVL113:
  27:src/../h/../h/my_console.h ****     putNewline();
 977              		.loc 3 27 5 is_stmt 1
  27:src/../h/../h/my_console.h ****     putNewline();
 978              		.loc 3 27 14 is_stmt 0
 979 0690 17050000 		lla	a0,.LC3
 979      13050500 
 980 0698 97000000 		call	_Z9putStringPKc@plt
 980      E7800000 
 981              	.LVL114:
  28:src/../h/../h/my_console.h **** 
 982              		.loc 3 28 5 is_stmt 1
  28:src/../h/../h/my_console.h **** 
 983              		.loc 3 28 15 is_stmt 0
 984 06a0 97000000 		call	_Z10putNewlinev@plt
 984      E7800000 
 985              	.LVL115:
 986              		.loc 3 30 5 is_stmt 1
 987              		.loc 3 30 15 is_stmt 0
 988 06a8 97000000 		call	_Z10stopKernelv@plt
 988      E7800000 
 989              	.LVL116:
 990              	.L46:
 991              	.LBE139:
 992              	.LBE140:
 993              	.LBE141:
GAS LISTING /tmp/ccsOLUNE.s 			page 30


 994              	.LBE135:
 995              	.LBE134:
 996              	.LBE133:
 129:src/main.cpp  ****         bool readyRead = false;
 997              		.loc 1 129 14
 998 06b0 93040000 		li	s1,0
 999              	.LVL117:
 1000              	.L42:
 156:src/main.cpp  ****         {
 1001              		.loc 1 156 9 is_stmt 1
 1002              	.LBB144:
 156:src/main.cpp  ****         {
 1003              		.loc 1 156 15 is_stmt 0
 1004 06b4 97070000 		la	a5,CONSOLE_STATUS
 1004      83B70700 
 1005 06bc 83B70700 		ld	a5,0(a5)
 1006 06c0 83C70700 		lbu	a5,0(a5)
 156:src/main.cpp  ****         {
 1007              		.loc 1 156 9
 1008 06c4 93F71700 		andi	a5,a5,1
 1009 06c8 63960704 		bnez	a5,.L50
 1010              	.LBE144:
 170:src/main.cpp  **** 
 1011              		.loc 1 170 9 is_stmt 1
 170:src/main.cpp  **** 
 1012              		.loc 1 170 41 is_stmt 0
 1013              	#APP
 1014              	# 170 "src/main.cpp" 1
 172:src/main.cpp  **** 
 1015              		mv x10, x10
 1016              	# 0 "" 2
 1017              		.loc 1 172 9 is_stmt 1
 172:src/main.cpp  **** 
 1018              		.loc 1 172 22 is_stmt 0
 1019              	#NO_APP
 1020 06d0 1305A000 		li	a0,10
 1021 06d4 97000000 		call	plic_complete@plt
 1021      E7800000 
 1022              	.LVL118:
 174:src/main.cpp  ****     }
 1023              		.loc 1 174 9 is_stmt 1
 1024              	.LBB148:
 1025              	.LBB149:
  20:src/../h/../h/my_console.h ****         return;
 1026              		.loc 3 20 5
 1027 06dc 638A0408 		beqz	s1,.L51
 1028              	.LVL119:
 1029              	.L45:
 1030              	.LBE149:
 1031              	.LBE148:
 1032              	.LBE132:
 125:src/main.cpp  ****     {
 1033              		.loc 1 125 5
 1034              	.LBB154:
 127:src/main.cpp  **** 
 1035              		.loc 1 127 9
 127:src/main.cpp  **** 
GAS LISTING /tmp/ccsOLUNE.s 			page 31


 1036              		.loc 1 127 24 is_stmt 0
 1037 06e0 97000000 		call	_Z15thread_dispatchv@plt
 1037      E7800000 
 1038              	.LVL120:
 129:src/main.cpp  ****         bool readyRead = false;
 1039              		.loc 1 129 9 is_stmt 1
 130:src/main.cpp  **** 
 1040              		.loc 1 130 9
 139:src/main.cpp  ****             readyWrite = true;
 1041              		.loc 1 139 9
 1042              	.LBB151:
 139:src/main.cpp  ****             readyWrite = true;
 1043              		.loc 1 139 15 is_stmt 0
 1044 06e8 97070000 		la	a5,CONSOLE_STATUS
 1044      83B70700 
 1045 06f0 83B70700 		ld	a5,0(a5)
 1046 06f4 83C70700 		lbu	a5,0(a5)
 139:src/main.cpp  ****             readyWrite = true;
 1047              		.loc 1 139 9
 1048 06f8 93F70702 		andi	a5,a5,32
 1049 06fc E38A07FA 		beqz	a5,.L46
 1050              	.LBB143:
 140:src/main.cpp  ****             if (cons->putBufferItems > 0)
 1051              		.loc 1 140 13 is_stmt 1
 1052              	.LVL121:
 141:src/main.cpp  ****             {
 1053              		.loc 1 141 13
 1054              	.LBB142:
 141:src/main.cpp  ****             {
 1055              		.loc 1 141 23 is_stmt 0
 1056 0700 97070000 		ld	a5,_ZZN8IConsole3getEvE8instance+1016
 1056      83B70700 
 141:src/main.cpp  ****             {
 1057              		.loc 1 141 13
 1058 0708 E39207EE 		bnez	a5,.L52
 1059              	.LBE142:
 140:src/main.cpp  ****             if (cons->putBufferItems > 0)
 1060              		.loc 1 140 24
 1061 070c 93041000 		li	s1,1
 1062 0710 6FF05FFA 		j	.L42
 1063              	.LVL122:
 1064              	.L50:
 1065              	.LBE143:
 1066              	.LBE151:
 1067              	.LBB152:
 1068              	.LBB145:
 158:src/main.cpp  ****             assert(cons->getBufferItems < BUFFER_SIZE - 1);
 1069              		.loc 1 158 13 is_stmt 1
 1070              	.LBB146:
 1071              	.LBB147:
  20:src/../h/../h/my_console.h ****         return;
 1072              		.loc 3 20 5
  23:src/../h/../h/my_console.h ****     putString(file);
 1073              		.loc 3 23 5
  23:src/../h/../h/my_console.h ****     putString(file);
 1074              		.loc 3 23 14 is_stmt 0
 1075 0714 17050000 		lla	a0,.LC0
GAS LISTING /tmp/ccsOLUNE.s 			page 32


 1075      13050500 
 1076 071c 97000000 		call	_Z9putStringPKc@plt
 1076      E7800000 
 1077              	.LVL123:
  24:src/../h/../h/my_console.h ****     putString("    line: ");
 1078              		.loc 3 24 5 is_stmt 1
  24:src/../h/../h/my_console.h ****     putString("    line: ");
 1079              		.loc 3 24 14 is_stmt 0
 1080 0724 17050000 		lla	a0,.LC1
 1080      13050500 
 1081 072c 97000000 		call	_Z9putStringPKc@plt
 1081      E7800000 
 1082              	.LVL124:
  25:src/../h/../h/my_console.h ****     putInt(line);
 1083              		.loc 3 25 5 is_stmt 1
  25:src/../h/../h/my_console.h ****     putInt(line);
 1084              		.loc 3 25 14 is_stmt 0
 1085 0734 17050000 		lla	a0,.LC2
 1085      13050500 
 1086 073c 97000000 		call	_Z9putStringPKc@plt
 1086      E7800000 
 1087              	.LVL125:
  26:src/../h/../h/my_console.h ****     putString("   ===========================");
 1088              		.loc 3 26 5 is_stmt 1
  26:src/../h/../h/my_console.h ****     putString("   ===========================");
 1089              		.loc 3 26 11 is_stmt 0
 1090 0744 1305E009 		li	a0,158
 1091 0748 97000000 		call	_Z6putInti@plt
 1091      E7800000 
 1092              	.LVL126:
  27:src/../h/../h/my_console.h ****     putNewline();
 1093              		.loc 3 27 5 is_stmt 1
  27:src/../h/../h/my_console.h ****     putNewline();
 1094              		.loc 3 27 14 is_stmt 0
 1095 0750 17050000 		lla	a0,.LC3
 1095      13050500 
 1096 0758 97000000 		call	_Z9putStringPKc@plt
 1096      E7800000 
 1097              	.LVL127:
  28:src/../h/../h/my_console.h **** 
 1098              		.loc 3 28 5 is_stmt 1
  28:src/../h/../h/my_console.h **** 
 1099              		.loc 3 28 15 is_stmt 0
 1100 0760 97000000 		call	_Z10putNewlinev@plt
 1100      E7800000 
 1101              	.LVL128:
 1102              		.loc 3 30 5 is_stmt 1
 1103              		.loc 3 30 15 is_stmt 0
 1104 0768 97000000 		call	_Z10stopKernelv@plt
 1104      E7800000 
 1105              	.LVL129:
 1106              	.L51:
 1107              	.LBE147:
 1108              	.LBE146:
 1109              	.LBE145:
 1110              	.LBE152:
 1111              	.LBB153:
GAS LISTING /tmp/ccsOLUNE.s 			page 33


 1112              	.LBB150:
  23:src/../h/../h/my_console.h ****     putString(file);
 1113              		.loc 3 23 5 is_stmt 1
  23:src/../h/../h/my_console.h ****     putString(file);
 1114              		.loc 3 23 14 is_stmt 0
 1115 0770 17050000 		lla	a0,.LC0
 1115      13050500 
 1116 0778 97000000 		call	_Z9putStringPKc@plt
 1116      E7800000 
 1117              	.LVL130:
  24:src/../h/../h/my_console.h ****     putString("    line: ");
 1118              		.loc 3 24 5 is_stmt 1
  24:src/../h/../h/my_console.h ****     putString("    line: ");
 1119              		.loc 3 24 14 is_stmt 0
 1120 0780 17050000 		lla	a0,.LC1
 1120      13050500 
 1121 0788 97000000 		call	_Z9putStringPKc@plt
 1121      E7800000 
 1122              	.LVL131:
  25:src/../h/../h/my_console.h ****     putInt(line);
 1123              		.loc 3 25 5 is_stmt 1
  25:src/../h/../h/my_console.h ****     putInt(line);
 1124              		.loc 3 25 14 is_stmt 0
 1125 0790 17050000 		lla	a0,.LC2
 1125      13050500 
 1126 0798 97000000 		call	_Z9putStringPKc@plt
 1126      E7800000 
 1127              	.LVL132:
  26:src/../h/../h/my_console.h ****     putString("   ===========================");
 1128              		.loc 3 26 5 is_stmt 1
  26:src/../h/../h/my_console.h ****     putString("   ===========================");
 1129              		.loc 3 26 11 is_stmt 0
 1130 07a0 1305E00A 		li	a0,174
 1131 07a4 97000000 		call	_Z6putInti@plt
 1131      E7800000 
 1132              	.LVL133:
  27:src/../h/../h/my_console.h ****     putNewline();
 1133              		.loc 3 27 5 is_stmt 1
  27:src/../h/../h/my_console.h ****     putNewline();
 1134              		.loc 3 27 14 is_stmt 0
 1135 07ac 17050000 		lla	a0,.LC3
 1135      13050500 
 1136 07b4 97000000 		call	_Z9putStringPKc@plt
 1136      E7800000 
 1137              	.LVL134:
  28:src/../h/../h/my_console.h **** 
 1138              		.loc 3 28 5 is_stmt 1
  28:src/../h/../h/my_console.h **** 
 1139              		.loc 3 28 15 is_stmt 0
 1140 07bc 97000000 		call	_Z10putNewlinev@plt
 1140      E7800000 
 1141              	.LVL135:
 1142              		.loc 3 30 5 is_stmt 1
 1143              		.loc 3 30 15 is_stmt 0
 1144 07c4 97000000 		call	_Z10stopKernelv@plt
 1144      E7800000 
 1145              	.LVL136:
GAS LISTING /tmp/ccsOLUNE.s 			page 34


 1146              	.LBE150:
 1147              	.LBE153:
 1148              	.LBE154:
 1149              		.cfi_endproc
 1150              	.LFE23:
 1152              		.align	2
 1154              	_GLOBAL__sub_I_kernelThread:
 1155              	.LFB25:
 1156              		.loc 1 176 1 is_stmt 1
 1157              		.cfi_startproc
 1158 07cc 130101FF 		addi	sp,sp,-16
 1159              		.cfi_def_cfa_offset 16
 1160 07d0 23341100 		sd	ra,8(sp)
 1161 07d4 23308100 		sd	s0,0(sp)
 1162              		.cfi_offset 1, -8
 1163              		.cfi_offset 8, -16
 1164 07d8 13040101 		addi	s0,sp,16
 1165              		.cfi_def_cfa 8, 0
 1166              		.loc 1 176 1 is_stmt 0
 1167 07dc B7050100 		li	a1,65536
 1168 07e0 9385F5FF 		addi	a1,a1,-1
 1169 07e4 13051000 		li	a0,1
 1170 07e8 97000000 		call	_Z41__static_initialization_and_destruction_0ii
 1170      E7800000 
 1171              	.LVL137:
 1172 07f0 83308100 		ld	ra,8(sp)
 1173              		.cfi_restore 1
 1174 07f4 03340100 		ld	s0,0(sp)
 1175              		.cfi_restore 8
 1176              		.cfi_def_cfa 2, 16
 1177 07f8 13010101 		addi	sp,sp,16
 1178              		.cfi_def_cfa_offset 0
 1179 07fc 67800000 		jr	ra
 1180              		.cfi_endproc
 1181              	.LFE25:
 1183              		.section	.init_array,"aw"
 1184              		.align	3
 1185 0000 00000000 		.dword	_GLOBAL__sub_I_kernelThread
 1185      00000000 
 1186              		.globl	kernelThread
 1187              		.weak	_ZGVZN8IConsole3getEvE8instance
 1188              		.section	.bss._ZGVZN8IConsole3getEvE8instance,"awG",@nobits,_ZGVZN8IConsole3getEvE8instance,comdat
 1189              		.align	3
 1192              	_ZGVZN8IConsole3getEvE8instance:
 1193 0000 00000000 		.zero	8
 1193      00000000 
 1194              		.weak	_ZZN8IConsole3getEvE8instance
 1195              		.section	.bss._ZZN8IConsole3getEvE8instance,"awG",@nobits,_ZZN8IConsole3getEvE8instance,comdat
 1196              		.align	3
 1199              	_ZZN8IConsole3getEvE8instance:
 1200 0000 00000000 		.zero	2048
 1200      00000000 
 1200      00000000 
 1200      00000000 
 1200      00000000 
 1201              		.weak	_ZGVZN9Scheduler3getEvE8instance
 1202              		.section	.bss._ZGVZN9Scheduler3getEvE8instance,"awG",@nobits,_ZGVZN9Scheduler3getEvE8instance,comd
GAS LISTING /tmp/ccsOLUNE.s 			page 35


 1203              		.align	3
 1206              	_ZGVZN9Scheduler3getEvE8instance:
 1207 0000 00000000 		.zero	8
 1207      00000000 
 1208              		.weak	_ZZN9Scheduler3getEvE8instance
 1209              		.section	.bss._ZZN9Scheduler3getEvE8instance,"awG",@nobits,_ZZN9Scheduler3getEvE8instance,comdat
 1210              		.align	3
 1213              	_ZZN9Scheduler3getEvE8instance:
 1214 0000 00000000 		.zero	16
 1214      00000000 
 1214      00000000 
 1214      00000000 
 1215              		.bss
 1216              		.align	3
 1217              		.set	.LANCHOR0,. + 0
 1220              	kernelThread:
 1221 0000 00000000 		.zero	88
 1221      00000000 
 1221      00000000 
 1221      00000000 
 1221      00000000 
 1222              		.text
 1223              	.Letext0:
 1224              		.file 6 "src/../h/../lib/hw.h"
 1225              		.file 7 "src/../h/alloc.h"
 1226              		.file 8 "src/../h/syscall_c.hpp"
 1227              		.file 9 "src/../h/../h/../h/risc.h"
GAS LISTING /tmp/ccsOLUNE.s 			page 36


DEFINED SYMBOLS
                            *ABS*:0000000000000000 main.cpp
     /tmp/ccsOLUNE.s:8      .text:0000000000000000 _Z41__static_initialization_and_destruction_0ii
     /tmp/ccsOLUNE.s:12     .text:0000000000000000 .L0 
     /tmp/ccsOLUNE.s:14     .text:0000000000000000 .L0 
     /tmp/ccsOLUNE.s:15     .text:0000000000000004 .L0 
     /tmp/ccsOLUNE.s:17     .text:0000000000000008 .L0 
     /tmp/ccsOLUNE.s:19     .text:000000000000000c .L0 
     /tmp/ccsOLUNE.s:21     .text:000000000000000c .L0 
     /tmp/ccsOLUNE.s:25     .text:0000000000000018 .L0 
     /tmp/ccsOLUNE.s:26     .text:0000000000000018 .L0 
     /tmp/ccsOLUNE.s:27     .text:0000000000000018 .L0 
     /tmp/ccsOLUNE.s:29     .text:000000000000001c .L0 
     /tmp/ccsOLUNE.s:32     .text:0000000000000020 .L0 
     /tmp/ccsOLUNE.s:34     .text:0000000000000020 .L0 
     /tmp/ccsOLUNE.s:43     .text:000000000000002c .L0 
     /tmp/ccsOLUNE.s:51     .text:000000000000003c .L0 
     /tmp/ccsOLUNE.s:52     .text:0000000000000040 .L0 
     /tmp/ccsOLUNE.s:72     .text:0000000000000040 _Z16doBusyWaitThreadPv
     /tmp/ccsOLUNE.s:75     .text:0000000000000040 .L0 
     /tmp/ccsOLUNE.s:77     .text:0000000000000040 .L0 
     /tmp/ccsOLUNE.s:78     .text:0000000000000044 .L0 
     /tmp/ccsOLUNE.s:81     .text:000000000000004c .L0 
     /tmp/ccsOLUNE.s:82     .text:000000000000004c .L0 
     /tmp/ccsOLUNE.s:84     .text:0000000000000050 .L0 
     /tmp/ccsOLUNE.s:90     .text:0000000000000050 .L0 
     /tmp/ccsOLUNE.s:91     .text:0000000000000050 .L0 
     /tmp/ccsOLUNE.s:96     .text:0000000000000054 .L0 
     /tmp/ccsOLUNE.s:97     .text:0000000000000054 .L0 
        src/main.cpp:77     .text:0000000000000054 .L0 
     /tmp/ccsOLUNE.s:106    .text:0000000000000058 .L0 
     /tmp/ccsOLUNE.s:107    .text:0000000000000058 .L0 
     /tmp/ccsOLUNE.s:108    .text:0000000000000058 .L0 
     /tmp/ccsOLUNE.s:113    .text:0000000000000068 .L0 
     /tmp/ccsOLUNE.s:121    .text:0000000000000078 .L0 
     /tmp/ccsOLUNE.s:126    .text:000000000000007c .L0 
     /tmp/ccsOLUNE.s:127    .text:000000000000007c .L0 
     /tmp/ccsOLUNE.s:128    .text:000000000000007c .L0 
     /tmp/ccsOLUNE.s:131    .text:0000000000000084 .L0 
     /tmp/ccsOLUNE.s:133    .text:0000000000000088 .L0 
     /tmp/ccsOLUNE.s:135    .text:000000000000008c .L0 
        src/main.cpp:86     .text:000000000000008c .L0 
     /tmp/ccsOLUNE.s:141    .text:0000000000000090 .L0 
     /tmp/ccsOLUNE.s:143    .text:0000000000000090 .L0 
     /tmp/ccsOLUNE.s:151    .text:000000000000009c .L0 
     /tmp/ccsOLUNE.s:152    .text:000000000000009c .L0 
     /tmp/ccsOLUNE.s:157    .text:00000000000000ac .L0 
     /tmp/ccsOLUNE.s:158    .text:00000000000000ac .L0 
     /tmp/ccsOLUNE.s:162    .text:00000000000000bc .L0 
     /tmp/ccsOLUNE.s:163    .text:00000000000000bc .L0 
     /tmp/ccsOLUNE.s:167    .text:00000000000000cc .L0 
     /tmp/ccsOLUNE.s:168    .text:00000000000000cc .L0 
     /tmp/ccsOLUNE.s:172    .text:00000000000000d8 .L0 
     /tmp/ccsOLUNE.s:173    .text:00000000000000d8 .L0 
     /tmp/ccsOLUNE.s:177    .text:00000000000000e8 .L0 
     /tmp/ccsOLUNE.s:178    .text:00000000000000e8 .L0 
     /tmp/ccsOLUNE.s:181    .text:00000000000000f0 .L0 
GAS LISTING /tmp/ccsOLUNE.s 			page 37


     /tmp/ccsOLUNE.s:182    .text:00000000000000f0 .L0 
     /tmp/ccsOLUNE.s:190    .text:00000000000000f8 .L0 
     /tmp/ccsOLUNE.s:191    .text:00000000000000f8 .L0 
     /tmp/ccsOLUNE.s:195    .text:0000000000000108 .L0 
     /tmp/ccsOLUNE.s:196    .text:0000000000000108 .L0 
     /tmp/ccsOLUNE.s:200    .text:0000000000000118 .L0 
     /tmp/ccsOLUNE.s:201    .text:0000000000000118 .L0 
     /tmp/ccsOLUNE.s:205    .text:0000000000000128 .L0 
     /tmp/ccsOLUNE.s:206    .text:0000000000000128 .L0 
     /tmp/ccsOLUNE.s:210    .text:0000000000000134 .L0 
     /tmp/ccsOLUNE.s:211    .text:0000000000000134 .L0 
     /tmp/ccsOLUNE.s:215    .text:0000000000000144 .L0 
     /tmp/ccsOLUNE.s:216    .text:0000000000000144 .L0 
     /tmp/ccsOLUNE.s:219    .text:000000000000014c .L0 
     /tmp/ccsOLUNE.s:220    .text:000000000000014c .L0 
     /tmp/ccsOLUNE.s:226    .text:0000000000000154 .L0 
     /tmp/ccsOLUNE.s:227    .text:0000000000000158 .L0 
     /tmp/ccsOLUNE.s:229    .text:000000000000015c .L0 
     /tmp/ccsOLUNE.s:230    .text:000000000000015c .L0 
     /tmp/ccsOLUNE.s:232    .text:0000000000000160 .L0 
     /tmp/ccsOLUNE.s:234    .text:0000000000000164 .L0 
     /tmp/ccsOLUNE.s:245    .text:0000000000000164 _Z11userWrapperPv
     /tmp/ccsOLUNE.s:248    .text:0000000000000164 .L0 
     /tmp/ccsOLUNE.s:250    .text:0000000000000164 .L0 
     /tmp/ccsOLUNE.s:251    .text:0000000000000168 .L0 
     /tmp/ccsOLUNE.s:254    .text:0000000000000170 .L0 
     /tmp/ccsOLUNE.s:255    .text:0000000000000170 .L0 
     /tmp/ccsOLUNE.s:257    .text:0000000000000174 .L0 
     /tmp/ccsOLUNE.s:262    .text:0000000000000174 .L0 
     /tmp/ccsOLUNE.s:263    .text:0000000000000174 .L0 
     /tmp/ccsOLUNE.s:268    .text:0000000000000178 .L0 
     /tmp/ccsOLUNE.s:269    .text:0000000000000178 .L0 
     /tmp/ccsOLUNE.s:278    .text:0000000000000190 .L0 
     /tmp/ccsOLUNE.s:283    .text:0000000000000194 .L0 
     /tmp/ccsOLUNE.s:284    .text:0000000000000194 .L0 
     /tmp/ccsOLUNE.s:285    .text:0000000000000194 .L0 
     /tmp/ccsOLUNE.s:288    .text:000000000000019c .L0 
     /tmp/ccsOLUNE.s:289    .text:000000000000019c .L0 
     /tmp/ccsOLUNE.s:293    .text:00000000000001ac .L0 
     /tmp/ccsOLUNE.s:294    .text:00000000000001ac .L0 
     /tmp/ccsOLUNE.s:300    .text:00000000000001b4 .L0 
     /tmp/ccsOLUNE.s:301    .text:00000000000001b4 .L0 
     /tmp/ccsOLUNE.s:1192   .bss._ZGVZN8IConsole3getEvE8instance:0000000000000000 _ZGVZN8IConsole3getEvE8instance
     /tmp/ccsOLUNE.s:302    .text:00000000000001b4 .L0 
     /tmp/ccsOLUNE.s:1199   .bss._ZZN8IConsole3getEvE8instance:0000000000000000 _ZZN8IConsole3getEvE8instance
     /tmp/ccsOLUNE.s:309    .text:00000000000001c0 .L0 
     /tmp/ccsOLUNE.s:318    .text:00000000000001d4 .L0 
     /tmp/ccsOLUNE.s:324    .text:00000000000001e0 .L0 
     /tmp/ccsOLUNE.s:325    .text:00000000000001e0 .L0 
     /tmp/ccsOLUNE.s:329    .text:00000000000001f0 .L0 
     /tmp/ccsOLUNE.s:330    .text:00000000000001f0 .L0 
     /tmp/ccsOLUNE.s:333    .text:00000000000001f8 .L0 
     /tmp/ccsOLUNE.s:334    .text:00000000000001fc .L0 
     /tmp/ccsOLUNE.s:335    .text:00000000000001fc .L0 
     /tmp/ccsOLUNE.s:337    .text:0000000000000200 .L0 
     /tmp/ccsOLUNE.s:338    .text:0000000000000200 .L0 
     /tmp/ccsOLUNE.s:340    .text:0000000000000204 .L0 
GAS LISTING /tmp/ccsOLUNE.s 			page 38


     /tmp/ccsOLUNE.s:344    .text:0000000000000208 .L0 
     /tmp/ccsOLUNE.s:348    .text:0000000000000208 .L0 
     /tmp/ccsOLUNE.s:349    .text:0000000000000208 .L0 
     /tmp/ccsOLUNE.s:354    .text:0000000000000218 .L0 
     /tmp/ccsOLUNE.s:355    .text:0000000000000218 .L0 
     /tmp/ccsOLUNE.s:359    .text:0000000000000228 .L0 
     /tmp/ccsOLUNE.s:360    .text:0000000000000228 .L0 
     /tmp/ccsOLUNE.s:364    .text:0000000000000238 .L0 
     /tmp/ccsOLUNE.s:365    .text:0000000000000238 .L0 
     /tmp/ccsOLUNE.s:369    .text:0000000000000244 .L0 
     /tmp/ccsOLUNE.s:370    .text:0000000000000244 .L0 
     /tmp/ccsOLUNE.s:374    .text:0000000000000254 .L0 
     /tmp/ccsOLUNE.s:375    .text:0000000000000254 .L0 
     /tmp/ccsOLUNE.s:378    .text:000000000000025c .L0 
     /tmp/ccsOLUNE.s:379    .text:000000000000025c .L0 
     /tmp/ccsOLUNE.s:387    .text:0000000000000264 .L0 
     /tmp/ccsOLUNE.s:388    .text:0000000000000264 .L0 
     /tmp/ccsOLUNE.s:393    .text:0000000000000274 .L0 
     /tmp/ccsOLUNE.s:394    .text:0000000000000274 .L0 
     /tmp/ccsOLUNE.s:398    .text:0000000000000284 .L0 
     /tmp/ccsOLUNE.s:399    .text:0000000000000284 .L0 
     /tmp/ccsOLUNE.s:403    .text:0000000000000294 .L0 
     /tmp/ccsOLUNE.s:404    .text:0000000000000294 .L0 
     /tmp/ccsOLUNE.s:408    .text:00000000000002a0 .L0 
     /tmp/ccsOLUNE.s:409    .text:00000000000002a0 .L0 
     /tmp/ccsOLUNE.s:413    .text:00000000000002b0 .L0 
     /tmp/ccsOLUNE.s:414    .text:00000000000002b0 .L0 
     /tmp/ccsOLUNE.s:417    .text:00000000000002b8 .L0 
     /tmp/ccsOLUNE.s:418    .text:00000000000002b8 .L0 
     /tmp/ccsOLUNE.s:422    .text:00000000000002c0 .L0 
     /tmp/ccsOLUNE.s:429    .text._Z7_assertbPKci:0000000000000000 _Z7_assertbPKci
     /tmp/ccsOLUNE.s:432    .text._Z7_assertbPKci:0000000000000000 .L0 
     /tmp/ccsOLUNE.s:434    .text._Z7_assertbPKci:0000000000000000 .L0 
     /tmp/ccsOLUNE.s:435    .text._Z7_assertbPKci:0000000000000000 .L0 
     /tmp/ccsOLUNE.s:439    .text._Z7_assertbPKci:0000000000000008 .L0 
     /tmp/ccsOLUNE.s:440    .text._Z7_assertbPKci:000000000000000c .L0 
     /tmp/ccsOLUNE.s:445    .text._Z7_assertbPKci:000000000000001c .L0 
     /tmp/ccsOLUNE.s:446    .text._Z7_assertbPKci:000000000000001c .L0 
     /tmp/ccsOLUNE.s:447    .text._Z7_assertbPKci:000000000000001c .L0 
     /tmp/ccsOLUNE.s:448    .text._Z7_assertbPKci:000000000000001c .L0 
     /tmp/ccsOLUNE.s:450    .text._Z7_assertbPKci:0000000000000020 .L0 
     /tmp/ccsOLUNE.s:454    .text._Z7_assertbPKci:0000000000000028 .L0 
     /tmp/ccsOLUNE.s:455    .text._Z7_assertbPKci:0000000000000028 .L0 
     /tmp/ccsOLUNE.s:460    .text._Z7_assertbPKci:0000000000000038 .L0 
     /tmp/ccsOLUNE.s:461    .text._Z7_assertbPKci:0000000000000038 .L0 
     /tmp/ccsOLUNE.s:465    .text._Z7_assertbPKci:0000000000000044 .L0 
     /tmp/ccsOLUNE.s:466    .text._Z7_assertbPKci:0000000000000044 .L0 
     /tmp/ccsOLUNE.s:470    .text._Z7_assertbPKci:0000000000000054 .L0 
     /tmp/ccsOLUNE.s:471    .text._Z7_assertbPKci:0000000000000054 .L0 
     /tmp/ccsOLUNE.s:475    .text._Z7_assertbPKci:0000000000000060 .L0 
     /tmp/ccsOLUNE.s:476    .text._Z7_assertbPKci:0000000000000060 .L0 
     /tmp/ccsOLUNE.s:480    .text._Z7_assertbPKci:0000000000000070 .L0 
     /tmp/ccsOLUNE.s:481    .text._Z7_assertbPKci:0000000000000070 .L0 
     /tmp/ccsOLUNE.s:484    .text._Z7_assertbPKci:0000000000000078 .L0 
     /tmp/ccsOLUNE.s:485    .text._Z7_assertbPKci:0000000000000078 .L0 
     /tmp/ccsOLUNE.s:487    .text._Z7_assertbPKci:0000000000000080 .L0 
     /tmp/ccsOLUNE.s:494    .text:00000000000002c0 _Z16doInitialAssertsv
GAS LISTING /tmp/ccsOLUNE.s 			page 39


     /tmp/ccsOLUNE.s:497    .text:00000000000002c0 .L0 
     /tmp/ccsOLUNE.s:498    .text:00000000000002c0 .L0 
     /tmp/ccsOLUNE.s:500    .text:00000000000002c0 .L0 
     /tmp/ccsOLUNE.s:501    .text:00000000000002c0 .L0 
     /tmp/ccsOLUNE.s:502    .text:00000000000002c0 .L0 
     /tmp/ccsOLUNE.s:503    .text:00000000000002c0 .L0 
     /tmp/ccsOLUNE.s:515    .text:00000000000002e8 .L0 
     /tmp/ccsOLUNE.s:521    .text:00000000000002f0 .L0 
     /tmp/ccsOLUNE.s:522    .text:00000000000002f4 .L0 
     /tmp/ccsOLUNE.s:525    .text:00000000000002fc .L0 
     /tmp/ccsOLUNE.s:526    .text:00000000000002fc .L0 
     /tmp/ccsOLUNE.s:528    .text:0000000000000300 .L0 
     /tmp/ccsOLUNE.s:532    .text:0000000000000300 .L0 
     /tmp/ccsOLUNE.s:533    .text:0000000000000300 .L0 
     /tmp/ccsOLUNE.s:537    .text:0000000000000310 .L0 
     /tmp/ccsOLUNE.s:538    .text:0000000000000310 .L0 
     /tmp/ccsOLUNE.s:542    .text:0000000000000320 .L0 
     /tmp/ccsOLUNE.s:543    .text:0000000000000320 .L0 
     /tmp/ccsOLUNE.s:547    .text:0000000000000330 .L0 
     /tmp/ccsOLUNE.s:548    .text:0000000000000330 .L0 
     /tmp/ccsOLUNE.s:552    .text:000000000000033c .L0 
     /tmp/ccsOLUNE.s:553    .text:000000000000033c .L0 
     /tmp/ccsOLUNE.s:557    .text:000000000000034c .L0 
     /tmp/ccsOLUNE.s:558    .text:000000000000034c .L0 
     /tmp/ccsOLUNE.s:561    .text:0000000000000354 .L0 
     /tmp/ccsOLUNE.s:562    .text:0000000000000354 .L0 
     /tmp/ccsOLUNE.s:566    .text:000000000000035c .L0 
     /tmp/ccsOLUNE.s:572    .text:000000000000035c _Z19initInterruptVectorv
     /tmp/ccsOLUNE.s:575    .text:000000000000035c .L0 
     /tmp/ccsOLUNE.s:576    .text:000000000000035c .L0 
     /tmp/ccsOLUNE.s:577    .text:0000000000000360 .L0 
     /tmp/ccsOLUNE.s:579    .text:0000000000000364 .L0 
     /tmp/ccsOLUNE.s:581    .text:0000000000000368 .L0 
     /tmp/ccsOLUNE.s:583    .text:0000000000000368 .L0 
     /tmp/ccsOLUNE.s:584    .text:0000000000000368 .L0 
     /tmp/ccsOLUNE.s:590    .text:0000000000000374 .L0 
        src/main.cpp:112    .text:0000000000000374 .L0 
     /tmp/ccsOLUNE.s:595    .text:0000000000000378 .L0 
        src/main.cpp:113    .text:0000000000000378 .L0 
     /tmp/ccsOLUNE.s:601    .text:000000000000037c .L0 
     /tmp/ccsOLUNE.s:602    .text:0000000000000380 .L0 
     /tmp/ccsOLUNE.s:603    .text:0000000000000380 .L0 
     /tmp/ccsOLUNE.s:605    .text:0000000000000384 .L0 
     /tmp/ccsOLUNE.s:607    .text:0000000000000388 .L0 
     /tmp/ccsOLUNE.s:613    .text:0000000000000388 main
     /tmp/ccsOLUNE.s:616    .text:0000000000000388 .L0 
     /tmp/ccsOLUNE.s:617    .text:0000000000000388 .L0 
     /tmp/ccsOLUNE.s:618    .text:000000000000038c .L0 
     /tmp/ccsOLUNE.s:623    .text:000000000000039c .L0 
     /tmp/ccsOLUNE.s:624    .text:000000000000039c .L0 
     /tmp/ccsOLUNE.s:625    .text:000000000000039c .L0 
     /tmp/ccsOLUNE.s:626    .text:000000000000039c .L0 
     /tmp/ccsOLUNE.s:628    .text:00000000000003a0 .L0 
     /tmp/ccsOLUNE.s:630    .text:00000000000003a0 .L0 
     /tmp/ccsOLUNE.s:631    .text:00000000000003a0 .L0 
     /tmp/ccsOLUNE.s:634    .text:00000000000003a8 .L0 
     /tmp/ccsOLUNE.s:635    .text:00000000000003a8 .L0 
GAS LISTING /tmp/ccsOLUNE.s 			page 40


     /tmp/ccsOLUNE.s:638    .text:00000000000003b0 .L0 
     /tmp/ccsOLUNE.s:639    .text:00000000000003b0 .L0 
     /tmp/ccsOLUNE.s:642    .text:00000000000003b8 .L0 
     /tmp/ccsOLUNE.s:643    .text:00000000000003b8 .L0 
        src/main.cpp:40     .text:00000000000003b8 .L0 
     /tmp/ccsOLUNE.s:650    .text:00000000000003bc .L0 
     /tmp/ccsOLUNE.s:652    .text:00000000000003bc .L0 
     /tmp/ccsOLUNE.s:655    .text:00000000000003c8 .L0 
     /tmp/ccsOLUNE.s:656    .text:00000000000003c8 .L0 
     /tmp/ccsOLUNE.s:660    .text:00000000000003d4 .L0 
     /tmp/ccsOLUNE.s:672    .text:0000000000000408 .L0 
     /tmp/ccsOLUNE.s:673    .text:0000000000000408 .L0 
     /tmp/ccsOLUNE.s:675    .text:000000000000040c .L0 
     /tmp/ccsOLUNE.s:676    .text:000000000000040c .L0 
     /tmp/ccsOLUNE.s:679    .text:0000000000000418 .L0 
     /tmp/ccsOLUNE.s:680    .text:0000000000000418 .L0 
     /tmp/ccsOLUNE.s:681    .text:0000000000000418 .L0 
     /tmp/ccsOLUNE.s:687    .text:0000000000000430 .L0 
     /tmp/ccsOLUNE.s:702    .text:0000000000000460 .L0 
     /tmp/ccsOLUNE.s:703    .text:0000000000000460 .L0 
     /tmp/ccsOLUNE.s:1206   .bss._ZGVZN9Scheduler3getEvE8instance:0000000000000000 _ZGVZN9Scheduler3getEvE8instance
     /tmp/ccsOLUNE.s:704    .text:0000000000000460 .L0 
     /tmp/ccsOLUNE.s:1213   .bss._ZZN9Scheduler3getEvE8instance:0000000000000000 _ZZN9Scheduler3getEvE8instance
     /tmp/ccsOLUNE.s:711    .text:000000000000046c .L0 
     /tmp/ccsOLUNE.s:719    .text:000000000000047c .L0 
     /tmp/ccsOLUNE.s:725    .text:0000000000000488 .L0 
     /tmp/ccsOLUNE.s:726    .text:0000000000000488 .L0 
     /tmp/ccsOLUNE.s:729    .text:0000000000000490 .L0 
     /tmp/ccsOLUNE.s:730    .text:0000000000000490 .L0 
     /tmp/ccsOLUNE.s:731    .text:0000000000000490 .L0 
     /tmp/ccsOLUNE.s:737    .text:00000000000004a8 .L0 
     /tmp/ccsOLUNE.s:750    .text:00000000000004e0 .L0 
     /tmp/ccsOLUNE.s:751    .text:00000000000004e0 .L0 
     /tmp/ccsOLUNE.s:756    .text:00000000000004f0 .L0 
     /tmp/ccsOLUNE.s:761    .text:00000000000004fc .L0 
     /tmp/ccsOLUNE.s:762    .text:00000000000004fc .L0 
     /tmp/ccsOLUNE.s:763    .text:00000000000004fc .L0 
     /tmp/ccsOLUNE.s:770    .text:0000000000000508 .L0 
     /tmp/ccsOLUNE.s:778    .text:0000000000000518 .L0 
     /tmp/ccsOLUNE.s:784    .text:0000000000000524 .L0 
     /tmp/ccsOLUNE.s:785    .text:0000000000000524 .L0 
     /tmp/ccsOLUNE.s:788    .text:000000000000052c .L0 
     /tmp/ccsOLUNE.s:796    .text:000000000000054c .L0 
        src/main.cpp:66     .text:000000000000054c .L0 
     /tmp/ccsOLUNE.s:802    .text:0000000000000550 .L0 
        src/main.cpp:67     .text:0000000000000550 .L0 
     /tmp/ccsOLUNE.s:807    .text:0000000000000554 .L0 
        src/main.cpp:69     .text:0000000000000554 .L0 
     /tmp/ccsOLUNE.s:812    .text:0000000000000558 .L0 
     /tmp/ccsOLUNE.s:814    .text:0000000000000558 .L0 
     /tmp/ccsOLUNE.s:816    .text:0000000000000560 .L0 
     /tmp/ccsOLUNE.s:818    .text:0000000000000564 .L0 
     /tmp/ccsOLUNE.s:819    .text:0000000000000564 .L0 
     /tmp/ccsOLUNE.s:821    .text:0000000000000568 .L0 
     /tmp/ccsOLUNE.s:823    .text:000000000000056c .L0 
     /tmp/ccsOLUNE.s:825    .text:0000000000000570 .L0 
     /tmp/ccsOLUNE.s:827    .text:0000000000000574 .L0 
GAS LISTING /tmp/ccsOLUNE.s 			page 41


     /tmp/ccsOLUNE.s:833    .text:0000000000000574 _Z12consoleStuffPv
     /tmp/ccsOLUNE.s:836    .text:0000000000000574 .L0 
     /tmp/ccsOLUNE.s:838    .text:0000000000000574 .L0 
     /tmp/ccsOLUNE.s:839    .text:0000000000000578 .L0 
     /tmp/ccsOLUNE.s:843    .text:0000000000000584 .L0 
     /tmp/ccsOLUNE.s:844    .text:0000000000000584 .L0 
     /tmp/ccsOLUNE.s:845    .text:0000000000000584 .L0 
     /tmp/ccsOLUNE.s:847    .text:0000000000000588 .L0 
     /tmp/ccsOLUNE.s:850    .text:000000000000058c .L0 
     /tmp/ccsOLUNE.s:857    .text:00000000000005a4 .L0 
     /tmp/ccsOLUNE.s:865    .text:00000000000005bc .L0 
     /tmp/ccsOLUNE.s:866    .text:00000000000005bc .L0 
     /tmp/ccsOLUNE.s:867    .text:00000000000005bc .L0 
     /tmp/ccsOLUNE.s:874    .text:00000000000005c8 .L0 
     /tmp/ccsOLUNE.s:883    .text:00000000000005dc .L0 
     /tmp/ccsOLUNE.s:896    .text:00000000000005ec .L0 
     /tmp/ccsOLUNE.s:897    .text:00000000000005ec .L0 
     /tmp/ccsOLUNE.s:900    .text:00000000000005f4 .L0 
     /tmp/ccsOLUNE.s:901    .text:00000000000005f4 .L0 
     /tmp/ccsOLUNE.s:904    .text:0000000000000600 .L0 
     /tmp/ccsOLUNE.s:908    .text:0000000000000608 .L0 
     /tmp/ccsOLUNE.s:911    .text:0000000000000614 .L0 
     /tmp/ccsOLUNE.s:913    .text:0000000000000618 .L0 
        src/main.cpp:148    .text:0000000000000618 .L0 
     /tmp/ccsOLUNE.s:920    .text:000000000000061c .L0 
     /tmp/ccsOLUNE.s:926    .text:0000000000000624 .L0 
     /tmp/ccsOLUNE.s:931    .text:0000000000000628 .L0 
     /tmp/ccsOLUNE.s:932    .text:0000000000000628 .L0 
     /tmp/ccsOLUNE.s:933    .text:0000000000000628 .L0 
     /tmp/ccsOLUNE.s:936    .text:0000000000000634 .L0 
     /tmp/ccsOLUNE.s:939    .text:000000000000063c .L0 
     /tmp/ccsOLUNE.s:940    .text:000000000000063c .L0 
     /tmp/ccsOLUNE.s:942    .text:0000000000000640 .L0 
     /tmp/ccsOLUNE.s:944    .text:0000000000000644 .L0 
     /tmp/ccsOLUNE.s:948    .text:000000000000064c .L0 
     /tmp/ccsOLUNE.s:957    .text:0000000000000654 .L0 
     /tmp/ccsOLUNE.s:958    .text:0000000000000654 .L0 
     /tmp/ccsOLUNE.s:963    .text:0000000000000664 .L0 
     /tmp/ccsOLUNE.s:964    .text:0000000000000664 .L0 
     /tmp/ccsOLUNE.s:968    .text:0000000000000674 .L0 
     /tmp/ccsOLUNE.s:969    .text:0000000000000674 .L0 
     /tmp/ccsOLUNE.s:973    .text:0000000000000684 .L0 
     /tmp/ccsOLUNE.s:974    .text:0000000000000684 .L0 
     /tmp/ccsOLUNE.s:978    .text:0000000000000690 .L0 
     /tmp/ccsOLUNE.s:979    .text:0000000000000690 .L0 
     /tmp/ccsOLUNE.s:983    .text:00000000000006a0 .L0 
     /tmp/ccsOLUNE.s:984    .text:00000000000006a0 .L0 
     /tmp/ccsOLUNE.s:987    .text:00000000000006a8 .L0 
     /tmp/ccsOLUNE.s:988    .text:00000000000006a8 .L0 
     /tmp/ccsOLUNE.s:998    .text:00000000000006b0 .L0 
     /tmp/ccsOLUNE.s:1003   .text:00000000000006b4 .L0 
     /tmp/ccsOLUNE.s:1004   .text:00000000000006b4 .L0 
     /tmp/ccsOLUNE.s:1008   .text:00000000000006c4 .L0 
     /tmp/ccsOLUNE.s:1012   .text:00000000000006cc .L0 
        src/main.cpp:170    .text:00000000000006cc .L0 
     /tmp/ccsOLUNE.s:1018   .text:00000000000006d0 .L0 
     /tmp/ccsOLUNE.s:1020   .text:00000000000006d0 .L0 
GAS LISTING /tmp/ccsOLUNE.s 			page 42


     /tmp/ccsOLUNE.s:1026   .text:00000000000006dc .L0 
     /tmp/ccsOLUNE.s:1027   .text:00000000000006dc .L0 
     /tmp/ccsOLUNE.s:1035   .text:00000000000006e0 .L0 
     /tmp/ccsOLUNE.s:1036   .text:00000000000006e0 .L0 
     /tmp/ccsOLUNE.s:1037   .text:00000000000006e0 .L0 
     /tmp/ccsOLUNE.s:1040   .text:00000000000006e8 .L0 
     /tmp/ccsOLUNE.s:1041   .text:00000000000006e8 .L0 
     /tmp/ccsOLUNE.s:1043   .text:00000000000006e8 .L0 
     /tmp/ccsOLUNE.s:1044   .text:00000000000006e8 .L0 
     /tmp/ccsOLUNE.s:1048   .text:00000000000006f8 .L0 
     /tmp/ccsOLUNE.s:1053   .text:0000000000000700 .L0 
     /tmp/ccsOLUNE.s:1055   .text:0000000000000700 .L0 
     /tmp/ccsOLUNE.s:1056   .text:0000000000000700 .L0 
     /tmp/ccsOLUNE.s:1058   .text:0000000000000708 .L0 
     /tmp/ccsOLUNE.s:1061   .text:000000000000070c .L0 
     /tmp/ccsOLUNE.s:1072   .text:0000000000000714 .L0 
     /tmp/ccsOLUNE.s:1073   .text:0000000000000714 .L0 
     /tmp/ccsOLUNE.s:1074   .text:0000000000000714 .L0 
     /tmp/ccsOLUNE.s:1075   .text:0000000000000714 .L0 
     /tmp/ccsOLUNE.s:1079   .text:0000000000000724 .L0 
     /tmp/ccsOLUNE.s:1080   .text:0000000000000724 .L0 
     /tmp/ccsOLUNE.s:1084   .text:0000000000000734 .L0 
     /tmp/ccsOLUNE.s:1085   .text:0000000000000734 .L0 
     /tmp/ccsOLUNE.s:1089   .text:0000000000000744 .L0 
     /tmp/ccsOLUNE.s:1090   .text:0000000000000744 .L0 
     /tmp/ccsOLUNE.s:1094   .text:0000000000000750 .L0 
     /tmp/ccsOLUNE.s:1095   .text:0000000000000750 .L0 
     /tmp/ccsOLUNE.s:1099   .text:0000000000000760 .L0 
     /tmp/ccsOLUNE.s:1100   .text:0000000000000760 .L0 
     /tmp/ccsOLUNE.s:1103   .text:0000000000000768 .L0 
     /tmp/ccsOLUNE.s:1104   .text:0000000000000768 .L0 
     /tmp/ccsOLUNE.s:1114   .text:0000000000000770 .L0 
     /tmp/ccsOLUNE.s:1115   .text:0000000000000770 .L0 
     /tmp/ccsOLUNE.s:1119   .text:0000000000000780 .L0 
     /tmp/ccsOLUNE.s:1120   .text:0000000000000780 .L0 
     /tmp/ccsOLUNE.s:1124   .text:0000000000000790 .L0 
     /tmp/ccsOLUNE.s:1125   .text:0000000000000790 .L0 
     /tmp/ccsOLUNE.s:1129   .text:00000000000007a0 .L0 
     /tmp/ccsOLUNE.s:1130   .text:00000000000007a0 .L0 
     /tmp/ccsOLUNE.s:1134   .text:00000000000007ac .L0 
     /tmp/ccsOLUNE.s:1135   .text:00000000000007ac .L0 
     /tmp/ccsOLUNE.s:1139   .text:00000000000007bc .L0 
     /tmp/ccsOLUNE.s:1140   .text:00000000000007bc .L0 
     /tmp/ccsOLUNE.s:1143   .text:00000000000007c4 .L0 
     /tmp/ccsOLUNE.s:1144   .text:00000000000007c4 .L0 
     /tmp/ccsOLUNE.s:1149   .text:00000000000007cc .L0 
     /tmp/ccsOLUNE.s:1154   .text:00000000000007cc _GLOBAL__sub_I_kernelThread
     /tmp/ccsOLUNE.s:1157   .text:00000000000007cc .L0 
     /tmp/ccsOLUNE.s:1158   .text:00000000000007cc .L0 
     /tmp/ccsOLUNE.s:1159   .text:00000000000007d0 .L0 
     /tmp/ccsOLUNE.s:1162   .text:00000000000007d8 .L0 
     /tmp/ccsOLUNE.s:1163   .text:00000000000007d8 .L0 
     /tmp/ccsOLUNE.s:1165   .text:00000000000007dc .L0 
     /tmp/ccsOLUNE.s:1167   .text:00000000000007dc .L0 
     /tmp/ccsOLUNE.s:1173   .text:00000000000007f4 .L0 
     /tmp/ccsOLUNE.s:1175   .text:00000000000007f8 .L0 
     /tmp/ccsOLUNE.s:1176   .text:00000000000007f8 .L0 
GAS LISTING /tmp/ccsOLUNE.s 			page 43


     /tmp/ccsOLUNE.s:1178   .text:00000000000007fc .L0 
     /tmp/ccsOLUNE.s:1180   .text:0000000000000800 .L0 
     /tmp/ccsOLUNE.s:1220   .bss:0000000000000000 kernelThread
     /tmp/ccsOLUNE.s:1217   .bss:0000000000000000 .LANCHOR0
     /tmp/ccsOLUNE.s:1228   .text:0000000000000800 .L0 
     /tmp/ccsOLUNE.s:490    .text._Z7_assertbPKci:0000000000000080 .L0 
     /tmp/ccsOLUNE.s:43     .text:000000000000002c .L0 
     /tmp/ccsOLUNE.s:57     .rodata.str1.8:0000000000000000 .LC0
     /tmp/ccsOLUNE.s:152    .text:000000000000009c .L0 
     /tmp/ccsOLUNE.s:60     .rodata.str1.8:0000000000000028 .LC1
     /tmp/ccsOLUNE.s:158    .text:00000000000000ac .L0 
     /tmp/ccsOLUNE.s:63     .rodata.str1.8:0000000000000038 .LC2
     /tmp/ccsOLUNE.s:163    .text:00000000000000bc .L0 
     /tmp/ccsOLUNE.s:66     .rodata.str1.8:0000000000000048 .LC3
     /tmp/ccsOLUNE.s:173    .text:00000000000000d8 .L0 
     /tmp/ccsOLUNE.s:191    .text:00000000000000f8 .L0 
     /tmp/ccsOLUNE.s:196    .text:0000000000000108 .L0 
     /tmp/ccsOLUNE.s:201    .text:0000000000000118 .L0 
     /tmp/ccsOLUNE.s:211    .text:0000000000000134 .L0 
     /tmp/ccsOLUNE.s:272    .text:0000000000000184 .L0 
     /tmp/ccsOLUNE.s:239    .rodata.str1.8:0000000000000068 .LC4
     /tmp/ccsOLUNE.s:289    .text:000000000000019c .L0 
     /tmp/ccsOLUNE.s:302    .text:00000000000001b4 .L0 
     /tmp/ccsOLUNE.s:309    .text:00000000000001c0 .L0 
     /tmp/ccsOLUNE.s:319    .text:00000000000001d8 .L0 
     /tmp/ccsOLUNE.s:325    .text:00000000000001e0 .L0 
     /tmp/ccsOLUNE.s:349    .text:0000000000000208 .L0 
     /tmp/ccsOLUNE.s:355    .text:0000000000000218 .L0 
     /tmp/ccsOLUNE.s:360    .text:0000000000000228 .L0 
     /tmp/ccsOLUNE.s:370    .text:0000000000000244 .L0 
     /tmp/ccsOLUNE.s:388    .text:0000000000000264 .L0 
     /tmp/ccsOLUNE.s:394    .text:0000000000000274 .L0 
     /tmp/ccsOLUNE.s:399    .text:0000000000000284 .L0 
     /tmp/ccsOLUNE.s:409    .text:00000000000002a0 .L0 
     /tmp/ccsOLUNE.s:503    .text:00000000000002c0 .L0 
     /tmp/ccsOLUNE.s:505    .text:00000000000002cc .L0 
     /tmp/ccsOLUNE.s:533    .text:0000000000000300 .L0 
     /tmp/ccsOLUNE.s:538    .text:0000000000000310 .L0 
     /tmp/ccsOLUNE.s:543    .text:0000000000000320 .L0 
     /tmp/ccsOLUNE.s:553    .text:000000000000033c .L0 
     /tmp/ccsOLUNE.s:584    .text:0000000000000368 .L0 
     /tmp/ccsOLUNE.s:652    .text:00000000000003bc .L0 
     /tmp/ccsOLUNE.s:663    .text:00000000000003e0 .L0 
     /tmp/ccsOLUNE.s:667    .text:00000000000003f4 .L0 
     /tmp/ccsOLUNE.s:676    .text:000000000000040c .L0 
     /tmp/ccsOLUNE.s:682    .text:000000000000041c .L0 
     /tmp/ccsOLUNE.s:694    .text:000000000000044c .L0 
     /tmp/ccsOLUNE.s:704    .text:0000000000000460 .L0 
     /tmp/ccsOLUNE.s:711    .text:000000000000046c .L0 
     /tmp/ccsOLUNE.s:720    .text:0000000000000480 .L0 
     /tmp/ccsOLUNE.s:732    .text:0000000000000494 .L0 
     /tmp/ccsOLUNE.s:739    .text:00000000000004b0 .L0 
     /tmp/ccsOLUNE.s:745    .text:00000000000004cc .L0 
     /tmp/ccsOLUNE.s:756    .text:00000000000004f0 .L0 
     /tmp/ccsOLUNE.s:763    .text:00000000000004fc .L0 
     /tmp/ccsOLUNE.s:770    .text:0000000000000508 .L0 
     /tmp/ccsOLUNE.s:779    .text:000000000000051c .L0 
GAS LISTING /tmp/ccsOLUNE.s 			page 44


     /tmp/ccsOLUNE.s:785    .text:0000000000000524 .L0 
     /tmp/ccsOLUNE.s:791    .text:0000000000000538 .L0 
     /tmp/ccsOLUNE.s:851    .text:0000000000000590 .L0 
     /tmp/ccsOLUNE.s:858    .text:00000000000005a8 .L0 
     /tmp/ccsOLUNE.s:867    .text:00000000000005bc .L0 
     /tmp/ccsOLUNE.s:874    .text:00000000000005c8 .L0 
     /tmp/ccsOLUNE.s:884    .text:00000000000005e0 .L0 
     /tmp/ccsOLUNE.s:901    .text:00000000000005f4 .L0 
     /tmp/ccsOLUNE.s:908    .text:0000000000000608 .L0 
     /tmp/ccsOLUNE.s:933    .text:0000000000000628 .L0 
     /tmp/ccsOLUNE.s:958    .text:0000000000000654 .L0 
     /tmp/ccsOLUNE.s:964    .text:0000000000000664 .L0 
     /tmp/ccsOLUNE.s:969    .text:0000000000000674 .L0 
     /tmp/ccsOLUNE.s:979    .text:0000000000000690 .L0 
     /tmp/ccsOLUNE.s:1004   .text:00000000000006b4 .L0 
     /tmp/ccsOLUNE.s:1044   .text:00000000000006e8 .L0 
     /tmp/ccsOLUNE.s:1056   .text:0000000000000700 .L0 
     /tmp/ccsOLUNE.s:1075   .text:0000000000000714 .L0 
     /tmp/ccsOLUNE.s:1080   .text:0000000000000724 .L0 
     /tmp/ccsOLUNE.s:1085   .text:0000000000000734 .L0 
     /tmp/ccsOLUNE.s:1095   .text:0000000000000750 .L0 
     /tmp/ccsOLUNE.s:1115   .text:0000000000000770 .L0 
     /tmp/ccsOLUNE.s:1120   .text:0000000000000780 .L0 
     /tmp/ccsOLUNE.s:1125   .text:0000000000000790 .L0 
     /tmp/ccsOLUNE.s:1135   .text:00000000000007ac .L0 
     /tmp/ccsOLUNE.s:31     .text:0000000000000020 .L4
     /tmp/ccsOLUNE.s:23     .text:0000000000000014 .L1
     /tmp/ccsOLUNE.s:147    .text:000000000000009c .L12
     /tmp/ccsOLUNE.s:222    .text:0000000000000154 .L5
     /tmp/ccsOLUNE.s:184    .text:00000000000000f8 .L13
     /tmp/ccsOLUNE.s:104    .text:0000000000000058 .L9
     /tmp/ccsOLUNE.s:343    .text:0000000000000208 .L19
     /tmp/ccsOLUNE.s:381    .text:0000000000000264 .L20
     /tmp/ccsOLUNE.s:320    .text:00000000000001e0 .L17
     /tmp/ccsOLUNE.s:517    .text:00000000000002f0 .L33
     /tmp/ccsOLUNE.s:721    .text:0000000000000488 .L37
     /tmp/ccsOLUNE.s:780    .text:0000000000000524 .L38
     /tmp/ccsOLUNE.s:1029   .text:00000000000006e0 .L45
     /tmp/ccsOLUNE.s:952    .text:0000000000000654 .L49
     /tmp/ccsOLUNE.s:1000   .text:00000000000006b4 .L42
     /tmp/ccsOLUNE.s:1064   .text:0000000000000714 .L50
     /tmp/ccsOLUNE.s:1106   .text:0000000000000770 .L51
     /tmp/ccsOLUNE.s:990    .text:00000000000006b0 .L46
     /tmp/ccsOLUNE.s:887    .text:00000000000005ec .L52
     /tmp/ccsOLUNE.s:455    .text._Z7_assertbPKci:0000000000000028 .L0 
     /tmp/ccsOLUNE.s:466    .text._Z7_assertbPKci:0000000000000044 .L0 
     /tmp/ccsOLUNE.s:476    .text._Z7_assertbPKci:0000000000000060 .L0 
     /tmp/ccsOLUNE.s:437    .text._Z7_assertbPKci:0000000000000008 .L27
     /tmp/ccsOLUNE.s:3676   .debug_abbrev:0000000000000000 .Ldebug_abbrev0
     /tmp/ccsOLUNE.s:5854   .debug_str:000000000000093a .LASF171
     /tmp/ccsOLUNE.s:5704   .debug_str:00000000000004e1 .LASF172
     /tmp/ccsOLUNE.s:5800   .debug_str:0000000000000799 .LASF173
     /tmp/ccsOLUNE.s:5488   .debug_ranges:0000000000000000 .Ldebug_ranges0
     /tmp/ccsOLUNE.s:5550   .debug_line:0000000000000000 .Ldebug_line0
     /tmp/ccsOLUNE.s:5748   .debug_str:0000000000000614 .LASF0
     /tmp/ccsOLUNE.s:5772   .debug_str:00000000000006c1 .LASF1
     /tmp/ccsOLUNE.s:5728   .debug_str:0000000000000591 .LASF2
GAS LISTING /tmp/ccsOLUNE.s 			page 45


     /tmp/ccsOLUNE.s:5690   .debug_str:0000000000000488 .LASF4
     /tmp/ccsOLUNE.s:5828   .debug_str:000000000000088d .LASF3
     /tmp/ccsOLUNE.s:5586   .debug_str:000000000000011b .LASF5
     /tmp/ccsOLUNE.s:5628   .debug_str:0000000000000295 .LASF6
     /tmp/ccsOLUNE.s:5778   .debug_str:0000000000000707 .LASF7
     /tmp/ccsOLUNE.s:5746   .debug_str:0000000000000601 .LASF8
     /tmp/ccsOLUNE.s:5870   .debug_str:0000000000000a6b .LASF9
     /tmp/ccsOLUNE.s:5670   .debug_str:00000000000003fe .LASF10
     /tmp/ccsOLUNE.s:5796   .debug_str:0000000000000781 .LASF11
     /tmp/ccsOLUNE.s:5860   .debug_str:0000000000000a17 .LASF12
     /tmp/ccsOLUNE.s:5590   .debug_str:0000000000000133 .LASF13
     /tmp/ccsOLUNE.s:5562   .debug_str:0000000000000065 .LASF14
     /tmp/ccsOLUNE.s:5602   .debug_str:0000000000000198 .LASF15
     /tmp/ccsOLUNE.s:5818   .debug_str:000000000000082b .LASF16
     /tmp/ccsOLUNE.s:5618   .debug_str:000000000000021a .LASF17
     /tmp/ccsOLUNE.s:5730   .debug_str:000000000000059f .LASF34
     /tmp/ccsOLUNE.s:5668   .debug_str:00000000000003eb .LASF84
     /tmp/ccsOLUNE.s:5840   .debug_str:00000000000008e5 .LASF21
     /tmp/ccsOLUNE.s:5674   .debug_str:000000000000041b .LASF18
     /tmp/ccsOLUNE.s:5846   .debug_str:0000000000000918 .LASF19
     /tmp/ccsOLUNE.s:5890   .debug_str:0000000000000af7 .LASF20
     /tmp/ccsOLUNE.s:5558   .debug_str:0000000000000027 .LASF23
     /tmp/ccsOLUNE.s:5744   .debug_str:00000000000005f7 .LASF25
     /tmp/ccsOLUNE.s:5686   .debug_str:0000000000000472 .LASF22
     /tmp/ccsOLUNE.s:5720   .debug_str:000000000000054b .LASF24
     /tmp/ccsOLUNE.s:5652   .debug_str:0000000000000360 .LASF26
     /tmp/ccsOLUNE.s:5886   .debug_str:0000000000000adf .LASF27
     /tmp/ccsOLUNE.s:5596   .debug_str:0000000000000163 .LASF29
     /tmp/ccsOLUNE.s:5784   .debug_str:0000000000000745 .LASF28
     /tmp/ccsOLUNE.s:5680   .debug_str:0000000000000437 .LASF30
     /tmp/ccsOLUNE.s:5866   .debug_str:0000000000000a50 .LASF31
     /tmp/ccsOLUNE.s:5560   .debug_str:0000000000000044 .LASF32
     /tmp/ccsOLUNE.s:5894   .debug_str:0000000000000b10 .LASF53
     /tmp/ccsOLUNE.s:5896   .debug_str:0000000000000b23 .LASF55
     /tmp/ccsOLUNE.s:5708   .debug_str:000000000000050a .LASF33
     /tmp/ccsOLUNE.s:5770   .debug_str:00000000000006b0 .LASF35
     /tmp/ccsOLUNE.s:5780   .debug_str:000000000000071a .LASF36
     /tmp/ccsOLUNE.s:5552   .debug_str:0000000000000000 .LASF37
     /tmp/ccsOLUNE.s:5606   .debug_str:00000000000001c4 .LASF38
     /tmp/ccsOLUNE.s:5678   .debug_str:0000000000000431 .LASF174
     /tmp/ccsOLUNE.s:5786   .debug_str:000000000000074d .LASF39
     /tmp/ccsOLUNE.s:5740   .debug_str:00000000000005d4 .LASF40
     /tmp/ccsOLUNE.s:5794   .debug_str:000000000000077b .LASF41
     /tmp/ccsOLUNE.s:5738   .debug_str:00000000000005c7 .LASF42
     /tmp/ccsOLUNE.s:5712   .debug_str:0000000000000527 .LASF43
     /tmp/ccsOLUNE.s:5644   .debug_str:000000000000031a .LASF44
     /tmp/ccsOLUNE.s:5900   .debug_str:0000000000000b64 .LASF45
     /tmp/ccsOLUNE.s:5830   .debug_str:000000000000089f .LASF46
     /tmp/ccsOLUNE.s:5766   .debug_str:0000000000000696 .LASF47
     /tmp/ccsOLUNE.s:5850   .debug_str:0000000000000923 .LASF48
     /tmp/ccsOLUNE.s:5688   .debug_str:000000000000047c .LASF49
     /tmp/ccsOLUNE.s:5682   .debug_str:000000000000044f .LASF50
     /tmp/ccsOLUNE.s:5554   .debug_str:0000000000000009 .LASF51
     /tmp/ccsOLUNE.s:5852   .debug_str:000000000000092e .LASF52
     /tmp/ccsOLUNE.s:5758   .debug_str:0000000000000650 .LASF58
     /tmp/ccsOLUNE.s:5792   .debug_str:000000000000076f .LASF60
     /tmp/ccsOLUNE.s:5658   .debug_str:000000000000038c .LASF62
GAS LISTING /tmp/ccsOLUNE.s 			page 46


     /tmp/ccsOLUNE.s:5700   .debug_str:00000000000004c5 .LASF54
     /tmp/ccsOLUNE.s:5782   .debug_str:000000000000071f .LASF56
     /tmp/ccsOLUNE.s:5810   .debug_str:00000000000007e4 .LASF175
     /tmp/ccsOLUNE.s:5714   .debug_str:0000000000000533 .LASF57
     /tmp/ccsOLUNE.s:5574   .debug_str:00000000000000c1 .LASF59
     /tmp/ccsOLUNE.s:5908   .debug_str:0000000000000b90 .LASF88
     /tmp/ccsOLUNE.s:5764   .debug_str:000000000000067a .LASF90
     /tmp/ccsOLUNE.s:5832   .debug_str:00000000000008b0 .LASF61
     /tmp/ccsOLUNE.s:5568   .debug_str:000000000000008e .LASF63
     /tmp/ccsOLUNE.s:5578   .debug_str:00000000000000f1 .LASF64
     /tmp/ccsOLUNE.s:5694   .debug_str:000000000000049a .LASF65
     /tmp/ccsOLUNE.s:5760   .debug_str:000000000000066b .LASF66
     /tmp/ccsOLUNE.s:5904   .debug_str:0000000000000b7f .LASF67
     /tmp/ccsOLUNE.s:5762   .debug_str:0000000000000670 .LASF68
     /tmp/ccsOLUNE.s:5880   .debug_str:0000000000000aaa .LASF69
     /tmp/ccsOLUNE.s:5734   .debug_str:00000000000005ae .LASF70
     /tmp/ccsOLUNE.s:5660   .debug_str:00000000000003a9 .LASF71
     /tmp/ccsOLUNE.s:5754   .debug_str:000000000000062f .LASF72
     /tmp/ccsOLUNE.s:5788   .debug_str:0000000000000755 .LASF73
     /tmp/ccsOLUNE.s:5906   .debug_str:0000000000000b8b .LASF74
     /tmp/ccsOLUNE.s:5884   .debug_str:0000000000000ac1 .LASF75
     /tmp/ccsOLUNE.s:5564   .debug_str:0000000000000075 .LASF76
     /tmp/ccsOLUNE.s:5820   .debug_str:0000000000000841 .LASF77
     /tmp/ccsOLUNE.s:5642   .debug_str:000000000000030f .LASF78
     /tmp/ccsOLUNE.s:5634   .debug_str:00000000000002be .LASF79
     /tmp/ccsOLUNE.s:5592   .debug_str:0000000000000143 .LASF80
     /tmp/ccsOLUNE.s:5798   .debug_str:0000000000000790 .LASF81
     /tmp/ccsOLUNE.s:5654   .debug_str:000000000000036b .LASF82
     /tmp/ccsOLUNE.s:5790   .debug_str:0000000000000765 .LASF83
     /tmp/ccsOLUNE.s:5684   .debug_str:000000000000045e .LASF85
     /tmp/ccsOLUNE.s:5848   .debug_str:000000000000091d .LASF86
     /tmp/ccsOLUNE.s:5626   .debug_str:000000000000027f .LASF87
     /tmp/ccsOLUNE.s:5802   .debug_str:00000000000007ad .LASF89
     /tmp/ccsOLUNE.s:5604   .debug_str:00000000000001a4 .LASF91
     /tmp/ccsOLUNE.s:5736   .debug_str:00000000000005b3 .LASF92
     /tmp/ccsOLUNE.s:5620   .debug_str:0000000000000230 .LASF93
     /tmp/ccsOLUNE.s:5698   .debug_str:00000000000004bd .LASF94
     /tmp/ccsOLUNE.s:5600   .debug_str:0000000000000180 .LASF95
     /tmp/ccsOLUNE.s:5656   .debug_str:0000000000000370 .LASF176
     /tmp/ccsOLUNE.s:5582   .debug_str:0000000000000104 .LASF96
     /tmp/ccsOLUNE.s:5842   .debug_str:00000000000008ee .LASF97
     /tmp/ccsOLUNE.s:5804   .debug_str:00000000000007bc .LASF98
     /tmp/ccsOLUNE.s:5722   .debug_str:0000000000000569 .LASF99
     /tmp/ccsOLUNE.s:5750   .debug_str:0000000000000621 .LASF100
     /tmp/ccsOLUNE.s:5816   .debug_str:0000000000000818 .LASF101
     /tmp/ccsOLUNE.s:5702   .debug_str:00000000000004d2 .LASF102
     /tmp/ccsOLUNE.s:5774   .debug_str:00000000000006d4 .LASF103
     /tmp/ccsOLUNE.s:5640   .debug_str:0000000000000301 .LASF104
     /tmp/ccsOLUNE.s:5838   .debug_str:00000000000008d7 .LASF105
     /tmp/ccsOLUNE.s:5876   .debug_str:0000000000000a95 .LASF106
     /tmp/ccsOLUNE.s:5672   .debug_str:000000000000040c .LASF107
     /tmp/ccsOLUNE.s:5664   .debug_str:00000000000003d1 .LASF108
     /tmp/ccsOLUNE.s:5616   .debug_str:000000000000020b .LASF109
     /tmp/ccsOLUNE.s:5566   .debug_str:0000000000000080 .LASF110
     /tmp/ccsOLUNE.s:5856   .debug_str:00000000000009fe .LASF111
     /tmp/ccsOLUNE.s:5594   .debug_str:000000000000015e .LASF112
     /tmp/ccsOLUNE.s:5892   .debug_str:0000000000000afc .LASF113
GAS LISTING /tmp/ccsOLUNE.s 			page 47


     /tmp/ccsOLUNE.s:5726   .debug_str:000000000000058c .LASF114
     /tmp/ccsOLUNE.s:5776   .debug_str:00000000000006f3 .LASF115
     /tmp/ccsOLUNE.s:5888   .debug_str:0000000000000ae8 .LASF116
     /tmp/ccsOLUNE.s:5610   .debug_str:00000000000001dc .LASF117
     /tmp/ccsOLUNE.s:5826   .debug_str:000000000000087c .LASF118
     /tmp/ccsOLUNE.s:5648   .debug_str:0000000000000345 .LASF119
     /tmp/ccsOLUNE.s:5706   .debug_str:00000000000004ee .LASF120
     /tmp/ccsOLUNE.s:1155   .text:00000000000007cc .LFB25
     /tmp/ccsOLUNE.s:1181   .text:0000000000000800 .LFE25
     /tmp/ccsOLUNE.s:1171   .text:00000000000007f0 .LVL137
     /tmp/ccsOLUNE.s:5814   .debug_str:00000000000007ee .LASF121
     /tmp/ccsOLUNE.s:9      .text:0000000000000000 .LFB24
     /tmp/ccsOLUNE.s:53     .text:0000000000000040 .LFE24
     /tmp/ccsOLUNE.s:5710   .debug_str:0000000000000518 .LASF122
     /tmp/ccsOLUNE.s:5692   .debug_str:000000000000048f .LASF123
     /tmp/ccsOLUNE.s:38     .text:000000000000002c .LBB54
     /tmp/ccsOLUNE.s:49     .text:000000000000003c .LBE54
     /tmp/ccsOLUNE.s:4897   .debug_loc:0000000000000000 .LLST0
     /tmp/ccsOLUNE.s:5580   .debug_str:00000000000000f7 .LASF124
     /tmp/ccsOLUNE.s:5874   .debug_str:0000000000000a82 .LASF125
     /tmp/ccsOLUNE.s:834    .text:0000000000000574 .LFB23
     /tmp/ccsOLUNE.s:1150   .text:00000000000007cc .LFE23
     /tmp/ccsOLUNE.s:4906   .debug_loc:000000000000002c .LLST24
     /tmp/ccsOLUNE.s:5752   .debug_str:000000000000062a .LASF129
     /tmp/ccsOLUNE.s:5632   .debug_str:00000000000002b3 .LASF126
     /tmp/ccsOLUNE.s:4924   .debug_loc:0000000000000078 .LLST26
     /tmp/ccsOLUNE.s:5882   .debug_str:0000000000000ab7 .LASF127
     /tmp/ccsOLUNE.s:4955   .debug_loc:00000000000000fe .LLST27
     /tmp/ccsOLUNE.s:4968   .debug_loc:0000000000000136 .LLST28
     /tmp/ccsOLUNE.s:5872   .debug_str:0000000000000a7b .LASF128
     /tmp/ccsOLUNE.s:4975   .debug_loc:0000000000000159 .LLST29
     /tmp/ccsOLUNE.s:923    .text:0000000000000624 .LBB137
     /tmp/ccsOLUNE.s:4986   .debug_loc:000000000000018f .LLST30
     /tmp/ccsOLUNE.s:5001   .debug_loc:00000000000001c9 .LLST31
     /tmp/ccsOLUNE.s:5016   .debug_loc:0000000000000211 .LLST32
     /tmp/ccsOLUNE.s:961    .text:0000000000000664 .LVL110
     /tmp/ccsOLUNE.s:966    .text:0000000000000674 .LVL111
     /tmp/ccsOLUNE.s:971    .text:0000000000000684 .LVL112
     /tmp/ccsOLUNE.s:976    .text:0000000000000690 .LVL113
     /tmp/ccsOLUNE.s:981    .text:00000000000006a0 .LVL114
     /tmp/ccsOLUNE.s:985    .text:00000000000006a8 .LVL115
     /tmp/ccsOLUNE.s:989    .text:00000000000006b0 .LVL116
     /tmp/ccsOLUNE.s:898    .text:00000000000005f4 .LVL103
     /tmp/ccsOLUNE.s:1068   .text:0000000000000714 .LBB145
     /tmp/ccsOLUNE.s:1109   .text:0000000000000770 .LBE145
     /tmp/ccsOLUNE.s:1070   .text:0000000000000714 .LBB146
     /tmp/ccsOLUNE.s:1108   .text:0000000000000770 .LBE146
     /tmp/ccsOLUNE.s:5035   .debug_loc:000000000000024f .LLST33
     /tmp/ccsOLUNE.s:5044   .debug_loc:0000000000000274 .LLST34
     /tmp/ccsOLUNE.s:5053   .debug_loc:00000000000002a0 .LLST35
     /tmp/ccsOLUNE.s:1077   .text:0000000000000724 .LVL123
     /tmp/ccsOLUNE.s:1082   .text:0000000000000734 .LVL124
     /tmp/ccsOLUNE.s:1087   .text:0000000000000744 .LVL125
     /tmp/ccsOLUNE.s:1092   .text:0000000000000750 .LVL126
     /tmp/ccsOLUNE.s:1097   .text:0000000000000760 .LVL127
     /tmp/ccsOLUNE.s:1101   .text:0000000000000768 .LVL128
     /tmp/ccsOLUNE.s:1105   .text:0000000000000770 .LVL129
GAS LISTING /tmp/ccsOLUNE.s 			page 48


     /tmp/ccsOLUNE.s:1024   .text:00000000000006dc .LBB148
     /tmp/ccsOLUNE.s:5061   .debug_loc:00000000000002c4 .LLST36
     /tmp/ccsOLUNE.s:5076   .debug_loc:00000000000002fe .LLST37
     /tmp/ccsOLUNE.s:5091   .debug_loc:0000000000000346 .LLST38
     /tmp/ccsOLUNE.s:1117   .text:0000000000000780 .LVL130
     /tmp/ccsOLUNE.s:1122   .text:0000000000000790 .LVL131
     /tmp/ccsOLUNE.s:1127   .text:00000000000007a0 .LVL132
     /tmp/ccsOLUNE.s:1132   .text:00000000000007ac .LVL133
     /tmp/ccsOLUNE.s:1137   .text:00000000000007bc .LVL134
     /tmp/ccsOLUNE.s:1141   .text:00000000000007c4 .LVL135
     /tmp/ccsOLUNE.s:1145   .text:00000000000007cc .LVL136
     /tmp/ccsOLUNE.s:1022   .text:00000000000006dc .LVL118
     /tmp/ccsOLUNE.s:1038   .text:00000000000006e8 .LVL120
     /tmp/ccsOLUNE.s:863    .text:00000000000005bc .LBB127
     /tmp/ccsOLUNE.s:889    .text:00000000000005ec .LBE127
     /tmp/ccsOLUNE.s:870    .text:00000000000005c8 .LBB129
     /tmp/ccsOLUNE.s:881    .text:00000000000005dc .LBE129
     /tmp/ccsOLUNE.s:5102   .debug_loc:000000000000037c .LLST25
     /tmp/ccsOLUNE.s:855    .text:00000000000005a4 .LVL98
     /tmp/ccsOLUNE.s:861    .text:00000000000005bc .LVL99
     /tmp/ccsOLUNE.s:5864   .debug_str:0000000000000a3c .LASF177
     /tmp/ccsOLUNE.s:5742   .debug_str:00000000000005de .LASF178
     /tmp/ccsOLUNE.s:573    .text:000000000000035c .LFB22
     /tmp/ccsOLUNE.s:608    .text:0000000000000388 .LFE22
     /tmp/ccsOLUNE.s:5588   .debug_str:0000000000000122 .LASF130
     /tmp/ccsOLUNE.s:5862   .debug_str:0000000000000a26 .LASF131
     /tmp/ccsOLUNE.s:495    .text:00000000000002c0 .LFB21
     /tmp/ccsOLUNE.s:567    .text:000000000000035c .LFE21
     /tmp/ccsOLUNE.s:512    .text:00000000000002e8 .LBB93
     /tmp/ccsOLUNE.s:5111   .debug_loc:00000000000003a8 .LLST19
     /tmp/ccsOLUNE.s:535    .text:0000000000000310 .LVL69
     /tmp/ccsOLUNE.s:540    .text:0000000000000320 .LVL70
     /tmp/ccsOLUNE.s:545    .text:0000000000000330 .LVL71
     /tmp/ccsOLUNE.s:550    .text:000000000000033c .LVL72
     /tmp/ccsOLUNE.s:555    .text:000000000000034c .LVL73
     /tmp/ccsOLUNE.s:559    .text:0000000000000354 .LVL74
     /tmp/ccsOLUNE.s:563    .text:000000000000035c .LVL75
     /tmp/ccsOLUNE.s:5822   .debug_str:000000000000085b .LASF132
     /tmp/ccsOLUNE.s:5630   .debug_str:000000000000029c .LASF133
     /tmp/ccsOLUNE.s:73     .text:0000000000000040 .LFB20
     /tmp/ccsOLUNE.s:235    .text:0000000000000164 .LFE20
     /tmp/ccsOLUNE.s:5127   .debug_loc:00000000000003e6 .LLST1
     /tmp/ccsOLUNE.s:87     .text:0000000000000050 .LBB61
     /tmp/ccsOLUNE.s:5152   .debug_loc:0000000000000448 .LLST2
     /tmp/ccsOLUNE.s:5167   .debug_loc:0000000000000482 .LLST3
     /tmp/ccsOLUNE.s:5182   .debug_loc:00000000000004ca .LLST4
     /tmp/ccsOLUNE.s:155    .text:00000000000000ac .LVL14
     /tmp/ccsOLUNE.s:160    .text:00000000000000bc .LVL15
     /tmp/ccsOLUNE.s:165    .text:00000000000000cc .LVL16
     /tmp/ccsOLUNE.s:170    .text:00000000000000d8 .LVL17
     /tmp/ccsOLUNE.s:175    .text:00000000000000e8 .LVL18
     /tmp/ccsOLUNE.s:179    .text:00000000000000f0 .LVL19
     /tmp/ccsOLUNE.s:183    .text:00000000000000f8 .LVL20
     /tmp/ccsOLUNE.s:118    .text:0000000000000078 .LBB64
     /tmp/ccsOLUNE.s:5210   .debug_loc:0000000000000520 .LLST5
     /tmp/ccsOLUNE.s:5225   .debug_loc:000000000000055a .LLST6
     /tmp/ccsOLUNE.s:5240   .debug_loc:00000000000005a2 .LLST7
GAS LISTING /tmp/ccsOLUNE.s 			page 49


     /tmp/ccsOLUNE.s:193    .text:0000000000000108 .LVL21
     /tmp/ccsOLUNE.s:198    .text:0000000000000118 .LVL22
     /tmp/ccsOLUNE.s:203    .text:0000000000000128 .LVL23
     /tmp/ccsOLUNE.s:208    .text:0000000000000134 .LVL24
     /tmp/ccsOLUNE.s:213    .text:0000000000000144 .LVL25
     /tmp/ccsOLUNE.s:217    .text:000000000000014c .LVL26
     /tmp/ccsOLUNE.s:221    .text:0000000000000154 .LVL27
     /tmp/ccsOLUNE.s:114    .text:0000000000000070 .LVL7
     /tmp/ccsOLUNE.s:129    .text:0000000000000084 .LVL10
     /tmp/ccsOLUNE.s:144    .text:0000000000000098 .LVL11
     /tmp/ccsOLUNE.s:5598   .debug_str:000000000000017b .LASF134
     /tmp/ccsOLUNE.s:614    .text:0000000000000388 .LFB19
     /tmp/ccsOLUNE.s:828    .text:0000000000000574 .LFE19
     /tmp/ccsOLUNE.s:5259   .debug_loc:00000000000005e0 .LLST20
     /tmp/ccsOLUNE.s:5638   .debug_str:00000000000002f2 .LASF135
     /tmp/ccsOLUNE.s:5716   .debug_str:0000000000000538 .LASF136
     /tmp/ccsOLUNE.s:5266   .debug_loc:0000000000000603 .LLST21
     /tmp/ccsOLUNE.s:699    .text:0000000000000460 .LBB97
     /tmp/ccsOLUNE.s:724    .text:0000000000000488 .LBE97
     /tmp/ccsOLUNE.s:707    .text:000000000000046c .LBB99
     /tmp/ccsOLUNE.s:717    .text:000000000000047c .LBE99
     /tmp/ccsOLUNE.s:5273   .debug_loc:0000000000000626 .LLST22
     /tmp/ccsOLUNE.s:759    .text:00000000000004fc .LBB102
     /tmp/ccsOLUNE.s:783    .text:0000000000000524 .LBE102
     /tmp/ccsOLUNE.s:766    .text:0000000000000508 .LBB104
     /tmp/ccsOLUNE.s:776    .text:0000000000000518 .LBE104
     /tmp/ccsOLUNE.s:5282   .debug_loc:0000000000000652 .LLST23
     /tmp/ccsOLUNE.s:632    .text:00000000000003a8 .LVL76
     /tmp/ccsOLUNE.s:636    .text:00000000000003b0 .LVL77
     /tmp/ccsOLUNE.s:640    .text:00000000000003b8 .LVL78
     /tmp/ccsOLUNE.s:658    .text:00000000000003d4 .LVL80
     /tmp/ccsOLUNE.s:661    .text:00000000000003dc .LVL81
     /tmp/ccsOLUNE.s:670    .text:0000000000000408 .LVL82
     /tmp/ccsOLUNE.s:685    .text:0000000000000430 .LVL83
     /tmp/ccsOLUNE.s:697    .text:0000000000000460 .LVL84
     /tmp/ccsOLUNE.s:727    .text:0000000000000490 .LVL87
     /tmp/ccsOLUNE.s:735    .text:00000000000004a8 .LVL88
     /tmp/ccsOLUNE.s:748    .text:00000000000004e0 .LVL89
     /tmp/ccsOLUNE.s:752    .text:00000000000004e8 .LVL90
     /tmp/ccsOLUNE.s:754    .text:00000000000004f0 .LVL91
     /tmp/ccsOLUNE.s:794    .text:000000000000054c .LVL95
     /tmp/ccsOLUNE.s:5584   .debug_str:000000000000010f .LASF137
     /tmp/ccsOLUNE.s:5834   .debug_str:00000000000008b5 .LASF138
     /tmp/ccsOLUNE.s:246    .text:0000000000000164 .LFB18
     /tmp/ccsOLUNE.s:423    .text:00000000000002c0 .LFE18
     /tmp/ccsOLUNE.s:5291   .debug_loc:000000000000067e .LLST8
     /tmp/ccsOLUNE.s:260    .text:0000000000000174 .LBB78
     /tmp/ccsOLUNE.s:5316   .debug_loc:00000000000006e0 .LLST9
     /tmp/ccsOLUNE.s:5329   .debug_loc:0000000000000718 .LLST10
     /tmp/ccsOLUNE.s:5344   .debug_loc:0000000000000760 .LLST11
     /tmp/ccsOLUNE.s:352    .text:0000000000000218 .LVL43
     /tmp/ccsOLUNE.s:357    .text:0000000000000228 .LVL44
     /tmp/ccsOLUNE.s:362    .text:0000000000000238 .LVL45
     /tmp/ccsOLUNE.s:367    .text:0000000000000244 .LVL46
     /tmp/ccsOLUNE.s:372    .text:0000000000000254 .LVL47
     /tmp/ccsOLUNE.s:376    .text:000000000000025c .LVL48
     /tmp/ccsOLUNE.s:380    .text:0000000000000264 .LVL49
GAS LISTING /tmp/ccsOLUNE.s 			page 50


     /tmp/ccsOLUNE.s:275    .text:0000000000000190 .LBB81
     /tmp/ccsOLUNE.s:5372   .debug_loc:00000000000007b6 .LLST12
     /tmp/ccsOLUNE.s:5385   .debug_loc:00000000000007ee .LLST13
     /tmp/ccsOLUNE.s:5400   .debug_loc:0000000000000836 .LLST14
     /tmp/ccsOLUNE.s:391    .text:0000000000000274 .LVL51
     /tmp/ccsOLUNE.s:396    .text:0000000000000284 .LVL52
     /tmp/ccsOLUNE.s:401    .text:0000000000000294 .LVL53
     /tmp/ccsOLUNE.s:406    .text:00000000000002a0 .LVL54
     /tmp/ccsOLUNE.s:411    .text:00000000000002b0 .LVL55
     /tmp/ccsOLUNE.s:415    .text:00000000000002b8 .LVL56
     /tmp/ccsOLUNE.s:419    .text:00000000000002c0 .LVL57
     /tmp/ccsOLUNE.s:297    .text:00000000000001b4 .LBB84
     /tmp/ccsOLUNE.s:323    .text:00000000000001e0 .LBE84
     /tmp/ccsOLUNE.s:305    .text:00000000000001c0 .LBB86
     /tmp/ccsOLUNE.s:316    .text:00000000000001d4 .LBE86
     /tmp/ccsOLUNE.s:5425   .debug_loc:000000000000087a .LLST15
     /tmp/ccsOLUNE.s:270    .text:0000000000000180 .LVL31
     /tmp/ccsOLUNE.s:286    .text:000000000000019c .LVL34
     /tmp/ccsOLUNE.s:291    .text:00000000000001ac .LVL35
     /tmp/ccsOLUNE.s:295    .text:00000000000001b4 .LVL36
     /tmp/ccsOLUNE.s:327    .text:00000000000001f0 .LVL39
     /tmp/ccsOLUNE.s:331    .text:00000000000001f8 .LVL40
     /tmp/ccsOLUNE.s:5812   .debug_str:00000000000007e9 .LASF139
     /tmp/ccsOLUNE.s:5724   .debug_str:000000000000057b .LASF140
     /tmp/ccsOLUNE.s:5756   .debug_str:0000000000000647 .LASF142
     /tmp/ccsOLUNE.s:5898   .debug_str:0000000000000b46 .LASF143
     /tmp/ccsOLUNE.s:5808   .debug_str:00000000000007d2 .LASF141
     /tmp/ccsOLUNE.s:5646   .debug_str:0000000000000326 .LASF144
     /tmp/ccsOLUNE.s:5676   .debug_str:0000000000000421 .LASF145
     /tmp/ccsOLUNE.s:5718   .debug_str:0000000000000543 .LASF146
     /tmp/ccsOLUNE.s:5824   .debug_str:000000000000086c .LASF147
     /tmp/ccsOLUNE.s:5732   .debug_str:00000000000005a8 .LASF148
     /tmp/ccsOLUNE.s:5614   .debug_str:0000000000000206 .LASF149
     /tmp/ccsOLUNE.s:5768   .debug_str:00000000000006ab .LASF150
     /tmp/ccsOLUNE.s:430    .text._Z7_assertbPKci:0000000000000000 .LFB0
     /tmp/ccsOLUNE.s:488    .text._Z7_assertbPKci:0000000000000080 .LFE0
     /tmp/ccsOLUNE.s:5434   .debug_loc:00000000000008a6 .LLST16
     /tmp/ccsOLUNE.s:5448   .debug_loc:00000000000008df .LLST17
     /tmp/ccsOLUNE.s:5459   .debug_loc:0000000000000915 .LLST18
     /tmp/ccsOLUNE.s:458    .text._Z7_assertbPKci:0000000000000038 .LVL60
     /tmp/ccsOLUNE.s:463    .text._Z7_assertbPKci:0000000000000044 .LVL61
     /tmp/ccsOLUNE.s:468    .text._Z7_assertbPKci:0000000000000054 .LVL62
     /tmp/ccsOLUNE.s:473    .text._Z7_assertbPKci:0000000000000060 .LVL63
     /tmp/ccsOLUNE.s:478    .text._Z7_assertbPKci:0000000000000070 .LVL64
     /tmp/ccsOLUNE.s:482    .text._Z7_assertbPKci:0000000000000078 .LVL65
     /tmp/ccsOLUNE.s:486    .text._Z7_assertbPKci:0000000000000080 .LVL66
     /tmp/ccsOLUNE.s:5902   .debug_str:0000000000000b6f .LASF151
     /tmp/ccsOLUNE.s:5868   .debug_str:0000000000000a61 .LASF153
     /tmp/ccsOLUNE.s:5624   .debug_str:0000000000000274 .LASF152
     /tmp/ccsOLUNE.s:5556   .debug_str:0000000000000020 .LASF154
     /tmp/ccsOLUNE.s:5836   .debug_str:00000000000008c7 .LASF155
     /tmp/ccsOLUNE.s:5570   .debug_str:00000000000000a1 .LASF156
     /tmp/ccsOLUNE.s:5806   .debug_str:00000000000007c2 .LASF157
     /tmp/ccsOLUNE.s:5878   .debug_str:0000000000000a9f .LASF158
     /tmp/ccsOLUNE.s:5612   .debug_str:00000000000001fb .LASF159
     /tmp/ccsOLUNE.s:5844   .debug_str:000000000000090a .LASF160
     /tmp/ccsOLUNE.s:5572   .debug_str:00000000000000ac .LASF161
GAS LISTING /tmp/ccsOLUNE.s 			page 51


     /tmp/ccsOLUNE.s:5608   .debug_str:00000000000001cc .LASF162
     /tmp/ccsOLUNE.s:5622   .debug_str:0000000000000255 .LASF163
     /tmp/ccsOLUNE.s:5636   .debug_str:00000000000002d8 .LASF164
     /tmp/ccsOLUNE.s:5576   .debug_str:00000000000000d4 .LASF165
     /tmp/ccsOLUNE.s:5650   .debug_str:0000000000000352 .LASF166
     /tmp/ccsOLUNE.s:5696   .debug_str:000000000000049f .LASF167
     /tmp/ccsOLUNE.s:5662   .debug_str:00000000000003b8 .LASF168
     /tmp/ccsOLUNE.s:5666   .debug_str:00000000000003db .LASF169
     /tmp/ccsOLUNE.s:5858   .debug_str:0000000000000a0c .LASF170
     /tmp/ccsOLUNE.s:37     .text:000000000000002c .LVL1
     /tmp/ccsOLUNE.s:46     .text:000000000000003c .LVL2
     /tmp/ccsOLUNE.s:837    .text:0000000000000574 .LVL96
     /tmp/ccsOLUNE.s:853    .text:000000000000059c .LVL97
     /tmp/ccsOLUNE.s:886    .text:00000000000005ec .LVL102
     /tmp/ccsOLUNE.s:999    .text:00000000000006b4 .LVL117
     /tmp/ccsOLUNE.s:1028   .text:00000000000006e0 .LVL119
     /tmp/ccsOLUNE.s:1052   .text:0000000000000700 .LVL121
     /tmp/ccsOLUNE.s:1063   .text:0000000000000714 .LVL122
     /tmp/ccsOLUNE.s:959    .text:000000000000065c .LVL109
     /tmp/ccsOLUNE.s:906    .text:0000000000000608 .LVL104
     /tmp/ccsOLUNE.s:945    .text:0000000000000648 .LVL107
     /tmp/ccsOLUNE.s:951    .text:0000000000000654 .LVL108
     /tmp/ccsOLUNE.s:922    .text:0000000000000624 .LVL105
     /tmp/ccsOLUNE.s:928    .text:0000000000000628 .LVL106
     /tmp/ccsOLUNE.s:869    .text:00000000000005c8 .LVL100
     /tmp/ccsOLUNE.s:878    .text:00000000000005dc .LVL101
     /tmp/ccsOLUNE.s:511    .text:00000000000002e8 .LVL68
     /tmp/ccsOLUNE.s:76     .text:0000000000000040 .LVL3
     /tmp/ccsOLUNE.s:102    .text:0000000000000058 .LVL6
     /tmp/ccsOLUNE.s:146    .text:000000000000009c .LVL12
     /tmp/ccsOLUNE.s:153    .text:00000000000000a4 .LVL13
     /tmp/ccsOLUNE.s:86     .text:0000000000000050 .LVL4
     /tmp/ccsOLUNE.s:93     .text:0000000000000054 .LVL5
     /tmp/ccsOLUNE.s:117    .text:0000000000000078 .LVL8
     /tmp/ccsOLUNE.s:123    .text:000000000000007c .LVL9
     /tmp/ccsOLUNE.s:648    .text:00000000000003bc .LVL79
     /tmp/ccsOLUNE.s:786    .text:000000000000052c .LVL94
     /tmp/ccsOLUNE.s:706    .text:000000000000046c .LVL85
     /tmp/ccsOLUNE.s:714    .text:000000000000047c .LVL86
     /tmp/ccsOLUNE.s:765    .text:0000000000000508 .LVL92
     /tmp/ccsOLUNE.s:773    .text:0000000000000518 .LVL93
     /tmp/ccsOLUNE.s:249    .text:0000000000000164 .LVL28
     /tmp/ccsOLUNE.s:342    .text:0000000000000208 .LVL41
     /tmp/ccsOLUNE.s:350    .text:0000000000000210 .LVL42
     /tmp/ccsOLUNE.s:259    .text:0000000000000174 .LVL29
     /tmp/ccsOLUNE.s:265    .text:0000000000000178 .LVL30
     /tmp/ccsOLUNE.s:274    .text:0000000000000190 .LVL32
     /tmp/ccsOLUNE.s:280    .text:0000000000000194 .LVL33
     /tmp/ccsOLUNE.s:389    .text:000000000000026c .LVL50
     /tmp/ccsOLUNE.s:304    .text:00000000000001c0 .LVL37
     /tmp/ccsOLUNE.s:313    .text:00000000000001d4 .LVL38
     /tmp/ccsOLUNE.s:433    .text._Z7_assertbPKci:0000000000000000 .LVL58
     /tmp/ccsOLUNE.s:456    .text._Z7_assertbPKci:0000000000000030 .LVL59
     /tmp/ccsOLUNE.s:1229   .debug_info:0000000000000000 .Ldebug_info0
     /tmp/ccsOLUNE.s:5      .text:0000000000000000 .Ltext0
     /tmp/ccsOLUNE.s:1223   .text:0000000000000800 .Letext0
     /tmp/ccsOLUNE.s:95     .text:0000000000000054 .LBE61
GAS LISTING /tmp/ccsOLUNE.s 			page 52


     /tmp/ccsOLUNE.s:148    .text:000000000000009c .LBB67
     /tmp/ccsOLUNE.s:186    .text:00000000000000f8 .LBE67
     /tmp/ccsOLUNE.s:125    .text:000000000000007c .LBE64
     /tmp/ccsOLUNE.s:187    .text:00000000000000f8 .LBB68
     /tmp/ccsOLUNE.s:224    .text:0000000000000154 .LBE68
     /tmp/ccsOLUNE.s:267    .text:0000000000000178 .LBE78
     /tmp/ccsOLUNE.s:345    .text:0000000000000208 .LBB89
     /tmp/ccsOLUNE.s:383    .text:0000000000000264 .LBE89
     /tmp/ccsOLUNE.s:282    .text:0000000000000194 .LBE81
     /tmp/ccsOLUNE.s:384    .text:0000000000000264 .LBB90
     /tmp/ccsOLUNE.s:421    .text:00000000000002c0 .LBE90
     /tmp/ccsOLUNE.s:519    .text:00000000000002f0 .LBE93
     /tmp/ccsOLUNE.s:529    .text:0000000000000300 .LBB96
     /tmp/ccsOLUNE.s:565    .text:000000000000035c .LBE96
     /tmp/ccsOLUNE.s:890    .text:00000000000005ec .LBB132
     /tmp/ccsOLUNE.s:1032   .text:00000000000006e0 .LBE132
     /tmp/ccsOLUNE.s:1034   .text:00000000000006e0 .LBB154
     /tmp/ccsOLUNE.s:1148   .text:00000000000007cc .LBE154
     /tmp/ccsOLUNE.s:894    .text:00000000000005ec .LBB136
     /tmp/ccsOLUNE.s:949    .text:0000000000000650 .LBE136
     /tmp/ccsOLUNE.s:953    .text:0000000000000654 .LBB141
     /tmp/ccsOLUNE.s:993    .text:00000000000006b0 .LBE141
     /tmp/ccsOLUNE.s:930    .text:0000000000000628 .LBE137
     /tmp/ccsOLUNE.s:954    .text:0000000000000654 .LBB140
     /tmp/ccsOLUNE.s:992    .text:00000000000006b0 .LBE140
     /tmp/ccsOLUNE.s:1031   .text:00000000000006e0 .LBE148
     /tmp/ccsOLUNE.s:1111   .text:0000000000000770 .LBB153
     /tmp/ccsOLUNE.s:1147   .text:00000000000007cc .LBE153

UNDEFINED SYMBOLS
_ZN7IThread11getPRunningEv
_Z15thread_dispatchv
_Z9putStringPKc
_Z6putInti
_Z10putNewlinev
_Z10stopKernelv
_ZN7IThread10pRunningSpE
_Z24enableExternalInterruptsv
_ZN8IConsole14writeToConsoleEv
_Z10myUserMainv
HEAP_END_ADDR
HEAP_START_ADDR
trapRoutine
_Z25disableExternalInterruptsv
_ZN7IThread11setPRunningEPS_
_ZN7IThread11pAllThreadsE
_Z13thread_createPmPFvPvES0_
_ZN9Scheduler7getNextEv
_ZN8MemAlloc3getEv
_ZN8MemAlloc16getUserlandUsageEv
_ZN7IThread22initialUserMemoryUsageE
plic_claim
CONSOLE_TX_DATA
CONSOLE_STATUS
plic_complete
