GAS LISTING /tmp/cckUk8c0.s 			page 1


   1              		.file	"main.cpp"
   2              		.option pic
   3              		.option norelax
   4              		.text
   5              	.Ltext0:
   6              		.align	2
   7              		.globl	_Z3doCPv
   9              	_Z3doCPv:
  10              	.LFB20:
  11              		.file 1 "src/main.cpp"
   1:src/main.cpp  **** #include "../h/alloc.h"
   2:src/main.cpp  **** #include "../h/syscall_c.hpp"
   3:src/main.cpp  **** #include "../h/thread.h"
   4:src/main.cpp  **** #include "../h/scheduler.h"
   5:src/main.cpp  **** #include "../h/0_console.h"
   6:src/main.cpp  **** 
   7:src/main.cpp  **** extern "C" void trapRoutine();
   8:src/main.cpp  **** 
   9:src/main.cpp  **** void myUserMain();
  10:src/main.cpp  **** void doInitialAsserts();
  11:src/main.cpp  **** void initInterruptVector();
  12:src/main.cpp  **** 
  13:src/main.cpp  **** uint64 fib(uint64 n);
  14:src/main.cpp  **** 
  15:src/main.cpp  **** IThread kernelThread;
  16:src/main.cpp  **** 
  17:src/main.cpp  **** void userWrapper(void* p)
  18:src/main.cpp  **** {
  19:src/main.cpp  ****     assert(p == nullptr);
  20:src/main.cpp  ****     assert(&(IThread::getPRunning()->sp) == IThread::pRunningSp);
  21:src/main.cpp  **** 
  22:src/main.cpp  ****     enableExternalInterrupts();
  23:src/main.cpp  **** 
  24:src/main.cpp  ****     myUserMain();
  25:src/main.cpp  **** }
  26:src/main.cpp  **** 
  27:src/main.cpp  **** int main()
  28:src/main.cpp  **** {
  29:src/main.cpp  ****     disableExternalInterrupts();
  30:src/main.cpp  **** 
  31:src/main.cpp  ****     initInterruptVector();
  32:src/main.cpp  ****     doInitialAsserts();
  33:src/main.cpp  **** 
  34:src/main.cpp  ****     uint64* sp;
  35:src/main.cpp  ****     __asm__ volatile ("mv %[name], sp" : [name] "=r"(sp));
  36:src/main.cpp  ****     kernelThread.sp = sp;
  37:src/main.cpp  ****     IThread::setPRunning(&kernelThread);
  38:src/main.cpp  ****     assert(&(IThread::getPRunning()->sp) == IThread::pRunningSp);
  39:src/main.cpp  ****     kernelThread.id = 0;
  40:src/main.cpp  ****     IThread::pAllThreads[0] = &kernelThread;
  41:src/main.cpp  **** 
  42:src/main.cpp  ****     thread_t t;
  43:src/main.cpp  ****     thread_create(&t, &userWrapper, nullptr);
  44:src/main.cpp  **** 
  45:src/main.cpp  ****     IThread::initialUserMemoryUsage = MemAlloc::get()->getUserlandUsage();
  46:src/main.cpp  **** 
  47:src/main.cpp  ****     plic_claim();
GAS LISTING /tmp/cckUk8c0.s 			page 2


  48:src/main.cpp  ****     plic_complete(10);
  49:src/main.cpp  **** 
  50:src/main.cpp  ****     __asm__ volatile ("li a0, 4"); // this is a system call that calls IThread::switchToUser()
  51:src/main.cpp  ****     __asm__ volatile ("ecall");
  52:src/main.cpp  **** 
  53:src/main.cpp  ****     __asm__ volatile ("csrw sscratch, x0"); //TEST permissions
  54:src/main.cpp  **** 
  55:src/main.cpp  ****     return 0;
  56:src/main.cpp  **** }
  57:src/main.cpp  **** 
  58:src/main.cpp  **** void doC(void* p)
  59:src/main.cpp  **** {
  12              		.loc 1 59 1
  13              		.cfi_startproc
  14              	.LVL0:
  15 0000 130101FE 		addi	sp,sp,-32
  16              		.cfi_def_cfa_offset 32
  17 0004 233C8100 		sd	s0,24(sp)
  18              		.cfi_offset 8, -8
  19 0008 13040102 		addi	s0,sp,32
  20              		.cfi_def_cfa 8, 0
  60:src/main.cpp  ****     volatile uint64 i=0;
  21              		.loc 1 60 5
  22              		.loc 1 60 21 is_stmt 0
  23 000c 233404FE 		sd	zero,-24(s0)
  61:src/main.cpp  ****     extern uint64 gTimer;
  24              		.loc 1 61 5 is_stmt 1
  62:src/main.cpp  ****     uint64 oldTimer = gTimer;
  25              		.loc 1 62 5
  26              		.loc 1 62 12 is_stmt 0
  27 0010 97070000 		la	a5,gTimer
  27      83B70700 
  28 0018 83B70700 		ld	a5,0(a5)
  29              	.LVL1:
  30 001c 6F000002 		j	.L3
  31              	.L5:
  63:src/main.cpp  ****     while(i>=0)
  64:src/main.cpp  ****     {
  65:src/main.cpp  ****         if(gTimer != oldTimer)
  66:src/main.cpp  ****         {
  67:src/main.cpp  ****             __asm__ volatile ("mv x1, x1");
  32              		.loc 1 67 13 is_stmt 1
  33              		.loc 1 67 43 is_stmt 0
  34              	#APP
  35              	# 67 "src/main.cpp" 1
  68              	        }
  36              		mv x1, x1
  37              	# 0 "" 2
  38              	#NO_APP
  39              	.L2:
  69:src/main.cpp  ****         i++;
  40              		.loc 1 69 9 is_stmt 1
  41              		.loc 1 69 10 is_stmt 0
  42 0024 833784FE 		ld	a5,-24(s0)
  43              	.LVL2:
  44 0028 93871700 		addi	a5,a5,1
  45 002c 2334F4FE 		sd	a5,-24(s0)
GAS LISTING /tmp/cckUk8c0.s 			page 3


  70:src/main.cpp  ****         oldTimer = gTimer;
  46              		.loc 1 70 9 is_stmt 1
  47              		.loc 1 70 18 is_stmt 0
  48 0030 97070000 		la	a5,gTimer
  48      83B70700 
  49              	.LVL3:
  50 0038 83B70700 		ld	a5,0(a5)
  51              	.LVL4:
  52              	.L3:
  63:src/main.cpp  ****     while(i>=0)
  53              		.loc 1 63 5 is_stmt 1
  63:src/main.cpp  ****     while(i>=0)
  54              		.loc 1 63 12
  63:src/main.cpp  ****     while(i>=0)
  55              		.loc 1 63 11 is_stmt 0
  56 003c 033784FE 		ld	a4,-24(s0)
  65:src/main.cpp  ****         {
  57              		.loc 1 65 9 is_stmt 1
  65:src/main.cpp  ****         {
  58              		.loc 1 65 19 is_stmt 0
  59 0040 17070000 		la	a4,gTimer
  59      03370700 
  60 0048 03370700 		ld	a4,0(a4)
  65:src/main.cpp  ****         {
  61              		.loc 1 65 9
  62 004c E31AF7FC 		bne	a4,a5,.L5
  63 0050 6FF05FFD 		j	.L2
  64              		.cfi_endproc
  65              	.LFE20:
  67              		.align	2
  69              	_Z41__static_initialization_and_destruction_0ii:
  70              	.LFB25:
  71:src/main.cpp  ****     }
  72:src/main.cpp  ****     __asm__ volatile ("mv x1, x1");
  73:src/main.cpp  **** }
  74:src/main.cpp  **** 
  75:src/main.cpp  **** void testAsyncCall()
  76:src/main.cpp  **** {
  77:src/main.cpp  **** 
  78:src/main.cpp  ****     assert(MemAlloc::get()->getUserlandUsage() == 0);
  79:src/main.cpp  **** 
  80:src/main.cpp  **** //    void doB(void*);
  81:src/main.cpp  **** 
  82:src/main.cpp  ****     int argA = 69;
  83:src/main.cpp  **** //    int argB = 420;
  84:src/main.cpp  ****     thread_t a;
  85:src/main.cpp  **** //    thread_t b;
  86:src/main.cpp  ****     thread_create(&a, doC, &argA);
  87:src/main.cpp  **** //    thread_create(&b, doB, &argB);
  88:src/main.cpp  ****     thread_dispatch();
  89:src/main.cpp  **** 
  90:src/main.cpp  **** //    assert(IThread::pAllThreads[a]->id == IThread::pAllThreads[b]->id-1);
  91:src/main.cpp  ****     assert(MemAlloc::get()->getUserlandUsage() == 0);
  92:src/main.cpp  **** }
  93:src/main.cpp  **** 
  94:src/main.cpp  **** void doInitialAsserts()
  95:src/main.cpp  **** {
GAS LISTING /tmp/cckUk8c0.s 			page 4


  96:src/main.cpp  ****     assert(sizeof(void*) == 8);
  97:src/main.cpp  ****     assert((((uint64)HEAP_END_ADDR - (uint64)HEAP_START_ADDR) / 1024 / 1024) == 127);
  98:src/main.cpp  ****     assert(DEFAULT_STACK_SIZE == 4096);
  99:src/main.cpp  ****     assert(DEFAULT_TIME_SLICE == 2);
 100:src/main.cpp  ****     assert(sizeof(char) == 1);
 101:src/main.cpp  ****     assert(sizeof(IThread) < 1000);
 102:src/main.cpp  ****     assert(sizeof(int) == 4);
 103:src/main.cpp  ****     assert(sizeof(uint64) == 8);
 104:src/main.cpp  **** }
 105:src/main.cpp  **** 
 106:src/main.cpp  **** void initInterruptVector()
 107:src/main.cpp  **** {
 108:src/main.cpp  **** 
 109:src/main.cpp  **** // should be before changing sstatus 0x2 bit
 110:src/main.cpp  ****     __asm__ volatile ("csrw stvec, %[vector]" : : [vector] "r"(&trapRoutine));
 111:src/main.cpp  **** 
 112:src/main.cpp  **** // set MODE to 1 - vector mode
 113:src/main.cpp  ****     __asm__ volatile ("csrs stvec, 0x1");
 114:src/main.cpp  ****     __asm__ volatile ("csrc stvec, 0x2");
 115:src/main.cpp  **** }
 116:src/main.cpp  **** 
 117:src/main.cpp  **** 
 118:src/main.cpp  **** void consoleStuff(void* p)
 119:src/main.cpp  **** {
 120:src/main.cpp  ****     assert(false);
 121:src/main.cpp  **** 
 122:src/main.cpp  ****     assert(p == nullptr);
 123:src/main.cpp  **** 
 124:src/main.cpp  ****     IConsole* cons = IConsole::get();
 125:src/main.cpp  **** 
 126:src/main.cpp  ****     while(true)
 127:src/main.cpp  ****     {
 128:src/main.cpp  ****         thread_dispatch();
 129:src/main.cpp  **** 
 130:src/main.cpp  ****         bool readyWrite = false;
 131:src/main.cpp  ****         bool readyRead = false;
 132:src/main.cpp  **** 
 133:src/main.cpp  **** //        int a = plic_claim();
 134:src/main.cpp  **** //
 135:src/main.cpp  **** //        if (a == 0)
 136:src/main.cpp  **** //            continue;
 137:src/main.cpp  **** //
 138:src/main.cpp  **** //        assert(a == 10);
 139:src/main.cpp  **** 
 140:src/main.cpp  ****         if (((*((char *) CONSOLE_STATUS)) & CONSOLE_TX_STATUS_BIT) != 0) {
 141:src/main.cpp  ****             readyWrite = true;
 142:src/main.cpp  ****             if (cons->putBufferItems > 0)
 143:src/main.cpp  ****             {
 144:src/main.cpp  ****                 int a = plic_claim();
 145:src/main.cpp  **** 
 146:src/main.cpp  ****                 char output = cons->putBuffer[cons->putBufferTail];
 147:src/main.cpp  ****                 *((char *) CONSOLE_TX_DATA) = output;
 148:src/main.cpp  **** 
 149:src/main.cpp  ****                 __asm__ volatile ("mv x10, x10");
 150:src/main.cpp  ****                 assert(a == 10);
 151:src/main.cpp  **** 
 152:src/main.cpp  ****                 cons->putBufferItems--;
GAS LISTING /tmp/cckUk8c0.s 			page 5


 153:src/main.cpp  ****                 cons->putBufferTail = (cons->putBufferTail + 1) % BUFFER_SIZE;
 154:src/main.cpp  ****             }
 155:src/main.cpp  ****         }
 156:src/main.cpp  **** 
 157:src/main.cpp  ****         if (((*((char *) CONSOLE_STATUS)) & CONSOLE_RX_STATUS_BIT) != 0)
 158:src/main.cpp  ****         {
 159:src/main.cpp  ****             assert(false);
 160:src/main.cpp  ****             assert(cons->getBufferItems < BUFFER_SIZE - 1);
 161:src/main.cpp  **** 
 162:src/main.cpp  ****             readyRead = true;
 163:src/main.cpp  ****             char c = *((char *) CONSOLE_TX_DATA); // ovde nista ne radim zapravo, samo retriev-ujem
 164:src/main.cpp  **** 
 165:src/main.cpp  ****             cons->getBuffer[cons->getBufferHead] = c;
 166:src/main.cpp  **** 
 167:src/main.cpp  ****             cons->getBufferHead = (cons->getBufferHead + 1) % BUFFER_SIZE;
 168:src/main.cpp  ****             cons->getBufferItems++;
 169:src/main.cpp  ****         }
 170:src/main.cpp  **** 
 171:src/main.cpp  ****         __asm__ volatile ("mv x10, x10");
 172:src/main.cpp  **** 
 173:src/main.cpp  ****         plic_complete(10);
 174:src/main.cpp  **** 
 175:src/main.cpp  ****         assert(readyRead || readyWrite);
 176:src/main.cpp  ****     }
 177:src/main.cpp  **** }
  71              		.loc 1 177 1 is_stmt 1
  72              		.cfi_startproc
  73              	.LVL5:
  74 0054 130101FF 		addi	sp,sp,-16
  75              		.cfi_def_cfa_offset 16
  76 0058 23348100 		sd	s0,8(sp)
  77              		.cfi_offset 8, -8
  78 005c 13040101 		addi	s0,sp,16
  79              		.cfi_def_cfa 8, 0
  80              		.loc 1 177 1 is_stmt 0
  81 0060 93071000 		li	a5,1
  82 0064 6308F500 		beq	a0,a5,.L9
  83              	.L6:
  84 0068 03348100 		ld	s0,8(sp)
  85              		.cfi_remember_state
  86              		.cfi_restore 8
  87              		.cfi_def_cfa 2, 16
  88 006c 13010101 		addi	sp,sp,16
  89              		.cfi_def_cfa_offset 0
  90 0070 67800000 		jr	ra
  91              	.L9:
  92              		.cfi_restore_state
  93              		.loc 1 177 1 discriminator 1
  94 0074 B7070100 		li	a5,65536
  95 0078 9387F7FF 		addi	a5,a5,-1
  96 007c E396F5FE 		bne	a1,a5,.L6
  97              	.LVL6:
  98              	.LBB34:
  99              	.LBB35:
 100              	.LBB36:
 101              		.file 2 "src/../h/thread.h"
   1:src/../h/thread.h **** #pragma once
GAS LISTING /tmp/cckUk8c0.s 			page 6


   2:src/../h/thread.h **** #include "../lib/hw.h"
   3:src/../h/thread.h **** #include "../h/my_console.h"
   4:src/../h/thread.h **** #include "../h/syscall_c.hpp"
   5:src/../h/thread.h **** 
   6:src/../h/thread.h **** #define NR_MAX_THREADS 10
   7:src/../h/thread.h **** #define NR_REGISTERS 32
   8:src/../h/thread.h **** 
   9:src/../h/thread.h **** // needs to be (DEFAULT_STACK_SIZE+8*34) (probably)
  10:src/../h/thread.h **** #define ACTUAL_STACK_SIZE (DEFAULT_STACK_SIZE+8*34)*10
  11:src/../h/thread.h **** #define MAX_NR_TOTAL_THREADS 100
  12:src/../h/thread.h **** 
  13:src/../h/thread.h **** class IThread;
  14:src/../h/thread.h **** 
  15:src/../h/thread.h **** class IThread
  16:src/../h/thread.h **** {
  17:src/../h/thread.h **** public:
  18:src/../h/thread.h ****     enum State { RUNNING = 0, SUSPENDED, READY, INITIALIZING, TERMINATING, NONEXISTENT };
  19:src/../h/thread.h **** 
  20:src/../h/thread.h ****     typedef void(*Body)(void*);
  21:src/../h/thread.h **** 
  22:src/../h/thread.h ****     static IThread* pSleepHead;
  23:src/../h/thread.h ****     static uint64 timeSliceCounter;
  24:src/../h/thread.h ****     static bool switchedToUserThread;
  25:src/../h/thread.h ****     static uint64** pRunningSp;
  26:src/../h/thread.h ****     static IThread* pAllThreads[MAX_NR_TOTAL_THREADS];
  27:src/../h/thread.h ****     static uint64 nrTotalThreads;
  28:src/../h/thread.h ****     static uint64 initialUserMemoryUsage;
  29:src/../h/thread.h **** 
  30:src/../h/thread.h ****     static  IThread*  getPRunning();
  31:src/../h/thread.h ****     static void setPRunning(IThread* p);
  32:src/../h/thread.h ****     static int createThread(uint64* id, Body body, void* arg);
  33:src/../h/thread.h ****     static int exit(); // exit the currently running thread
  34:src/../h/thread.h ****     static void switchToUser();
  35:src/../h/thread.h ****     static void join(uint64 id);
  36:src/../h/thread.h **** 
  37:src/../h/thread.h ****     State state;
  38:src/../h/thread.h ****     Body body;
  39:src/../h/thread.h ****     uint64 sepc;
  40:src/../h/thread.h ****     void* pStackStart; // start in terms of the data structure. This adress is the highest one in t
  41:src/../h/thread.h ****     uint64 timeSlice; // private
  42:src/../h/thread.h ****     uint64 id;
  43:src/../h/thread.h ****     IThread* pNext;
  44:src/../h/thread.h ****     IThread* pWaitingHead;
  45:src/../h/thread.h ****     bool done;
  46:src/../h/thread.h **** //    uint64** pSp;
  47:src/../h/thread.h **** 
  48:src/../h/thread.h ****     uint64* sp;
  49:src/../h/thread.h **** 
  50:src/../h/thread.h ****     IThread(Body body, void* arg);
  51:src/../h/thread.h ****     IThread() : pStackStart(nullptr), pNext(nullptr) {} // move to private?. Mind the kernel thread
 102              		.loc 2 51 52
 103 0080 97070000 		lla	a5,.LANCHOR0
 103      93870700 
 104 0088 23BC0700 		sd	zero,24(a5)
 105 008c 23B80702 		sd	zero,48(a5)
 106              	.LVL7:
 107              	.LBE36:
GAS LISTING /tmp/cckUk8c0.s 			page 7


 108              	.LBE35:
 109              	.LBE34:
 110              		.loc 1 177 1
 111 0090 6FF09FFD 		j	.L6
 112              		.cfi_endproc
 113              	.LFE25:
 115              		.section	.rodata.str1.8,"aMS",@progbits,1
 116              		.align	3
 117              	.LC0:
 118 0000 3D3D3D3D 		.string	"===================== ASSERT file: "
 118      3D3D3D3D 
 118      3D3D3D3D 
 118      3D3D3D3D 
 118      3D3D3D3D 
 119 0024 00000000 		.align	3
 120              	.LC1:
 121 0028 7372632F 		.string	"src/main.cpp"
 121      6D61696E 
 121      2E637070 
 121      00
 122 0035 000000   		.align	3
 123              	.LC2:
 124 0038 20202020 		.string	"    line: "
 124      6C696E65 
 124      3A2000
 125 0043 00000000 		.align	3
 125      00
 126              	.LC3:
 127 0048 2020203D 		.string	"   ==========================="
 127      3D3D3D3D 
 127      3D3D3D3D 
 127      3D3D3D3D 
 127      3D3D3D3D 
 128              		.text
 129              		.align	2
 130              		.globl	_Z11userWrapperPv
 132              	_Z11userWrapperPv:
 133              	.LFB18:
  18:src/main.cpp  ****     assert(p == nullptr);
 134              		.loc 1 18 1 is_stmt 1
 135              		.cfi_startproc
 136              	.LVL8:
 137 0094 130101FF 		addi	sp,sp,-16
 138              		.cfi_def_cfa_offset 16
 139 0098 23341100 		sd	ra,8(sp)
 140 009c 23308100 		sd	s0,0(sp)
 141              		.cfi_offset 1, -8
 142              		.cfi_offset 8, -16
 143 00a0 13040101 		addi	s0,sp,16
 144              		.cfi_def_cfa 8, 0
  19:src/main.cpp  ****     assert(&(IThread::getPRunning()->sp) == IThread::pRunningSp);
 145              		.loc 1 19 5
 146              	.LVL9:
 147              	.LBB41:
 148              	.LBB42:
 149              		.file 3 "src/../h/../h/my_console.h"
   1:src/../h/../h/my_console.h **** #pragma once
GAS LISTING /tmp/cckUk8c0.s 			page 8


   2:src/../h/../h/my_console.h **** 
   3:src/../h/../h/my_console.h **** #include "../h/risc.h"
   4:src/../h/../h/my_console.h **** 
   5:src/../h/../h/my_console.h **** #include "../lib/hw.h"
   6:src/../h/../h/my_console.h **** 
   7:src/../h/../h/my_console.h **** #define __DEBUG_MODE
   8:src/../h/../h/my_console.h **** 
   9:src/../h/../h/my_console.h **** 
  10:src/../h/../h/my_console.h **** void putString(const char* s);
  11:src/../h/../h/my_console.h **** void putInt(int n);
  12:src/../h/../h/my_console.h **** void putNewline();
  13:src/../h/../h/my_console.h **** void putU64(uint64 n);
  14:src/../h/../h/my_console.h **** void putBinary(uint64 n);
  15:src/../h/../h/my_console.h **** 
  16:src/../h/../h/my_console.h **** [[noreturn]] void stopKernel();
  17:src/../h/../h/my_console.h **** 
  18:src/../h/../h/my_console.h **** inline void _assert(bool valid, const char* file, int line) // MUST be inline
  19:src/../h/../h/my_console.h **** {
  20:src/../h/../h/my_console.h ****     if(valid)
 150              		.loc 3 20 5
 151 00a4 63100504 		bnez	a0,.L14
  21:src/../h/../h/my_console.h ****         return;
 152              		.loc 3 21 9
 153              	.LVL10:
 154              	.LBE42:
 155              	.LBE41:
  20:src/main.cpp  **** 
 156              		.loc 1 20 5
 157 00a8 97000000 		call	_ZN7IThread11getPRunningEv@plt
 157      E7800000 
 158              	.LVL11:
 159 00b0 13058504 		addi	a0,a0,72
 160 00b4 97070000 		la	a5,_ZN7IThread10pRunningSpE
 160      83B70700 
 161 00bc 83B70700 		ld	a5,0(a5)
 162              	.LVL12:
 163              	.LBB44:
 164              	.LBB45:
  20:src/../h/../h/my_console.h ****         return;
 165              		.loc 3 20 5
 166 00c0 6390A708 		bne	a5,a0,.L15
 167              		.loc 3 21 9
 168              	.LVL13:
 169              	.LBE45:
 170              	.LBE44:
  22:src/main.cpp  **** 
 171              		.loc 1 22 5
  22:src/main.cpp  **** 
 172              		.loc 1 22 29 is_stmt 0
 173 00c4 97000000 		call	_Z24enableExternalInterruptsv@plt
 173      E7800000 
 174              	.LVL14:
  24:src/main.cpp  **** }
 175              		.loc 1 24 5 is_stmt 1
  24:src/main.cpp  **** }
 176              		.loc 1 24 15 is_stmt 0
 177 00cc 97000000 		call	_Z10myUserMainv@plt
GAS LISTING /tmp/cckUk8c0.s 			page 9


 177      E7800000 
 178              	.LVL15:
  25:src/main.cpp  **** 
 179              		.loc 1 25 1
 180 00d4 83308100 		ld	ra,8(sp)
 181              		.cfi_remember_state
 182              		.cfi_restore 1
 183 00d8 03340100 		ld	s0,0(sp)
 184              		.cfi_restore 8
 185              		.cfi_def_cfa 2, 16
 186 00dc 13010101 		addi	sp,sp,16
 187              		.cfi_def_cfa_offset 0
 188 00e0 67800000 		jr	ra
 189              	.LVL16:
 190              	.L14:
 191              		.cfi_restore_state
 192              	.LBB47:
 193              	.LBB43:
  22:src/../h/../h/my_console.h **** 
  23:src/../h/../h/my_console.h ****     putString("===================== ASSERT file: ");
 194              		.loc 3 23 5 is_stmt 1
 195              		.loc 3 23 14 is_stmt 0
 196 00e4 17050000 		lla	a0,.LC0
 196      13050500 
 197              	.LVL17:
 198 00ec 97000000 		call	_Z9putStringPKc@plt
 198      E7800000 
 199              	.LVL18:
  24:src/../h/../h/my_console.h ****     putString(file);
 200              		.loc 3 24 5 is_stmt 1
 201              		.loc 3 24 14 is_stmt 0
 202 00f4 17050000 		lla	a0,.LC1
 202      13050500 
 203 00fc 97000000 		call	_Z9putStringPKc@plt
 203      E7800000 
 204              	.LVL19:
  25:src/../h/../h/my_console.h ****     putString("    line: ");
 205              		.loc 3 25 5 is_stmt 1
 206              		.loc 3 25 14 is_stmt 0
 207 0104 17050000 		lla	a0,.LC2
 207      13050500 
 208 010c 97000000 		call	_Z9putStringPKc@plt
 208      E7800000 
 209              	.LVL20:
  26:src/../h/../h/my_console.h ****     putInt(line);
 210              		.loc 3 26 5 is_stmt 1
 211              		.loc 3 26 11 is_stmt 0
 212 0114 13053001 		li	a0,19
 213 0118 97000000 		call	_Z6putInti@plt
 213      E7800000 
 214              	.LVL21:
  27:src/../h/../h/my_console.h ****     putString("   ===========================");
 215              		.loc 3 27 5 is_stmt 1
 216              		.loc 3 27 14 is_stmt 0
 217 0120 17050000 		lla	a0,.LC3
 217      13050500 
 218 0128 97000000 		call	_Z9putStringPKc@plt
GAS LISTING /tmp/cckUk8c0.s 			page 10


 218      E7800000 
 219              	.LVL22:
  28:src/../h/../h/my_console.h ****     putNewline();
 220              		.loc 3 28 5 is_stmt 1
 221              		.loc 3 28 15 is_stmt 0
 222 0130 97000000 		call	_Z10putNewlinev@plt
 222      E7800000 
 223              	.LVL23:
  29:src/../h/../h/my_console.h **** 
  30:src/../h/../h/my_console.h ****     stopKernel();
 224              		.loc 3 30 5 is_stmt 1
 225              		.loc 3 30 15 is_stmt 0
 226 0138 97000000 		call	_Z10stopKernelv@plt
 226      E7800000 
 227              	.LVL24:
 228              	.L15:
 229              	.LBE43:
 230              	.LBE47:
 231              	.LBB48:
 232              	.LBB46:
  23:src/../h/../h/my_console.h ****     putString(file);
 233              		.loc 3 23 5 is_stmt 1
  23:src/../h/../h/my_console.h ****     putString(file);
 234              		.loc 3 23 14 is_stmt 0
 235 0140 17050000 		lla	a0,.LC0
 235      13050500 
 236              	.LVL25:
 237 0148 97000000 		call	_Z9putStringPKc@plt
 237      E7800000 
 238              	.LVL26:
  24:src/../h/../h/my_console.h ****     putString("    line: ");
 239              		.loc 3 24 5 is_stmt 1
  24:src/../h/../h/my_console.h ****     putString("    line: ");
 240              		.loc 3 24 14 is_stmt 0
 241 0150 17050000 		lla	a0,.LC1
 241      13050500 
 242 0158 97000000 		call	_Z9putStringPKc@plt
 242      E7800000 
 243              	.LVL27:
  25:src/../h/../h/my_console.h ****     putInt(line);
 244              		.loc 3 25 5 is_stmt 1
  25:src/../h/../h/my_console.h ****     putInt(line);
 245              		.loc 3 25 14 is_stmt 0
 246 0160 17050000 		lla	a0,.LC2
 246      13050500 
 247 0168 97000000 		call	_Z9putStringPKc@plt
 247      E7800000 
 248              	.LVL28:
  26:src/../h/../h/my_console.h ****     putString("   ===========================");
 249              		.loc 3 26 5 is_stmt 1
  26:src/../h/../h/my_console.h ****     putString("   ===========================");
 250              		.loc 3 26 11 is_stmt 0
 251 0170 13054001 		li	a0,20
 252 0174 97000000 		call	_Z6putInti@plt
 252      E7800000 
 253              	.LVL29:
  27:src/../h/../h/my_console.h ****     putNewline();
GAS LISTING /tmp/cckUk8c0.s 			page 11


 254              		.loc 3 27 5 is_stmt 1
  27:src/../h/../h/my_console.h ****     putNewline();
 255              		.loc 3 27 14 is_stmt 0
 256 017c 17050000 		lla	a0,.LC3
 256      13050500 
 257 0184 97000000 		call	_Z9putStringPKc@plt
 257      E7800000 
 258              	.LVL30:
  28:src/../h/../h/my_console.h **** 
 259              		.loc 3 28 5 is_stmt 1
  28:src/../h/../h/my_console.h **** 
 260              		.loc 3 28 15 is_stmt 0
 261 018c 97000000 		call	_Z10putNewlinev@plt
 261      E7800000 
 262              	.LVL31:
 263              		.loc 3 30 5 is_stmt 1
 264              		.loc 3 30 15 is_stmt 0
 265 0194 97000000 		call	_Z10stopKernelv@plt
 265      E7800000 
 266              	.LVL32:
 267              	.LBE46:
 268              	.LBE48:
 269              		.cfi_endproc
 270              	.LFE18:
 272              		.section	.text._Z7_assertbPKci,"axG",@progbits,_Z7_assertbPKci,comdat
 273              		.align	2
 274              		.weak	_Z7_assertbPKci
 276              	_Z7_assertbPKci:
 277              	.LFB0:
  19:src/../h/../h/my_console.h ****     if(valid)
 278              		.loc 3 19 1 is_stmt 1
 279              		.cfi_startproc
 280              	.LVL33:
  20:src/../h/../h/my_console.h ****         return;
 281              		.loc 3 20 5
 282 0000 63040500 		beqz	a0,.L22
 283 0004 67800000 		ret
 284              	.L22:
  19:src/../h/../h/my_console.h ****     if(valid)
 285              		.loc 3 19 1 is_stmt 0
 286 0008 130101FE 		addi	sp,sp,-32
 287              		.cfi_def_cfa_offset 32
 288 000c 233C1100 		sd	ra,24(sp)
 289 0010 23388100 		sd	s0,16(sp)
 290 0014 23349100 		sd	s1,8(sp)
 291 0018 23302101 		sd	s2,0(sp)
 292              		.cfi_offset 1, -8
 293              		.cfi_offset 8, -16
 294              		.cfi_offset 9, -24
 295              		.cfi_offset 18, -32
 296 001c 13040102 		addi	s0,sp,32
 297              		.cfi_def_cfa 8, 0
 298 0020 13890500 		mv	s2,a1
 299 0024 93040600 		mv	s1,a2
  23:src/../h/../h/my_console.h ****     putString(file);
 300              		.loc 3 23 5 is_stmt 1
  23:src/../h/../h/my_console.h ****     putString(file);
GAS LISTING /tmp/cckUk8c0.s 			page 12


 301              		.loc 3 23 14 is_stmt 0
 302 0028 17050000 		lla	a0,.LC0
 302      13050500 
 303              	.LVL34:
 304 0030 97000000 		call	_Z9putStringPKc@plt
 304      E7800000 
 305              	.LVL35:
  24:src/../h/../h/my_console.h ****     putString("    line: ");
 306              		.loc 3 24 5 is_stmt 1
  24:src/../h/../h/my_console.h ****     putString("    line: ");
 307              		.loc 3 24 14 is_stmt 0
 308 0038 13050900 		mv	a0,s2
 309 003c 97000000 		call	_Z9putStringPKc@plt
 309      E7800000 
 310              	.LVL36:
  25:src/../h/../h/my_console.h ****     putInt(line);
 311              		.loc 3 25 5 is_stmt 1
  25:src/../h/../h/my_console.h ****     putInt(line);
 312              		.loc 3 25 14 is_stmt 0
 313 0044 17050000 		lla	a0,.LC2
 313      13050500 
 314 004c 97000000 		call	_Z9putStringPKc@plt
 314      E7800000 
 315              	.LVL37:
  26:src/../h/../h/my_console.h ****     putString("   ===========================");
 316              		.loc 3 26 5 is_stmt 1
  26:src/../h/../h/my_console.h ****     putString("   ===========================");
 317              		.loc 3 26 11 is_stmt 0
 318 0054 13850400 		mv	a0,s1
 319 0058 97000000 		call	_Z6putInti@plt
 319      E7800000 
 320              	.LVL38:
  27:src/../h/../h/my_console.h ****     putNewline();
 321              		.loc 3 27 5 is_stmt 1
  27:src/../h/../h/my_console.h ****     putNewline();
 322              		.loc 3 27 14 is_stmt 0
 323 0060 17050000 		lla	a0,.LC3
 323      13050500 
 324 0068 97000000 		call	_Z9putStringPKc@plt
 324      E7800000 
 325              	.LVL39:
  28:src/../h/../h/my_console.h **** 
 326              		.loc 3 28 5 is_stmt 1
  28:src/../h/../h/my_console.h **** 
 327              		.loc 3 28 15 is_stmt 0
 328 0070 97000000 		call	_Z10putNewlinev@plt
 328      E7800000 
 329              	.LVL40:
 330              		.loc 3 30 5 is_stmt 1
 331              		.loc 3 30 15 is_stmt 0
 332 0078 97000000 		call	_Z10stopKernelv@plt
 332      E7800000 
 333              	.LVL41:
 334              		.cfi_endproc
 335              	.LFE0:
 337              		.text
 338              		.align	2
GAS LISTING /tmp/cckUk8c0.s 			page 13


 339              		.globl	_Z13testAsyncCallv
 341              	_Z13testAsyncCallv:
 342              	.LFB21:
  76:src/main.cpp  **** 
 343              		.loc 1 76 1 is_stmt 1
 344              		.cfi_startproc
 345 019c 130101FE 		addi	sp,sp,-32
 346              		.cfi_def_cfa_offset 32
 347 01a0 233C1100 		sd	ra,24(sp)
 348 01a4 23388100 		sd	s0,16(sp)
 349              		.cfi_offset 1, -8
 350              		.cfi_offset 8, -16
 351 01a8 13040102 		addi	s0,sp,32
 352              		.cfi_def_cfa 8, 0
  78:src/main.cpp  **** 
 353              		.loc 1 78 5
 354 01ac 97000000 		call	_ZN8MemAlloc3getEv@plt
 354      E7800000 
 355              	.LVL42:
 356 01b4 97000000 		call	_ZN8MemAlloc16getUserlandUsageEv@plt
 356      E7800000 
 357              	.LVL43:
 358              	.LBB53:
 359              	.LBB54:
  20:src/../h/../h/my_console.h ****         return;
 360              		.loc 3 20 5
 361 01bc 63180504 		bnez	a0,.L27
  21:src/../h/../h/my_console.h **** 
 362              		.loc 3 21 9
 363              	.LVL44:
 364              	.LBE54:
 365              	.LBE53:
  82:src/main.cpp  **** //    int argB = 420;
 366              		.loc 1 82 5
  82:src/main.cpp  **** //    int argB = 420;
 367              		.loc 1 82 9 is_stmt 0
 368 01c0 93075004 		li	a5,69
 369 01c4 2326F4FE 		sw	a5,-20(s0)
  84:src/main.cpp  **** //    thread_t b;
 370              		.loc 1 84 5 is_stmt 1
  86:src/main.cpp  **** //    thread_create(&b, doB, &argB);
 371              		.loc 1 86 5
  86:src/main.cpp  **** //    thread_create(&b, doB, &argB);
 372              		.loc 1 86 18 is_stmt 0
 373 01c8 1306C4FE 		addi	a2,s0,-20
 374 01cc 97050000 		lla	a1,_Z3doCPv
 374      93850500 
 375 01d4 130504FE 		addi	a0,s0,-32
 376 01d8 97000000 		call	_Z13thread_createPmPFvPvES0_@plt
 376      E7800000 
 377              	.LVL45:
  88:src/main.cpp  **** 
 378              		.loc 1 88 5 is_stmt 1
  88:src/main.cpp  **** 
 379              		.loc 1 88 20 is_stmt 0
 380 01e0 97000000 		call	_Z15thread_dispatchv@plt
 380      E7800000 
GAS LISTING /tmp/cckUk8c0.s 			page 14


 381              	.LVL46:
  91:src/main.cpp  **** }
 382              		.loc 1 91 5 is_stmt 1
 383 01e8 97000000 		call	_ZN8MemAlloc3getEv@plt
 383      E7800000 
 384              	.LVL47:
 385 01f0 97000000 		call	_ZN8MemAlloc16getUserlandUsageEv@plt
 385      E7800000 
 386              	.LVL48:
 387              	.LBB56:
 388              	.LBB57:
  20:src/../h/../h/my_console.h ****         return;
 389              		.loc 3 20 5
 390 01f8 63180506 		bnez	a0,.L28
 391              	.LBE57:
 392              	.LBE56:
  92:src/main.cpp  **** 
 393              		.loc 1 92 1 is_stmt 0
 394 01fc 83308101 		ld	ra,24(sp)
 395              		.cfi_remember_state
 396              		.cfi_restore 1
 397 0200 03340101 		ld	s0,16(sp)
 398              		.cfi_restore 8
 399              		.cfi_def_cfa 2, 32
 400 0204 13010102 		addi	sp,sp,32
 401              		.cfi_def_cfa_offset 0
 402 0208 67800000 		jr	ra
 403              	.LVL49:
 404              	.L27:
 405              		.cfi_restore_state
 406              	.LBB59:
 407              	.LBB55:
  23:src/../h/../h/my_console.h ****     putString(file);
 408              		.loc 3 23 5 is_stmt 1
  23:src/../h/../h/my_console.h ****     putString(file);
 409              		.loc 3 23 14 is_stmt 0
 410 020c 17050000 		lla	a0,.LC0
 410      13050500 
 411              	.LVL50:
 412 0214 97000000 		call	_Z9putStringPKc@plt
 412      E7800000 
 413              	.LVL51:
  24:src/../h/../h/my_console.h ****     putString("    line: ");
 414              		.loc 3 24 5 is_stmt 1
  24:src/../h/../h/my_console.h ****     putString("    line: ");
 415              		.loc 3 24 14 is_stmt 0
 416 021c 17050000 		lla	a0,.LC1
 416      13050500 
 417 0224 97000000 		call	_Z9putStringPKc@plt
 417      E7800000 
 418              	.LVL52:
  25:src/../h/../h/my_console.h ****     putInt(line);
 419              		.loc 3 25 5 is_stmt 1
  25:src/../h/../h/my_console.h ****     putInt(line);
 420              		.loc 3 25 14 is_stmt 0
 421 022c 17050000 		lla	a0,.LC2
 421      13050500 
GAS LISTING /tmp/cckUk8c0.s 			page 15


 422 0234 97000000 		call	_Z9putStringPKc@plt
 422      E7800000 
 423              	.LVL53:
  26:src/../h/../h/my_console.h ****     putString("   ===========================");
 424              		.loc 3 26 5 is_stmt 1
  26:src/../h/../h/my_console.h ****     putString("   ===========================");
 425              		.loc 3 26 11 is_stmt 0
 426 023c 1305E004 		li	a0,78
 427 0240 97000000 		call	_Z6putInti@plt
 427      E7800000 
 428              	.LVL54:
  27:src/../h/../h/my_console.h ****     putNewline();
 429              		.loc 3 27 5 is_stmt 1
  27:src/../h/../h/my_console.h ****     putNewline();
 430              		.loc 3 27 14 is_stmt 0
 431 0248 17050000 		lla	a0,.LC3
 431      13050500 
 432 0250 97000000 		call	_Z9putStringPKc@plt
 432      E7800000 
 433              	.LVL55:
  28:src/../h/../h/my_console.h **** 
 434              		.loc 3 28 5 is_stmt 1
  28:src/../h/../h/my_console.h **** 
 435              		.loc 3 28 15 is_stmt 0
 436 0258 97000000 		call	_Z10putNewlinev@plt
 436      E7800000 
 437              	.LVL56:
 438              		.loc 3 30 5 is_stmt 1
 439              		.loc 3 30 15 is_stmt 0
 440 0260 97000000 		call	_Z10stopKernelv@plt
 440      E7800000 
 441              	.LVL57:
 442              	.L28:
 443              	.LBE55:
 444              	.LBE59:
 445              	.LBB60:
 446              	.LBB58:
  23:src/../h/../h/my_console.h ****     putString(file);
 447              		.loc 3 23 5 is_stmt 1
  23:src/../h/../h/my_console.h ****     putString(file);
 448              		.loc 3 23 14 is_stmt 0
 449 0268 17050000 		lla	a0,.LC0
 449      13050500 
 450              	.LVL58:
 451 0270 97000000 		call	_Z9putStringPKc@plt
 451      E7800000 
 452              	.LVL59:
  24:src/../h/../h/my_console.h ****     putString("    line: ");
 453              		.loc 3 24 5 is_stmt 1
  24:src/../h/../h/my_console.h ****     putString("    line: ");
 454              		.loc 3 24 14 is_stmt 0
 455 0278 17050000 		lla	a0,.LC1
 455      13050500 
 456 0280 97000000 		call	_Z9putStringPKc@plt
 456      E7800000 
 457              	.LVL60:
  25:src/../h/../h/my_console.h ****     putInt(line);
GAS LISTING /tmp/cckUk8c0.s 			page 16


 458              		.loc 3 25 5 is_stmt 1
  25:src/../h/../h/my_console.h ****     putInt(line);
 459              		.loc 3 25 14 is_stmt 0
 460 0288 17050000 		lla	a0,.LC2
 460      13050500 
 461 0290 97000000 		call	_Z9putStringPKc@plt
 461      E7800000 
 462              	.LVL61:
  26:src/../h/../h/my_console.h ****     putString("   ===========================");
 463              		.loc 3 26 5 is_stmt 1
  26:src/../h/../h/my_console.h ****     putString("   ===========================");
 464              		.loc 3 26 11 is_stmt 0
 465 0298 1305B005 		li	a0,91
 466 029c 97000000 		call	_Z6putInti@plt
 466      E7800000 
 467              	.LVL62:
  27:src/../h/../h/my_console.h ****     putNewline();
 468              		.loc 3 27 5 is_stmt 1
  27:src/../h/../h/my_console.h ****     putNewline();
 469              		.loc 3 27 14 is_stmt 0
 470 02a4 17050000 		lla	a0,.LC3
 470      13050500 
 471 02ac 97000000 		call	_Z9putStringPKc@plt
 471      E7800000 
 472              	.LVL63:
  28:src/../h/../h/my_console.h **** 
 473              		.loc 3 28 5 is_stmt 1
  28:src/../h/../h/my_console.h **** 
 474              		.loc 3 28 15 is_stmt 0
 475 02b4 97000000 		call	_Z10putNewlinev@plt
 475      E7800000 
 476              	.LVL64:
 477              		.loc 3 30 5 is_stmt 1
 478              		.loc 3 30 15 is_stmt 0
 479 02bc 97000000 		call	_Z10stopKernelv@plt
 479      E7800000 
 480              	.LVL65:
 481              	.LBE58:
 482              	.LBE60:
 483              		.cfi_endproc
 484              	.LFE21:
 486              		.align	2
 487              		.globl	_Z16doInitialAssertsv
 489              	_Z16doInitialAssertsv:
 490              	.LFB22:
  95:src/main.cpp  ****     assert(sizeof(void*) == 8);
 491              		.loc 1 95 1 is_stmt 1
 492              		.cfi_startproc
  96:src/main.cpp  ****     assert((((uint64)HEAP_END_ADDR - (uint64)HEAP_START_ADDR) / 1024 / 1024) == 127);
 493              		.loc 1 96 5
 494              	.LVL66:
  20:src/../h/../h/my_console.h ****         return;
 495              		.loc 3 20 5
  21:src/../h/../h/my_console.h **** 
 496              		.loc 3 21 9
  97:src/main.cpp  ****     assert(DEFAULT_STACK_SIZE == 4096);
 497              		.loc 1 97 5
GAS LISTING /tmp/cckUk8c0.s 			page 17


 498 02c4 97070000 		la	a5,HEAP_END_ADDR
 498      83B70700 
 499 02cc 83B70700 		ld	a5,0(a5)
 500 02d0 17070000 		la	a4,HEAP_START_ADDR
 500      03370700 
 501 02d8 03370700 		ld	a4,0(a4)
 502 02dc B387E740 		sub	a5,a5,a4
 503 02e0 370710F8 		li	a4,-133169152
 504 02e4 B387E700 		add	a5,a5,a4
 505 02e8 37071000 		li	a4,1048576
 506              	.LVL67:
 507              	.LBB63:
 508              	.LBB64:
  20:src/../h/../h/my_console.h ****         return;
 509              		.loc 3 20 5
 510 02ec 63F4E700 		bgeu	a5,a4,.L34
 511 02f0 67800000 		ret
 512              	.L34:
 513              	.LBE64:
 514              	.LBE63:
  95:src/main.cpp  ****     assert(sizeof(void*) == 8);
 515              		.loc 1 95 1 is_stmt 0
 516 02f4 130101FF 		addi	sp,sp,-16
 517              		.cfi_def_cfa_offset 16
 518 02f8 23341100 		sd	ra,8(sp)
 519 02fc 23308100 		sd	s0,0(sp)
 520              		.cfi_offset 1, -8
 521              		.cfi_offset 8, -16
 522 0300 13040101 		addi	s0,sp,16
 523              		.cfi_def_cfa 8, 0
 524              	.LBB66:
 525              	.LBB65:
  23:src/../h/../h/my_console.h ****     putString(file);
 526              		.loc 3 23 5 is_stmt 1
  23:src/../h/../h/my_console.h ****     putString(file);
 527              		.loc 3 23 14 is_stmt 0
 528 0304 17050000 		lla	a0,.LC0
 528      13050500 
 529 030c 97000000 		call	_Z9putStringPKc@plt
 529      E7800000 
 530              	.LVL68:
  24:src/../h/../h/my_console.h ****     putString("    line: ");
 531              		.loc 3 24 5 is_stmt 1
  24:src/../h/../h/my_console.h ****     putString("    line: ");
 532              		.loc 3 24 14 is_stmt 0
 533 0314 17050000 		lla	a0,.LC1
 533      13050500 
 534 031c 97000000 		call	_Z9putStringPKc@plt
 534      E7800000 
 535              	.LVL69:
  25:src/../h/../h/my_console.h ****     putInt(line);
 536              		.loc 3 25 5 is_stmt 1
  25:src/../h/../h/my_console.h ****     putInt(line);
 537              		.loc 3 25 14 is_stmt 0
 538 0324 17050000 		lla	a0,.LC2
 538      13050500 
 539 032c 97000000 		call	_Z9putStringPKc@plt
GAS LISTING /tmp/cckUk8c0.s 			page 18


 539      E7800000 
 540              	.LVL70:
  26:src/../h/../h/my_console.h ****     putString("   ===========================");
 541              		.loc 3 26 5 is_stmt 1
  26:src/../h/../h/my_console.h ****     putString("   ===========================");
 542              		.loc 3 26 11 is_stmt 0
 543 0334 13051006 		li	a0,97
 544 0338 97000000 		call	_Z6putInti@plt
 544      E7800000 
 545              	.LVL71:
  27:src/../h/../h/my_console.h ****     putNewline();
 546              		.loc 3 27 5 is_stmt 1
  27:src/../h/../h/my_console.h ****     putNewline();
 547              		.loc 3 27 14 is_stmt 0
 548 0340 17050000 		lla	a0,.LC3
 548      13050500 
 549 0348 97000000 		call	_Z9putStringPKc@plt
 549      E7800000 
 550              	.LVL72:
  28:src/../h/../h/my_console.h **** 
 551              		.loc 3 28 5 is_stmt 1
  28:src/../h/../h/my_console.h **** 
 552              		.loc 3 28 15 is_stmt 0
 553 0350 97000000 		call	_Z10putNewlinev@plt
 553      E7800000 
 554              	.LVL73:
 555              		.loc 3 30 5 is_stmt 1
 556              		.loc 3 30 15 is_stmt 0
 557 0358 97000000 		call	_Z10stopKernelv@plt
 557      E7800000 
 558              	.LVL74:
 559              	.LBE65:
 560              	.LBE66:
 561              		.cfi_endproc
 562              	.LFE22:
 564              		.align	2
 565              		.globl	_Z19initInterruptVectorv
 567              	_Z19initInterruptVectorv:
 568              	.LFB23:
 107:src/main.cpp  **** 
 569              		.loc 1 107 1 is_stmt 1
 570              		.cfi_startproc
 571 0360 130101FF 		addi	sp,sp,-16
 572              		.cfi_def_cfa_offset 16
 573 0364 23348100 		sd	s0,8(sp)
 574              		.cfi_offset 8, -8
 575 0368 13040101 		addi	s0,sp,16
 576              		.cfi_def_cfa 8, 0
 110:src/main.cpp  **** 
 577              		.loc 1 110 5
 110:src/main.cpp  **** 
 578              		.loc 1 110 78 is_stmt 0
 579 036c 97070000 		la	a5,trapRoutine
 579      83B70700 
 580              	#APP
 581              	# 110 "src/main.cpp" 1
 113:src/main.cpp  ****     __asm__ volatile ("csrc stvec, 0x2");
GAS LISTING /tmp/cckUk8c0.s 			page 19


 582              		csrw stvec, a5
 583              	# 0 "" 2
 584              		.loc 1 113 5 is_stmt 1
 113:src/main.cpp  ****     __asm__ volatile ("csrc stvec, 0x2");
 585              		.loc 1 113 41 is_stmt 0
 586              	# 113 "src/main.cpp" 1
 114:src/main.cpp  **** }
 587              		csrs stvec, 0x1
 588              	# 0 "" 2
 589              		.loc 1 114 5 is_stmt 1
 114:src/main.cpp  **** }
 590              		.loc 1 114 41 is_stmt 0
 591              	# 114 "src/main.cpp" 1
 115:src/main.cpp  **** 
 592              		csrc stvec, 0x2
 593              	# 0 "" 2
 594              		.loc 1 115 1
 595              	#NO_APP
 596 0380 03348100 		ld	s0,8(sp)
 597              		.cfi_restore 8
 598              		.cfi_def_cfa 2, 16
 599 0384 13010101 		addi	sp,sp,16
 600              		.cfi_def_cfa_offset 0
 601 0388 67800000 		jr	ra
 602              		.cfi_endproc
 603              	.LFE23:
 605              		.align	2
 606              		.globl	main
 608              	main:
 609              	.LFB19:
  28:src/main.cpp  ****     disableExternalInterrupts();
 610              		.loc 1 28 1 is_stmt 1
 611              		.cfi_startproc
 612 038c 130101FD 		addi	sp,sp,-48
 613              		.cfi_def_cfa_offset 48
 614 0390 23341102 		sd	ra,40(sp)
 615 0394 23308102 		sd	s0,32(sp)
 616 0398 233C9100 		sd	s1,24(sp)
 617              		.cfi_offset 1, -8
 618              		.cfi_offset 8, -16
 619              		.cfi_offset 9, -24
 620 039c 13040103 		addi	s0,sp,48
 621              		.cfi_def_cfa 8, 0
  29:src/main.cpp  **** 
 622              		.loc 1 29 5
  29:src/main.cpp  **** 
 623              		.loc 1 29 30 is_stmt 0
 624 03a0 97000000 		call	_Z25disableExternalInterruptsv@plt
 624      E7800000 
 625              	.LVL75:
  31:src/main.cpp  ****     doInitialAsserts();
 626              		.loc 1 31 5 is_stmt 1
  31:src/main.cpp  ****     doInitialAsserts();
 627              		.loc 1 31 24 is_stmt 0
 628 03a8 97000000 		call	_Z19initInterruptVectorv
 628      E7800000 
 629              	.LVL76:
GAS LISTING /tmp/cckUk8c0.s 			page 20


  32:src/main.cpp  **** 
 630              		.loc 1 32 5 is_stmt 1
  32:src/main.cpp  **** 
 631              		.loc 1 32 21 is_stmt 0
 632 03b0 97000000 		call	_Z16doInitialAssertsv
 632      E7800000 
 633              	.LVL77:
  34:src/main.cpp  ****     __asm__ volatile ("mv %[name], sp" : [name] "=r"(sp));
 634              		.loc 1 34 5 is_stmt 1
  35:src/main.cpp  ****     kernelThread.sp = sp;
 635              		.loc 1 35 5
  35:src/main.cpp  ****     kernelThread.sp = sp;
 636              		.loc 1 35 58 is_stmt 0
 637              	#APP
 638              	# 35 "src/main.cpp" 1
 639              		mv a5, sp
 640              	# 0 "" 2
 641              	.LVL78:
  36:src/main.cpp  ****     IThread::setPRunning(&kernelThread);
 642              		.loc 1 36 5 is_stmt 1
  36:src/main.cpp  ****     IThread::setPRunning(&kernelThread);
 643              		.loc 1 36 21 is_stmt 0
 644              	#NO_APP
 645 03bc 97040000 		lla	s1,.LANCHOR0
 645      93840400 
 646 03c4 23B4F404 		sd	a5,72(s1)
  37:src/main.cpp  ****     assert(&(IThread::getPRunning()->sp) == IThread::pRunningSp);
 647              		.loc 1 37 5 is_stmt 1
  37:src/main.cpp  ****     assert(&(IThread::getPRunning()->sp) == IThread::pRunningSp);
 648              		.loc 1 37 25 is_stmt 0
 649 03c8 13850400 		mv	a0,s1
 650 03cc 97000000 		call	_ZN7IThread11setPRunningEPS_@plt
 650      E7800000 
 651              	.LVL79:
  38:src/main.cpp  ****     kernelThread.id = 0;
 652              		.loc 1 38 5 is_stmt 1
 653 03d4 97000000 		call	_ZN7IThread11getPRunningEv@plt
 653      E7800000 
 654              	.LVL80:
 655 03dc 93078504 		addi	a5,a0,72
 656 03e0 17070000 		la	a4,_ZN7IThread10pRunningSpE
 656      03370700 
 657 03e8 03350700 		ld	a0,0(a4)
 658 03ec 3305F540 		sub	a0,a0,a5
 659 03f0 13066002 		li	a2,38
 660 03f4 97050000 		lla	a1,.LC1
 660      93850500 
 661 03fc 13351500 		seqz	a0,a0
 662 0400 97000000 		call	_Z7_assertbPKci
 662      E7800000 
 663              	.LVL81:
  39:src/main.cpp  ****     IThread::pAllThreads[0] = &kernelThread;
 664              		.loc 1 39 5
  39:src/main.cpp  ****     IThread::pAllThreads[0] = &kernelThread;
 665              		.loc 1 39 21 is_stmt 0
 666 0408 23B40402 		sd	zero,40(s1)
  40:src/main.cpp  **** 
GAS LISTING /tmp/cckUk8c0.s 			page 21


 667              		.loc 1 40 5 is_stmt 1
  40:src/main.cpp  **** 
 668              		.loc 1 40 29 is_stmt 0
 669 040c 97070000 		la	a5,_ZN7IThread11pAllThreadsE
 669      83B70700 
 670 0414 23B09700 		sd	s1,0(a5)
  42:src/main.cpp  ****     thread_create(&t, &userWrapper, nullptr);
 671              		.loc 1 42 5 is_stmt 1
  43:src/main.cpp  **** 
 672              		.loc 1 43 5
  43:src/main.cpp  **** 
 673              		.loc 1 43 18 is_stmt 0
 674 0418 13060000 		li	a2,0
 675 041c 97050000 		lla	a1,_Z11userWrapperPv
 675      93850500 
 676 0424 130584FD 		addi	a0,s0,-40
 677 0428 97000000 		call	_Z13thread_createPmPFvPvES0_@plt
 677      E7800000 
 678              	.LVL82:
  45:src/main.cpp  **** 
 679              		.loc 1 45 5 is_stmt 1
  45:src/main.cpp  **** 
 680              		.loc 1 45 72 is_stmt 0
 681 0430 97000000 		call	_ZN8MemAlloc3getEv@plt
 681      E7800000 
 682              	.LVL83:
 683 0438 97000000 		call	_ZN8MemAlloc16getUserlandUsageEv@plt
 683      E7800000 
 684              	.LVL84:
  45:src/main.cpp  **** 
 685              		.loc 1 45 37
 686 0440 97070000 		la	a5,_ZN7IThread22initialUserMemoryUsageE
 686      83B70700 
 687 0448 23B0A700 		sd	a0,0(a5)
  47:src/main.cpp  ****     plic_complete(10);
 688              		.loc 1 47 5 is_stmt 1
  47:src/main.cpp  ****     plic_complete(10);
 689              		.loc 1 47 15 is_stmt 0
 690 044c 97000000 		call	plic_claim@plt
 690      E7800000 
 691              	.LVL85:
  48:src/main.cpp  **** 
 692              		.loc 1 48 5 is_stmt 1
  48:src/main.cpp  **** 
 693              		.loc 1 48 18 is_stmt 0
 694 0454 1305A000 		li	a0,10
 695 0458 97000000 		call	plic_complete@plt
 695      E7800000 
 696              	.LVL86:
  50:src/main.cpp  ****     __asm__ volatile ("ecall");
 697              		.loc 1 50 5 is_stmt 1
  50:src/main.cpp  ****     __asm__ volatile ("ecall");
 698              		.loc 1 50 34 is_stmt 0
 699              	#APP
 700              	# 50 "src/main.cpp" 1
  51:src/main.cpp  **** 
 701              		li a0, 4
GAS LISTING /tmp/cckUk8c0.s 			page 22


 702              	# 0 "" 2
 703              		.loc 1 51 5 is_stmt 1
  51:src/main.cpp  **** 
 704              		.loc 1 51 31 is_stmt 0
 705              	# 51 "src/main.cpp" 1
  53:src/main.cpp  **** 
 706              		ecall
 707              	# 0 "" 2
 708              		.loc 1 53 5 is_stmt 1
  53:src/main.cpp  **** 
 709              		.loc 1 53 43 is_stmt 0
 710              	# 53 "src/main.cpp" 1
  55:src/main.cpp  **** }
 711              		csrw sscratch, x0
 712              	# 0 "" 2
 713              		.loc 1 55 5 is_stmt 1
  56:src/main.cpp  **** 
 714              		.loc 1 56 1 is_stmt 0
 715              	#NO_APP
 716 046c 13050000 		li	a0,0
 717 0470 83308102 		ld	ra,40(sp)
 718              		.cfi_restore 1
 719 0474 03340102 		ld	s0,32(sp)
 720              		.cfi_restore 8
 721              		.cfi_def_cfa 2, 48
 722 0478 83348101 		ld	s1,24(sp)
 723              		.cfi_restore 9
 724 047c 13010103 		addi	sp,sp,48
 725              		.cfi_def_cfa_offset 0
 726 0480 67800000 		jr	ra
 727              		.cfi_endproc
 728              	.LFE19:
 730              		.align	2
 731              		.globl	_Z12consoleStuffPv
 733              	_Z12consoleStuffPv:
 734              	.LFB24:
 119:src/main.cpp  ****     assert(false);
 735              		.loc 1 119 1 is_stmt 1
 736              		.cfi_startproc
 737              	.LVL87:
 738 0484 130101FE 		addi	sp,sp,-32
 739              		.cfi_def_cfa_offset 32
 740 0488 233C1100 		sd	ra,24(sp)
 741 048c 23388100 		sd	s0,16(sp)
 742 0490 23349100 		sd	s1,8(sp)
 743              		.cfi_offset 1, -8
 744              		.cfi_offset 8, -16
 745              		.cfi_offset 9, -24
 746 0494 13040102 		addi	s0,sp,32
 747              		.cfi_def_cfa 8, 0
 748 0498 93040500 		mv	s1,a0
 120:src/main.cpp  **** 
 749              		.loc 1 120 5
 750 049c 13068007 		li	a2,120
 751 04a0 97050000 		lla	a1,.LC1
 751      93850500 
 752 04a8 13050000 		li	a0,0
GAS LISTING /tmp/cckUk8c0.s 			page 23


 753              	.LVL88:
 754 04ac 97000000 		call	_Z7_assertbPKci
 754      E7800000 
 755              	.LVL89:
 122:src/main.cpp  **** 
 756              		.loc 1 122 5
 757 04b4 1306A007 		li	a2,122
 758 04b8 97050000 		lla	a1,.LC1
 758      93850500 
 759 04c0 13B51400 		seqz	a0,s1
 760 04c4 97000000 		call	_Z7_assertbPKci
 760      E7800000 
 761              	.LVL90:
 124:src/main.cpp  **** 
 762              		.loc 1 124 5
 763              	.LBB87:
 764              	.LBB88:
 765              		.file 4 "src/../h/0_console.h"
   1:src/../h/0_console.h **** #pragma once
   2:src/../h/0_console.h **** 
   3:src/../h/0_console.h **** #include "../lib/hw.h"
   4:src/../h/0_console.h **** 
   5:src/../h/0_console.h **** #define BUFFER_SIZE 1000
   6:src/../h/0_console.h **** 
   7:src/../h/0_console.h **** class IConsole // singleton class
   8:src/../h/0_console.h **** {
   9:src/../h/0_console.h **** public:
  10:src/../h/0_console.h ****     static IConsole* get()
  11:src/../h/0_console.h ****     {
  12:src/../h/0_console.h ****         static IConsole instance;
 766              		.loc 4 12 9
 767              		.loc 4 12 25 is_stmt 0
 768 04cc 97070000 		lbu	a5,_ZGVZN8IConsole3getEvE8instance
 768      83C70700 
 769 04d4 639E0710 		bnez	a5,.L44
 770              	.LVL91:
 771              	.LBB89:
 772              	.LBB90:
 773              	.LBB91:
  13:src/../h/0_console.h ****         return &instance;
  14:src/../h/0_console.h ****     }
  15:src/../h/0_console.h **** 
  16:src/../h/0_console.h ****     uint64 putBufferHead, putBufferTail;
  17:src/../h/0_console.h ****     char putBuffer[BUFFER_SIZE];
  18:src/../h/0_console.h ****     uint64 putBufferItems;
  19:src/../h/0_console.h **** 
  20:src/../h/0_console.h ****     char getBuffer[BUFFER_SIZE];
  21:src/../h/0_console.h ****     uint64 getBufferItems;
  22:src/../h/0_console.h ****     uint64 getBufferHead, getBufferTail;
  23:src/../h/0_console.h **** 
  24:src/../h/0_console.h ****     void putc(char c);
  25:src/../h/0_console.h ****     char getc();
  26:src/../h/0_console.h ****     void consoleHandler();
  27:src/../h/0_console.h **** 
  28:src/../h/0_console.h **** private:
  29:src/../h/0_console.h ****     IConsole()
  30:src/../h/0_console.h ****         : putBufferHead(0), putBufferTail(0), putBufferItems(0)
GAS LISTING /tmp/cckUk8c0.s 			page 24


 774              		.loc 4 30 63
 775 04d8 97070000 		lla	a5,_ZZN8IConsole3getEvE8instance
 775      93870700 
 776 04e0 23B00700 		sd	zero,0(a5)
 777 04e4 23B40700 		sd	zero,8(a5)
 778 04e8 23BC073E 		sd	zero,1016(a5)
 779              	.LVL92:
 780              	.LBE91:
 781              	.LBE90:
 782              	.LBE89:
  12:src/../h/0_console.h ****         return &instance;
 783              		.loc 4 12 25
 784 04ec 93071000 		li	a5,1
 785 04f0 17070000 		sb	a5,_ZGVZN8IConsole3getEvE8instance,a4
 785      2300F700 
 786 04f8 6F00800F 		j	.L44
 787              	.LVL93:
 788              	.L51:
 789              	.LBE88:
 790              	.LBE87:
 791              	.LBB92:
 792              	.LBB93:
 793              	.LBB94:
 794              	.LBB95:
 795              	.LBB96:
 144:src/main.cpp  **** 
 796              		.loc 1 144 17 is_stmt 1
 144:src/main.cpp  **** 
 797              		.loc 1 144 35 is_stmt 0
 798 04fc 97000000 		call	plic_claim@plt
 798      E7800000 
 799              	.LVL94:
 146:src/main.cpp  ****                 *((char *) CONSOLE_TX_DATA) = output;
 800              		.loc 1 146 17 is_stmt 1
 146:src/main.cpp  ****                 *((char *) CONSOLE_TX_DATA) = output;
 801              		.loc 1 146 53 is_stmt 0
 802 0504 17070000 		lla	a4,_ZZN8IConsole3getEvE8instance
 802      13070700 
 803 050c 83368700 		ld	a3,8(a4)
 146:src/main.cpp  ****                 *((char *) CONSOLE_TX_DATA) = output;
 804              		.loc 1 146 22
 805 0510 3307D700 		add	a4,a4,a3
 806 0514 83460701 		lbu	a3,16(a4)
 807              	.LVL95:
 147:src/main.cpp  **** 
 808              		.loc 1 147 17 is_stmt 1
 809 0518 17070000 		la	a4,CONSOLE_TX_DATA
 809      03370700 
 810 0520 03370700 		ld	a4,0(a4)
 147:src/main.cpp  **** 
 811              		.loc 1 147 45 is_stmt 0
 812 0524 2300D700 		sb	a3,0(a4)
 149:src/main.cpp  ****                 assert(a == 10);
 813              		.loc 1 149 17 is_stmt 1
 149:src/main.cpp  ****                 assert(a == 10);
 814              		.loc 1 149 49 is_stmt 0
 815              	#APP
GAS LISTING /tmp/cckUk8c0.s 			page 25


 816              	# 149 "src/main.cpp" 1
 150:src/main.cpp  **** 
 817              		mv x10, x10
 818              	# 0 "" 2
 819              		.loc 1 150 17 is_stmt 1
 820              	#NO_APP
 821 052c 930765FF 		addi	a5,a0,-10
 822 0530 93B41700 		seqz	s1,a5
 823              	.LVL96:
 824              	.LBB97:
 825              	.LBB98:
  20:src/../h/../h/my_console.h ****         return;
 826              		.loc 3 20 5
 827 0534 63980702 		bnez	a5,.L48
  21:src/../h/../h/my_console.h **** 
 828              		.loc 3 21 9
 829              	.LVL97:
 830              	.LBE98:
 831              	.LBE97:
 152:src/main.cpp  ****                 cons->putBufferTail = (cons->putBufferTail + 1) % BUFFER_SIZE;
 832              		.loc 1 152 17
 152:src/main.cpp  ****                 cons->putBufferTail = (cons->putBufferTail + 1) % BUFFER_SIZE;
 833              		.loc 1 152 23 is_stmt 0
 834 0538 17070000 		lla	a4,_ZZN8IConsole3getEvE8instance
 834      13070700 
 835 0540 8337873F 		ld	a5,1016(a4)
 152:src/main.cpp  ****                 cons->putBufferTail = (cons->putBufferTail + 1) % BUFFER_SIZE;
 836              		.loc 1 152 37
 837 0544 9387F7FF 		addi	a5,a5,-1
 838 0548 233CF73E 		sd	a5,1016(a4)
 153:src/main.cpp  ****             }
 839              		.loc 1 153 17 is_stmt 1
 153:src/main.cpp  ****             }
 840              		.loc 1 153 46 is_stmt 0
 841 054c 83378700 		ld	a5,8(a4)
 153:src/main.cpp  ****             }
 842              		.loc 1 153 60
 843 0550 93871700 		addi	a5,a5,1
 153:src/main.cpp  ****             }
 844              		.loc 1 153 65
 845 0554 9306803E 		li	a3,1000
 846              	.LVL98:
 847 0558 B3F7D702 		remu	a5,a5,a3
 153:src/main.cpp  ****             }
 848              		.loc 1 153 37
 849 055c 2334F700 		sd	a5,8(a4)
 850              	.LBE96:
 851 0560 6F004006 		j	.L41
 852              	.LVL99:
 853              	.L48:
 854              	.LBB101:
 855              	.LBB100:
 856              	.LBB99:
  23:src/../h/../h/my_console.h ****     putString(file);
 857              		.loc 3 23 5 is_stmt 1
  23:src/../h/../h/my_console.h ****     putString(file);
 858              		.loc 3 23 14 is_stmt 0
GAS LISTING /tmp/cckUk8c0.s 			page 26


 859 0564 17050000 		lla	a0,.LC0
 859      13050500 
 860              	.LVL100:
 861 056c 97000000 		call	_Z9putStringPKc@plt
 861      E7800000 
 862              	.LVL101:
  24:src/../h/../h/my_console.h ****     putString("    line: ");
 863              		.loc 3 24 5 is_stmt 1
  24:src/../h/../h/my_console.h ****     putString("    line: ");
 864              		.loc 3 24 14 is_stmt 0
 865 0574 17050000 		lla	a0,.LC1
 865      13050500 
 866 057c 97000000 		call	_Z9putStringPKc@plt
 866      E7800000 
 867              	.LVL102:
  25:src/../h/../h/my_console.h ****     putInt(line);
 868              		.loc 3 25 5 is_stmt 1
  25:src/../h/../h/my_console.h ****     putInt(line);
 869              		.loc 3 25 14 is_stmt 0
 870 0584 17050000 		lla	a0,.LC2
 870      13050500 
 871 058c 97000000 		call	_Z9putStringPKc@plt
 871      E7800000 
 872              	.LVL103:
  26:src/../h/../h/my_console.h ****     putString("   ===========================");
 873              		.loc 3 26 5 is_stmt 1
  26:src/../h/../h/my_console.h ****     putString("   ===========================");
 874              		.loc 3 26 11 is_stmt 0
 875 0594 13056009 		li	a0,150
 876 0598 97000000 		call	_Z6putInti@plt
 876      E7800000 
 877              	.LVL104:
  27:src/../h/../h/my_console.h ****     putNewline();
 878              		.loc 3 27 5 is_stmt 1
  27:src/../h/../h/my_console.h ****     putNewline();
 879              		.loc 3 27 14 is_stmt 0
 880 05a0 17050000 		lla	a0,.LC3
 880      13050500 
 881 05a8 97000000 		call	_Z9putStringPKc@plt
 881      E7800000 
 882              	.LVL105:
  28:src/../h/../h/my_console.h **** 
 883              		.loc 3 28 5 is_stmt 1
  28:src/../h/../h/my_console.h **** 
 884              		.loc 3 28 15 is_stmt 0
 885 05b0 97000000 		call	_Z10putNewlinev@plt
 885      E7800000 
 886              	.LVL106:
 887              		.loc 3 30 5 is_stmt 1
 888              		.loc 3 30 15 is_stmt 0
 889 05b8 97000000 		call	_Z10stopKernelv@plt
 889      E7800000 
 890              	.LVL107:
 891              	.L45:
 892              	.LBE99:
 893              	.LBE100:
 894              	.LBE101:
GAS LISTING /tmp/cckUk8c0.s 			page 27


 895              	.LBE95:
 896              	.LBE94:
 897              	.LBE93:
 130:src/main.cpp  ****         bool readyRead = false;
 898              		.loc 1 130 14
 899 05c0 93040000 		li	s1,0
 900              	.LVL108:
 901              	.L41:
 157:src/main.cpp  ****         {
 902              		.loc 1 157 9 is_stmt 1
 903              	.LBB104:
 157:src/main.cpp  ****         {
 904              		.loc 1 157 15 is_stmt 0
 905 05c4 97070000 		la	a5,CONSOLE_STATUS
 905      83B70700 
 906 05cc 83B70700 		ld	a5,0(a5)
 907 05d0 83C70700 		lbu	a5,0(a5)
 157:src/main.cpp  ****         {
 908              		.loc 1 157 9
 909 05d4 93F71700 		andi	a5,a5,1
 910 05d8 63960704 		bnez	a5,.L49
 911              	.LBE104:
 171:src/main.cpp  **** 
 912              		.loc 1 171 9 is_stmt 1
 171:src/main.cpp  **** 
 913              		.loc 1 171 41 is_stmt 0
 914              	#APP
 915              	# 171 "src/main.cpp" 1
 173:src/main.cpp  **** 
 916              		mv x10, x10
 917              	# 0 "" 2
 918              		.loc 1 173 9 is_stmt 1
 173:src/main.cpp  **** 
 919              		.loc 1 173 22 is_stmt 0
 920              	#NO_APP
 921 05e0 1305A000 		li	a0,10
 922 05e4 97000000 		call	plic_complete@plt
 922      E7800000 
 923              	.LVL109:
 175:src/main.cpp  ****     }
 924              		.loc 1 175 9 is_stmt 1
 925              	.LBB108:
 926              	.LBB109:
  20:src/../h/../h/my_console.h ****         return;
 927              		.loc 3 20 5
 928 05ec 638A0408 		beqz	s1,.L50
 929              	.LVL110:
 930              	.L44:
 931              	.LBE109:
 932              	.LBE108:
 933              	.LBE92:
 126:src/main.cpp  ****     {
 934              		.loc 1 126 5
 935              	.LBB114:
 128:src/main.cpp  **** 
 936              		.loc 1 128 9
 128:src/main.cpp  **** 
GAS LISTING /tmp/cckUk8c0.s 			page 28


 937              		.loc 1 128 24 is_stmt 0
 938 05f0 97000000 		call	_Z15thread_dispatchv@plt
 938      E7800000 
 939              	.LVL111:
 130:src/main.cpp  ****         bool readyRead = false;
 940              		.loc 1 130 9 is_stmt 1
 131:src/main.cpp  **** 
 941              		.loc 1 131 9
 140:src/main.cpp  ****             readyWrite = true;
 942              		.loc 1 140 9
 943              	.LBB111:
 140:src/main.cpp  ****             readyWrite = true;
 944              		.loc 1 140 15 is_stmt 0
 945 05f8 97070000 		la	a5,CONSOLE_STATUS
 945      83B70700 
 946 0600 83B70700 		ld	a5,0(a5)
 947 0604 83C70700 		lbu	a5,0(a5)
 140:src/main.cpp  ****             readyWrite = true;
 948              		.loc 1 140 9
 949 0608 93F70702 		andi	a5,a5,32
 950 060c E38A07FA 		beqz	a5,.L45
 951              	.LBB103:
 141:src/main.cpp  ****             if (cons->putBufferItems > 0)
 952              		.loc 1 141 13 is_stmt 1
 953              	.LVL112:
 142:src/main.cpp  ****             {
 954              		.loc 1 142 13
 955              	.LBB102:
 142:src/main.cpp  ****             {
 956              		.loc 1 142 23 is_stmt 0
 957 0610 97070000 		ld	a5,_ZZN8IConsole3getEvE8instance+1016
 957      83B70700 
 142:src/main.cpp  ****             {
 958              		.loc 1 142 13
 959 0618 E39207EE 		bnez	a5,.L51
 960              	.LBE102:
 141:src/main.cpp  ****             if (cons->putBufferItems > 0)
 961              		.loc 1 141 24
 962 061c 93041000 		li	s1,1
 963 0620 6FF05FFA 		j	.L41
 964              	.LVL113:
 965              	.L49:
 966              	.LBE103:
 967              	.LBE111:
 968              	.LBB112:
 969              	.LBB105:
 159:src/main.cpp  ****             assert(cons->getBufferItems < BUFFER_SIZE - 1);
 970              		.loc 1 159 13 is_stmt 1
 971              	.LBB106:
 972              	.LBB107:
  20:src/../h/../h/my_console.h ****         return;
 973              		.loc 3 20 5
  23:src/../h/../h/my_console.h ****     putString(file);
 974              		.loc 3 23 5
  23:src/../h/../h/my_console.h ****     putString(file);
 975              		.loc 3 23 14 is_stmt 0
 976 0624 17050000 		lla	a0,.LC0
GAS LISTING /tmp/cckUk8c0.s 			page 29


 976      13050500 
 977 062c 97000000 		call	_Z9putStringPKc@plt
 977      E7800000 
 978              	.LVL114:
  24:src/../h/../h/my_console.h ****     putString("    line: ");
 979              		.loc 3 24 5 is_stmt 1
  24:src/../h/../h/my_console.h ****     putString("    line: ");
 980              		.loc 3 24 14 is_stmt 0
 981 0634 17050000 		lla	a0,.LC1
 981      13050500 
 982 063c 97000000 		call	_Z9putStringPKc@plt
 982      E7800000 
 983              	.LVL115:
  25:src/../h/../h/my_console.h ****     putInt(line);
 984              		.loc 3 25 5 is_stmt 1
  25:src/../h/../h/my_console.h ****     putInt(line);
 985              		.loc 3 25 14 is_stmt 0
 986 0644 17050000 		lla	a0,.LC2
 986      13050500 
 987 064c 97000000 		call	_Z9putStringPKc@plt
 987      E7800000 
 988              	.LVL116:
  26:src/../h/../h/my_console.h ****     putString("   ===========================");
 989              		.loc 3 26 5 is_stmt 1
  26:src/../h/../h/my_console.h ****     putString("   ===========================");
 990              		.loc 3 26 11 is_stmt 0
 991 0654 1305F009 		li	a0,159
 992 0658 97000000 		call	_Z6putInti@plt
 992      E7800000 
 993              	.LVL117:
  27:src/../h/../h/my_console.h ****     putNewline();
 994              		.loc 3 27 5 is_stmt 1
  27:src/../h/../h/my_console.h ****     putNewline();
 995              		.loc 3 27 14 is_stmt 0
 996 0660 17050000 		lla	a0,.LC3
 996      13050500 
 997 0668 97000000 		call	_Z9putStringPKc@plt
 997      E7800000 
 998              	.LVL118:
  28:src/../h/../h/my_console.h **** 
 999              		.loc 3 28 5 is_stmt 1
  28:src/../h/../h/my_console.h **** 
 1000              		.loc 3 28 15 is_stmt 0
 1001 0670 97000000 		call	_Z10putNewlinev@plt
 1001      E7800000 
 1002              	.LVL119:
 1003              		.loc 3 30 5 is_stmt 1
 1004              		.loc 3 30 15 is_stmt 0
 1005 0678 97000000 		call	_Z10stopKernelv@plt
 1005      E7800000 
 1006              	.LVL120:
 1007              	.L50:
 1008              	.LBE107:
 1009              	.LBE106:
 1010              	.LBE105:
 1011              	.LBE112:
 1012              	.LBB113:
GAS LISTING /tmp/cckUk8c0.s 			page 30


 1013              	.LBB110:
  23:src/../h/../h/my_console.h ****     putString(file);
 1014              		.loc 3 23 5 is_stmt 1
  23:src/../h/../h/my_console.h ****     putString(file);
 1015              		.loc 3 23 14 is_stmt 0
 1016 0680 17050000 		lla	a0,.LC0
 1016      13050500 
 1017 0688 97000000 		call	_Z9putStringPKc@plt
 1017      E7800000 
 1018              	.LVL121:
  24:src/../h/../h/my_console.h ****     putString("    line: ");
 1019              		.loc 3 24 5 is_stmt 1
  24:src/../h/../h/my_console.h ****     putString("    line: ");
 1020              		.loc 3 24 14 is_stmt 0
 1021 0690 17050000 		lla	a0,.LC1
 1021      13050500 
 1022 0698 97000000 		call	_Z9putStringPKc@plt
 1022      E7800000 
 1023              	.LVL122:
  25:src/../h/../h/my_console.h ****     putInt(line);
 1024              		.loc 3 25 5 is_stmt 1
  25:src/../h/../h/my_console.h ****     putInt(line);
 1025              		.loc 3 25 14 is_stmt 0
 1026 06a0 17050000 		lla	a0,.LC2
 1026      13050500 
 1027 06a8 97000000 		call	_Z9putStringPKc@plt
 1027      E7800000 
 1028              	.LVL123:
  26:src/../h/../h/my_console.h ****     putString("   ===========================");
 1029              		.loc 3 26 5 is_stmt 1
  26:src/../h/../h/my_console.h ****     putString("   ===========================");
 1030              		.loc 3 26 11 is_stmt 0
 1031 06b0 1305F00A 		li	a0,175
 1032 06b4 97000000 		call	_Z6putInti@plt
 1032      E7800000 
 1033              	.LVL124:
  27:src/../h/../h/my_console.h ****     putNewline();
 1034              		.loc 3 27 5 is_stmt 1
  27:src/../h/../h/my_console.h ****     putNewline();
 1035              		.loc 3 27 14 is_stmt 0
 1036 06bc 17050000 		lla	a0,.LC3
 1036      13050500 
 1037 06c4 97000000 		call	_Z9putStringPKc@plt
 1037      E7800000 
 1038              	.LVL125:
  28:src/../h/../h/my_console.h **** 
 1039              		.loc 3 28 5 is_stmt 1
  28:src/../h/../h/my_console.h **** 
 1040              		.loc 3 28 15 is_stmt 0
 1041 06cc 97000000 		call	_Z10putNewlinev@plt
 1041      E7800000 
 1042              	.LVL126:
 1043              		.loc 3 30 5 is_stmt 1
 1044              		.loc 3 30 15 is_stmt 0
 1045 06d4 97000000 		call	_Z10stopKernelv@plt
 1045      E7800000 
 1046              	.LVL127:
GAS LISTING /tmp/cckUk8c0.s 			page 31


 1047              	.LBE110:
 1048              	.LBE113:
 1049              	.LBE114:
 1050              		.cfi_endproc
 1051              	.LFE24:
 1053              		.align	2
 1055              	_GLOBAL__sub_I_kernelThread:
 1056              	.LFB26:
 1057              		.loc 1 177 1 is_stmt 1
 1058              		.cfi_startproc
 1059 06dc 130101FF 		addi	sp,sp,-16
 1060              		.cfi_def_cfa_offset 16
 1061 06e0 23341100 		sd	ra,8(sp)
 1062 06e4 23308100 		sd	s0,0(sp)
 1063              		.cfi_offset 1, -8
 1064              		.cfi_offset 8, -16
 1065 06e8 13040101 		addi	s0,sp,16
 1066              		.cfi_def_cfa 8, 0
 1067              		.loc 1 177 1 is_stmt 0
 1068 06ec B7050100 		li	a1,65536
 1069 06f0 9385F5FF 		addi	a1,a1,-1
 1070 06f4 13051000 		li	a0,1
 1071 06f8 97000000 		call	_Z41__static_initialization_and_destruction_0ii
 1071      E7800000 
 1072              	.LVL128:
 1073 0700 83308100 		ld	ra,8(sp)
 1074              		.cfi_restore 1
 1075 0704 03340100 		ld	s0,0(sp)
 1076              		.cfi_restore 8
 1077              		.cfi_def_cfa 2, 16
 1078 0708 13010101 		addi	sp,sp,16
 1079              		.cfi_def_cfa_offset 0
 1080 070c 67800000 		jr	ra
 1081              		.cfi_endproc
 1082              	.LFE26:
 1084              		.section	.init_array,"aw"
 1085              		.align	3
 1086 0000 00000000 		.dword	_GLOBAL__sub_I_kernelThread
 1086      00000000 
 1087              		.globl	kernelThread
 1088              		.weak	_ZGVZN8IConsole3getEvE8instance
 1089              		.section	.bss._ZGVZN8IConsole3getEvE8instance,"awG",@nobits,_ZGVZN8IConsole3getEvE8instance,comdat
 1090              		.align	3
 1093              	_ZGVZN8IConsole3getEvE8instance:
 1094 0000 00000000 		.zero	8
 1094      00000000 
 1095              		.weak	_ZZN8IConsole3getEvE8instance
 1096              		.section	.bss._ZZN8IConsole3getEvE8instance,"awG",@nobits,_ZZN8IConsole3getEvE8instance,comdat
 1097              		.align	3
 1100              	_ZZN8IConsole3getEvE8instance:
 1101 0000 00000000 		.zero	2048
 1101      00000000 
 1101      00000000 
 1101      00000000 
 1101      00000000 
 1102              		.bss
 1103              		.align	3
GAS LISTING /tmp/cckUk8c0.s 			page 32


 1104              		.set	.LANCHOR0,. + 0
 1107              	kernelThread:
 1108 0000 00000000 		.zero	80
 1108      00000000 
 1108      00000000 
 1108      00000000 
 1108      00000000 
 1109              		.text
 1110              	.Letext0:
 1111              		.file 5 "src/../h/../lib/hw.h"
 1112              		.file 6 "src/../h/alloc.h"
 1113              		.file 7 "src/../h/syscall_c.hpp"
 1114              		.file 8 "src/../h/../h/../h/risc.h"
GAS LISTING /tmp/cckUk8c0.s 			page 33


DEFINED SYMBOLS
                            *ABS*:0000000000000000 main.cpp
     /tmp/cckUk8c0.s:9      .text:0000000000000000 _Z3doCPv
     /tmp/cckUk8c0.s:13     .text:0000000000000000 .L0 
     /tmp/cckUk8c0.s:15     .text:0000000000000000 .L0 
     /tmp/cckUk8c0.s:16     .text:0000000000000004 .L0 
     /tmp/cckUk8c0.s:18     .text:0000000000000008 .L0 
     /tmp/cckUk8c0.s:20     .text:000000000000000c .L0 
     /tmp/cckUk8c0.s:22     .text:000000000000000c .L0 
     /tmp/cckUk8c0.s:23     .text:000000000000000c .L0 
     /tmp/cckUk8c0.s:25     .text:0000000000000010 .L0 
     /tmp/cckUk8c0.s:26     .text:0000000000000010 .L0 
     /tmp/cckUk8c0.s:27     .text:0000000000000010 .L0 
     /tmp/cckUk8c0.s:33     .text:0000000000000020 .L0 
        src/main.cpp:67     .text:0000000000000020 .L0 
     /tmp/cckUk8c0.s:41     .text:0000000000000024 .L0 
     /tmp/cckUk8c0.s:42     .text:0000000000000024 .L0 
     /tmp/cckUk8c0.s:47     .text:0000000000000030 .L0 
     /tmp/cckUk8c0.s:48     .text:0000000000000030 .L0 
     /tmp/cckUk8c0.s:54     .text:000000000000003c .L0 
     /tmp/cckUk8c0.s:55     .text:000000000000003c .L0 
     /tmp/cckUk8c0.s:56     .text:000000000000003c .L0 
     /tmp/cckUk8c0.s:58     .text:0000000000000040 .L0 
     /tmp/cckUk8c0.s:59     .text:0000000000000040 .L0 
     /tmp/cckUk8c0.s:62     .text:000000000000004c .L0 
     /tmp/cckUk8c0.s:64     .text:0000000000000054 .L0 
     /tmp/cckUk8c0.s:69     .text:0000000000000054 _Z41__static_initialization_and_destruction_0ii
     /tmp/cckUk8c0.s:72     .text:0000000000000054 .L0 
     /tmp/cckUk8c0.s:74     .text:0000000000000054 .L0 
     /tmp/cckUk8c0.s:75     .text:0000000000000058 .L0 
     /tmp/cckUk8c0.s:77     .text:000000000000005c .L0 
     /tmp/cckUk8c0.s:79     .text:0000000000000060 .L0 
     /tmp/cckUk8c0.s:81     .text:0000000000000060 .L0 
     /tmp/cckUk8c0.s:85     .text:000000000000006c .L0 
     /tmp/cckUk8c0.s:86     .text:000000000000006c .L0 
     /tmp/cckUk8c0.s:87     .text:000000000000006c .L0 
     /tmp/cckUk8c0.s:89     .text:0000000000000070 .L0 
     /tmp/cckUk8c0.s:92     .text:0000000000000074 .L0 
     /tmp/cckUk8c0.s:94     .text:0000000000000074 .L0 
     /tmp/cckUk8c0.s:103    .text:0000000000000080 .L0 
     /tmp/cckUk8c0.s:111    .text:0000000000000090 .L0 
     /tmp/cckUk8c0.s:112    .text:0000000000000094 .L0 
     /tmp/cckUk8c0.s:132    .text:0000000000000094 _Z11userWrapperPv
     /tmp/cckUk8c0.s:135    .text:0000000000000094 .L0 
     /tmp/cckUk8c0.s:137    .text:0000000000000094 .L0 
     /tmp/cckUk8c0.s:138    .text:0000000000000098 .L0 
     /tmp/cckUk8c0.s:141    .text:00000000000000a0 .L0 
     /tmp/cckUk8c0.s:142    .text:00000000000000a0 .L0 
     /tmp/cckUk8c0.s:144    .text:00000000000000a4 .L0 
     /tmp/cckUk8c0.s:150    .text:00000000000000a4 .L0 
     /tmp/cckUk8c0.s:151    .text:00000000000000a4 .L0 
     /tmp/cckUk8c0.s:156    .text:00000000000000a8 .L0 
     /tmp/cckUk8c0.s:157    .text:00000000000000a8 .L0 
     /tmp/cckUk8c0.s:166    .text:00000000000000c0 .L0 
     /tmp/cckUk8c0.s:171    .text:00000000000000c4 .L0 
     /tmp/cckUk8c0.s:172    .text:00000000000000c4 .L0 
     /tmp/cckUk8c0.s:173    .text:00000000000000c4 .L0 
GAS LISTING /tmp/cckUk8c0.s 			page 34


     /tmp/cckUk8c0.s:176    .text:00000000000000cc .L0 
     /tmp/cckUk8c0.s:177    .text:00000000000000cc .L0 
     /tmp/cckUk8c0.s:180    .text:00000000000000d4 .L0 
     /tmp/cckUk8c0.s:181    .text:00000000000000d8 .L0 
     /tmp/cckUk8c0.s:182    .text:00000000000000d8 .L0 
     /tmp/cckUk8c0.s:184    .text:00000000000000dc .L0 
     /tmp/cckUk8c0.s:185    .text:00000000000000dc .L0 
     /tmp/cckUk8c0.s:187    .text:00000000000000e0 .L0 
     /tmp/cckUk8c0.s:191    .text:00000000000000e4 .L0 
     /tmp/cckUk8c0.s:195    .text:00000000000000e4 .L0 
     /tmp/cckUk8c0.s:196    .text:00000000000000e4 .L0 
     /tmp/cckUk8c0.s:201    .text:00000000000000f4 .L0 
     /tmp/cckUk8c0.s:202    .text:00000000000000f4 .L0 
     /tmp/cckUk8c0.s:206    .text:0000000000000104 .L0 
     /tmp/cckUk8c0.s:207    .text:0000000000000104 .L0 
     /tmp/cckUk8c0.s:211    .text:0000000000000114 .L0 
     /tmp/cckUk8c0.s:212    .text:0000000000000114 .L0 
     /tmp/cckUk8c0.s:216    .text:0000000000000120 .L0 
     /tmp/cckUk8c0.s:217    .text:0000000000000120 .L0 
     /tmp/cckUk8c0.s:221    .text:0000000000000130 .L0 
     /tmp/cckUk8c0.s:222    .text:0000000000000130 .L0 
     /tmp/cckUk8c0.s:225    .text:0000000000000138 .L0 
     /tmp/cckUk8c0.s:226    .text:0000000000000138 .L0 
     /tmp/cckUk8c0.s:234    .text:0000000000000140 .L0 
     /tmp/cckUk8c0.s:235    .text:0000000000000140 .L0 
     /tmp/cckUk8c0.s:240    .text:0000000000000150 .L0 
     /tmp/cckUk8c0.s:241    .text:0000000000000150 .L0 
     /tmp/cckUk8c0.s:245    .text:0000000000000160 .L0 
     /tmp/cckUk8c0.s:246    .text:0000000000000160 .L0 
     /tmp/cckUk8c0.s:250    .text:0000000000000170 .L0 
     /tmp/cckUk8c0.s:251    .text:0000000000000170 .L0 
     /tmp/cckUk8c0.s:255    .text:000000000000017c .L0 
     /tmp/cckUk8c0.s:256    .text:000000000000017c .L0 
     /tmp/cckUk8c0.s:260    .text:000000000000018c .L0 
     /tmp/cckUk8c0.s:261    .text:000000000000018c .L0 
     /tmp/cckUk8c0.s:264    .text:0000000000000194 .L0 
     /tmp/cckUk8c0.s:265    .text:0000000000000194 .L0 
     /tmp/cckUk8c0.s:269    .text:000000000000019c .L0 
     /tmp/cckUk8c0.s:276    .text._Z7_assertbPKci:0000000000000000 _Z7_assertbPKci
     /tmp/cckUk8c0.s:279    .text._Z7_assertbPKci:0000000000000000 .L0 
     /tmp/cckUk8c0.s:281    .text._Z7_assertbPKci:0000000000000000 .L0 
     /tmp/cckUk8c0.s:282    .text._Z7_assertbPKci:0000000000000000 .L0 
     /tmp/cckUk8c0.s:286    .text._Z7_assertbPKci:0000000000000008 .L0 
     /tmp/cckUk8c0.s:287    .text._Z7_assertbPKci:000000000000000c .L0 
     /tmp/cckUk8c0.s:292    .text._Z7_assertbPKci:000000000000001c .L0 
     /tmp/cckUk8c0.s:293    .text._Z7_assertbPKci:000000000000001c .L0 
     /tmp/cckUk8c0.s:294    .text._Z7_assertbPKci:000000000000001c .L0 
     /tmp/cckUk8c0.s:295    .text._Z7_assertbPKci:000000000000001c .L0 
     /tmp/cckUk8c0.s:297    .text._Z7_assertbPKci:0000000000000020 .L0 
     /tmp/cckUk8c0.s:301    .text._Z7_assertbPKci:0000000000000028 .L0 
     /tmp/cckUk8c0.s:302    .text._Z7_assertbPKci:0000000000000028 .L0 
     /tmp/cckUk8c0.s:307    .text._Z7_assertbPKci:0000000000000038 .L0 
     /tmp/cckUk8c0.s:308    .text._Z7_assertbPKci:0000000000000038 .L0 
     /tmp/cckUk8c0.s:312    .text._Z7_assertbPKci:0000000000000044 .L0 
     /tmp/cckUk8c0.s:313    .text._Z7_assertbPKci:0000000000000044 .L0 
     /tmp/cckUk8c0.s:317    .text._Z7_assertbPKci:0000000000000054 .L0 
     /tmp/cckUk8c0.s:318    .text._Z7_assertbPKci:0000000000000054 .L0 
GAS LISTING /tmp/cckUk8c0.s 			page 35


     /tmp/cckUk8c0.s:322    .text._Z7_assertbPKci:0000000000000060 .L0 
     /tmp/cckUk8c0.s:323    .text._Z7_assertbPKci:0000000000000060 .L0 
     /tmp/cckUk8c0.s:327    .text._Z7_assertbPKci:0000000000000070 .L0 
     /tmp/cckUk8c0.s:328    .text._Z7_assertbPKci:0000000000000070 .L0 
     /tmp/cckUk8c0.s:331    .text._Z7_assertbPKci:0000000000000078 .L0 
     /tmp/cckUk8c0.s:332    .text._Z7_assertbPKci:0000000000000078 .L0 
     /tmp/cckUk8c0.s:334    .text._Z7_assertbPKci:0000000000000080 .L0 
     /tmp/cckUk8c0.s:341    .text:000000000000019c _Z13testAsyncCallv
     /tmp/cckUk8c0.s:344    .text:000000000000019c .L0 
     /tmp/cckUk8c0.s:345    .text:000000000000019c .L0 
     /tmp/cckUk8c0.s:346    .text:00000000000001a0 .L0 
     /tmp/cckUk8c0.s:349    .text:00000000000001a8 .L0 
     /tmp/cckUk8c0.s:350    .text:00000000000001a8 .L0 
     /tmp/cckUk8c0.s:352    .text:00000000000001ac .L0 
     /tmp/cckUk8c0.s:354    .text:00000000000001ac .L0 
     /tmp/cckUk8c0.s:361    .text:00000000000001bc .L0 
     /tmp/cckUk8c0.s:366    .text:00000000000001c0 .L0 
     /tmp/cckUk8c0.s:367    .text:00000000000001c0 .L0 
     /tmp/cckUk8c0.s:368    .text:00000000000001c0 .L0 
     /tmp/cckUk8c0.s:371    .text:00000000000001c8 .L0 
     /tmp/cckUk8c0.s:372    .text:00000000000001c8 .L0 
     /tmp/cckUk8c0.s:373    .text:00000000000001c8 .L0 
     /tmp/cckUk8c0.s:379    .text:00000000000001e0 .L0 
     /tmp/cckUk8c0.s:380    .text:00000000000001e0 .L0 
     /tmp/cckUk8c0.s:383    .text:00000000000001e8 .L0 
     /tmp/cckUk8c0.s:390    .text:00000000000001f8 .L0 
     /tmp/cckUk8c0.s:394    .text:00000000000001fc .L0 
     /tmp/cckUk8c0.s:395    .text:0000000000000200 .L0 
     /tmp/cckUk8c0.s:396    .text:0000000000000200 .L0 
     /tmp/cckUk8c0.s:398    .text:0000000000000204 .L0 
     /tmp/cckUk8c0.s:399    .text:0000000000000204 .L0 
     /tmp/cckUk8c0.s:401    .text:0000000000000208 .L0 
     /tmp/cckUk8c0.s:405    .text:000000000000020c .L0 
     /tmp/cckUk8c0.s:409    .text:000000000000020c .L0 
     /tmp/cckUk8c0.s:410    .text:000000000000020c .L0 
     /tmp/cckUk8c0.s:415    .text:000000000000021c .L0 
     /tmp/cckUk8c0.s:416    .text:000000000000021c .L0 
     /tmp/cckUk8c0.s:420    .text:000000000000022c .L0 
     /tmp/cckUk8c0.s:421    .text:000000000000022c .L0 
     /tmp/cckUk8c0.s:425    .text:000000000000023c .L0 
     /tmp/cckUk8c0.s:426    .text:000000000000023c .L0 
     /tmp/cckUk8c0.s:430    .text:0000000000000248 .L0 
     /tmp/cckUk8c0.s:431    .text:0000000000000248 .L0 
     /tmp/cckUk8c0.s:435    .text:0000000000000258 .L0 
     /tmp/cckUk8c0.s:436    .text:0000000000000258 .L0 
     /tmp/cckUk8c0.s:439    .text:0000000000000260 .L0 
     /tmp/cckUk8c0.s:440    .text:0000000000000260 .L0 
     /tmp/cckUk8c0.s:448    .text:0000000000000268 .L0 
     /tmp/cckUk8c0.s:449    .text:0000000000000268 .L0 
     /tmp/cckUk8c0.s:454    .text:0000000000000278 .L0 
     /tmp/cckUk8c0.s:455    .text:0000000000000278 .L0 
     /tmp/cckUk8c0.s:459    .text:0000000000000288 .L0 
     /tmp/cckUk8c0.s:460    .text:0000000000000288 .L0 
     /tmp/cckUk8c0.s:464    .text:0000000000000298 .L0 
     /tmp/cckUk8c0.s:465    .text:0000000000000298 .L0 
     /tmp/cckUk8c0.s:469    .text:00000000000002a4 .L0 
     /tmp/cckUk8c0.s:470    .text:00000000000002a4 .L0 
GAS LISTING /tmp/cckUk8c0.s 			page 36


     /tmp/cckUk8c0.s:474    .text:00000000000002b4 .L0 
     /tmp/cckUk8c0.s:475    .text:00000000000002b4 .L0 
     /tmp/cckUk8c0.s:478    .text:00000000000002bc .L0 
     /tmp/cckUk8c0.s:479    .text:00000000000002bc .L0 
     /tmp/cckUk8c0.s:483    .text:00000000000002c4 .L0 
     /tmp/cckUk8c0.s:489    .text:00000000000002c4 _Z16doInitialAssertsv
     /tmp/cckUk8c0.s:492    .text:00000000000002c4 .L0 
     /tmp/cckUk8c0.s:493    .text:00000000000002c4 .L0 
     /tmp/cckUk8c0.s:495    .text:00000000000002c4 .L0 
     /tmp/cckUk8c0.s:496    .text:00000000000002c4 .L0 
     /tmp/cckUk8c0.s:497    .text:00000000000002c4 .L0 
     /tmp/cckUk8c0.s:498    .text:00000000000002c4 .L0 
     /tmp/cckUk8c0.s:510    .text:00000000000002ec .L0 
     /tmp/cckUk8c0.s:516    .text:00000000000002f4 .L0 
     /tmp/cckUk8c0.s:517    .text:00000000000002f8 .L0 
     /tmp/cckUk8c0.s:520    .text:0000000000000300 .L0 
     /tmp/cckUk8c0.s:521    .text:0000000000000300 .L0 
     /tmp/cckUk8c0.s:523    .text:0000000000000304 .L0 
     /tmp/cckUk8c0.s:527    .text:0000000000000304 .L0 
     /tmp/cckUk8c0.s:528    .text:0000000000000304 .L0 
     /tmp/cckUk8c0.s:532    .text:0000000000000314 .L0 
     /tmp/cckUk8c0.s:533    .text:0000000000000314 .L0 
     /tmp/cckUk8c0.s:537    .text:0000000000000324 .L0 
     /tmp/cckUk8c0.s:538    .text:0000000000000324 .L0 
     /tmp/cckUk8c0.s:542    .text:0000000000000334 .L0 
     /tmp/cckUk8c0.s:543    .text:0000000000000334 .L0 
     /tmp/cckUk8c0.s:547    .text:0000000000000340 .L0 
     /tmp/cckUk8c0.s:548    .text:0000000000000340 .L0 
     /tmp/cckUk8c0.s:552    .text:0000000000000350 .L0 
     /tmp/cckUk8c0.s:553    .text:0000000000000350 .L0 
     /tmp/cckUk8c0.s:556    .text:0000000000000358 .L0 
     /tmp/cckUk8c0.s:557    .text:0000000000000358 .L0 
     /tmp/cckUk8c0.s:561    .text:0000000000000360 .L0 
     /tmp/cckUk8c0.s:567    .text:0000000000000360 _Z19initInterruptVectorv
     /tmp/cckUk8c0.s:570    .text:0000000000000360 .L0 
     /tmp/cckUk8c0.s:571    .text:0000000000000360 .L0 
     /tmp/cckUk8c0.s:572    .text:0000000000000364 .L0 
     /tmp/cckUk8c0.s:574    .text:0000000000000368 .L0 
     /tmp/cckUk8c0.s:576    .text:000000000000036c .L0 
     /tmp/cckUk8c0.s:578    .text:000000000000036c .L0 
     /tmp/cckUk8c0.s:579    .text:000000000000036c .L0 
     /tmp/cckUk8c0.s:585    .text:0000000000000378 .L0 
        src/main.cpp:113    .text:0000000000000378 .L0 
     /tmp/cckUk8c0.s:590    .text:000000000000037c .L0 
        src/main.cpp:114    .text:000000000000037c .L0 
     /tmp/cckUk8c0.s:596    .text:0000000000000380 .L0 
     /tmp/cckUk8c0.s:597    .text:0000000000000384 .L0 
     /tmp/cckUk8c0.s:598    .text:0000000000000384 .L0 
     /tmp/cckUk8c0.s:600    .text:0000000000000388 .L0 
     /tmp/cckUk8c0.s:602    .text:000000000000038c .L0 
     /tmp/cckUk8c0.s:608    .text:000000000000038c main
     /tmp/cckUk8c0.s:611    .text:000000000000038c .L0 
     /tmp/cckUk8c0.s:612    .text:000000000000038c .L0 
     /tmp/cckUk8c0.s:613    .text:0000000000000390 .L0 
     /tmp/cckUk8c0.s:617    .text:000000000000039c .L0 
     /tmp/cckUk8c0.s:618    .text:000000000000039c .L0 
     /tmp/cckUk8c0.s:619    .text:000000000000039c .L0 
GAS LISTING /tmp/cckUk8c0.s 			page 37


     /tmp/cckUk8c0.s:621    .text:00000000000003a0 .L0 
     /tmp/cckUk8c0.s:623    .text:00000000000003a0 .L0 
     /tmp/cckUk8c0.s:624    .text:00000000000003a0 .L0 
     /tmp/cckUk8c0.s:627    .text:00000000000003a8 .L0 
     /tmp/cckUk8c0.s:628    .text:00000000000003a8 .L0 
     /tmp/cckUk8c0.s:631    .text:00000000000003b0 .L0 
     /tmp/cckUk8c0.s:632    .text:00000000000003b0 .L0 
     /tmp/cckUk8c0.s:635    .text:00000000000003b8 .L0 
     /tmp/cckUk8c0.s:636    .text:00000000000003b8 .L0 
        src/main.cpp:35     .text:00000000000003b8 .L0 
     /tmp/cckUk8c0.s:643    .text:00000000000003bc .L0 
     /tmp/cckUk8c0.s:645    .text:00000000000003bc .L0 
     /tmp/cckUk8c0.s:648    .text:00000000000003c8 .L0 
     /tmp/cckUk8c0.s:649    .text:00000000000003c8 .L0 
     /tmp/cckUk8c0.s:653    .text:00000000000003d4 .L0 
     /tmp/cckUk8c0.s:665    .text:0000000000000408 .L0 
     /tmp/cckUk8c0.s:666    .text:0000000000000408 .L0 
     /tmp/cckUk8c0.s:668    .text:000000000000040c .L0 
     /tmp/cckUk8c0.s:669    .text:000000000000040c .L0 
     /tmp/cckUk8c0.s:672    .text:0000000000000418 .L0 
     /tmp/cckUk8c0.s:673    .text:0000000000000418 .L0 
     /tmp/cckUk8c0.s:674    .text:0000000000000418 .L0 
     /tmp/cckUk8c0.s:680    .text:0000000000000430 .L0 
     /tmp/cckUk8c0.s:681    .text:0000000000000430 .L0 
     /tmp/cckUk8c0.s:686    .text:0000000000000440 .L0 
     /tmp/cckUk8c0.s:689    .text:000000000000044c .L0 
     /tmp/cckUk8c0.s:690    .text:000000000000044c .L0 
     /tmp/cckUk8c0.s:693    .text:0000000000000454 .L0 
     /tmp/cckUk8c0.s:694    .text:0000000000000454 .L0 
     /tmp/cckUk8c0.s:698    .text:0000000000000460 .L0 
        src/main.cpp:50     .text:0000000000000460 .L0 
     /tmp/cckUk8c0.s:704    .text:0000000000000464 .L0 
        src/main.cpp:51     .text:0000000000000464 .L0 
     /tmp/cckUk8c0.s:709    .text:0000000000000468 .L0 
        src/main.cpp:53     .text:0000000000000468 .L0 
     /tmp/cckUk8c0.s:714    .text:000000000000046c .L0 
     /tmp/cckUk8c0.s:716    .text:000000000000046c .L0 
     /tmp/cckUk8c0.s:718    .text:0000000000000474 .L0 
     /tmp/cckUk8c0.s:720    .text:0000000000000478 .L0 
     /tmp/cckUk8c0.s:721    .text:0000000000000478 .L0 
     /tmp/cckUk8c0.s:723    .text:000000000000047c .L0 
     /tmp/cckUk8c0.s:725    .text:0000000000000480 .L0 
     /tmp/cckUk8c0.s:727    .text:0000000000000484 .L0 
     /tmp/cckUk8c0.s:733    .text:0000000000000484 _Z12consoleStuffPv
     /tmp/cckUk8c0.s:736    .text:0000000000000484 .L0 
     /tmp/cckUk8c0.s:738    .text:0000000000000484 .L0 
     /tmp/cckUk8c0.s:739    .text:0000000000000488 .L0 
     /tmp/cckUk8c0.s:743    .text:0000000000000494 .L0 
     /tmp/cckUk8c0.s:744    .text:0000000000000494 .L0 
     /tmp/cckUk8c0.s:745    .text:0000000000000494 .L0 
     /tmp/cckUk8c0.s:747    .text:0000000000000498 .L0 
     /tmp/cckUk8c0.s:750    .text:000000000000049c .L0 
     /tmp/cckUk8c0.s:757    .text:00000000000004b4 .L0 
     /tmp/cckUk8c0.s:766    .text:00000000000004cc .L0 
     /tmp/cckUk8c0.s:767    .text:00000000000004cc .L0 
     /tmp/cckUk8c0.s:1093   .bss._ZGVZN8IConsole3getEvE8instance:0000000000000000 _ZGVZN8IConsole3getEvE8instance
     /tmp/cckUk8c0.s:768    .text:00000000000004cc .L0 
GAS LISTING /tmp/cckUk8c0.s 			page 38


     /tmp/cckUk8c0.s:1100   .bss._ZZN8IConsole3getEvE8instance:0000000000000000 _ZZN8IConsole3getEvE8instance
     /tmp/cckUk8c0.s:775    .text:00000000000004d8 .L0 
     /tmp/cckUk8c0.s:784    .text:00000000000004ec .L0 
     /tmp/cckUk8c0.s:797    .text:00000000000004fc .L0 
     /tmp/cckUk8c0.s:798    .text:00000000000004fc .L0 
     /tmp/cckUk8c0.s:801    .text:0000000000000504 .L0 
     /tmp/cckUk8c0.s:802    .text:0000000000000504 .L0 
     /tmp/cckUk8c0.s:805    .text:0000000000000510 .L0 
     /tmp/cckUk8c0.s:809    .text:0000000000000518 .L0 
     /tmp/cckUk8c0.s:812    .text:0000000000000524 .L0 
     /tmp/cckUk8c0.s:814    .text:0000000000000528 .L0 
        src/main.cpp:149    .text:0000000000000528 .L0 
     /tmp/cckUk8c0.s:821    .text:000000000000052c .L0 
     /tmp/cckUk8c0.s:827    .text:0000000000000534 .L0 
     /tmp/cckUk8c0.s:832    .text:0000000000000538 .L0 
     /tmp/cckUk8c0.s:833    .text:0000000000000538 .L0 
     /tmp/cckUk8c0.s:834    .text:0000000000000538 .L0 
     /tmp/cckUk8c0.s:837    .text:0000000000000544 .L0 
     /tmp/cckUk8c0.s:840    .text:000000000000054c .L0 
     /tmp/cckUk8c0.s:841    .text:000000000000054c .L0 
     /tmp/cckUk8c0.s:843    .text:0000000000000550 .L0 
     /tmp/cckUk8c0.s:845    .text:0000000000000554 .L0 
     /tmp/cckUk8c0.s:849    .text:000000000000055c .L0 
     /tmp/cckUk8c0.s:858    .text:0000000000000564 .L0 
     /tmp/cckUk8c0.s:859    .text:0000000000000564 .L0 
     /tmp/cckUk8c0.s:864    .text:0000000000000574 .L0 
     /tmp/cckUk8c0.s:865    .text:0000000000000574 .L0 
     /tmp/cckUk8c0.s:869    .text:0000000000000584 .L0 
     /tmp/cckUk8c0.s:870    .text:0000000000000584 .L0 
     /tmp/cckUk8c0.s:874    .text:0000000000000594 .L0 
     /tmp/cckUk8c0.s:875    .text:0000000000000594 .L0 
     /tmp/cckUk8c0.s:879    .text:00000000000005a0 .L0 
     /tmp/cckUk8c0.s:880    .text:00000000000005a0 .L0 
     /tmp/cckUk8c0.s:884    .text:00000000000005b0 .L0 
     /tmp/cckUk8c0.s:885    .text:00000000000005b0 .L0 
     /tmp/cckUk8c0.s:888    .text:00000000000005b8 .L0 
     /tmp/cckUk8c0.s:889    .text:00000000000005b8 .L0 
     /tmp/cckUk8c0.s:899    .text:00000000000005c0 .L0 
     /tmp/cckUk8c0.s:904    .text:00000000000005c4 .L0 
     /tmp/cckUk8c0.s:905    .text:00000000000005c4 .L0 
     /tmp/cckUk8c0.s:909    .text:00000000000005d4 .L0 
     /tmp/cckUk8c0.s:913    .text:00000000000005dc .L0 
        src/main.cpp:171    .text:00000000000005dc .L0 
     /tmp/cckUk8c0.s:919    .text:00000000000005e0 .L0 
     /tmp/cckUk8c0.s:921    .text:00000000000005e0 .L0 
     /tmp/cckUk8c0.s:927    .text:00000000000005ec .L0 
     /tmp/cckUk8c0.s:928    .text:00000000000005ec .L0 
     /tmp/cckUk8c0.s:936    .text:00000000000005f0 .L0 
     /tmp/cckUk8c0.s:937    .text:00000000000005f0 .L0 
     /tmp/cckUk8c0.s:938    .text:00000000000005f0 .L0 
     /tmp/cckUk8c0.s:941    .text:00000000000005f8 .L0 
     /tmp/cckUk8c0.s:942    .text:00000000000005f8 .L0 
     /tmp/cckUk8c0.s:944    .text:00000000000005f8 .L0 
     /tmp/cckUk8c0.s:945    .text:00000000000005f8 .L0 
     /tmp/cckUk8c0.s:949    .text:0000000000000608 .L0 
     /tmp/cckUk8c0.s:954    .text:0000000000000610 .L0 
     /tmp/cckUk8c0.s:956    .text:0000000000000610 .L0 
GAS LISTING /tmp/cckUk8c0.s 			page 39


     /tmp/cckUk8c0.s:957    .text:0000000000000610 .L0 
     /tmp/cckUk8c0.s:959    .text:0000000000000618 .L0 
     /tmp/cckUk8c0.s:962    .text:000000000000061c .L0 
     /tmp/cckUk8c0.s:973    .text:0000000000000624 .L0 
     /tmp/cckUk8c0.s:974    .text:0000000000000624 .L0 
     /tmp/cckUk8c0.s:975    .text:0000000000000624 .L0 
     /tmp/cckUk8c0.s:976    .text:0000000000000624 .L0 
     /tmp/cckUk8c0.s:980    .text:0000000000000634 .L0 
     /tmp/cckUk8c0.s:981    .text:0000000000000634 .L0 
     /tmp/cckUk8c0.s:985    .text:0000000000000644 .L0 
     /tmp/cckUk8c0.s:986    .text:0000000000000644 .L0 
     /tmp/cckUk8c0.s:990    .text:0000000000000654 .L0 
     /tmp/cckUk8c0.s:991    .text:0000000000000654 .L0 
     /tmp/cckUk8c0.s:995    .text:0000000000000660 .L0 
     /tmp/cckUk8c0.s:996    .text:0000000000000660 .L0 
     /tmp/cckUk8c0.s:1000   .text:0000000000000670 .L0 
     /tmp/cckUk8c0.s:1001   .text:0000000000000670 .L0 
     /tmp/cckUk8c0.s:1004   .text:0000000000000678 .L0 
     /tmp/cckUk8c0.s:1005   .text:0000000000000678 .L0 
     /tmp/cckUk8c0.s:1015   .text:0000000000000680 .L0 
     /tmp/cckUk8c0.s:1016   .text:0000000000000680 .L0 
     /tmp/cckUk8c0.s:1020   .text:0000000000000690 .L0 
     /tmp/cckUk8c0.s:1021   .text:0000000000000690 .L0 
     /tmp/cckUk8c0.s:1025   .text:00000000000006a0 .L0 
     /tmp/cckUk8c0.s:1026   .text:00000000000006a0 .L0 
     /tmp/cckUk8c0.s:1030   .text:00000000000006b0 .L0 
     /tmp/cckUk8c0.s:1031   .text:00000000000006b0 .L0 
     /tmp/cckUk8c0.s:1035   .text:00000000000006bc .L0 
     /tmp/cckUk8c0.s:1036   .text:00000000000006bc .L0 
     /tmp/cckUk8c0.s:1040   .text:00000000000006cc .L0 
     /tmp/cckUk8c0.s:1041   .text:00000000000006cc .L0 
     /tmp/cckUk8c0.s:1044   .text:00000000000006d4 .L0 
     /tmp/cckUk8c0.s:1045   .text:00000000000006d4 .L0 
     /tmp/cckUk8c0.s:1050   .text:00000000000006dc .L0 
     /tmp/cckUk8c0.s:1055   .text:00000000000006dc _GLOBAL__sub_I_kernelThread
     /tmp/cckUk8c0.s:1058   .text:00000000000006dc .L0 
     /tmp/cckUk8c0.s:1059   .text:00000000000006dc .L0 
     /tmp/cckUk8c0.s:1060   .text:00000000000006e0 .L0 
     /tmp/cckUk8c0.s:1063   .text:00000000000006e8 .L0 
     /tmp/cckUk8c0.s:1064   .text:00000000000006e8 .L0 
     /tmp/cckUk8c0.s:1066   .text:00000000000006ec .L0 
     /tmp/cckUk8c0.s:1068   .text:00000000000006ec .L0 
     /tmp/cckUk8c0.s:1074   .text:0000000000000704 .L0 
     /tmp/cckUk8c0.s:1076   .text:0000000000000708 .L0 
     /tmp/cckUk8c0.s:1077   .text:0000000000000708 .L0 
     /tmp/cckUk8c0.s:1079   .text:000000000000070c .L0 
     /tmp/cckUk8c0.s:1081   .text:0000000000000710 .L0 
     /tmp/cckUk8c0.s:1107   .bss:0000000000000000 kernelThread
     /tmp/cckUk8c0.s:1104   .bss:0000000000000000 .LANCHOR0
     /tmp/cckUk8c0.s:1115   .text:0000000000000710 .L0 
     /tmp/cckUk8c0.s:337    .text._Z7_assertbPKci:0000000000000080 .L0 
     /tmp/cckUk8c0.s:27     .text:0000000000000010 .L0 
     /tmp/cckUk8c0.s:48     .text:0000000000000030 .L0 
     /tmp/cckUk8c0.s:59     .text:0000000000000040 .L0 
     /tmp/cckUk8c0.s:103    .text:0000000000000080 .L0 
     /tmp/cckUk8c0.s:160    .text:00000000000000b4 .L0 
     /tmp/cckUk8c0.s:117    .rodata.str1.8:0000000000000000 .LC0
GAS LISTING /tmp/cckUk8c0.s 			page 40


     /tmp/cckUk8c0.s:196    .text:00000000000000e4 .L0 
     /tmp/cckUk8c0.s:120    .rodata.str1.8:0000000000000028 .LC1
     /tmp/cckUk8c0.s:202    .text:00000000000000f4 .L0 
     /tmp/cckUk8c0.s:123    .rodata.str1.8:0000000000000038 .LC2
     /tmp/cckUk8c0.s:207    .text:0000000000000104 .L0 
     /tmp/cckUk8c0.s:126    .rodata.str1.8:0000000000000048 .LC3
     /tmp/cckUk8c0.s:217    .text:0000000000000120 .L0 
     /tmp/cckUk8c0.s:235    .text:0000000000000140 .L0 
     /tmp/cckUk8c0.s:241    .text:0000000000000150 .L0 
     /tmp/cckUk8c0.s:246    .text:0000000000000160 .L0 
     /tmp/cckUk8c0.s:256    .text:000000000000017c .L0 
     /tmp/cckUk8c0.s:374    .text:00000000000001cc .L0 
     /tmp/cckUk8c0.s:410    .text:000000000000020c .L0 
     /tmp/cckUk8c0.s:416    .text:000000000000021c .L0 
     /tmp/cckUk8c0.s:421    .text:000000000000022c .L0 
     /tmp/cckUk8c0.s:431    .text:0000000000000248 .L0 
     /tmp/cckUk8c0.s:449    .text:0000000000000268 .L0 
     /tmp/cckUk8c0.s:455    .text:0000000000000278 .L0 
     /tmp/cckUk8c0.s:460    .text:0000000000000288 .L0 
     /tmp/cckUk8c0.s:470    .text:00000000000002a4 .L0 
     /tmp/cckUk8c0.s:498    .text:00000000000002c4 .L0 
     /tmp/cckUk8c0.s:500    .text:00000000000002d0 .L0 
     /tmp/cckUk8c0.s:528    .text:0000000000000304 .L0 
     /tmp/cckUk8c0.s:533    .text:0000000000000314 .L0 
     /tmp/cckUk8c0.s:538    .text:0000000000000324 .L0 
     /tmp/cckUk8c0.s:548    .text:0000000000000340 .L0 
     /tmp/cckUk8c0.s:579    .text:000000000000036c .L0 
     /tmp/cckUk8c0.s:645    .text:00000000000003bc .L0 
     /tmp/cckUk8c0.s:656    .text:00000000000003e0 .L0 
     /tmp/cckUk8c0.s:660    .text:00000000000003f4 .L0 
     /tmp/cckUk8c0.s:669    .text:000000000000040c .L0 
     /tmp/cckUk8c0.s:675    .text:000000000000041c .L0 
     /tmp/cckUk8c0.s:686    .text:0000000000000440 .L0 
     /tmp/cckUk8c0.s:751    .text:00000000000004a0 .L0 
     /tmp/cckUk8c0.s:758    .text:00000000000004b8 .L0 
     /tmp/cckUk8c0.s:768    .text:00000000000004cc .L0 
     /tmp/cckUk8c0.s:775    .text:00000000000004d8 .L0 
     /tmp/cckUk8c0.s:785    .text:00000000000004f0 .L0 
     /tmp/cckUk8c0.s:802    .text:0000000000000504 .L0 
     /tmp/cckUk8c0.s:809    .text:0000000000000518 .L0 
     /tmp/cckUk8c0.s:834    .text:0000000000000538 .L0 
     /tmp/cckUk8c0.s:859    .text:0000000000000564 .L0 
     /tmp/cckUk8c0.s:865    .text:0000000000000574 .L0 
     /tmp/cckUk8c0.s:870    .text:0000000000000584 .L0 
     /tmp/cckUk8c0.s:880    .text:00000000000005a0 .L0 
     /tmp/cckUk8c0.s:905    .text:00000000000005c4 .L0 
     /tmp/cckUk8c0.s:945    .text:00000000000005f8 .L0 
     /tmp/cckUk8c0.s:957    .text:0000000000000610 .L0 
     /tmp/cckUk8c0.s:976    .text:0000000000000624 .L0 
     /tmp/cckUk8c0.s:981    .text:0000000000000634 .L0 
     /tmp/cckUk8c0.s:986    .text:0000000000000644 .L0 
     /tmp/cckUk8c0.s:996    .text:0000000000000660 .L0 
     /tmp/cckUk8c0.s:1016   .text:0000000000000680 .L0 
     /tmp/cckUk8c0.s:1021   .text:0000000000000690 .L0 
     /tmp/cckUk8c0.s:1026   .text:00000000000006a0 .L0 
     /tmp/cckUk8c0.s:1036   .text:00000000000006bc .L0 
     /tmp/cckUk8c0.s:52     .text:000000000000003c .L3
GAS LISTING /tmp/cckUk8c0.s 			page 41


     /tmp/cckUk8c0.s:31     .text:0000000000000020 .L5
     /tmp/cckUk8c0.s:39     .text:0000000000000024 .L2
     /tmp/cckUk8c0.s:91     .text:0000000000000074 .L9
     /tmp/cckUk8c0.s:83     .text:0000000000000068 .L6
     /tmp/cckUk8c0.s:190    .text:00000000000000e4 .L14
     /tmp/cckUk8c0.s:228    .text:0000000000000140 .L15
     /tmp/cckUk8c0.s:404    .text:000000000000020c .L27
     /tmp/cckUk8c0.s:442    .text:0000000000000268 .L28
     /tmp/cckUk8c0.s:512    .text:00000000000002f4 .L34
     /tmp/cckUk8c0.s:930    .text:00000000000005f0 .L44
     /tmp/cckUk8c0.s:853    .text:0000000000000564 .L48
     /tmp/cckUk8c0.s:901    .text:00000000000005c4 .L41
     /tmp/cckUk8c0.s:965    .text:0000000000000624 .L49
     /tmp/cckUk8c0.s:1007   .text:0000000000000680 .L50
     /tmp/cckUk8c0.s:891    .text:00000000000005c0 .L45
     /tmp/cckUk8c0.s:788    .text:00000000000004fc .L51
     /tmp/cckUk8c0.s:302    .text._Z7_assertbPKci:0000000000000028 .L0 
     /tmp/cckUk8c0.s:313    .text._Z7_assertbPKci:0000000000000044 .L0 
     /tmp/cckUk8c0.s:323    .text._Z7_assertbPKci:0000000000000060 .L0 
     /tmp/cckUk8c0.s:284    .text._Z7_assertbPKci:0000000000000008 .L22
     /tmp/cckUk8c0.s:3312   .debug_abbrev:0000000000000000 .Ldebug_abbrev0
     /tmp/cckUk8c0.s:5419   .debug_str:000000000000079e .LASF148
     /tmp/cckUk8c0.s:5283   .debug_str:00000000000003b6 .LASF149
     /tmp/cckUk8c0.s:5371   .debug_str:000000000000063c .LASF150
     /tmp/cckUk8c0.s:5093   .debug_ranges:0000000000000000 .Ldebug_ranges0
     /tmp/cckUk8c0.s:5155   .debug_line:0000000000000000 .Ldebug_line0
     /tmp/cckUk8c0.s:5323   .debug_str:00000000000004e0 .LASF0
     /tmp/cckUk8c0.s:5347   .debug_str:000000000000058d .LASF1
     /tmp/cckUk8c0.s:5303   .debug_str:0000000000000452 .LASF2
     /tmp/cckUk8c0.s:5273   .debug_str:0000000000000388 .LASF4
     /tmp/cckUk8c0.s:5397   .debug_str:0000000000000713 .LASF3
     /tmp/cckUk8c0.s:5187   .debug_str:00000000000000fd .LASF5
     /tmp/cckUk8c0.s:5351   .debug_str:00000000000005b4 .LASF6
     /tmp/cckUk8c0.s:5321   .debug_str:00000000000004cd .LASF7
     /tmp/cckUk8c0.s:5433   .debug_str:00000000000008c1 .LASF8
     /tmp/cckUk8c0.s:5253   .debug_str:000000000000030d .LASF9
     /tmp/cckUk8c0.s:5367   .debug_str:0000000000000624 .LASF10
     /tmp/cckUk8c0.s:5423   .debug_str:000000000000086d .LASF11
     /tmp/cckUk8c0.s:5191   .debug_str:0000000000000115 .LASF12
     /tmp/cckUk8c0.s:5165   .debug_str:000000000000005e .LASF13
     /tmp/cckUk8c0.s:5201   .debug_str:0000000000000162 .LASF14
     /tmp/cckUk8c0.s:5389   .debug_str:00000000000006c2 .LASF15
     /tmp/cckUk8c0.s:5217   .debug_str:00000000000001d7 .LASF16
     /tmp/cckUk8c0.s:5307   .debug_str:000000000000047f .LASF33
     /tmp/cckUk8c0.s:5251   .debug_str:00000000000002fa .LASF82
     /tmp/cckUk8c0.s:5409   .debug_str:000000000000076b .LASF20
     /tmp/cckUk8c0.s:5257   .debug_str:000000000000032a .LASF17
     /tmp/cckUk8c0.s:5413   .debug_str:0000000000000782 .LASF18
     /tmp/cckUk8c0.s:5457   .debug_str:0000000000000962 .LASF19
     /tmp/cckUk8c0.s:5161   .debug_str:0000000000000020 .LASF22
     /tmp/cckUk8c0.s:5319   .debug_str:00000000000004c3 .LASF24
     /tmp/cckUk8c0.s:5269   .debug_str:0000000000000372 .LASF21
     /tmp/cckUk8c0.s:5297   .debug_str:0000000000000415 .LASF23
     /tmp/cckUk8c0.s:5239   .debug_str:0000000000000281 .LASF25
     /tmp/cckUk8c0.s:5453   .debug_str:000000000000094a .LASF26
     /tmp/cckUk8c0.s:5197   .debug_str:0000000000000145 .LASF28
     /tmp/cckUk8c0.s:5357   .debug_str:00000000000005f2 .LASF27
GAS LISTING /tmp/cckUk8c0.s 			page 42


     /tmp/cckUk8c0.s:5263   .debug_str:0000000000000346 .LASF29
     /tmp/cckUk8c0.s:5429   .debug_str:00000000000008a6 .LASF30
     /tmp/cckUk8c0.s:5163   .debug_str:000000000000003d .LASF31
     /tmp/cckUk8c0.s:5461   .debug_str:000000000000097b .LASF52
     /tmp/cckUk8c0.s:5463   .debug_str:000000000000098e .LASF54
     /tmp/cckUk8c0.s:5287   .debug_str:00000000000003df .LASF32
     /tmp/cckUk8c0.s:5345   .debug_str:000000000000057c .LASF34
     /tmp/cckUk8c0.s:5353   .debug_str:00000000000005c7 .LASF35
     /tmp/cckUk8c0.s:5157   .debug_str:0000000000000000 .LASF36
     /tmp/cckUk8c0.s:5203   .debug_str:000000000000016e .LASF37
     /tmp/cckUk8c0.s:5261   .debug_str:0000000000000340 .LASF151
     /tmp/cckUk8c0.s:5359   .debug_str:00000000000005fa .LASF38
     /tmp/cckUk8c0.s:5315   .debug_str:00000000000004a0 .LASF39
     /tmp/cckUk8c0.s:5365   .debug_str:000000000000061e .LASF40
     /tmp/cckUk8c0.s:5313   .debug_str:0000000000000493 .LASF41
     /tmp/cckUk8c0.s:5291   .debug_str:00000000000003fc .LASF42
     /tmp/cckUk8c0.s:5235   .debug_str:0000000000000268 .LASF43
     /tmp/cckUk8c0.s:5467   .debug_str:00000000000009cf .LASF44
     /tmp/cckUk8c0.s:5399   .debug_str:0000000000000725 .LASF45
     /tmp/cckUk8c0.s:5341   .debug_str:0000000000000562 .LASF46
     /tmp/cckUk8c0.s:5415   .debug_str:0000000000000787 .LASF47
     /tmp/cckUk8c0.s:5271   .debug_str:000000000000037c .LASF48
     /tmp/cckUk8c0.s:5265   .debug_str:000000000000035e .LASF49
     /tmp/cckUk8c0.s:5159   .debug_str:0000000000000009 .LASF50
     /tmp/cckUk8c0.s:5417   .debug_str:0000000000000792 .LASF51
     /tmp/cckUk8c0.s:5333   .debug_str:000000000000051c .LASF57
     /tmp/cckUk8c0.s:5363   .debug_str:0000000000000612 .LASF59
     /tmp/cckUk8c0.s:5245   .debug_str:00000000000002af .LASF61
     /tmp/cckUk8c0.s:5281   .debug_str:00000000000003a9 .LASF53
     /tmp/cckUk8c0.s:5355   .debug_str:00000000000005cc .LASF55
     /tmp/cckUk8c0.s:5381   .debug_str:0000000000000677 .LASF152
     /tmp/cckUk8c0.s:5293   .debug_str:0000000000000408 .LASF56
     /tmp/cckUk8c0.s:5175   .debug_str:00000000000000a5 .LASF58
     /tmp/cckUk8c0.s:5475   .debug_str:00000000000009fb .LASF153
     /tmp/cckUk8c0.s:5339   .debug_str:0000000000000546 .LASF154
     /tmp/cckUk8c0.s:5401   .debug_str:0000000000000736 .LASF60
     /tmp/cckUk8c0.s:5171   .debug_str:0000000000000087 .LASF62
     /tmp/cckUk8c0.s:5179   .debug_str:00000000000000d5 .LASF63
     /tmp/cckUk8c0.s:5277   .debug_str:000000000000039a .LASF64
     /tmp/cckUk8c0.s:5335   .debug_str:0000000000000537 .LASF65
     /tmp/cckUk8c0.s:5471   .debug_str:00000000000009ea .LASF66
     /tmp/cckUk8c0.s:5337   .debug_str:000000000000053c .LASF67
     /tmp/cckUk8c0.s:5445   .debug_str:000000000000090e .LASF68
     /tmp/cckUk8c0.s:5311   .debug_str:000000000000048e .LASF69
     /tmp/cckUk8c0.s:5329   .debug_str:00000000000004fb .LASF70
     /tmp/cckUk8c0.s:5361   .debug_str:0000000000000602 .LASF71
     /tmp/cckUk8c0.s:5473   .debug_str:00000000000009f6 .LASF72
     /tmp/cckUk8c0.s:5449   .debug_str:0000000000000925 .LASF73
     /tmp/cckUk8c0.s:5167   .debug_str:000000000000006e .LASF74
     /tmp/cckUk8c0.s:5391   .debug_str:00000000000006d8 .LASF75
     /tmp/cckUk8c0.s:5233   .debug_str:000000000000025d .LASF76
     /tmp/cckUk8c0.s:5225   .debug_str:0000000000000214 .LASF77
     /tmp/cckUk8c0.s:5193   .debug_str:0000000000000125 .LASF78
     /tmp/cckUk8c0.s:5369   .debug_str:0000000000000633 .LASF79
     /tmp/cckUk8c0.s:5241   .debug_str:000000000000028c .LASF80
     /tmp/cckUk8c0.s:5325   .debug_str:00000000000004ed .LASF81
     /tmp/cckUk8c0.s:5387   .debug_str:00000000000006af .LASF83
GAS LISTING /tmp/cckUk8c0.s 			page 43


     /tmp/cckUk8c0.s:5299   .debug_str:0000000000000433 .LASF84
     /tmp/cckUk8c0.s:5219   .debug_str:00000000000001ed .LASF85
     /tmp/cckUk8c0.s:5441   .debug_str:00000000000008f9 .LASF86
     /tmp/cckUk8c0.s:5255   .debug_str:000000000000031b .LASF87
     /tmp/cckUk8c0.s:5279   .debug_str:000000000000039f .LASF88
     /tmp/cckUk8c0.s:5215   .debug_str:00000000000001c8 .LASF89
     /tmp/cckUk8c0.s:5169   .debug_str:0000000000000079 .LASF90
     /tmp/cckUk8c0.s:5407   .debug_str:000000000000075d .LASF91
     /tmp/cckUk8c0.s:5195   .debug_str:0000000000000140 .LASF92
     /tmp/cckUk8c0.s:5459   .debug_str:0000000000000967 .LASF93
     /tmp/cckUk8c0.s:5231   .debug_str:0000000000000258 .LASF94
     /tmp/cckUk8c0.s:5349   .debug_str:00000000000005a0 .LASF95
     /tmp/cckUk8c0.s:5455   .debug_str:0000000000000953 .LASF96
     /tmp/cckUk8c0.s:5207   .debug_str:0000000000000186 .LASF97
     /tmp/cckUk8c0.s:5395   .debug_str:0000000000000702 .LASF98
     /tmp/cckUk8c0.s:5237   .debug_str:0000000000000274 .LASF99
     /tmp/cckUk8c0.s:5285   .debug_str:00000000000003c3 .LASF100
     /tmp/cckUk8c0.s:1056   .text:00000000000006dc .LFB26
     /tmp/cckUk8c0.s:1082   .text:0000000000000710 .LFE26
     /tmp/cckUk8c0.s:1072   .text:0000000000000700 .LVL128
     /tmp/cckUk8c0.s:5385   .debug_str:0000000000000685 .LASF101
     /tmp/cckUk8c0.s:70     .text:0000000000000054 .LFB25
     /tmp/cckUk8c0.s:113    .text:0000000000000094 .LFE25
     /tmp/cckUk8c0.s:5289   .debug_str:00000000000003ed .LASF102
     /tmp/cckUk8c0.s:5373   .debug_str:0000000000000650 .LASF103
     /tmp/cckUk8c0.s:98     .text:0000000000000080 .LBB34
     /tmp/cckUk8c0.s:109    .text:0000000000000090 .LBE34
     /tmp/cckUk8c0.s:4554   .debug_loc:0000000000000000 .LLST1
     /tmp/cckUk8c0.s:5181   .debug_str:00000000000000db .LASF104
     /tmp/cckUk8c0.s:5437   .debug_str:00000000000008d8 .LASF105
     /tmp/cckUk8c0.s:734    .text:0000000000000484 .LFB24
     /tmp/cckUk8c0.s:1051   .text:00000000000006dc .LFE24
     /tmp/cckUk8c0.s:4563   .debug_loc:000000000000002c .LLST20
     /tmp/cckUk8c0.s:5327   .debug_str:00000000000004f6 .LASF109
     /tmp/cckUk8c0.s:5223   .debug_str:0000000000000209 .LASF106
     /tmp/cckUk8c0.s:4581   .debug_loc:0000000000000078 .LLST22
     /tmp/cckUk8c0.s:5447   .debug_str:000000000000091b .LASF107
     /tmp/cckUk8c0.s:4612   .debug_loc:00000000000000fe .LLST23
     /tmp/cckUk8c0.s:4625   .debug_loc:0000000000000136 .LLST24
     /tmp/cckUk8c0.s:5435   .debug_str:00000000000008d1 .LASF108
     /tmp/cckUk8c0.s:4632   .debug_loc:0000000000000159 .LLST25
     /tmp/cckUk8c0.s:824    .text:0000000000000534 .LBB97
     /tmp/cckUk8c0.s:4643   .debug_loc:000000000000018f .LLST26
     /tmp/cckUk8c0.s:4658   .debug_loc:00000000000001c9 .LLST27
     /tmp/cckUk8c0.s:4673   .debug_loc:0000000000000211 .LLST28
     /tmp/cckUk8c0.s:862    .text:0000000000000574 .LVL101
     /tmp/cckUk8c0.s:867    .text:0000000000000584 .LVL102
     /tmp/cckUk8c0.s:872    .text:0000000000000594 .LVL103
     /tmp/cckUk8c0.s:877    .text:00000000000005a0 .LVL104
     /tmp/cckUk8c0.s:882    .text:00000000000005b0 .LVL105
     /tmp/cckUk8c0.s:886    .text:00000000000005b8 .LVL106
     /tmp/cckUk8c0.s:890    .text:00000000000005c0 .LVL107
     /tmp/cckUk8c0.s:799    .text:0000000000000504 .LVL94
     /tmp/cckUk8c0.s:969    .text:0000000000000624 .LBB105
     /tmp/cckUk8c0.s:1010   .text:0000000000000680 .LBE105
     /tmp/cckUk8c0.s:971    .text:0000000000000624 .LBB106
     /tmp/cckUk8c0.s:1009   .text:0000000000000680 .LBE106
GAS LISTING /tmp/cckUk8c0.s 			page 44


     /tmp/cckUk8c0.s:4692   .debug_loc:000000000000024f .LLST29
     /tmp/cckUk8c0.s:4701   .debug_loc:0000000000000274 .LLST30
     /tmp/cckUk8c0.s:4710   .debug_loc:00000000000002a0 .LLST31
     /tmp/cckUk8c0.s:978    .text:0000000000000634 .LVL114
     /tmp/cckUk8c0.s:983    .text:0000000000000644 .LVL115
     /tmp/cckUk8c0.s:988    .text:0000000000000654 .LVL116
     /tmp/cckUk8c0.s:993    .text:0000000000000660 .LVL117
     /tmp/cckUk8c0.s:998    .text:0000000000000670 .LVL118
     /tmp/cckUk8c0.s:1002   .text:0000000000000678 .LVL119
     /tmp/cckUk8c0.s:1006   .text:0000000000000680 .LVL120
     /tmp/cckUk8c0.s:925    .text:00000000000005ec .LBB108
     /tmp/cckUk8c0.s:4718   .debug_loc:00000000000002c4 .LLST32
     /tmp/cckUk8c0.s:4733   .debug_loc:00000000000002fe .LLST33
     /tmp/cckUk8c0.s:4748   .debug_loc:0000000000000346 .LLST34
     /tmp/cckUk8c0.s:1018   .text:0000000000000690 .LVL121
     /tmp/cckUk8c0.s:1023   .text:00000000000006a0 .LVL122
     /tmp/cckUk8c0.s:1028   .text:00000000000006b0 .LVL123
     /tmp/cckUk8c0.s:1033   .text:00000000000006bc .LVL124
     /tmp/cckUk8c0.s:1038   .text:00000000000006cc .LVL125
     /tmp/cckUk8c0.s:1042   .text:00000000000006d4 .LVL126
     /tmp/cckUk8c0.s:1046   .text:00000000000006dc .LVL127
     /tmp/cckUk8c0.s:923    .text:00000000000005ec .LVL109
     /tmp/cckUk8c0.s:939    .text:00000000000005f8 .LVL111
     /tmp/cckUk8c0.s:763    .text:00000000000004cc .LBB87
     /tmp/cckUk8c0.s:790    .text:00000000000004fc .LBE87
     /tmp/cckUk8c0.s:771    .text:00000000000004d8 .LBB89
     /tmp/cckUk8c0.s:782    .text:00000000000004ec .LBE89
     /tmp/cckUk8c0.s:4759   .debug_loc:000000000000037c .LLST21
     /tmp/cckUk8c0.s:755    .text:00000000000004b4 .LVL89
     /tmp/cckUk8c0.s:761    .text:00000000000004cc .LVL90
     /tmp/cckUk8c0.s:5427   .debug_str:0000000000000892 .LASF155
     /tmp/cckUk8c0.s:5317   .debug_str:00000000000004aa .LASF156
     /tmp/cckUk8c0.s:568    .text:0000000000000360 .LFB23
     /tmp/cckUk8c0.s:603    .text:000000000000038c .LFE23
     /tmp/cckUk8c0.s:5189   .debug_str:0000000000000104 .LASF110
     /tmp/cckUk8c0.s:5425   .debug_str:000000000000087c .LASF111
     /tmp/cckUk8c0.s:490    .text:00000000000002c4 .LFB22
     /tmp/cckUk8c0.s:562    .text:0000000000000360 .LFE22
     /tmp/cckUk8c0.s:507    .text:00000000000002ec .LBB63
     /tmp/cckUk8c0.s:4768   .debug_loc:00000000000003a8 .LLST18
     /tmp/cckUk8c0.s:530    .text:0000000000000314 .LVL68
     /tmp/cckUk8c0.s:535    .text:0000000000000324 .LVL69
     /tmp/cckUk8c0.s:540    .text:0000000000000334 .LVL70
     /tmp/cckUk8c0.s:545    .text:0000000000000340 .LVL71
     /tmp/cckUk8c0.s:550    .text:0000000000000350 .LVL72
     /tmp/cckUk8c0.s:554    .text:0000000000000358 .LVL73
     /tmp/cckUk8c0.s:558    .text:0000000000000360 .LVL74
     /tmp/cckUk8c0.s:5439   .debug_str:00000000000008eb .LASF112
     /tmp/cckUk8c0.s:5213   .debug_str:00000000000001b5 .LASF113
     /tmp/cckUk8c0.s:342    .text:000000000000019c .LFB21
     /tmp/cckUk8c0.s:484    .text:00000000000002c4 .LFE21
     /tmp/cckUk8c0.s:5267   .debug_str:000000000000036d .LASF114
     /tmp/cckUk8c0.s:358    .text:00000000000001bc .LBB53
     /tmp/cckUk8c0.s:4784   .debug_loc:00000000000003e6 .LLST12
     /tmp/cckUk8c0.s:4799   .debug_loc:0000000000000420 .LLST13
     /tmp/cckUk8c0.s:4814   .debug_loc:0000000000000468 .LLST14
     /tmp/cckUk8c0.s:413    .text:000000000000021c .LVL51
GAS LISTING /tmp/cckUk8c0.s 			page 45


     /tmp/cckUk8c0.s:418    .text:000000000000022c .LVL52
     /tmp/cckUk8c0.s:423    .text:000000000000023c .LVL53
     /tmp/cckUk8c0.s:428    .text:0000000000000248 .LVL54
     /tmp/cckUk8c0.s:433    .text:0000000000000258 .LVL55
     /tmp/cckUk8c0.s:437    .text:0000000000000260 .LVL56
     /tmp/cckUk8c0.s:441    .text:0000000000000268 .LVL57
     /tmp/cckUk8c0.s:387    .text:00000000000001f8 .LBB56
     /tmp/cckUk8c0.s:4833   .debug_loc:00000000000004a6 .LLST15
     /tmp/cckUk8c0.s:4848   .debug_loc:00000000000004e0 .LLST16
     /tmp/cckUk8c0.s:4863   .debug_loc:0000000000000528 .LLST17
     /tmp/cckUk8c0.s:452    .text:0000000000000278 .LVL59
     /tmp/cckUk8c0.s:457    .text:0000000000000288 .LVL60
     /tmp/cckUk8c0.s:462    .text:0000000000000298 .LVL61
     /tmp/cckUk8c0.s:467    .text:00000000000002a4 .LVL62
     /tmp/cckUk8c0.s:472    .text:00000000000002b4 .LVL63
     /tmp/cckUk8c0.s:476    .text:00000000000002bc .LVL64
     /tmp/cckUk8c0.s:480    .text:00000000000002c4 .LVL65
     /tmp/cckUk8c0.s:355    .text:00000000000001b4 .LVL42
     /tmp/cckUk8c0.s:357    .text:00000000000001bc .LVL43
     /tmp/cckUk8c0.s:377    .text:00000000000001e0 .LVL45
     /tmp/cckUk8c0.s:381    .text:00000000000001e8 .LVL46
     /tmp/cckUk8c0.s:384    .text:00000000000001f0 .LVL47
     /tmp/cckUk8c0.s:386    .text:00000000000001f8 .LVL48
     /tmp/cckUk8c0.s:5183   .debug_str:00000000000000e8 .LASF157
     /tmp/cckUk8c0.s:10     .text:0000000000000000 .LFB20
     /tmp/cckUk8c0.s:65     .text:0000000000000054 .LFE20
     /tmp/cckUk8c0.s:5377   .debug_str:0000000000000660 .LASF115
     /tmp/cckUk8c0.s:5383   .debug_str:000000000000067c .LASF116
     /tmp/cckUk8c0.s:4882   .debug_loc:0000000000000566 .LLST0
     /tmp/cckUk8c0.s:5199   .debug_str:000000000000015d .LASF117
     /tmp/cckUk8c0.s:609    .text:000000000000038c .LFB19
     /tmp/cckUk8c0.s:728    .text:0000000000000484 .LFE19
     /tmp/cckUk8c0.s:4898   .debug_loc:00000000000005b0 .LLST19
     /tmp/cckUk8c0.s:625    .text:00000000000003a8 .LVL75
     /tmp/cckUk8c0.s:629    .text:00000000000003b0 .LVL76
     /tmp/cckUk8c0.s:633    .text:00000000000003b8 .LVL77
     /tmp/cckUk8c0.s:651    .text:00000000000003d4 .LVL79
     /tmp/cckUk8c0.s:654    .text:00000000000003dc .LVL80
     /tmp/cckUk8c0.s:663    .text:0000000000000408 .LVL81
     /tmp/cckUk8c0.s:678    .text:0000000000000430 .LVL82
     /tmp/cckUk8c0.s:682    .text:0000000000000438 .LVL83
     /tmp/cckUk8c0.s:684    .text:0000000000000440 .LVL84
     /tmp/cckUk8c0.s:691    .text:0000000000000454 .LVL85
     /tmp/cckUk8c0.s:696    .text:0000000000000460 .LVL86
     /tmp/cckUk8c0.s:5185   .debug_str:00000000000000f1 .LASF118
     /tmp/cckUk8c0.s:5403   .debug_str:000000000000073b .LASF119
     /tmp/cckUk8c0.s:133    .text:0000000000000094 .LFB18
     /tmp/cckUk8c0.s:270    .text:000000000000019c .LFE18
     /tmp/cckUk8c0.s:4905   .debug_loc:00000000000005d3 .LLST2
     /tmp/cckUk8c0.s:147    .text:00000000000000a4 .LBB41
     /tmp/cckUk8c0.s:4930   .debug_loc:0000000000000635 .LLST3
     /tmp/cckUk8c0.s:4943   .debug_loc:000000000000066d .LLST4
     /tmp/cckUk8c0.s:4958   .debug_loc:00000000000006b5 .LLST5
     /tmp/cckUk8c0.s:199    .text:00000000000000f4 .LVL18
     /tmp/cckUk8c0.s:204    .text:0000000000000104 .LVL19
     /tmp/cckUk8c0.s:209    .text:0000000000000114 .LVL20
     /tmp/cckUk8c0.s:214    .text:0000000000000120 .LVL21
GAS LISTING /tmp/cckUk8c0.s 			page 46


     /tmp/cckUk8c0.s:219    .text:0000000000000130 .LVL22
     /tmp/cckUk8c0.s:223    .text:0000000000000138 .LVL23
     /tmp/cckUk8c0.s:227    .text:0000000000000140 .LVL24
     /tmp/cckUk8c0.s:163    .text:00000000000000c0 .LBB44
     /tmp/cckUk8c0.s:4986   .debug_loc:000000000000070b .LLST6
     /tmp/cckUk8c0.s:4999   .debug_loc:0000000000000743 .LLST7
     /tmp/cckUk8c0.s:5014   .debug_loc:000000000000078b .LLST8
     /tmp/cckUk8c0.s:238    .text:0000000000000150 .LVL26
     /tmp/cckUk8c0.s:243    .text:0000000000000160 .LVL27
     /tmp/cckUk8c0.s:248    .text:0000000000000170 .LVL28
     /tmp/cckUk8c0.s:253    .text:000000000000017c .LVL29
     /tmp/cckUk8c0.s:258    .text:000000000000018c .LVL30
     /tmp/cckUk8c0.s:262    .text:0000000000000194 .LVL31
     /tmp/cckUk8c0.s:266    .text:000000000000019c .LVL32
     /tmp/cckUk8c0.s:158    .text:00000000000000b0 .LVL11
     /tmp/cckUk8c0.s:174    .text:00000000000000cc .LVL14
     /tmp/cckUk8c0.s:178    .text:00000000000000d4 .LVL15
     /tmp/cckUk8c0.s:5375   .debug_str:000000000000065b .LASF120
     /tmp/cckUk8c0.s:5301   .debug_str:0000000000000441 .LASF121
     /tmp/cckUk8c0.s:5331   .debug_str:0000000000000513 .LASF158
     /tmp/cckUk8c0.s:5465   .debug_str:00000000000009b1 .LASF159
     /tmp/cckUk8c0.s:5259   .debug_str:0000000000000330 .LASF122
     /tmp/cckUk8c0.s:5295   .debug_str:000000000000040d .LASF123
     /tmp/cckUk8c0.s:5393   .debug_str:00000000000006f2 .LASF124
     /tmp/cckUk8c0.s:5309   .debug_str:0000000000000488 .LASF125
     /tmp/cckUk8c0.s:5211   .debug_str:00000000000001b0 .LASF126
     /tmp/cckUk8c0.s:5343   .debug_str:0000000000000577 .LASF127
     /tmp/cckUk8c0.s:277    .text._Z7_assertbPKci:0000000000000000 .LFB0
     /tmp/cckUk8c0.s:335    .text._Z7_assertbPKci:0000000000000080 .LFE0
     /tmp/cckUk8c0.s:5039   .debug_loc:00000000000007cf .LLST9
     /tmp/cckUk8c0.s:5053   .debug_loc:0000000000000808 .LLST10
     /tmp/cckUk8c0.s:5064   .debug_loc:000000000000083e .LLST11
     /tmp/cckUk8c0.s:305    .text._Z7_assertbPKci:0000000000000038 .LVL35
     /tmp/cckUk8c0.s:310    .text._Z7_assertbPKci:0000000000000044 .LVL36
     /tmp/cckUk8c0.s:315    .text._Z7_assertbPKci:0000000000000054 .LVL37
     /tmp/cckUk8c0.s:320    .text._Z7_assertbPKci:0000000000000060 .LVL38
     /tmp/cckUk8c0.s:325    .text._Z7_assertbPKci:0000000000000070 .LVL39
     /tmp/cckUk8c0.s:329    .text._Z7_assertbPKci:0000000000000078 .LVL40
     /tmp/cckUk8c0.s:333    .text._Z7_assertbPKci:0000000000000080 .LVL41
     /tmp/cckUk8c0.s:5469   .debug_str:00000000000009da .LASF128
     /tmp/cckUk8c0.s:5431   .debug_str:00000000000008b7 .LASF130
     /tmp/cckUk8c0.s:5275   .debug_str:000000000000038f .LASF129
     /tmp/cckUk8c0.s:5451   .debug_str:0000000000000943 .LASF131
     /tmp/cckUk8c0.s:5405   .debug_str:000000000000074d .LASF132
     /tmp/cckUk8c0.s:5173   .debug_str:000000000000009a .LASF133
     /tmp/cckUk8c0.s:5379   .debug_str:0000000000000667 .LASF134
     /tmp/cckUk8c0.s:5443   .debug_str:0000000000000903 .LASF135
     /tmp/cckUk8c0.s:5209   .debug_str:00000000000001a5 .LASF136
     /tmp/cckUk8c0.s:5411   .debug_str:0000000000000774 .LASF137
     /tmp/cckUk8c0.s:5247   .debug_str:00000000000002cc .LASF138
     /tmp/cckUk8c0.s:5205   .debug_str:0000000000000176 .LASF139
     /tmp/cckUk8c0.s:5177   .debug_str:00000000000000b8 .LASF140
     /tmp/cckUk8c0.s:5221   .debug_str:00000000000001fb .LASF141
     /tmp/cckUk8c0.s:5305   .debug_str:0000000000000460 .LASF142
     /tmp/cckUk8c0.s:5227   .debug_str:000000000000022e .LASF143
     /tmp/cckUk8c0.s:5243   .debug_str:0000000000000291 .LASF144
     /tmp/cckUk8c0.s:5249   .debug_str:00000000000002e1 .LASF145
GAS LISTING /tmp/cckUk8c0.s 			page 47


     /tmp/cckUk8c0.s:5229   .debug_str:0000000000000248 .LASF146
     /tmp/cckUk8c0.s:5421   .debug_str:0000000000000862 .LASF147
     /tmp/cckUk8c0.s:97     .text:0000000000000080 .LVL6
     /tmp/cckUk8c0.s:106    .text:0000000000000090 .LVL7
     /tmp/cckUk8c0.s:737    .text:0000000000000484 .LVL87
     /tmp/cckUk8c0.s:753    .text:00000000000004ac .LVL88
     /tmp/cckUk8c0.s:787    .text:00000000000004fc .LVL93
     /tmp/cckUk8c0.s:900    .text:00000000000005c4 .LVL108
     /tmp/cckUk8c0.s:929    .text:00000000000005f0 .LVL110
     /tmp/cckUk8c0.s:953    .text:0000000000000610 .LVL112
     /tmp/cckUk8c0.s:964    .text:0000000000000624 .LVL113
     /tmp/cckUk8c0.s:860    .text:000000000000056c .LVL100
     /tmp/cckUk8c0.s:807    .text:0000000000000518 .LVL95
     /tmp/cckUk8c0.s:846    .text:0000000000000558 .LVL98
     /tmp/cckUk8c0.s:852    .text:0000000000000564 .LVL99
     /tmp/cckUk8c0.s:823    .text:0000000000000534 .LVL96
     /tmp/cckUk8c0.s:829    .text:0000000000000538 .LVL97
     /tmp/cckUk8c0.s:770    .text:00000000000004d8 .LVL91
     /tmp/cckUk8c0.s:779    .text:00000000000004ec .LVL92
     /tmp/cckUk8c0.s:506    .text:00000000000002ec .LVL67
     /tmp/cckUk8c0.s:363    .text:00000000000001c0 .LVL44
     /tmp/cckUk8c0.s:403    .text:000000000000020c .LVL49
     /tmp/cckUk8c0.s:411    .text:0000000000000214 .LVL50
     /tmp/cckUk8c0.s:450    .text:0000000000000270 .LVL58
     /tmp/cckUk8c0.s:29     .text:000000000000001c .LVL1
     /tmp/cckUk8c0.s:43     .text:0000000000000028 .LVL2
     /tmp/cckUk8c0.s:49     .text:0000000000000038 .LVL3
     /tmp/cckUk8c0.s:51     .text:000000000000003c .LVL4
     /tmp/cckUk8c0.s:641    .text:00000000000003bc .LVL78
     /tmp/cckUk8c0.s:136    .text:0000000000000094 .LVL8
     /tmp/cckUk8c0.s:189    .text:00000000000000e4 .LVL16
     /tmp/cckUk8c0.s:197    .text:00000000000000ec .LVL17
     /tmp/cckUk8c0.s:146    .text:00000000000000a4 .LVL9
     /tmp/cckUk8c0.s:153    .text:00000000000000a8 .LVL10
     /tmp/cckUk8c0.s:162    .text:00000000000000c0 .LVL12
     /tmp/cckUk8c0.s:168    .text:00000000000000c4 .LVL13
     /tmp/cckUk8c0.s:236    .text:0000000000000148 .LVL25
     /tmp/cckUk8c0.s:280    .text._Z7_assertbPKci:0000000000000000 .LVL33
     /tmp/cckUk8c0.s:303    .text._Z7_assertbPKci:0000000000000030 .LVL34
     /tmp/cckUk8c0.s:1116   .debug_info:0000000000000000 .Ldebug_info0
     /tmp/cckUk8c0.s:5      .text:0000000000000000 .Ltext0
     /tmp/cckUk8c0.s:1110   .text:0000000000000710 .Letext0
     /tmp/cckUk8c0.s:155    .text:00000000000000a8 .LBE41
     /tmp/cckUk8c0.s:192    .text:00000000000000e4 .LBB47
     /tmp/cckUk8c0.s:230    .text:0000000000000140 .LBE47
     /tmp/cckUk8c0.s:170    .text:00000000000000c4 .LBE44
     /tmp/cckUk8c0.s:231    .text:0000000000000140 .LBB48
     /tmp/cckUk8c0.s:268    .text:000000000000019c .LBE48
     /tmp/cckUk8c0.s:365    .text:00000000000001c0 .LBE53
     /tmp/cckUk8c0.s:406    .text:000000000000020c .LBB59
     /tmp/cckUk8c0.s:444    .text:0000000000000268 .LBE59
     /tmp/cckUk8c0.s:392    .text:00000000000001fc .LBE56
     /tmp/cckUk8c0.s:445    .text:0000000000000268 .LBB60
     /tmp/cckUk8c0.s:482    .text:00000000000002c4 .LBE60
     /tmp/cckUk8c0.s:514    .text:00000000000002f4 .LBE63
     /tmp/cckUk8c0.s:524    .text:0000000000000304 .LBB66
     /tmp/cckUk8c0.s:560    .text:0000000000000360 .LBE66
GAS LISTING /tmp/cckUk8c0.s 			page 48


     /tmp/cckUk8c0.s:791    .text:00000000000004fc .LBB92
     /tmp/cckUk8c0.s:933    .text:00000000000005f0 .LBE92
     /tmp/cckUk8c0.s:935    .text:00000000000005f0 .LBB114
     /tmp/cckUk8c0.s:1049   .text:00000000000006dc .LBE114
     /tmp/cckUk8c0.s:795    .text:00000000000004fc .LBB96
     /tmp/cckUk8c0.s:850    .text:0000000000000560 .LBE96
     /tmp/cckUk8c0.s:854    .text:0000000000000564 .LBB101
     /tmp/cckUk8c0.s:894    .text:00000000000005c0 .LBE101
     /tmp/cckUk8c0.s:831    .text:0000000000000538 .LBE97
     /tmp/cckUk8c0.s:855    .text:0000000000000564 .LBB100
     /tmp/cckUk8c0.s:893    .text:00000000000005c0 .LBE100
     /tmp/cckUk8c0.s:932    .text:00000000000005f0 .LBE108
     /tmp/cckUk8c0.s:1012   .text:0000000000000680 .LBB113
     /tmp/cckUk8c0.s:1048   .text:00000000000006dc .LBE113

UNDEFINED SYMBOLS
gTimer
_ZN7IThread11getPRunningEv
_ZN7IThread10pRunningSpE
_Z24enableExternalInterruptsv
_Z10myUserMainv
_Z9putStringPKc
_Z6putInti
_Z10putNewlinev
_Z10stopKernelv
_ZN8MemAlloc3getEv
_ZN8MemAlloc16getUserlandUsageEv
_Z13thread_createPmPFvPvES0_
_Z15thread_dispatchv
HEAP_END_ADDR
HEAP_START_ADDR
trapRoutine
_Z25disableExternalInterruptsv
_ZN7IThread11setPRunningEPS_
_ZN7IThread11pAllThreadsE
_ZN7IThread22initialUserMemoryUsageE
plic_claim
plic_complete
CONSOLE_TX_DATA
CONSOLE_STATUS
