GAS LISTING /tmp/ccP9tREr.s 			page 1


   1              		.file	"main.cpp"
   2              		.option pic
   3              		.option norelax
   4              		.text
   5              	.Ltext0:
   6              		.align	2
   8              	_Z41__static_initialization_and_destruction_0ii:
   9              	.LFB13:
  10              		.file 1 "src/main.cpp"
   1:src/main.cpp  **** #include "../h/alloc.h"
   2:src/main.cpp  **** #include "../h/c_api.h"
   3:src/main.cpp  **** #include "../h/thread.h"
   4:src/main.cpp  **** #include "../h/c_api.h"
   5:src/main.cpp  **** 
   6:src/main.cpp  **** extern "C" void trapRoutine();
   7:src/main.cpp  **** 
   8:src/main.cpp  **** void userMain();
   9:src/main.cpp  **** void doInitialAsserts();
  10:src/main.cpp  **** void initInterruptVector();
  11:src/main.cpp  **** 
  12:src/main.cpp  **** uint64 fib(uint64 n);
  13:src/main.cpp  **** 
  14:src/main.cpp  **** Thread kernelThread;
  15:src/main.cpp  **** char kernelStack[ACTUAL_STACK_SIZE + 16];
  16:src/main.cpp  **** 
  17:src/main.cpp  **** int main()
  18:src/main.cpp  **** {
  19:src/main.cpp  ****     disableExternalInterrupts();
  20:src/main.cpp  **** 
  21:src/main.cpp  ****     initInterruptVector();
  22:src/main.cpp  ****     doInitialAsserts();
  23:src/main.cpp  **** 
  24:src/main.cpp  ****     Thread::setPRunning(&kernelThread);
  25:src/main.cpp  ****     kernelThread.id = 0;
  26:src/main.cpp  ****     Thread::pAllThreads[0] = &kernelThread;
  27:src/main.cpp  **** 
  28:src/main.cpp  ****     enableExternalInterrupts(); // mozda treba bez?
  29:src/main.cpp  **** 
  30:src/main.cpp  ****     userMain();
  31:src/main.cpp  **** 
  32:src/main.cpp  ****     disableExternalInterrupts(); // shouldnt be here but rather should be implicit
  33:src/main.cpp  **** 
  34:src/main.cpp  ****     return 0;
  35:src/main.cpp  **** }
  36:src/main.cpp  **** 
  37:src/main.cpp  **** void doInitialAsserts()
  38:src/main.cpp  **** {
  39:src/main.cpp  ****     assert(sizeof(void*) == 8);
  40:src/main.cpp  ****     assert((((uint64)HEAP_END_ADDR - (uint64)HEAP_START_ADDR) / 1024 / 1024) == 127);
  41:src/main.cpp  ****     assert(DEFAULT_STACK_SIZE == 4096);
  42:src/main.cpp  ****     assert(DEFAULT_TIME_SLICE == 2);
  43:src/main.cpp  ****     assert(sizeof(char) == 1);
  44:src/main.cpp  ****     assert(sizeof(Thread) < 1000);
  45:src/main.cpp  ****     assert(sizeof(int) == 4);
  46:src/main.cpp  ****     assert(sizeof(uint64) == 8);
  47:src/main.cpp  **** }
  48:src/main.cpp  **** 
GAS LISTING /tmp/ccP9tREr.s 			page 2


  49:src/main.cpp  **** void initInterruptVector()
  50:src/main.cpp  **** {
  51:src/main.cpp  **** 
  52:src/main.cpp  **** // should be before changing sstatus 0x2 bit
  53:src/main.cpp  ****     __asm__ volatile ("csrw stvec, %[vector]" : : [vector] "r"(&trapRoutine));
  54:src/main.cpp  **** 
  55:src/main.cpp  **** // set MODE to 1 - vector mode
  56:src/main.cpp  ****     __asm__ volatile ("csrs stvec, 0x1");
  57:src/main.cpp  ****     __asm__ volatile ("csrc stvec, 0x2");
  58:src/main.cpp  **** }
  11              		.loc 1 58 1
  12              		.cfi_startproc
  13              	.LVL0:
  14 0000 130101FF 		addi	sp,sp,-16
  15              		.cfi_def_cfa_offset 16
  16 0004 23348100 		sd	s0,8(sp)
  17              		.cfi_offset 8, -8
  18 0008 13040101 		addi	s0,sp,16
  19              		.cfi_def_cfa 8, 0
  20              		.loc 1 58 1 is_stmt 0
  21 000c 93071000 		li	a5,1
  22 0010 6308F500 		beq	a0,a5,.L4
  23              	.L1:
  24 0014 03348100 		ld	s0,8(sp)
  25              		.cfi_remember_state
  26              		.cfi_restore 8
  27              		.cfi_def_cfa 2, 16
  28 0018 13010101 		addi	sp,sp,16
  29              		.cfi_def_cfa_offset 0
  30 001c 67800000 		jr	ra
  31              	.L4:
  32              		.cfi_restore_state
  33              		.loc 1 58 1 discriminator 1
  34 0020 B7070100 		li	a5,65536
  35 0024 9387F7FF 		addi	a5,a5,-1
  36 0028 E396F5FE 		bne	a1,a5,.L1
  37              	.LVL1:
  38              	.LBB19:
  39              	.LBB20:
  40              	.LBB21:
  41              		.file 2 "src/../h/thread.h"
   1:src/../h/thread.h **** #pragma once
   2:src/../h/thread.h **** #include "../lib/hw.h"
   3:src/../h/thread.h **** #include "../h/my_console.h"
   4:src/../h/thread.h **** #include "../h/c_api.h"
   5:src/../h/thread.h **** #include "../h/cpp_api.h"
   6:src/../h/thread.h **** 
   7:src/../h/thread.h **** #define NR_MAX_THREADS 10
   8:src/../h/thread.h **** #define NR_REGISTERS 32
   9:src/../h/thread.h **** 
  10:src/../h/thread.h **** // needs to be (DEFAULT_STACK_SIZE+8*34) (probably)
  11:src/../h/thread.h **** #define ACTUAL_STACK_SIZE (DEFAULT_STACK_SIZE+8*34)*10
  12:src/../h/thread.h **** #define MAX_NR_TOTAL_THREADS 100
  13:src/../h/thread.h **** 
  14:src/../h/thread.h **** class Thread;
  15:src/../h/thread.h **** 
  16:src/../h/thread.h **** class Thread
GAS LISTING /tmp/ccP9tREr.s 			page 3


  17:src/../h/thread.h **** {
  18:src/../h/thread.h **** public:
  19:src/../h/thread.h ****     enum State { RUNNING = 0, SUSPENDED, READY, INITIALIZING, TERMINATING, NONEXISTENT };
  20:src/../h/thread.h **** 
  21:src/../h/thread.h ****     typedef void(*Body)(void*);
  22:src/../h/thread.h ****     typedef uint64 Context[50+1]; // the +1 is for the sepc // temp 50
  23:src/../h/thread.h **** 
  24:src/../h/thread.h ****     static bool switchedToUserThread;
  25:src/../h/thread.h ****     static uint64* pRunningContext;
  26:src/../h/thread.h ****     static uint64 timeSliceCounter;
  27:src/../h/thread.h ****     static Thread* pAllThreads[MAX_NR_TOTAL_THREADS];
  28:src/../h/thread.h ****     static uint64 nrTotalThreads;
  29:src/../h/thread.h **** 
  30:src/../h/thread.h ****     static  Thread*  getPRunning();
  31:src/../h/thread.h ****     static void setPRunning(Thread* p);
  32:src/../h/thread.h ****     static int createThread(uint64* id, Body body, void* arg);
  33:src/../h/thread.h ****     static int exit(); // exit the currently running thread
  34:src/../h/thread.h **** 
  35:src/../h/thread.h ****     State state;
  36:src/../h/thread.h ****     Body body;
  37:src/../h/thread.h ****     Context context;
  38:src/../h/thread.h ****     void* pStackStart; // start in terms of the data structure. This adress is the highest one in t
  39:src/../h/thread.h ****     uint64 timeSlice; // private
  40:src/../h/thread.h ****     uint64 id;
  41:src/../h/thread.h ****     Thread* pNext;
  42:src/../h/thread.h **** 
  43:src/../h/thread.h ****     Thread(Body body, void* arg);
  44:src/../h/thread.h ****     Thread() : pStackStart(nullptr) {} // move to private?. Mind the kernel thread
  42              		.loc 2 44 35
  43 002c 97070000 		sd	zero,.LANCHOR0+424,a5
  43      23B00700 
  44              	.LVL2:
  45              	.LBE21:
  46              	.LBE20:
  47              	.LBE19:
  48              		.loc 1 58 1
  49 0034 6FF01FFE 		j	.L1
  50              		.cfi_endproc
  51              	.LFE13:
  53              		.section	.rodata.str1.8,"aMS",@progbits,1
  54              		.align	3
  55              	.LC0:
  56 0000 3D3D3D3D 		.string	"===================== ASSERT file: "
  56      3D3D3D3D 
  56      3D3D3D3D 
  56      3D3D3D3D 
  56      3D3D3D3D 
  57 0024 00000000 		.align	3
  58              	.LC1:
  59 0028 7372632F 		.string	"src/main.cpp"
  59      6D61696E 
  59      2E637070 
  59      00
  60 0035 000000   		.align	3
  61              	.LC2:
  62 0038 20202020 		.string	"    line: "
  62      6C696E65 
GAS LISTING /tmp/ccP9tREr.s 			page 4


  62      3A2000
  63 0043 00000000 		.align	3
  63      00
  64              	.LC3:
  65 0048 2020203D 		.string	"   ==========================="
  65      3D3D3D3D 
  65      3D3D3D3D 
  65      3D3D3D3D 
  65      3D3D3D3D 
  66              		.text
  67              		.align	2
  68              		.globl	_Z16doInitialAssertsv
  70              	_Z16doInitialAssertsv:
  71              	.LFB11:
  38:src/main.cpp  ****     assert(sizeof(void*) == 8);
  72              		.loc 1 38 1 is_stmt 1
  73              		.cfi_startproc
  39:src/main.cpp  ****     assert((((uint64)HEAP_END_ADDR - (uint64)HEAP_START_ADDR) / 1024 / 1024) == 127);
  74              		.loc 1 39 5
  75              	.LVL3:
  76              		.file 3 "src/../h/../h/my_console.h"
   1:src/../h/../h/my_console.h **** #pragma once
   2:src/../h/../h/my_console.h **** 
   3:src/../h/../h/my_console.h **** #include "../h/risc.h"
   4:src/../h/../h/my_console.h **** 
   5:src/../h/../h/my_console.h **** #include "../lib/console.h"
   6:src/../h/../h/my_console.h **** #include "../lib/hw.h"
   7:src/../h/../h/my_console.h **** 
   8:src/../h/../h/my_console.h **** #define __DEBUG_MODE
   9:src/../h/../h/my_console.h **** 
  10:src/../h/../h/my_console.h **** 
  11:src/../h/../h/my_console.h **** void putString(const char* s);
  12:src/../h/../h/my_console.h **** void putInt(int n);
  13:src/../h/../h/my_console.h **** void putNewline();
  14:src/../h/../h/my_console.h **** void putU64(uint64 n);
  15:src/../h/../h/my_console.h **** void putBinary(uint64 n);
  16:src/../h/../h/my_console.h **** 
  17:src/../h/../h/my_console.h **** [[noreturn]] void stopKernel();
  18:src/../h/../h/my_console.h **** 
  19:src/../h/../h/my_console.h **** inline void _assert(bool valid, const char* file, int line) // MUST be inline
  20:src/../h/../h/my_console.h **** {
  21:src/../h/../h/my_console.h ****     if(valid)
  77              		.loc 3 21 5
  22:src/../h/../h/my_console.h ****         return;
  78              		.loc 3 22 9
  40:src/main.cpp  ****     assert(DEFAULT_STACK_SIZE == 4096);
  79              		.loc 1 40 5
  80 0038 97070000 		la	a5,HEAP_END_ADDR
  80      83B70700 
  81 0040 83B70700 		ld	a5,0(a5)
  82 0044 17070000 		la	a4,HEAP_START_ADDR
  82      03370700 
  83 004c 03370700 		ld	a4,0(a4)
  84 0050 B387E740 		sub	a5,a5,a4
  85 0054 370710F8 		li	a4,-133169152
  86 0058 B387E700 		add	a5,a5,a4
  87 005c 37071000 		li	a4,1048576
GAS LISTING /tmp/ccP9tREr.s 			page 5


  88              	.LVL4:
  89              	.LBB24:
  90              	.LBB25:
  21:src/../h/../h/my_console.h ****         return;
  91              		.loc 3 21 5
  92 0060 63F4E700 		bgeu	a5,a4,.L10
  93 0064 67800000 		ret
  94              	.L10:
  95              	.LBE25:
  96              	.LBE24:
  38:src/main.cpp  ****     assert(sizeof(void*) == 8);
  97              		.loc 1 38 1 is_stmt 0
  98 0068 130101FF 		addi	sp,sp,-16
  99              		.cfi_def_cfa_offset 16
 100 006c 23341100 		sd	ra,8(sp)
 101 0070 23308100 		sd	s0,0(sp)
 102              		.cfi_offset 1, -8
 103              		.cfi_offset 8, -16
 104 0074 13040101 		addi	s0,sp,16
 105              		.cfi_def_cfa 8, 0
 106              	.LBB27:
 107              	.LBB26:
  23:src/../h/../h/my_console.h **** 
  24:src/../h/../h/my_console.h ****     putString("===================== ASSERT file: ");
 108              		.loc 3 24 5 is_stmt 1
 109              		.loc 3 24 14 is_stmt 0
 110 0078 17050000 		lla	a0,.LC0
 110      13050500 
 111 0080 97000000 		call	_Z9putStringPKc@plt
 111      E7800000 
 112              	.LVL5:
  25:src/../h/../h/my_console.h ****     putString(file);
 113              		.loc 3 25 5 is_stmt 1
 114              		.loc 3 25 14 is_stmt 0
 115 0088 17050000 		lla	a0,.LC1
 115      13050500 
 116 0090 97000000 		call	_Z9putStringPKc@plt
 116      E7800000 
 117              	.LVL6:
  26:src/../h/../h/my_console.h ****     putString("    line: ");
 118              		.loc 3 26 5 is_stmt 1
 119              		.loc 3 26 14 is_stmt 0
 120 0098 17050000 		lla	a0,.LC2
 120      13050500 
 121 00a0 97000000 		call	_Z9putStringPKc@plt
 121      E7800000 
 122              	.LVL7:
  27:src/../h/../h/my_console.h ****     putInt(line);
 123              		.loc 3 27 5 is_stmt 1
 124              		.loc 3 27 11 is_stmt 0
 125 00a8 13058002 		li	a0,40
 126 00ac 97000000 		call	_Z6putInti@plt
 126      E7800000 
 127              	.LVL8:
  28:src/../h/../h/my_console.h ****     putString("   ===========================");
 128              		.loc 3 28 5 is_stmt 1
 129              		.loc 3 28 14 is_stmt 0
GAS LISTING /tmp/ccP9tREr.s 			page 6


 130 00b4 17050000 		lla	a0,.LC3
 130      13050500 
 131 00bc 97000000 		call	_Z9putStringPKc@plt
 131      E7800000 
 132              	.LVL9:
  29:src/../h/../h/my_console.h ****     putNewline();
 133              		.loc 3 29 5 is_stmt 1
 134              		.loc 3 29 15 is_stmt 0
 135 00c4 97000000 		call	_Z10putNewlinev@plt
 135      E7800000 
 136              	.LVL10:
  30:src/../h/../h/my_console.h **** 
  31:src/../h/../h/my_console.h ****     stopKernel();
 137              		.loc 3 31 5 is_stmt 1
 138              		.loc 3 31 15 is_stmt 0
 139 00cc 97000000 		call	_Z10stopKernelv@plt
 139      E7800000 
 140              	.LVL11:
 141              	.LBE26:
 142              	.LBE27:
 143              		.cfi_endproc
 144              	.LFE11:
 146              		.align	2
 147              		.globl	_Z19initInterruptVectorv
 149              	_Z19initInterruptVectorv:
 150              	.LFB12:
  50:src/main.cpp  **** 
 151              		.loc 1 50 1 is_stmt 1
 152              		.cfi_startproc
 153 00d4 130101FF 		addi	sp,sp,-16
 154              		.cfi_def_cfa_offset 16
 155 00d8 23348100 		sd	s0,8(sp)
 156              		.cfi_offset 8, -8
 157 00dc 13040101 		addi	s0,sp,16
 158              		.cfi_def_cfa 8, 0
  53:src/main.cpp  **** 
 159              		.loc 1 53 5
  53:src/main.cpp  **** 
 160              		.loc 1 53 78 is_stmt 0
 161 00e0 97070000 		la	a5,trapRoutine
 161      83B70700 
 162              	#APP
 163              	# 53 "src/main.cpp" 1
  56:src/main.cpp  ****     __asm__ volatile ("csrc stvec, 0x2");
 164              		csrw stvec, a5
 165              	# 0 "" 2
 166              		.loc 1 56 5 is_stmt 1
  56:src/main.cpp  ****     __asm__ volatile ("csrc stvec, 0x2");
 167              		.loc 1 56 41 is_stmt 0
 168              	# 56 "src/main.cpp" 1
  57:src/main.cpp  **** }
 169              		csrs stvec, 0x1
 170              	# 0 "" 2
 171              		.loc 1 57 5 is_stmt 1
  57:src/main.cpp  **** }
 172              		.loc 1 57 41 is_stmt 0
 173              	# 57 "src/main.cpp" 1
GAS LISTING /tmp/ccP9tREr.s 			page 7


 174              		csrc stvec, 0x2
 175              	# 0 "" 2
 176              		.loc 1 58 1
 177              	#NO_APP
 178 00f4 03348100 		ld	s0,8(sp)
 179              		.cfi_restore 8
 180              		.cfi_def_cfa 2, 16
 181 00f8 13010101 		addi	sp,sp,16
 182              		.cfi_def_cfa_offset 0
 183 00fc 67800000 		jr	ra
 184              		.cfi_endproc
 185              	.LFE12:
 187              		.align	2
 188              		.globl	main
 190              	main:
 191              	.LFB10:
  18:src/main.cpp  ****     disableExternalInterrupts();
 192              		.loc 1 18 1 is_stmt 1
 193              		.cfi_startproc
 194 0100 130101FE 		addi	sp,sp,-32
 195              		.cfi_def_cfa_offset 32
 196 0104 233C1100 		sd	ra,24(sp)
 197 0108 23388100 		sd	s0,16(sp)
 198 010c 23349100 		sd	s1,8(sp)
 199              		.cfi_offset 1, -8
 200              		.cfi_offset 8, -16
 201              		.cfi_offset 9, -24
 202 0110 13040102 		addi	s0,sp,32
 203              		.cfi_def_cfa 8, 0
  19:src/main.cpp  **** 
 204              		.loc 1 19 5
  19:src/main.cpp  **** 
 205              		.loc 1 19 30 is_stmt 0
 206 0114 97000000 		call	_Z25disableExternalInterruptsv@plt
 206      E7800000 
 207              	.LVL12:
  21:src/main.cpp  ****     doInitialAsserts();
 208              		.loc 1 21 5 is_stmt 1
  21:src/main.cpp  ****     doInitialAsserts();
 209              		.loc 1 21 24 is_stmt 0
 210 011c 97000000 		call	_Z19initInterruptVectorv
 210      E7800000 
 211              	.LVL13:
  22:src/main.cpp  **** 
 212              		.loc 1 22 5 is_stmt 1
  22:src/main.cpp  **** 
 213              		.loc 1 22 21 is_stmt 0
 214 0124 97000000 		call	_Z16doInitialAssertsv
 214      E7800000 
 215              	.LVL14:
  24:src/main.cpp  ****     kernelThread.id = 0;
 216              		.loc 1 24 5 is_stmt 1
  24:src/main.cpp  ****     kernelThread.id = 0;
 217              		.loc 1 24 24 is_stmt 0
 218 012c 97040000 		lla	s1,.LANCHOR0
 218      93840400 
 219 0134 13850400 		mv	a0,s1
GAS LISTING /tmp/ccP9tREr.s 			page 8


 220 0138 97000000 		call	_ZN6Thread11setPRunningEPS_@plt
 220      E7800000 
 221              	.LVL15:
  25:src/main.cpp  ****     Thread::pAllThreads[0] = &kernelThread;
 222              		.loc 1 25 5 is_stmt 1
  25:src/main.cpp  ****     Thread::pAllThreads[0] = &kernelThread;
 223              		.loc 1 25 21 is_stmt 0
 224 0140 23BC041A 		sd	zero,440(s1)
  26:src/main.cpp  **** 
 225              		.loc 1 26 5 is_stmt 1
  26:src/main.cpp  **** 
 226              		.loc 1 26 28 is_stmt 0
 227 0144 97070000 		la	a5,_ZN6Thread11pAllThreadsE
 227      83B70700 
 228 014c 23B09700 		sd	s1,0(a5)
  28:src/main.cpp  **** 
 229              		.loc 1 28 5 is_stmt 1
  28:src/main.cpp  **** 
 230              		.loc 1 28 29 is_stmt 0
 231 0150 97000000 		call	_Z24enableExternalInterruptsv@plt
 231      E7800000 
 232              	.LVL16:
  30:src/main.cpp  **** 
 233              		.loc 1 30 5 is_stmt 1
  30:src/main.cpp  **** 
 234              		.loc 1 30 13 is_stmt 0
 235 0158 97000000 		call	_Z8userMainv@plt
 235      E7800000 
 236              	.LVL17:
  32:src/main.cpp  **** 
 237              		.loc 1 32 5 is_stmt 1
  32:src/main.cpp  **** 
 238              		.loc 1 32 30 is_stmt 0
 239 0160 97000000 		call	_Z25disableExternalInterruptsv@plt
 239      E7800000 
 240              	.LVL18:
  34:src/main.cpp  **** }
 241              		.loc 1 34 5 is_stmt 1
  35:src/main.cpp  **** 
 242              		.loc 1 35 1 is_stmt 0
 243 0168 13050000 		li	a0,0
 244 016c 83308101 		ld	ra,24(sp)
 245              		.cfi_restore 1
 246 0170 03340101 		ld	s0,16(sp)
 247              		.cfi_restore 8
 248              		.cfi_def_cfa 2, 32
 249 0174 83348100 		ld	s1,8(sp)
 250              		.cfi_restore 9
 251 0178 13010102 		addi	sp,sp,32
 252              		.cfi_def_cfa_offset 0
 253 017c 67800000 		jr	ra
 254              		.cfi_endproc
 255              	.LFE10:
 257              		.align	2
 259              	_GLOBAL__sub_I_kernelThread:
 260              	.LFB14:
 261              		.loc 1 58 1 is_stmt 1
GAS LISTING /tmp/ccP9tREr.s 			page 9


 262              		.cfi_startproc
 263 0180 130101FF 		addi	sp,sp,-16
 264              		.cfi_def_cfa_offset 16
 265 0184 23341100 		sd	ra,8(sp)
 266 0188 23308100 		sd	s0,0(sp)
 267              		.cfi_offset 1, -8
 268              		.cfi_offset 8, -16
 269 018c 13040101 		addi	s0,sp,16
 270              		.cfi_def_cfa 8, 0
 271              		.loc 1 58 1 is_stmt 0
 272 0190 B7050100 		li	a1,65536
 273 0194 9385F5FF 		addi	a1,a1,-1
 274 0198 13051000 		li	a0,1
 275 019c 97000000 		call	_Z41__static_initialization_and_destruction_0ii
 275      E7800000 
 276              	.LVL19:
 277 01a4 83308100 		ld	ra,8(sp)
 278              		.cfi_restore 1
 279 01a8 03340100 		ld	s0,0(sp)
 280              		.cfi_restore 8
 281              		.cfi_def_cfa 2, 16
 282 01ac 13010101 		addi	sp,sp,16
 283              		.cfi_def_cfa_offset 0
 284 01b0 67800000 		jr	ra
 285              		.cfi_endproc
 286              	.LFE14:
 288              		.section	.init_array,"aw"
 289              		.align	3
 290 0000 00000000 		.dword	_GLOBAL__sub_I_kernelThread
 290      00000000 
 291              		.globl	kernelStack
 292              		.globl	kernelThread
 293              		.bss
 294              		.align	3
 295              		.set	.LANCHOR0,. + 0
 298              	kernelThread:
 299 0000 00000000 		.zero	456
 299      00000000 
 299      00000000 
 299      00000000 
 299      00000000 
 302              	kernelStack:
 303 01c8 00000000 		.zero	43696
 303      00000000 
 303      00000000 
 303      00000000 
 303      00000000 
 304              		.text
 305              	.Letext0:
 306              		.file 4 "src/../h/../lib/hw.h"
 307              		.file 5 "src/../h/../h/../h/risc.h"
GAS LISTING /tmp/ccP9tREr.s 			page 10


DEFINED SYMBOLS
                            *ABS*:0000000000000000 main.cpp
     /tmp/ccP9tREr.s:8      .text:0000000000000000 _Z41__static_initialization_and_destruction_0ii
     /tmp/ccP9tREr.s:12     .text:0000000000000000 .L0 
     /tmp/ccP9tREr.s:14     .text:0000000000000000 .L0 
     /tmp/ccP9tREr.s:15     .text:0000000000000004 .L0 
     /tmp/ccP9tREr.s:17     .text:0000000000000008 .L0 
     /tmp/ccP9tREr.s:19     .text:000000000000000c .L0 
     /tmp/ccP9tREr.s:21     .text:000000000000000c .L0 
     /tmp/ccP9tREr.s:25     .text:0000000000000018 .L0 
     /tmp/ccP9tREr.s:26     .text:0000000000000018 .L0 
     /tmp/ccP9tREr.s:27     .text:0000000000000018 .L0 
     /tmp/ccP9tREr.s:29     .text:000000000000001c .L0 
     /tmp/ccP9tREr.s:32     .text:0000000000000020 .L0 
     /tmp/ccP9tREr.s:34     .text:0000000000000020 .L0 
     /tmp/ccP9tREr.s:43     .text:000000000000002c .L0 
     /tmp/ccP9tREr.s:49     .text:0000000000000034 .L0 
     /tmp/ccP9tREr.s:50     .text:0000000000000038 .L0 
     /tmp/ccP9tREr.s:70     .text:0000000000000038 _Z16doInitialAssertsv
     /tmp/ccP9tREr.s:73     .text:0000000000000038 .L0 
     /tmp/ccP9tREr.s:74     .text:0000000000000038 .L0 
     /tmp/ccP9tREr.s:77     .text:0000000000000038 .L0 
     /tmp/ccP9tREr.s:78     .text:0000000000000038 .L0 
     /tmp/ccP9tREr.s:79     .text:0000000000000038 .L0 
     /tmp/ccP9tREr.s:80     .text:0000000000000038 .L0 
     /tmp/ccP9tREr.s:92     .text:0000000000000060 .L0 
     /tmp/ccP9tREr.s:98     .text:0000000000000068 .L0 
     /tmp/ccP9tREr.s:99     .text:000000000000006c .L0 
     /tmp/ccP9tREr.s:102    .text:0000000000000074 .L0 
     /tmp/ccP9tREr.s:103    .text:0000000000000074 .L0 
     /tmp/ccP9tREr.s:105    .text:0000000000000078 .L0 
     /tmp/ccP9tREr.s:109    .text:0000000000000078 .L0 
     /tmp/ccP9tREr.s:110    .text:0000000000000078 .L0 
     /tmp/ccP9tREr.s:114    .text:0000000000000088 .L0 
     /tmp/ccP9tREr.s:115    .text:0000000000000088 .L0 
     /tmp/ccP9tREr.s:119    .text:0000000000000098 .L0 
     /tmp/ccP9tREr.s:120    .text:0000000000000098 .L0 
     /tmp/ccP9tREr.s:124    .text:00000000000000a8 .L0 
     /tmp/ccP9tREr.s:125    .text:00000000000000a8 .L0 
     /tmp/ccP9tREr.s:129    .text:00000000000000b4 .L0 
     /tmp/ccP9tREr.s:130    .text:00000000000000b4 .L0 
     /tmp/ccP9tREr.s:134    .text:00000000000000c4 .L0 
     /tmp/ccP9tREr.s:135    .text:00000000000000c4 .L0 
     /tmp/ccP9tREr.s:138    .text:00000000000000cc .L0 
     /tmp/ccP9tREr.s:139    .text:00000000000000cc .L0 
     /tmp/ccP9tREr.s:143    .text:00000000000000d4 .L0 
     /tmp/ccP9tREr.s:149    .text:00000000000000d4 _Z19initInterruptVectorv
     /tmp/ccP9tREr.s:152    .text:00000000000000d4 .L0 
     /tmp/ccP9tREr.s:153    .text:00000000000000d4 .L0 
     /tmp/ccP9tREr.s:154    .text:00000000000000d8 .L0 
     /tmp/ccP9tREr.s:156    .text:00000000000000dc .L0 
     /tmp/ccP9tREr.s:158    .text:00000000000000e0 .L0 
     /tmp/ccP9tREr.s:160    .text:00000000000000e0 .L0 
     /tmp/ccP9tREr.s:161    .text:00000000000000e0 .L0 
     /tmp/ccP9tREr.s:167    .text:00000000000000ec .L0 
        src/main.cpp:56     .text:00000000000000ec .L0 
     /tmp/ccP9tREr.s:172    .text:00000000000000f0 .L0 
GAS LISTING /tmp/ccP9tREr.s 			page 11


        src/main.cpp:57     .text:00000000000000f0 .L0 
     /tmp/ccP9tREr.s:178    .text:00000000000000f4 .L0 
     /tmp/ccP9tREr.s:179    .text:00000000000000f8 .L0 
     /tmp/ccP9tREr.s:180    .text:00000000000000f8 .L0 
     /tmp/ccP9tREr.s:182    .text:00000000000000fc .L0 
     /tmp/ccP9tREr.s:184    .text:0000000000000100 .L0 
     /tmp/ccP9tREr.s:190    .text:0000000000000100 main
     /tmp/ccP9tREr.s:193    .text:0000000000000100 .L0 
     /tmp/ccP9tREr.s:194    .text:0000000000000100 .L0 
     /tmp/ccP9tREr.s:195    .text:0000000000000104 .L0 
     /tmp/ccP9tREr.s:199    .text:0000000000000110 .L0 
     /tmp/ccP9tREr.s:200    .text:0000000000000110 .L0 
     /tmp/ccP9tREr.s:201    .text:0000000000000110 .L0 
     /tmp/ccP9tREr.s:203    .text:0000000000000114 .L0 
     /tmp/ccP9tREr.s:205    .text:0000000000000114 .L0 
     /tmp/ccP9tREr.s:206    .text:0000000000000114 .L0 
     /tmp/ccP9tREr.s:209    .text:000000000000011c .L0 
     /tmp/ccP9tREr.s:210    .text:000000000000011c .L0 
     /tmp/ccP9tREr.s:213    .text:0000000000000124 .L0 
     /tmp/ccP9tREr.s:214    .text:0000000000000124 .L0 
     /tmp/ccP9tREr.s:217    .text:000000000000012c .L0 
     /tmp/ccP9tREr.s:218    .text:000000000000012c .L0 
     /tmp/ccP9tREr.s:223    .text:0000000000000140 .L0 
     /tmp/ccP9tREr.s:224    .text:0000000000000140 .L0 
     /tmp/ccP9tREr.s:226    .text:0000000000000144 .L0 
     /tmp/ccP9tREr.s:227    .text:0000000000000144 .L0 
     /tmp/ccP9tREr.s:230    .text:0000000000000150 .L0 
     /tmp/ccP9tREr.s:231    .text:0000000000000150 .L0 
     /tmp/ccP9tREr.s:234    .text:0000000000000158 .L0 
     /tmp/ccP9tREr.s:235    .text:0000000000000158 .L0 
     /tmp/ccP9tREr.s:238    .text:0000000000000160 .L0 
     /tmp/ccP9tREr.s:239    .text:0000000000000160 .L0 
     /tmp/ccP9tREr.s:242    .text:0000000000000168 .L0 
     /tmp/ccP9tREr.s:243    .text:0000000000000168 .L0 
     /tmp/ccP9tREr.s:245    .text:0000000000000170 .L0 
     /tmp/ccP9tREr.s:247    .text:0000000000000174 .L0 
     /tmp/ccP9tREr.s:248    .text:0000000000000174 .L0 
     /tmp/ccP9tREr.s:250    .text:0000000000000178 .L0 
     /tmp/ccP9tREr.s:252    .text:000000000000017c .L0 
     /tmp/ccP9tREr.s:254    .text:0000000000000180 .L0 
     /tmp/ccP9tREr.s:259    .text:0000000000000180 _GLOBAL__sub_I_kernelThread
     /tmp/ccP9tREr.s:262    .text:0000000000000180 .L0 
     /tmp/ccP9tREr.s:263    .text:0000000000000180 .L0 
     /tmp/ccP9tREr.s:264    .text:0000000000000184 .L0 
     /tmp/ccP9tREr.s:267    .text:000000000000018c .L0 
     /tmp/ccP9tREr.s:268    .text:000000000000018c .L0 
     /tmp/ccP9tREr.s:270    .text:0000000000000190 .L0 
     /tmp/ccP9tREr.s:272    .text:0000000000000190 .L0 
     /tmp/ccP9tREr.s:278    .text:00000000000001a8 .L0 
     /tmp/ccP9tREr.s:280    .text:00000000000001ac .L0 
     /tmp/ccP9tREr.s:281    .text:00000000000001ac .L0 
     /tmp/ccP9tREr.s:283    .text:00000000000001b0 .L0 
     /tmp/ccP9tREr.s:285    .text:00000000000001b4 .L0 
     /tmp/ccP9tREr.s:302    .bss:00000000000001c8 kernelStack
     /tmp/ccP9tREr.s:298    .bss:0000000000000000 kernelThread
     /tmp/ccP9tREr.s:295    .bss:0000000000000000 .LANCHOR0
     /tmp/ccP9tREr.s:308    .text:00000000000001b4 .L0 
GAS LISTING /tmp/ccP9tREr.s 			page 12


     /tmp/ccP9tREr.s:43     .text:000000000000002c .L0 
     /tmp/ccP9tREr.s:80     .text:0000000000000038 .L0 
     /tmp/ccP9tREr.s:82     .text:0000000000000044 .L0 
     /tmp/ccP9tREr.s:55     .rodata.str1.8:0000000000000000 .LC0
     /tmp/ccP9tREr.s:110    .text:0000000000000078 .L0 
     /tmp/ccP9tREr.s:58     .rodata.str1.8:0000000000000028 .LC1
     /tmp/ccP9tREr.s:115    .text:0000000000000088 .L0 
     /tmp/ccP9tREr.s:61     .rodata.str1.8:0000000000000038 .LC2
     /tmp/ccP9tREr.s:120    .text:0000000000000098 .L0 
     /tmp/ccP9tREr.s:64     .rodata.str1.8:0000000000000048 .LC3
     /tmp/ccP9tREr.s:130    .text:00000000000000b4 .L0 
     /tmp/ccP9tREr.s:161    .text:00000000000000e0 .L0 
     /tmp/ccP9tREr.s:218    .text:000000000000012c .L0 
     /tmp/ccP9tREr.s:227    .text:0000000000000144 .L0 
     /tmp/ccP9tREr.s:31     .text:0000000000000020 .L4
     /tmp/ccP9tREr.s:23     .text:0000000000000014 .L1
     /tmp/ccP9tREr.s:94     .text:0000000000000068 .L10
     /tmp/ccP9tREr.s:1061   .debug_abbrev:0000000000000000 .Ldebug_abbrev0
     /tmp/ccP9tREr.s:2105   .debug_str:00000000000004b0 .LASF81
     /tmp/ccP9tREr.s:2019   .debug_str:000000000000023b .LASF82
     /tmp/ccP9tREr.s:2071   .debug_str:000000000000038f .LASF83
     /tmp/ccP9tREr.s:5      .text:0000000000000000 .Ltext0
     /tmp/ccP9tREr.s:305    .text:00000000000001b4 .Letext0
     /tmp/ccP9tREr.s:1939   .debug_line:0000000000000000 .Ldebug_line0
     /tmp/ccP9tREr.s:2039   .debug_str:00000000000002b1 .LASF0
     /tmp/ccP9tREr.s:2051   .debug_str:0000000000000313 .LASF1
     /tmp/ccP9tREr.s:2029   .debug_str:0000000000000273 .LASF2
     /tmp/ccP9tREr.s:2005   .debug_str:00000000000001e5 .LASF4
     /tmp/ccP9tREr.s:2091   .debug_str:0000000000000437 .LASF3
     /tmp/ccP9tREr.s:1963   .debug_str:00000000000000b5 .LASF5
     /tmp/ccP9tREr.s:2053   .debug_str:0000000000000326 .LASF6
     /tmp/ccP9tREr.s:2037   .debug_str:000000000000029e .LASF7
     /tmp/ccP9tREr.s:2115   .debug_str:00000000000005a5 .LASF8
     /tmp/ccP9tREr.s:1997   .debug_str:00000000000001bf .LASF9
     /tmp/ccP9tREr.s:2067   .debug_str:0000000000000369 .LASF10
     /tmp/ccP9tREr.s:2107   .debug_str:0000000000000574 .LASF11
     /tmp/ccP9tREr.s:1965   .debug_str:00000000000000bc .LASF12
     /tmp/ccP9tREr.s:1949   .debug_str:0000000000000051 .LASF13
     /tmp/ccP9tREr.s:1973   .debug_str:00000000000000f9 .LASF14
     /tmp/ccP9tREr.s:2087   .debug_str:0000000000000416 .LASF15
     /tmp/ccP9tREr.s:1977   .debug_str:000000000000010a .LASF16
     /tmp/ccP9tREr.s:2055   .debug_str:0000000000000339 .LASF17
     /tmp/ccP9tREr.s:2111   .debug_str:0000000000000599 .LASF42
     /tmp/ccP9tREr.s:2001   .debug_str:00000000000001d3 .LASF84
     /tmp/ccP9tREr.s:2061   .debug_str:000000000000034f .LASF18
     /tmp/ccP9tREr.s:2035   .debug_str:0000000000000294 .LASF19
     /tmp/ccP9tREr.s:2065   .debug_str:0000000000000363 .LASF20
     /tmp/ccP9tREr.s:2033   .debug_str:0000000000000287 .LASF21
     /tmp/ccP9tREr.s:2025   .debug_str:0000000000000262 .LASF22
     /tmp/ccP9tREr.s:2059   .debug_str:0000000000000343 .LASF23
     /tmp/ccP9tREr.s:2049   .debug_str:00000000000002fe .LASF24
     /tmp/ccP9tREr.s:2099   .debug_str:0000000000000484 .LASF25
     /tmp/ccP9tREr.s:2093   .debug_str:0000000000000449 .LASF26
     /tmp/ccP9tREr.s:2003   .debug_str:00000000000001d9 .LASF27
     /tmp/ccP9tREr.s:1987   .debug_str:000000000000016a .LASF28
     /tmp/ccP9tREr.s:2103   .debug_str:00000000000004a4 .LASF29
     /tmp/ccP9tREr.s:1979   .debug_str:0000000000000120 .LASF31
GAS LISTING /tmp/ccP9tREr.s 			page 13


     /tmp/ccP9tREr.s:2063   .debug_str:0000000000000357 .LASF48
     /tmp/ccP9tREr.s:2081   .debug_str:00000000000003c8 .LASF49
     /tmp/ccP9tREr.s:2015   .debug_str:0000000000000211 .LASF41
     /tmp/ccP9tREr.s:1947   .debug_str:000000000000002c .LASF43
     /tmp/ccP9tREr.s:2079   .debug_str:00000000000003c3 .LASF35
     /tmp/ccP9tREr.s:2027   .debug_str:000000000000026e .LASF30
     /tmp/ccP9tREr.s:1961   .debug_str:00000000000000a3 .LASF32
     /tmp/ccP9tREr.s:1959   .debug_str:000000000000009d .LASF33
     /tmp/ccP9tREr.s:2009   .debug_str:00000000000001f7 .LASF34
     /tmp/ccP9tREr.s:1953   .debug_str:000000000000006c .LASF36
     /tmp/ccP9tREr.s:2011   .debug_str:00000000000001fc .LASF37
     /tmp/ccP9tREr.s:2121   .debug_str:00000000000005de .LASF38
     /tmp/ccP9tREr.s:2047   .debug_str:00000000000002f4 .LASF39
     /tmp/ccP9tREr.s:1999   .debug_str:00000000000001cd .LASF40
     /tmp/ccP9tREr.s:2069   .debug_str:0000000000000378 .LASF44
     /tmp/ccP9tREr.s:1995   .debug_str:00000000000001b0 .LASF45
     /tmp/ccP9tREr.s:2057   .debug_str:000000000000033e .LASF46
     /tmp/ccP9tREr.s:2017   .debug_str:000000000000021e .LASF47
     /tmp/ccP9tREr.s:1951   .debug_str:0000000000000061 .LASF59
     /tmp/ccP9tREr.s:1991   .debug_str:000000000000017e .LASF61
     /tmp/ccP9tREr.s:2095   .debug_str:000000000000045a .LASF50
     /tmp/ccP9tREr.s:2043   .debug_str:00000000000002cd .LASF51
     /tmp/ccP9tREr.s:1989   .debug_str:0000000000000179 .LASF52
     /tmp/ccP9tREr.s:1985   .debug_str:000000000000015d .LASF53
     /tmp/ccP9tREr.s:1967   .debug_str:00000000000000cc .LASF54
     /tmp/ccP9tREr.s:1969   .debug_str:00000000000000d8 .LASF55
     /tmp/ccP9tREr.s:260    .text:0000000000000180 .LFB14
     /tmp/ccP9tREr.s:286    .text:00000000000001b4 .LFE14
     /tmp/ccP9tREr.s:276    .text:00000000000001a4 .LVL19
     /tmp/ccP9tREr.s:2083   .debug_str:00000000000003e4 .LASF56
     /tmp/ccP9tREr.s:9      .text:0000000000000000 .LFB13
     /tmp/ccP9tREr.s:51     .text:0000000000000038 .LFE13
     /tmp/ccP9tREr.s:2023   .debug_str:0000000000000253 .LASF57
     /tmp/ccP9tREr.s:2073   .debug_str:00000000000003a3 .LASF58
     /tmp/ccP9tREr.s:38     .text:000000000000002c .LBB19
     /tmp/ccP9tREr.s:47     .text:0000000000000034 .LBE19
     /tmp/ccP9tREr.s:1893   .debug_loc:0000000000000000 .LLST0
     /tmp/ccP9tREr.s:1943   .debug_str:0000000000000011 .LASF85
     /tmp/ccP9tREr.s:2117   .debug_str:00000000000005b5 .LASF86
     /tmp/ccP9tREr.s:150    .text:00000000000000d4 .LFB12
     /tmp/ccP9tREr.s:185    .text:0000000000000100 .LFE12
     /tmp/ccP9tREr.s:1941   .debug_str:0000000000000000 .LASF60
     /tmp/ccP9tREr.s:2109   .debug_str:0000000000000583 .LASF62
     /tmp/ccP9tREr.s:71     .text:0000000000000038 .LFB11
     /tmp/ccP9tREr.s:144    .text:00000000000000d4 .LFE11
     /tmp/ccP9tREr.s:89     .text:0000000000000060 .LBB24
     /tmp/ccP9tREr.s:1931   .debug_ranges:0000000000000000 .Ldebug_ranges0
     /tmp/ccP9tREr.s:1902   .debug_loc:000000000000002c .LLST1
     /tmp/ccP9tREr.s:112    .text:0000000000000088 .LVL5
     /tmp/ccP9tREr.s:117    .text:0000000000000098 .LVL6
     /tmp/ccP9tREr.s:122    .text:00000000000000a8 .LVL7
     /tmp/ccP9tREr.s:127    .text:00000000000000b4 .LVL8
     /tmp/ccP9tREr.s:132    .text:00000000000000c4 .LVL9
     /tmp/ccP9tREr.s:136    .text:00000000000000cc .LVL10
     /tmp/ccP9tREr.s:140    .text:00000000000000d4 .LVL11
     /tmp/ccP9tREr.s:1971   .debug_str:00000000000000f4 .LASF63
     /tmp/ccP9tREr.s:191    .text:0000000000000100 .LFB10
GAS LISTING /tmp/ccP9tREr.s 			page 14


     /tmp/ccP9tREr.s:255    .text:0000000000000180 .LFE10
     /tmp/ccP9tREr.s:207    .text:000000000000011c .LVL12
     /tmp/ccP9tREr.s:211    .text:0000000000000124 .LVL13
     /tmp/ccP9tREr.s:215    .text:000000000000012c .LVL14
     /tmp/ccP9tREr.s:221    .text:0000000000000140 .LVL15
     /tmp/ccP9tREr.s:232    .text:0000000000000158 .LVL16
     /tmp/ccP9tREr.s:236    .text:0000000000000160 .LVL17
     /tmp/ccP9tREr.s:240    .text:0000000000000168 .LVL18
     /tmp/ccP9tREr.s:2075   .debug_str:00000000000003ae .LASF87
     /tmp/ccP9tREr.s:2041   .debug_str:00000000000002be .LASF88
     /tmp/ccP9tREr.s:2085   .debug_str:000000000000040e .LASF89
     /tmp/ccP9tREr.s:2101   .debug_str:0000000000000494 .LASF90
     /tmp/ccP9tREr.s:2031   .debug_str:0000000000000281 .LASF64
     /tmp/ccP9tREr.s:1975   .debug_str:0000000000000105 .LASF65
     /tmp/ccP9tREr.s:2113   .debug_str:00000000000005a0 .LASF66
     /tmp/ccP9tREr.s:2119   .debug_str:00000000000005ce .LASF67
     /tmp/ccP9tREr.s:1955   .debug_str:0000000000000074 .LASF69
     /tmp/ccP9tREr.s:2007   .debug_str:00000000000001ec .LASF68
     /tmp/ccP9tREr.s:1945   .debug_str:0000000000000025 .LASF70
     /tmp/ccP9tREr.s:2097   .debug_str:0000000000000474 .LASF71
     /tmp/ccP9tREr.s:2089   .debug_str:000000000000042c .LASF72
     /tmp/ccP9tREr.s:2077   .debug_str:00000000000003b3 .LASF73
     /tmp/ccP9tREr.s:2021   .debug_str:0000000000000248 .LASF74
     /tmp/ccP9tREr.s:1957   .debug_str:000000000000007e .LASF75
     /tmp/ccP9tREr.s:1981   .debug_str:000000000000013a .LASF76
     /tmp/ccP9tREr.s:2045   .debug_str:00000000000002d6 .LASF77
     /tmp/ccP9tREr.s:1993   .debug_str:0000000000000197 .LASF78
     /tmp/ccP9tREr.s:2013   .debug_str:0000000000000204 .LASF79
     /tmp/ccP9tREr.s:1983   .debug_str:0000000000000154 .LASF80
     /tmp/ccP9tREr.s:37     .text:000000000000002c .LVL1
     /tmp/ccP9tREr.s:44     .text:0000000000000034 .LVL2
     /tmp/ccP9tREr.s:88     .text:0000000000000060 .LVL4
     /tmp/ccP9tREr.s:309    .debug_info:0000000000000000 .Ldebug_info0
     /tmp/ccP9tREr.s:96     .text:0000000000000068 .LBE24
     /tmp/ccP9tREr.s:106    .text:0000000000000078 .LBB27
     /tmp/ccP9tREr.s:142    .text:00000000000000d4 .LBE27

UNDEFINED SYMBOLS
HEAP_END_ADDR
HEAP_START_ADDR
_Z9putStringPKc
_Z6putInti
_Z10putNewlinev
_Z10stopKernelv
trapRoutine
_Z25disableExternalInterruptsv
_ZN6Thread11setPRunningEPS_
_ZN6Thread11pAllThreadsE
_Z24enableExternalInterruptsv
_Z8userMainv
