GAS LISTING /tmp/ccnPEvpN.s 			page 1


   1              		.file	"my_console.cpp"
   2              		.option pic
   3              		.option norelax
   4              		.text
   5              	.Ltext0:
   6              		.align	2
   7              		.globl	_Z10putNewlinev
   9              	_Z10putNewlinev:
  10              	.LFB6:
  11              		.file 1 "src/my_console.cpp"
   1:src/my_console.cpp **** //
   2:src/my_console.cpp **** // Created by os on 4/25/23.
   3:src/my_console.cpp **** //
   4:src/my_console.cpp **** 
   5:src/my_console.cpp **** #include "../h/my_console.h"
   6:src/my_console.cpp **** #include "../h/syscall_c.hpp"
   7:src/my_console.cpp **** 
   8:src/my_console.cpp **** //inline void _assert(bool valid, const char* file, int line)
   9:src/my_console.cpp **** 
  10:src/my_console.cpp **** [[noreturn]] void stopKernel()
  11:src/my_console.cpp **** {
  12:src/my_console.cpp ****     __asm__ volatile("mv x10, x10");
  13:src/my_console.cpp ****     putNewline();
  14:src/my_console.cpp ****     putString("====== Stopping the kernel ======");
  15:src/my_console.cpp **** 
  16:src/my_console.cpp ****     IConsole::get()->writeToConsole();
  17:src/my_console.cpp **** 
  18:src/my_console.cpp ****     disableExternalInterrupts();
  19:src/my_console.cpp **** 
  20:src/my_console.cpp ****     volatile int a = 1;
  21:src/my_console.cpp ****     while(true)
  22:src/my_console.cpp ****     {
  23:src/my_console.cpp ****         a++;
  24:src/my_console.cpp ****     }
  25:src/my_console.cpp **** }
  26:src/my_console.cpp **** 
  27:src/my_console.cpp **** void putNewline()
  28:src/my_console.cpp **** {
  12              		.loc 1 28 1
  13              		.cfi_startproc
  14 0000 130101FF 		addi	sp,sp,-16
  15              		.cfi_def_cfa_offset 16
  16 0004 23341100 		sd	ra,8(sp)
  17 0008 23308100 		sd	s0,0(sp)
  18              		.cfi_offset 1, -8
  19              		.cfi_offset 8, -16
  20 000c 13040101 		addi	s0,sp,16
  21              		.cfi_def_cfa 8, 0
  29:src/my_console.cpp ****     putc('\n');
  22              		.loc 1 29 5
  23              		.loc 1 29 9 is_stmt 0
  24 0010 1305A000 		li	a0,10
  25 0014 97000000 		call	_Z4putcc@plt
  25      E7800000 
  26              	.LVL0:
  30:src/my_console.cpp ****     IConsole::get()->writeToConsole();
  27              		.loc 1 30 5 is_stmt 1
GAS LISTING /tmp/ccnPEvpN.s 			page 2


  28              	.LBB37:
  29              	.LBB38:
  30              		.file 2 "src/../h/../h/0_console.h"
   1:src/../h/../h/0_console.h **** #pragma once
   2:src/../h/../h/0_console.h **** 
   3:src/../h/../h/0_console.h **** #include "../lib/hw.h"
   4:src/../h/../h/0_console.h **** 
   5:src/../h/../h/0_console.h **** #define BUFFER_SIZE 1000
   6:src/../h/../h/0_console.h **** 
   7:src/../h/../h/0_console.h **** class IConsole // singleton class
   8:src/../h/../h/0_console.h **** {
   9:src/../h/../h/0_console.h **** public:
  10:src/../h/../h/0_console.h ****     static IConsole* get()
  11:src/../h/../h/0_console.h ****     {
  12:src/../h/../h/0_console.h ****         static IConsole instance;
  31              		.loc 2 12 9
  32              		.loc 2 12 25 is_stmt 0
  33 001c 97070000 		lbu	a5,_ZGVZN8IConsole3getEvE8instance
  33      83C70700 
  34 0024 63920702 		bnez	a5,.L2
  35              	.LVL1:
  36              	.LBB39:
  37              	.LBB40:
  38              	.LBB41:
  13:src/../h/../h/0_console.h ****         return &instance;
  14:src/../h/../h/0_console.h ****     }
  15:src/../h/../h/0_console.h **** 
  16:src/../h/../h/0_console.h ****     void writeToConsole();
  17:src/../h/../h/0_console.h ****     uint64 putBufferHead, putBufferTail;
  18:src/../h/../h/0_console.h ****     char putBuffer[BUFFER_SIZE];
  19:src/../h/../h/0_console.h ****     uint64 putBufferItems;
  20:src/../h/../h/0_console.h **** 
  21:src/../h/../h/0_console.h ****     char getBuffer[BUFFER_SIZE];
  22:src/../h/../h/0_console.h ****     uint64 getBufferItems;
  23:src/../h/../h/0_console.h ****     uint64 getBufferHead, getBufferTail;
  24:src/../h/../h/0_console.h **** 
  25:src/../h/../h/0_console.h ****     void putc(char c);
  26:src/../h/../h/0_console.h ****     char getc();
  27:src/../h/../h/0_console.h ****     void consoleHandler();
  28:src/../h/../h/0_console.h ****     void actualWriteToConsole();
  29:src/../h/../h/0_console.h **** 
  30:src/../h/../h/0_console.h **** private:
  31:src/../h/../h/0_console.h ****     IConsole()
  32:src/../h/../h/0_console.h ****         : putBufferHead(0), putBufferTail(0), putBufferItems(0)
  39              		.loc 2 32 63
  40 0028 97070000 		lla	a5,_ZZN8IConsole3getEvE8instance
  40      93870700 
  41 0030 23B00700 		sd	zero,0(a5)
  42 0034 23B40700 		sd	zero,8(a5)
  43 0038 23BC073E 		sd	zero,1016(a5)
  44              	.LVL2:
  45              	.LBE41:
  46              	.LBE40:
  47              	.LBE39:
  12:src/../h/../h/0_console.h ****         return &instance;
  48              		.loc 2 12 25
  49 003c 93071000 		li	a5,1
GAS LISTING /tmp/ccnPEvpN.s 			page 3


  50 0040 17070000 		sb	a5,_ZGVZN8IConsole3getEvE8instance,a4
  50      2300F700 
  51              	.L2:
  13:src/../h/../h/0_console.h ****         return &instance;
  52              		.loc 2 13 9 is_stmt 1
  53              	.LBE38:
  54              	.LBE37:
  55              		.loc 1 30 36 is_stmt 0
  56 0048 17050000 		lla	a0,_ZZN8IConsole3getEvE8instance
  56      13050500 
  57 0050 97000000 		call	_ZN8IConsole14writeToConsoleEv@plt
  57      E7800000 
  58              	.LVL3:
  31:src/my_console.cpp **** }
  59              		.loc 1 31 1
  60 0058 83308100 		ld	ra,8(sp)
  61              		.cfi_restore 1
  62 005c 03340100 		ld	s0,0(sp)
  63              		.cfi_restore 8
  64              		.cfi_def_cfa 2, 16
  65 0060 13010101 		addi	sp,sp,16
  66              		.cfi_def_cfa_offset 0
  67 0064 67800000 		jr	ra
  68              		.cfi_endproc
  69              	.LFE6:
  71              		.align	2
  72              		.globl	_Z9putStringPKc
  74              	_Z9putStringPKc:
  75              	.LFB7:
  32:src/my_console.cpp **** 
  33:src/my_console.cpp **** void putString(const char* s)
  34:src/my_console.cpp **** {
  76              		.loc 1 34 1 is_stmt 1
  77              		.cfi_startproc
  78              	.LVL4:
  79 0068 130101FE 		addi	sp,sp,-32
  80              		.cfi_def_cfa_offset 32
  81 006c 233C1100 		sd	ra,24(sp)
  82 0070 23388100 		sd	s0,16(sp)
  83 0074 23349100 		sd	s1,8(sp)
  84 0078 23302101 		sd	s2,0(sp)
  85              		.cfi_offset 1, -8
  86              		.cfi_offset 8, -16
  87              		.cfi_offset 9, -24
  88              		.cfi_offset 18, -32
  89 007c 13040102 		addi	s0,sp,32
  90              		.cfi_def_cfa 8, 0
  91 0080 13090500 		mv	s2,a0
  35:src/my_console.cpp ****     int i=0;
  92              		.loc 1 35 5
  93              	.LVL5:
  94              		.loc 1 35 9 is_stmt 0
  95 0084 93040000 		li	s1,0
  96              	.LVL6:
  97              	.L6:
  36:src/my_console.cpp ****     while(true)
  98              		.loc 1 36 5 is_stmt 1
GAS LISTING /tmp/ccnPEvpN.s 			page 4


  37:src/my_console.cpp ****     {
  38:src/my_console.cpp ****         if(s[i] == '\0')
  99              		.loc 1 38 9
 100              		.loc 1 38 15 is_stmt 0
 101 0088 B3079900 		add	a5,s2,s1
 102 008c 03C50700 		lbu	a0,0(a5)
 103              		.loc 1 38 9
 104 0090 630A0500 		beqz	a0,.L5
  39:src/my_console.cpp ****             break;
  40:src/my_console.cpp ****         else putc(s[i++]);
 105              		.loc 1 40 14 is_stmt 1
 106              		.loc 1 40 22 is_stmt 0
 107 0094 9B841400 		addiw	s1,s1,1
 108              	.LVL7:
 109              		.loc 1 40 18
 110 0098 97000000 		call	_Z4putcc@plt
 110      E7800000 
 111              	.LVL8:
  36:src/my_console.cpp ****     {
 112              		.loc 1 36 5 is_stmt 1
  38:src/my_console.cpp ****             break;
 113              		.loc 1 38 9 is_stmt 0
 114 00a0 6FF09FFE 		j	.L6
 115              	.LVL9:
 116              	.L5:
  41:src/my_console.cpp ****     }
  42:src/my_console.cpp **** 
  43:src/my_console.cpp ****     IConsole::get()->writeToConsole();
 117              		.loc 1 43 5 is_stmt 1
 118              	.LBB42:
 119              	.LBB43:
  12:src/../h/../h/0_console.h ****         return &instance;
 120              		.loc 2 12 9
  12:src/../h/../h/0_console.h ****         return &instance;
 121              		.loc 2 12 25 is_stmt 0
 122 00a4 97070000 		lbu	a5,_ZGVZN8IConsole3getEvE8instance
 122      83C70700 
 123 00ac 63920702 		bnez	a5,.L7
 124              	.LVL10:
 125              	.LBB44:
 126              	.LBB45:
 127              	.LBB46:
 128              		.loc 2 32 63
 129 00b0 97070000 		lla	a5,_ZZN8IConsole3getEvE8instance
 129      93870700 
 130 00b8 23B00700 		sd	zero,0(a5)
 131 00bc 23B40700 		sd	zero,8(a5)
 132 00c0 23BC073E 		sd	zero,1016(a5)
 133              	.LVL11:
 134              	.LBE46:
 135              	.LBE45:
 136              	.LBE44:
  12:src/../h/../h/0_console.h ****         return &instance;
 137              		.loc 2 12 25
 138 00c4 93071000 		li	a5,1
 139 00c8 17070000 		sb	a5,_ZGVZN8IConsole3getEvE8instance,a4
 139      2300F700 
GAS LISTING /tmp/ccnPEvpN.s 			page 5


 140              	.L7:
  13:src/../h/../h/0_console.h ****     }
 141              		.loc 2 13 9 is_stmt 1
 142              	.LBE43:
 143              	.LBE42:
 144              		.loc 1 43 36 is_stmt 0
 145 00d0 17050000 		lla	a0,_ZZN8IConsole3getEvE8instance
 145      13050500 
 146 00d8 97000000 		call	_ZN8IConsole14writeToConsoleEv@plt
 146      E7800000 
 147              	.LVL12:
  44:src/my_console.cpp **** }
 148              		.loc 1 44 1
 149 00e0 83308101 		ld	ra,24(sp)
 150              		.cfi_restore 1
 151 00e4 03340101 		ld	s0,16(sp)
 152              		.cfi_restore 8
 153              		.cfi_def_cfa 2, 32
 154 00e8 83348100 		ld	s1,8(sp)
 155              		.cfi_restore 9
 156              	.LVL13:
 157 00ec 03390100 		ld	s2,0(sp)
 158              		.cfi_restore 18
 159              	.LVL14:
 160 00f0 13010102 		addi	sp,sp,32
 161              		.cfi_def_cfa_offset 0
 162 00f4 67800000 		jr	ra
 163              		.cfi_endproc
 164              	.LFE7:
 166              		.section	.rodata.str1.8,"aMS",@progbits,1
 167              		.align	3
 168              	.LC0:
 169 0000 3D3D3D3D 		.string	"====== Stopping the kernel ======"
 169      3D3D2053 
 169      746F7070 
 169      696E6720 
 169      74686520 
 170              		.text
 171              		.align	2
 172              		.globl	_Z10stopKernelv
 174              	_Z10stopKernelv:
 175              	.LFB5:
  11:src/my_console.cpp ****     __asm__ volatile("mv x10, x10");
 176              		.loc 1 11 1 is_stmt 1
 177              		.cfi_startproc
 178 00f8 130101FE 		addi	sp,sp,-32
 179              		.cfi_def_cfa_offset 32
 180 00fc 233C1100 		sd	ra,24(sp)
 181 0100 23388100 		sd	s0,16(sp)
 182              		.cfi_offset 1, -8
 183              		.cfi_offset 8, -16
 184 0104 13040102 		addi	s0,sp,32
 185              		.cfi_def_cfa 8, 0
  12:src/my_console.cpp ****     putNewline();
 186              		.loc 1 12 5
  12:src/my_console.cpp ****     putNewline();
 187              		.loc 1 12 36 is_stmt 0
GAS LISTING /tmp/ccnPEvpN.s 			page 6


 188              	#APP
 189              	# 12 "src/my_console.cpp" 1
  13:src/my_console.cpp ****     putString("====== Stopping the kernel ======");
 190              		mv x10, x10
 191              	# 0 "" 2
 192              		.loc 1 13 5 is_stmt 1
  13:src/my_console.cpp ****     putString("====== Stopping the kernel ======");
 193              		.loc 1 13 15 is_stmt 0
 194              	#NO_APP
 195 010c 97000000 		call	_Z10putNewlinev
 195      E7800000 
 196              	.LVL15:
  14:src/my_console.cpp **** 
 197              		.loc 1 14 5 is_stmt 1
  14:src/my_console.cpp **** 
 198              		.loc 1 14 14 is_stmt 0
 199 0114 17050000 		lla	a0,.LC0
 199      13050500 
 200 011c 97000000 		call	_Z9putStringPKc
 200      E7800000 
 201              	.LVL16:
  16:src/my_console.cpp **** 
 202              		.loc 1 16 5 is_stmt 1
 203              	.LBB47:
 204              	.LBB48:
  12:src/../h/../h/0_console.h ****         return &instance;
 205              		.loc 2 12 9
  12:src/../h/../h/0_console.h ****         return &instance;
 206              		.loc 2 12 25 is_stmt 0
 207 0124 97070000 		lbu	a5,_ZGVZN8IConsole3getEvE8instance
 207      83C70700 
 208 012c 63920702 		bnez	a5,.L10
 209              	.LVL17:
 210              	.LBB49:
 211              	.LBB50:
 212              	.LBB51:
 213              		.loc 2 32 63
 214 0130 97070000 		lla	a5,_ZZN8IConsole3getEvE8instance
 214      93870700 
 215 0138 23B00700 		sd	zero,0(a5)
 216 013c 23B40700 		sd	zero,8(a5)
 217 0140 23BC073E 		sd	zero,1016(a5)
 218              	.LVL18:
 219              	.LBE51:
 220              	.LBE50:
 221              	.LBE49:
  12:src/../h/../h/0_console.h ****         return &instance;
 222              		.loc 2 12 25
 223 0144 93071000 		li	a5,1
 224 0148 17070000 		sb	a5,_ZGVZN8IConsole3getEvE8instance,a4
 224      2300F700 
 225              	.L10:
  13:src/../h/../h/0_console.h ****     }
 226              		.loc 2 13 9 is_stmt 1
 227              	.LBE48:
 228              	.LBE47:
  16:src/my_console.cpp **** 
GAS LISTING /tmp/ccnPEvpN.s 			page 7


 229              		.loc 1 16 36 is_stmt 0
 230 0150 17050000 		lla	a0,_ZZN8IConsole3getEvE8instance
 230      13050500 
 231 0158 97000000 		call	_ZN8IConsole14writeToConsoleEv@plt
 231      E7800000 
 232              	.LVL19:
  18:src/my_console.cpp **** 
 233              		.loc 1 18 5 is_stmt 1
  18:src/my_console.cpp **** 
 234              		.loc 1 18 30 is_stmt 0
 235 0160 97000000 		call	_Z25disableExternalInterruptsv@plt
 235      E7800000 
 236              	.LVL20:
  20:src/my_console.cpp ****     while(true)
 237              		.loc 1 20 5 is_stmt 1
  20:src/my_console.cpp ****     while(true)
 238              		.loc 1 20 18 is_stmt 0
 239 0168 93071000 		li	a5,1
 240 016c 2326F4FE 		sw	a5,-20(s0)
 241              	.L11:
  21:src/my_console.cpp ****     {
 242              		.loc 1 21 5 is_stmt 1 discriminator 1
  23:src/my_console.cpp ****     }
 243              		.loc 1 23 9 discriminator 1
  23:src/my_console.cpp ****     }
 244              		.loc 1 23 10 is_stmt 0 discriminator 1
 245 0170 8327C4FE 		lw	a5,-20(s0)
 246 0174 9B871700 		addiw	a5,a5,1
 247 0178 2326F4FE 		sw	a5,-20(s0)
  21:src/my_console.cpp ****     {
 248              		.loc 1 21 5 is_stmt 1 discriminator 1
 249 017c 6FF05FFF 		j	.L11
 250              		.cfi_endproc
 251              	.LFE5:
 253              		.section	.rodata.str1.8
 254 0022 00000000 		.align	3
 254      0000
 255              	.LC2:
 256 0028 3D3D3D3D 		.string	"===== FATAL PRINTING ERROR IN FUNCTION putU64() Stoping the kernel ===="
 256      3D204641 
 256      54414C20 
 256      5052494E 
 256      54494E47 
 257              		.text
 258              		.align	2
 259              		.globl	_Z6putU64m
 261              	_Z6putU64m:
 262              	.LFB8:
  45:src/my_console.cpp **** 
  46:src/my_console.cpp **** void putU64(uint64 n)
  47:src/my_console.cpp **** {
 263              		.loc 1 47 1
 264              		.cfi_startproc
 265              	.LVL21:
 266 0180 130101FE 		addi	sp,sp,-32
 267              		.cfi_def_cfa_offset 32
 268 0184 233C1100 		sd	ra,24(sp)
GAS LISTING /tmp/ccnPEvpN.s 			page 8


 269 0188 23388100 		sd	s0,16(sp)
 270 018c 23349100 		sd	s1,8(sp)
 271 0190 23302101 		sd	s2,0(sp)
 272              		.cfi_offset 1, -8
 273              		.cfi_offset 8, -16
 274              		.cfi_offset 9, -24
 275              		.cfi_offset 18, -32
 276 0194 13040102 		addi	s0,sp,32
 277              		.cfi_def_cfa 8, 0
 278 0198 13090500 		mv	s2,a0
  48:src/my_console.cpp ****     if(n >= 0 and n <= 9)
 279              		.loc 1 48 5
 280              	.LBB52:
 281 019c 93079000 		li	a5,9
 282 01a0 63F0A702 		bleu	a0,a5,.L22
 283              	.LBE52:
  49:src/my_console.cpp ****         putc('0' + n);
  50:src/my_console.cpp ****     else if (n < 0)
 284              		.loc 1 50 10
 285              	.LBB57:
 286              	.LBB53:
  51:src/my_console.cpp ****     {
  52:src/my_console.cpp ****         putString("===== FATAL PRINTING ERROR IN FUNCTION putU64. NEGATIVE VALUE. Stoping the kerne
  53:src/my_console.cpp ****         putNewline();
  54:src/my_console.cpp ****         stopKernel();
  55:src/my_console.cpp ****     }
  56:src/my_console.cpp ****     else {
  57:src/my_console.cpp ****         uint64 initial = 1000000000000000000;
 287              		.loc 1 57 9
 288              	.LVL22:
  58:src/my_console.cpp **** 
  59:src/my_console.cpp ****         if (n > initial || n <= 9)
 289              		.loc 1 59 9
 290 01a4 97070000 		ld	a5,.LC1
 290      83B70700 
 291 01ac 63ECA706 		bgtu	a0,a5,.L23
  60:src/my_console.cpp ****         {
  61:src/my_console.cpp ****             putString("===== FATAL PRINTING ERROR IN FUNCTION putU64() Stoping the kernel ====");
  62:src/my_console.cpp ****             putNewline();
  63:src/my_console.cpp ****             stopKernel();
  64:src/my_console.cpp ****         }
  65:src/my_console.cpp **** 
  66:src/my_console.cpp ****         bool alreadyWritten = false;
 292              		.loc 1 66 14 is_stmt 0
 293 01b0 13070000 		li	a4,0
  57:src/my_console.cpp **** 
 294              		.loc 1 57 16
 295 01b4 97040000 		ld	s1,.LC1
 295      83B40400 
 296 01bc 6F00800A 		j	.L16
 297              	.LVL23:
 298              	.L22:
 299              	.LBE53:
  49:src/my_console.cpp ****     else if (n < 0)
 300              		.loc 1 49 9 is_stmt 1
  49:src/my_console.cpp ****     else if (n < 0)
 301              		.loc 1 49 13 is_stmt 0
GAS LISTING /tmp/ccnPEvpN.s 			page 9


 302 01c0 1B050503 		addiw	a0,a0,48
 303              	.LVL24:
 304 01c4 1375F50F 		andi	a0,a0,0xff
 305 01c8 97000000 		call	_Z4putcc@plt
 305      E7800000 
 306              	.LVL25:
 307              	.L15:
 308              	.LBE57:
  67:src/my_console.cpp ****         while(initial > 0)
  68:src/my_console.cpp ****         {
  69:src/my_console.cpp ****             int digit = n / initial;
  70:src/my_console.cpp ****             if (digit > 0 || alreadyWritten)
  71:src/my_console.cpp ****             {
  72:src/my_console.cpp ****                 alreadyWritten = true;
  73:src/my_console.cpp ****                 putc(digit + '0');
  74:src/my_console.cpp ****                 n = n % initial;
  75:src/my_console.cpp ****             }
  76:src/my_console.cpp ****             initial /= 10;
  77:src/my_console.cpp ****         }
  78:src/my_console.cpp ****     }
  79:src/my_console.cpp ****     IConsole::get()->writeToConsole();
 309              		.loc 1 79 5 is_stmt 1
 310              	.LBB58:
 311              	.LBB59:
  12:src/../h/../h/0_console.h ****         return &instance;
 312              		.loc 2 12 9
  12:src/../h/../h/0_console.h ****         return &instance;
 313              		.loc 2 12 25 is_stmt 0
 314 01d0 97070000 		lbu	a5,_ZGVZN8IConsole3getEvE8instance
 314      83C70700 
 315 01d8 63920702 		bnez	a5,.L19
 316              	.LVL26:
 317              	.LBB60:
 318              	.LBB61:
 319              	.LBB62:
 320              		.loc 2 32 63
 321 01dc 97070000 		lla	a5,_ZZN8IConsole3getEvE8instance
 321      93870700 
 322 01e4 23B00700 		sd	zero,0(a5)
 323 01e8 23B40700 		sd	zero,8(a5)
 324 01ec 23BC073E 		sd	zero,1016(a5)
 325              	.LVL27:
 326              	.LBE62:
 327              	.LBE61:
 328              	.LBE60:
  12:src/../h/../h/0_console.h ****         return &instance;
 329              		.loc 2 12 25
 330 01f0 93071000 		li	a5,1
 331 01f4 17070000 		sb	a5,_ZGVZN8IConsole3getEvE8instance,a4
 331      2300F700 
 332              	.L19:
  13:src/../h/../h/0_console.h ****     }
 333              		.loc 2 13 9 is_stmt 1
 334              	.LBE59:
 335              	.LBE58:
 336              		.loc 1 79 36 is_stmt 0
 337 01fc 17050000 		lla	a0,_ZZN8IConsole3getEvE8instance
GAS LISTING /tmp/ccnPEvpN.s 			page 10


 337      13050500 
 338 0204 97000000 		call	_ZN8IConsole14writeToConsoleEv@plt
 338      E7800000 
 339              	.LVL28:
  80:src/my_console.cpp **** }
 340              		.loc 1 80 1
 341 020c 83308101 		ld	ra,24(sp)
 342              		.cfi_remember_state
 343              		.cfi_restore 1
 344 0210 03340101 		ld	s0,16(sp)
 345              		.cfi_restore 8
 346              		.cfi_def_cfa 2, 32
 347 0214 83348100 		ld	s1,8(sp)
 348              		.cfi_restore 9
 349 0218 03390100 		ld	s2,0(sp)
 350              		.cfi_restore 18
 351              	.LVL29:
 352 021c 13010102 		addi	sp,sp,32
 353              		.cfi_def_cfa_offset 0
 354 0220 67800000 		jr	ra
 355              	.LVL30:
 356              	.L23:
 357              		.cfi_restore_state
 358              	.LBB63:
 359              	.LBB56:
  61:src/my_console.cpp ****             putNewline();
 360              		.loc 1 61 13 is_stmt 1
  61:src/my_console.cpp ****             putNewline();
 361              		.loc 1 61 22 is_stmt 0
 362 0224 17050000 		lla	a0,.LC2
 362      13050500 
 363              	.LVL31:
 364 022c 97000000 		call	_Z9putStringPKc
 364      E7800000 
 365              	.LVL32:
  62:src/my_console.cpp ****             stopKernel();
 366              		.loc 1 62 13 is_stmt 1
  62:src/my_console.cpp ****             stopKernel();
 367              		.loc 1 62 23 is_stmt 0
 368 0234 97000000 		call	_Z10putNewlinev
 368      E7800000 
 369              	.LVL33:
  63:src/my_console.cpp ****         }
 370              		.loc 1 63 13 is_stmt 1
  63:src/my_console.cpp ****         }
 371              		.loc 1 63 23 is_stmt 0
 372 023c 97000000 		call	_Z10stopKernelv
 372      E7800000 
 373              	.LVL34:
 374              	.L17:
 375              	.LBB54:
  72:src/my_console.cpp ****                 putc(digit + '0');
 376              		.loc 1 72 17 is_stmt 1
  73:src/my_console.cpp ****                 n = n % initial;
 377              		.loc 1 73 17
  73:src/my_console.cpp ****                 n = n % initial;
 378              		.loc 1 73 21 is_stmt 0
GAS LISTING /tmp/ccnPEvpN.s 			page 11


 379 0244 1B050503 		addiw	a0,a0,48
 380 0248 1375F50F 		andi	a0,a0,0xff
 381 024c 97000000 		call	_Z4putcc@plt
 381      E7800000 
 382              	.LVL35:
  74:src/my_console.cpp ****             }
 383              		.loc 1 74 17 is_stmt 1
  74:src/my_console.cpp ****             }
 384              		.loc 1 74 19 is_stmt 0
 385 0254 33799902 		remu	s2,s2,s1
 386              	.LVL36:
  72:src/my_console.cpp ****                 putc(digit + '0');
 387              		.loc 1 72 32
 388 0258 13071000 		li	a4,1
 389              	.LVL37:
 390              	.L18:
  76:src/my_console.cpp ****         }
 391              		.loc 1 76 13 is_stmt 1
  76:src/my_console.cpp ****         }
 392              		.loc 1 76 21 is_stmt 0
 393 025c 9307A000 		li	a5,10
 394 0260 B3D4F402 		divu	s1,s1,a5
 395              	.LVL38:
 396              	.L16:
 397              	.LBE54:
  67:src/my_console.cpp ****         {
 398              		.loc 1 67 9 is_stmt 1
  67:src/my_console.cpp ****         {
 399              		.loc 1 67 23
 400 0264 E38604F6 		beqz	s1,.L15
 401              	.LBB55:
  69:src/my_console.cpp ****             if (digit > 0 || alreadyWritten)
 402              		.loc 1 69 13
  69:src/my_console.cpp ****             if (digit > 0 || alreadyWritten)
 403              		.loc 1 69 27 is_stmt 0
 404 0268 33559902 		divu	a0,s2,s1
  69:src/my_console.cpp ****             if (digit > 0 || alreadyWritten)
 405              		.loc 1 69 17
 406 026c 9B070500 		sext.w	a5,a0
 407              	.LVL39:
  70:src/my_console.cpp ****             {
 408              		.loc 1 70 13 is_stmt 1
 409 0270 E34AF0FC 		bgtz	a5,.L17
  70:src/my_console.cpp ****             {
 410              		.loc 1 70 27 is_stmt 0 discriminator 1
 411 0274 E30407FE 		beqz	a4,.L18
 412 0278 6FF0DFFC 		j	.L17
 413              	.LBE55:
 414              	.LBE56:
 415              	.LBE63:
 416              		.cfi_endproc
 417              	.LFE8:
 419              		.section	.rodata.str1.8
 420              		.align	3
 421              	.LC3:
 422 0070 3D3D3D3D 		.string	"===== FATAL PRINTING ERROR IN FUNCTION putInt(int). Stoping the kernel ===="
 422      3D204641 
GAS LISTING /tmp/ccnPEvpN.s 			page 12


 422      54414C20 
 422      5052494E 
 422      54494E47 
 423              		.text
 424              		.align	2
 425              		.globl	_Z6putInti
 427              	_Z6putInti:
 428              	.LFB9:
  81:src/my_console.cpp **** 
  82:src/my_console.cpp **** void putInt(int n)
  83:src/my_console.cpp **** {
 429              		.loc 1 83 1 is_stmt 1
 430              		.cfi_startproc
 431              	.LVL40:
 432 027c 130101FE 		addi	sp,sp,-32
 433              		.cfi_def_cfa_offset 32
 434 0280 233C1100 		sd	ra,24(sp)
 435 0284 23388100 		sd	s0,16(sp)
 436 0288 23349100 		sd	s1,8(sp)
 437 028c 23302101 		sd	s2,0(sp)
 438              		.cfi_offset 1, -8
 439              		.cfi_offset 8, -16
 440              		.cfi_offset 9, -24
 441              		.cfi_offset 18, -32
 442 0290 13040102 		addi	s0,sp,32
 443              		.cfi_def_cfa 8, 0
 444 0294 13090500 		mv	s2,a0
  84:src/my_console.cpp ****     if(n >= 0 and n <= 9)
 445              		.loc 1 84 5
 446              	.LBB64:
 447              		.loc 1 84 15 is_stmt 0
 448 0298 1B070500 		sext.w	a4,a0
 449              		.loc 1 84 5
 450 029c 93079000 		li	a5,9
 451 02a0 63F6E702 		bleu	a4,a5,.L35
 452              	.LBE64:
  85:src/my_console.cpp ****         putc('0' + n);
  86:src/my_console.cpp ****     else if (n < 0)
 453              		.loc 1 86 10 is_stmt 1
 454              	.LBB71:
 455              	.LBB65:
 456 02a4 63460508 		bltz	a0,.L36
 457              	.LBB66:
  87:src/my_console.cpp ****     {
  88:src/my_console.cpp ****         putc('-');
  89:src/my_console.cpp ****         putInt(-n);
  90:src/my_console.cpp ****     }
  91:src/my_console.cpp ****     else {
  92:src/my_console.cpp ****         int initial = 1000000000;
 458              		.loc 1 92 9
 459              	.LVL41:
  93:src/my_console.cpp **** 
  94:src/my_console.cpp ****         if (n > initial || n <= 9)
 460              		.loc 1 94 9
 461 02a8 B7D79A3B 		li	a5,1000001536
 462 02ac 938707A0 		addi	a5,a5,-1536
 463 02b0 63CEA708 		bgt	a0,a5,.L28
GAS LISTING /tmp/ccnPEvpN.s 			page 13


 464              		.loc 1 94 25 is_stmt 0 discriminator 1
 465 02b4 93079000 		li	a5,9
 466 02b8 63DAA708 		ble	a0,a5,.L28
  95:src/my_console.cpp ****         {
  96:src/my_console.cpp ****             putString("===== FATAL PRINTING ERROR IN FUNCTION putInt(int). Stoping the kernel ===="
  97:src/my_console.cpp ****             putNewline();
  98:src/my_console.cpp ****             stopKernel();
  99:src/my_console.cpp ****         }
 100:src/my_console.cpp **** 
 101:src/my_console.cpp ****         bool alreadyWritten = false;
 467              		.loc 1 101 14
 468 02bc 93060000 		li	a3,0
  92:src/my_console.cpp **** 
 469              		.loc 1 92 13
 470 02c0 B7D49A3B 		li	s1,1000001536
 471 02c4 938404A0 		addi	s1,s1,-1536
 472 02c8 6F00400C 		j	.L29
 473              	.LVL42:
 474              	.L35:
 475              	.LBE66:
 476              	.LBE65:
  85:src/my_console.cpp ****     else if (n < 0)
 477              		.loc 1 85 9 is_stmt 1
  85:src/my_console.cpp ****     else if (n < 0)
 478              		.loc 1 85 13 is_stmt 0
 479 02cc 1B050503 		addiw	a0,a0,48
 480              	.LVL43:
 481 02d0 1375F50F 		andi	a0,a0,0xff
 482              	.LVL44:
 483 02d4 97000000 		call	_Z4putcc@plt
 483      E7800000 
 484              	.LVL45:
 485              	.L26:
 486              	.LBE71:
 102:src/my_console.cpp ****         while(initial > 0)
 103:src/my_console.cpp ****         {
 104:src/my_console.cpp ****             int digit = n / initial;
 105:src/my_console.cpp ****             if (digit > 0 || alreadyWritten)
 106:src/my_console.cpp ****             {
 107:src/my_console.cpp ****                 alreadyWritten = true;
 108:src/my_console.cpp ****                 putc(digit + '0');
 109:src/my_console.cpp ****                 n = n % initial;
 110:src/my_console.cpp ****             }
 111:src/my_console.cpp ****             initial /= 10;
 112:src/my_console.cpp ****         }
 113:src/my_console.cpp ****     }
 114:src/my_console.cpp ****     IConsole::get()->writeToConsole();
 487              		.loc 1 114 5 is_stmt 1
 488              	.LBB72:
 489              	.LBB73:
  12:src/../h/../h/0_console.h ****         return &instance;
 490              		.loc 2 12 9
  12:src/../h/../h/0_console.h ****         return &instance;
 491              		.loc 2 12 25 is_stmt 0
 492 02dc 97070000 		lbu	a5,_ZGVZN8IConsole3getEvE8instance
 492      83C70700 
 493 02e4 63920702 		bnez	a5,.L32
GAS LISTING /tmp/ccnPEvpN.s 			page 14


 494              	.LVL46:
 495              	.LBB74:
 496              	.LBB75:
 497              	.LBB76:
 498              		.loc 2 32 63
 499 02e8 97070000 		lla	a5,_ZZN8IConsole3getEvE8instance
 499      93870700 
 500 02f0 23B00700 		sd	zero,0(a5)
 501 02f4 23B40700 		sd	zero,8(a5)
 502 02f8 23BC073E 		sd	zero,1016(a5)
 503              	.LVL47:
 504              	.LBE76:
 505              	.LBE75:
 506              	.LBE74:
  12:src/../h/../h/0_console.h ****         return &instance;
 507              		.loc 2 12 25
 508 02fc 93071000 		li	a5,1
 509 0300 17070000 		sb	a5,_ZGVZN8IConsole3getEvE8instance,a4
 509      2300F700 
 510              	.L32:
  13:src/../h/../h/0_console.h ****     }
 511              		.loc 2 13 9 is_stmt 1
 512              	.LBE73:
 513              	.LBE72:
 514              		.loc 1 114 36 is_stmt 0
 515 0308 17050000 		lla	a0,_ZZN8IConsole3getEvE8instance
 515      13050500 
 516 0310 97000000 		call	_ZN8IConsole14writeToConsoleEv@plt
 516      E7800000 
 517              	.LVL48:
 115:src/my_console.cpp **** }
 518              		.loc 1 115 1
 519 0318 83308101 		ld	ra,24(sp)
 520              		.cfi_remember_state
 521              		.cfi_restore 1
 522 031c 03340101 		ld	s0,16(sp)
 523              		.cfi_restore 8
 524              		.cfi_def_cfa 2, 32
 525 0320 83348100 		ld	s1,8(sp)
 526              		.cfi_restore 9
 527 0324 03390100 		ld	s2,0(sp)
 528              		.cfi_restore 18
 529 0328 13010102 		addi	sp,sp,32
 530              		.cfi_def_cfa_offset 0
 531 032c 67800000 		jr	ra
 532              	.LVL49:
 533              	.L36:
 534              		.cfi_restore_state
 535              	.LBB77:
 536              	.LBB70:
  88:src/my_console.cpp ****         putInt(-n);
 537              		.loc 1 88 9 is_stmt 1
  88:src/my_console.cpp ****         putInt(-n);
 538              		.loc 1 88 13 is_stmt 0
 539 0330 1305D002 		li	a0,45
 540              	.LVL50:
 541 0334 97000000 		call	_Z4putcc@plt
GAS LISTING /tmp/ccnPEvpN.s 			page 15


 541      E7800000 
 542              	.LVL51:
  89:src/my_console.cpp ****     }
 543              		.loc 1 89 9 is_stmt 1
  89:src/my_console.cpp ****     }
 544              		.loc 1 89 15 is_stmt 0
 545 033c 3B052041 		negw	a0,s2
 546 0340 97000000 		call	_Z6putInti
 546      E7800000 
 547              	.LVL52:
 548 0348 6FF05FF9 		j	.L26
 549              	.LVL53:
 550              	.L28:
 551              	.LBB69:
  96:src/my_console.cpp ****             putNewline();
 552              		.loc 1 96 13 is_stmt 1
  96:src/my_console.cpp ****             putNewline();
 553              		.loc 1 96 22 is_stmt 0
 554 034c 17050000 		lla	a0,.LC3
 554      13050500 
 555              	.LVL54:
 556 0354 97000000 		call	_Z9putStringPKc
 556      E7800000 
 557              	.LVL55:
  97:src/my_console.cpp ****             stopKernel();
 558              		.loc 1 97 13 is_stmt 1
  97:src/my_console.cpp ****             stopKernel();
 559              		.loc 1 97 23 is_stmt 0
 560 035c 97000000 		call	_Z10putNewlinev
 560      E7800000 
 561              	.LVL56:
  98:src/my_console.cpp ****         }
 562              		.loc 1 98 13 is_stmt 1
  98:src/my_console.cpp ****         }
 563              		.loc 1 98 23 is_stmt 0
 564 0364 97000000 		call	_Z10stopKernelv
 564      E7800000 
 565              	.LVL57:
 566              	.L30:
 567              	.LBB67:
 107:src/my_console.cpp ****                 putc(digit + '0');
 568              		.loc 1 107 17 is_stmt 1
 108:src/my_console.cpp ****                 n = n % initial;
 569              		.loc 1 108 17
 108:src/my_console.cpp ****                 n = n % initial;
 570              		.loc 1 108 21 is_stmt 0
 571 036c 9B870703 		addiw	a5,a5,48
 572              	.LVL58:
 573 0370 13F5F70F 		andi	a0,a5,0xff
 574 0374 97000000 		call	_Z4putcc@plt
 574      E7800000 
 575              	.LVL59:
 109:src/my_console.cpp ****             }
 576              		.loc 1 109 17 is_stmt 1
 109:src/my_console.cpp ****             }
 577              		.loc 1 109 19 is_stmt 0
 578 037c 3B699902 		remw	s2,s2,s1
GAS LISTING /tmp/ccnPEvpN.s 			page 16


 579              	.LVL60:
 107:src/my_console.cpp ****                 putc(digit + '0');
 580              		.loc 1 107 32
 581 0380 93061000 		li	a3,1
 582              	.LVL61:
 583              	.L31:
 111:src/my_console.cpp ****         }
 584              		.loc 1 111 13 is_stmt 1
 111:src/my_console.cpp ****         }
 585              		.loc 1 111 21 is_stmt 0
 586 0384 9307A000 		li	a5,10
 587 0388 BBC4F402 		divw	s1,s1,a5
 588              	.LVL62:
 589              	.L29:
 590              	.LBE67:
 102:src/my_console.cpp ****         {
 591              		.loc 1 102 9 is_stmt 1
 102:src/my_console.cpp ****         {
 592              		.loc 1 102 23
 593 038c E35890F4 		blez	s1,.L26
 594              	.LBB68:
 104:src/my_console.cpp ****             if (digit > 0 || alreadyWritten)
 595              		.loc 1 104 13
 104:src/my_console.cpp ****             if (digit > 0 || alreadyWritten)
 596              		.loc 1 104 17 is_stmt 0
 597 0390 BB479902 		divw	a5,s2,s1
 598 0394 1B870700 		sext.w	a4,a5
 599              	.LVL63:
 105:src/my_console.cpp ****             {
 600              		.loc 1 105 13 is_stmt 1
 601 0398 E34AE0FC 		bgtz	a4,.L30
 105:src/my_console.cpp ****             {
 602              		.loc 1 105 27 is_stmt 0 discriminator 1
 603 039c E38406FE 		beqz	a3,.L31
 604 03a0 6FF0DFFC 		j	.L30
 605              	.LBE68:
 606              	.LBE69:
 607              	.LBE70:
 608              	.LBE77:
 609              		.cfi_endproc
 610              	.LFE9:
 612              		.weak	_ZGVZN8IConsole3getEvE8instance
 613              		.section	.bss._ZGVZN8IConsole3getEvE8instance,"awG",@nobits,_ZGVZN8IConsole3getEvE8instance,comdat
 614              		.align	3
 617              	_ZGVZN8IConsole3getEvE8instance:
 618 0000 00000000 		.zero	8
 618      00000000 
 619              		.weak	_ZZN8IConsole3getEvE8instance
 620              		.section	.bss._ZZN8IConsole3getEvE8instance,"awG",@nobits,_ZZN8IConsole3getEvE8instance,comdat
 621              		.align	3
 624              	_ZZN8IConsole3getEvE8instance:
 625 0000 00000000 		.zero	2048
 625      00000000 
 625      00000000 
 625      00000000 
 625      00000000 
 626              		.section	.rodata.cst8,"aM",@progbits,8
GAS LISTING /tmp/ccnPEvpN.s 			page 17


 627              		.align	3
 628              	.LC1:
 629 0000 000064A7 		.dword	1000000000000000000
 629      B3B6E00D 
 630              		.text
 631              	.Letext0:
 632              		.file 3 "src/../h/../lib/hw.h"
 633              		.file 4 "src/../h/syscall_c.hpp"
 634              		.file 5 "src/../h/../h/risc.h"
GAS LISTING /tmp/ccnPEvpN.s 			page 18

