GAS LISTING /tmp/cchhFqnR.s 			page 1


   1              		.file	"my_console.cpp"
   2              		.option pic
   3              		.option norelax
   4              		.text
   5              	.Ltext0:
   6              		.align	2
   7              		.globl	_Z10putNewlinev
   9              	_Z10putNewlinev:
  10              	.LFB2:
  11              		.file 1 "src/my_console.cpp"
   1:src/my_console.cpp **** //
   2:src/my_console.cpp **** // Created by os on 4/25/23.
   3:src/my_console.cpp **** //
   4:src/my_console.cpp **** 
   5:src/my_console.cpp **** #include "../h/my_console.h"
   6:src/my_console.cpp **** 
   7:src/my_console.cpp **** //inline void _assert(bool valid, const char* file, int line)
   8:src/my_console.cpp **** 
   9:src/my_console.cpp **** void stopKernel()
  10:src/my_console.cpp **** {
  11:src/my_console.cpp ****     putNewline();
  12:src/my_console.cpp ****     putString("====== Stopping the kernel ======");
  13:src/my_console.cpp **** 
  14:src/my_console.cpp ****     disableExternalInterrupts();
  15:src/my_console.cpp ****     while(true)
  16:src/my_console.cpp ****     {
  17:src/my_console.cpp **** 
  18:src/my_console.cpp ****     }
  19:src/my_console.cpp **** }
  20:src/my_console.cpp **** 
  21:src/my_console.cpp **** void putNewline()
  22:src/my_console.cpp **** {
  12              		.loc 1 22 1
  13              		.cfi_startproc
  14 0000 130101FF 		addi	sp,sp,-16
  15              		.cfi_def_cfa_offset 16
  16 0004 23341100 		sd	ra,8(sp)
  17 0008 23308100 		sd	s0,0(sp)
  18              		.cfi_offset 1, -8
  19              		.cfi_offset 8, -16
  20 000c 13040101 		addi	s0,sp,16
  21              		.cfi_def_cfa 8, 0
  23:src/my_console.cpp ****     __putc('\n');
  22              		.loc 1 23 5
  23              		.loc 1 23 11 is_stmt 0
  24 0010 1305A000 		li	a0,10
  25 0014 97000000 		call	__putc@plt
  25      E7800000 
  26              	.LVL0:
  24:src/my_console.cpp **** }
  27              		.loc 1 24 1
  28 001c 83308100 		ld	ra,8(sp)
  29              		.cfi_restore 1
  30 0020 03340100 		ld	s0,0(sp)
  31              		.cfi_restore 8
  32              		.cfi_def_cfa 2, 16
  33 0024 13010101 		addi	sp,sp,16
GAS LISTING /tmp/cchhFqnR.s 			page 2


  34              		.cfi_def_cfa_offset 0
  35 0028 67800000 		jr	ra
  36              		.cfi_endproc
  37              	.LFE2:
  39              		.align	2
  40              		.globl	_Z9putStringPKc
  42              	_Z9putStringPKc:
  43              	.LFB3:
  25:src/my_console.cpp **** 
  26:src/my_console.cpp **** void putString(const char* s)
  27:src/my_console.cpp **** {
  44              		.loc 1 27 1 is_stmt 1
  45              		.cfi_startproc
  46              	.LVL1:
  47 002c 130101FE 		addi	sp,sp,-32
  48              		.cfi_def_cfa_offset 32
  49 0030 233C1100 		sd	ra,24(sp)
  50 0034 23388100 		sd	s0,16(sp)
  51 0038 23349100 		sd	s1,8(sp)
  52 003c 23302101 		sd	s2,0(sp)
  53              		.cfi_offset 1, -8
  54              		.cfi_offset 8, -16
  55              		.cfi_offset 9, -24
  56              		.cfi_offset 18, -32
  57 0040 13040102 		addi	s0,sp,32
  58              		.cfi_def_cfa 8, 0
  59 0044 13090500 		mv	s2,a0
  28:src/my_console.cpp ****     int i=0;
  60              		.loc 1 28 5
  61              	.LVL2:
  62              		.loc 1 28 9 is_stmt 0
  63 0048 93040000 		li	s1,0
  64              	.LVL3:
  65              	.L5:
  29:src/my_console.cpp ****     while(true)
  66              		.loc 1 29 5 is_stmt 1
  30:src/my_console.cpp ****     {
  31:src/my_console.cpp ****         if(s[i] == '\0')
  67              		.loc 1 31 9
  68              		.loc 1 31 15 is_stmt 0
  69 004c B3079900 		add	a5,s2,s1
  70 0050 03C50700 		lbu	a0,0(a5)
  71              		.loc 1 31 9
  72 0054 630A0500 		beqz	a0,.L6
  32:src/my_console.cpp ****             return;
  33:src/my_console.cpp ****         else __putc(s[i++]);
  73              		.loc 1 33 14 is_stmt 1
  74              		.loc 1 33 24 is_stmt 0
  75 0058 9B841400 		addiw	s1,s1,1
  76              	.LVL4:
  77              		.loc 1 33 20
  78 005c 97000000 		call	__putc@plt
  78      E7800000 
  79              	.LVL5:
  29:src/my_console.cpp ****     {
  80              		.loc 1 29 5 is_stmt 1
  31:src/my_console.cpp ****             return;
GAS LISTING /tmp/cchhFqnR.s 			page 3


  81              		.loc 1 31 9 is_stmt 0
  82 0064 6FF09FFE 		j	.L5
  83              	.LVL6:
  84              	.L6:
  34:src/my_console.cpp ****     }
  35:src/my_console.cpp **** }
  85              		.loc 1 35 1
  86 0068 83308101 		ld	ra,24(sp)
  87              		.cfi_restore 1
  88 006c 03340101 		ld	s0,16(sp)
  89              		.cfi_restore 8
  90              		.cfi_def_cfa 2, 32
  91 0070 83348100 		ld	s1,8(sp)
  92              		.cfi_restore 9
  93              	.LVL7:
  94 0074 03390100 		ld	s2,0(sp)
  95              		.cfi_restore 18
  96              	.LVL8:
  97 0078 13010102 		addi	sp,sp,32
  98              		.cfi_def_cfa_offset 0
  99 007c 67800000 		jr	ra
 100              		.cfi_endproc
 101              	.LFE3:
 103              		.section	.rodata.str1.8,"aMS",@progbits,1
 104              		.align	3
 105              	.LC0:
 106 0000 3D3D3D3D 		.string	"====== Stopping the kernel ======"
 106      3D3D2053 
 106      746F7070 
 106      696E6720 
 106      74686520 
 107              		.text
 108              		.align	2
 109              		.globl	_Z10stopKernelv
 111              	_Z10stopKernelv:
 112              	.LFB1:
  10:src/my_console.cpp ****     putNewline();
 113              		.loc 1 10 1 is_stmt 1
 114              		.cfi_startproc
 115 0080 130101FF 		addi	sp,sp,-16
 116              		.cfi_def_cfa_offset 16
 117 0084 23341100 		sd	ra,8(sp)
 118 0088 23308100 		sd	s0,0(sp)
 119              		.cfi_offset 1, -8
 120              		.cfi_offset 8, -16
 121 008c 13040101 		addi	s0,sp,16
 122              		.cfi_def_cfa 8, 0
  11:src/my_console.cpp ****     putString("====== Stopping the kernel ======");
 123              		.loc 1 11 5
  11:src/my_console.cpp ****     putString("====== Stopping the kernel ======");
 124              		.loc 1 11 15 is_stmt 0
 125 0090 97000000 		call	_Z10putNewlinev
 125      E7800000 
 126              	.LVL9:
  12:src/my_console.cpp **** 
 127              		.loc 1 12 5 is_stmt 1
  12:src/my_console.cpp **** 
GAS LISTING /tmp/cchhFqnR.s 			page 4


 128              		.loc 1 12 14 is_stmt 0
 129 0098 17050000 		lla	a0,.LC0
 129      13050500 
 130 00a0 97000000 		call	_Z9putStringPKc
 130      E7800000 
 131              	.LVL10:
  14:src/my_console.cpp ****     while(true)
 132              		.loc 1 14 5 is_stmt 1
  14:src/my_console.cpp ****     while(true)
 133              		.loc 1 14 30 is_stmt 0
 134 00a8 97000000 		call	_Z25disableExternalInterruptsv@plt
 134      E7800000 
 135              	.LVL11:
 136              	.L9:
  15:src/my_console.cpp ****     {
 137              		.loc 1 15 5 is_stmt 1 discriminator 1
  15:src/my_console.cpp ****     {
 138              		.loc 1 15 5 discriminator 1
 139 00b0 6F000000 		j	.L9
 140              		.cfi_endproc
 141              	.LFE1:
 143              		.section	.rodata.str1.8
 144 0022 00000000 		.align	3
 144      0000
 145              	.LC2:
 146 0028 3D3D3D3D 		.string	"===== FATAL PRINTING ERROR IN FUNCTION putU64() Stoping the kernel ===="
 146      3D204641 
 146      54414C20 
 146      5052494E 
 146      54494E47 
 147              		.text
 148              		.align	2
 149              		.globl	_Z6putU64m
 151              	_Z6putU64m:
 152              	.LFB5:
  36:src/my_console.cpp **** 
  37:src/my_console.cpp **** void putBinary(uint64 n)
  38:src/my_console.cpp **** {
  39:src/my_console.cpp ****     assert(false);
  40:src/my_console.cpp ****     if(n < 0)
  41:src/my_console.cpp ****     {
  42:src/my_console.cpp ****         putString("===== FATAL PRINTING ERROR IN FUNCTION putU64. NEGATIVE VALUE. Stoping the kerne
  43:src/my_console.cpp ****         putNewline();
  44:src/my_console.cpp ****         stopKernel();
  45:src/my_console.cpp ****     }
  46:src/my_console.cpp ****     else if(n == 0 || n == 1)
  47:src/my_console.cpp ****     {
  48:src/my_console.cpp ****         __putc('0' + n);
  49:src/my_console.cpp ****     }
  50:src/my_console.cpp ****     else
  51:src/my_console.cpp ****     {
  52:src/my_console.cpp ****        uint64 initial = 1 << 30;
  53:src/my_console.cpp ****        putString("AAA");
  54:src/my_console.cpp **** //       putInt(initial);
  55:src/my_console.cpp ****        putNewline();
  56:src/my_console.cpp ****        putInt(sizeof(uint64));
  57:src/my_console.cpp **** 
GAS LISTING /tmp/cchhFqnR.s 			page 5


  58:src/my_console.cpp ****         bool alreadyWritten = false;
  59:src/my_console.cpp ****         while(initial > 0)
  60:src/my_console.cpp ****         {
  61:src/my_console.cpp ****             bool digit = n / initial;
  62:src/my_console.cpp ****             if (digit > 0 || alreadyWritten)
  63:src/my_console.cpp ****             {
  64:src/my_console.cpp ****                 alreadyWritten = true;
  65:src/my_console.cpp ****                 __putc(digit + '0');
  66:src/my_console.cpp ****                 n = n % initial;
  67:src/my_console.cpp ****             }
  68:src/my_console.cpp ****             initial = ((initial) >> 1);
  69:src/my_console.cpp ****         }
  70:src/my_console.cpp ****     }
  71:src/my_console.cpp **** }
  72:src/my_console.cpp **** 
  73:src/my_console.cpp **** void putU64(uint64 n)
  74:src/my_console.cpp **** {
 153              		.loc 1 74 1
 154              		.cfi_startproc
 155              	.LVL12:
 156 00b4 130101FE 		addi	sp,sp,-32
 157              		.cfi_def_cfa_offset 32
 158 00b8 233C1100 		sd	ra,24(sp)
 159 00bc 23388100 		sd	s0,16(sp)
 160 00c0 23349100 		sd	s1,8(sp)
 161 00c4 23302101 		sd	s2,0(sp)
 162              		.cfi_offset 1, -8
 163              		.cfi_offset 8, -16
 164              		.cfi_offset 9, -24
 165              		.cfi_offset 18, -32
 166 00c8 13040102 		addi	s0,sp,32
 167              		.cfi_def_cfa 8, 0
 168 00cc 13090500 		mv	s2,a0
  75:src/my_console.cpp ****     if(n >= 0 and n <= 9)
 169              		.loc 1 75 5
 170              	.LBB2:
 171 00d0 93079000 		li	a5,9
 172 00d4 63F0A702 		bleu	a0,a5,.L19
 173              	.LBE2:
  76:src/my_console.cpp ****         __putc('0' + n);
  77:src/my_console.cpp ****     else if (n < 0)
 174              		.loc 1 77 10
 175              	.LBB7:
 176              	.LBB3:
  78:src/my_console.cpp ****     {
  79:src/my_console.cpp ****         putString("===== FATAL PRINTING ERROR IN FUNCTION putU64. NEGATIVE VALUE. Stoping the kerne
  80:src/my_console.cpp ****         putNewline();
  81:src/my_console.cpp ****         stopKernel();
  82:src/my_console.cpp ****     }
  83:src/my_console.cpp ****     else {
  84:src/my_console.cpp ****         uint64 initial = 1000000000000000000;
 177              		.loc 1 84 9
 178              	.LVL13:
  85:src/my_console.cpp **** 
  86:src/my_console.cpp ****         if (n > initial || n <= 9)
 179              		.loc 1 86 9
 180 00d8 97070000 		ld	a5,.LC1
GAS LISTING /tmp/cchhFqnR.s 			page 6


 180      83B70700 
 181 00e0 63EEA702 		bgtu	a0,a5,.L20
  87:src/my_console.cpp ****         {
  88:src/my_console.cpp ****             putString("===== FATAL PRINTING ERROR IN FUNCTION putU64() Stoping the kernel ====");
  89:src/my_console.cpp ****             putNewline();
  90:src/my_console.cpp ****             stopKernel();
  91:src/my_console.cpp ****         }
  92:src/my_console.cpp **** 
  93:src/my_console.cpp ****         bool alreadyWritten = false;
 182              		.loc 1 93 14 is_stmt 0
 183 00e4 13070000 		li	a4,0
  84:src/my_console.cpp **** 
 184              		.loc 1 84 16
 185 00e8 97040000 		ld	s1,.LC1
 185      83B40400 
 186 00f0 6F00C006 		j	.L14
 187              	.LVL14:
 188              	.L19:
 189              	.LBE3:
  76:src/my_console.cpp ****     else if (n < 0)
 190              		.loc 1 76 9 is_stmt 1
  76:src/my_console.cpp ****     else if (n < 0)
 191              		.loc 1 76 15 is_stmt 0
 192 00f4 1B050503 		addiw	a0,a0,48
 193              	.LVL15:
 194 00f8 1375F50F 		andi	a0,a0,0xff
 195 00fc 97000000 		call	__putc@plt
 195      E7800000 
 196              	.LVL16:
 197              	.L11:
 198              	.LBE7:
  94:src/my_console.cpp ****         while(initial > 0)
  95:src/my_console.cpp ****         {
  96:src/my_console.cpp ****             int digit = n / initial;
  97:src/my_console.cpp ****             if (digit > 0 || alreadyWritten)
  98:src/my_console.cpp ****             {
  99:src/my_console.cpp ****                 alreadyWritten = true;
 100:src/my_console.cpp ****                 __putc(digit + '0');
 101:src/my_console.cpp ****                 n = n % initial;
 102:src/my_console.cpp ****             }
 103:src/my_console.cpp ****             initial /= 10;
 104:src/my_console.cpp ****         }
 105:src/my_console.cpp ****     }
 106:src/my_console.cpp **** }
 199              		.loc 1 106 1
 200 0104 83308101 		ld	ra,24(sp)
 201              		.cfi_remember_state
 202              		.cfi_restore 1
 203 0108 03340101 		ld	s0,16(sp)
 204              		.cfi_restore 8
 205              		.cfi_def_cfa 2, 32
 206 010c 83348100 		ld	s1,8(sp)
 207              		.cfi_restore 9
 208 0110 03390100 		ld	s2,0(sp)
 209              		.cfi_restore 18
 210              	.LVL17:
 211 0114 13010102 		addi	sp,sp,32
GAS LISTING /tmp/cchhFqnR.s 			page 7


 212              		.cfi_def_cfa_offset 0
 213 0118 67800000 		jr	ra
 214              	.LVL18:
 215              	.L20:
 216              		.cfi_restore_state
 217              	.LBB8:
 218              	.LBB6:
  88:src/my_console.cpp ****             putNewline();
 219              		.loc 1 88 13 is_stmt 1
  88:src/my_console.cpp ****             putNewline();
 220              		.loc 1 88 22 is_stmt 0
 221 011c 17050000 		lla	a0,.LC2
 221      13050500 
 222              	.LVL19:
 223 0124 97000000 		call	_Z9putStringPKc
 223      E7800000 
 224              	.LVL20:
  89:src/my_console.cpp ****             stopKernel();
 225              		.loc 1 89 13 is_stmt 1
  89:src/my_console.cpp ****             stopKernel();
 226              		.loc 1 89 23 is_stmt 0
 227 012c 97000000 		call	_Z10putNewlinev
 227      E7800000 
 228              	.LVL21:
  90:src/my_console.cpp ****         }
 229              		.loc 1 90 13 is_stmt 1
  90:src/my_console.cpp ****         }
 230              		.loc 1 90 23 is_stmt 0
 231 0134 97000000 		call	_Z10stopKernelv
 231      E7800000 
 232              	.LVL22:
 233              	.L15:
 234              	.LBB4:
  99:src/my_console.cpp ****                 __putc(digit + '0');
 235              		.loc 1 99 17 is_stmt 1
 100:src/my_console.cpp ****                 n = n % initial;
 236              		.loc 1 100 17
 100:src/my_console.cpp ****                 n = n % initial;
 237              		.loc 1 100 23 is_stmt 0
 238 013c 1B050503 		addiw	a0,a0,48
 239 0140 1375F50F 		andi	a0,a0,0xff
 240 0144 97000000 		call	__putc@plt
 240      E7800000 
 241              	.LVL23:
 101:src/my_console.cpp ****             }
 242              		.loc 1 101 17 is_stmt 1
 101:src/my_console.cpp ****             }
 243              		.loc 1 101 19 is_stmt 0
 244 014c 33799902 		remu	s2,s2,s1
 245              	.LVL24:
  99:src/my_console.cpp ****                 __putc(digit + '0');
 246              		.loc 1 99 32
 247 0150 13071000 		li	a4,1
 248              	.LVL25:
 249              	.L16:
 103:src/my_console.cpp ****         }
 250              		.loc 1 103 13 is_stmt 1
GAS LISTING /tmp/cchhFqnR.s 			page 8


 103:src/my_console.cpp ****         }
 251              		.loc 1 103 21 is_stmt 0
 252 0154 9307A000 		li	a5,10
 253 0158 B3D4F402 		divu	s1,s1,a5
 254              	.LVL26:
 255              	.L14:
 256              	.LBE4:
  94:src/my_console.cpp ****         {
 257              		.loc 1 94 9 is_stmt 1
  94:src/my_console.cpp ****         {
 258              		.loc 1 94 23
 259 015c E38404FA 		beqz	s1,.L11
 260              	.LBB5:
  96:src/my_console.cpp ****             if (digit > 0 || alreadyWritten)
 261              		.loc 1 96 13
  96:src/my_console.cpp ****             if (digit > 0 || alreadyWritten)
 262              		.loc 1 96 27 is_stmt 0
 263 0160 33559902 		divu	a0,s2,s1
  96:src/my_console.cpp ****             if (digit > 0 || alreadyWritten)
 264              		.loc 1 96 17
 265 0164 9B070500 		sext.w	a5,a0
 266              	.LVL27:
  97:src/my_console.cpp ****             {
 267              		.loc 1 97 13 is_stmt 1
 268 0168 E34AF0FC 		bgtz	a5,.L15
  97:src/my_console.cpp ****             {
 269              		.loc 1 97 27 is_stmt 0 discriminator 1
 270 016c E30407FE 		beqz	a4,.L16
 271 0170 6FF0DFFC 		j	.L15
 272              	.LBE5:
 273              	.LBE6:
 274              	.LBE8:
 275              		.cfi_endproc
 276              	.LFE5:
 278              		.section	.rodata.str1.8
 279              		.align	3
 280              	.LC3:
 281 0070 3D3D3D3D 		.string	"===== FATAL PRINTING ERROR IN FUNCTION putInt(int). Stoping the kernel ===="
 281      3D204641 
 281      54414C20 
 281      5052494E 
 281      54494E47 
 282              		.text
 283              		.align	2
 284              		.globl	_Z6putInti
 286              	_Z6putInti:
 287              	.LFB6:
 107:src/my_console.cpp **** 
 108:src/my_console.cpp **** void putInt(int n)
 109:src/my_console.cpp **** {
 288              		.loc 1 109 1 is_stmt 1
 289              		.cfi_startproc
 290              	.LVL28:
 291 0174 130101FE 		addi	sp,sp,-32
 292              		.cfi_def_cfa_offset 32
 293 0178 233C1100 		sd	ra,24(sp)
 294 017c 23388100 		sd	s0,16(sp)
GAS LISTING /tmp/cchhFqnR.s 			page 9


 295 0180 23349100 		sd	s1,8(sp)
 296 0184 23302101 		sd	s2,0(sp)
 297              		.cfi_offset 1, -8
 298              		.cfi_offset 8, -16
 299              		.cfi_offset 9, -24
 300              		.cfi_offset 18, -32
 301 0188 13040102 		addi	s0,sp,32
 302              		.cfi_def_cfa 8, 0
 303 018c 13090500 		mv	s2,a0
 110:src/my_console.cpp ****     if(n >= 0 and n <= 9)
 304              		.loc 1 110 5
 305              	.LBB9:
 306              		.loc 1 110 15 is_stmt 0
 307 0190 1B070500 		sext.w	a4,a0
 308              		.loc 1 110 5
 309 0194 93079000 		li	a5,9
 310 0198 63F6E702 		bleu	a4,a5,.L31
 311              	.LBE9:
 111:src/my_console.cpp ****         __putc('0' + n);
 112:src/my_console.cpp ****     else if (n < 0)
 312              		.loc 1 112 10 is_stmt 1
 313              	.LBB16:
 314              	.LBB10:
 315 019c 63480504 		bltz	a0,.L32
 316              	.LBB11:
 113:src/my_console.cpp ****     {
 114:src/my_console.cpp ****         __putc('-');
 115:src/my_console.cpp ****         putInt(-n);
 116:src/my_console.cpp ****     }
 117:src/my_console.cpp ****     else {
 118:src/my_console.cpp ****         int initial = 1000000000;
 317              		.loc 1 118 9
 318              	.LVL29:
 119:src/my_console.cpp **** 
 120:src/my_console.cpp ****         if (n > initial || n <= 9)
 319              		.loc 1 120 9
 320 01a0 B7D79A3B 		li	a5,1000001536
 321 01a4 938707A0 		addi	a5,a5,-1536
 322 01a8 63C0A706 		bgt	a0,a5,.L25
 323              		.loc 1 120 25 is_stmt 0 discriminator 1
 324 01ac 93079000 		li	a5,9
 325 01b0 63DCA704 		ble	a0,a5,.L25
 121:src/my_console.cpp ****         {
 122:src/my_console.cpp ****             putString("===== FATAL PRINTING ERROR IN FUNCTION putInt(int). Stoping the kernel ===="
 123:src/my_console.cpp ****             putNewline();
 124:src/my_console.cpp ****             stopKernel();
 125:src/my_console.cpp ****         }
 126:src/my_console.cpp **** 
 127:src/my_console.cpp ****         bool alreadyWritten = false;
 326              		.loc 1 127 14
 327 01b4 93060000 		li	a3,0
 118:src/my_console.cpp **** 
 328              		.loc 1 118 13
 329 01b8 B7D49A3B 		li	s1,1000001536
 330 01bc 938404A0 		addi	s1,s1,-1536
 331 01c0 6F008008 		j	.L26
 332              	.LVL30:
GAS LISTING /tmp/cchhFqnR.s 			page 10


 333              	.L31:
 334              	.LBE11:
 335              	.LBE10:
 111:src/my_console.cpp ****     else if (n < 0)
 336              		.loc 1 111 9 is_stmt 1
 111:src/my_console.cpp ****     else if (n < 0)
 337              		.loc 1 111 15 is_stmt 0
 338 01c4 1B050503 		addiw	a0,a0,48
 339              	.LVL31:
 340 01c8 1375F50F 		andi	a0,a0,0xff
 341              	.LVL32:
 342 01cc 97000000 		call	__putc@plt
 342      E7800000 
 343              	.LVL33:
 344              	.L21:
 345              	.LBE16:
 128:src/my_console.cpp ****         while(initial > 0)
 129:src/my_console.cpp ****         {
 130:src/my_console.cpp ****             int digit = n / initial;
 131:src/my_console.cpp ****             if (digit > 0 || alreadyWritten)
 132:src/my_console.cpp ****             {
 133:src/my_console.cpp ****                 alreadyWritten = true;
 134:src/my_console.cpp ****                 __putc(digit + '0');
 135:src/my_console.cpp ****                 n = n % initial;
 136:src/my_console.cpp ****             }
 137:src/my_console.cpp ****             initial /= 10;
 138:src/my_console.cpp ****         }
 139:src/my_console.cpp ****     }
 140:src/my_console.cpp **** 
 141:src/my_console.cpp **** }
 346              		.loc 1 141 1
 347 01d4 83308101 		ld	ra,24(sp)
 348              		.cfi_remember_state
 349              		.cfi_restore 1
 350 01d8 03340101 		ld	s0,16(sp)
 351              		.cfi_restore 8
 352              		.cfi_def_cfa 2, 32
 353 01dc 83348100 		ld	s1,8(sp)
 354              		.cfi_restore 9
 355 01e0 03390100 		ld	s2,0(sp)
 356              		.cfi_restore 18
 357 01e4 13010102 		addi	sp,sp,32
 358              		.cfi_def_cfa_offset 0
 359 01e8 67800000 		jr	ra
 360              	.LVL34:
 361              	.L32:
 362              		.cfi_restore_state
 363              	.LBB17:
 364              	.LBB15:
 114:src/my_console.cpp ****         putInt(-n);
 365              		.loc 1 114 9 is_stmt 1
 114:src/my_console.cpp ****         putInt(-n);
 366              		.loc 1 114 15 is_stmt 0
 367 01ec 1305D002 		li	a0,45
 368              	.LVL35:
 369 01f0 97000000 		call	__putc@plt
 369      E7800000 
GAS LISTING /tmp/cchhFqnR.s 			page 11


 370              	.LVL36:
 115:src/my_console.cpp ****     }
 371              		.loc 1 115 9 is_stmt 1
 115:src/my_console.cpp ****     }
 372              		.loc 1 115 15 is_stmt 0
 373 01f8 3B052041 		negw	a0,s2
 374 01fc 97000000 		call	_Z6putInti
 374      E7800000 
 375              	.LVL37:
 376 0204 6FF01FFD 		j	.L21
 377              	.LVL38:
 378              	.L25:
 379              	.LBB14:
 122:src/my_console.cpp ****             putNewline();
 380              		.loc 1 122 13 is_stmt 1
 122:src/my_console.cpp ****             putNewline();
 381              		.loc 1 122 22 is_stmt 0
 382 0208 17050000 		lla	a0,.LC3
 382      13050500 
 383              	.LVL39:
 384 0210 97000000 		call	_Z9putStringPKc
 384      E7800000 
 385              	.LVL40:
 123:src/my_console.cpp ****             stopKernel();
 386              		.loc 1 123 13 is_stmt 1
 123:src/my_console.cpp ****             stopKernel();
 387              		.loc 1 123 23 is_stmt 0
 388 0218 97000000 		call	_Z10putNewlinev
 388      E7800000 
 389              	.LVL41:
 124:src/my_console.cpp ****         }
 390              		.loc 1 124 13 is_stmt 1
 124:src/my_console.cpp ****         }
 391              		.loc 1 124 23 is_stmt 0
 392 0220 97000000 		call	_Z10stopKernelv
 392      E7800000 
 393              	.LVL42:
 394              	.L27:
 395              	.LBB12:
 133:src/my_console.cpp ****                 __putc(digit + '0');
 396              		.loc 1 133 17 is_stmt 1
 134:src/my_console.cpp ****                 n = n % initial;
 397              		.loc 1 134 17
 134:src/my_console.cpp ****                 n = n % initial;
 398              		.loc 1 134 23 is_stmt 0
 399 0228 9B870703 		addiw	a5,a5,48
 400              	.LVL43:
 401 022c 13F5F70F 		andi	a0,a5,0xff
 402 0230 97000000 		call	__putc@plt
 402      E7800000 
 403              	.LVL44:
 135:src/my_console.cpp ****             }
 404              		.loc 1 135 17 is_stmt 1
 135:src/my_console.cpp ****             }
 405              		.loc 1 135 19 is_stmt 0
 406 0238 3B699902 		remw	s2,s2,s1
 407              	.LVL45:
GAS LISTING /tmp/cchhFqnR.s 			page 12


 133:src/my_console.cpp ****                 __putc(digit + '0');
 408              		.loc 1 133 32
 409 023c 93061000 		li	a3,1
 410              	.LVL46:
 411              	.L28:
 137:src/my_console.cpp ****         }
 412              		.loc 1 137 13 is_stmt 1
 137:src/my_console.cpp ****         }
 413              		.loc 1 137 21 is_stmt 0
 414 0240 9307A000 		li	a5,10
 415 0244 BBC4F402 		divw	s1,s1,a5
 416              	.LVL47:
 417              	.L26:
 418              	.LBE12:
 128:src/my_console.cpp ****         {
 419              		.loc 1 128 9 is_stmt 1
 128:src/my_console.cpp ****         {
 420              		.loc 1 128 23
 421 0248 E35690F8 		blez	s1,.L21
 422              	.LBB13:
 130:src/my_console.cpp ****             if (digit > 0 || alreadyWritten)
 423              		.loc 1 130 13
 130:src/my_console.cpp ****             if (digit > 0 || alreadyWritten)
 424              		.loc 1 130 17 is_stmt 0
 425 024c BB479902 		divw	a5,s2,s1
 426 0250 1B870700 		sext.w	a4,a5
 427              	.LVL48:
 131:src/my_console.cpp ****             {
 428              		.loc 1 131 13 is_stmt 1
 429 0254 E34AE0FC 		bgtz	a4,.L27
 131:src/my_console.cpp ****             {
 430              		.loc 1 131 27 is_stmt 0 discriminator 1
 431 0258 E38406FE 		beqz	a3,.L28
 432 025c 6FF0DFFC 		j	.L27
 433              	.LBE13:
 434              	.LBE14:
 435              	.LBE15:
 436              	.LBE17:
 437              		.cfi_endproc
 438              	.LFE6:
 440              		.section	.rodata.str1.8
 441 00bc 00000000 		.align	3
 442              	.LC4:
 443 00c0 3D3D3D3D 		.string	"===================== ASSERT file: "
 443      3D3D3D3D 
 443      3D3D3D3D 
 443      3D3D3D3D 
 443      3D3D3D3D 
 444 00e4 00000000 		.align	3
 445              	.LC5:
 446 00e8 7372632F 		.string	"src/my_console.cpp"
 446      6D795F63 
 446      6F6E736F 
 446      6C652E63 
 446      707000
 447 00fb 00000000 		.align	3
 447      00
GAS LISTING /tmp/cchhFqnR.s 			page 13


 448              	.LC6:
 449 0100 20202020 		.string	"    line: "
 449      6C696E65 
 449      3A2000
 450 010b 00000000 		.align	3
 450      00
 451              	.LC7:
 452 0110 2020203D 		.string	"   ==========================="
 452      3D3D3D3D 
 452      3D3D3D3D 
 452      3D3D3D3D 
 452      3D3D3D3D 
 453              		.text
 454              		.align	2
 455              		.globl	_Z9putBinarym
 457              	_Z9putBinarym:
 458              	.LFB4:
  38:src/my_console.cpp ****     assert(false);
 459              		.loc 1 38 1 is_stmt 1
 460              		.cfi_startproc
 461              	.LVL49:
 462 0260 130101FF 		addi	sp,sp,-16
 463              		.cfi_def_cfa_offset 16
 464 0264 23341100 		sd	ra,8(sp)
 465 0268 23308100 		sd	s0,0(sp)
 466              		.cfi_offset 1, -8
 467              		.cfi_offset 8, -16
 468 026c 13040101 		addi	s0,sp,16
 469              		.cfi_def_cfa 8, 0
  39:src/my_console.cpp ****     if(n < 0)
 470              		.loc 1 39 5
 471              	.LVL50:
 472              	.LBB23:
 473              	.LBB24:
 474              		.file 2 "src/../h/my_console.h"
   1:src/../h/my_console.h **** #pragma once
   2:src/../h/my_console.h **** 
   3:src/../h/my_console.h **** #include "../h/risc.h"
   4:src/../h/my_console.h **** 
   5:src/../h/my_console.h **** #include "../lib/console.h"
   6:src/../h/my_console.h **** #include "../lib/hw.h"
   7:src/../h/my_console.h **** 
   8:src/../h/my_console.h **** #define __DEBUG_MODE
   9:src/../h/my_console.h **** 
  10:src/../h/my_console.h **** 
  11:src/../h/my_console.h **** void putString(const char* s);
  12:src/../h/my_console.h **** void putInt(int n);
  13:src/../h/my_console.h **** void putNewline();
  14:src/../h/my_console.h **** void putU64(uint64 n);
  15:src/../h/my_console.h **** void putBinary(uint64 n);
  16:src/../h/my_console.h **** void stopKernel();
  17:src/../h/my_console.h **** 
  18:src/../h/my_console.h **** inline void _assert(bool valid, const char* file, int line) // MUST be inline
  19:src/../h/my_console.h **** {
  20:src/../h/my_console.h ****     if(valid)
 475              		.loc 2 20 5
  21:src/../h/my_console.h ****         return;
GAS LISTING /tmp/cchhFqnR.s 			page 14


  22:src/../h/my_console.h **** 
  23:src/../h/my_console.h ****     putString("===================== ASSERT file: ");
 476              		.loc 2 23 5
 477              		.loc 2 23 14 is_stmt 0
 478 0270 17050000 		lla	a0,.LC4
 478      13050500 
 479              	.LVL51:
 480 0278 97000000 		call	_Z9putStringPKc
 480      E7800000 
 481              	.LVL52:
  24:src/../h/my_console.h ****     putString(file);
 482              		.loc 2 24 5 is_stmt 1
 483              		.loc 2 24 14 is_stmt 0
 484 0280 17050000 		lla	a0,.LC5
 484      13050500 
 485 0288 97000000 		call	_Z9putStringPKc
 485      E7800000 
 486              	.LVL53:
  25:src/../h/my_console.h ****     putString("    line: ");
 487              		.loc 2 25 5 is_stmt 1
 488              		.loc 2 25 14 is_stmt 0
 489 0290 17050000 		lla	a0,.LC6
 489      13050500 
 490 0298 97000000 		call	_Z9putStringPKc
 490      E7800000 
 491              	.LVL54:
  26:src/../h/my_console.h ****     putInt(line);
 492              		.loc 2 26 5 is_stmt 1
 493              		.loc 2 26 11 is_stmt 0
 494 02a0 13057002 		li	a0,39
 495 02a4 97000000 		call	_Z6putInti
 495      E7800000 
 496              	.LVL55:
  27:src/../h/my_console.h ****     putString("   ===========================");
 497              		.loc 2 27 5 is_stmt 1
 498              		.loc 2 27 14 is_stmt 0
 499 02ac 17050000 		lla	a0,.LC7
 499      13050500 
 500 02b4 97000000 		call	_Z9putStringPKc
 500      E7800000 
 501              	.LVL56:
  28:src/../h/my_console.h ****     putNewline();
 502              		.loc 2 28 5 is_stmt 1
 503              		.loc 2 28 15 is_stmt 0
 504 02bc 97000000 		call	_Z10putNewlinev
 504      E7800000 
 505              	.LVL57:
  29:src/../h/my_console.h **** 
  30:src/../h/my_console.h ****     stopKernel();
 506              		.loc 2 30 5 is_stmt 1
 507              		.loc 2 30 15 is_stmt 0
 508 02c4 97000000 		call	_Z10stopKernelv
 508      E7800000 
 509              	.LVL58:
 510              	.LBE24:
 511              	.LBE23:
 512              		.cfi_endproc
GAS LISTING /tmp/cchhFqnR.s 			page 15


 513              	.LFE4:
 515              		.section	.rodata.cst8,"aM",@progbits,8
 516              		.align	3
 517              	.LC1:
 518 0000 000064A7 		.dword	1000000000000000000
 518      B3B6E00D 
 519              		.text
 520              	.Letext0:
 521              		.file 3 "src/../h/../lib/hw.h"
 522              		.file 4 "src/../h/../lib/console.h"
 523              		.file 5 "src/../h/../h/risc.h"
GAS LISTING /tmp/cchhFqnR.s 			page 16


DEFINED SYMBOLS
                            *ABS*:0000000000000000 my_console.cpp
     /tmp/cchhFqnR.s:9      .text:0000000000000000 _Z10putNewlinev
     /tmp/cchhFqnR.s:13     .text:0000000000000000 .L0 
     /tmp/cchhFqnR.s:14     .text:0000000000000000 .L0 
     /tmp/cchhFqnR.s:15     .text:0000000000000004 .L0 
     /tmp/cchhFqnR.s:18     .text:000000000000000c .L0 
     /tmp/cchhFqnR.s:19     .text:000000000000000c .L0 
     /tmp/cchhFqnR.s:21     .text:0000000000000010 .L0 
     /tmp/cchhFqnR.s:23     .text:0000000000000010 .L0 
     /tmp/cchhFqnR.s:24     .text:0000000000000010 .L0 
     /tmp/cchhFqnR.s:28     .text:000000000000001c .L0 
     /tmp/cchhFqnR.s:29     .text:0000000000000020 .L0 
     /tmp/cchhFqnR.s:31     .text:0000000000000024 .L0 
     /tmp/cchhFqnR.s:32     .text:0000000000000024 .L0 
     /tmp/cchhFqnR.s:34     .text:0000000000000028 .L0 
     /tmp/cchhFqnR.s:36     .text:000000000000002c .L0 
     /tmp/cchhFqnR.s:42     .text:000000000000002c _Z9putStringPKc
     /tmp/cchhFqnR.s:45     .text:000000000000002c .L0 
     /tmp/cchhFqnR.s:47     .text:000000000000002c .L0 
     /tmp/cchhFqnR.s:48     .text:0000000000000030 .L0 
     /tmp/cchhFqnR.s:53     .text:0000000000000040 .L0 
     /tmp/cchhFqnR.s:54     .text:0000000000000040 .L0 
     /tmp/cchhFqnR.s:55     .text:0000000000000040 .L0 
     /tmp/cchhFqnR.s:56     .text:0000000000000040 .L0 
     /tmp/cchhFqnR.s:58     .text:0000000000000044 .L0 
     /tmp/cchhFqnR.s:62     .text:0000000000000048 .L0 
     /tmp/cchhFqnR.s:63     .text:0000000000000048 .L0 
     /tmp/cchhFqnR.s:67     .text:000000000000004c .L0 
     /tmp/cchhFqnR.s:68     .text:000000000000004c .L0 
     /tmp/cchhFqnR.s:69     .text:000000000000004c .L0 
     /tmp/cchhFqnR.s:72     .text:0000000000000054 .L0 
     /tmp/cchhFqnR.s:74     .text:0000000000000058 .L0 
     /tmp/cchhFqnR.s:75     .text:0000000000000058 .L0 
     /tmp/cchhFqnR.s:78     .text:000000000000005c .L0 
     /tmp/cchhFqnR.s:81     .text:0000000000000064 .L0 
     /tmp/cchhFqnR.s:82     .text:0000000000000064 .L0 
     /tmp/cchhFqnR.s:86     .text:0000000000000068 .L0 
     /tmp/cchhFqnR.s:87     .text:000000000000006c .L0 
     /tmp/cchhFqnR.s:89     .text:0000000000000070 .L0 
     /tmp/cchhFqnR.s:90     .text:0000000000000070 .L0 
     /tmp/cchhFqnR.s:92     .text:0000000000000074 .L0 
     /tmp/cchhFqnR.s:95     .text:0000000000000078 .L0 
     /tmp/cchhFqnR.s:98     .text:000000000000007c .L0 
     /tmp/cchhFqnR.s:100    .text:0000000000000080 .L0 
     /tmp/cchhFqnR.s:111    .text:0000000000000080 _Z10stopKernelv
     /tmp/cchhFqnR.s:114    .text:0000000000000080 .L0 
     /tmp/cchhFqnR.s:115    .text:0000000000000080 .L0 
     /tmp/cchhFqnR.s:116    .text:0000000000000084 .L0 
     /tmp/cchhFqnR.s:119    .text:000000000000008c .L0 
     /tmp/cchhFqnR.s:120    .text:000000000000008c .L0 
     /tmp/cchhFqnR.s:122    .text:0000000000000090 .L0 
     /tmp/cchhFqnR.s:124    .text:0000000000000090 .L0 
     /tmp/cchhFqnR.s:125    .text:0000000000000090 .L0 
     /tmp/cchhFqnR.s:128    .text:0000000000000098 .L0 
     /tmp/cchhFqnR.s:129    .text:0000000000000098 .L0 
     /tmp/cchhFqnR.s:133    .text:00000000000000a8 .L0 
GAS LISTING /tmp/cchhFqnR.s 			page 17


     /tmp/cchhFqnR.s:134    .text:00000000000000a8 .L0 
     /tmp/cchhFqnR.s:138    .text:00000000000000b0 .L0 
     /tmp/cchhFqnR.s:139    .text:00000000000000b0 .L0 
     /tmp/cchhFqnR.s:140    .text:00000000000000b4 .L0 
     /tmp/cchhFqnR.s:151    .text:00000000000000b4 _Z6putU64m
     /tmp/cchhFqnR.s:154    .text:00000000000000b4 .L0 
     /tmp/cchhFqnR.s:156    .text:00000000000000b4 .L0 
     /tmp/cchhFqnR.s:157    .text:00000000000000b8 .L0 
     /tmp/cchhFqnR.s:162    .text:00000000000000c8 .L0 
     /tmp/cchhFqnR.s:163    .text:00000000000000c8 .L0 
     /tmp/cchhFqnR.s:164    .text:00000000000000c8 .L0 
     /tmp/cchhFqnR.s:165    .text:00000000000000c8 .L0 
     /tmp/cchhFqnR.s:167    .text:00000000000000cc .L0 
     /tmp/cchhFqnR.s:171    .text:00000000000000d0 .L0 
     /tmp/cchhFqnR.s:177    .text:00000000000000d8 .L0 
     /tmp/cchhFqnR.s:179    .text:00000000000000d8 .L0 
     /tmp/cchhFqnR.s:180    .text:00000000000000d8 .L0 
     /tmp/cchhFqnR.s:183    .text:00000000000000e4 .L0 
     /tmp/cchhFqnR.s:185    .text:00000000000000e8 .L0 
     /tmp/cchhFqnR.s:191    .text:00000000000000f4 .L0 
     /tmp/cchhFqnR.s:192    .text:00000000000000f4 .L0 
     /tmp/cchhFqnR.s:200    .text:0000000000000104 .L0 
     /tmp/cchhFqnR.s:201    .text:0000000000000108 .L0 
     /tmp/cchhFqnR.s:202    .text:0000000000000108 .L0 
     /tmp/cchhFqnR.s:204    .text:000000000000010c .L0 
     /tmp/cchhFqnR.s:205    .text:000000000000010c .L0 
     /tmp/cchhFqnR.s:207    .text:0000000000000110 .L0 
     /tmp/cchhFqnR.s:209    .text:0000000000000114 .L0 
     /tmp/cchhFqnR.s:212    .text:0000000000000118 .L0 
     /tmp/cchhFqnR.s:216    .text:000000000000011c .L0 
     /tmp/cchhFqnR.s:220    .text:000000000000011c .L0 
     /tmp/cchhFqnR.s:221    .text:000000000000011c .L0 
     /tmp/cchhFqnR.s:226    .text:000000000000012c .L0 
     /tmp/cchhFqnR.s:227    .text:000000000000012c .L0 
     /tmp/cchhFqnR.s:230    .text:0000000000000134 .L0 
     /tmp/cchhFqnR.s:231    .text:0000000000000134 .L0 
     /tmp/cchhFqnR.s:236    .text:000000000000013c .L0 
     /tmp/cchhFqnR.s:237    .text:000000000000013c .L0 
     /tmp/cchhFqnR.s:238    .text:000000000000013c .L0 
     /tmp/cchhFqnR.s:243    .text:000000000000014c .L0 
     /tmp/cchhFqnR.s:244    .text:000000000000014c .L0 
     /tmp/cchhFqnR.s:247    .text:0000000000000150 .L0 
     /tmp/cchhFqnR.s:251    .text:0000000000000154 .L0 
     /tmp/cchhFqnR.s:252    .text:0000000000000154 .L0 
     /tmp/cchhFqnR.s:258    .text:000000000000015c .L0 
     /tmp/cchhFqnR.s:259    .text:000000000000015c .L0 
     /tmp/cchhFqnR.s:262    .text:0000000000000160 .L0 
     /tmp/cchhFqnR.s:263    .text:0000000000000160 .L0 
     /tmp/cchhFqnR.s:265    .text:0000000000000164 .L0 
     /tmp/cchhFqnR.s:268    .text:0000000000000168 .L0 
     /tmp/cchhFqnR.s:270    .text:000000000000016c .L0 
     /tmp/cchhFqnR.s:275    .text:0000000000000174 .L0 
     /tmp/cchhFqnR.s:286    .text:0000000000000174 _Z6putInti
     /tmp/cchhFqnR.s:289    .text:0000000000000174 .L0 
     /tmp/cchhFqnR.s:291    .text:0000000000000174 .L0 
     /tmp/cchhFqnR.s:292    .text:0000000000000178 .L0 
     /tmp/cchhFqnR.s:297    .text:0000000000000188 .L0 
GAS LISTING /tmp/cchhFqnR.s 			page 18


     /tmp/cchhFqnR.s:298    .text:0000000000000188 .L0 
     /tmp/cchhFqnR.s:299    .text:0000000000000188 .L0 
     /tmp/cchhFqnR.s:300    .text:0000000000000188 .L0 
     /tmp/cchhFqnR.s:302    .text:000000000000018c .L0 
     /tmp/cchhFqnR.s:306    .text:0000000000000190 .L0 
     /tmp/cchhFqnR.s:307    .text:0000000000000190 .L0 
     /tmp/cchhFqnR.s:309    .text:0000000000000194 .L0 
     /tmp/cchhFqnR.s:315    .text:000000000000019c .L0 
     /tmp/cchhFqnR.s:319    .text:00000000000001a0 .L0 
     /tmp/cchhFqnR.s:320    .text:00000000000001a0 .L0 
     /tmp/cchhFqnR.s:324    .text:00000000000001ac .L0 
     /tmp/cchhFqnR.s:327    .text:00000000000001b4 .L0 
     /tmp/cchhFqnR.s:329    .text:00000000000001b8 .L0 
     /tmp/cchhFqnR.s:337    .text:00000000000001c4 .L0 
     /tmp/cchhFqnR.s:338    .text:00000000000001c4 .L0 
     /tmp/cchhFqnR.s:347    .text:00000000000001d4 .L0 
     /tmp/cchhFqnR.s:348    .text:00000000000001d8 .L0 
     /tmp/cchhFqnR.s:349    .text:00000000000001d8 .L0 
     /tmp/cchhFqnR.s:351    .text:00000000000001dc .L0 
     /tmp/cchhFqnR.s:352    .text:00000000000001dc .L0 
     /tmp/cchhFqnR.s:354    .text:00000000000001e0 .L0 
     /tmp/cchhFqnR.s:356    .text:00000000000001e4 .L0 
     /tmp/cchhFqnR.s:358    .text:00000000000001e8 .L0 
     /tmp/cchhFqnR.s:362    .text:00000000000001ec .L0 
     /tmp/cchhFqnR.s:366    .text:00000000000001ec .L0 
     /tmp/cchhFqnR.s:367    .text:00000000000001ec .L0 
     /tmp/cchhFqnR.s:372    .text:00000000000001f8 .L0 
     /tmp/cchhFqnR.s:373    .text:00000000000001f8 .L0 
     /tmp/cchhFqnR.s:381    .text:0000000000000208 .L0 
     /tmp/cchhFqnR.s:382    .text:0000000000000208 .L0 
     /tmp/cchhFqnR.s:387    .text:0000000000000218 .L0 
     /tmp/cchhFqnR.s:388    .text:0000000000000218 .L0 
     /tmp/cchhFqnR.s:391    .text:0000000000000220 .L0 
     /tmp/cchhFqnR.s:392    .text:0000000000000220 .L0 
     /tmp/cchhFqnR.s:397    .text:0000000000000228 .L0 
     /tmp/cchhFqnR.s:398    .text:0000000000000228 .L0 
     /tmp/cchhFqnR.s:399    .text:0000000000000228 .L0 
     /tmp/cchhFqnR.s:405    .text:0000000000000238 .L0 
     /tmp/cchhFqnR.s:406    .text:0000000000000238 .L0 
     /tmp/cchhFqnR.s:409    .text:000000000000023c .L0 
     /tmp/cchhFqnR.s:413    .text:0000000000000240 .L0 
     /tmp/cchhFqnR.s:414    .text:0000000000000240 .L0 
     /tmp/cchhFqnR.s:420    .text:0000000000000248 .L0 
     /tmp/cchhFqnR.s:421    .text:0000000000000248 .L0 
     /tmp/cchhFqnR.s:424    .text:000000000000024c .L0 
     /tmp/cchhFqnR.s:425    .text:000000000000024c .L0 
     /tmp/cchhFqnR.s:429    .text:0000000000000254 .L0 
     /tmp/cchhFqnR.s:431    .text:0000000000000258 .L0 
     /tmp/cchhFqnR.s:437    .text:0000000000000260 .L0 
     /tmp/cchhFqnR.s:457    .text:0000000000000260 _Z9putBinarym
     /tmp/cchhFqnR.s:460    .text:0000000000000260 .L0 
     /tmp/cchhFqnR.s:462    .text:0000000000000260 .L0 
     /tmp/cchhFqnR.s:463    .text:0000000000000264 .L0 
     /tmp/cchhFqnR.s:466    .text:000000000000026c .L0 
     /tmp/cchhFqnR.s:467    .text:000000000000026c .L0 
     /tmp/cchhFqnR.s:469    .text:0000000000000270 .L0 
     /tmp/cchhFqnR.s:475    .text:0000000000000270 .L0 
GAS LISTING /tmp/cchhFqnR.s 			page 19


     /tmp/cchhFqnR.s:476    .text:0000000000000270 .L0 
     /tmp/cchhFqnR.s:477    .text:0000000000000270 .L0 
     /tmp/cchhFqnR.s:478    .text:0000000000000270 .L0 
     /tmp/cchhFqnR.s:483    .text:0000000000000280 .L0 
     /tmp/cchhFqnR.s:484    .text:0000000000000280 .L0 
     /tmp/cchhFqnR.s:488    .text:0000000000000290 .L0 
     /tmp/cchhFqnR.s:489    .text:0000000000000290 .L0 
     /tmp/cchhFqnR.s:493    .text:00000000000002a0 .L0 
     /tmp/cchhFqnR.s:494    .text:00000000000002a0 .L0 
     /tmp/cchhFqnR.s:498    .text:00000000000002ac .L0 
     /tmp/cchhFqnR.s:499    .text:00000000000002ac .L0 
     /tmp/cchhFqnR.s:503    .text:00000000000002bc .L0 
     /tmp/cchhFqnR.s:504    .text:00000000000002bc .L0 
     /tmp/cchhFqnR.s:507    .text:00000000000002c4 .L0 
     /tmp/cchhFqnR.s:508    .text:00000000000002c4 .L0 
     /tmp/cchhFqnR.s:512    .text:00000000000002cc .L0 
     /tmp/cchhFqnR.s:524    .text:00000000000002cc .L0 
     /tmp/cchhFqnR.s:105    .rodata.str1.8:0000000000000000 .LC0
     /tmp/cchhFqnR.s:129    .text:0000000000000098 .L0 
     /tmp/cchhFqnR.s:517    .rodata.cst8:0000000000000000 .LC1
     /tmp/cchhFqnR.s:180    .text:00000000000000d8 .L0 
     /tmp/cchhFqnR.s:185    .text:00000000000000e8 .L0 
     /tmp/cchhFqnR.s:145    .rodata.str1.8:0000000000000028 .LC2
     /tmp/cchhFqnR.s:221    .text:000000000000011c .L0 
     /tmp/cchhFqnR.s:280    .rodata.str1.8:0000000000000070 .LC3
     /tmp/cchhFqnR.s:382    .text:0000000000000208 .L0 
     /tmp/cchhFqnR.s:442    .rodata.str1.8:00000000000000c0 .LC4
     /tmp/cchhFqnR.s:478    .text:0000000000000270 .L0 
     /tmp/cchhFqnR.s:445    .rodata.str1.8:00000000000000e8 .LC5
     /tmp/cchhFqnR.s:484    .text:0000000000000280 .L0 
     /tmp/cchhFqnR.s:448    .rodata.str1.8:0000000000000100 .LC6
     /tmp/cchhFqnR.s:489    .text:0000000000000290 .L0 
     /tmp/cchhFqnR.s:451    .rodata.str1.8:0000000000000110 .LC7
     /tmp/cchhFqnR.s:499    .text:00000000000002ac .L0 
     /tmp/cchhFqnR.s:84     .text:0000000000000068 .L6
     /tmp/cchhFqnR.s:65     .text:000000000000004c .L5
     /tmp/cchhFqnR.s:136    .text:00000000000000b0 .L9
     /tmp/cchhFqnR.s:188    .text:00000000000000f4 .L19
     /tmp/cchhFqnR.s:215    .text:000000000000011c .L20
     /tmp/cchhFqnR.s:255    .text:000000000000015c .L14
     /tmp/cchhFqnR.s:197    .text:0000000000000104 .L11
     /tmp/cchhFqnR.s:233    .text:000000000000013c .L15
     /tmp/cchhFqnR.s:249    .text:0000000000000154 .L16
     /tmp/cchhFqnR.s:333    .text:00000000000001c4 .L31
     /tmp/cchhFqnR.s:361    .text:00000000000001ec .L32
     /tmp/cchhFqnR.s:378    .text:0000000000000208 .L25
     /tmp/cchhFqnR.s:417    .text:0000000000000248 .L26
     /tmp/cchhFqnR.s:344    .text:00000000000001d4 .L21
     /tmp/cchhFqnR.s:394    .text:0000000000000228 .L27
     /tmp/cchhFqnR.s:411    .text:0000000000000240 .L28
     /tmp/cchhFqnR.s:1111   .debug_abbrev:0000000000000000 .Ldebug_abbrev0
     /tmp/cchhFqnR.s:1819   .debug_str:0000000000000161 .LASF40
     /tmp/cchhFqnR.s:1775   .debug_str:000000000000001e .LASF41
     /tmp/cchhFqnR.s:1779   .debug_str:0000000000000038 .LASF42
     /tmp/cchhFqnR.s:5      .text:0000000000000000 .Ltext0
     /tmp/cchhFqnR.s:520    .text:00000000000002cc .Letext0
     /tmp/cchhFqnR.s:1769   .debug_line:0000000000000000 .Ldebug_line0
GAS LISTING /tmp/cchhFqnR.s 			page 20


     /tmp/cchhFqnR.s:1807   .debug_str:0000000000000114 .LASF0
     /tmp/cchhFqnR.s:1823   .debug_str:0000000000000235 .LASF1
     /tmp/cchhFqnR.s:1809   .debug_str:0000000000000126 .LASF2
     /tmp/cchhFqnR.s:1801   .debug_str:00000000000000ec .LASF3
     /tmp/cchhFqnR.s:1783   .debug_str:000000000000005a .LASF4
     /tmp/cchhFqnR.s:1811   .debug_str:0000000000000139 .LASF5
     /tmp/cchhFqnR.s:1773   .debug_str:000000000000000b .LASF6
     /tmp/cchhFqnR.s:1793   .debug_str:0000000000000091 .LASF7
     /tmp/cchhFqnR.s:1833   .debug_str:0000000000000259 .LASF8
     /tmp/cchhFqnR.s:1781   .debug_str:000000000000004c .LASF9
     /tmp/cchhFqnR.s:1859   .debug_str:00000000000002ff .LASF10
     /tmp/cchhFqnR.s:1797   .debug_str:00000000000000c3 .LASF11
     /tmp/cchhFqnR.s:1851   .debug_str:00000000000002d3 .LASF12
     /tmp/cchhFqnR.s:1839   .debug_str:000000000000028f .LASF13
     /tmp/cchhFqnR.s:1813   .debug_str:0000000000000140 .LASF14
     /tmp/cchhFqnR.s:1789   .debug_str:0000000000000071 .LASF15
     /tmp/cchhFqnR.s:1835   .debug_str:0000000000000269 .LASF16
     /tmp/cchhFqnR.s:1857   .debug_str:00000000000002f8 .LASF21
     /tmp/cchhFqnR.s:1771   .debug_str:0000000000000000 .LASF23
     /tmp/cchhFqnR.s:287    .text:0000000000000174 .LFB6
     /tmp/cchhFqnR.s:438    .text:0000000000000260 .LFE6
     /tmp/cchhFqnR.s:1487   .debug_loc:0000000000000000 .LLST6
     /tmp/cchhFqnR.s:1743   .debug_ranges:0000000000000000 .Ldebug_ranges0
     /tmp/cchhFqnR.s:1849   .debug_str:00000000000002cb .LASF17
     /tmp/cchhFqnR.s:1549   .debug_loc:00000000000000ff .LLST7
     /tmp/cchhFqnR.s:1805   .debug_str:0000000000000105 .LASF18
     /tmp/cchhFqnR.s:1568   .debug_loc:0000000000000152 .LLST8
     /tmp/cchhFqnR.s:1825   .debug_str:0000000000000242 .LASF19
     /tmp/cchhFqnR.s:1580   .debug_loc:0000000000000189 .LLST9
     /tmp/cchhFqnR.s:403    .text:0000000000000238 .LVL44
     /tmp/cchhFqnR.s:385    .text:0000000000000218 .LVL40
     /tmp/cchhFqnR.s:389    .text:0000000000000220 .LVL41
     /tmp/cchhFqnR.s:393    .text:0000000000000228 .LVL42
     /tmp/cchhFqnR.s:343    .text:00000000000001d4 .LVL33
     /tmp/cchhFqnR.s:370    .text:00000000000001f8 .LVL36
     /tmp/cchhFqnR.s:375    .text:0000000000000204 .LVL37
     /tmp/cchhFqnR.s:1785   .debug_str:0000000000000061 .LASF20
     /tmp/cchhFqnR.s:1777   .debug_str:0000000000000031 .LASF22
     /tmp/cchhFqnR.s:1803   .debug_str:00000000000000fa .LASF24
     /tmp/cchhFqnR.s:152    .text:00000000000000b4 .LFB5
     /tmp/cchhFqnR.s:276    .text:0000000000000174 .LFE5
     /tmp/cchhFqnR.s:1606   .debug_loc:00000000000001ec .LLST2
     /tmp/cchhFqnR.s:1625   .debug_loc:0000000000000248 .LLST3
     /tmp/cchhFqnR.s:1644   .debug_loc:00000000000002a3 .LLST4
     /tmp/cchhFqnR.s:1656   .debug_loc:00000000000002da .LLST5
     /tmp/cchhFqnR.s:241    .text:000000000000014c .LVL23
     /tmp/cchhFqnR.s:224    .text:000000000000012c .LVL20
     /tmp/cchhFqnR.s:228    .text:0000000000000134 .LVL21
     /tmp/cchhFqnR.s:232    .text:000000000000013c .LVL22
     /tmp/cchhFqnR.s:196    .text:0000000000000104 .LVL16
     /tmp/cchhFqnR.s:1853   .debug_str:00000000000002e3 .LASF25
     /tmp/cchhFqnR.s:1843   .debug_str:00000000000002a5 .LASF26
     /tmp/cchhFqnR.s:458    .text:0000000000000260 .LFB4
     /tmp/cchhFqnR.s:513    .text:00000000000002cc .LFE4
     /tmp/cchhFqnR.s:1682   .debug_loc:000000000000032e .LLST10
     /tmp/cchhFqnR.s:472    .text:0000000000000270 .LBB23
     /tmp/cchhFqnR.s:511    .text:00000000000002cc .LBE23
GAS LISTING /tmp/cchhFqnR.s 			page 21


     /tmp/cchhFqnR.s:481    .text:0000000000000280 .LVL52
     /tmp/cchhFqnR.s:486    .text:0000000000000290 .LVL53
     /tmp/cchhFqnR.s:491    .text:00000000000002a0 .LVL54
     /tmp/cchhFqnR.s:496    .text:00000000000002ac .LVL55
     /tmp/cchhFqnR.s:501    .text:00000000000002bc .LVL56
     /tmp/cchhFqnR.s:505    .text:00000000000002c4 .LVL57
     /tmp/cchhFqnR.s:509    .text:00000000000002cc .LVL58
     /tmp/cchhFqnR.s:1791   .debug_str:0000000000000087 .LASF27
     /tmp/cchhFqnR.s:1847   .debug_str:00000000000002bb .LASF28
     /tmp/cchhFqnR.s:43     .text:000000000000002c .LFB3
     /tmp/cchhFqnR.s:101    .text:0000000000000080 .LFE3
     /tmp/cchhFqnR.s:1696   .debug_loc:0000000000000367 .LLST0
     /tmp/cchhFqnR.s:1714   .debug_loc:00000000000003b3 .LLST1
     /tmp/cchhFqnR.s:79     .text:0000000000000064 .LVL5
     /tmp/cchhFqnR.s:1827   .debug_str:0000000000000248 .LASF29
     /tmp/cchhFqnR.s:1855   .debug_str:00000000000002ed .LASF30
     /tmp/cchhFqnR.s:1821   .debug_str:0000000000000225 .LASF31
     /tmp/cchhFqnR.s:10     .text:0000000000000000 .LFB2
     /tmp/cchhFqnR.s:37     .text:000000000000002c .LFE2
     /tmp/cchhFqnR.s:26     .text:000000000000001c .LVL0
     /tmp/cchhFqnR.s:1787   .debug_str:0000000000000066 .LASF32
     /tmp/cchhFqnR.s:1817   .debug_str:0000000000000151 .LASF33
     /tmp/cchhFqnR.s:112    .text:0000000000000080 .LFB1
     /tmp/cchhFqnR.s:141    .text:00000000000000b4 .LFE1
     /tmp/cchhFqnR.s:126    .text:0000000000000098 .LVL9
     /tmp/cchhFqnR.s:131    .text:00000000000000a8 .LVL10
     /tmp/cchhFqnR.s:135    .text:00000000000000b0 .LVL11
     /tmp/cchhFqnR.s:1845   .debug_str:00000000000002b3 .LASF43
     /tmp/cchhFqnR.s:1837   .debug_str:000000000000027f .LASF44
     /tmp/cchhFqnR.s:1841   .debug_str:000000000000029f .LASF34
     /tmp/cchhFqnR.s:1815   .debug_str:000000000000014c .LASF35
     /tmp/cchhFqnR.s:1829   .debug_str:000000000000024d .LASF36
     /tmp/cchhFqnR.s:1831   .debug_str:0000000000000252 .LASF37
     /tmp/cchhFqnR.s:1795   .debug_str:00000000000000a4 .LASF38
     /tmp/cchhFqnR.s:1799   .debug_str:00000000000000d2 .LASF39
     /tmp/cchhFqnR.s:290    .text:0000000000000174 .LVL28
     /tmp/cchhFqnR.s:339    .text:00000000000001c8 .LVL31
     /tmp/cchhFqnR.s:341    .text:00000000000001cc .LVL32
     /tmp/cchhFqnR.s:360    .text:00000000000001ec .LVL34
     /tmp/cchhFqnR.s:368    .text:00000000000001f0 .LVL35
     /tmp/cchhFqnR.s:377    .text:0000000000000208 .LVL38
     /tmp/cchhFqnR.s:383    .text:0000000000000210 .LVL39
     /tmp/cchhFqnR.s:407    .text:000000000000023c .LVL45
     /tmp/cchhFqnR.s:410    .text:0000000000000240 .LVL46
     /tmp/cchhFqnR.s:318    .text:00000000000001a0 .LVL29
     /tmp/cchhFqnR.s:332    .text:00000000000001c4 .LVL30
     /tmp/cchhFqnR.s:400    .text:000000000000022c .LVL43
     /tmp/cchhFqnR.s:427    .text:0000000000000254 .LVL48
     /tmp/cchhFqnR.s:155    .text:00000000000000b4 .LVL12
     /tmp/cchhFqnR.s:193    .text:00000000000000f8 .LVL15
     /tmp/cchhFqnR.s:210    .text:0000000000000114 .LVL17
     /tmp/cchhFqnR.s:214    .text:000000000000011c .LVL18
     /tmp/cchhFqnR.s:222    .text:0000000000000124 .LVL19
     /tmp/cchhFqnR.s:178    .text:00000000000000d8 .LVL13
     /tmp/cchhFqnR.s:187    .text:00000000000000f4 .LVL14
     /tmp/cchhFqnR.s:248    .text:0000000000000154 .LVL25
     /tmp/cchhFqnR.s:245    .text:0000000000000150 .LVL24
GAS LISTING /tmp/cchhFqnR.s 			page 22


     /tmp/cchhFqnR.s:266    .text:0000000000000168 .LVL27
     /tmp/cchhFqnR.s:461    .text:0000000000000260 .LVL49
     /tmp/cchhFqnR.s:479    .text:0000000000000278 .LVL51
     /tmp/cchhFqnR.s:46     .text:000000000000002c .LVL1
     /tmp/cchhFqnR.s:64     .text:000000000000004c .LVL3
     /tmp/cchhFqnR.s:96     .text:0000000000000078 .LVL8
     /tmp/cchhFqnR.s:61     .text:0000000000000048 .LVL2
     /tmp/cchhFqnR.s:76     .text:000000000000005c .LVL4
     /tmp/cchhFqnR.s:83     .text:0000000000000068 .LVL6
     /tmp/cchhFqnR.s:93     .text:0000000000000074 .LVL7
     /tmp/cchhFqnR.s:525    .debug_info:0000000000000000 .Ldebug_info0
     /tmp/cchhFqnR.s:176    .text:00000000000000d8 .LBB3
     /tmp/cchhFqnR.s:189    .text:00000000000000f4 .LBE3
     /tmp/cchhFqnR.s:218    .text:000000000000011c .LBB6
     /tmp/cchhFqnR.s:273    .text:0000000000000174 .LBE6
     /tmp/cchhFqnR.s:234    .text:000000000000013c .LBB4
     /tmp/cchhFqnR.s:256    .text:000000000000015c .LBE4
     /tmp/cchhFqnR.s:260    .text:0000000000000160 .LBB5
     /tmp/cchhFqnR.s:272    .text:0000000000000174 .LBE5
     /tmp/cchhFqnR.s:316    .text:00000000000001a0 .LBB11
     /tmp/cchhFqnR.s:334    .text:00000000000001c4 .LBE11
     /tmp/cchhFqnR.s:379    .text:0000000000000208 .LBB14
     /tmp/cchhFqnR.s:434    .text:0000000000000260 .LBE14
     /tmp/cchhFqnR.s:395    .text:0000000000000228 .LBB12
     /tmp/cchhFqnR.s:418    .text:0000000000000248 .LBE12
     /tmp/cchhFqnR.s:422    .text:000000000000024c .LBB13
     /tmp/cchhFqnR.s:433    .text:0000000000000260 .LBE13

UNDEFINED SYMBOLS
__putc
_Z25disableExternalInterruptsv
