GAS LISTING /tmp/cc1GXDPM.s 			page 1


   1              		.file	"my_console.cpp"
   2              		.option pic
   3              		.option norelax
   4              		.text
   5              	.Ltext0:
   6              		.align	2
   7              		.globl	_Z10putNewlinev
   9              	_Z10putNewlinev:
  10              	.LFB2:
  11              		.file 1 "src/my_console.cpp"
   1:src/my_console.cpp **** //
   2:src/my_console.cpp **** // Created by os on 4/25/23.
   3:src/my_console.cpp **** //
   4:src/my_console.cpp **** 
   5:src/my_console.cpp **** #include "../h/my_console.h"
   6:src/my_console.cpp **** #include "../h/c_api.h"
   7:src/my_console.cpp **** 
   8:src/my_console.cpp **** //inline void _assert(bool valid, const char* file, int line)
   9:src/my_console.cpp **** 
  10:src/my_console.cpp **** [[noreturn]] void stopKernel()
  11:src/my_console.cpp **** {
  12:src/my_console.cpp ****     putNewline();
  13:src/my_console.cpp ****     putString("====== Stopping the kernel ======");
  14:src/my_console.cpp **** 
  15:src/my_console.cpp ****     disableExternalInterrupts();
  16:src/my_console.cpp **** 
  17:src/my_console.cpp ****     volatile int a = 1;
  18:src/my_console.cpp ****     while(true)
  19:src/my_console.cpp ****     {
  20:src/my_console.cpp ****         a++;
  21:src/my_console.cpp ****     }
  22:src/my_console.cpp **** }
  23:src/my_console.cpp **** 
  24:src/my_console.cpp **** void putNewline()
  25:src/my_console.cpp **** {
  12              		.loc 1 25 1
  13              		.cfi_startproc
  14 0000 130101FF 		addi	sp,sp,-16
  15              		.cfi_def_cfa_offset 16
  16 0004 23341100 		sd	ra,8(sp)
  17 0008 23308100 		sd	s0,0(sp)
  18              		.cfi_offset 1, -8
  19              		.cfi_offset 8, -16
  20 000c 13040101 		addi	s0,sp,16
  21              		.cfi_def_cfa 8, 0
  26:src/my_console.cpp ****     putc('\n');
  22              		.loc 1 26 5
  23              		.loc 1 26 9 is_stmt 0
  24 0010 1305A000 		li	a0,10
  25 0014 97000000 		call	_Z4putcc@plt
  25      E7800000 
  26              	.LVL0:
  27:src/my_console.cpp **** }
  27              		.loc 1 27 1
  28 001c 83308100 		ld	ra,8(sp)
  29              		.cfi_restore 1
  30 0020 03340100 		ld	s0,0(sp)
GAS LISTING /tmp/cc1GXDPM.s 			page 2


  31              		.cfi_restore 8
  32              		.cfi_def_cfa 2, 16
  33 0024 13010101 		addi	sp,sp,16
  34              		.cfi_def_cfa_offset 0
  35 0028 67800000 		jr	ra
  36              		.cfi_endproc
  37              	.LFE2:
  39              		.align	2
  40              		.globl	_Z9putStringPKc
  42              	_Z9putStringPKc:
  43              	.LFB3:
  28:src/my_console.cpp **** 
  29:src/my_console.cpp **** void putString(const char* s)
  30:src/my_console.cpp **** {
  44              		.loc 1 30 1 is_stmt 1
  45              		.cfi_startproc
  46              	.LVL1:
  47 002c 130101FE 		addi	sp,sp,-32
  48              		.cfi_def_cfa_offset 32
  49 0030 233C1100 		sd	ra,24(sp)
  50 0034 23388100 		sd	s0,16(sp)
  51 0038 23349100 		sd	s1,8(sp)
  52 003c 23302101 		sd	s2,0(sp)
  53              		.cfi_offset 1, -8
  54              		.cfi_offset 8, -16
  55              		.cfi_offset 9, -24
  56              		.cfi_offset 18, -32
  57 0040 13040102 		addi	s0,sp,32
  58              		.cfi_def_cfa 8, 0
  59 0044 13090500 		mv	s2,a0
  31:src/my_console.cpp ****     int i=0;
  60              		.loc 1 31 5
  61              	.LVL2:
  62              		.loc 1 31 9 is_stmt 0
  63 0048 93040000 		li	s1,0
  64              	.LVL3:
  65              	.L5:
  32:src/my_console.cpp ****     while(true)
  66              		.loc 1 32 5 is_stmt 1
  33:src/my_console.cpp ****     {
  34:src/my_console.cpp ****         if(s[i] == '\0')
  67              		.loc 1 34 9
  68              		.loc 1 34 15 is_stmt 0
  69 004c B3079900 		add	a5,s2,s1
  70 0050 03C50700 		lbu	a0,0(a5)
  71              		.loc 1 34 9
  72 0054 630A0500 		beqz	a0,.L6
  35:src/my_console.cpp ****             return;
  36:src/my_console.cpp ****         else putc(s[i++]);
  73              		.loc 1 36 14 is_stmt 1
  74              		.loc 1 36 22 is_stmt 0
  75 0058 9B841400 		addiw	s1,s1,1
  76              	.LVL4:
  77              		.loc 1 36 18
  78 005c 97000000 		call	_Z4putcc@plt
  78      E7800000 
  79              	.LVL5:
GAS LISTING /tmp/cc1GXDPM.s 			page 3


  32:src/my_console.cpp ****     {
  80              		.loc 1 32 5 is_stmt 1
  34:src/my_console.cpp ****             return;
  81              		.loc 1 34 9 is_stmt 0
  82 0064 6FF09FFE 		j	.L5
  83              	.LVL6:
  84              	.L6:
  37:src/my_console.cpp ****     }
  38:src/my_console.cpp **** }
  85              		.loc 1 38 1
  86 0068 83308101 		ld	ra,24(sp)
  87              		.cfi_restore 1
  88 006c 03340101 		ld	s0,16(sp)
  89              		.cfi_restore 8
  90              		.cfi_def_cfa 2, 32
  91 0070 83348100 		ld	s1,8(sp)
  92              		.cfi_restore 9
  93              	.LVL7:
  94 0074 03390100 		ld	s2,0(sp)
  95              		.cfi_restore 18
  96              	.LVL8:
  97 0078 13010102 		addi	sp,sp,32
  98              		.cfi_def_cfa_offset 0
  99 007c 67800000 		jr	ra
 100              		.cfi_endproc
 101              	.LFE3:
 103              		.section	.rodata.str1.8,"aMS",@progbits,1
 104              		.align	3
 105              	.LC0:
 106 0000 3D3D3D3D 		.string	"====== Stopping the kernel ======"
 106      3D3D2053 
 106      746F7070 
 106      696E6720 
 106      74686520 
 107              		.text
 108              		.align	2
 109              		.globl	_Z10stopKernelv
 111              	_Z10stopKernelv:
 112              	.LFB1:
  11:src/my_console.cpp ****     putNewline();
 113              		.loc 1 11 1 is_stmt 1
 114              		.cfi_startproc
 115 0080 130101FE 		addi	sp,sp,-32
 116              		.cfi_def_cfa_offset 32
 117 0084 233C1100 		sd	ra,24(sp)
 118 0088 23388100 		sd	s0,16(sp)
 119              		.cfi_offset 1, -8
 120              		.cfi_offset 8, -16
 121 008c 13040102 		addi	s0,sp,32
 122              		.cfi_def_cfa 8, 0
  12:src/my_console.cpp ****     putString("====== Stopping the kernel ======");
 123              		.loc 1 12 5
  12:src/my_console.cpp ****     putString("====== Stopping the kernel ======");
 124              		.loc 1 12 15 is_stmt 0
 125 0090 97000000 		call	_Z10putNewlinev
 125      E7800000 
 126              	.LVL9:
GAS LISTING /tmp/cc1GXDPM.s 			page 4


  13:src/my_console.cpp **** 
 127              		.loc 1 13 5 is_stmt 1
  13:src/my_console.cpp **** 
 128              		.loc 1 13 14 is_stmt 0
 129 0098 17050000 		lla	a0,.LC0
 129      13050500 
 130 00a0 97000000 		call	_Z9putStringPKc
 130      E7800000 
 131              	.LVL10:
  15:src/my_console.cpp **** 
 132              		.loc 1 15 5 is_stmt 1
  15:src/my_console.cpp **** 
 133              		.loc 1 15 30 is_stmt 0
 134 00a8 97000000 		call	_Z25disableExternalInterruptsv@plt
 134      E7800000 
 135              	.LVL11:
  17:src/my_console.cpp ****     while(true)
 136              		.loc 1 17 5 is_stmt 1
  17:src/my_console.cpp ****     while(true)
 137              		.loc 1 17 18 is_stmt 0
 138 00b0 93071000 		li	a5,1
 139 00b4 2326F4FE 		sw	a5,-20(s0)
 140              	.L9:
  18:src/my_console.cpp ****     {
 141              		.loc 1 18 5 is_stmt 1 discriminator 1
  20:src/my_console.cpp ****     }
 142              		.loc 1 20 9 discriminator 1
  20:src/my_console.cpp ****     }
 143              		.loc 1 20 10 is_stmt 0 discriminator 1
 144 00b8 8327C4FE 		lw	a5,-20(s0)
 145 00bc 9B871700 		addiw	a5,a5,1
 146 00c0 2326F4FE 		sw	a5,-20(s0)
  18:src/my_console.cpp ****     {
 147              		.loc 1 18 5 is_stmt 1 discriminator 1
 148 00c4 6FF05FFF 		j	.L9
 149              		.cfi_endproc
 150              	.LFE1:
 152              		.section	.rodata.str1.8
 153 0022 00000000 		.align	3
 153      0000
 154              	.LC2:
 155 0028 3D3D3D3D 		.string	"===== FATAL PRINTING ERROR IN FUNCTION putU64() Stoping the kernel ===="
 155      3D204641 
 155      54414C20 
 155      5052494E 
 155      54494E47 
 156              		.text
 157              		.align	2
 158              		.globl	_Z6putU64m
 160              	_Z6putU64m:
 161              	.LFB5:
  39:src/my_console.cpp **** 
  40:src/my_console.cpp **** void putBinary(uint64 n)
  41:src/my_console.cpp **** {
  42:src/my_console.cpp ****     assert(false);
  43:src/my_console.cpp ****     if(n < 0)
  44:src/my_console.cpp ****     {
GAS LISTING /tmp/cc1GXDPM.s 			page 5


  45:src/my_console.cpp ****         putString("===== FATAL PRINTING ERROR IN FUNCTION putU64. NEGATIVE VALUE. Stoping the kerne
  46:src/my_console.cpp ****         putNewline();
  47:src/my_console.cpp ****         stopKernel();
  48:src/my_console.cpp ****     }
  49:src/my_console.cpp ****     else if(n == 0 || n == 1)
  50:src/my_console.cpp ****     {
  51:src/my_console.cpp ****         putc('0' + n);
  52:src/my_console.cpp ****     }
  53:src/my_console.cpp ****     else
  54:src/my_console.cpp ****     {
  55:src/my_console.cpp ****        uint64 initial = 1 << 30;
  56:src/my_console.cpp ****        putString("AAA");
  57:src/my_console.cpp **** //       putInt(initial);
  58:src/my_console.cpp ****        putNewline();
  59:src/my_console.cpp ****        putInt(sizeof(uint64));
  60:src/my_console.cpp **** 
  61:src/my_console.cpp ****         bool alreadyWritten = false;
  62:src/my_console.cpp ****         while(initial > 0)
  63:src/my_console.cpp ****         {
  64:src/my_console.cpp ****             bool digit = n / initial;
  65:src/my_console.cpp ****             if (digit > 0 || alreadyWritten)
  66:src/my_console.cpp ****             {
  67:src/my_console.cpp ****                 alreadyWritten = true;
  68:src/my_console.cpp ****                 putc(digit + '0');
  69:src/my_console.cpp ****                 n = n % initial;
  70:src/my_console.cpp ****             }
  71:src/my_console.cpp ****             initial = ((initial) >> 1);
  72:src/my_console.cpp ****         }
  73:src/my_console.cpp ****     }
  74:src/my_console.cpp **** }
  75:src/my_console.cpp **** 
  76:src/my_console.cpp **** void putU64(uint64 n)
  77:src/my_console.cpp **** {
 162              		.loc 1 77 1
 163              		.cfi_startproc
 164              	.LVL12:
 165 00c8 130101FE 		addi	sp,sp,-32
 166              		.cfi_def_cfa_offset 32
 167 00cc 233C1100 		sd	ra,24(sp)
 168 00d0 23388100 		sd	s0,16(sp)
 169 00d4 23349100 		sd	s1,8(sp)
 170 00d8 23302101 		sd	s2,0(sp)
 171              		.cfi_offset 1, -8
 172              		.cfi_offset 8, -16
 173              		.cfi_offset 9, -24
 174              		.cfi_offset 18, -32
 175 00dc 13040102 		addi	s0,sp,32
 176              		.cfi_def_cfa 8, 0
 177 00e0 13090500 		mv	s2,a0
  78:src/my_console.cpp ****     if(n >= 0 and n <= 9)
 178              		.loc 1 78 5
 179              	.LBB2:
 180 00e4 93079000 		li	a5,9
 181 00e8 63F0A702 		bleu	a0,a5,.L19
 182              	.LBE2:
  79:src/my_console.cpp ****         putc('0' + n);
  80:src/my_console.cpp ****     else if (n < 0)
GAS LISTING /tmp/cc1GXDPM.s 			page 6


 183              		.loc 1 80 10
 184              	.LBB7:
 185              	.LBB3:
  81:src/my_console.cpp ****     {
  82:src/my_console.cpp ****         putString("===== FATAL PRINTING ERROR IN FUNCTION putU64. NEGATIVE VALUE. Stoping the kerne
  83:src/my_console.cpp ****         putNewline();
  84:src/my_console.cpp ****         stopKernel();
  85:src/my_console.cpp ****     }
  86:src/my_console.cpp ****     else {
  87:src/my_console.cpp ****         uint64 initial = 1000000000000000000;
 186              		.loc 1 87 9
 187              	.LVL13:
  88:src/my_console.cpp **** 
  89:src/my_console.cpp ****         if (n > initial || n <= 9)
 188              		.loc 1 89 9
 189 00ec 97070000 		ld	a5,.LC1
 189      83B70700 
 190 00f4 63EEA702 		bgtu	a0,a5,.L20
  90:src/my_console.cpp ****         {
  91:src/my_console.cpp ****             putString("===== FATAL PRINTING ERROR IN FUNCTION putU64() Stoping the kernel ====");
  92:src/my_console.cpp ****             putNewline();
  93:src/my_console.cpp ****             stopKernel();
  94:src/my_console.cpp ****         }
  95:src/my_console.cpp **** 
  96:src/my_console.cpp ****         bool alreadyWritten = false;
 191              		.loc 1 96 14 is_stmt 0
 192 00f8 13070000 		li	a4,0
  87:src/my_console.cpp **** 
 193              		.loc 1 87 16
 194 00fc 97040000 		ld	s1,.LC1
 194      83B40400 
 195 0104 6F00C006 		j	.L14
 196              	.LVL14:
 197              	.L19:
 198              	.LBE3:
  79:src/my_console.cpp ****     else if (n < 0)
 199              		.loc 1 79 9 is_stmt 1
  79:src/my_console.cpp ****     else if (n < 0)
 200              		.loc 1 79 13 is_stmt 0
 201 0108 1B050503 		addiw	a0,a0,48
 202              	.LVL15:
 203 010c 1375F50F 		andi	a0,a0,0xff
 204 0110 97000000 		call	_Z4putcc@plt
 204      E7800000 
 205              	.LVL16:
 206              	.L11:
 207              	.LBE7:
  97:src/my_console.cpp ****         while(initial > 0)
  98:src/my_console.cpp ****         {
  99:src/my_console.cpp ****             int digit = n / initial;
 100:src/my_console.cpp ****             if (digit > 0 || alreadyWritten)
 101:src/my_console.cpp ****             {
 102:src/my_console.cpp ****                 alreadyWritten = true;
 103:src/my_console.cpp ****                 putc(digit + '0');
 104:src/my_console.cpp ****                 n = n % initial;
 105:src/my_console.cpp ****             }
 106:src/my_console.cpp ****             initial /= 10;
GAS LISTING /tmp/cc1GXDPM.s 			page 7


 107:src/my_console.cpp ****         }
 108:src/my_console.cpp ****     }
 109:src/my_console.cpp **** }
 208              		.loc 1 109 1
 209 0118 83308101 		ld	ra,24(sp)
 210              		.cfi_remember_state
 211              		.cfi_restore 1
 212 011c 03340101 		ld	s0,16(sp)
 213              		.cfi_restore 8
 214              		.cfi_def_cfa 2, 32
 215 0120 83348100 		ld	s1,8(sp)
 216              		.cfi_restore 9
 217 0124 03390100 		ld	s2,0(sp)
 218              		.cfi_restore 18
 219              	.LVL17:
 220 0128 13010102 		addi	sp,sp,32
 221              		.cfi_def_cfa_offset 0
 222 012c 67800000 		jr	ra
 223              	.LVL18:
 224              	.L20:
 225              		.cfi_restore_state
 226              	.LBB8:
 227              	.LBB6:
  91:src/my_console.cpp ****             putNewline();
 228              		.loc 1 91 13 is_stmt 1
  91:src/my_console.cpp ****             putNewline();
 229              		.loc 1 91 22 is_stmt 0
 230 0130 17050000 		lla	a0,.LC2
 230      13050500 
 231              	.LVL19:
 232 0138 97000000 		call	_Z9putStringPKc
 232      E7800000 
 233              	.LVL20:
  92:src/my_console.cpp ****             stopKernel();
 234              		.loc 1 92 13 is_stmt 1
  92:src/my_console.cpp ****             stopKernel();
 235              		.loc 1 92 23 is_stmt 0
 236 0140 97000000 		call	_Z10putNewlinev
 236      E7800000 
 237              	.LVL21:
  93:src/my_console.cpp ****         }
 238              		.loc 1 93 13 is_stmt 1
  93:src/my_console.cpp ****         }
 239              		.loc 1 93 23 is_stmt 0
 240 0148 97000000 		call	_Z10stopKernelv
 240      E7800000 
 241              	.LVL22:
 242              	.L15:
 243              	.LBB4:
 102:src/my_console.cpp ****                 putc(digit + '0');
 244              		.loc 1 102 17 is_stmt 1
 103:src/my_console.cpp ****                 n = n % initial;
 245              		.loc 1 103 17
 103:src/my_console.cpp ****                 n = n % initial;
 246              		.loc 1 103 21 is_stmt 0
 247 0150 1B050503 		addiw	a0,a0,48
 248 0154 1375F50F 		andi	a0,a0,0xff
GAS LISTING /tmp/cc1GXDPM.s 			page 8


 249 0158 97000000 		call	_Z4putcc@plt
 249      E7800000 
 250              	.LVL23:
 104:src/my_console.cpp ****             }
 251              		.loc 1 104 17 is_stmt 1
 104:src/my_console.cpp ****             }
 252              		.loc 1 104 19 is_stmt 0
 253 0160 33799902 		remu	s2,s2,s1
 254              	.LVL24:
 102:src/my_console.cpp ****                 putc(digit + '0');
 255              		.loc 1 102 32
 256 0164 13071000 		li	a4,1
 257              	.LVL25:
 258              	.L16:
 106:src/my_console.cpp ****         }
 259              		.loc 1 106 13 is_stmt 1
 106:src/my_console.cpp ****         }
 260              		.loc 1 106 21 is_stmt 0
 261 0168 9307A000 		li	a5,10
 262 016c B3D4F402 		divu	s1,s1,a5
 263              	.LVL26:
 264              	.L14:
 265              	.LBE4:
  97:src/my_console.cpp ****         {
 266              		.loc 1 97 9 is_stmt 1
  97:src/my_console.cpp ****         {
 267              		.loc 1 97 23
 268 0170 E38404FA 		beqz	s1,.L11
 269              	.LBB5:
  99:src/my_console.cpp ****             if (digit > 0 || alreadyWritten)
 270              		.loc 1 99 13
  99:src/my_console.cpp ****             if (digit > 0 || alreadyWritten)
 271              		.loc 1 99 27 is_stmt 0
 272 0174 33559902 		divu	a0,s2,s1
  99:src/my_console.cpp ****             if (digit > 0 || alreadyWritten)
 273              		.loc 1 99 17
 274 0178 9B070500 		sext.w	a5,a0
 275              	.LVL27:
 100:src/my_console.cpp ****             {
 276              		.loc 1 100 13 is_stmt 1
 277 017c E34AF0FC 		bgtz	a5,.L15
 100:src/my_console.cpp ****             {
 278              		.loc 1 100 27 is_stmt 0 discriminator 1
 279 0180 E30407FE 		beqz	a4,.L16
 280 0184 6FF0DFFC 		j	.L15
 281              	.LBE5:
 282              	.LBE6:
 283              	.LBE8:
 284              		.cfi_endproc
 285              	.LFE5:
 287              		.section	.rodata.str1.8
 288              		.align	3
 289              	.LC3:
 290 0070 3D3D3D3D 		.string	"===== FATAL PRINTING ERROR IN FUNCTION putInt(int). Stoping the kernel ===="
 290      3D204641 
 290      54414C20 
 290      5052494E 
GAS LISTING /tmp/cc1GXDPM.s 			page 9


 290      54494E47 
 291              		.text
 292              		.align	2
 293              		.globl	_Z6putInti
 295              	_Z6putInti:
 296              	.LFB6:
 110:src/my_console.cpp **** 
 111:src/my_console.cpp **** void putInt(int n)
 112:src/my_console.cpp **** {
 297              		.loc 1 112 1 is_stmt 1
 298              		.cfi_startproc
 299              	.LVL28:
 300 0188 130101FE 		addi	sp,sp,-32
 301              		.cfi_def_cfa_offset 32
 302 018c 233C1100 		sd	ra,24(sp)
 303 0190 23388100 		sd	s0,16(sp)
 304 0194 23349100 		sd	s1,8(sp)
 305 0198 23302101 		sd	s2,0(sp)
 306              		.cfi_offset 1, -8
 307              		.cfi_offset 8, -16
 308              		.cfi_offset 9, -24
 309              		.cfi_offset 18, -32
 310 019c 13040102 		addi	s0,sp,32
 311              		.cfi_def_cfa 8, 0
 312 01a0 13090500 		mv	s2,a0
 113:src/my_console.cpp ****     if(n >= 0 and n <= 9)
 313              		.loc 1 113 5
 314              	.LBB9:
 315              		.loc 1 113 15 is_stmt 0
 316 01a4 1B070500 		sext.w	a4,a0
 317              		.loc 1 113 5
 318 01a8 93079000 		li	a5,9
 319 01ac 63F6E702 		bleu	a4,a5,.L31
 320              	.LBE9:
 114:src/my_console.cpp ****         putc('0' + n);
 115:src/my_console.cpp ****     else if (n < 0)
 321              		.loc 1 115 10 is_stmt 1
 322              	.LBB16:
 323              	.LBB10:
 324 01b0 63480504 		bltz	a0,.L32
 325              	.LBB11:
 116:src/my_console.cpp ****     {
 117:src/my_console.cpp ****         putc('-');
 118:src/my_console.cpp ****         putInt(-n);
 119:src/my_console.cpp ****     }
 120:src/my_console.cpp ****     else {
 121:src/my_console.cpp ****         int initial = 1000000000;
 326              		.loc 1 121 9
 327              	.LVL29:
 122:src/my_console.cpp **** 
 123:src/my_console.cpp ****         if (n > initial || n <= 9)
 328              		.loc 1 123 9
 329 01b4 B7D79A3B 		li	a5,1000001536
 330 01b8 938707A0 		addi	a5,a5,-1536
 331 01bc 63C0A706 		bgt	a0,a5,.L25
 332              		.loc 1 123 25 is_stmt 0 discriminator 1
 333 01c0 93079000 		li	a5,9
GAS LISTING /tmp/cc1GXDPM.s 			page 10


 334 01c4 63DCA704 		ble	a0,a5,.L25
 124:src/my_console.cpp ****         {
 125:src/my_console.cpp ****             putString("===== FATAL PRINTING ERROR IN FUNCTION putInt(int). Stoping the kernel ===="
 126:src/my_console.cpp ****             putNewline();
 127:src/my_console.cpp ****             stopKernel();
 128:src/my_console.cpp ****         }
 129:src/my_console.cpp **** 
 130:src/my_console.cpp ****         bool alreadyWritten = false;
 335              		.loc 1 130 14
 336 01c8 93060000 		li	a3,0
 121:src/my_console.cpp **** 
 337              		.loc 1 121 13
 338 01cc B7D49A3B 		li	s1,1000001536
 339 01d0 938404A0 		addi	s1,s1,-1536
 340 01d4 6F008008 		j	.L26
 341              	.LVL30:
 342              	.L31:
 343              	.LBE11:
 344              	.LBE10:
 114:src/my_console.cpp ****     else if (n < 0)
 345              		.loc 1 114 9 is_stmt 1
 114:src/my_console.cpp ****     else if (n < 0)
 346              		.loc 1 114 13 is_stmt 0
 347 01d8 1B050503 		addiw	a0,a0,48
 348              	.LVL31:
 349 01dc 1375F50F 		andi	a0,a0,0xff
 350              	.LVL32:
 351 01e0 97000000 		call	_Z4putcc@plt
 351      E7800000 
 352              	.LVL33:
 353              	.L21:
 354              	.LBE16:
 131:src/my_console.cpp ****         while(initial > 0)
 132:src/my_console.cpp ****         {
 133:src/my_console.cpp ****             int digit = n / initial;
 134:src/my_console.cpp ****             if (digit > 0 || alreadyWritten)
 135:src/my_console.cpp ****             {
 136:src/my_console.cpp ****                 alreadyWritten = true;
 137:src/my_console.cpp ****                 putc(digit + '0');
 138:src/my_console.cpp ****                 n = n % initial;
 139:src/my_console.cpp ****             }
 140:src/my_console.cpp ****             initial /= 10;
 141:src/my_console.cpp ****         }
 142:src/my_console.cpp ****     }
 143:src/my_console.cpp **** 
 144:src/my_console.cpp **** }
 355              		.loc 1 144 1
 356 01e8 83308101 		ld	ra,24(sp)
 357              		.cfi_remember_state
 358              		.cfi_restore 1
 359 01ec 03340101 		ld	s0,16(sp)
 360              		.cfi_restore 8
 361              		.cfi_def_cfa 2, 32
 362 01f0 83348100 		ld	s1,8(sp)
 363              		.cfi_restore 9
 364 01f4 03390100 		ld	s2,0(sp)
 365              		.cfi_restore 18
GAS LISTING /tmp/cc1GXDPM.s 			page 11


 366 01f8 13010102 		addi	sp,sp,32
 367              		.cfi_def_cfa_offset 0
 368 01fc 67800000 		jr	ra
 369              	.LVL34:
 370              	.L32:
 371              		.cfi_restore_state
 372              	.LBB17:
 373              	.LBB15:
 117:src/my_console.cpp ****         putInt(-n);
 374              		.loc 1 117 9 is_stmt 1
 117:src/my_console.cpp ****         putInt(-n);
 375              		.loc 1 117 13 is_stmt 0
 376 0200 1305D002 		li	a0,45
 377              	.LVL35:
 378 0204 97000000 		call	_Z4putcc@plt
 378      E7800000 
 379              	.LVL36:
 118:src/my_console.cpp ****     }
 380              		.loc 1 118 9 is_stmt 1
 118:src/my_console.cpp ****     }
 381              		.loc 1 118 15 is_stmt 0
 382 020c 3B052041 		negw	a0,s2
 383 0210 97000000 		call	_Z6putInti
 383      E7800000 
 384              	.LVL37:
 385 0218 6FF01FFD 		j	.L21
 386              	.LVL38:
 387              	.L25:
 388              	.LBB14:
 125:src/my_console.cpp ****             putNewline();
 389              		.loc 1 125 13 is_stmt 1
 125:src/my_console.cpp ****             putNewline();
 390              		.loc 1 125 22 is_stmt 0
 391 021c 17050000 		lla	a0,.LC3
 391      13050500 
 392              	.LVL39:
 393 0224 97000000 		call	_Z9putStringPKc
 393      E7800000 
 394              	.LVL40:
 126:src/my_console.cpp ****             stopKernel();
 395              		.loc 1 126 13 is_stmt 1
 126:src/my_console.cpp ****             stopKernel();
 396              		.loc 1 126 23 is_stmt 0
 397 022c 97000000 		call	_Z10putNewlinev
 397      E7800000 
 398              	.LVL41:
 127:src/my_console.cpp ****         }
 399              		.loc 1 127 13 is_stmt 1
 127:src/my_console.cpp ****         }
 400              		.loc 1 127 23 is_stmt 0
 401 0234 97000000 		call	_Z10stopKernelv
 401      E7800000 
 402              	.LVL42:
 403              	.L27:
 404              	.LBB12:
 136:src/my_console.cpp ****                 putc(digit + '0');
 405              		.loc 1 136 17 is_stmt 1
GAS LISTING /tmp/cc1GXDPM.s 			page 12


 137:src/my_console.cpp ****                 n = n % initial;
 406              		.loc 1 137 17
 137:src/my_console.cpp ****                 n = n % initial;
 407              		.loc 1 137 21 is_stmt 0
 408 023c 9B870703 		addiw	a5,a5,48
 409              	.LVL43:
 410 0240 13F5F70F 		andi	a0,a5,0xff
 411 0244 97000000 		call	_Z4putcc@plt
 411      E7800000 
 412              	.LVL44:
 138:src/my_console.cpp ****             }
 413              		.loc 1 138 17 is_stmt 1
 138:src/my_console.cpp ****             }
 414              		.loc 1 138 19 is_stmt 0
 415 024c 3B699902 		remw	s2,s2,s1
 416              	.LVL45:
 136:src/my_console.cpp ****                 putc(digit + '0');
 417              		.loc 1 136 32
 418 0250 93061000 		li	a3,1
 419              	.LVL46:
 420              	.L28:
 140:src/my_console.cpp ****         }
 421              		.loc 1 140 13 is_stmt 1
 140:src/my_console.cpp ****         }
 422              		.loc 1 140 21 is_stmt 0
 423 0254 9307A000 		li	a5,10
 424 0258 BBC4F402 		divw	s1,s1,a5
 425              	.LVL47:
 426              	.L26:
 427              	.LBE12:
 131:src/my_console.cpp ****         {
 428              		.loc 1 131 9 is_stmt 1
 131:src/my_console.cpp ****         {
 429              		.loc 1 131 23
 430 025c E35690F8 		blez	s1,.L21
 431              	.LBB13:
 133:src/my_console.cpp ****             if (digit > 0 || alreadyWritten)
 432              		.loc 1 133 13
 133:src/my_console.cpp ****             if (digit > 0 || alreadyWritten)
 433              		.loc 1 133 17 is_stmt 0
 434 0260 BB479902 		divw	a5,s2,s1
 435 0264 1B870700 		sext.w	a4,a5
 436              	.LVL48:
 134:src/my_console.cpp ****             {
 437              		.loc 1 134 13 is_stmt 1
 438 0268 E34AE0FC 		bgtz	a4,.L27
 134:src/my_console.cpp ****             {
 439              		.loc 1 134 27 is_stmt 0 discriminator 1
 440 026c E38406FE 		beqz	a3,.L28
 441 0270 6FF0DFFC 		j	.L27
 442              	.LBE13:
 443              	.LBE14:
 444              	.LBE15:
 445              	.LBE17:
 446              		.cfi_endproc
 447              	.LFE6:
 449              		.section	.rodata.str1.8
GAS LISTING /tmp/cc1GXDPM.s 			page 13


 450 00bc 00000000 		.align	3
 451              	.LC4:
 452 00c0 3D3D3D3D 		.string	"===================== ASSERT file: "
 452      3D3D3D3D 
 452      3D3D3D3D 
 452      3D3D3D3D 
 452      3D3D3D3D 
 453 00e4 00000000 		.align	3
 454              	.LC5:
 455 00e8 7372632F 		.string	"src/my_console.cpp"
 455      6D795F63 
 455      6F6E736F 
 455      6C652E63 
 455      707000
 456 00fb 00000000 		.align	3
 456      00
 457              	.LC6:
 458 0100 20202020 		.string	"    line: "
 458      6C696E65 
 458      3A2000
 459 010b 00000000 		.align	3
 459      00
 460              	.LC7:
 461 0110 2020203D 		.string	"   ==========================="
 461      3D3D3D3D 
 461      3D3D3D3D 
 461      3D3D3D3D 
 461      3D3D3D3D 
 462              		.text
 463              		.align	2
 464              		.globl	_Z9putBinarym
 466              	_Z9putBinarym:
 467              	.LFB4:
  41:src/my_console.cpp ****     assert(false);
 468              		.loc 1 41 1 is_stmt 1
 469              		.cfi_startproc
 470              	.LVL49:
 471 0274 130101FF 		addi	sp,sp,-16
 472              		.cfi_def_cfa_offset 16
 473 0278 23341100 		sd	ra,8(sp)
 474 027c 23308100 		sd	s0,0(sp)
 475              		.cfi_offset 1, -8
 476              		.cfi_offset 8, -16
 477 0280 13040101 		addi	s0,sp,16
 478              		.cfi_def_cfa 8, 0
  42:src/my_console.cpp ****     if(n < 0)
 479              		.loc 1 42 5
 480              	.LVL50:
 481              	.LBB23:
 482              	.LBB24:
 483              		.file 2 "src/../h/my_console.h"
   1:src/../h/my_console.h **** #pragma once
   2:src/../h/my_console.h **** 
   3:src/../h/my_console.h **** #include "../h/risc.h"
   4:src/../h/my_console.h **** 
   5:src/../h/my_console.h **** #include "../lib/hw.h"
   6:src/../h/my_console.h **** 
GAS LISTING /tmp/cc1GXDPM.s 			page 14


   7:src/../h/my_console.h **** #define __DEBUG_MODE
   8:src/../h/my_console.h **** 
   9:src/../h/my_console.h **** 
  10:src/../h/my_console.h **** void putString(const char* s);
  11:src/../h/my_console.h **** void putInt(int n);
  12:src/../h/my_console.h **** void putNewline();
  13:src/../h/my_console.h **** void putU64(uint64 n);
  14:src/../h/my_console.h **** void putBinary(uint64 n);
  15:src/../h/my_console.h **** 
  16:src/../h/my_console.h **** [[noreturn]] void stopKernel();
  17:src/../h/my_console.h **** 
  18:src/../h/my_console.h **** inline void _assert(bool valid, const char* file, int line) // MUST be inline
  19:src/../h/my_console.h **** {
  20:src/../h/my_console.h ****     if(valid)
 484              		.loc 2 20 5
  21:src/../h/my_console.h ****         return;
  22:src/../h/my_console.h **** 
  23:src/../h/my_console.h ****     putString("===================== ASSERT file: ");
 485              		.loc 2 23 5
 486              		.loc 2 23 14 is_stmt 0
 487 0284 17050000 		lla	a0,.LC4
 487      13050500 
 488              	.LVL51:
 489 028c 97000000 		call	_Z9putStringPKc
 489      E7800000 
 490              	.LVL52:
  24:src/../h/my_console.h ****     putString(file);
 491              		.loc 2 24 5 is_stmt 1
 492              		.loc 2 24 14 is_stmt 0
 493 0294 17050000 		lla	a0,.LC5
 493      13050500 
 494 029c 97000000 		call	_Z9putStringPKc
 494      E7800000 
 495              	.LVL53:
  25:src/../h/my_console.h ****     putString("    line: ");
 496              		.loc 2 25 5 is_stmt 1
 497              		.loc 2 25 14 is_stmt 0
 498 02a4 17050000 		lla	a0,.LC6
 498      13050500 
 499 02ac 97000000 		call	_Z9putStringPKc
 499      E7800000 
 500              	.LVL54:
  26:src/../h/my_console.h ****     putInt(line);
 501              		.loc 2 26 5 is_stmt 1
 502              		.loc 2 26 11 is_stmt 0
 503 02b4 1305A002 		li	a0,42
 504 02b8 97000000 		call	_Z6putInti
 504      E7800000 
 505              	.LVL55:
  27:src/../h/my_console.h ****     putString("   ===========================");
 506              		.loc 2 27 5 is_stmt 1
 507              		.loc 2 27 14 is_stmt 0
 508 02c0 17050000 		lla	a0,.LC7
 508      13050500 
 509 02c8 97000000 		call	_Z9putStringPKc
 509      E7800000 
 510              	.LVL56:
GAS LISTING /tmp/cc1GXDPM.s 			page 15


  28:src/../h/my_console.h ****     putNewline();
 511              		.loc 2 28 5 is_stmt 1
 512              		.loc 2 28 15 is_stmt 0
 513 02d0 97000000 		call	_Z10putNewlinev
 513      E7800000 
 514              	.LVL57:
  29:src/../h/my_console.h **** 
  30:src/../h/my_console.h ****     stopKernel();
 515              		.loc 2 30 5 is_stmt 1
 516              		.loc 2 30 15 is_stmt 0
 517 02d8 97000000 		call	_Z10stopKernelv
 517      E7800000 
 518              	.LVL58:
 519              	.LBE24:
 520              	.LBE23:
 521              		.cfi_endproc
 522              	.LFE4:
 524              		.section	.rodata.cst8,"aM",@progbits,8
 525              		.align	3
 526              	.LC1:
 527 0000 000064A7 		.dword	1000000000000000000
 527      B3B6E00D 
 528              		.text
 529              	.Letext0:
 530              		.file 3 "src/../h/../lib/hw.h"
 531              		.file 4 "src/../h/c_api.h"
 532              		.file 5 "src/../h/../h/risc.h"
GAS LISTING /tmp/cc1GXDPM.s 			page 16


DEFINED SYMBOLS
                            *ABS*:0000000000000000 my_console.cpp
     /tmp/cc1GXDPM.s:9      .text:0000000000000000 _Z10putNewlinev
     /tmp/cc1GXDPM.s:13     .text:0000000000000000 .L0 
     /tmp/cc1GXDPM.s:14     .text:0000000000000000 .L0 
     /tmp/cc1GXDPM.s:15     .text:0000000000000004 .L0 
     /tmp/cc1GXDPM.s:18     .text:000000000000000c .L0 
     /tmp/cc1GXDPM.s:19     .text:000000000000000c .L0 
     /tmp/cc1GXDPM.s:21     .text:0000000000000010 .L0 
     /tmp/cc1GXDPM.s:23     .text:0000000000000010 .L0 
     /tmp/cc1GXDPM.s:24     .text:0000000000000010 .L0 
     /tmp/cc1GXDPM.s:28     .text:000000000000001c .L0 
     /tmp/cc1GXDPM.s:29     .text:0000000000000020 .L0 
     /tmp/cc1GXDPM.s:31     .text:0000000000000024 .L0 
     /tmp/cc1GXDPM.s:32     .text:0000000000000024 .L0 
     /tmp/cc1GXDPM.s:34     .text:0000000000000028 .L0 
     /tmp/cc1GXDPM.s:36     .text:000000000000002c .L0 
     /tmp/cc1GXDPM.s:42     .text:000000000000002c _Z9putStringPKc
     /tmp/cc1GXDPM.s:45     .text:000000000000002c .L0 
     /tmp/cc1GXDPM.s:47     .text:000000000000002c .L0 
     /tmp/cc1GXDPM.s:48     .text:0000000000000030 .L0 
     /tmp/cc1GXDPM.s:53     .text:0000000000000040 .L0 
     /tmp/cc1GXDPM.s:54     .text:0000000000000040 .L0 
     /tmp/cc1GXDPM.s:55     .text:0000000000000040 .L0 
     /tmp/cc1GXDPM.s:56     .text:0000000000000040 .L0 
     /tmp/cc1GXDPM.s:58     .text:0000000000000044 .L0 
     /tmp/cc1GXDPM.s:62     .text:0000000000000048 .L0 
     /tmp/cc1GXDPM.s:63     .text:0000000000000048 .L0 
     /tmp/cc1GXDPM.s:67     .text:000000000000004c .L0 
     /tmp/cc1GXDPM.s:68     .text:000000000000004c .L0 
     /tmp/cc1GXDPM.s:69     .text:000000000000004c .L0 
     /tmp/cc1GXDPM.s:72     .text:0000000000000054 .L0 
     /tmp/cc1GXDPM.s:74     .text:0000000000000058 .L0 
     /tmp/cc1GXDPM.s:75     .text:0000000000000058 .L0 
     /tmp/cc1GXDPM.s:78     .text:000000000000005c .L0 
     /tmp/cc1GXDPM.s:81     .text:0000000000000064 .L0 
     /tmp/cc1GXDPM.s:82     .text:0000000000000064 .L0 
     /tmp/cc1GXDPM.s:86     .text:0000000000000068 .L0 
     /tmp/cc1GXDPM.s:87     .text:000000000000006c .L0 
     /tmp/cc1GXDPM.s:89     .text:0000000000000070 .L0 
     /tmp/cc1GXDPM.s:90     .text:0000000000000070 .L0 
     /tmp/cc1GXDPM.s:92     .text:0000000000000074 .L0 
     /tmp/cc1GXDPM.s:95     .text:0000000000000078 .L0 
     /tmp/cc1GXDPM.s:98     .text:000000000000007c .L0 
     /tmp/cc1GXDPM.s:100    .text:0000000000000080 .L0 
     /tmp/cc1GXDPM.s:111    .text:0000000000000080 _Z10stopKernelv
     /tmp/cc1GXDPM.s:114    .text:0000000000000080 .L0 
     /tmp/cc1GXDPM.s:115    .text:0000000000000080 .L0 
     /tmp/cc1GXDPM.s:116    .text:0000000000000084 .L0 
     /tmp/cc1GXDPM.s:119    .text:000000000000008c .L0 
     /tmp/cc1GXDPM.s:120    .text:000000000000008c .L0 
     /tmp/cc1GXDPM.s:122    .text:0000000000000090 .L0 
     /tmp/cc1GXDPM.s:124    .text:0000000000000090 .L0 
     /tmp/cc1GXDPM.s:125    .text:0000000000000090 .L0 
     /tmp/cc1GXDPM.s:128    .text:0000000000000098 .L0 
     /tmp/cc1GXDPM.s:129    .text:0000000000000098 .L0 
     /tmp/cc1GXDPM.s:133    .text:00000000000000a8 .L0 
GAS LISTING /tmp/cc1GXDPM.s 			page 17


     /tmp/cc1GXDPM.s:134    .text:00000000000000a8 .L0 
     /tmp/cc1GXDPM.s:137    .text:00000000000000b0 .L0 
     /tmp/cc1GXDPM.s:138    .text:00000000000000b0 .L0 
     /tmp/cc1GXDPM.s:142    .text:00000000000000b8 .L0 
     /tmp/cc1GXDPM.s:143    .text:00000000000000b8 .L0 
     /tmp/cc1GXDPM.s:144    .text:00000000000000b8 .L0 
     /tmp/cc1GXDPM.s:148    .text:00000000000000c4 .L0 
     /tmp/cc1GXDPM.s:149    .text:00000000000000c8 .L0 
     /tmp/cc1GXDPM.s:160    .text:00000000000000c8 _Z6putU64m
     /tmp/cc1GXDPM.s:163    .text:00000000000000c8 .L0 
     /tmp/cc1GXDPM.s:165    .text:00000000000000c8 .L0 
     /tmp/cc1GXDPM.s:166    .text:00000000000000cc .L0 
     /tmp/cc1GXDPM.s:171    .text:00000000000000dc .L0 
     /tmp/cc1GXDPM.s:172    .text:00000000000000dc .L0 
     /tmp/cc1GXDPM.s:173    .text:00000000000000dc .L0 
     /tmp/cc1GXDPM.s:174    .text:00000000000000dc .L0 
     /tmp/cc1GXDPM.s:176    .text:00000000000000e0 .L0 
     /tmp/cc1GXDPM.s:180    .text:00000000000000e4 .L0 
     /tmp/cc1GXDPM.s:186    .text:00000000000000ec .L0 
     /tmp/cc1GXDPM.s:188    .text:00000000000000ec .L0 
     /tmp/cc1GXDPM.s:189    .text:00000000000000ec .L0 
     /tmp/cc1GXDPM.s:192    .text:00000000000000f8 .L0 
     /tmp/cc1GXDPM.s:194    .text:00000000000000fc .L0 
     /tmp/cc1GXDPM.s:200    .text:0000000000000108 .L0 
     /tmp/cc1GXDPM.s:201    .text:0000000000000108 .L0 
     /tmp/cc1GXDPM.s:209    .text:0000000000000118 .L0 
     /tmp/cc1GXDPM.s:210    .text:000000000000011c .L0 
     /tmp/cc1GXDPM.s:211    .text:000000000000011c .L0 
     /tmp/cc1GXDPM.s:213    .text:0000000000000120 .L0 
     /tmp/cc1GXDPM.s:214    .text:0000000000000120 .L0 
     /tmp/cc1GXDPM.s:216    .text:0000000000000124 .L0 
     /tmp/cc1GXDPM.s:218    .text:0000000000000128 .L0 
     /tmp/cc1GXDPM.s:221    .text:000000000000012c .L0 
     /tmp/cc1GXDPM.s:225    .text:0000000000000130 .L0 
     /tmp/cc1GXDPM.s:229    .text:0000000000000130 .L0 
     /tmp/cc1GXDPM.s:230    .text:0000000000000130 .L0 
     /tmp/cc1GXDPM.s:235    .text:0000000000000140 .L0 
     /tmp/cc1GXDPM.s:236    .text:0000000000000140 .L0 
     /tmp/cc1GXDPM.s:239    .text:0000000000000148 .L0 
     /tmp/cc1GXDPM.s:240    .text:0000000000000148 .L0 
     /tmp/cc1GXDPM.s:245    .text:0000000000000150 .L0 
     /tmp/cc1GXDPM.s:246    .text:0000000000000150 .L0 
     /tmp/cc1GXDPM.s:247    .text:0000000000000150 .L0 
     /tmp/cc1GXDPM.s:252    .text:0000000000000160 .L0 
     /tmp/cc1GXDPM.s:253    .text:0000000000000160 .L0 
     /tmp/cc1GXDPM.s:256    .text:0000000000000164 .L0 
     /tmp/cc1GXDPM.s:260    .text:0000000000000168 .L0 
     /tmp/cc1GXDPM.s:261    .text:0000000000000168 .L0 
     /tmp/cc1GXDPM.s:267    .text:0000000000000170 .L0 
     /tmp/cc1GXDPM.s:268    .text:0000000000000170 .L0 
     /tmp/cc1GXDPM.s:271    .text:0000000000000174 .L0 
     /tmp/cc1GXDPM.s:272    .text:0000000000000174 .L0 
     /tmp/cc1GXDPM.s:274    .text:0000000000000178 .L0 
     /tmp/cc1GXDPM.s:277    .text:000000000000017c .L0 
     /tmp/cc1GXDPM.s:279    .text:0000000000000180 .L0 
     /tmp/cc1GXDPM.s:284    .text:0000000000000188 .L0 
     /tmp/cc1GXDPM.s:295    .text:0000000000000188 _Z6putInti
GAS LISTING /tmp/cc1GXDPM.s 			page 18


     /tmp/cc1GXDPM.s:298    .text:0000000000000188 .L0 
     /tmp/cc1GXDPM.s:300    .text:0000000000000188 .L0 
     /tmp/cc1GXDPM.s:301    .text:000000000000018c .L0 
     /tmp/cc1GXDPM.s:306    .text:000000000000019c .L0 
     /tmp/cc1GXDPM.s:307    .text:000000000000019c .L0 
     /tmp/cc1GXDPM.s:308    .text:000000000000019c .L0 
     /tmp/cc1GXDPM.s:309    .text:000000000000019c .L0 
     /tmp/cc1GXDPM.s:311    .text:00000000000001a0 .L0 
     /tmp/cc1GXDPM.s:315    .text:00000000000001a4 .L0 
     /tmp/cc1GXDPM.s:316    .text:00000000000001a4 .L0 
     /tmp/cc1GXDPM.s:318    .text:00000000000001a8 .L0 
     /tmp/cc1GXDPM.s:324    .text:00000000000001b0 .L0 
     /tmp/cc1GXDPM.s:328    .text:00000000000001b4 .L0 
     /tmp/cc1GXDPM.s:329    .text:00000000000001b4 .L0 
     /tmp/cc1GXDPM.s:333    .text:00000000000001c0 .L0 
     /tmp/cc1GXDPM.s:336    .text:00000000000001c8 .L0 
     /tmp/cc1GXDPM.s:338    .text:00000000000001cc .L0 
     /tmp/cc1GXDPM.s:346    .text:00000000000001d8 .L0 
     /tmp/cc1GXDPM.s:347    .text:00000000000001d8 .L0 
     /tmp/cc1GXDPM.s:356    .text:00000000000001e8 .L0 
     /tmp/cc1GXDPM.s:357    .text:00000000000001ec .L0 
     /tmp/cc1GXDPM.s:358    .text:00000000000001ec .L0 
     /tmp/cc1GXDPM.s:360    .text:00000000000001f0 .L0 
     /tmp/cc1GXDPM.s:361    .text:00000000000001f0 .L0 
     /tmp/cc1GXDPM.s:363    .text:00000000000001f4 .L0 
     /tmp/cc1GXDPM.s:365    .text:00000000000001f8 .L0 
     /tmp/cc1GXDPM.s:367    .text:00000000000001fc .L0 
     /tmp/cc1GXDPM.s:371    .text:0000000000000200 .L0 
     /tmp/cc1GXDPM.s:375    .text:0000000000000200 .L0 
     /tmp/cc1GXDPM.s:376    .text:0000000000000200 .L0 
     /tmp/cc1GXDPM.s:381    .text:000000000000020c .L0 
     /tmp/cc1GXDPM.s:382    .text:000000000000020c .L0 
     /tmp/cc1GXDPM.s:390    .text:000000000000021c .L0 
     /tmp/cc1GXDPM.s:391    .text:000000000000021c .L0 
     /tmp/cc1GXDPM.s:396    .text:000000000000022c .L0 
     /tmp/cc1GXDPM.s:397    .text:000000000000022c .L0 
     /tmp/cc1GXDPM.s:400    .text:0000000000000234 .L0 
     /tmp/cc1GXDPM.s:401    .text:0000000000000234 .L0 
     /tmp/cc1GXDPM.s:406    .text:000000000000023c .L0 
     /tmp/cc1GXDPM.s:407    .text:000000000000023c .L0 
     /tmp/cc1GXDPM.s:408    .text:000000000000023c .L0 
     /tmp/cc1GXDPM.s:414    .text:000000000000024c .L0 
     /tmp/cc1GXDPM.s:415    .text:000000000000024c .L0 
     /tmp/cc1GXDPM.s:418    .text:0000000000000250 .L0 
     /tmp/cc1GXDPM.s:422    .text:0000000000000254 .L0 
     /tmp/cc1GXDPM.s:423    .text:0000000000000254 .L0 
     /tmp/cc1GXDPM.s:429    .text:000000000000025c .L0 
     /tmp/cc1GXDPM.s:430    .text:000000000000025c .L0 
     /tmp/cc1GXDPM.s:433    .text:0000000000000260 .L0 
     /tmp/cc1GXDPM.s:434    .text:0000000000000260 .L0 
     /tmp/cc1GXDPM.s:438    .text:0000000000000268 .L0 
     /tmp/cc1GXDPM.s:440    .text:000000000000026c .L0 
     /tmp/cc1GXDPM.s:446    .text:0000000000000274 .L0 
     /tmp/cc1GXDPM.s:466    .text:0000000000000274 _Z9putBinarym
     /tmp/cc1GXDPM.s:469    .text:0000000000000274 .L0 
     /tmp/cc1GXDPM.s:471    .text:0000000000000274 .L0 
     /tmp/cc1GXDPM.s:472    .text:0000000000000278 .L0 
GAS LISTING /tmp/cc1GXDPM.s 			page 19


     /tmp/cc1GXDPM.s:475    .text:0000000000000280 .L0 
     /tmp/cc1GXDPM.s:476    .text:0000000000000280 .L0 
     /tmp/cc1GXDPM.s:478    .text:0000000000000284 .L0 
     /tmp/cc1GXDPM.s:484    .text:0000000000000284 .L0 
     /tmp/cc1GXDPM.s:485    .text:0000000000000284 .L0 
     /tmp/cc1GXDPM.s:486    .text:0000000000000284 .L0 
     /tmp/cc1GXDPM.s:487    .text:0000000000000284 .L0 
     /tmp/cc1GXDPM.s:492    .text:0000000000000294 .L0 
     /tmp/cc1GXDPM.s:493    .text:0000000000000294 .L0 
     /tmp/cc1GXDPM.s:497    .text:00000000000002a4 .L0 
     /tmp/cc1GXDPM.s:498    .text:00000000000002a4 .L0 
     /tmp/cc1GXDPM.s:502    .text:00000000000002b4 .L0 
     /tmp/cc1GXDPM.s:503    .text:00000000000002b4 .L0 
     /tmp/cc1GXDPM.s:507    .text:00000000000002c0 .L0 
     /tmp/cc1GXDPM.s:508    .text:00000000000002c0 .L0 
     /tmp/cc1GXDPM.s:512    .text:00000000000002d0 .L0 
     /tmp/cc1GXDPM.s:513    .text:00000000000002d0 .L0 
     /tmp/cc1GXDPM.s:516    .text:00000000000002d8 .L0 
     /tmp/cc1GXDPM.s:517    .text:00000000000002d8 .L0 
     /tmp/cc1GXDPM.s:521    .text:00000000000002e0 .L0 
     /tmp/cc1GXDPM.s:533    .text:00000000000002e0 .L0 
     /tmp/cc1GXDPM.s:105    .rodata.str1.8:0000000000000000 .LC0
     /tmp/cc1GXDPM.s:129    .text:0000000000000098 .L0 
     /tmp/cc1GXDPM.s:526    .rodata.cst8:0000000000000000 .LC1
     /tmp/cc1GXDPM.s:189    .text:00000000000000ec .L0 
     /tmp/cc1GXDPM.s:194    .text:00000000000000fc .L0 
     /tmp/cc1GXDPM.s:154    .rodata.str1.8:0000000000000028 .LC2
     /tmp/cc1GXDPM.s:230    .text:0000000000000130 .L0 
     /tmp/cc1GXDPM.s:289    .rodata.str1.8:0000000000000070 .LC3
     /tmp/cc1GXDPM.s:391    .text:000000000000021c .L0 
     /tmp/cc1GXDPM.s:451    .rodata.str1.8:00000000000000c0 .LC4
     /tmp/cc1GXDPM.s:487    .text:0000000000000284 .L0 
     /tmp/cc1GXDPM.s:454    .rodata.str1.8:00000000000000e8 .LC5
     /tmp/cc1GXDPM.s:493    .text:0000000000000294 .L0 
     /tmp/cc1GXDPM.s:457    .rodata.str1.8:0000000000000100 .LC6
     /tmp/cc1GXDPM.s:498    .text:00000000000002a4 .L0 
     /tmp/cc1GXDPM.s:460    .rodata.str1.8:0000000000000110 .LC7
     /tmp/cc1GXDPM.s:508    .text:00000000000002c0 .L0 
     /tmp/cc1GXDPM.s:84     .text:0000000000000068 .L6
     /tmp/cc1GXDPM.s:65     .text:000000000000004c .L5
     /tmp/cc1GXDPM.s:140    .text:00000000000000b8 .L9
     /tmp/cc1GXDPM.s:197    .text:0000000000000108 .L19
     /tmp/cc1GXDPM.s:224    .text:0000000000000130 .L20
     /tmp/cc1GXDPM.s:264    .text:0000000000000170 .L14
     /tmp/cc1GXDPM.s:206    .text:0000000000000118 .L11
     /tmp/cc1GXDPM.s:242    .text:0000000000000150 .L15
     /tmp/cc1GXDPM.s:258    .text:0000000000000168 .L16
     /tmp/cc1GXDPM.s:342    .text:00000000000001d8 .L31
     /tmp/cc1GXDPM.s:370    .text:0000000000000200 .L32
     /tmp/cc1GXDPM.s:387    .text:000000000000021c .L25
     /tmp/cc1GXDPM.s:426    .text:000000000000025c .L26
     /tmp/cc1GXDPM.s:353    .text:00000000000001e8 .L21
     /tmp/cc1GXDPM.s:403    .text:000000000000023c .L27
     /tmp/cc1GXDPM.s:420    .text:0000000000000254 .L28
     /tmp/cc1GXDPM.s:1140   .debug_abbrev:0000000000000000 .Ldebug_abbrev0
     /tmp/cc1GXDPM.s:1920   .debug_str:000000000000016a .LASF39
     /tmp/cc1GXDPM.s:1874   .debug_str:000000000000001e .LASF40
GAS LISTING /tmp/cc1GXDPM.s 			page 20


     /tmp/cc1GXDPM.s:1878   .debug_str:0000000000000038 .LASF41
     /tmp/cc1GXDPM.s:5      .text:0000000000000000 .Ltext0
     /tmp/cc1GXDPM.s:529    .text:00000000000002e0 .Letext0
     /tmp/cc1GXDPM.s:1868   .debug_line:0000000000000000 .Ldebug_line0
     /tmp/cc1GXDPM.s:1908   .debug_str:000000000000011d .LASF0
     /tmp/cc1GXDPM.s:1924   .debug_str:000000000000023e .LASF1
     /tmp/cc1GXDPM.s:1910   .debug_str:000000000000012f .LASF2
     /tmp/cc1GXDPM.s:1902   .debug_str:00000000000000f5 .LASF3
     /tmp/cc1GXDPM.s:1882   .debug_str:000000000000005a .LASF4
     /tmp/cc1GXDPM.s:1912   .debug_str:0000000000000142 .LASF5
     /tmp/cc1GXDPM.s:1872   .debug_str:000000000000000b .LASF6
     /tmp/cc1GXDPM.s:1894   .debug_str:000000000000009a .LASF7
     /tmp/cc1GXDPM.s:1932   .debug_str:000000000000025b .LASF8
     /tmp/cc1GXDPM.s:1880   .debug_str:000000000000004c .LASF9
     /tmp/cc1GXDPM.s:1960   .debug_str:0000000000000306 .LASF10
     /tmp/cc1GXDPM.s:1898   .debug_str:00000000000000cc .LASF11
     /tmp/cc1GXDPM.s:1952   .debug_str:00000000000002da .LASF12
     /tmp/cc1GXDPM.s:1938   .debug_str:0000000000000291 .LASF13
     /tmp/cc1GXDPM.s:1914   .debug_str:0000000000000149 .LASF14
     /tmp/cc1GXDPM.s:1888   .debug_str:0000000000000071 .LASF15
     /tmp/cc1GXDPM.s:1934   .debug_str:000000000000026b .LASF16
     /tmp/cc1GXDPM.s:1958   .debug_str:00000000000002ff .LASF21
     /tmp/cc1GXDPM.s:1870   .debug_str:0000000000000000 .LASF23
     /tmp/cc1GXDPM.s:296    .text:0000000000000188 .LFB6
     /tmp/cc1GXDPM.s:447    .text:0000000000000274 .LFE6
     /tmp/cc1GXDPM.s:1586   .debug_loc:0000000000000000 .LLST6
     /tmp/cc1GXDPM.s:1842   .debug_ranges:0000000000000000 .Ldebug_ranges0
     /tmp/cc1GXDPM.s:1950   .debug_str:00000000000002d2 .LASF17
     /tmp/cc1GXDPM.s:1648   .debug_loc:00000000000000ff .LLST7
     /tmp/cc1GXDPM.s:1906   .debug_str:000000000000010e .LASF18
     /tmp/cc1GXDPM.s:1667   .debug_loc:0000000000000152 .LLST8
     /tmp/cc1GXDPM.s:1926   .debug_str:000000000000024b .LASF19
     /tmp/cc1GXDPM.s:1679   .debug_loc:0000000000000189 .LLST9
     /tmp/cc1GXDPM.s:412    .text:000000000000024c .LVL44
     /tmp/cc1GXDPM.s:394    .text:000000000000022c .LVL40
     /tmp/cc1GXDPM.s:398    .text:0000000000000234 .LVL41
     /tmp/cc1GXDPM.s:402    .text:000000000000023c .LVL42
     /tmp/cc1GXDPM.s:352    .text:00000000000001e8 .LVL33
     /tmp/cc1GXDPM.s:379    .text:000000000000020c .LVL36
     /tmp/cc1GXDPM.s:384    .text:0000000000000218 .LVL37
     /tmp/cc1GXDPM.s:1884   .debug_str:0000000000000061 .LASF20
     /tmp/cc1GXDPM.s:1876   .debug_str:0000000000000031 .LASF22
     /tmp/cc1GXDPM.s:1904   .debug_str:0000000000000103 .LASF24
     /tmp/cc1GXDPM.s:161    .text:00000000000000c8 .LFB5
     /tmp/cc1GXDPM.s:285    .text:0000000000000188 .LFE5
     /tmp/cc1GXDPM.s:1705   .debug_loc:00000000000001ec .LLST2
     /tmp/cc1GXDPM.s:1724   .debug_loc:0000000000000248 .LLST3
     /tmp/cc1GXDPM.s:1743   .debug_loc:00000000000002a3 .LLST4
     /tmp/cc1GXDPM.s:1755   .debug_loc:00000000000002da .LLST5
     /tmp/cc1GXDPM.s:250    .text:0000000000000160 .LVL23
     /tmp/cc1GXDPM.s:233    .text:0000000000000140 .LVL20
     /tmp/cc1GXDPM.s:237    .text:0000000000000148 .LVL21
     /tmp/cc1GXDPM.s:241    .text:0000000000000150 .LVL22
     /tmp/cc1GXDPM.s:205    .text:0000000000000118 .LVL16
     /tmp/cc1GXDPM.s:1954   .debug_str:00000000000002ea .LASF25
     /tmp/cc1GXDPM.s:1944   .debug_str:00000000000002ac .LASF26
     /tmp/cc1GXDPM.s:467    .text:0000000000000274 .LFB4
GAS LISTING /tmp/cc1GXDPM.s 			page 21


     /tmp/cc1GXDPM.s:522    .text:00000000000002e0 .LFE4
     /tmp/cc1GXDPM.s:1781   .debug_loc:000000000000032e .LLST10
     /tmp/cc1GXDPM.s:481    .text:0000000000000284 .LBB23
     /tmp/cc1GXDPM.s:520    .text:00000000000002e0 .LBE23
     /tmp/cc1GXDPM.s:490    .text:0000000000000294 .LVL52
     /tmp/cc1GXDPM.s:495    .text:00000000000002a4 .LVL53
     /tmp/cc1GXDPM.s:500    .text:00000000000002b4 .LVL54
     /tmp/cc1GXDPM.s:505    .text:00000000000002c0 .LVL55
     /tmp/cc1GXDPM.s:510    .text:00000000000002d0 .LVL56
     /tmp/cc1GXDPM.s:514    .text:00000000000002d8 .LVL57
     /tmp/cc1GXDPM.s:518    .text:00000000000002e0 .LVL58
     /tmp/cc1GXDPM.s:1892   .debug_str:0000000000000090 .LASF27
     /tmp/cc1GXDPM.s:1948   .debug_str:00000000000002c2 .LASF28
     /tmp/cc1GXDPM.s:43     .text:000000000000002c .LFB3
     /tmp/cc1GXDPM.s:101    .text:0000000000000080 .LFE3
     /tmp/cc1GXDPM.s:1795   .debug_loc:0000000000000367 .LLST0
     /tmp/cc1GXDPM.s:1813   .debug_loc:00000000000003b3 .LLST1
     /tmp/cc1GXDPM.s:79     .text:0000000000000064 .LVL5
     /tmp/cc1GXDPM.s:1928   .debug_str:0000000000000251 .LASF29
     /tmp/cc1GXDPM.s:1956   .debug_str:00000000000002f4 .LASF30
     /tmp/cc1GXDPM.s:1922   .debug_str:000000000000022e .LASF31
     /tmp/cc1GXDPM.s:10     .text:0000000000000000 .LFB2
     /tmp/cc1GXDPM.s:37     .text:000000000000002c .LFE2
     /tmp/cc1GXDPM.s:26     .text:000000000000001c .LVL0
     /tmp/cc1GXDPM.s:1886   .debug_str:0000000000000066 .LASF42
     /tmp/cc1GXDPM.s:1918   .debug_str:000000000000015a .LASF43
     /tmp/cc1GXDPM.s:112    .text:0000000000000080 .LFB1
     /tmp/cc1GXDPM.s:150    .text:00000000000000c8 .LFE1
     /tmp/cc1GXDPM.s:126    .text:0000000000000098 .LVL9
     /tmp/cc1GXDPM.s:131    .text:00000000000000a8 .LVL10
     /tmp/cc1GXDPM.s:135    .text:00000000000000b0 .LVL11
     /tmp/cc1GXDPM.s:1946   .debug_str:00000000000002ba .LASF44
     /tmp/cc1GXDPM.s:1936   .debug_str:0000000000000281 .LASF45
     /tmp/cc1GXDPM.s:1940   .debug_str:00000000000002a1 .LASF32
     /tmp/cc1GXDPM.s:1916   .debug_str:0000000000000155 .LASF33
     /tmp/cc1GXDPM.s:1930   .debug_str:0000000000000256 .LASF34
     /tmp/cc1GXDPM.s:1890   .debug_str:0000000000000087 .LASF35
     /tmp/cc1GXDPM.s:1942   .debug_str:00000000000002a7 .LASF37
     /tmp/cc1GXDPM.s:1896   .debug_str:00000000000000ad .LASF36
     /tmp/cc1GXDPM.s:1900   .debug_str:00000000000000db .LASF38
     /tmp/cc1GXDPM.s:299    .text:0000000000000188 .LVL28
     /tmp/cc1GXDPM.s:348    .text:00000000000001dc .LVL31
     /tmp/cc1GXDPM.s:350    .text:00000000000001e0 .LVL32
     /tmp/cc1GXDPM.s:369    .text:0000000000000200 .LVL34
     /tmp/cc1GXDPM.s:377    .text:0000000000000204 .LVL35
     /tmp/cc1GXDPM.s:386    .text:000000000000021c .LVL38
     /tmp/cc1GXDPM.s:392    .text:0000000000000224 .LVL39
     /tmp/cc1GXDPM.s:416    .text:0000000000000250 .LVL45
     /tmp/cc1GXDPM.s:419    .text:0000000000000254 .LVL46
     /tmp/cc1GXDPM.s:327    .text:00000000000001b4 .LVL29
     /tmp/cc1GXDPM.s:341    .text:00000000000001d8 .LVL30
     /tmp/cc1GXDPM.s:409    .text:0000000000000240 .LVL43
     /tmp/cc1GXDPM.s:436    .text:0000000000000268 .LVL48
     /tmp/cc1GXDPM.s:164    .text:00000000000000c8 .LVL12
     /tmp/cc1GXDPM.s:202    .text:000000000000010c .LVL15
     /tmp/cc1GXDPM.s:219    .text:0000000000000128 .LVL17
     /tmp/cc1GXDPM.s:223    .text:0000000000000130 .LVL18
GAS LISTING /tmp/cc1GXDPM.s 			page 22


     /tmp/cc1GXDPM.s:231    .text:0000000000000138 .LVL19
     /tmp/cc1GXDPM.s:187    .text:00000000000000ec .LVL13
     /tmp/cc1GXDPM.s:196    .text:0000000000000108 .LVL14
     /tmp/cc1GXDPM.s:257    .text:0000000000000168 .LVL25
     /tmp/cc1GXDPM.s:254    .text:0000000000000164 .LVL24
     /tmp/cc1GXDPM.s:275    .text:000000000000017c .LVL27
     /tmp/cc1GXDPM.s:470    .text:0000000000000274 .LVL49
     /tmp/cc1GXDPM.s:488    .text:000000000000028c .LVL51
     /tmp/cc1GXDPM.s:46     .text:000000000000002c .LVL1
     /tmp/cc1GXDPM.s:64     .text:000000000000004c .LVL3
     /tmp/cc1GXDPM.s:96     .text:0000000000000078 .LVL8
     /tmp/cc1GXDPM.s:61     .text:0000000000000048 .LVL2
     /tmp/cc1GXDPM.s:76     .text:000000000000005c .LVL4
     /tmp/cc1GXDPM.s:83     .text:0000000000000068 .LVL6
     /tmp/cc1GXDPM.s:93     .text:0000000000000074 .LVL7
     /tmp/cc1GXDPM.s:534    .debug_info:0000000000000000 .Ldebug_info0
     /tmp/cc1GXDPM.s:185    .text:00000000000000ec .LBB3
     /tmp/cc1GXDPM.s:198    .text:0000000000000108 .LBE3
     /tmp/cc1GXDPM.s:227    .text:0000000000000130 .LBB6
     /tmp/cc1GXDPM.s:282    .text:0000000000000188 .LBE6
     /tmp/cc1GXDPM.s:243    .text:0000000000000150 .LBB4
     /tmp/cc1GXDPM.s:265    .text:0000000000000170 .LBE4
     /tmp/cc1GXDPM.s:269    .text:0000000000000174 .LBB5
     /tmp/cc1GXDPM.s:281    .text:0000000000000188 .LBE5
     /tmp/cc1GXDPM.s:325    .text:00000000000001b4 .LBB11
     /tmp/cc1GXDPM.s:343    .text:00000000000001d8 .LBE11
     /tmp/cc1GXDPM.s:388    .text:000000000000021c .LBB14
     /tmp/cc1GXDPM.s:443    .text:0000000000000274 .LBE14
     /tmp/cc1GXDPM.s:404    .text:000000000000023c .LBB12
     /tmp/cc1GXDPM.s:427    .text:000000000000025c .LBE12
     /tmp/cc1GXDPM.s:431    .text:0000000000000260 .LBB13
     /tmp/cc1GXDPM.s:442    .text:0000000000000274 .LBE13

UNDEFINED SYMBOLS
_Z4putcc
_Z25disableExternalInterruptsv
