GAS LISTING /tmp/ccZi2G4F.s 			page 1


   1              		.file	"my_console.cpp"
   2              		.option pic
   3              		.option norelax
   4              		.text
   5              	.Ltext0:
   6              		.align	2
   7              		.globl	_Z10putNewlinev
   9              	_Z10putNewlinev:
  10              	.LFB2:
  11              		.file 1 "src/my_console.cpp"
   1:src/my_console.cpp **** //
   2:src/my_console.cpp **** // Created by os on 4/25/23.
   3:src/my_console.cpp **** //
   4:src/my_console.cpp **** 
   5:src/my_console.cpp **** #include "../h/my_console.h"
   6:src/my_console.cpp **** 
   7:src/my_console.cpp **** //inline void _assert(bool valid, const char* file, int line)
   8:src/my_console.cpp **** 
   9:src/my_console.cpp **** void stopKernel()
  10:src/my_console.cpp **** {
  11:src/my_console.cpp ****     putNewline();
  12:src/my_console.cpp ****     putString("====== Stopping the kernel ======");
  13:src/my_console.cpp **** 
  14:src/my_console.cpp ****     __asm__ volatile ("csrc sstatus, 0x02"); // disable external interupts (or all interupts?)
  15:src/my_console.cpp ****     while(true)
  16:src/my_console.cpp ****     {
  17:src/my_console.cpp **** 
  18:src/my_console.cpp ****     }
  19:src/my_console.cpp **** }
  20:src/my_console.cpp **** 
  21:src/my_console.cpp **** void putNewline()
  22:src/my_console.cpp **** {
  12              		.loc 1 22 1
  13              		.cfi_startproc
  14 0000 130101FF 		addi	sp,sp,-16
  15              		.cfi_def_cfa_offset 16
  16 0004 23341100 		sd	ra,8(sp)
  17 0008 23308100 		sd	s0,0(sp)
  18              		.cfi_offset 1, -8
  19              		.cfi_offset 8, -16
  20 000c 13040101 		addi	s0,sp,16
  21              		.cfi_def_cfa 8, 0
  23:src/my_console.cpp ****     __putc('\n');
  22              		.loc 1 23 5
  23              		.loc 1 23 11 is_stmt 0
  24 0010 1305A000 		li	a0,10
  25 0014 97000000 		call	__putc@plt
  25      E7800000 
  26              	.LVL0:
  24:src/my_console.cpp **** }
  27              		.loc 1 24 1
  28 001c 83308100 		ld	ra,8(sp)
  29              		.cfi_restore 1
  30 0020 03340100 		ld	s0,0(sp)
  31              		.cfi_restore 8
  32              		.cfi_def_cfa 2, 16
  33 0024 13010101 		addi	sp,sp,16
GAS LISTING /tmp/ccZi2G4F.s 			page 2


  34              		.cfi_def_cfa_offset 0
  35 0028 67800000 		jr	ra
  36              		.cfi_endproc
  37              	.LFE2:
  39              		.align	2
  40              		.globl	_Z9putStringPKc
  42              	_Z9putStringPKc:
  43              	.LFB3:
  25:src/my_console.cpp **** 
  26:src/my_console.cpp **** void putString(const char* s)
  27:src/my_console.cpp **** {
  44              		.loc 1 27 1 is_stmt 1
  45              		.cfi_startproc
  46              	.LVL1:
  47 002c 130101FE 		addi	sp,sp,-32
  48              		.cfi_def_cfa_offset 32
  49 0030 233C1100 		sd	ra,24(sp)
  50 0034 23388100 		sd	s0,16(sp)
  51 0038 23349100 		sd	s1,8(sp)
  52 003c 23302101 		sd	s2,0(sp)
  53              		.cfi_offset 1, -8
  54              		.cfi_offset 8, -16
  55              		.cfi_offset 9, -24
  56              		.cfi_offset 18, -32
  57 0040 13040102 		addi	s0,sp,32
  58              		.cfi_def_cfa 8, 0
  59 0044 13090500 		mv	s2,a0
  28:src/my_console.cpp ****     int i=0;
  60              		.loc 1 28 5
  61              	.LVL2:
  62              		.loc 1 28 9 is_stmt 0
  63 0048 93040000 		li	s1,0
  64              	.LVL3:
  65              	.L5:
  29:src/my_console.cpp ****     while(true)
  66              		.loc 1 29 5 is_stmt 1
  30:src/my_console.cpp ****     {
  31:src/my_console.cpp ****         if(s[i] == '\0')
  67              		.loc 1 31 9
  68              		.loc 1 31 15 is_stmt 0
  69 004c B3079900 		add	a5,s2,s1
  70 0050 03C50700 		lbu	a0,0(a5)
  71              		.loc 1 31 9
  72 0054 630A0500 		beqz	a0,.L6
  32:src/my_console.cpp ****             return;
  33:src/my_console.cpp ****         else __putc(s[i++]);
  73              		.loc 1 33 14 is_stmt 1
  74              		.loc 1 33 24 is_stmt 0
  75 0058 9B841400 		addiw	s1,s1,1
  76              	.LVL4:
  77              		.loc 1 33 20
  78 005c 97000000 		call	__putc@plt
  78      E7800000 
  79              	.LVL5:
  29:src/my_console.cpp ****     {
  80              		.loc 1 29 5 is_stmt 1
  31:src/my_console.cpp ****             return;
GAS LISTING /tmp/ccZi2G4F.s 			page 3


  81              		.loc 1 31 9 is_stmt 0
  82 0064 6FF09FFE 		j	.L5
  83              	.LVL6:
  84              	.L6:
  34:src/my_console.cpp ****     }
  35:src/my_console.cpp **** }
  85              		.loc 1 35 1
  86 0068 83308101 		ld	ra,24(sp)
  87              		.cfi_restore 1
  88 006c 03340101 		ld	s0,16(sp)
  89              		.cfi_restore 8
  90              		.cfi_def_cfa 2, 32
  91 0070 83348100 		ld	s1,8(sp)
  92              		.cfi_restore 9
  93              	.LVL7:
  94 0074 03390100 		ld	s2,0(sp)
  95              		.cfi_restore 18
  96              	.LVL8:
  97 0078 13010102 		addi	sp,sp,32
  98              		.cfi_def_cfa_offset 0
  99 007c 67800000 		jr	ra
 100              		.cfi_endproc
 101              	.LFE3:
 103              		.section	.rodata.str1.8,"aMS",@progbits,1
 104              		.align	3
 105              	.LC0:
 106 0000 3D3D3D3D 		.string	"====== Stopping the kernel ======"
 106      3D3D2053 
 106      746F7070 
 106      696E6720 
 106      74686520 
 107              		.text
 108              		.align	2
 109              		.globl	_Z10stopKernelv
 111              	_Z10stopKernelv:
 112              	.LFB1:
  10:src/my_console.cpp ****     putNewline();
 113              		.loc 1 10 1 is_stmt 1
 114              		.cfi_startproc
 115 0080 130101FF 		addi	sp,sp,-16
 116              		.cfi_def_cfa_offset 16
 117 0084 23341100 		sd	ra,8(sp)
 118 0088 23308100 		sd	s0,0(sp)
 119              		.cfi_offset 1, -8
 120              		.cfi_offset 8, -16
 121 008c 13040101 		addi	s0,sp,16
 122              		.cfi_def_cfa 8, 0
  11:src/my_console.cpp ****     putString("====== Stopping the kernel ======");
 123              		.loc 1 11 5
  11:src/my_console.cpp ****     putString("====== Stopping the kernel ======");
 124              		.loc 1 11 15 is_stmt 0
 125 0090 97000000 		call	_Z10putNewlinev
 125      E7800000 
 126              	.LVL9:
  12:src/my_console.cpp **** 
 127              		.loc 1 12 5 is_stmt 1
  12:src/my_console.cpp **** 
GAS LISTING /tmp/ccZi2G4F.s 			page 4


 128              		.loc 1 12 14 is_stmt 0
 129 0098 17050000 		lla	a0,.LC0
 129      13050500 
 130 00a0 97000000 		call	_Z9putStringPKc
 130      E7800000 
 131              	.LVL10:
  14:src/my_console.cpp ****     while(true)
 132              		.loc 1 14 5 is_stmt 1
  14:src/my_console.cpp ****     while(true)
 133              		.loc 1 14 44 is_stmt 0
 134              	#APP
 135              	# 14 "src/my_console.cpp" 1
 136              		csrc sstatus, 0x02
 137              	# 0 "" 2
 138              	#NO_APP
 139              	.L9:
  15:src/my_console.cpp ****     {
 140              		.loc 1 15 5 is_stmt 1 discriminator 1
  15:src/my_console.cpp ****     {
 141              		.loc 1 15 5 discriminator 1
 142 00ac 6F000000 		j	.L9
 143              		.cfi_endproc
 144              	.LFE1:
 146              		.section	.rodata.str1.8
 147 0022 00000000 		.align	3
 147      0000
 148              	.LC2:
 149 0028 3D3D3D3D 		.string	"===== FATAL PRINTING ERROR IN FUNCTION putU64() Stoping the kernel ===="
 149      3D204641 
 149      54414C20 
 149      5052494E 
 149      54494E47 
 150              		.text
 151              		.align	2
 152              		.globl	_Z6putU64m
 154              	_Z6putU64m:
 155              	.LFB5:
  36:src/my_console.cpp **** 
  37:src/my_console.cpp **** void putBinary(uint64 n)
  38:src/my_console.cpp **** {
  39:src/my_console.cpp ****     assert(false);
  40:src/my_console.cpp ****     if(n < 0)
  41:src/my_console.cpp ****     {
  42:src/my_console.cpp ****         putString("===== FATAL PRINTING ERROR IN FUNCTION putU64. NEGATIVE VALUE. Stoping the kerne
  43:src/my_console.cpp ****         putNewline();
  44:src/my_console.cpp ****         stopKernel();
  45:src/my_console.cpp ****     }
  46:src/my_console.cpp ****     else if(n == 0 || n == 1)
  47:src/my_console.cpp ****     {
  48:src/my_console.cpp ****         __putc('0' + n);
  49:src/my_console.cpp ****     }
  50:src/my_console.cpp ****     else
  51:src/my_console.cpp ****     {
  52:src/my_console.cpp ****        uint64 initial = 1 << 30;
  53:src/my_console.cpp ****        putString("AAA");
  54:src/my_console.cpp **** //       putInt(initial);
  55:src/my_console.cpp ****        putNewline();
GAS LISTING /tmp/ccZi2G4F.s 			page 5


  56:src/my_console.cpp ****        putInt(sizeof(uint64));
  57:src/my_console.cpp **** 
  58:src/my_console.cpp ****         bool alreadyWritten = false;
  59:src/my_console.cpp ****         while(initial > 0)
  60:src/my_console.cpp ****         {
  61:src/my_console.cpp ****             bool digit = n / initial;
  62:src/my_console.cpp ****             if (digit > 0 || alreadyWritten)
  63:src/my_console.cpp ****             {
  64:src/my_console.cpp ****                 alreadyWritten = true;
  65:src/my_console.cpp ****                 __putc(digit + '0');
  66:src/my_console.cpp ****                 n = n % initial;
  67:src/my_console.cpp ****             }
  68:src/my_console.cpp ****             initial = ((initial) >> 1);
  69:src/my_console.cpp ****         }
  70:src/my_console.cpp ****     }
  71:src/my_console.cpp **** }
  72:src/my_console.cpp **** 
  73:src/my_console.cpp **** void putU64(uint64 n)
  74:src/my_console.cpp **** {
 156              		.loc 1 74 1
 157              		.cfi_startproc
 158              	.LVL11:
 159 00b0 130101FE 		addi	sp,sp,-32
 160              		.cfi_def_cfa_offset 32
 161 00b4 233C1100 		sd	ra,24(sp)
 162 00b8 23388100 		sd	s0,16(sp)
 163 00bc 23349100 		sd	s1,8(sp)
 164 00c0 23302101 		sd	s2,0(sp)
 165              		.cfi_offset 1, -8
 166              		.cfi_offset 8, -16
 167              		.cfi_offset 9, -24
 168              		.cfi_offset 18, -32
 169 00c4 13040102 		addi	s0,sp,32
 170              		.cfi_def_cfa 8, 0
 171 00c8 13090500 		mv	s2,a0
  75:src/my_console.cpp ****     if(n >= 0 and n <= 9)
 172              		.loc 1 75 5
 173              	.LBB2:
 174 00cc 93079000 		li	a5,9
 175 00d0 63F0A702 		bleu	a0,a5,.L19
 176              	.LBE2:
  76:src/my_console.cpp ****         __putc('0' + n);
  77:src/my_console.cpp ****     else if (n < 0)
 177              		.loc 1 77 10
 178              	.LBB7:
 179              	.LBB3:
  78:src/my_console.cpp ****     {
  79:src/my_console.cpp ****         putString("===== FATAL PRINTING ERROR IN FUNCTION putU64. NEGATIVE VALUE. Stoping the kerne
  80:src/my_console.cpp ****         putNewline();
  81:src/my_console.cpp ****         stopKernel();
  82:src/my_console.cpp ****     }
  83:src/my_console.cpp ****     else {
  84:src/my_console.cpp ****         uint64 initial = 1000000000000000000;
 180              		.loc 1 84 9
 181              	.LVL12:
  85:src/my_console.cpp **** 
  86:src/my_console.cpp ****         if (n > initial || n <= 9)
GAS LISTING /tmp/ccZi2G4F.s 			page 6


 182              		.loc 1 86 9
 183 00d4 97070000 		ld	a5,.LC1
 183      83B70700 
 184 00dc 63EEA702 		bgtu	a0,a5,.L20
  87:src/my_console.cpp ****         {
  88:src/my_console.cpp ****             putString("===== FATAL PRINTING ERROR IN FUNCTION putU64() Stoping the kernel ====");
  89:src/my_console.cpp ****             putNewline();
  90:src/my_console.cpp ****             stopKernel();
  91:src/my_console.cpp ****         }
  92:src/my_console.cpp **** 
  93:src/my_console.cpp ****         bool alreadyWritten = false;
 185              		.loc 1 93 14 is_stmt 0
 186 00e0 13070000 		li	a4,0
  84:src/my_console.cpp **** 
 187              		.loc 1 84 16
 188 00e4 97040000 		ld	s1,.LC1
 188      83B40400 
 189 00ec 6F00C006 		j	.L14
 190              	.LVL13:
 191              	.L19:
 192              	.LBE3:
  76:src/my_console.cpp ****     else if (n < 0)
 193              		.loc 1 76 9 is_stmt 1
  76:src/my_console.cpp ****     else if (n < 0)
 194              		.loc 1 76 15 is_stmt 0
 195 00f0 1B050503 		addiw	a0,a0,48
 196              	.LVL14:
 197 00f4 1375F50F 		andi	a0,a0,0xff
 198 00f8 97000000 		call	__putc@plt
 198      E7800000 
 199              	.LVL15:
 200              	.L11:
 201              	.LBE7:
  94:src/my_console.cpp ****         while(initial > 0)
  95:src/my_console.cpp ****         {
  96:src/my_console.cpp ****             int digit = n / initial;
  97:src/my_console.cpp ****             if (digit > 0 || alreadyWritten)
  98:src/my_console.cpp ****             {
  99:src/my_console.cpp ****                 alreadyWritten = true;
 100:src/my_console.cpp ****                 __putc(digit + '0');
 101:src/my_console.cpp ****                 n = n % initial;
 102:src/my_console.cpp ****             }
 103:src/my_console.cpp ****             initial /= 10;
 104:src/my_console.cpp ****         }
 105:src/my_console.cpp ****     }
 106:src/my_console.cpp **** }
 202              		.loc 1 106 1
 203 0100 83308101 		ld	ra,24(sp)
 204              		.cfi_remember_state
 205              		.cfi_restore 1
 206 0104 03340101 		ld	s0,16(sp)
 207              		.cfi_restore 8
 208              		.cfi_def_cfa 2, 32
 209 0108 83348100 		ld	s1,8(sp)
 210              		.cfi_restore 9
 211 010c 03390100 		ld	s2,0(sp)
 212              		.cfi_restore 18
GAS LISTING /tmp/ccZi2G4F.s 			page 7


 213              	.LVL16:
 214 0110 13010102 		addi	sp,sp,32
 215              		.cfi_def_cfa_offset 0
 216 0114 67800000 		jr	ra
 217              	.LVL17:
 218              	.L20:
 219              		.cfi_restore_state
 220              	.LBB8:
 221              	.LBB6:
  88:src/my_console.cpp ****             putNewline();
 222              		.loc 1 88 13 is_stmt 1
  88:src/my_console.cpp ****             putNewline();
 223              		.loc 1 88 22 is_stmt 0
 224 0118 17050000 		lla	a0,.LC2
 224      13050500 
 225              	.LVL18:
 226 0120 97000000 		call	_Z9putStringPKc
 226      E7800000 
 227              	.LVL19:
  89:src/my_console.cpp ****             stopKernel();
 228              		.loc 1 89 13 is_stmt 1
  89:src/my_console.cpp ****             stopKernel();
 229              		.loc 1 89 23 is_stmt 0
 230 0128 97000000 		call	_Z10putNewlinev
 230      E7800000 
 231              	.LVL20:
  90:src/my_console.cpp ****         }
 232              		.loc 1 90 13 is_stmt 1
  90:src/my_console.cpp ****         }
 233              		.loc 1 90 23 is_stmt 0
 234 0130 97000000 		call	_Z10stopKernelv
 234      E7800000 
 235              	.LVL21:
 236              	.L15:
 237              	.LBB4:
  99:src/my_console.cpp ****                 __putc(digit + '0');
 238              		.loc 1 99 17 is_stmt 1
 100:src/my_console.cpp ****                 n = n % initial;
 239              		.loc 1 100 17
 100:src/my_console.cpp ****                 n = n % initial;
 240              		.loc 1 100 23 is_stmt 0
 241 0138 1B050503 		addiw	a0,a0,48
 242 013c 1375F50F 		andi	a0,a0,0xff
 243 0140 97000000 		call	__putc@plt
 243      E7800000 
 244              	.LVL22:
 101:src/my_console.cpp ****             }
 245              		.loc 1 101 17 is_stmt 1
 101:src/my_console.cpp ****             }
 246              		.loc 1 101 19 is_stmt 0
 247 0148 33799902 		remu	s2,s2,s1
 248              	.LVL23:
  99:src/my_console.cpp ****                 __putc(digit + '0');
 249              		.loc 1 99 32
 250 014c 13071000 		li	a4,1
 251              	.LVL24:
 252              	.L16:
GAS LISTING /tmp/ccZi2G4F.s 			page 8


 103:src/my_console.cpp ****         }
 253              		.loc 1 103 13 is_stmt 1
 103:src/my_console.cpp ****         }
 254              		.loc 1 103 21 is_stmt 0
 255 0150 9307A000 		li	a5,10
 256 0154 B3D4F402 		divu	s1,s1,a5
 257              	.LVL25:
 258              	.L14:
 259              	.LBE4:
  94:src/my_console.cpp ****         {
 260              		.loc 1 94 9 is_stmt 1
  94:src/my_console.cpp ****         {
 261              		.loc 1 94 23
 262 0158 E38404FA 		beqz	s1,.L11
 263              	.LBB5:
  96:src/my_console.cpp ****             if (digit > 0 || alreadyWritten)
 264              		.loc 1 96 13
  96:src/my_console.cpp ****             if (digit > 0 || alreadyWritten)
 265              		.loc 1 96 27 is_stmt 0
 266 015c 33559902 		divu	a0,s2,s1
  96:src/my_console.cpp ****             if (digit > 0 || alreadyWritten)
 267              		.loc 1 96 17
 268 0160 9B070500 		sext.w	a5,a0
 269              	.LVL26:
  97:src/my_console.cpp ****             {
 270              		.loc 1 97 13 is_stmt 1
 271 0164 E34AF0FC 		bgtz	a5,.L15
  97:src/my_console.cpp ****             {
 272              		.loc 1 97 27 is_stmt 0 discriminator 1
 273 0168 E30407FE 		beqz	a4,.L16
 274 016c 6FF0DFFC 		j	.L15
 275              	.LBE5:
 276              	.LBE6:
 277              	.LBE8:
 278              		.cfi_endproc
 279              	.LFE5:
 281              		.section	.rodata.str1.8
 282              		.align	3
 283              	.LC3:
 284 0070 3D3D3D3D 		.string	"===== FATAL PRINTING ERROR IN FUNCTION putInt(int). Stoping the kernel ===="
 284      3D204641 
 284      54414C20 
 284      5052494E 
 284      54494E47 
 285              		.text
 286              		.align	2
 287              		.globl	_Z6putInti
 289              	_Z6putInti:
 290              	.LFB6:
 107:src/my_console.cpp **** 
 108:src/my_console.cpp **** void putInt(int n)
 109:src/my_console.cpp **** {
 291              		.loc 1 109 1 is_stmt 1
 292              		.cfi_startproc
 293              	.LVL27:
 294 0170 130101FE 		addi	sp,sp,-32
 295              		.cfi_def_cfa_offset 32
GAS LISTING /tmp/ccZi2G4F.s 			page 9


 296 0174 233C1100 		sd	ra,24(sp)
 297 0178 23388100 		sd	s0,16(sp)
 298 017c 23349100 		sd	s1,8(sp)
 299 0180 23302101 		sd	s2,0(sp)
 300              		.cfi_offset 1, -8
 301              		.cfi_offset 8, -16
 302              		.cfi_offset 9, -24
 303              		.cfi_offset 18, -32
 304 0184 13040102 		addi	s0,sp,32
 305              		.cfi_def_cfa 8, 0
 306 0188 13090500 		mv	s2,a0
 110:src/my_console.cpp ****     if(n >= 0 and n <= 9)
 307              		.loc 1 110 5
 308              	.LBB9:
 309              		.loc 1 110 15 is_stmt 0
 310 018c 1B070500 		sext.w	a4,a0
 311              		.loc 1 110 5
 312 0190 93079000 		li	a5,9
 313 0194 63F6E702 		bleu	a4,a5,.L31
 314              	.LBE9:
 111:src/my_console.cpp ****         __putc('0' + n);
 112:src/my_console.cpp ****     else if (n < 0)
 315              		.loc 1 112 10 is_stmt 1
 316              	.LBB16:
 317              	.LBB10:
 318 0198 63480504 		bltz	a0,.L32
 319              	.LBB11:
 113:src/my_console.cpp ****     {
 114:src/my_console.cpp ****         __putc('-');
 115:src/my_console.cpp ****         putInt(-n);
 116:src/my_console.cpp ****     }
 117:src/my_console.cpp ****     else {
 118:src/my_console.cpp ****         int initial = 1000000000;
 320              		.loc 1 118 9
 321              	.LVL28:
 119:src/my_console.cpp **** 
 120:src/my_console.cpp ****         if (n > initial || n <= 9)
 322              		.loc 1 120 9
 323 019c B7D79A3B 		li	a5,1000001536
 324 01a0 938707A0 		addi	a5,a5,-1536
 325 01a4 63C0A706 		bgt	a0,a5,.L25
 326              		.loc 1 120 25 is_stmt 0 discriminator 1
 327 01a8 93079000 		li	a5,9
 328 01ac 63DCA704 		ble	a0,a5,.L25
 121:src/my_console.cpp ****         {
 122:src/my_console.cpp ****             putString("===== FATAL PRINTING ERROR IN FUNCTION putInt(int). Stoping the kernel ===="
 123:src/my_console.cpp ****             putNewline();
 124:src/my_console.cpp ****             stopKernel();
 125:src/my_console.cpp ****         }
 126:src/my_console.cpp **** 
 127:src/my_console.cpp ****         bool alreadyWritten = false;
 329              		.loc 1 127 14
 330 01b0 93060000 		li	a3,0
 118:src/my_console.cpp **** 
 331              		.loc 1 118 13
 332 01b4 B7D49A3B 		li	s1,1000001536
 333 01b8 938404A0 		addi	s1,s1,-1536
GAS LISTING /tmp/ccZi2G4F.s 			page 10


 334 01bc 6F008008 		j	.L26
 335              	.LVL29:
 336              	.L31:
 337              	.LBE11:
 338              	.LBE10:
 111:src/my_console.cpp ****     else if (n < 0)
 339              		.loc 1 111 9 is_stmt 1
 111:src/my_console.cpp ****     else if (n < 0)
 340              		.loc 1 111 15 is_stmt 0
 341 01c0 1B050503 		addiw	a0,a0,48
 342              	.LVL30:
 343 01c4 1375F50F 		andi	a0,a0,0xff
 344              	.LVL31:
 345 01c8 97000000 		call	__putc@plt
 345      E7800000 
 346              	.LVL32:
 347              	.L21:
 348              	.LBE16:
 128:src/my_console.cpp ****         while(initial > 0)
 129:src/my_console.cpp ****         {
 130:src/my_console.cpp ****             int digit = n / initial;
 131:src/my_console.cpp ****             if (digit > 0 || alreadyWritten)
 132:src/my_console.cpp ****             {
 133:src/my_console.cpp ****                 alreadyWritten = true;
 134:src/my_console.cpp ****                 __putc(digit + '0');
 135:src/my_console.cpp ****                 n = n % initial;
 136:src/my_console.cpp ****             }
 137:src/my_console.cpp ****             initial /= 10;
 138:src/my_console.cpp ****         }
 139:src/my_console.cpp ****     }
 140:src/my_console.cpp **** 
 141:src/my_console.cpp **** }
 349              		.loc 1 141 1
 350 01d0 83308101 		ld	ra,24(sp)
 351              		.cfi_remember_state
 352              		.cfi_restore 1
 353 01d4 03340101 		ld	s0,16(sp)
 354              		.cfi_restore 8
 355              		.cfi_def_cfa 2, 32
 356 01d8 83348100 		ld	s1,8(sp)
 357              		.cfi_restore 9
 358 01dc 03390100 		ld	s2,0(sp)
 359              		.cfi_restore 18
 360 01e0 13010102 		addi	sp,sp,32
 361              		.cfi_def_cfa_offset 0
 362 01e4 67800000 		jr	ra
 363              	.LVL33:
 364              	.L32:
 365              		.cfi_restore_state
 366              	.LBB17:
 367              	.LBB15:
 114:src/my_console.cpp ****         putInt(-n);
 368              		.loc 1 114 9 is_stmt 1
 114:src/my_console.cpp ****         putInt(-n);
 369              		.loc 1 114 15 is_stmt 0
 370 01e8 1305D002 		li	a0,45
 371              	.LVL34:
GAS LISTING /tmp/ccZi2G4F.s 			page 11


 372 01ec 97000000 		call	__putc@plt
 372      E7800000 
 373              	.LVL35:
 115:src/my_console.cpp ****     }
 374              		.loc 1 115 9 is_stmt 1
 115:src/my_console.cpp ****     }
 375              		.loc 1 115 15 is_stmt 0
 376 01f4 3B052041 		negw	a0,s2
 377 01f8 97000000 		call	_Z6putInti
 377      E7800000 
 378              	.LVL36:
 379 0200 6FF01FFD 		j	.L21
 380              	.LVL37:
 381              	.L25:
 382              	.LBB14:
 122:src/my_console.cpp ****             putNewline();
 383              		.loc 1 122 13 is_stmt 1
 122:src/my_console.cpp ****             putNewline();
 384              		.loc 1 122 22 is_stmt 0
 385 0204 17050000 		lla	a0,.LC3
 385      13050500 
 386              	.LVL38:
 387 020c 97000000 		call	_Z9putStringPKc
 387      E7800000 
 388              	.LVL39:
 123:src/my_console.cpp ****             stopKernel();
 389              		.loc 1 123 13 is_stmt 1
 123:src/my_console.cpp ****             stopKernel();
 390              		.loc 1 123 23 is_stmt 0
 391 0214 97000000 		call	_Z10putNewlinev
 391      E7800000 
 392              	.LVL40:
 124:src/my_console.cpp ****         }
 393              		.loc 1 124 13 is_stmt 1
 124:src/my_console.cpp ****         }
 394              		.loc 1 124 23 is_stmt 0
 395 021c 97000000 		call	_Z10stopKernelv
 395      E7800000 
 396              	.LVL41:
 397              	.L27:
 398              	.LBB12:
 133:src/my_console.cpp ****                 __putc(digit + '0');
 399              		.loc 1 133 17 is_stmt 1
 134:src/my_console.cpp ****                 n = n % initial;
 400              		.loc 1 134 17
 134:src/my_console.cpp ****                 n = n % initial;
 401              		.loc 1 134 23 is_stmt 0
 402 0224 9B870703 		addiw	a5,a5,48
 403              	.LVL42:
 404 0228 13F5F70F 		andi	a0,a5,0xff
 405 022c 97000000 		call	__putc@plt
 405      E7800000 
 406              	.LVL43:
 135:src/my_console.cpp ****             }
 407              		.loc 1 135 17 is_stmt 1
 135:src/my_console.cpp ****             }
 408              		.loc 1 135 19 is_stmt 0
GAS LISTING /tmp/ccZi2G4F.s 			page 12


 409 0234 3B699902 		remw	s2,s2,s1
 410              	.LVL44:
 133:src/my_console.cpp ****                 __putc(digit + '0');
 411              		.loc 1 133 32
 412 0238 93061000 		li	a3,1
 413              	.LVL45:
 414              	.L28:
 137:src/my_console.cpp ****         }
 415              		.loc 1 137 13 is_stmt 1
 137:src/my_console.cpp ****         }
 416              		.loc 1 137 21 is_stmt 0
 417 023c 9307A000 		li	a5,10
 418 0240 BBC4F402 		divw	s1,s1,a5
 419              	.LVL46:
 420              	.L26:
 421              	.LBE12:
 128:src/my_console.cpp ****         {
 422              		.loc 1 128 9 is_stmt 1
 128:src/my_console.cpp ****         {
 423              		.loc 1 128 23
 424 0244 E35690F8 		blez	s1,.L21
 425              	.LBB13:
 130:src/my_console.cpp ****             if (digit > 0 || alreadyWritten)
 426              		.loc 1 130 13
 130:src/my_console.cpp ****             if (digit > 0 || alreadyWritten)
 427              		.loc 1 130 17 is_stmt 0
 428 0248 BB479902 		divw	a5,s2,s1
 429 024c 1B870700 		sext.w	a4,a5
 430              	.LVL47:
 131:src/my_console.cpp ****             {
 431              		.loc 1 131 13 is_stmt 1
 432 0250 E34AE0FC 		bgtz	a4,.L27
 131:src/my_console.cpp ****             {
 433              		.loc 1 131 27 is_stmt 0 discriminator 1
 434 0254 E38406FE 		beqz	a3,.L28
 435 0258 6FF0DFFC 		j	.L27
 436              	.LBE13:
 437              	.LBE14:
 438              	.LBE15:
 439              	.LBE17:
 440              		.cfi_endproc
 441              	.LFE6:
 443              		.section	.rodata.str1.8
 444 00bc 00000000 		.align	3
 445              	.LC4:
 446 00c0 3D3D3D3D 		.string	"===================== ASSERT file: "
 446      3D3D3D3D 
 446      3D3D3D3D 
 446      3D3D3D3D 
 446      3D3D3D3D 
 447 00e4 00000000 		.align	3
 448              	.LC5:
 449 00e8 7372632F 		.string	"src/my_console.cpp"
 449      6D795F63 
 449      6F6E736F 
 449      6C652E63 
 449      707000
GAS LISTING /tmp/ccZi2G4F.s 			page 13


 450 00fb 00000000 		.align	3
 450      00
 451              	.LC6:
 452 0100 20202020 		.string	"    line: "
 452      6C696E65 
 452      3A2000
 453 010b 00000000 		.align	3
 453      00
 454              	.LC7:
 455 0110 2020203D 		.string	"   ==========================="
 455      3D3D3D3D 
 455      3D3D3D3D 
 455      3D3D3D3D 
 455      3D3D3D3D 
 456              		.text
 457              		.align	2
 458              		.globl	_Z9putBinarym
 460              	_Z9putBinarym:
 461              	.LFB4:
  38:src/my_console.cpp ****     assert(false);
 462              		.loc 1 38 1 is_stmt 1
 463              		.cfi_startproc
 464              	.LVL48:
 465 025c 130101FF 		addi	sp,sp,-16
 466              		.cfi_def_cfa_offset 16
 467 0260 23341100 		sd	ra,8(sp)
 468 0264 23308100 		sd	s0,0(sp)
 469              		.cfi_offset 1, -8
 470              		.cfi_offset 8, -16
 471 0268 13040101 		addi	s0,sp,16
 472              		.cfi_def_cfa 8, 0
  39:src/my_console.cpp ****     if(n < 0)
 473              		.loc 1 39 5
 474              	.LVL49:
 475              	.LBB23:
 476              	.LBB24:
 477              		.file 2 "src/../h/my_console.h"
   1:src/../h/my_console.h **** #pragma once
   2:src/../h/my_console.h **** 
   3:src/../h/my_console.h **** #include "../lib/console.h"
   4:src/../h/my_console.h **** #include "../lib/hw.h"
   5:src/../h/my_console.h **** #include "../h/risc.h"
   6:src/../h/my_console.h **** 
   7:src/../h/my_console.h **** void putString(const char* s);
   8:src/../h/my_console.h **** void putInt(int n);
   9:src/../h/my_console.h **** void putNewline();
  10:src/../h/my_console.h **** void putU64(uint64 n);
  11:src/../h/my_console.h **** void putBinary(uint64 n);
  12:src/../h/my_console.h **** void stopKernel();
  13:src/../h/my_console.h **** 
  14:src/../h/my_console.h **** inline void _assert(bool valid, const char* file, int line)
  15:src/../h/my_console.h **** {
  16:src/../h/my_console.h ****     if(valid)
 478              		.loc 2 16 5
  17:src/../h/my_console.h ****         return;
  18:src/../h/my_console.h **** 
  19:src/../h/my_console.h ****     putString("===================== ASSERT file: ");
GAS LISTING /tmp/ccZi2G4F.s 			page 14


 479              		.loc 2 19 5
 480              		.loc 2 19 14 is_stmt 0
 481 026c 17050000 		lla	a0,.LC4
 481      13050500 
 482              	.LVL50:
 483 0274 97000000 		call	_Z9putStringPKc
 483      E7800000 
 484              	.LVL51:
  20:src/../h/my_console.h ****     putString(file);
 485              		.loc 2 20 5 is_stmt 1
 486              		.loc 2 20 14 is_stmt 0
 487 027c 17050000 		lla	a0,.LC5
 487      13050500 
 488 0284 97000000 		call	_Z9putStringPKc
 488      E7800000 
 489              	.LVL52:
  21:src/../h/my_console.h ****     putString("    line: ");
 490              		.loc 2 21 5 is_stmt 1
 491              		.loc 2 21 14 is_stmt 0
 492 028c 17050000 		lla	a0,.LC6
 492      13050500 
 493 0294 97000000 		call	_Z9putStringPKc
 493      E7800000 
 494              	.LVL53:
  22:src/../h/my_console.h ****     putInt(line);
 495              		.loc 2 22 5 is_stmt 1
 496              		.loc 2 22 11 is_stmt 0
 497 029c 13057002 		li	a0,39
 498 02a0 97000000 		call	_Z6putInti
 498      E7800000 
 499              	.LVL54:
  23:src/../h/my_console.h ****     putString("   ===========================");
 500              		.loc 2 23 5 is_stmt 1
 501              		.loc 2 23 14 is_stmt 0
 502 02a8 17050000 		lla	a0,.LC7
 502      13050500 
 503 02b0 97000000 		call	_Z9putStringPKc
 503      E7800000 
 504              	.LVL55:
  24:src/../h/my_console.h ****     putNewline();
 505              		.loc 2 24 5 is_stmt 1
 506              		.loc 2 24 15 is_stmt 0
 507 02b8 97000000 		call	_Z10putNewlinev
 507      E7800000 
 508              	.LVL56:
  25:src/../h/my_console.h **** 
  26:src/../h/my_console.h ****     stopKernel();
 509              		.loc 2 26 5 is_stmt 1
 510              		.loc 2 26 15 is_stmt 0
 511 02c0 97000000 		call	_Z10stopKernelv
 511      E7800000 
 512              	.LVL57:
 513              	.LBE24:
 514              	.LBE23:
 515              		.cfi_endproc
 516              	.LFE4:
 518              		.section	.rodata.cst8,"aM",@progbits,8
GAS LISTING /tmp/ccZi2G4F.s 			page 15


 519              		.align	3
 520              	.LC1:
 521 0000 000064A7 		.dword	1000000000000000000
 521      B3B6E00D 
 522              		.text
 523              	.Letext0:
 524              		.file 3 "src/../h/../lib/hw.h"
 525              		.file 4 "src/../h/../lib/console.h"
GAS LISTING /tmp/ccZi2G4F.s 			page 16


DEFINED SYMBOLS
                            *ABS*:0000000000000000 my_console.cpp
     /tmp/ccZi2G4F.s:9      .text:0000000000000000 _Z10putNewlinev
     /tmp/ccZi2G4F.s:13     .text:0000000000000000 .L0 
     /tmp/ccZi2G4F.s:14     .text:0000000000000000 .L0 
     /tmp/ccZi2G4F.s:15     .text:0000000000000004 .L0 
     /tmp/ccZi2G4F.s:18     .text:000000000000000c .L0 
     /tmp/ccZi2G4F.s:19     .text:000000000000000c .L0 
     /tmp/ccZi2G4F.s:21     .text:0000000000000010 .L0 
     /tmp/ccZi2G4F.s:23     .text:0000000000000010 .L0 
     /tmp/ccZi2G4F.s:24     .text:0000000000000010 .L0 
     /tmp/ccZi2G4F.s:28     .text:000000000000001c .L0 
     /tmp/ccZi2G4F.s:29     .text:0000000000000020 .L0 
     /tmp/ccZi2G4F.s:31     .text:0000000000000024 .L0 
     /tmp/ccZi2G4F.s:32     .text:0000000000000024 .L0 
     /tmp/ccZi2G4F.s:34     .text:0000000000000028 .L0 
     /tmp/ccZi2G4F.s:36     .text:000000000000002c .L0 
     /tmp/ccZi2G4F.s:42     .text:000000000000002c _Z9putStringPKc
     /tmp/ccZi2G4F.s:45     .text:000000000000002c .L0 
     /tmp/ccZi2G4F.s:47     .text:000000000000002c .L0 
     /tmp/ccZi2G4F.s:48     .text:0000000000000030 .L0 
     /tmp/ccZi2G4F.s:53     .text:0000000000000040 .L0 
     /tmp/ccZi2G4F.s:54     .text:0000000000000040 .L0 
     /tmp/ccZi2G4F.s:55     .text:0000000000000040 .L0 
     /tmp/ccZi2G4F.s:56     .text:0000000000000040 .L0 
     /tmp/ccZi2G4F.s:58     .text:0000000000000044 .L0 
     /tmp/ccZi2G4F.s:62     .text:0000000000000048 .L0 
     /tmp/ccZi2G4F.s:63     .text:0000000000000048 .L0 
     /tmp/ccZi2G4F.s:67     .text:000000000000004c .L0 
     /tmp/ccZi2G4F.s:68     .text:000000000000004c .L0 
     /tmp/ccZi2G4F.s:69     .text:000000000000004c .L0 
     /tmp/ccZi2G4F.s:72     .text:0000000000000054 .L0 
     /tmp/ccZi2G4F.s:74     .text:0000000000000058 .L0 
     /tmp/ccZi2G4F.s:75     .text:0000000000000058 .L0 
     /tmp/ccZi2G4F.s:78     .text:000000000000005c .L0 
     /tmp/ccZi2G4F.s:81     .text:0000000000000064 .L0 
     /tmp/ccZi2G4F.s:82     .text:0000000000000064 .L0 
     /tmp/ccZi2G4F.s:86     .text:0000000000000068 .L0 
     /tmp/ccZi2G4F.s:87     .text:000000000000006c .L0 
     /tmp/ccZi2G4F.s:89     .text:0000000000000070 .L0 
     /tmp/ccZi2G4F.s:90     .text:0000000000000070 .L0 
     /tmp/ccZi2G4F.s:92     .text:0000000000000074 .L0 
     /tmp/ccZi2G4F.s:95     .text:0000000000000078 .L0 
     /tmp/ccZi2G4F.s:98     .text:000000000000007c .L0 
     /tmp/ccZi2G4F.s:100    .text:0000000000000080 .L0 
     /tmp/ccZi2G4F.s:111    .text:0000000000000080 _Z10stopKernelv
     /tmp/ccZi2G4F.s:114    .text:0000000000000080 .L0 
     /tmp/ccZi2G4F.s:115    .text:0000000000000080 .L0 
     /tmp/ccZi2G4F.s:116    .text:0000000000000084 .L0 
     /tmp/ccZi2G4F.s:119    .text:000000000000008c .L0 
     /tmp/ccZi2G4F.s:120    .text:000000000000008c .L0 
     /tmp/ccZi2G4F.s:122    .text:0000000000000090 .L0 
     /tmp/ccZi2G4F.s:124    .text:0000000000000090 .L0 
     /tmp/ccZi2G4F.s:125    .text:0000000000000090 .L0 
     /tmp/ccZi2G4F.s:128    .text:0000000000000098 .L0 
     /tmp/ccZi2G4F.s:129    .text:0000000000000098 .L0 
     /tmp/ccZi2G4F.s:133    .text:00000000000000a8 .L0 
GAS LISTING /tmp/ccZi2G4F.s 			page 17


  src/my_console.cpp:14     .text:00000000000000a8 .L0 
     /tmp/ccZi2G4F.s:141    .text:00000000000000ac .L0 
     /tmp/ccZi2G4F.s:142    .text:00000000000000ac .L0 
     /tmp/ccZi2G4F.s:143    .text:00000000000000b0 .L0 
     /tmp/ccZi2G4F.s:154    .text:00000000000000b0 _Z6putU64m
     /tmp/ccZi2G4F.s:157    .text:00000000000000b0 .L0 
     /tmp/ccZi2G4F.s:159    .text:00000000000000b0 .L0 
     /tmp/ccZi2G4F.s:160    .text:00000000000000b4 .L0 
     /tmp/ccZi2G4F.s:165    .text:00000000000000c4 .L0 
     /tmp/ccZi2G4F.s:166    .text:00000000000000c4 .L0 
     /tmp/ccZi2G4F.s:167    .text:00000000000000c4 .L0 
     /tmp/ccZi2G4F.s:168    .text:00000000000000c4 .L0 
     /tmp/ccZi2G4F.s:170    .text:00000000000000c8 .L0 
     /tmp/ccZi2G4F.s:174    .text:00000000000000cc .L0 
     /tmp/ccZi2G4F.s:180    .text:00000000000000d4 .L0 
     /tmp/ccZi2G4F.s:182    .text:00000000000000d4 .L0 
     /tmp/ccZi2G4F.s:183    .text:00000000000000d4 .L0 
     /tmp/ccZi2G4F.s:186    .text:00000000000000e0 .L0 
     /tmp/ccZi2G4F.s:188    .text:00000000000000e4 .L0 
     /tmp/ccZi2G4F.s:194    .text:00000000000000f0 .L0 
     /tmp/ccZi2G4F.s:195    .text:00000000000000f0 .L0 
     /tmp/ccZi2G4F.s:203    .text:0000000000000100 .L0 
     /tmp/ccZi2G4F.s:204    .text:0000000000000104 .L0 
     /tmp/ccZi2G4F.s:205    .text:0000000000000104 .L0 
     /tmp/ccZi2G4F.s:207    .text:0000000000000108 .L0 
     /tmp/ccZi2G4F.s:208    .text:0000000000000108 .L0 
     /tmp/ccZi2G4F.s:210    .text:000000000000010c .L0 
     /tmp/ccZi2G4F.s:212    .text:0000000000000110 .L0 
     /tmp/ccZi2G4F.s:215    .text:0000000000000114 .L0 
     /tmp/ccZi2G4F.s:219    .text:0000000000000118 .L0 
     /tmp/ccZi2G4F.s:223    .text:0000000000000118 .L0 
     /tmp/ccZi2G4F.s:224    .text:0000000000000118 .L0 
     /tmp/ccZi2G4F.s:229    .text:0000000000000128 .L0 
     /tmp/ccZi2G4F.s:230    .text:0000000000000128 .L0 
     /tmp/ccZi2G4F.s:233    .text:0000000000000130 .L0 
     /tmp/ccZi2G4F.s:234    .text:0000000000000130 .L0 
     /tmp/ccZi2G4F.s:239    .text:0000000000000138 .L0 
     /tmp/ccZi2G4F.s:240    .text:0000000000000138 .L0 
     /tmp/ccZi2G4F.s:241    .text:0000000000000138 .L0 
     /tmp/ccZi2G4F.s:246    .text:0000000000000148 .L0 
     /tmp/ccZi2G4F.s:247    .text:0000000000000148 .L0 
     /tmp/ccZi2G4F.s:250    .text:000000000000014c .L0 
     /tmp/ccZi2G4F.s:254    .text:0000000000000150 .L0 
     /tmp/ccZi2G4F.s:255    .text:0000000000000150 .L0 
     /tmp/ccZi2G4F.s:261    .text:0000000000000158 .L0 
     /tmp/ccZi2G4F.s:262    .text:0000000000000158 .L0 
     /tmp/ccZi2G4F.s:265    .text:000000000000015c .L0 
     /tmp/ccZi2G4F.s:266    .text:000000000000015c .L0 
     /tmp/ccZi2G4F.s:268    .text:0000000000000160 .L0 
     /tmp/ccZi2G4F.s:271    .text:0000000000000164 .L0 
     /tmp/ccZi2G4F.s:273    .text:0000000000000168 .L0 
     /tmp/ccZi2G4F.s:278    .text:0000000000000170 .L0 
     /tmp/ccZi2G4F.s:289    .text:0000000000000170 _Z6putInti
     /tmp/ccZi2G4F.s:292    .text:0000000000000170 .L0 
     /tmp/ccZi2G4F.s:294    .text:0000000000000170 .L0 
     /tmp/ccZi2G4F.s:295    .text:0000000000000174 .L0 
     /tmp/ccZi2G4F.s:300    .text:0000000000000184 .L0 
GAS LISTING /tmp/ccZi2G4F.s 			page 18


     /tmp/ccZi2G4F.s:301    .text:0000000000000184 .L0 
     /tmp/ccZi2G4F.s:302    .text:0000000000000184 .L0 
     /tmp/ccZi2G4F.s:303    .text:0000000000000184 .L0 
     /tmp/ccZi2G4F.s:305    .text:0000000000000188 .L0 
     /tmp/ccZi2G4F.s:309    .text:000000000000018c .L0 
     /tmp/ccZi2G4F.s:310    .text:000000000000018c .L0 
     /tmp/ccZi2G4F.s:312    .text:0000000000000190 .L0 
     /tmp/ccZi2G4F.s:318    .text:0000000000000198 .L0 
     /tmp/ccZi2G4F.s:322    .text:000000000000019c .L0 
     /tmp/ccZi2G4F.s:323    .text:000000000000019c .L0 
     /tmp/ccZi2G4F.s:327    .text:00000000000001a8 .L0 
     /tmp/ccZi2G4F.s:330    .text:00000000000001b0 .L0 
     /tmp/ccZi2G4F.s:332    .text:00000000000001b4 .L0 
     /tmp/ccZi2G4F.s:340    .text:00000000000001c0 .L0 
     /tmp/ccZi2G4F.s:341    .text:00000000000001c0 .L0 
     /tmp/ccZi2G4F.s:350    .text:00000000000001d0 .L0 
     /tmp/ccZi2G4F.s:351    .text:00000000000001d4 .L0 
     /tmp/ccZi2G4F.s:352    .text:00000000000001d4 .L0 
     /tmp/ccZi2G4F.s:354    .text:00000000000001d8 .L0 
     /tmp/ccZi2G4F.s:355    .text:00000000000001d8 .L0 
     /tmp/ccZi2G4F.s:357    .text:00000000000001dc .L0 
     /tmp/ccZi2G4F.s:359    .text:00000000000001e0 .L0 
     /tmp/ccZi2G4F.s:361    .text:00000000000001e4 .L0 
     /tmp/ccZi2G4F.s:365    .text:00000000000001e8 .L0 
     /tmp/ccZi2G4F.s:369    .text:00000000000001e8 .L0 
     /tmp/ccZi2G4F.s:370    .text:00000000000001e8 .L0 
     /tmp/ccZi2G4F.s:375    .text:00000000000001f4 .L0 
     /tmp/ccZi2G4F.s:376    .text:00000000000001f4 .L0 
     /tmp/ccZi2G4F.s:384    .text:0000000000000204 .L0 
     /tmp/ccZi2G4F.s:385    .text:0000000000000204 .L0 
     /tmp/ccZi2G4F.s:390    .text:0000000000000214 .L0 
     /tmp/ccZi2G4F.s:391    .text:0000000000000214 .L0 
     /tmp/ccZi2G4F.s:394    .text:000000000000021c .L0 
     /tmp/ccZi2G4F.s:395    .text:000000000000021c .L0 
     /tmp/ccZi2G4F.s:400    .text:0000000000000224 .L0 
     /tmp/ccZi2G4F.s:401    .text:0000000000000224 .L0 
     /tmp/ccZi2G4F.s:402    .text:0000000000000224 .L0 
     /tmp/ccZi2G4F.s:408    .text:0000000000000234 .L0 
     /tmp/ccZi2G4F.s:409    .text:0000000000000234 .L0 
     /tmp/ccZi2G4F.s:412    .text:0000000000000238 .L0 
     /tmp/ccZi2G4F.s:416    .text:000000000000023c .L0 
     /tmp/ccZi2G4F.s:417    .text:000000000000023c .L0 
     /tmp/ccZi2G4F.s:423    .text:0000000000000244 .L0 
     /tmp/ccZi2G4F.s:424    .text:0000000000000244 .L0 
     /tmp/ccZi2G4F.s:427    .text:0000000000000248 .L0 
     /tmp/ccZi2G4F.s:428    .text:0000000000000248 .L0 
     /tmp/ccZi2G4F.s:432    .text:0000000000000250 .L0 
     /tmp/ccZi2G4F.s:434    .text:0000000000000254 .L0 
     /tmp/ccZi2G4F.s:440    .text:000000000000025c .L0 
     /tmp/ccZi2G4F.s:460    .text:000000000000025c _Z9putBinarym
     /tmp/ccZi2G4F.s:463    .text:000000000000025c .L0 
     /tmp/ccZi2G4F.s:465    .text:000000000000025c .L0 
     /tmp/ccZi2G4F.s:466    .text:0000000000000260 .L0 
     /tmp/ccZi2G4F.s:469    .text:0000000000000268 .L0 
     /tmp/ccZi2G4F.s:470    .text:0000000000000268 .L0 
     /tmp/ccZi2G4F.s:472    .text:000000000000026c .L0 
     /tmp/ccZi2G4F.s:478    .text:000000000000026c .L0 
GAS LISTING /tmp/ccZi2G4F.s 			page 19


     /tmp/ccZi2G4F.s:479    .text:000000000000026c .L0 
     /tmp/ccZi2G4F.s:480    .text:000000000000026c .L0 
     /tmp/ccZi2G4F.s:481    .text:000000000000026c .L0 
     /tmp/ccZi2G4F.s:486    .text:000000000000027c .L0 
     /tmp/ccZi2G4F.s:487    .text:000000000000027c .L0 
     /tmp/ccZi2G4F.s:491    .text:000000000000028c .L0 
     /tmp/ccZi2G4F.s:492    .text:000000000000028c .L0 
     /tmp/ccZi2G4F.s:496    .text:000000000000029c .L0 
     /tmp/ccZi2G4F.s:497    .text:000000000000029c .L0 
     /tmp/ccZi2G4F.s:501    .text:00000000000002a8 .L0 
     /tmp/ccZi2G4F.s:502    .text:00000000000002a8 .L0 
     /tmp/ccZi2G4F.s:506    .text:00000000000002b8 .L0 
     /tmp/ccZi2G4F.s:507    .text:00000000000002b8 .L0 
     /tmp/ccZi2G4F.s:510    .text:00000000000002c0 .L0 
     /tmp/ccZi2G4F.s:511    .text:00000000000002c0 .L0 
     /tmp/ccZi2G4F.s:515    .text:00000000000002c8 .L0 
     /tmp/ccZi2G4F.s:526    .text:00000000000002c8 .L0 
     /tmp/ccZi2G4F.s:105    .rodata.str1.8:0000000000000000 .LC0
     /tmp/ccZi2G4F.s:129    .text:0000000000000098 .L0 
     /tmp/ccZi2G4F.s:520    .rodata.cst8:0000000000000000 .LC1
     /tmp/ccZi2G4F.s:183    .text:00000000000000d4 .L0 
     /tmp/ccZi2G4F.s:188    .text:00000000000000e4 .L0 
     /tmp/ccZi2G4F.s:148    .rodata.str1.8:0000000000000028 .LC2
     /tmp/ccZi2G4F.s:224    .text:0000000000000118 .L0 
     /tmp/ccZi2G4F.s:283    .rodata.str1.8:0000000000000070 .LC3
     /tmp/ccZi2G4F.s:385    .text:0000000000000204 .L0 
     /tmp/ccZi2G4F.s:445    .rodata.str1.8:00000000000000c0 .LC4
     /tmp/ccZi2G4F.s:481    .text:000000000000026c .L0 
     /tmp/ccZi2G4F.s:448    .rodata.str1.8:00000000000000e8 .LC5
     /tmp/ccZi2G4F.s:487    .text:000000000000027c .L0 
     /tmp/ccZi2G4F.s:451    .rodata.str1.8:0000000000000100 .LC6
     /tmp/ccZi2G4F.s:492    .text:000000000000028c .L0 
     /tmp/ccZi2G4F.s:454    .rodata.str1.8:0000000000000110 .LC7
     /tmp/ccZi2G4F.s:502    .text:00000000000002a8 .L0 
     /tmp/ccZi2G4F.s:84     .text:0000000000000068 .L6
     /tmp/ccZi2G4F.s:65     .text:000000000000004c .L5
     /tmp/ccZi2G4F.s:139    .text:00000000000000ac .L9
     /tmp/ccZi2G4F.s:191    .text:00000000000000f0 .L19
     /tmp/ccZi2G4F.s:218    .text:0000000000000118 .L20
     /tmp/ccZi2G4F.s:258    .text:0000000000000158 .L14
     /tmp/ccZi2G4F.s:200    .text:0000000000000100 .L11
     /tmp/ccZi2G4F.s:236    .text:0000000000000138 .L15
     /tmp/ccZi2G4F.s:252    .text:0000000000000150 .L16
     /tmp/ccZi2G4F.s:336    .text:00000000000001c0 .L31
     /tmp/ccZi2G4F.s:364    .text:00000000000001e8 .L32
     /tmp/ccZi2G4F.s:381    .text:0000000000000204 .L25
     /tmp/ccZi2G4F.s:420    .text:0000000000000244 .L26
     /tmp/ccZi2G4F.s:347    .text:00000000000001d0 .L21
     /tmp/ccZi2G4F.s:397    .text:0000000000000224 .L27
     /tmp/ccZi2G4F.s:414    .text:000000000000023c .L28
     /tmp/ccZi2G4F.s:1103   .debug_abbrev:0000000000000000 .Ldebug_abbrev0
     /tmp/ccZi2G4F.s:1807   .debug_str:0000000000000128 .LASF37
     /tmp/ccZi2G4F.s:1767   .debug_str:000000000000001e .LASF38
     /tmp/ccZi2G4F.s:1771   .debug_str:0000000000000038 .LASF39
     /tmp/ccZi2G4F.s:5      .text:0000000000000000 .Ltext0
     /tmp/ccZi2G4F.s:523    .text:00000000000002c8 .Letext0
     /tmp/ccZi2G4F.s:1761   .debug_line:0000000000000000 .Ldebug_line0
GAS LISTING /tmp/ccZi2G4F.s 			page 20


     /tmp/ccZi2G4F.s:1795   .debug_str:00000000000000db .LASF0
     /tmp/ccZi2G4F.s:1811   .debug_str:00000000000001fc .LASF1
     /tmp/ccZi2G4F.s:1797   .debug_str:00000000000000ed .LASF2
     /tmp/ccZi2G4F.s:1789   .debug_str:00000000000000b3 .LASF3
     /tmp/ccZi2G4F.s:1775   .debug_str:000000000000005a .LASF4
     /tmp/ccZi2G4F.s:1799   .debug_str:0000000000000100 .LASF5
     /tmp/ccZi2G4F.s:1765   .debug_str:000000000000000b .LASF6
     /tmp/ccZi2G4F.s:1785   .debug_str:0000000000000091 .LASF7
     /tmp/ccZi2G4F.s:1821   .debug_str:0000000000000220 .LASF8
     /tmp/ccZi2G4F.s:1773   .debug_str:000000000000004c .LASF9
     /tmp/ccZi2G4F.s:1847   .debug_str:00000000000002c6 .LASF10
     /tmp/ccZi2G4F.s:1787   .debug_str:00000000000000a4 .LASF11
     /tmp/ccZi2G4F.s:1839   .debug_str:000000000000029a .LASF12
     /tmp/ccZi2G4F.s:1827   .debug_str:0000000000000256 .LASF13
     /tmp/ccZi2G4F.s:1801   .debug_str:0000000000000107 .LASF14
     /tmp/ccZi2G4F.s:1781   .debug_str:0000000000000071 .LASF15
     /tmp/ccZi2G4F.s:1823   .debug_str:0000000000000230 .LASF16
     /tmp/ccZi2G4F.s:1845   .debug_str:00000000000002bf .LASF21
     /tmp/ccZi2G4F.s:1763   .debug_str:0000000000000000 .LASF23
     /tmp/ccZi2G4F.s:290    .text:0000000000000170 .LFB6
     /tmp/ccZi2G4F.s:441    .text:000000000000025c .LFE6
     /tmp/ccZi2G4F.s:1479   .debug_loc:0000000000000000 .LLST6
     /tmp/ccZi2G4F.s:1735   .debug_ranges:0000000000000000 .Ldebug_ranges0
     /tmp/ccZi2G4F.s:1837   .debug_str:0000000000000292 .LASF17
     /tmp/ccZi2G4F.s:1541   .debug_loc:00000000000000ff .LLST7
     /tmp/ccZi2G4F.s:1793   .debug_str:00000000000000cc .LASF18
     /tmp/ccZi2G4F.s:1560   .debug_loc:0000000000000152 .LLST8
     /tmp/ccZi2G4F.s:1813   .debug_str:0000000000000209 .LASF19
     /tmp/ccZi2G4F.s:1572   .debug_loc:0000000000000189 .LLST9
     /tmp/ccZi2G4F.s:406    .text:0000000000000234 .LVL43
     /tmp/ccZi2G4F.s:388    .text:0000000000000214 .LVL39
     /tmp/ccZi2G4F.s:392    .text:000000000000021c .LVL40
     /tmp/ccZi2G4F.s:396    .text:0000000000000224 .LVL41
     /tmp/ccZi2G4F.s:346    .text:00000000000001d0 .LVL32
     /tmp/ccZi2G4F.s:373    .text:00000000000001f4 .LVL35
     /tmp/ccZi2G4F.s:378    .text:0000000000000200 .LVL36
     /tmp/ccZi2G4F.s:1777   .debug_str:0000000000000061 .LASF20
     /tmp/ccZi2G4F.s:1769   .debug_str:0000000000000031 .LASF22
     /tmp/ccZi2G4F.s:1791   .debug_str:00000000000000c1 .LASF24
     /tmp/ccZi2G4F.s:155    .text:00000000000000b0 .LFB5
     /tmp/ccZi2G4F.s:279    .text:0000000000000170 .LFE5
     /tmp/ccZi2G4F.s:1598   .debug_loc:00000000000001ec .LLST2
     /tmp/ccZi2G4F.s:1617   .debug_loc:0000000000000248 .LLST3
     /tmp/ccZi2G4F.s:1636   .debug_loc:00000000000002a3 .LLST4
     /tmp/ccZi2G4F.s:1648   .debug_loc:00000000000002da .LLST5
     /tmp/ccZi2G4F.s:244    .text:0000000000000148 .LVL22
     /tmp/ccZi2G4F.s:227    .text:0000000000000128 .LVL19
     /tmp/ccZi2G4F.s:231    .text:0000000000000130 .LVL20
     /tmp/ccZi2G4F.s:235    .text:0000000000000138 .LVL21
     /tmp/ccZi2G4F.s:199    .text:0000000000000100 .LVL15
     /tmp/ccZi2G4F.s:1841   .debug_str:00000000000002aa .LASF25
     /tmp/ccZi2G4F.s:1831   .debug_str:000000000000026c .LASF26
     /tmp/ccZi2G4F.s:461    .text:000000000000025c .LFB4
     /tmp/ccZi2G4F.s:516    .text:00000000000002c8 .LFE4
     /tmp/ccZi2G4F.s:1674   .debug_loc:000000000000032e .LLST10
     /tmp/ccZi2G4F.s:475    .text:000000000000026c .LBB23
     /tmp/ccZi2G4F.s:514    .text:00000000000002c8 .LBE23
GAS LISTING /tmp/ccZi2G4F.s 			page 21


     /tmp/ccZi2G4F.s:484    .text:000000000000027c .LVL51
     /tmp/ccZi2G4F.s:489    .text:000000000000028c .LVL52
     /tmp/ccZi2G4F.s:494    .text:000000000000029c .LVL53
     /tmp/ccZi2G4F.s:499    .text:00000000000002a8 .LVL54
     /tmp/ccZi2G4F.s:504    .text:00000000000002b8 .LVL55
     /tmp/ccZi2G4F.s:508    .text:00000000000002c0 .LVL56
     /tmp/ccZi2G4F.s:512    .text:00000000000002c8 .LVL57
     /tmp/ccZi2G4F.s:1783   .debug_str:0000000000000087 .LASF27
     /tmp/ccZi2G4F.s:1835   .debug_str:0000000000000282 .LASF28
     /tmp/ccZi2G4F.s:43     .text:000000000000002c .LFB3
     /tmp/ccZi2G4F.s:101    .text:0000000000000080 .LFE3
     /tmp/ccZi2G4F.s:1688   .debug_loc:0000000000000367 .LLST0
     /tmp/ccZi2G4F.s:1706   .debug_loc:00000000000003b3 .LLST1
     /tmp/ccZi2G4F.s:79     .text:0000000000000064 .LVL5
     /tmp/ccZi2G4F.s:1815   .debug_str:000000000000020f .LASF29
     /tmp/ccZi2G4F.s:1843   .debug_str:00000000000002b4 .LASF30
     /tmp/ccZi2G4F.s:1809   .debug_str:00000000000001ec .LASF31
     /tmp/ccZi2G4F.s:10     .text:0000000000000000 .LFB2
     /tmp/ccZi2G4F.s:37     .text:000000000000002c .LFE2
     /tmp/ccZi2G4F.s:26     .text:000000000000001c .LVL0
     /tmp/ccZi2G4F.s:1779   .debug_str:0000000000000066 .LASF32
     /tmp/ccZi2G4F.s:1805   .debug_str:0000000000000118 .LASF33
     /tmp/ccZi2G4F.s:112    .text:0000000000000080 .LFB1
     /tmp/ccZi2G4F.s:144    .text:00000000000000b0 .LFE1
     /tmp/ccZi2G4F.s:126    .text:0000000000000098 .LVL9
     /tmp/ccZi2G4F.s:131    .text:00000000000000a8 .LVL10
     /tmp/ccZi2G4F.s:1833   .debug_str:000000000000027a .LASF40
     /tmp/ccZi2G4F.s:1825   .debug_str:0000000000000246 .LASF41
     /tmp/ccZi2G4F.s:1829   .debug_str:0000000000000266 .LASF34
     /tmp/ccZi2G4F.s:1803   .debug_str:0000000000000113 .LASF35
     /tmp/ccZi2G4F.s:1817   .debug_str:0000000000000214 .LASF36
     /tmp/ccZi2G4F.s:1819   .debug_str:0000000000000219 .LASF42
     /tmp/ccZi2G4F.s:293    .text:0000000000000170 .LVL27
     /tmp/ccZi2G4F.s:342    .text:00000000000001c4 .LVL30
     /tmp/ccZi2G4F.s:344    .text:00000000000001c8 .LVL31
     /tmp/ccZi2G4F.s:363    .text:00000000000001e8 .LVL33
     /tmp/ccZi2G4F.s:371    .text:00000000000001ec .LVL34
     /tmp/ccZi2G4F.s:380    .text:0000000000000204 .LVL37
     /tmp/ccZi2G4F.s:386    .text:000000000000020c .LVL38
     /tmp/ccZi2G4F.s:410    .text:0000000000000238 .LVL44
     /tmp/ccZi2G4F.s:413    .text:000000000000023c .LVL45
     /tmp/ccZi2G4F.s:321    .text:000000000000019c .LVL28
     /tmp/ccZi2G4F.s:335    .text:00000000000001c0 .LVL29
     /tmp/ccZi2G4F.s:403    .text:0000000000000228 .LVL42
     /tmp/ccZi2G4F.s:430    .text:0000000000000250 .LVL47
     /tmp/ccZi2G4F.s:158    .text:00000000000000b0 .LVL11
     /tmp/ccZi2G4F.s:196    .text:00000000000000f4 .LVL14
     /tmp/ccZi2G4F.s:213    .text:0000000000000110 .LVL16
     /tmp/ccZi2G4F.s:217    .text:0000000000000118 .LVL17
     /tmp/ccZi2G4F.s:225    .text:0000000000000120 .LVL18
     /tmp/ccZi2G4F.s:181    .text:00000000000000d4 .LVL12
     /tmp/ccZi2G4F.s:190    .text:00000000000000f0 .LVL13
     /tmp/ccZi2G4F.s:251    .text:0000000000000150 .LVL24
     /tmp/ccZi2G4F.s:248    .text:000000000000014c .LVL23
     /tmp/ccZi2G4F.s:269    .text:0000000000000164 .LVL26
     /tmp/ccZi2G4F.s:464    .text:000000000000025c .LVL48
     /tmp/ccZi2G4F.s:482    .text:0000000000000274 .LVL50
GAS LISTING /tmp/ccZi2G4F.s 			page 22


     /tmp/ccZi2G4F.s:46     .text:000000000000002c .LVL1
     /tmp/ccZi2G4F.s:64     .text:000000000000004c .LVL3
     /tmp/ccZi2G4F.s:96     .text:0000000000000078 .LVL8
     /tmp/ccZi2G4F.s:61     .text:0000000000000048 .LVL2
     /tmp/ccZi2G4F.s:76     .text:000000000000005c .LVL4
     /tmp/ccZi2G4F.s:83     .text:0000000000000068 .LVL6
     /tmp/ccZi2G4F.s:93     .text:0000000000000074 .LVL7
     /tmp/ccZi2G4F.s:527    .debug_info:0000000000000000 .Ldebug_info0
     /tmp/ccZi2G4F.s:179    .text:00000000000000d4 .LBB3
     /tmp/ccZi2G4F.s:192    .text:00000000000000f0 .LBE3
     /tmp/ccZi2G4F.s:221    .text:0000000000000118 .LBB6
     /tmp/ccZi2G4F.s:276    .text:0000000000000170 .LBE6
     /tmp/ccZi2G4F.s:237    .text:0000000000000138 .LBB4
     /tmp/ccZi2G4F.s:259    .text:0000000000000158 .LBE4
     /tmp/ccZi2G4F.s:263    .text:000000000000015c .LBB5
     /tmp/ccZi2G4F.s:275    .text:0000000000000170 .LBE5
     /tmp/ccZi2G4F.s:319    .text:000000000000019c .LBB11
     /tmp/ccZi2G4F.s:337    .text:00000000000001c0 .LBE11
     /tmp/ccZi2G4F.s:382    .text:0000000000000204 .LBB14
     /tmp/ccZi2G4F.s:437    .text:000000000000025c .LBE14
     /tmp/ccZi2G4F.s:398    .text:0000000000000224 .LBB12
     /tmp/ccZi2G4F.s:421    .text:0000000000000244 .LBE12
     /tmp/ccZi2G4F.s:425    .text:0000000000000248 .LBB13
     /tmp/ccZi2G4F.s:436    .text:000000000000025c .LBE13

UNDEFINED SYMBOLS
__putc
