GAS LISTING /tmp/ccSTlHiV.s 			page 1


   1              		.file	"risc.cpp"
   2              		.option pic
   3              		.option norelax
   4              		.text
   5              	.Ltext0:
   6              		.align	2
   7              		.globl	_Z24enableExternalInterruptsv
   9              	_Z24enableExternalInterruptsv:
  10              	.LFB0:
  11              		.file 1 "src/risc.cpp"
   1:src/risc.cpp  **** #include "../h/risc.h"
   2:src/risc.cpp  **** 
   3:src/risc.cpp  **** void enableExternalInterrupts()
   4:src/risc.cpp  **** {
  12              		.loc 1 4 1
  13              		.cfi_startproc
  14 0000 130101FF 		addi	sp,sp,-16
  15              		.cfi_def_cfa_offset 16
  16 0004 23348100 		sd	s0,8(sp)
  17              		.cfi_offset 8, -8
  18 0008 13040101 		addi	s0,sp,16
  19              		.cfi_def_cfa 8, 0
   5:src/risc.cpp  ****     __asm__ volatile ("csrs sstatus, 0x02"); // sets the "sie" bit to 1
  20              		.loc 1 5 5
  21              		.loc 1 5 44 is_stmt 0
  22              	#APP
  23              	# 5 "src/risc.cpp" 1
   6              	}
  24              		csrs sstatus, 0x02
  25              	# 0 "" 2
  26              		.loc 1 6 1
  27              	#NO_APP
  28 0010 03348100 		ld	s0,8(sp)
  29              		.cfi_restore 8
  30              		.cfi_def_cfa 2, 16
  31 0014 13010101 		addi	sp,sp,16
  32              		.cfi_def_cfa_offset 0
  33 0018 67800000 		jr	ra
  34              		.cfi_endproc
  35              	.LFE0:
  37              		.align	2
  38              		.globl	_Z25disableExternalInterruptsv
  40              	_Z25disableExternalInterruptsv:
  41              	.LFB1:
   7:src/risc.cpp  **** 
   8:src/risc.cpp  **** void disableExternalInterrupts()
   9:src/risc.cpp  **** {
  42              		.loc 1 9 1 is_stmt 1
  43              		.cfi_startproc
  44 001c 130101FF 		addi	sp,sp,-16
  45              		.cfi_def_cfa_offset 16
  46 0020 23348100 		sd	s0,8(sp)
  47              		.cfi_offset 8, -8
  48 0024 13040101 		addi	s0,sp,16
  49              		.cfi_def_cfa 8, 0
  10:src/risc.cpp  ****     __asm__ volatile ("csrc sstatus, 0x02"); // sets the "sie" bit to 0
  50              		.loc 1 10 5
GAS LISTING /tmp/ccSTlHiV.s 			page 2


  51              		.loc 1 10 44 is_stmt 0
  52              	#APP
  53              	# 10 "src/risc.cpp" 1
  11              	}
  54              		csrc sstatus, 0x02
  55              	# 0 "" 2
  56              		.loc 1 11 1
  57              	#NO_APP
  58 002c 03348100 		ld	s0,8(sp)
  59              		.cfi_restore 8
  60              		.cfi_def_cfa 2, 16
  61 0030 13010101 		addi	sp,sp,16
  62              		.cfi_def_cfa_offset 0
  63 0034 67800000 		jr	ra
  64              		.cfi_endproc
  65              	.LFE1:
  67              	.Letext0:
GAS LISTING /tmp/ccSTlHiV.s 			page 3

