GAS LISTING /tmp/ccs0tqDS.s 			page 1


   1              		.file	"scheduler.cpp"
   2              		.option pic
   3              		.option norelax
   4              		.text
   5              	.Ltext0:
   6              		.section	.rodata.str1.8,"aMS",@progbits,1
   7              		.align	3
   8              	.LC0:
   9 0000 3D3D3D3D 		.string	"===================== ASSERT file: "
   9      3D3D3D3D 
   9      3D3D3D3D 
   9      3D3D3D3D 
   9      3D3D3D3D 
  10 0024 00000000 		.align	3
  11              	.LC1:
  12 0028 7372632F 		.string	"src/scheduler.cpp"
  12      73636865 
  12      64756C65 
  12      722E6370 
  12      7000
  13 003a 00000000 		.align	3
  13      0000
  14              	.LC2:
  15 0040 20202020 		.string	"    line: "
  15      6C696E65 
  15      3A2000
  16 004b 00000000 		.align	3
  16      00
  17              	.LC3:
  18 0050 2020203D 		.string	"   ==========================="
  18      3D3D3D3D 
  18      3D3D3D3D 
  18      3D3D3D3D 
  18      3D3D3D3D 
  19              		.text
  20              		.align	2
  21              		.globl	_ZN9Scheduler3putEP6Thread
  23              	_ZN9Scheduler3putEP6Thread:
  24              	.LFB10:
  25              		.file 1 "src/scheduler.cpp"
   1:src/scheduler.cpp **** #include "../h/scheduler.h"
   2:src/scheduler.cpp **** 
   3:src/scheduler.cpp **** void Scheduler::dispatchToNext() // WARNING: different than sys. call dispatch()
   4:src/scheduler.cpp **** {
   5:src/scheduler.cpp ****     assert(&(Thread::getPRunning()->context[0]) == Thread::pRunningContext);
   6:src/scheduler.cpp **** 
   7:src/scheduler.cpp ****     Thread *pOld = Thread::getPRunning();
   8:src/scheduler.cpp ****     Thread *pNew = Scheduler::getNext();
   9:src/scheduler.cpp **** 
  10:src/scheduler.cpp ****     Scheduler::put(pOld);
  11:src/scheduler.cpp ****     Thread::setPRunning(pNew);
  12:src/scheduler.cpp ****     //__asm__ volatile ("csrw scratch, %[name]" : : [name] "r" (Thread::pRunning->context));
  13:src/scheduler.cpp **** }
  14:src/scheduler.cpp **** 
  15:src/scheduler.cpp **** void Scheduler::put(Thread* p)
  16:src/scheduler.cpp **** {
  26              		.loc 1 16 1
GAS LISTING /tmp/ccs0tqDS.s 			page 2


  27              		.cfi_startproc
  28              	.LVL0:
  17:src/scheduler.cpp ****     if(!p) return;
  29              		.loc 1 17 5
  30 0000 630A0506 		beqz	a0,.L1
  18:src/scheduler.cpp ****     assert(p->state == Thread::State::READY);
  31              		.loc 1 18 5
  32 0004 83270500 		lw	a5,0(a0)
  33 0008 9387E7FF 		addi	a5,a5,-2
  34              	.LVL1:
  35              	.LBB57:
  36              	.LBB58:
  37              		.file 2 "src/../h/../h/../h/my_console.h"
   1:src/../h/../h/../h/my_console.h **** #pragma once
   2:src/../h/../h/../h/my_console.h **** 
   3:src/../h/../h/../h/my_console.h **** #include "../h/risc.h"
   4:src/../h/../h/../h/my_console.h **** 
   5:src/../h/../h/../h/my_console.h **** #include "../lib/console.h"
   6:src/../h/../h/../h/my_console.h **** #include "../lib/hw.h"
   7:src/../h/../h/../h/my_console.h **** 
   8:src/../h/../h/../h/my_console.h **** #define __DEBUG_MODE
   9:src/../h/../h/../h/my_console.h **** 
  10:src/../h/../h/../h/my_console.h **** 
  11:src/../h/../h/../h/my_console.h **** void putString(const char* s);
  12:src/../h/../h/../h/my_console.h **** void putInt(int n);
  13:src/../h/../h/../h/my_console.h **** void putNewline();
  14:src/../h/../h/../h/my_console.h **** void putU64(uint64 n);
  15:src/../h/../h/../h/my_console.h **** void putBinary(uint64 n);
  16:src/../h/../h/../h/my_console.h **** 
  17:src/../h/../h/../h/my_console.h **** [[noreturn]] void stopKernel();
  18:src/../h/../h/../h/my_console.h **** 
  19:src/../h/../h/../h/my_console.h **** inline void _assert(bool valid, const char* file, int line) // MUST be inline
  20:src/../h/../h/../h/my_console.h **** {
  21:src/../h/../h/../h/my_console.h ****     if(valid)
  38              		.loc 2 21 5
  39 000c 63960706 		bnez	a5,.L12
  22:src/../h/../h/../h/my_console.h ****         return;
  40              		.loc 2 22 9
  41              	.LVL2:
  42              	.LBE58:
  43              	.LBE57:
  19:src/scheduler.cpp **** 
  20:src/scheduler.cpp ****     if(!(get()->pHead))
  44              		.loc 1 20 5
  45              	.LBB60:
  46              	.LBB61:
  47              		.file 3 "src/../h/scheduler.h"
   1:src/../h/scheduler.h **** #pragma once
   2:src/../h/scheduler.h **** 
   3:src/../h/scheduler.h **** #include "../h/thread.h"
   4:src/../h/scheduler.h **** 
   5:src/../h/scheduler.h **** class Scheduler // singleton
   6:src/../h/scheduler.h **** {
   7:src/../h/scheduler.h **** public:
   8:src/../h/scheduler.h ****     static Scheduler* get()
   9:src/../h/scheduler.h ****     {
  10:src/../h/scheduler.h ****         static Scheduler instance;
GAS LISTING /tmp/ccs0tqDS.s 			page 3


  48              		.loc 3 10 9
  49              		.loc 3 10 26 is_stmt 0
  50 0010 97070000 		lbu	a5,_ZGVZN9Scheduler3getEvE8instance
  50      83C70700 
  51 0018 639C0700 		bnez	a5,.L4
  52              	.LVL3:
  53              	.LBB62:
  54              	.LBB63:
  55              	.LBB64:
  11:src/../h/scheduler.h ****         return &instance;
  12:src/../h/scheduler.h ****     }
  13:src/../h/scheduler.h **** 
  14:src/../h/scheduler.h ****     static void dispatchToNext(); // WARNING: different than sys. call dispatch()
  15:src/../h/scheduler.h ****     static Thread* getNext();
  16:src/../h/scheduler.h ****     static void put(Thread*);
  17:src/../h/scheduler.h **** 
  18:src/../h/scheduler.h ****     Thread* pHead; // points to the one that is the next to be run
  19:src/../h/scheduler.h **** 
  20:src/../h/scheduler.h **** private:
  21:src/../h/scheduler.h ****     Scheduler()
  22:src/../h/scheduler.h ****         : pHead(nullptr)
  56              		.loc 3 22 24
  57 001c 97070000 		sd	zero,_ZZN9Scheduler3getEvE8instance,a5
  57      23B00700 
  58              	.LVL4:
  59              	.LBE64:
  60              	.LBE63:
  61              	.LBE62:
  10:src/../h/scheduler.h ****         return &instance;
  62              		.loc 3 10 26
  63 0024 93071000 		li	a5,1
  64 0028 17070000 		sb	a5,_ZGVZN9Scheduler3getEvE8instance,a4
  64      2300F700 
  65              	.L4:
  11:src/../h/scheduler.h ****         return &instance;
  66              		.loc 3 11 9 is_stmt 1
  67              	.LBE61:
  68              	.LBE60:
  69              		.loc 1 20 17 is_stmt 0
  70 0030 97070000 		ld	a5,_ZZN9Scheduler3getEvE8instance
  70      83B70700 
  71              		.loc 1 20 5
  72 0038 6386070A 		beqz	a5,.L13
  21:src/scheduler.cpp ****     {
  22:src/scheduler.cpp ****         get()->pHead = p;
  23:src/scheduler.cpp ****         return;
  24:src/scheduler.cpp ****     }
  25:src/scheduler.cpp **** 
  26:src/scheduler.cpp ****     Thread* pCur = get()->pHead;
  73              		.loc 1 26 5 is_stmt 1
  74              	.LBB65:
  75              	.LBB66:
  10:src/../h/scheduler.h ****         return &instance;
  76              		.loc 3 10 9
  10:src/../h/scheduler.h ****         return &instance;
  77              		.loc 3 10 26 is_stmt 0
  78 003c 97070000 		lbu	a5,_ZGVZN9Scheduler3getEvE8instance
GAS LISTING /tmp/ccs0tqDS.s 			page 4


  78      83C70700 
  79 0044 639C0700 		bnez	a5,.L7
  80              	.LVL5:
  81              	.LBB67:
  82              	.LBB68:
  83              	.LBB69:
  84              		.loc 3 22 24
  85 0048 97070000 		sd	zero,_ZZN9Scheduler3getEvE8instance,a5
  85      23B00700 
  86              	.LVL6:
  87              	.LBE69:
  88              	.LBE68:
  89              	.LBE67:
  10:src/../h/scheduler.h ****         return &instance;
  90              		.loc 3 10 26
  91 0050 93071000 		li	a5,1
  92 0054 17070000 		sb	a5,_ZGVZN9Scheduler3getEvE8instance,a4
  92      2300F700 
  93              	.L7:
  11:src/../h/scheduler.h ****     }
  94              		.loc 3 11 9 is_stmt 1
  95              	.LBE66:
  96              	.LBE65:
  97              		.loc 1 26 27 is_stmt 0
  98 005c 97070000 		ld	a5,_ZZN9Scheduler3getEvE8instance
  98      83B70700 
  99              	.LVL7:
 100              	.L8:
  27:src/scheduler.cpp ****     while(pCur->pNext)
 101              		.loc 1 27 5 is_stmt 1
 102              		.loc 1 27 17
 103 0064 13870700 		mv	a4,a5
 104 0068 83B7871B 		ld	a5,440(a5)
 105              	.LVL8:
 106 006c E39C07FE 		bnez	a5,.L8
  28:src/scheduler.cpp ****     {
  29:src/scheduler.cpp ****         pCur = pCur->pNext;
  30:src/scheduler.cpp ****     }
  31:src/scheduler.cpp ****     pCur->pNext = p;
 107              		.loc 1 31 5
 108              		.loc 1 31 17 is_stmt 0
 109 0070 233CA71A 		sd	a0,440(a4)
 110              	.LVL9:
 111              	.L1:
 112 0074 67800000 		ret
 113              	.LVL10:
 114              	.L12:
  16:src/scheduler.cpp ****     if(!p) return;
 115              		.loc 1 16 1
 116 0078 130101FF 		addi	sp,sp,-16
 117              		.cfi_def_cfa_offset 16
 118 007c 23341100 		sd	ra,8(sp)
 119 0080 23308100 		sd	s0,0(sp)
 120              		.cfi_offset 1, -8
 121              		.cfi_offset 8, -16
 122 0084 13040101 		addi	s0,sp,16
 123              		.cfi_def_cfa 8, 0
GAS LISTING /tmp/ccs0tqDS.s 			page 5


 124              	.LBB70:
 125              	.LBB59:
  23:src/../h/../h/../h/my_console.h **** 
  24:src/../h/../h/../h/my_console.h ****     putString("===================== ASSERT file: ");
 126              		.loc 2 24 5 is_stmt 1
 127              		.loc 2 24 14 is_stmt 0
 128 0088 17050000 		lla	a0,.LC0
 128      13050500 
 129              	.LVL11:
 130 0090 97000000 		call	_Z9putStringPKc@plt
 130      E7800000 
 131              	.LVL12:
  25:src/../h/../h/../h/my_console.h ****     putString(file);
 132              		.loc 2 25 5 is_stmt 1
 133              		.loc 2 25 14 is_stmt 0
 134 0098 17050000 		lla	a0,.LC1
 134      13050500 
 135 00a0 97000000 		call	_Z9putStringPKc@plt
 135      E7800000 
 136              	.LVL13:
  26:src/../h/../h/../h/my_console.h ****     putString("    line: ");
 137              		.loc 2 26 5 is_stmt 1
 138              		.loc 2 26 14 is_stmt 0
 139 00a8 17050000 		lla	a0,.LC2
 139      13050500 
 140 00b0 97000000 		call	_Z9putStringPKc@plt
 140      E7800000 
 141              	.LVL14:
  27:src/../h/../h/../h/my_console.h ****     putInt(line);
 142              		.loc 2 27 5 is_stmt 1
 143              		.loc 2 27 11 is_stmt 0
 144 00b8 13052001 		li	a0,18
 145 00bc 97000000 		call	_Z6putInti@plt
 145      E7800000 
 146              	.LVL15:
  28:src/../h/../h/../h/my_console.h ****     putString("   ===========================");
 147              		.loc 2 28 5 is_stmt 1
 148              		.loc 2 28 14 is_stmt 0
 149 00c4 17050000 		lla	a0,.LC3
 149      13050500 
 150 00cc 97000000 		call	_Z9putStringPKc@plt
 150      E7800000 
 151              	.LVL16:
  29:src/../h/../h/../h/my_console.h ****     putNewline();
 152              		.loc 2 29 5 is_stmt 1
 153              		.loc 2 29 15 is_stmt 0
 154 00d4 97000000 		call	_Z10putNewlinev@plt
 154      E7800000 
 155              	.LVL17:
  30:src/../h/../h/../h/my_console.h **** 
  31:src/../h/../h/../h/my_console.h ****     stopKernel();
 156              		.loc 2 31 5 is_stmt 1
 157              		.loc 2 31 15 is_stmt 0
 158 00dc 97000000 		call	_Z10stopKernelv@plt
 158      E7800000 
 159              	.LVL18:
 160              	.L13:
GAS LISTING /tmp/ccs0tqDS.s 			page 6


 161              		.cfi_def_cfa_register 2
 162              		.cfi_restore 1
 163              		.cfi_restore 8
 164              	.LBE59:
 165              	.LBE70:
  22:src/scheduler.cpp ****         return;
 166              		.loc 1 22 9 is_stmt 1
 167              	.LBB71:
 168              	.LBB72:
  10:src/../h/scheduler.h ****         return &instance;
 169              		.loc 3 10 9
  10:src/../h/scheduler.h ****         return &instance;
 170              		.loc 3 10 26 is_stmt 0
 171 00e4 97070000 		lbu	a5,_ZGVZN9Scheduler3getEvE8instance
 171      83C70700 
 172 00ec 63980700 		bnez	a5,.L6
 173 00f0 93071000 		li	a5,1
 174 00f4 17070000 		sb	a5,_ZGVZN9Scheduler3getEvE8instance,a4
 174      2300F700 
 175              	.L6:
  11:src/../h/scheduler.h ****     }
 176              		.loc 3 11 9 is_stmt 1
 177              	.LBE72:
 178              	.LBE71:
  22:src/scheduler.cpp ****         return;
 179              		.loc 1 22 22 is_stmt 0
 180 00fc 97070000 		sd	a0,_ZZN9Scheduler3getEvE8instance,a5
 180      23B0A700 
  23:src/scheduler.cpp ****     }
 181              		.loc 1 23 9 is_stmt 1
 182 0104 67800000 		ret
 183              		.cfi_endproc
 184              	.LFE10:
 186              		.align	2
 187              		.globl	_ZN9Scheduler7getNextEv
 189              	_ZN9Scheduler7getNextEv:
 190              	.LFB11:
  32:src/scheduler.cpp **** }
  33:src/scheduler.cpp **** 
  34:src/scheduler.cpp **** Thread* Scheduler::getNext()
  35:src/scheduler.cpp **** {
 191              		.loc 1 35 1
 192              		.cfi_startproc
 193 0108 130101FF 		addi	sp,sp,-16
 194              		.cfi_def_cfa_offset 16
 195 010c 23348100 		sd	s0,8(sp)
 196              		.cfi_offset 8, -8
 197 0110 13040101 		addi	s0,sp,16
 198              		.cfi_def_cfa 8, 0
  36:src/scheduler.cpp **** //    if(!pHead)
  37:src/scheduler.cpp **** //    {
  38:src/scheduler.cpp **** //        assert(false); // disabled because maby you can get the thread* and do something wrong wi
  39:src/scheduler.cpp **** //        return spinThread;
  40:src/scheduler.cpp **** //    }
  41:src/scheduler.cpp **** 
  42:src/scheduler.cpp ****     Thread* ret = get()->pHead;
 199              		.loc 1 42 5
GAS LISTING /tmp/ccs0tqDS.s 			page 7


 200              	.LBB73:
 201              	.LBB74:
  10:src/../h/scheduler.h ****         return &instance;
 202              		.loc 3 10 9
  10:src/../h/scheduler.h ****         return &instance;
 203              		.loc 3 10 26 is_stmt 0
 204 0114 97070000 		lbu	a5,_ZGVZN9Scheduler3getEvE8instance
 204      83C70700 
 205 011c 639C0700 		bnez	a5,.L15
 206              	.LVL19:
 207              	.LBB75:
 208              	.LBB76:
 209              	.LBB77:
 210              		.loc 3 22 24
 211 0120 97070000 		sd	zero,_ZZN9Scheduler3getEvE8instance,a5
 211      23B00700 
 212              	.LVL20:
 213              	.LBE77:
 214              	.LBE76:
 215              	.LBE75:
  10:src/../h/scheduler.h ****         return &instance;
 216              		.loc 3 10 26
 217 0128 93071000 		li	a5,1
 218 012c 17070000 		sb	a5,_ZGVZN9Scheduler3getEvE8instance,a4
 218      2300F700 
 219              	.L15:
  11:src/../h/scheduler.h ****     }
 220              		.loc 3 11 9 is_stmt 1
 221              	.LBE74:
 222              	.LBE73:
 223              		.loc 1 42 26 is_stmt 0
 224 0134 17050000 		ld	a0,_ZZN9Scheduler3getEvE8instance
 224      03350500 
 225              	.LVL21:
  43:src/scheduler.cpp ****     get()->pHead = get()->pHead->pNext;
 226              		.loc 1 43 5 is_stmt 1
 227              	.LBB78:
 228              	.LBB79:
  10:src/../h/scheduler.h ****         return &instance;
 229              		.loc 3 10 9
  10:src/../h/scheduler.h ****         return &instance;
 230              		.loc 3 10 26 is_stmt 0
 231 013c 97070000 		lbu	a5,_ZGVZN9Scheduler3getEvE8instance
 231      83C70700 
 232 0144 639C0700 		bnez	a5,.L16
 233              	.LVL22:
 234              	.LBB80:
 235              	.LBB81:
 236              	.LBB82:
 237              		.loc 3 22 24
 238 0148 97070000 		sd	zero,_ZZN9Scheduler3getEvE8instance,a5
 238      23B00700 
 239              	.LVL23:
 240              	.LBE82:
 241              	.LBE81:
 242              	.LBE80:
  10:src/../h/scheduler.h ****         return &instance;
GAS LISTING /tmp/ccs0tqDS.s 			page 8


 243              		.loc 3 10 26
 244 0150 93071000 		li	a5,1
 245 0154 17070000 		sb	a5,_ZGVZN9Scheduler3getEvE8instance,a4
 245      2300F700 
 246              	.L16:
  11:src/../h/scheduler.h ****     }
 247              		.loc 3 11 9 is_stmt 1
 248              	.LBE79:
 249              	.LBE78:
 250              		.loc 1 43 27 is_stmt 0
 251 015c 97070000 		ld	a5,_ZZN9Scheduler3getEvE8instance
 251      83B70700 
 252              	.LBB83:
 253              	.LBB84:
  10:src/../h/scheduler.h ****         return &instance;
 254              		.loc 3 10 9 is_stmt 1
  10:src/../h/scheduler.h ****         return &instance;
 255              		.loc 3 10 26 is_stmt 0
 256 0164 17070000 		lbu	a4,_ZGVZN9Scheduler3getEvE8instance
 256      03470700 
 257 016c 63180700 		bnez	a4,.L17
 258 0170 13071000 		li	a4,1
 259 0174 97060000 		sb	a4,_ZGVZN9Scheduler3getEvE8instance,a3
 259      2380E600 
 260              	.L17:
  11:src/../h/scheduler.h ****     }
 261              		.loc 3 11 9 is_stmt 1
 262              	.LBE84:
 263              	.LBE83:
 264              		.loc 1 43 34 is_stmt 0
 265 017c 83B7871B 		ld	a5,440(a5)
 266              		.loc 1 43 18
 267 0180 17070000 		sd	a5,_ZZN9Scheduler3getEvE8instance,a4
 267      2330F700 
  44:src/scheduler.cpp **** 
  45:src/scheduler.cpp ****     return ret;
 268              		.loc 1 45 5 is_stmt 1
  46:src/scheduler.cpp **** }...
 269              		.loc 1 46 1 is_stmt 0
 270 0188 03348100 		ld	s0,8(sp)
 271              		.cfi_restore 8
 272              		.cfi_def_cfa 2, 16
 273 018c 13010101 		addi	sp,sp,16
 274              		.cfi_def_cfa_offset 0
 275 0190 67800000 		jr	ra
 276              		.cfi_endproc
 277              	.LFE11:
 279              		.align	2
 280              		.globl	_ZN9Scheduler14dispatchToNextEv
 282              	_ZN9Scheduler14dispatchToNextEv:
 283              	.LFB9:
   4:src/scheduler.cpp **** {
 284              		.loc 1 4 1 is_stmt 1
 285              		.cfi_startproc
 286 0194 130101FD 		addi	sp,sp,-48
 287              		.cfi_def_cfa_offset 48
 288 0198 23341102 		sd	ra,40(sp)
GAS LISTING /tmp/ccs0tqDS.s 			page 9


 289 019c 23308102 		sd	s0,32(sp)
 290 01a0 233C9100 		sd	s1,24(sp)
 291 01a4 23382101 		sd	s2,16(sp)
 292 01a8 23343101 		sd	s3,8(sp)
 293              		.cfi_offset 1, -8
 294              		.cfi_offset 8, -16
 295              		.cfi_offset 9, -24
 296              		.cfi_offset 18, -32
 297              		.cfi_offset 19, -40
 298 01ac 13040103 		addi	s0,sp,48
 299              		.cfi_def_cfa 8, 0
   5:src/scheduler.cpp ****     assert(&(Thread::getPRunning()->context[0]) == Thread::pRunningContext);
 300              		.loc 1 5 5
 301              	.LBB93:
 302              	.LBB94:
 303              		.file 4 "src/../h/../h/thread.h"
   1:src/../h/../h/thread.h **** #pragma once
   2:src/../h/../h/thread.h **** 
   3:src/../h/../h/thread.h **** #include "../lib/hw.h"
   4:src/../h/../h/thread.h **** #include "../h/my_console.h"
   5:src/../h/../h/thread.h **** #include "../h/c_api.h"
   6:src/../h/../h/thread.h **** #include "../h/cpp_api.h"
   7:src/../h/../h/thread.h **** 
   8:src/../h/../h/thread.h **** #define NR_MAX_THREADS 10
   9:src/../h/../h/thread.h **** #define NR_REGISTERS 32
  10:src/../h/../h/thread.h **** #define ACTUAL_STACK_SIZE 4096*10
  11:src/../h/../h/thread.h **** 
  12:src/../h/../h/thread.h **** class Thread;
  13:src/../h/../h/thread.h **** typedef Thread* thread_t;
  14:src/../h/../h/thread.h **** 
  15:src/../h/../h/thread.h **** class Thread
  16:src/../h/../h/thread.h **** {
  17:src/../h/../h/thread.h **** public:
  18:src/../h/../h/thread.h ****     enum State
  19:src/../h/../h/thread.h ****     {
  20:src/../h/../h/thread.h ****         RUNNING = 0, SUSPENDED, READY, INITIALIZING, TERMINATING, NONEXISTENT
  21:src/../h/../h/thread.h ****     };
  22:src/../h/../h/thread.h ****     typedef void(*Body)(void*);
  23:src/../h/../h/thread.h ****     typedef uint64 Context[50+1]; // the +1 is for the sepc // temp 50
  24:src/../h/../h/thread.h **** 
  25:src/../h/../h/thread.h ****     static Thread** getAllThreads()
  26:src/../h/../h/thread.h ****     {
  27:src/../h/../h/thread.h ****         static bool firstCall = true;
  28:src/../h/../h/thread.h ****         static Thread* allThreads[NR_MAX_THREADS];
  29:src/../h/../h/thread.h **** 
  30:src/../h/../h/thread.h ****         if(firstCall)
  31:src/../h/../h/thread.h ****         {
  32:src/../h/../h/thread.h ****             for(int i=0; i<NR_MAX_THREADS; i++)
  33:src/../h/../h/thread.h ****                 allThreads[i] = nullptr;
  34:src/../h/../h/thread.h ****             firstCall = false;
  35:src/../h/../h/thread.h ****         }
  36:src/../h/../h/thread.h **** 
  37:src/../h/../h/thread.h ****         return allThreads;
  38:src/../h/../h/thread.h ****     }
  39:src/../h/../h/thread.h **** 
  40:src/../h/../h/thread.h ****     static uint64* pRunningContext;
  41:src/../h/../h/thread.h ****     static bool userThreadExists;
GAS LISTING /tmp/ccs0tqDS.s 			page 10


  42:src/../h/../h/thread.h ****     static uint64 timeSliceCounter;
  43:src/../h/../h/thread.h **** 
  44:src/../h/../h/thread.h ****     static Thread* getPRunning()
  45:src/../h/../h/thread.h ****     {
  46:src/../h/../h/thread.h ****         return pRunning;
 304              		.loc 4 46 9
 305              		.loc 4 46 16 is_stmt 0
 306 01b0 97070000 		la	a5,_ZN6Thread8pRunningE
 306      83B70700 
 307 01b8 83B70700 		ld	a5,0(a5)
 308              	.LBE94:
 309              	.LBE93:
   5:src/scheduler.cpp ****     assert(&(Thread::getPRunning()->context[0]) == Thread::pRunningContext);
 310              		.loc 1 5 5
 311 01bc 93870701 		addi	a5,a5,16
 312 01c0 17070000 		la	a4,_ZN6Thread15pRunningContextE
 312      03370700 
 313 01c8 03370700 		ld	a4,0(a4)
 314              	.LVL24:
 315              	.LBB95:
 316              	.LBB96:
  21:src/../h/../h/../h/my_console.h ****         return;
 317              		.loc 2 21 5 is_stmt 1
 318 01cc 631CF704 		bne	a4,a5,.L22
  22:src/../h/../h/../h/my_console.h **** 
 319              		.loc 2 22 9
 320              	.LVL25:
 321              	.LBE96:
 322              	.LBE95:
   7:src/scheduler.cpp ****     Thread *pOld = Thread::getPRunning();
 323              		.loc 1 7 5
 324              	.LBB98:
 325              	.LBB99:
 326              		.loc 4 46 9
 327              		.loc 4 46 16 is_stmt 0
 328 01d0 17090000 		la	s2,_ZN6Thread8pRunningE
 328      03390900 
 329 01d8 83390900 		ld	s3,0(s2)
 330              	.LVL26:
 331              	.LBE99:
 332              	.LBE98:
   8:src/scheduler.cpp ****     Thread *pNew = Scheduler::getNext();
 333              		.loc 1 8 5 is_stmt 1
   8:src/scheduler.cpp ****     Thread *pNew = Scheduler::getNext();
 334              		.loc 1 8 38 is_stmt 0
 335 01dc 97000000 		call	_ZN9Scheduler7getNextEv
 335      E7800000 
 336              	.LVL27:
 337 01e4 93040500 		mv	s1,a0
 338              	.LVL28:
  10:src/scheduler.cpp ****     Scheduler::put(pOld);
 339              		.loc 1 10 5 is_stmt 1
  10:src/scheduler.cpp ****     Scheduler::put(pOld);
 340              		.loc 1 10 19 is_stmt 0
 341 01e8 13850900 		mv	a0,s3
 342 01ec 97000000 		call	_ZN9Scheduler3putEP6Thread
 342      E7800000 
GAS LISTING /tmp/ccs0tqDS.s 			page 11


 343              	.LVL29:
  11:src/scheduler.cpp ****     Thread::setPRunning(pNew);
 344              		.loc 1 11 5 is_stmt 1
 345              	.LBB100:
 346              	.LBB101:
  47:src/../h/../h/thread.h ****     }
  48:src/../h/../h/thread.h **** 
  49:src/../h/../h/thread.h ****     static void setPRunning(Thread* p)
  50:src/../h/../h/thread.h ****     {
  51:src/../h/../h/thread.h ****         pRunning = p;
 347              		.loc 4 51 9
 348              		.loc 4 51 18 is_stmt 0
 349 01f4 23309900 		sd	s1,0(s2)
  52:src/../h/../h/thread.h ****         pRunningContext = &(p->context[0]);
 350              		.loc 4 52 9 is_stmt 1
 351              		.loc 4 52 27 is_stmt 0
 352 01f8 93840401 		addi	s1,s1,16
 353              	.LVL30:
 354              		.loc 4 52 25
 355 01fc 97070000 		la	a5,_ZN6Thread15pRunningContextE
 355      83B70700 
 356 0204 23B09700 		sd	s1,0(a5)
 357              	.LVL31:
 358              	.LBE101:
 359              	.LBE100:
  13:src/scheduler.cpp **** }
 360              		.loc 1 13 1
 361 0208 83308102 		ld	ra,40(sp)
 362              		.cfi_remember_state
 363              		.cfi_restore 1
 364 020c 03340102 		ld	s0,32(sp)
 365              		.cfi_restore 8
 366              		.cfi_def_cfa 2, 48
 367 0210 83348101 		ld	s1,24(sp)
 368              		.cfi_restore 9
 369 0214 03390101 		ld	s2,16(sp)
 370              		.cfi_restore 18
 371 0218 83398100 		ld	s3,8(sp)
 372              		.cfi_restore 19
 373              	.LVL32:
 374 021c 13010103 		addi	sp,sp,48
 375              		.cfi_def_cfa_offset 0
 376 0220 67800000 		jr	ra
 377              	.LVL33:
 378              	.L22:
 379              		.cfi_restore_state
 380              	.LBB102:
 381              	.LBB97:
  24:src/../h/../h/../h/my_console.h ****     putString(file);
 382              		.loc 2 24 5 is_stmt 1
  24:src/../h/../h/../h/my_console.h ****     putString(file);
 383              		.loc 2 24 14 is_stmt 0
 384 0224 17050000 		lla	a0,.LC0
 384      13050500 
 385 022c 97000000 		call	_Z9putStringPKc@plt
 385      E7800000 
 386              	.LVL34:
GAS LISTING /tmp/ccs0tqDS.s 			page 12


  25:src/../h/../h/../h/my_console.h ****     putString("    line: ");
 387              		.loc 2 25 5 is_stmt 1
  25:src/../h/../h/../h/my_console.h ****     putString("    line: ");
 388              		.loc 2 25 14 is_stmt 0
 389 0234 17050000 		lla	a0,.LC1
 389      13050500 
 390 023c 97000000 		call	_Z9putStringPKc@plt
 390      E7800000 
 391              	.LVL35:
  26:src/../h/../h/../h/my_console.h ****     putInt(line);
 392              		.loc 2 26 5 is_stmt 1
  26:src/../h/../h/../h/my_console.h ****     putInt(line);
 393              		.loc 2 26 14 is_stmt 0
 394 0244 17050000 		lla	a0,.LC2
 394      13050500 
 395 024c 97000000 		call	_Z9putStringPKc@plt
 395      E7800000 
 396              	.LVL36:
  27:src/../h/../h/../h/my_console.h ****     putString("   ===========================");
 397              		.loc 2 27 5 is_stmt 1
  27:src/../h/../h/../h/my_console.h ****     putString("   ===========================");
 398              		.loc 2 27 11 is_stmt 0
 399 0254 13055000 		li	a0,5
 400 0258 97000000 		call	_Z6putInti@plt
 400      E7800000 
 401              	.LVL37:
  28:src/../h/../h/../h/my_console.h ****     putNewline();
 402              		.loc 2 28 5 is_stmt 1
  28:src/../h/../h/../h/my_console.h ****     putNewline();
 403              		.loc 2 28 14 is_stmt 0
 404 0260 17050000 		lla	a0,.LC3
 404      13050500 
 405 0268 97000000 		call	_Z9putStringPKc@plt
 405      E7800000 
 406              	.LVL38:
  29:src/../h/../h/../h/my_console.h **** 
 407              		.loc 2 29 5 is_stmt 1
  29:src/../h/../h/../h/my_console.h **** 
 408              		.loc 2 29 15 is_stmt 0
 409 0270 97000000 		call	_Z10putNewlinev@plt
 409      E7800000 
 410              	.LVL39:
 411              		.loc 2 31 5 is_stmt 1
 412              		.loc 2 31 15 is_stmt 0
 413 0278 97000000 		call	_Z10stopKernelv@plt
 413      E7800000 
 414              	.LVL40:
 415              	.LBE97:
 416              	.LBE102:
 417              		.cfi_endproc
 418              	.LFE9:
 420              		.weak	_ZGVZN9Scheduler3getEvE8instance
 421              		.section	.bss._ZGVZN9Scheduler3getEvE8instance,"awG",@nobits,_ZGVZN9Scheduler3getEvE8instance,comd
 422              		.align	3
 425              	_ZGVZN9Scheduler3getEvE8instance:
 426 0000 00000000 		.zero	8
 426      00000000 
GAS LISTING /tmp/ccs0tqDS.s 			page 13


 427              		.weak	_ZZN9Scheduler3getEvE8instance
 428              		.section	.bss._ZZN9Scheduler3getEvE8instance,"awG",@nobits,_ZZN9Scheduler3getEvE8instance,comdat
 429              		.align	3
 432              	_ZZN9Scheduler3getEvE8instance:
 433 0000 00000000 		.zero	8
 433      00000000 
 434              		.text
 435              	.Letext0:
 436              		.file 5 "src/../h/../h/../lib/hw.h"
GAS LISTING /tmp/ccs0tqDS.s 			page 14


DEFINED SYMBOLS
                            *ABS*:0000000000000000 scheduler.cpp
     /tmp/ccs0tqDS.s:23     .text:0000000000000000 _ZN9Scheduler3putEP6Thread
     /tmp/ccs0tqDS.s:27     .text:0000000000000000 .L0 
     /tmp/ccs0tqDS.s:29     .text:0000000000000000 .L0 
     /tmp/ccs0tqDS.s:30     .text:0000000000000000 .L0 
     /tmp/ccs0tqDS.s:32     .text:0000000000000004 .L0 
     /tmp/ccs0tqDS.s:39     .text:000000000000000c .L0 
     /tmp/ccs0tqDS.s:44     .text:0000000000000010 .L0 
     /tmp/ccs0tqDS.s:48     .text:0000000000000010 .L0 
     /tmp/ccs0tqDS.s:49     .text:0000000000000010 .L0 
     /tmp/ccs0tqDS.s:425    .bss._ZGVZN9Scheduler3getEvE8instance:0000000000000000 _ZGVZN9Scheduler3getEvE8instance
     /tmp/ccs0tqDS.s:50     .text:0000000000000010 .L0 
     /tmp/ccs0tqDS.s:432    .bss._ZZN9Scheduler3getEvE8instance:0000000000000000 _ZZN9Scheduler3getEvE8instance
     /tmp/ccs0tqDS.s:57     .text:000000000000001c .L0 
     /tmp/ccs0tqDS.s:63     .text:0000000000000024 .L0 
     /tmp/ccs0tqDS.s:69     .text:0000000000000030 .L0 
     /tmp/ccs0tqDS.s:70     .text:0000000000000030 .L0 
     /tmp/ccs0tqDS.s:72     .text:0000000000000038 .L0 
     /tmp/ccs0tqDS.s:76     .text:000000000000003c .L0 
     /tmp/ccs0tqDS.s:77     .text:000000000000003c .L0 
     /tmp/ccs0tqDS.s:78     .text:000000000000003c .L0 
     /tmp/ccs0tqDS.s:85     .text:0000000000000048 .L0 
     /tmp/ccs0tqDS.s:91     .text:0000000000000050 .L0 
     /tmp/ccs0tqDS.s:97     .text:000000000000005c .L0 
     /tmp/ccs0tqDS.s:98     .text:000000000000005c .L0 
     /tmp/ccs0tqDS.s:102    .text:0000000000000064 .L0 
     /tmp/ccs0tqDS.s:103    .text:0000000000000064 .L0 
     /tmp/ccs0tqDS.s:108    .text:0000000000000070 .L0 
     /tmp/ccs0tqDS.s:109    .text:0000000000000070 .L0 
     /tmp/ccs0tqDS.s:116    .text:0000000000000078 .L0 
     /tmp/ccs0tqDS.s:117    .text:000000000000007c .L0 
     /tmp/ccs0tqDS.s:120    .text:0000000000000084 .L0 
     /tmp/ccs0tqDS.s:121    .text:0000000000000084 .L0 
     /tmp/ccs0tqDS.s:123    .text:0000000000000088 .L0 
     /tmp/ccs0tqDS.s:127    .text:0000000000000088 .L0 
     /tmp/ccs0tqDS.s:128    .text:0000000000000088 .L0 
     /tmp/ccs0tqDS.s:133    .text:0000000000000098 .L0 
     /tmp/ccs0tqDS.s:134    .text:0000000000000098 .L0 
     /tmp/ccs0tqDS.s:138    .text:00000000000000a8 .L0 
     /tmp/ccs0tqDS.s:139    .text:00000000000000a8 .L0 
     /tmp/ccs0tqDS.s:143    .text:00000000000000b8 .L0 
     /tmp/ccs0tqDS.s:144    .text:00000000000000b8 .L0 
     /tmp/ccs0tqDS.s:148    .text:00000000000000c4 .L0 
     /tmp/ccs0tqDS.s:149    .text:00000000000000c4 .L0 
     /tmp/ccs0tqDS.s:153    .text:00000000000000d4 .L0 
     /tmp/ccs0tqDS.s:154    .text:00000000000000d4 .L0 
     /tmp/ccs0tqDS.s:157    .text:00000000000000dc .L0 
     /tmp/ccs0tqDS.s:158    .text:00000000000000dc .L0 
     /tmp/ccs0tqDS.s:161    .text:00000000000000e4 .L0 
     /tmp/ccs0tqDS.s:162    .text:00000000000000e4 .L0 
     /tmp/ccs0tqDS.s:163    .text:00000000000000e4 .L0 
     /tmp/ccs0tqDS.s:169    .text:00000000000000e4 .L0 
     /tmp/ccs0tqDS.s:170    .text:00000000000000e4 .L0 
     /tmp/ccs0tqDS.s:171    .text:00000000000000e4 .L0 
     /tmp/ccs0tqDS.s:179    .text:00000000000000fc .L0 
     /tmp/ccs0tqDS.s:180    .text:00000000000000fc .L0 
GAS LISTING /tmp/ccs0tqDS.s 			page 15


     /tmp/ccs0tqDS.s:182    .text:0000000000000104 .L0 
     /tmp/ccs0tqDS.s:183    .text:0000000000000108 .L0 
     /tmp/ccs0tqDS.s:189    .text:0000000000000108 _ZN9Scheduler7getNextEv
     /tmp/ccs0tqDS.s:192    .text:0000000000000108 .L0 
     /tmp/ccs0tqDS.s:193    .text:0000000000000108 .L0 
     /tmp/ccs0tqDS.s:194    .text:000000000000010c .L0 
     /tmp/ccs0tqDS.s:196    .text:0000000000000110 .L0 
     /tmp/ccs0tqDS.s:198    .text:0000000000000114 .L0 
     /tmp/ccs0tqDS.s:202    .text:0000000000000114 .L0 
     /tmp/ccs0tqDS.s:203    .text:0000000000000114 .L0 
     /tmp/ccs0tqDS.s:204    .text:0000000000000114 .L0 
     /tmp/ccs0tqDS.s:211    .text:0000000000000120 .L0 
     /tmp/ccs0tqDS.s:217    .text:0000000000000128 .L0 
     /tmp/ccs0tqDS.s:223    .text:0000000000000134 .L0 
     /tmp/ccs0tqDS.s:224    .text:0000000000000134 .L0 
     /tmp/ccs0tqDS.s:229    .text:000000000000013c .L0 
     /tmp/ccs0tqDS.s:230    .text:000000000000013c .L0 
     /tmp/ccs0tqDS.s:231    .text:000000000000013c .L0 
     /tmp/ccs0tqDS.s:238    .text:0000000000000148 .L0 
     /tmp/ccs0tqDS.s:244    .text:0000000000000150 .L0 
     /tmp/ccs0tqDS.s:250    .text:000000000000015c .L0 
     /tmp/ccs0tqDS.s:251    .text:000000000000015c .L0 
     /tmp/ccs0tqDS.s:255    .text:0000000000000164 .L0 
     /tmp/ccs0tqDS.s:256    .text:0000000000000164 .L0 
     /tmp/ccs0tqDS.s:264    .text:000000000000017c .L0 
     /tmp/ccs0tqDS.s:265    .text:000000000000017c .L0 
     /tmp/ccs0tqDS.s:267    .text:0000000000000180 .L0 
     /tmp/ccs0tqDS.s:269    .text:0000000000000188 .L0 
     /tmp/ccs0tqDS.s:270    .text:0000000000000188 .L0 
     /tmp/ccs0tqDS.s:271    .text:000000000000018c .L0 
     /tmp/ccs0tqDS.s:272    .text:000000000000018c .L0 
     /tmp/ccs0tqDS.s:274    .text:0000000000000190 .L0 
     /tmp/ccs0tqDS.s:276    .text:0000000000000194 .L0 
     /tmp/ccs0tqDS.s:282    .text:0000000000000194 _ZN9Scheduler14dispatchToNextEv
     /tmp/ccs0tqDS.s:285    .text:0000000000000194 .L0 
     /tmp/ccs0tqDS.s:286    .text:0000000000000194 .L0 
     /tmp/ccs0tqDS.s:287    .text:0000000000000198 .L0 
     /tmp/ccs0tqDS.s:293    .text:00000000000001ac .L0 
     /tmp/ccs0tqDS.s:294    .text:00000000000001ac .L0 
     /tmp/ccs0tqDS.s:295    .text:00000000000001ac .L0 
     /tmp/ccs0tqDS.s:296    .text:00000000000001ac .L0 
     /tmp/ccs0tqDS.s:297    .text:00000000000001ac .L0 
     /tmp/ccs0tqDS.s:299    .text:00000000000001b0 .L0 
     /tmp/ccs0tqDS.s:304    .text:00000000000001b0 .L0 
     /tmp/ccs0tqDS.s:305    .text:00000000000001b0 .L0 
     /tmp/ccs0tqDS.s:306    .text:00000000000001b0 .L0 
     /tmp/ccs0tqDS.s:311    .text:00000000000001bc .L0 
     /tmp/ccs0tqDS.s:318    .text:00000000000001cc .L0 
     /tmp/ccs0tqDS.s:323    .text:00000000000001d0 .L0 
     /tmp/ccs0tqDS.s:326    .text:00000000000001d0 .L0 
     /tmp/ccs0tqDS.s:327    .text:00000000000001d0 .L0 
     /tmp/ccs0tqDS.s:328    .text:00000000000001d0 .L0 
     /tmp/ccs0tqDS.s:334    .text:00000000000001dc .L0 
     /tmp/ccs0tqDS.s:335    .text:00000000000001dc .L0 
     /tmp/ccs0tqDS.s:340    .text:00000000000001e8 .L0 
     /tmp/ccs0tqDS.s:341    .text:00000000000001e8 .L0 
     /tmp/ccs0tqDS.s:347    .text:00000000000001f4 .L0 
GAS LISTING /tmp/ccs0tqDS.s 			page 16


     /tmp/ccs0tqDS.s:348    .text:00000000000001f4 .L0 
     /tmp/ccs0tqDS.s:349    .text:00000000000001f4 .L0 
     /tmp/ccs0tqDS.s:351    .text:00000000000001f8 .L0 
     /tmp/ccs0tqDS.s:352    .text:00000000000001f8 .L0 
     /tmp/ccs0tqDS.s:355    .text:00000000000001fc .L0 
     /tmp/ccs0tqDS.s:361    .text:0000000000000208 .L0 
     /tmp/ccs0tqDS.s:362    .text:000000000000020c .L0 
     /tmp/ccs0tqDS.s:363    .text:000000000000020c .L0 
     /tmp/ccs0tqDS.s:365    .text:0000000000000210 .L0 
     /tmp/ccs0tqDS.s:366    .text:0000000000000210 .L0 
     /tmp/ccs0tqDS.s:368    .text:0000000000000214 .L0 
     /tmp/ccs0tqDS.s:370    .text:0000000000000218 .L0 
     /tmp/ccs0tqDS.s:372    .text:000000000000021c .L0 
     /tmp/ccs0tqDS.s:375    .text:0000000000000220 .L0 
     /tmp/ccs0tqDS.s:379    .text:0000000000000224 .L0 
     /tmp/ccs0tqDS.s:383    .text:0000000000000224 .L0 
     /tmp/ccs0tqDS.s:384    .text:0000000000000224 .L0 
     /tmp/ccs0tqDS.s:388    .text:0000000000000234 .L0 
     /tmp/ccs0tqDS.s:389    .text:0000000000000234 .L0 
     /tmp/ccs0tqDS.s:393    .text:0000000000000244 .L0 
     /tmp/ccs0tqDS.s:394    .text:0000000000000244 .L0 
     /tmp/ccs0tqDS.s:398    .text:0000000000000254 .L0 
     /tmp/ccs0tqDS.s:399    .text:0000000000000254 .L0 
     /tmp/ccs0tqDS.s:403    .text:0000000000000260 .L0 
     /tmp/ccs0tqDS.s:404    .text:0000000000000260 .L0 
     /tmp/ccs0tqDS.s:408    .text:0000000000000270 .L0 
     /tmp/ccs0tqDS.s:409    .text:0000000000000270 .L0 
     /tmp/ccs0tqDS.s:412    .text:0000000000000278 .L0 
     /tmp/ccs0tqDS.s:413    .text:0000000000000278 .L0 
     /tmp/ccs0tqDS.s:417    .text:0000000000000280 .L0 
     /tmp/ccs0tqDS.s:437    .text:0000000000000280 .L0 
     /tmp/ccs0tqDS.s:50     .text:0000000000000010 .L0 
     /tmp/ccs0tqDS.s:57     .text:000000000000001c .L0 
     /tmp/ccs0tqDS.s:64     .text:0000000000000028 .L0 
     /tmp/ccs0tqDS.s:70     .text:0000000000000030 .L0 
     /tmp/ccs0tqDS.s:78     .text:000000000000003c .L0 
     /tmp/ccs0tqDS.s:85     .text:0000000000000048 .L0 
     /tmp/ccs0tqDS.s:92     .text:0000000000000054 .L0 
     /tmp/ccs0tqDS.s:98     .text:000000000000005c .L0 
     /tmp/ccs0tqDS.s:8      .rodata.str1.8:0000000000000000 .LC0
     /tmp/ccs0tqDS.s:128    .text:0000000000000088 .L0 
     /tmp/ccs0tqDS.s:11     .rodata.str1.8:0000000000000028 .LC1
     /tmp/ccs0tqDS.s:134    .text:0000000000000098 .L0 
     /tmp/ccs0tqDS.s:14     .rodata.str1.8:0000000000000040 .LC2
     /tmp/ccs0tqDS.s:139    .text:00000000000000a8 .L0 
     /tmp/ccs0tqDS.s:17     .rodata.str1.8:0000000000000050 .LC3
     /tmp/ccs0tqDS.s:149    .text:00000000000000c4 .L0 
     /tmp/ccs0tqDS.s:171    .text:00000000000000e4 .L0 
     /tmp/ccs0tqDS.s:174    .text:00000000000000f4 .L0 
     /tmp/ccs0tqDS.s:180    .text:00000000000000fc .L0 
     /tmp/ccs0tqDS.s:204    .text:0000000000000114 .L0 
     /tmp/ccs0tqDS.s:211    .text:0000000000000120 .L0 
     /tmp/ccs0tqDS.s:218    .text:000000000000012c .L0 
     /tmp/ccs0tqDS.s:224    .text:0000000000000134 .L0 
     /tmp/ccs0tqDS.s:231    .text:000000000000013c .L0 
     /tmp/ccs0tqDS.s:238    .text:0000000000000148 .L0 
     /tmp/ccs0tqDS.s:245    .text:0000000000000154 .L0 
GAS LISTING /tmp/ccs0tqDS.s 			page 17


     /tmp/ccs0tqDS.s:251    .text:000000000000015c .L0 
     /tmp/ccs0tqDS.s:256    .text:0000000000000164 .L0 
     /tmp/ccs0tqDS.s:259    .text:0000000000000174 .L0 
     /tmp/ccs0tqDS.s:267    .text:0000000000000180 .L0 
     /tmp/ccs0tqDS.s:306    .text:00000000000001b0 .L0 
     /tmp/ccs0tqDS.s:312    .text:00000000000001c0 .L0 
     /tmp/ccs0tqDS.s:328    .text:00000000000001d0 .L0 
     /tmp/ccs0tqDS.s:355    .text:00000000000001fc .L0 
     /tmp/ccs0tqDS.s:384    .text:0000000000000224 .L0 
     /tmp/ccs0tqDS.s:389    .text:0000000000000234 .L0 
     /tmp/ccs0tqDS.s:394    .text:0000000000000244 .L0 
     /tmp/ccs0tqDS.s:404    .text:0000000000000260 .L0 
     /tmp/ccs0tqDS.s:111    .text:0000000000000074 .L1
     /tmp/ccs0tqDS.s:114    .text:0000000000000078 .L12
     /tmp/ccs0tqDS.s:65     .text:0000000000000030 .L4
     /tmp/ccs0tqDS.s:160    .text:00000000000000e4 .L13
     /tmp/ccs0tqDS.s:93     .text:000000000000005c .L7
     /tmp/ccs0tqDS.s:100    .text:0000000000000064 .L8
     /tmp/ccs0tqDS.s:175    .text:00000000000000fc .L6
     /tmp/ccs0tqDS.s:219    .text:0000000000000134 .L15
     /tmp/ccs0tqDS.s:246    .text:000000000000015c .L16
     /tmp/ccs0tqDS.s:260    .text:000000000000017c .L17
     /tmp/ccs0tqDS.s:378    .text:0000000000000224 .L22
     /tmp/ccs0tqDS.s:1367   .debug_abbrev:0000000000000000 .Ldebug_abbrev0
     /tmp/ccs0tqDS.s:2622   .debug_str:0000000000000255 .LASF76
     /tmp/ccs0tqDS.s:2596   .debug_str:00000000000001bc .LASF77
     /tmp/ccs0tqDS.s:2550   .debug_str:000000000000005d .LASF78
     /tmp/ccs0tqDS.s:5      .text:0000000000000000 .Ltext0
     /tmp/ccs0tqDS.s:435    .text:0000000000000280 .Letext0
     /tmp/ccs0tqDS.s:2532   .debug_line:0000000000000000 .Ldebug_line0
     /tmp/ccs0tqDS.s:2634   .debug_str:0000000000000360 .LASF0
     /tmp/ccs0tqDS.s:2604   .debug_str:00000000000001f6 .LASF1
     /tmp/ccs0tqDS.s:2590   .debug_str:000000000000019e .LASF2
     /tmp/ccs0tqDS.s:2556   .debug_str:0000000000000093 .LASF4
     /tmp/ccs0tqDS.s:2602   .debug_str:00000000000001e4 .LASF3
     /tmp/ccs0tqDS.s:2540   .debug_str:0000000000000023 .LASF5
     /tmp/ccs0tqDS.s:2536   .debug_str:0000000000000006 .LASF6
     /tmp/ccs0tqDS.s:2580   .debug_str:000000000000014d .LASF7
     /tmp/ccs0tqDS.s:2644   .debug_str:000000000000039b .LASF8
     /tmp/ccs0tqDS.s:2554   .debug_str:0000000000000085 .LASF9
     /tmp/ccs0tqDS.s:2708   .debug_str:000000000000056e .LASF10
     /tmp/ccs0tqDS.s:2584   .debug_str:0000000000000178 .LASF11
     /tmp/ccs0tqDS.s:2690   .debug_str:00000000000004e7 .LASF12
     /tmp/ccs0tqDS.s:2656   .debug_str:00000000000003ed .LASF13
     /tmp/ccs0tqDS.s:2608   .debug_str:000000000000020f .LASF14
     /tmp/ccs0tqDS.s:2570   .debug_str:00000000000000fb .LASF15
     /tmp/ccs0tqDS.s:2648   .debug_str:00000000000003b8 .LASF16
     /tmp/ccs0tqDS.s:2650   .debug_str:00000000000003ce .LASF17
     /tmp/ccs0tqDS.s:2588   .debug_str:0000000000000197 .LASF46
     /tmp/ccs0tqDS.s:2606   .debug_str:0000000000000209 .LASF79
     /tmp/ccs0tqDS.s:2692   .debug_str:00000000000004f7 .LASF18
     /tmp/ccs0tqDS.s:2612   .debug_str:000000000000022b .LASF19
     /tmp/ccs0tqDS.s:2598   .debug_str:00000000000001ce .LASF20
     /tmp/ccs0tqDS.s:2680   .debug_str:000000000000049d .LASF21
     /tmp/ccs0tqDS.s:2696   .debug_str:000000000000050b .LASF22
     /tmp/ccs0tqDS.s:2558   .debug_str:000000000000009a .LASF23
     /tmp/ccs0tqDS.s:2654   .debug_str:00000000000003df .LASF27
GAS LISTING /tmp/ccs0tqDS.s 			page 18


     /tmp/ccs0tqDS.s:2686   .debug_str:00000000000004bf .LASF29
     /tmp/ccs0tqDS.s:2618   .debug_str:000000000000023f .LASF24
     /tmp/ccs0tqDS.s:2668   .debug_str:000000000000044a .LASF25
     /tmp/ccs0tqDS.s:2662   .debug_str:0000000000000417 .LASF26
     /tmp/ccs0tqDS.s:2694   .debug_str:00000000000004ff .LASF28
     /tmp/ccs0tqDS.s:2702   .debug_str:0000000000000532 .LASF30
     /tmp/ccs0tqDS.s:2688   .debug_str:00000000000004db .LASF49
     /tmp/ccs0tqDS.s:2664   .debug_str:0000000000000428 .LASF50
     /tmp/ccs0tqDS.s:2646   .debug_str:00000000000003ab .LASF40
     /tmp/ccs0tqDS.s:2568   .debug_str:00000000000000d1 .LASF42
     /tmp/ccs0tqDS.s:2642   .debug_str:0000000000000396 .LASF35
     /tmp/ccs0tqDS.s:2672   .debug_str:0000000000000464 .LASF31
     /tmp/ccs0tqDS.s:2660   .debug_str:0000000000000405 .LASF32
     /tmp/ccs0tqDS.s:2544   .debug_str:0000000000000045 .LASF33
     /tmp/ccs0tqDS.s:2616   .debug_str:000000000000023a .LASF34
     /tmp/ccs0tqDS.s:2572   .debug_str:0000000000000111 .LASF36
     /tmp/ccs0tqDS.s:2652   .debug_str:00000000000003d7 .LASF37
     /tmp/ccs0tqDS.s:2698   .debug_str:0000000000000517 .LASF38
     /tmp/ccs0tqDS.s:2538   .debug_str:0000000000000019 .LASF39
     /tmp/ccs0tqDS.s:2546   .debug_str:000000000000004b .LASF41
     /tmp/ccs0tqDS.s:2706   .debug_str:0000000000000553 .LASF43
     /tmp/ccs0tqDS.s:2630   .debug_str:0000000000000338 .LASF45
     /tmp/ccs0tqDS.s:2542   .debug_str:000000000000002a .LASF47
     /tmp/ccs0tqDS.s:2534   .debug_str:0000000000000000 .LASF44
     /tmp/ccs0tqDS.s:2700   .debug_str:0000000000000523 .LASF48
     /tmp/ccs0tqDS.s:2676   .debug_str:0000000000000471 .LASF51
     /tmp/ccs0tqDS.s:2670   .debug_str:000000000000045b .LASF52
     /tmp/ccs0tqDS.s:2560   .debug_str:00000000000000a6 .LASF53
     /tmp/ccs0tqDS.s:2578   .debug_str:0000000000000143 .LASF54
     /tmp/ccs0tqDS.s:2552   .debug_str:0000000000000071 .LASF80
     /tmp/ccs0tqDS.s:2628   .debug_str:0000000000000329 .LASF81
     /tmp/ccs0tqDS.s:2576   .debug_str:0000000000000123 .LASF82
     /tmp/ccs0tqDS.s:2658   .debug_str:00000000000003fd .LASF55
     /tmp/ccs0tqDS.s:2582   .debug_str:0000000000000160 .LASF56
     /tmp/ccs0tqDS.s:2632   .debug_str:0000000000000345 .LASF83
     /tmp/ccs0tqDS.s:2620   .debug_str:000000000000024f .LASF57
     /tmp/ccs0tqDS.s:2564   .debug_str:00000000000000b6 .LASF62
     /tmp/ccs0tqDS.s:190    .text:0000000000000108 .LFB11
     /tmp/ccs0tqDS.s:277    .text:0000000000000194 .LFE11
     /tmp/ccs0tqDS.s:200    .text:0000000000000114 .LBB73
     /tmp/ccs0tqDS.s:222    .text:0000000000000134 .LBE73
     /tmp/ccs0tqDS.s:207    .text:0000000000000120 .LBB75
     /tmp/ccs0tqDS.s:215    .text:0000000000000128 .LBE75
     /tmp/ccs0tqDS.s:2319   .debug_loc:0000000000000000 .LLST7
     /tmp/ccs0tqDS.s:227    .text:000000000000013c .LBB78
     /tmp/ccs0tqDS.s:249    .text:000000000000015c .LBE78
     /tmp/ccs0tqDS.s:234    .text:0000000000000148 .LBB80
     /tmp/ccs0tqDS.s:242    .text:0000000000000150 .LBE80
     /tmp/ccs0tqDS.s:2328   .debug_loc:000000000000002c .LLST8
     /tmp/ccs0tqDS.s:252    .text:0000000000000164 .LBB83
     /tmp/ccs0tqDS.s:263    .text:000000000000017c .LBE83
     /tmp/ccs0tqDS.s:24     .text:0000000000000000 .LFB10
     /tmp/ccs0tqDS.s:184    .text:0000000000000108 .LFE10
     /tmp/ccs0tqDS.s:2337   .debug_loc:0000000000000058 .LLST0
     /tmp/ccs0tqDS.s:2548   .debug_str:0000000000000058 .LASF58
     /tmp/ccs0tqDS.s:2355   .debug_loc:00000000000000a4 .LLST1
     /tmp/ccs0tqDS.s:35     .text:000000000000000c .LBB57
GAS LISTING /tmp/ccs0tqDS.s 			page 19


     /tmp/ccs0tqDS.s:2518   .debug_ranges:0000000000000000 .Ldebug_ranges0
     /tmp/ccs0tqDS.s:2366   .debug_loc:00000000000000da .LLST2
     /tmp/ccs0tqDS.s:2379   .debug_loc:0000000000000112 .LLST3
     /tmp/ccs0tqDS.s:2394   .debug_loc:000000000000015a .LLST4
     /tmp/ccs0tqDS.s:131    .text:0000000000000098 .LVL12
     /tmp/ccs0tqDS.s:136    .text:00000000000000a8 .LVL13
     /tmp/ccs0tqDS.s:141    .text:00000000000000b8 .LVL14
     /tmp/ccs0tqDS.s:146    .text:00000000000000c4 .LVL15
     /tmp/ccs0tqDS.s:151    .text:00000000000000d4 .LVL16
     /tmp/ccs0tqDS.s:155    .text:00000000000000dc .LVL17
     /tmp/ccs0tqDS.s:159    .text:00000000000000e4 .LVL18
     /tmp/ccs0tqDS.s:45     .text:0000000000000010 .LBB60
     /tmp/ccs0tqDS.s:68     .text:0000000000000030 .LBE60
     /tmp/ccs0tqDS.s:53     .text:000000000000001c .LBB62
     /tmp/ccs0tqDS.s:61     .text:0000000000000024 .LBE62
     /tmp/ccs0tqDS.s:2413   .debug_loc:0000000000000198 .LLST5
     /tmp/ccs0tqDS.s:74     .text:000000000000003c .LBB65
     /tmp/ccs0tqDS.s:96     .text:000000000000005c .LBE65
     /tmp/ccs0tqDS.s:81     .text:0000000000000048 .LBB67
     /tmp/ccs0tqDS.s:89     .text:0000000000000050 .LBE67
     /tmp/ccs0tqDS.s:2422   .debug_loc:00000000000001c4 .LLST6
     /tmp/ccs0tqDS.s:167    .text:00000000000000e4 .LBB71
     /tmp/ccs0tqDS.s:178    .text:00000000000000fc .LBE71
     /tmp/ccs0tqDS.s:283    .text:0000000000000194 .LFB9
     /tmp/ccs0tqDS.s:418    .text:0000000000000280 .LFE9
     /tmp/ccs0tqDS.s:2684   .debug_str:00000000000004ba .LASF59
     /tmp/ccs0tqDS.s:2431   .debug_loc:00000000000001f0 .LLST9
     /tmp/ccs0tqDS.s:2626   .debug_str:0000000000000324 .LASF60
     /tmp/ccs0tqDS.s:2438   .debug_loc:0000000000000213 .LLST10
     /tmp/ccs0tqDS.s:301    .text:00000000000001b0 .LBB93
     /tmp/ccs0tqDS.s:309    .text:00000000000001bc .LBE93
     /tmp/ccs0tqDS.s:315    .text:00000000000001cc .LBB95
     /tmp/ccs0tqDS.s:2445   .debug_loc:0000000000000236 .LLST11
     /tmp/ccs0tqDS.s:2458   .debug_loc:000000000000026e .LLST12
     /tmp/ccs0tqDS.s:2473   .debug_loc:00000000000002b6 .LLST13
     /tmp/ccs0tqDS.s:386    .text:0000000000000234 .LVL34
     /tmp/ccs0tqDS.s:391    .text:0000000000000244 .LVL35
     /tmp/ccs0tqDS.s:396    .text:0000000000000254 .LVL36
     /tmp/ccs0tqDS.s:401    .text:0000000000000260 .LVL37
     /tmp/ccs0tqDS.s:406    .text:0000000000000270 .LVL38
     /tmp/ccs0tqDS.s:410    .text:0000000000000278 .LVL39
     /tmp/ccs0tqDS.s:414    .text:0000000000000280 .LVL40
     /tmp/ccs0tqDS.s:324    .text:00000000000001d0 .LBB98
     /tmp/ccs0tqDS.s:332    .text:00000000000001dc .LBE98
     /tmp/ccs0tqDS.s:345    .text:00000000000001f4 .LBB100
     /tmp/ccs0tqDS.s:359    .text:0000000000000208 .LBE100
     /tmp/ccs0tqDS.s:2498   .debug_loc:00000000000002fa .LLST14
     /tmp/ccs0tqDS.s:336    .text:00000000000001e4 .LVL27
     /tmp/ccs0tqDS.s:343    .text:00000000000001f4 .LVL29
     /tmp/ccs0tqDS.s:2592   .debug_str:00000000000001ac .LASF84
     /tmp/ccs0tqDS.s:2678   .debug_str:000000000000048b .LASF85
     /tmp/ccs0tqDS.s:2566   .debug_str:00000000000000c8 .LASF86
     /tmp/ccs0tqDS.s:2636   .debug_str:000000000000036d .LASF87
     /tmp/ccs0tqDS.s:2674   .debug_str:0000000000000469 .LASF61
     /tmp/ccs0tqDS.s:2610   .debug_str:000000000000021b .LASF63
     /tmp/ccs0tqDS.s:2666   .debug_str:0000000000000444 .LASF64
     /tmp/ccs0tqDS.s:2614   .debug_str:0000000000000235 .LASF65
GAS LISTING /tmp/ccs0tqDS.s 			page 20


     /tmp/ccs0tqDS.s:2640   .debug_str:0000000000000391 .LASF66
     /tmp/ccs0tqDS.s:2638   .debug_str:000000000000038c .LASF67
     /tmp/ccs0tqDS.s:2682   .debug_str:00000000000004aa .LASF68
     /tmp/ccs0tqDS.s:2574   .debug_str:0000000000000119 .LASF70
     /tmp/ccs0tqDS.s:2624   .debug_str:0000000000000319 .LASF69
     /tmp/ccs0tqDS.s:2704   .debug_str:000000000000054c .LASF71
     /tmp/ccs0tqDS.s:2586   .debug_str:0000000000000187 .LASF72
     /tmp/ccs0tqDS.s:2594   .debug_str:00000000000001b1 .LASF73
     /tmp/ccs0tqDS.s:2600   .debug_str:00000000000001d4 .LASF74
     /tmp/ccs0tqDS.s:2562   .debug_str:00000000000000ab .LASF75
     /tmp/ccs0tqDS.s:206    .text:0000000000000120 .LVL19
     /tmp/ccs0tqDS.s:212    .text:0000000000000128 .LVL20
     /tmp/ccs0tqDS.s:233    .text:0000000000000148 .LVL22
     /tmp/ccs0tqDS.s:239    .text:0000000000000150 .LVL23
     /tmp/ccs0tqDS.s:28     .text:0000000000000000 .LVL0
     /tmp/ccs0tqDS.s:129    .text:0000000000000090 .LVL11
     /tmp/ccs0tqDS.s:99     .text:0000000000000064 .LVL7
     /tmp/ccs0tqDS.s:105    .text:000000000000006c .LVL8
     /tmp/ccs0tqDS.s:110    .text:0000000000000074 .LVL9
     /tmp/ccs0tqDS.s:34     .text:000000000000000c .LVL1
     /tmp/ccs0tqDS.s:41     .text:0000000000000010 .LVL2
     /tmp/ccs0tqDS.s:113    .text:0000000000000078 .LVL10
     /tmp/ccs0tqDS.s:52     .text:000000000000001c .LVL3
     /tmp/ccs0tqDS.s:58     .text:0000000000000024 .LVL4
     /tmp/ccs0tqDS.s:80     .text:0000000000000048 .LVL5
     /tmp/ccs0tqDS.s:86     .text:0000000000000050 .LVL6
     /tmp/ccs0tqDS.s:330    .text:00000000000001dc .LVL26
     /tmp/ccs0tqDS.s:373    .text:000000000000021c .LVL32
     /tmp/ccs0tqDS.s:338    .text:00000000000001e8 .LVL28
     /tmp/ccs0tqDS.s:353    .text:00000000000001fc .LVL30
     /tmp/ccs0tqDS.s:314    .text:00000000000001cc .LVL24
     /tmp/ccs0tqDS.s:320    .text:00000000000001d0 .LVL25
     /tmp/ccs0tqDS.s:377    .text:0000000000000224 .LVL33
     /tmp/ccs0tqDS.s:438    .debug_info:0000000000000000 .Ldebug_info0
     /tmp/ccs0tqDS.s:43     .text:0000000000000010 .LBE57
     /tmp/ccs0tqDS.s:124    .text:0000000000000088 .LBB70
     /tmp/ccs0tqDS.s:165    .text:00000000000000e4 .LBE70
     /tmp/ccs0tqDS.s:322    .text:00000000000001d0 .LBE95
     /tmp/ccs0tqDS.s:380    .text:0000000000000224 .LBB102
     /tmp/ccs0tqDS.s:416    .text:0000000000000280 .LBE102

UNDEFINED SYMBOLS
_Z9putStringPKc
_Z6putInti
_Z10putNewlinev
_Z10stopKernelv
_ZN6Thread8pRunningE
_ZN6Thread15pRunningContextE
