GAS LISTING /tmp/ccGgmCTb.s 			page 1


   1              		.file	"scheduler.cpp"
   2              		.option pic
   3              		.option norelax
   4              		.text
   5              	.Ltext0:
   6              		.section	.rodata.str1.8,"aMS",@progbits,1
   7              		.align	3
   8              	.LC0:
   9 0000 3A202000 		.string	":  "
  10 0004 00000000 		.align	3
  11              	.LC1:
  12 0008 2D3E00   		.string	"->"
  13              		.text
  14              		.align	2
  15              		.globl	_ZN9Scheduler10printStateEv
  17              	_ZN9Scheduler10printStateEv:
  18              	.LFB8:
  19              		.file 1 "src/scheduler.cpp"
   1:src/scheduler.cpp **** #include "../h/scheduler.h"
   2:src/scheduler.cpp **** 
   3:src/scheduler.cpp **** void Scheduler::printState()
   4:src/scheduler.cpp **** {
  20              		.loc 1 4 1
  21              		.cfi_startproc
  22 0000 130101FE 		addi	sp,sp,-32
  23              		.cfi_def_cfa_offset 32
  24 0004 233C1100 		sd	ra,24(sp)
  25 0008 23388100 		sd	s0,16(sp)
  26 000c 23349100 		sd	s1,8(sp)
  27              		.cfi_offset 1, -8
  28              		.cfi_offset 8, -16
  29              		.cfi_offset 9, -24
  30 0010 13040102 		addi	s0,sp,32
  31              		.cfi_def_cfa 8, 0
   5:src/scheduler.cpp ****     putU64(Thread::getPRunning()->id);
  32              		.loc 1 5 5
  33              		.loc 1 5 31 is_stmt 0
  34 0014 97000000 		call	_ZN6Thread11getPRunningEv@plt
  34      E7800000 
  35              	.LVL0:
  36              		.loc 1 5 11
  37 001c 03358502 		ld	a0,40(a0)
  38 0020 97000000 		call	_Z6putU64m@plt
  38      E7800000 
  39              	.LVL1:
   6:src/scheduler.cpp ****     putString(":  ");
  40              		.loc 1 6 5 is_stmt 1
  41              		.loc 1 6 14 is_stmt 0
  42 0028 17050000 		lla	a0,.LC0
  42      13050500 
  43 0030 97000000 		call	_Z9putStringPKc@plt
  43      E7800000 
  44              	.LVL2:
   7:src/scheduler.cpp **** 
   8:src/scheduler.cpp ****     Thread* pCur = get()->pHead;
  45              		.loc 1 8 5 is_stmt 1
  46              	.LBB40:
GAS LISTING /tmp/ccGgmCTb.s 			page 2


  47              	.LBB41:
  48              		.file 2 "src/../h/scheduler.h"
   1:src/../h/scheduler.h **** #pragma once
   2:src/../h/scheduler.h **** 
   3:src/../h/scheduler.h **** #include "../h/thread.h"
   4:src/../h/scheduler.h **** 
   5:src/../h/scheduler.h **** class Scheduler // singleton
   6:src/../h/scheduler.h **** {
   7:src/../h/scheduler.h **** public:
   8:src/../h/scheduler.h ****     static Scheduler* get()
   9:src/../h/scheduler.h ****     {
  10:src/../h/scheduler.h ****         static Scheduler instance;
  49              		.loc 2 10 9
  50              		.loc 2 10 26 is_stmt 0
  51 0038 97070000 		lbu	a5,_ZGVZN9Scheduler3getEvE8instance
  51      83C70700 
  52 0040 639C0700 		bnez	a5,.L2
  53              	.LVL3:
  54              	.LBB42:
  55              	.LBB43:
  56              	.LBB44:
  11:src/../h/scheduler.h ****         return &instance;
  12:src/../h/scheduler.h ****     }
  13:src/../h/scheduler.h **** 
  14:src/../h/scheduler.h ****     static void dispatchToNext(); // WARNING: different than sys. call dispatch()
  15:src/../h/scheduler.h ****     static Thread* getNext();
  16:src/../h/scheduler.h ****     static void put(Thread*);
  17:src/../h/scheduler.h ****     static void printState();
  18:src/../h/scheduler.h **** 
  19:src/../h/scheduler.h ****     Thread* pHead; // points to the one that is the next to be run
  20:src/../h/scheduler.h **** 
  21:src/../h/scheduler.h **** private:
  22:src/../h/scheduler.h ****     Scheduler()
  23:src/../h/scheduler.h ****         : pHead(nullptr)
  57              		.loc 2 23 24
  58 0044 97070000 		sd	zero,_ZZN9Scheduler3getEvE8instance,a5
  58      23B00700 
  59              	.LVL4:
  60              	.LBE44:
  61              	.LBE43:
  62              	.LBE42:
  10:src/../h/scheduler.h ****         return &instance;
  63              		.loc 2 10 26
  64 004c 93071000 		li	a5,1
  65 0050 17070000 		sb	a5,_ZGVZN9Scheduler3getEvE8instance,a4
  65      2300F700 
  66              	.L2:
  11:src/../h/scheduler.h ****         return &instance;
  67              		.loc 2 11 9 is_stmt 1
  68              	.LBE41:
  69              	.LBE40:
  70              		.loc 1 8 27 is_stmt 0
  71 0058 97040000 		ld	s1,_ZZN9Scheduler3getEvE8instance
  71      83B40400 
  72              	.LVL5:
  73              	.L4:
   9:src/scheduler.cpp ****     while(pCur)
GAS LISTING /tmp/ccGgmCTb.s 			page 3


  74              		.loc 1 9 5 is_stmt 1
  75              		.loc 1 9 11
  76 0060 63880402 		beqz	s1,.L3
  10:src/scheduler.cpp ****     {
  11:src/scheduler.cpp ****         putU64(pCur->id);
  77              		.loc 1 11 9
  78              		.loc 1 11 15 is_stmt 0
  79 0064 03B58402 		ld	a0,40(s1)
  80 0068 97000000 		call	_Z6putU64m@plt
  80      E7800000 
  81              	.LVL6:
  12:src/scheduler.cpp **** 
  13:src/scheduler.cpp ****         if(pCur->pNext)
  82              		.loc 1 13 9 is_stmt 1
  83              		.loc 1 13 18 is_stmt 0
  84 0070 83B70403 		ld	a5,48(s1)
  85              		.loc 1 13 9
  86 0074 638E0700 		beqz	a5,.L3
  14:src/scheduler.cpp ****         {
  15:src/scheduler.cpp ****             putString("->");
  87              		.loc 1 15 13 is_stmt 1
  88              		.loc 1 15 22 is_stmt 0
  89 0078 17050000 		lla	a0,.LC1
  89      13050500 
  90 0080 97000000 		call	_Z9putStringPKc@plt
  90      E7800000 
  91              	.LVL7:
  16:src/scheduler.cpp ****         }
  17:src/scheduler.cpp ****         else
  18:src/scheduler.cpp ****         {
  19:src/scheduler.cpp ****             break;
  20:src/scheduler.cpp ****         }
  21:src/scheduler.cpp **** 
  22:src/scheduler.cpp ****         pCur = pCur->pNext;
  92              		.loc 1 22 9 is_stmt 1
  93              		.loc 1 22 14 is_stmt 0
  94 0088 83B40403 		ld	s1,48(s1)
  95              	.LVL8:
   9:src/scheduler.cpp ****     {
  96              		.loc 1 9 5
  97 008c 6FF05FFD 		j	.L4
  98              	.L3:
  23:src/scheduler.cpp ****     }
  24:src/scheduler.cpp **** 
  25:src/scheduler.cpp ****     putNewline();
  99              		.loc 1 25 5 is_stmt 1
 100              		.loc 1 25 15 is_stmt 0
 101 0090 97000000 		call	_Z10putNewlinev@plt
 101      E7800000 
 102              	.LVL9:
  26:src/scheduler.cpp **** }
 103              		.loc 1 26 1
 104 0098 83308101 		ld	ra,24(sp)
 105              		.cfi_restore 1
 106 009c 03340101 		ld	s0,16(sp)
 107              		.cfi_restore 8
 108              		.cfi_def_cfa 2, 32
GAS LISTING /tmp/ccGgmCTb.s 			page 4


 109 00a0 83348100 		ld	s1,8(sp)
 110              		.cfi_restore 9
 111              	.LVL10:
 112 00a4 13010102 		addi	sp,sp,32
 113              		.cfi_def_cfa_offset 0
 114 00a8 67800000 		jr	ra
 115              		.cfi_endproc
 116              	.LFE8:
 118              		.section	.rodata.str1.8
 119 000b 00000000 		.align	3
 119      00
 120              	.LC2:
 121 0010 3D3D3D3D 		.string	"===================== ASSERT file: "
 121      3D3D3D3D 
 121      3D3D3D3D 
 121      3D3D3D3D 
 121      3D3D3D3D 
 122 0034 00000000 		.align	3
 123              	.LC3:
 124 0038 7372632F 		.string	"src/scheduler.cpp"
 124      73636865 
 124      64756C65 
 124      722E6370 
 124      7000
 125 004a 00000000 		.align	3
 125      0000
 126              	.LC4:
 127 0050 20202020 		.string	"    line: "
 127      6C696E65 
 127      3A2000
 128 005b 00000000 		.align	3
 128      00
 129              	.LC5:
 130 0060 2020203D 		.string	"   ==========================="
 130      3D3D3D3D 
 130      3D3D3D3D 
 130      3D3D3D3D 
 130      3D3D3D3D 
 131              		.text
 132              		.align	2
 133              		.globl	_ZN9Scheduler3putEP6Thread
 135              	_ZN9Scheduler3putEP6Thread:
 136              	.LFB10:
  27:src/scheduler.cpp **** 
  28:src/scheduler.cpp **** void Scheduler::dispatchToNext() // WARNING: different than sys. call dispatch()
  29:src/scheduler.cpp **** {
  30:src/scheduler.cpp ****     assert(&(Thread::getPRunning()->sp) == Thread::pRunningSp);
  31:src/scheduler.cpp **** 
  32:src/scheduler.cpp ****     Thread *pOld = Thread::getPRunning();
  33:src/scheduler.cpp ****     Thread *pNew = Scheduler::getNext();
  34:src/scheduler.cpp **** 
  35:src/scheduler.cpp ****     assert(pNew->state == Thread::READY);
  36:src/scheduler.cpp **** 
  37:src/scheduler.cpp ****     Thread::setPRunning(pNew);
  38:src/scheduler.cpp **** 
  39:src/scheduler.cpp ****     if(pOld != pNew) // split into two cases for safety
  40:src/scheduler.cpp ****     {
GAS LISTING /tmp/ccGgmCTb.s 			page 5


  41:src/scheduler.cpp ****         pNew->state = Thread::RUNNING;
  42:src/scheduler.cpp ****     }
  43:src/scheduler.cpp ****     else
  44:src/scheduler.cpp ****     {
  45:src/scheduler.cpp ****         pNew->state = Thread::RUNNING;
  46:src/scheduler.cpp ****     }
  47:src/scheduler.cpp **** }
  48:src/scheduler.cpp **** 
  49:src/scheduler.cpp **** void Scheduler::put(Thread* p)
  50:src/scheduler.cpp **** {
 137              		.loc 1 50 1 is_stmt 1
 138              		.cfi_startproc
 139              	.LVL11:
 140 00ac 130101FF 		addi	sp,sp,-16
 141              		.cfi_def_cfa_offset 16
 142 00b0 23341100 		sd	ra,8(sp)
 143 00b4 23308100 		sd	s0,0(sp)
 144              		.cfi_offset 1, -8
 145              		.cfi_offset 8, -16
 146 00b8 13040101 		addi	s0,sp,16
 147              		.cfi_def_cfa 8, 0
  51:src/scheduler.cpp ****     if(!p)
 148              		.loc 1 51 5
 149 00bc 63040508 		beqz	a0,.L16
  52:src/scheduler.cpp ****     {
  53:src/scheduler.cpp ****         assert(false);
  54:src/scheduler.cpp ****     }
  55:src/scheduler.cpp **** 
  56:src/scheduler.cpp ****     assert(p->state == Thread::READY);
 150              		.loc 1 56 5
 151 00c0 83270500 		lw	a5,0(a0)
 152 00c4 9387E7FF 		addi	a5,a5,-2
 153              	.LVL12:
 154              	.LBB63:
 155              	.LBB64:
 156              		.file 3 "src/../h/../h/../h/my_console.h"
   1:src/../h/../h/../h/my_console.h **** #pragma once
   2:src/../h/../h/../h/my_console.h **** 
   3:src/../h/../h/../h/my_console.h **** #include "../h/risc.h"
   4:src/../h/../h/../h/my_console.h **** 
   5:src/../h/../h/../h/my_console.h **** #include "../lib/hw.h"
   6:src/../h/../h/../h/my_console.h **** 
   7:src/../h/../h/../h/my_console.h **** #define __DEBUG_MODE
   8:src/../h/../h/../h/my_console.h **** 
   9:src/../h/../h/../h/my_console.h **** 
  10:src/../h/../h/../h/my_console.h **** void putString(const char* s);
  11:src/../h/../h/../h/my_console.h **** void putInt(int n);
  12:src/../h/../h/../h/my_console.h **** void putNewline();
  13:src/../h/../h/../h/my_console.h **** void putU64(uint64 n);
  14:src/../h/../h/../h/my_console.h **** void putBinary(uint64 n);
  15:src/../h/../h/../h/my_console.h **** 
  16:src/../h/../h/../h/my_console.h **** [[noreturn]] void stopKernel();
  17:src/../h/../h/../h/my_console.h **** 
  18:src/../h/../h/../h/my_console.h **** inline void _assert(bool valid, const char* file, int line) // MUST be inline
  19:src/../h/../h/../h/my_console.h **** {
  20:src/../h/../h/../h/my_console.h ****     if(valid)
 157              		.loc 3 20 5
GAS LISTING /tmp/ccGgmCTb.s 			page 6


 158 00c8 639C070C 		bnez	a5,.L17
  21:src/../h/../h/../h/my_console.h ****         return;
 159              		.loc 3 21 9
 160              	.LVL13:
 161              	.LBE64:
 162              	.LBE63:
  57:src/scheduler.cpp **** 
  58:src/scheduler.cpp ****     p->pNext = nullptr; // ensure no thread is after this one (and ensure no random pointers)
 163              		.loc 1 58 5
 164              		.loc 1 58 14 is_stmt 0
 165 00cc 23380502 		sd	zero,48(a0)
  59:src/scheduler.cpp **** 
  60:src/scheduler.cpp ****     if(!(get()->pHead))
 166              		.loc 1 60 5 is_stmt 1
 167              	.LBB66:
 168              	.LBB67:
  10:src/../h/scheduler.h ****         return &instance;
 169              		.loc 2 10 9
  10:src/../h/scheduler.h ****         return &instance;
 170              		.loc 2 10 26 is_stmt 0
 171 00d0 97070000 		lbu	a5,_ZGVZN9Scheduler3getEvE8instance
 171      83C70700 
 172 00d8 639C0700 		bnez	a5,.L9
 173              	.LVL14:
 174              	.LBB68:
 175              	.LBB69:
 176              	.LBB70:
 177              		.loc 2 23 24
 178 00dc 97070000 		sd	zero,_ZZN9Scheduler3getEvE8instance,a5
 178      23B00700 
 179              	.LVL15:
 180              	.LBE70:
 181              	.LBE69:
 182              	.LBE68:
  10:src/../h/scheduler.h ****         return &instance;
 183              		.loc 2 10 26
 184 00e4 93071000 		li	a5,1
 185 00e8 17070000 		sb	a5,_ZGVZN9Scheduler3getEvE8instance,a4
 185      2300F700 
 186              	.L9:
  11:src/../h/scheduler.h ****     }
 187              		.loc 2 11 9 is_stmt 1
 188              	.LBE67:
 189              	.LBE66:
 190              		.loc 1 60 17 is_stmt 0
 191 00f0 97070000 		ld	a5,_ZZN9Scheduler3getEvE8instance
 191      83B70700 
 192              		.loc 1 60 5
 193 00f8 63820710 		beqz	a5,.L18
  61:src/scheduler.cpp ****     {
  62:src/scheduler.cpp ****         get()->pHead = p;
  63:src/scheduler.cpp ****         return;
  64:src/scheduler.cpp ****     }
  65:src/scheduler.cpp **** 
  66:src/scheduler.cpp ****     Thread* pCur = get()->pHead;
 194              		.loc 1 66 5 is_stmt 1
 195              	.LBB71:
GAS LISTING /tmp/ccGgmCTb.s 			page 7


 196              	.LBB72:
  10:src/../h/scheduler.h ****         return &instance;
 197              		.loc 2 10 9
  10:src/../h/scheduler.h ****         return &instance;
 198              		.loc 2 10 26 is_stmt 0
 199 00fc 97070000 		lbu	a5,_ZGVZN9Scheduler3getEvE8instance
 199      83C70700 
 200 0104 639C0700 		bnez	a5,.L13
 201              	.LVL16:
 202              	.LBB73:
 203              	.LBB74:
 204              	.LBB75:
 205              		.loc 2 23 24
 206 0108 97070000 		sd	zero,_ZZN9Scheduler3getEvE8instance,a5
 206      23B00700 
 207              	.LVL17:
 208              	.LBE75:
 209              	.LBE74:
 210              	.LBE73:
  10:src/../h/scheduler.h ****         return &instance;
 211              		.loc 2 10 26
 212 0110 93071000 		li	a5,1
 213 0114 17070000 		sb	a5,_ZGVZN9Scheduler3getEvE8instance,a4
 213      2300F700 
 214              	.L13:
  11:src/../h/scheduler.h ****     }
 215              		.loc 2 11 9 is_stmt 1
 216              	.LBE72:
 217              	.LBE71:
 218              		.loc 1 66 27 is_stmt 0
 219 011c 97070000 		ld	a5,_ZZN9Scheduler3getEvE8instance
 219      83B70700 
 220              	.LVL18:
 221              	.L14:
  67:src/scheduler.cpp ****     while(pCur->pNext)
 222              		.loc 1 67 5 is_stmt 1
 223              		.loc 1 67 17
 224 0124 13870700 		mv	a4,a5
 225 0128 83B70703 		ld	a5,48(a5)
 226              	.LVL19:
 227 012c E39C07FE 		bnez	a5,.L14
  68:src/scheduler.cpp ****     {
  69:src/scheduler.cpp ****         pCur = pCur->pNext;
  70:src/scheduler.cpp ****     }
  71:src/scheduler.cpp ****     pCur->pNext = p;
 228              		.loc 1 71 5
 229              		.loc 1 71 17 is_stmt 0
 230 0130 2338A702 		sd	a0,48(a4)
 231              	.LVL20:
 232              	.L6:
  72:src/scheduler.cpp **** }
 233              		.loc 1 72 1
 234 0134 83308100 		ld	ra,8(sp)
 235              		.cfi_remember_state
 236              		.cfi_restore 1
 237 0138 03340100 		ld	s0,0(sp)
 238              		.cfi_restore 8
GAS LISTING /tmp/ccGgmCTb.s 			page 8


 239              		.cfi_def_cfa 2, 16
 240 013c 13010101 		addi	sp,sp,16
 241              		.cfi_def_cfa_offset 0
 242 0140 67800000 		jr	ra
 243              	.L16:
 244              		.cfi_restore_state
  53:src/scheduler.cpp ****     }
 245              		.loc 1 53 9 is_stmt 1
 246              	.LVL21:
 247              	.LBB76:
 248              	.LBB77:
  20:src/../h/../h/../h/my_console.h ****         return;
 249              		.loc 3 20 5
  22:src/../h/../h/../h/my_console.h **** 
  23:src/../h/../h/../h/my_console.h ****     putString("===================== ASSERT file: ");
 250              		.loc 3 23 5
 251              		.loc 3 23 14 is_stmt 0
 252 0144 17050000 		lla	a0,.LC2
 252      13050500 
 253              	.LVL22:
 254 014c 97000000 		call	_Z9putStringPKc@plt
 254      E7800000 
 255              	.LVL23:
  24:src/../h/../h/../h/my_console.h ****     putString(file);
 256              		.loc 3 24 5 is_stmt 1
 257              		.loc 3 24 14 is_stmt 0
 258 0154 17050000 		lla	a0,.LC3
 258      13050500 
 259 015c 97000000 		call	_Z9putStringPKc@plt
 259      E7800000 
 260              	.LVL24:
  25:src/../h/../h/../h/my_console.h ****     putString("    line: ");
 261              		.loc 3 25 5 is_stmt 1
 262              		.loc 3 25 14 is_stmt 0
 263 0164 17050000 		lla	a0,.LC4
 263      13050500 
 264 016c 97000000 		call	_Z9putStringPKc@plt
 264      E7800000 
 265              	.LVL25:
  26:src/../h/../h/../h/my_console.h ****     putInt(line);
 266              		.loc 3 26 5 is_stmt 1
 267              		.loc 3 26 11 is_stmt 0
 268 0174 13055003 		li	a0,53
 269 0178 97000000 		call	_Z6putInti@plt
 269      E7800000 
 270              	.LVL26:
  27:src/../h/../h/../h/my_console.h ****     putString("   ===========================");
 271              		.loc 3 27 5 is_stmt 1
 272              		.loc 3 27 14 is_stmt 0
 273 0180 17050000 		lla	a0,.LC5
 273      13050500 
 274 0188 97000000 		call	_Z9putStringPKc@plt
 274      E7800000 
 275              	.LVL27:
  28:src/../h/../h/../h/my_console.h ****     putNewline();
 276              		.loc 3 28 5 is_stmt 1
 277              		.loc 3 28 15 is_stmt 0
GAS LISTING /tmp/ccGgmCTb.s 			page 9


 278 0190 97000000 		call	_Z10putNewlinev@plt
 278      E7800000 
 279              	.LVL28:
  29:src/../h/../h/../h/my_console.h **** 
  30:src/../h/../h/../h/my_console.h ****     stopKernel();
 280              		.loc 3 30 5 is_stmt 1
 281              		.loc 3 30 15 is_stmt 0
 282 0198 97000000 		call	_Z10stopKernelv@plt
 282      E7800000 
 283              	.LVL29:
 284              	.L17:
 285              	.LBE77:
 286              	.LBE76:
 287              	.LBB78:
 288              	.LBB65:
  23:src/../h/../h/../h/my_console.h ****     putString(file);
 289              		.loc 3 23 5 is_stmt 1
  23:src/../h/../h/../h/my_console.h ****     putString(file);
 290              		.loc 3 23 14 is_stmt 0
 291 01a0 17050000 		lla	a0,.LC2
 291      13050500 
 292              	.LVL30:
 293 01a8 97000000 		call	_Z9putStringPKc@plt
 293      E7800000 
 294              	.LVL31:
  24:src/../h/../h/../h/my_console.h ****     putString("    line: ");
 295              		.loc 3 24 5 is_stmt 1
  24:src/../h/../h/../h/my_console.h ****     putString("    line: ");
 296              		.loc 3 24 14 is_stmt 0
 297 01b0 17050000 		lla	a0,.LC3
 297      13050500 
 298 01b8 97000000 		call	_Z9putStringPKc@plt
 298      E7800000 
 299              	.LVL32:
  25:src/../h/../h/../h/my_console.h ****     putInt(line);
 300              		.loc 3 25 5 is_stmt 1
  25:src/../h/../h/../h/my_console.h ****     putInt(line);
 301              		.loc 3 25 14 is_stmt 0
 302 01c0 17050000 		lla	a0,.LC4
 302      13050500 
 303 01c8 97000000 		call	_Z9putStringPKc@plt
 303      E7800000 
 304              	.LVL33:
  26:src/../h/../h/../h/my_console.h ****     putString("   ===========================");
 305              		.loc 3 26 5 is_stmt 1
  26:src/../h/../h/../h/my_console.h ****     putString("   ===========================");
 306              		.loc 3 26 11 is_stmt 0
 307 01d0 13058003 		li	a0,56
 308 01d4 97000000 		call	_Z6putInti@plt
 308      E7800000 
 309              	.LVL34:
  27:src/../h/../h/../h/my_console.h ****     putNewline();
 310              		.loc 3 27 5 is_stmt 1
  27:src/../h/../h/../h/my_console.h ****     putNewline();
 311              		.loc 3 27 14 is_stmt 0
 312 01dc 17050000 		lla	a0,.LC5
 312      13050500 
GAS LISTING /tmp/ccGgmCTb.s 			page 10


 313 01e4 97000000 		call	_Z9putStringPKc@plt
 313      E7800000 
 314              	.LVL35:
  28:src/../h/../h/../h/my_console.h **** 
 315              		.loc 3 28 5 is_stmt 1
  28:src/../h/../h/../h/my_console.h **** 
 316              		.loc 3 28 15 is_stmt 0
 317 01ec 97000000 		call	_Z10putNewlinev@plt
 317      E7800000 
 318              	.LVL36:
 319              		.loc 3 30 5 is_stmt 1
 320              		.loc 3 30 15 is_stmt 0
 321 01f4 97000000 		call	_Z10stopKernelv@plt
 321      E7800000 
 322              	.LVL37:
 323              	.L18:
 324              	.LBE65:
 325              	.LBE78:
  62:src/scheduler.cpp ****         return;
 326              		.loc 1 62 9 is_stmt 1
 327              	.LBB79:
 328              	.LBB80:
  10:src/../h/scheduler.h ****         return &instance;
 329              		.loc 2 10 9
  10:src/../h/scheduler.h ****         return &instance;
 330              		.loc 2 10 26 is_stmt 0
 331 01fc 97070000 		lbu	a5,_ZGVZN9Scheduler3getEvE8instance
 331      83C70700 
 332 0204 63980700 		bnez	a5,.L11
 333 0208 93071000 		li	a5,1
 334 020c 17070000 		sb	a5,_ZGVZN9Scheduler3getEvE8instance,a4
 334      2300F700 
 335              	.L11:
  11:src/../h/scheduler.h ****     }
 336              		.loc 2 11 9 is_stmt 1
 337              	.LBE80:
 338              	.LBE79:
  62:src/scheduler.cpp ****         return;
 339              		.loc 1 62 22 is_stmt 0
 340 0214 97070000 		sd	a0,_ZZN9Scheduler3getEvE8instance,a5
 340      23B0A700 
  63:src/scheduler.cpp ****     }
 341              		.loc 1 63 9 is_stmt 1
 342 021c 6FF09FF1 		j	.L6
 343              		.cfi_endproc
 344              	.LFE10:
 346              		.align	2
 347              		.globl	_ZN9Scheduler7getNextEv
 349              	_ZN9Scheduler7getNextEv:
 350              	.LFB11:
  73:src/scheduler.cpp **** 
  74:src/scheduler.cpp **** Thread* Scheduler::getNext()
  75:src/scheduler.cpp **** {
 351              		.loc 1 75 1
 352              		.cfi_startproc
 353 0220 130101FF 		addi	sp,sp,-16
 354              		.cfi_def_cfa_offset 16
GAS LISTING /tmp/ccGgmCTb.s 			page 11


 355 0224 23348100 		sd	s0,8(sp)
 356              		.cfi_offset 8, -8
 357 0228 13040101 		addi	s0,sp,16
 358              		.cfi_def_cfa 8, 0
  76:src/scheduler.cpp **** //    if(!pHead)
  77:src/scheduler.cpp **** //    {
  78:src/scheduler.cpp **** //        assert(false); // disabled because maby you can get the thread* and do something wrong wi
  79:src/scheduler.cpp **** //        return spinThread;
  80:src/scheduler.cpp **** //    }
  81:src/scheduler.cpp **** 
  82:src/scheduler.cpp ****     Thread* ret = get()->pHead;
 359              		.loc 1 82 5
 360              	.LBB81:
 361              	.LBB82:
  10:src/../h/scheduler.h ****         return &instance;
 362              		.loc 2 10 9
  10:src/../h/scheduler.h ****         return &instance;
 363              		.loc 2 10 26 is_stmt 0
 364 022c 97070000 		lbu	a5,_ZGVZN9Scheduler3getEvE8instance
 364      83C70700 
 365 0234 639C0700 		bnez	a5,.L20
 366              	.LVL38:
 367              	.LBB83:
 368              	.LBB84:
 369              	.LBB85:
 370              		.loc 2 23 24
 371 0238 97070000 		sd	zero,_ZZN9Scheduler3getEvE8instance,a5
 371      23B00700 
 372              	.LVL39:
 373              	.LBE85:
 374              	.LBE84:
 375              	.LBE83:
  10:src/../h/scheduler.h ****         return &instance;
 376              		.loc 2 10 26
 377 0240 93071000 		li	a5,1
 378 0244 17070000 		sb	a5,_ZGVZN9Scheduler3getEvE8instance,a4
 378      2300F700 
 379              	.L20:
  11:src/../h/scheduler.h ****     }
 380              		.loc 2 11 9 is_stmt 1
 381              	.LBE82:
 382              	.LBE81:
 383              		.loc 1 82 26 is_stmt 0
 384 024c 17050000 		ld	a0,_ZZN9Scheduler3getEvE8instance
 384      03350500 
 385              	.LVL40:
  83:src/scheduler.cpp ****     get()->pHead = get()->pHead->pNext;
 386              		.loc 1 83 5 is_stmt 1
 387              	.LBB86:
 388              	.LBB87:
  10:src/../h/scheduler.h ****         return &instance;
 389              		.loc 2 10 9
  10:src/../h/scheduler.h ****         return &instance;
 390              		.loc 2 10 26 is_stmt 0
 391 0254 97070000 		lbu	a5,_ZGVZN9Scheduler3getEvE8instance
 391      83C70700 
 392 025c 639C0700 		bnez	a5,.L21
GAS LISTING /tmp/ccGgmCTb.s 			page 12


 393              	.LVL41:
 394              	.LBB88:
 395              	.LBB89:
 396              	.LBB90:
 397              		.loc 2 23 24
 398 0260 97070000 		sd	zero,_ZZN9Scheduler3getEvE8instance,a5
 398      23B00700 
 399              	.LVL42:
 400              	.LBE90:
 401              	.LBE89:
 402              	.LBE88:
  10:src/../h/scheduler.h ****         return &instance;
 403              		.loc 2 10 26
 404 0268 93071000 		li	a5,1
 405 026c 17070000 		sb	a5,_ZGVZN9Scheduler3getEvE8instance,a4
 405      2300F700 
 406              	.L21:
  11:src/../h/scheduler.h ****     }
 407              		.loc 2 11 9 is_stmt 1
 408              	.LBE87:
 409              	.LBE86:
 410              		.loc 1 83 27 is_stmt 0
 411 0274 97070000 		ld	a5,_ZZN9Scheduler3getEvE8instance
 411      83B70700 
 412              	.LBB91:
 413              	.LBB92:
  10:src/../h/scheduler.h ****         return &instance;
 414              		.loc 2 10 9 is_stmt 1
  10:src/../h/scheduler.h ****         return &instance;
 415              		.loc 2 10 26 is_stmt 0
 416 027c 17070000 		lbu	a4,_ZGVZN9Scheduler3getEvE8instance
 416      03470700 
 417 0284 63180700 		bnez	a4,.L22
 418 0288 13071000 		li	a4,1
 419 028c 97060000 		sb	a4,_ZGVZN9Scheduler3getEvE8instance,a3
 419      2380E600 
 420              	.L22:
  11:src/../h/scheduler.h ****     }
 421              		.loc 2 11 9 is_stmt 1
 422              	.LBE92:
 423              	.LBE91:
 424              		.loc 1 83 34 is_stmt 0
 425 0294 83B70703 		ld	a5,48(a5)
 426              		.loc 1 83 18
 427 0298 17070000 		sd	a5,_ZZN9Scheduler3getEvE8instance,a4
 427      2330F700 
  84:src/scheduler.cpp **** 
  85:src/scheduler.cpp ****     return ret;
 428              		.loc 1 85 5 is_stmt 1
  86:src/scheduler.cpp **** }...
 429              		.loc 1 86 1 is_stmt 0
 430 02a0 03348100 		ld	s0,8(sp)
 431              		.cfi_restore 8
 432              		.cfi_def_cfa 2, 16
 433 02a4 13010101 		addi	sp,sp,16
 434              		.cfi_def_cfa_offset 0
 435 02a8 67800000 		jr	ra
GAS LISTING /tmp/ccGgmCTb.s 			page 13


 436              		.cfi_endproc
 437              	.LFE11:
 439              		.align	2
 440              		.globl	_ZN9Scheduler14dispatchToNextEv
 442              	_ZN9Scheduler14dispatchToNextEv:
 443              	.LFB9:
  29:src/scheduler.cpp **** {
 444              		.loc 1 29 1 is_stmt 1
 445              		.cfi_startproc
 446 02ac 130101FE 		addi	sp,sp,-32
 447              		.cfi_def_cfa_offset 32
 448 02b0 233C1100 		sd	ra,24(sp)
 449 02b4 23388100 		sd	s0,16(sp)
 450 02b8 23349100 		sd	s1,8(sp)
 451 02bc 23302101 		sd	s2,0(sp)
 452              		.cfi_offset 1, -8
 453              		.cfi_offset 8, -16
 454              		.cfi_offset 9, -24
 455              		.cfi_offset 18, -32
 456 02c0 13040102 		addi	s0,sp,32
 457              		.cfi_def_cfa 8, 0
  30:src/scheduler.cpp ****     assert(&(Thread::getPRunning()->sp) == Thread::pRunningSp);
 458              		.loc 1 30 5
 459 02c4 97000000 		call	_ZN6Thread11getPRunningEv@plt
 459      E7800000 
 460              	.LVL43:
 461 02cc 13058504 		addi	a0,a0,72
 462 02d0 97070000 		la	a5,_ZN6Thread10pRunningSpE
 462      83B70700 
 463 02d8 83B70700 		ld	a5,0(a5)
 464              	.LVL44:
 465              	.LBB97:
 466              	.LBB98:
  20:src/../h/../h/../h/my_console.h ****         return;
 467              		.loc 3 20 5
 468 02dc 6398A704 		bne	a5,a0,.L30
  21:src/../h/../h/../h/my_console.h **** 
 469              		.loc 3 21 9
 470              	.LVL45:
 471              	.LBE98:
 472              	.LBE97:
  32:src/scheduler.cpp ****     Thread *pOld = Thread::getPRunning();
 473              		.loc 1 32 5
  32:src/scheduler.cpp ****     Thread *pOld = Thread::getPRunning();
 474              		.loc 1 32 39 is_stmt 0
 475 02e0 97000000 		call	_ZN6Thread11getPRunningEv@plt
 475      E7800000 
 476              	.LVL46:
 477 02e8 13090500 		mv	s2,a0
 478              	.LVL47:
  33:src/scheduler.cpp ****     Thread *pNew = Scheduler::getNext();
 479              		.loc 1 33 5 is_stmt 1
  33:src/scheduler.cpp ****     Thread *pNew = Scheduler::getNext();
 480              		.loc 1 33 38 is_stmt 0
 481 02ec 97000000 		call	_ZN9Scheduler7getNextEv
 481      E7800000 
 482              	.LVL48:
GAS LISTING /tmp/ccGgmCTb.s 			page 14


 483 02f4 93040500 		mv	s1,a0
 484              	.LVL49:
  35:src/scheduler.cpp ****     assert(pNew->state == Thread::READY);
 485              		.loc 1 35 5 is_stmt 1
 486 02f8 83270500 		lw	a5,0(a0)
 487 02fc 9387E7FF 		addi	a5,a5,-2
 488              	.LVL50:
 489              	.LBB100:
 490              	.LBB101:
  20:src/../h/../h/../h/my_console.h ****         return;
 491              		.loc 3 20 5
 492 0300 63940708 		bnez	a5,.L31
  21:src/../h/../h/../h/my_console.h **** 
 493              		.loc 3 21 9
 494              	.LVL51:
 495              	.LBE101:
 496              	.LBE100:
  37:src/scheduler.cpp ****     Thread::setPRunning(pNew);
 497              		.loc 1 37 5
  37:src/scheduler.cpp ****     Thread::setPRunning(pNew);
 498              		.loc 1 37 24 is_stmt 0
 499 0304 97000000 		call	_ZN6Thread11setPRunningEPS_@plt
 499      E7800000 
 500              	.LVL52:
  39:src/scheduler.cpp ****     if(pOld != pNew) // split into two cases for safety
 501              		.loc 1 39 5 is_stmt 1
 502 030c 630C990C 		beq	s2,s1,.L27
  41:src/scheduler.cpp ****         pNew->state = Thread::RUNNING;
 503              		.loc 1 41 9
  41:src/scheduler.cpp ****         pNew->state = Thread::RUNNING;
 504              		.loc 1 41 21 is_stmt 0
 505 0310 23A00400 		sw	zero,0(s1)
 506              	.L24:
  47:src/scheduler.cpp **** }
 507              		.loc 1 47 1
 508 0314 83308101 		ld	ra,24(sp)
 509              		.cfi_remember_state
 510              		.cfi_restore 1
 511 0318 03340101 		ld	s0,16(sp)
 512              		.cfi_restore 8
 513              		.cfi_def_cfa 2, 32
 514 031c 83348100 		ld	s1,8(sp)
 515              		.cfi_restore 9
 516              	.LVL53:
 517 0320 03390100 		ld	s2,0(sp)
 518              		.cfi_restore 18
 519              	.LVL54:
 520 0324 13010102 		addi	sp,sp,32
 521              		.cfi_def_cfa_offset 0
 522 0328 67800000 		jr	ra
 523              	.LVL55:
 524              	.L30:
 525              		.cfi_restore_state
 526              	.LBB103:
 527              	.LBB99:
  23:src/../h/../h/../h/my_console.h ****     putString(file);
 528              		.loc 3 23 5 is_stmt 1
GAS LISTING /tmp/ccGgmCTb.s 			page 15


  23:src/../h/../h/../h/my_console.h ****     putString(file);
 529              		.loc 3 23 14 is_stmt 0
 530 032c 17050000 		lla	a0,.LC2
 530      13050500 
 531              	.LVL56:
 532 0334 97000000 		call	_Z9putStringPKc@plt
 532      E7800000 
 533              	.LVL57:
  24:src/../h/../h/../h/my_console.h ****     putString("    line: ");
 534              		.loc 3 24 5 is_stmt 1
  24:src/../h/../h/../h/my_console.h ****     putString("    line: ");
 535              		.loc 3 24 14 is_stmt 0
 536 033c 17050000 		lla	a0,.LC3
 536      13050500 
 537 0344 97000000 		call	_Z9putStringPKc@plt
 537      E7800000 
 538              	.LVL58:
  25:src/../h/../h/../h/my_console.h ****     putInt(line);
 539              		.loc 3 25 5 is_stmt 1
  25:src/../h/../h/../h/my_console.h ****     putInt(line);
 540              		.loc 3 25 14 is_stmt 0
 541 034c 17050000 		lla	a0,.LC4
 541      13050500 
 542 0354 97000000 		call	_Z9putStringPKc@plt
 542      E7800000 
 543              	.LVL59:
  26:src/../h/../h/../h/my_console.h ****     putString("   ===========================");
 544              		.loc 3 26 5 is_stmt 1
  26:src/../h/../h/../h/my_console.h ****     putString("   ===========================");
 545              		.loc 3 26 11 is_stmt 0
 546 035c 1305E001 		li	a0,30
 547 0360 97000000 		call	_Z6putInti@plt
 547      E7800000 
 548              	.LVL60:
  27:src/../h/../h/../h/my_console.h ****     putNewline();
 549              		.loc 3 27 5 is_stmt 1
  27:src/../h/../h/../h/my_console.h ****     putNewline();
 550              		.loc 3 27 14 is_stmt 0
 551 0368 17050000 		lla	a0,.LC5
 551      13050500 
 552 0370 97000000 		call	_Z9putStringPKc@plt
 552      E7800000 
 553              	.LVL61:
  28:src/../h/../h/../h/my_console.h **** 
 554              		.loc 3 28 5 is_stmt 1
  28:src/../h/../h/../h/my_console.h **** 
 555              		.loc 3 28 15 is_stmt 0
 556 0378 97000000 		call	_Z10putNewlinev@plt
 556      E7800000 
 557              	.LVL62:
 558              		.loc 3 30 5 is_stmt 1
 559              		.loc 3 30 15 is_stmt 0
 560 0380 97000000 		call	_Z10stopKernelv@plt
 560      E7800000 
 561              	.LVL63:
 562              	.L31:
 563              	.LBE99:
GAS LISTING /tmp/ccGgmCTb.s 			page 16


 564              	.LBE103:
 565              	.LBB104:
 566              	.LBB102:
  23:src/../h/../h/../h/my_console.h ****     putString(file);
 567              		.loc 3 23 5 is_stmt 1
  23:src/../h/../h/../h/my_console.h ****     putString(file);
 568              		.loc 3 23 14 is_stmt 0
 569 0388 17050000 		lla	a0,.LC2
 569      13050500 
 570 0390 97000000 		call	_Z9putStringPKc@plt
 570      E7800000 
 571              	.LVL64:
  24:src/../h/../h/../h/my_console.h ****     putString("    line: ");
 572              		.loc 3 24 5 is_stmt 1
  24:src/../h/../h/../h/my_console.h ****     putString("    line: ");
 573              		.loc 3 24 14 is_stmt 0
 574 0398 17050000 		lla	a0,.LC3
 574      13050500 
 575 03a0 97000000 		call	_Z9putStringPKc@plt
 575      E7800000 
 576              	.LVL65:
  25:src/../h/../h/../h/my_console.h ****     putInt(line);
 577              		.loc 3 25 5 is_stmt 1
  25:src/../h/../h/../h/my_console.h ****     putInt(line);
 578              		.loc 3 25 14 is_stmt 0
 579 03a8 17050000 		lla	a0,.LC4
 579      13050500 
 580 03b0 97000000 		call	_Z9putStringPKc@plt
 580      E7800000 
 581              	.LVL66:
  26:src/../h/../h/../h/my_console.h ****     putString("   ===========================");
 582              		.loc 3 26 5 is_stmt 1
  26:src/../h/../h/../h/my_console.h ****     putString("   ===========================");
 583              		.loc 3 26 11 is_stmt 0
 584 03b8 13053002 		li	a0,35
 585 03bc 97000000 		call	_Z6putInti@plt
 585      E7800000 
 586              	.LVL67:
  27:src/../h/../h/../h/my_console.h ****     putNewline();
 587              		.loc 3 27 5 is_stmt 1
  27:src/../h/../h/../h/my_console.h ****     putNewline();
 588              		.loc 3 27 14 is_stmt 0
 589 03c4 17050000 		lla	a0,.LC5
 589      13050500 
 590 03cc 97000000 		call	_Z9putStringPKc@plt
 590      E7800000 
 591              	.LVL68:
  28:src/../h/../h/../h/my_console.h **** 
 592              		.loc 3 28 5 is_stmt 1
  28:src/../h/../h/../h/my_console.h **** 
 593              		.loc 3 28 15 is_stmt 0
 594 03d4 97000000 		call	_Z10putNewlinev@plt
 594      E7800000 
 595              	.LVL69:
 596              		.loc 3 30 5 is_stmt 1
 597              		.loc 3 30 15 is_stmt 0
 598 03dc 97000000 		call	_Z10stopKernelv@plt
GAS LISTING /tmp/ccGgmCTb.s 			page 17


 598      E7800000 
 599              	.LVL70:
 600              	.L27:
 601              	.LBE102:
 602              	.LBE104:
  45:src/scheduler.cpp ****         pNew->state = Thread::RUNNING;
 603              		.loc 1 45 9 is_stmt 1
  45:src/scheduler.cpp ****         pNew->state = Thread::RUNNING;
 604              		.loc 1 45 21 is_stmt 0
 605 03e4 23A00400 		sw	zero,0(s1)
  47:src/scheduler.cpp **** }
 606              		.loc 1 47 1
 607 03e8 6FF0DFF2 		j	.L24
 608              		.cfi_endproc
 609              	.LFE9:
 611              		.weak	_ZGVZN9Scheduler3getEvE8instance
 612              		.section	.bss._ZGVZN9Scheduler3getEvE8instance,"awG",@nobits,_ZGVZN9Scheduler3getEvE8instance,comd
 613              		.align	3
 616              	_ZGVZN9Scheduler3getEvE8instance:
 617 0000 00000000 		.zero	8
 617      00000000 
 618              		.weak	_ZZN9Scheduler3getEvE8instance
 619              		.section	.bss._ZZN9Scheduler3getEvE8instance,"awG",@nobits,_ZZN9Scheduler3getEvE8instance,comdat
 620              		.align	3
 623              	_ZZN9Scheduler3getEvE8instance:
 624 0000 00000000 		.zero	8
 624      00000000 
 625              		.text
 626              	.Letext0:
 627              		.file 4 "src/../h/../h/../lib/hw.h"
 628              		.file 5 "src/../h/../h/thread.h"
 629              		.file 6 "src/../h/../h/../h/c_api.h"
GAS LISTING /tmp/ccGgmCTb.s 			page 18


DEFINED SYMBOLS
                            *ABS*:0000000000000000 scheduler.cpp
     /tmp/ccGgmCTb.s:17     .text:0000000000000000 _ZN9Scheduler10printStateEv
     /tmp/ccGgmCTb.s:21     .text:0000000000000000 .L0 
     /tmp/ccGgmCTb.s:22     .text:0000000000000000 .L0 
     /tmp/ccGgmCTb.s:23     .text:0000000000000004 .L0 
     /tmp/ccGgmCTb.s:27     .text:0000000000000010 .L0 
     /tmp/ccGgmCTb.s:28     .text:0000000000000010 .L0 
     /tmp/ccGgmCTb.s:29     .text:0000000000000010 .L0 
     /tmp/ccGgmCTb.s:31     .text:0000000000000014 .L0 
     /tmp/ccGgmCTb.s:33     .text:0000000000000014 .L0 
     /tmp/ccGgmCTb.s:34     .text:0000000000000014 .L0 
     /tmp/ccGgmCTb.s:37     .text:000000000000001c .L0 
     /tmp/ccGgmCTb.s:41     .text:0000000000000028 .L0 
     /tmp/ccGgmCTb.s:42     .text:0000000000000028 .L0 
     /tmp/ccGgmCTb.s:49     .text:0000000000000038 .L0 
     /tmp/ccGgmCTb.s:50     .text:0000000000000038 .L0 
     /tmp/ccGgmCTb.s:616    .bss._ZGVZN9Scheduler3getEvE8instance:0000000000000000 _ZGVZN9Scheduler3getEvE8instance
     /tmp/ccGgmCTb.s:51     .text:0000000000000038 .L0 
     /tmp/ccGgmCTb.s:623    .bss._ZZN9Scheduler3getEvE8instance:0000000000000000 _ZZN9Scheduler3getEvE8instance
     /tmp/ccGgmCTb.s:58     .text:0000000000000044 .L0 
     /tmp/ccGgmCTb.s:64     .text:000000000000004c .L0 
     /tmp/ccGgmCTb.s:70     .text:0000000000000058 .L0 
     /tmp/ccGgmCTb.s:71     .text:0000000000000058 .L0 
     /tmp/ccGgmCTb.s:75     .text:0000000000000060 .L0 
     /tmp/ccGgmCTb.s:76     .text:0000000000000060 .L0 
     /tmp/ccGgmCTb.s:78     .text:0000000000000064 .L0 
     /tmp/ccGgmCTb.s:79     .text:0000000000000064 .L0 
     /tmp/ccGgmCTb.s:83     .text:0000000000000070 .L0 
     /tmp/ccGgmCTb.s:84     .text:0000000000000070 .L0 
     /tmp/ccGgmCTb.s:86     .text:0000000000000074 .L0 
     /tmp/ccGgmCTb.s:88     .text:0000000000000078 .L0 
     /tmp/ccGgmCTb.s:89     .text:0000000000000078 .L0 
     /tmp/ccGgmCTb.s:93     .text:0000000000000088 .L0 
     /tmp/ccGgmCTb.s:94     .text:0000000000000088 .L0 
     /tmp/ccGgmCTb.s:97     .text:000000000000008c .L0 
     /tmp/ccGgmCTb.s:100    .text:0000000000000090 .L0 
     /tmp/ccGgmCTb.s:101    .text:0000000000000090 .L0 
     /tmp/ccGgmCTb.s:104    .text:0000000000000098 .L0 
     /tmp/ccGgmCTb.s:105    .text:000000000000009c .L0 
     /tmp/ccGgmCTb.s:107    .text:00000000000000a0 .L0 
     /tmp/ccGgmCTb.s:108    .text:00000000000000a0 .L0 
     /tmp/ccGgmCTb.s:110    .text:00000000000000a4 .L0 
     /tmp/ccGgmCTb.s:113    .text:00000000000000a8 .L0 
     /tmp/ccGgmCTb.s:115    .text:00000000000000ac .L0 
     /tmp/ccGgmCTb.s:135    .text:00000000000000ac _ZN9Scheduler3putEP6Thread
     /tmp/ccGgmCTb.s:138    .text:00000000000000ac .L0 
     /tmp/ccGgmCTb.s:140    .text:00000000000000ac .L0 
     /tmp/ccGgmCTb.s:141    .text:00000000000000b0 .L0 
     /tmp/ccGgmCTb.s:144    .text:00000000000000b8 .L0 
     /tmp/ccGgmCTb.s:145    .text:00000000000000b8 .L0 
     /tmp/ccGgmCTb.s:147    .text:00000000000000bc .L0 
     /tmp/ccGgmCTb.s:149    .text:00000000000000bc .L0 
     /tmp/ccGgmCTb.s:151    .text:00000000000000c0 .L0 
     /tmp/ccGgmCTb.s:158    .text:00000000000000c8 .L0 
     /tmp/ccGgmCTb.s:163    .text:00000000000000cc .L0 
     /tmp/ccGgmCTb.s:164    .text:00000000000000cc .L0 
GAS LISTING /tmp/ccGgmCTb.s 			page 19


     /tmp/ccGgmCTb.s:165    .text:00000000000000cc .L0 
     /tmp/ccGgmCTb.s:169    .text:00000000000000d0 .L0 
     /tmp/ccGgmCTb.s:170    .text:00000000000000d0 .L0 
     /tmp/ccGgmCTb.s:171    .text:00000000000000d0 .L0 
     /tmp/ccGgmCTb.s:178    .text:00000000000000dc .L0 
     /tmp/ccGgmCTb.s:184    .text:00000000000000e4 .L0 
     /tmp/ccGgmCTb.s:190    .text:00000000000000f0 .L0 
     /tmp/ccGgmCTb.s:191    .text:00000000000000f0 .L0 
     /tmp/ccGgmCTb.s:193    .text:00000000000000f8 .L0 
     /tmp/ccGgmCTb.s:197    .text:00000000000000fc .L0 
     /tmp/ccGgmCTb.s:198    .text:00000000000000fc .L0 
     /tmp/ccGgmCTb.s:199    .text:00000000000000fc .L0 
     /tmp/ccGgmCTb.s:206    .text:0000000000000108 .L0 
     /tmp/ccGgmCTb.s:212    .text:0000000000000110 .L0 
     /tmp/ccGgmCTb.s:218    .text:000000000000011c .L0 
     /tmp/ccGgmCTb.s:219    .text:000000000000011c .L0 
     /tmp/ccGgmCTb.s:223    .text:0000000000000124 .L0 
     /tmp/ccGgmCTb.s:224    .text:0000000000000124 .L0 
     /tmp/ccGgmCTb.s:229    .text:0000000000000130 .L0 
     /tmp/ccGgmCTb.s:230    .text:0000000000000130 .L0 
     /tmp/ccGgmCTb.s:234    .text:0000000000000134 .L0 
     /tmp/ccGgmCTb.s:235    .text:0000000000000138 .L0 
     /tmp/ccGgmCTb.s:236    .text:0000000000000138 .L0 
     /tmp/ccGgmCTb.s:238    .text:000000000000013c .L0 
     /tmp/ccGgmCTb.s:239    .text:000000000000013c .L0 
     /tmp/ccGgmCTb.s:241    .text:0000000000000140 .L0 
     /tmp/ccGgmCTb.s:244    .text:0000000000000144 .L0 
     /tmp/ccGgmCTb.s:249    .text:0000000000000144 .L0 
     /tmp/ccGgmCTb.s:250    .text:0000000000000144 .L0 
     /tmp/ccGgmCTb.s:251    .text:0000000000000144 .L0 
     /tmp/ccGgmCTb.s:252    .text:0000000000000144 .L0 
     /tmp/ccGgmCTb.s:257    .text:0000000000000154 .L0 
     /tmp/ccGgmCTb.s:258    .text:0000000000000154 .L0 
     /tmp/ccGgmCTb.s:262    .text:0000000000000164 .L0 
     /tmp/ccGgmCTb.s:263    .text:0000000000000164 .L0 
     /tmp/ccGgmCTb.s:267    .text:0000000000000174 .L0 
     /tmp/ccGgmCTb.s:268    .text:0000000000000174 .L0 
     /tmp/ccGgmCTb.s:272    .text:0000000000000180 .L0 
     /tmp/ccGgmCTb.s:273    .text:0000000000000180 .L0 
     /tmp/ccGgmCTb.s:277    .text:0000000000000190 .L0 
     /tmp/ccGgmCTb.s:278    .text:0000000000000190 .L0 
     /tmp/ccGgmCTb.s:281    .text:0000000000000198 .L0 
     /tmp/ccGgmCTb.s:282    .text:0000000000000198 .L0 
     /tmp/ccGgmCTb.s:290    .text:00000000000001a0 .L0 
     /tmp/ccGgmCTb.s:291    .text:00000000000001a0 .L0 
     /tmp/ccGgmCTb.s:296    .text:00000000000001b0 .L0 
     /tmp/ccGgmCTb.s:297    .text:00000000000001b0 .L0 
     /tmp/ccGgmCTb.s:301    .text:00000000000001c0 .L0 
     /tmp/ccGgmCTb.s:302    .text:00000000000001c0 .L0 
     /tmp/ccGgmCTb.s:306    .text:00000000000001d0 .L0 
     /tmp/ccGgmCTb.s:307    .text:00000000000001d0 .L0 
     /tmp/ccGgmCTb.s:311    .text:00000000000001dc .L0 
     /tmp/ccGgmCTb.s:312    .text:00000000000001dc .L0 
     /tmp/ccGgmCTb.s:316    .text:00000000000001ec .L0 
     /tmp/ccGgmCTb.s:317    .text:00000000000001ec .L0 
     /tmp/ccGgmCTb.s:320    .text:00000000000001f4 .L0 
     /tmp/ccGgmCTb.s:321    .text:00000000000001f4 .L0 
GAS LISTING /tmp/ccGgmCTb.s 			page 20


     /tmp/ccGgmCTb.s:329    .text:00000000000001fc .L0 
     /tmp/ccGgmCTb.s:330    .text:00000000000001fc .L0 
     /tmp/ccGgmCTb.s:331    .text:00000000000001fc .L0 
     /tmp/ccGgmCTb.s:339    .text:0000000000000214 .L0 
     /tmp/ccGgmCTb.s:340    .text:0000000000000214 .L0 
     /tmp/ccGgmCTb.s:342    .text:000000000000021c .L0 
     /tmp/ccGgmCTb.s:343    .text:0000000000000220 .L0 
     /tmp/ccGgmCTb.s:349    .text:0000000000000220 _ZN9Scheduler7getNextEv
     /tmp/ccGgmCTb.s:352    .text:0000000000000220 .L0 
     /tmp/ccGgmCTb.s:353    .text:0000000000000220 .L0 
     /tmp/ccGgmCTb.s:354    .text:0000000000000224 .L0 
     /tmp/ccGgmCTb.s:356    .text:0000000000000228 .L0 
     /tmp/ccGgmCTb.s:358    .text:000000000000022c .L0 
     /tmp/ccGgmCTb.s:362    .text:000000000000022c .L0 
     /tmp/ccGgmCTb.s:363    .text:000000000000022c .L0 
     /tmp/ccGgmCTb.s:364    .text:000000000000022c .L0 
     /tmp/ccGgmCTb.s:371    .text:0000000000000238 .L0 
     /tmp/ccGgmCTb.s:377    .text:0000000000000240 .L0 
     /tmp/ccGgmCTb.s:383    .text:000000000000024c .L0 
     /tmp/ccGgmCTb.s:384    .text:000000000000024c .L0 
     /tmp/ccGgmCTb.s:389    .text:0000000000000254 .L0 
     /tmp/ccGgmCTb.s:390    .text:0000000000000254 .L0 
     /tmp/ccGgmCTb.s:391    .text:0000000000000254 .L0 
     /tmp/ccGgmCTb.s:398    .text:0000000000000260 .L0 
     /tmp/ccGgmCTb.s:404    .text:0000000000000268 .L0 
     /tmp/ccGgmCTb.s:410    .text:0000000000000274 .L0 
     /tmp/ccGgmCTb.s:411    .text:0000000000000274 .L0 
     /tmp/ccGgmCTb.s:415    .text:000000000000027c .L0 
     /tmp/ccGgmCTb.s:416    .text:000000000000027c .L0 
     /tmp/ccGgmCTb.s:424    .text:0000000000000294 .L0 
     /tmp/ccGgmCTb.s:425    .text:0000000000000294 .L0 
     /tmp/ccGgmCTb.s:427    .text:0000000000000298 .L0 
     /tmp/ccGgmCTb.s:429    .text:00000000000002a0 .L0 
     /tmp/ccGgmCTb.s:430    .text:00000000000002a0 .L0 
     /tmp/ccGgmCTb.s:431    .text:00000000000002a4 .L0 
     /tmp/ccGgmCTb.s:432    .text:00000000000002a4 .L0 
     /tmp/ccGgmCTb.s:434    .text:00000000000002a8 .L0 
     /tmp/ccGgmCTb.s:436    .text:00000000000002ac .L0 
     /tmp/ccGgmCTb.s:442    .text:00000000000002ac _ZN9Scheduler14dispatchToNextEv
     /tmp/ccGgmCTb.s:445    .text:00000000000002ac .L0 
     /tmp/ccGgmCTb.s:446    .text:00000000000002ac .L0 
     /tmp/ccGgmCTb.s:447    .text:00000000000002b0 .L0 
     /tmp/ccGgmCTb.s:452    .text:00000000000002c0 .L0 
     /tmp/ccGgmCTb.s:453    .text:00000000000002c0 .L0 
     /tmp/ccGgmCTb.s:454    .text:00000000000002c0 .L0 
     /tmp/ccGgmCTb.s:455    .text:00000000000002c0 .L0 
     /tmp/ccGgmCTb.s:457    .text:00000000000002c4 .L0 
     /tmp/ccGgmCTb.s:459    .text:00000000000002c4 .L0 
     /tmp/ccGgmCTb.s:468    .text:00000000000002dc .L0 
     /tmp/ccGgmCTb.s:473    .text:00000000000002e0 .L0 
     /tmp/ccGgmCTb.s:474    .text:00000000000002e0 .L0 
     /tmp/ccGgmCTb.s:475    .text:00000000000002e0 .L0 
     /tmp/ccGgmCTb.s:480    .text:00000000000002ec .L0 
     /tmp/ccGgmCTb.s:481    .text:00000000000002ec .L0 
     /tmp/ccGgmCTb.s:486    .text:00000000000002f8 .L0 
     /tmp/ccGgmCTb.s:492    .text:0000000000000300 .L0 
     /tmp/ccGgmCTb.s:497    .text:0000000000000304 .L0 
GAS LISTING /tmp/ccGgmCTb.s 			page 21


     /tmp/ccGgmCTb.s:498    .text:0000000000000304 .L0 
     /tmp/ccGgmCTb.s:499    .text:0000000000000304 .L0 
     /tmp/ccGgmCTb.s:502    .text:000000000000030c .L0 
     /tmp/ccGgmCTb.s:504    .text:0000000000000310 .L0 
     /tmp/ccGgmCTb.s:505    .text:0000000000000310 .L0 
     /tmp/ccGgmCTb.s:508    .text:0000000000000314 .L0 
     /tmp/ccGgmCTb.s:509    .text:0000000000000318 .L0 
     /tmp/ccGgmCTb.s:510    .text:0000000000000318 .L0 
     /tmp/ccGgmCTb.s:512    .text:000000000000031c .L0 
     /tmp/ccGgmCTb.s:513    .text:000000000000031c .L0 
     /tmp/ccGgmCTb.s:515    .text:0000000000000320 .L0 
     /tmp/ccGgmCTb.s:518    .text:0000000000000324 .L0 
     /tmp/ccGgmCTb.s:521    .text:0000000000000328 .L0 
     /tmp/ccGgmCTb.s:525    .text:000000000000032c .L0 
     /tmp/ccGgmCTb.s:529    .text:000000000000032c .L0 
     /tmp/ccGgmCTb.s:530    .text:000000000000032c .L0 
     /tmp/ccGgmCTb.s:535    .text:000000000000033c .L0 
     /tmp/ccGgmCTb.s:536    .text:000000000000033c .L0 
     /tmp/ccGgmCTb.s:540    .text:000000000000034c .L0 
     /tmp/ccGgmCTb.s:541    .text:000000000000034c .L0 
     /tmp/ccGgmCTb.s:545    .text:000000000000035c .L0 
     /tmp/ccGgmCTb.s:546    .text:000000000000035c .L0 
     /tmp/ccGgmCTb.s:550    .text:0000000000000368 .L0 
     /tmp/ccGgmCTb.s:551    .text:0000000000000368 .L0 
     /tmp/ccGgmCTb.s:555    .text:0000000000000378 .L0 
     /tmp/ccGgmCTb.s:556    .text:0000000000000378 .L0 
     /tmp/ccGgmCTb.s:559    .text:0000000000000380 .L0 
     /tmp/ccGgmCTb.s:560    .text:0000000000000380 .L0 
     /tmp/ccGgmCTb.s:568    .text:0000000000000388 .L0 
     /tmp/ccGgmCTb.s:569    .text:0000000000000388 .L0 
     /tmp/ccGgmCTb.s:573    .text:0000000000000398 .L0 
     /tmp/ccGgmCTb.s:574    .text:0000000000000398 .L0 
     /tmp/ccGgmCTb.s:578    .text:00000000000003a8 .L0 
     /tmp/ccGgmCTb.s:579    .text:00000000000003a8 .L0 
     /tmp/ccGgmCTb.s:583    .text:00000000000003b8 .L0 
     /tmp/ccGgmCTb.s:584    .text:00000000000003b8 .L0 
     /tmp/ccGgmCTb.s:588    .text:00000000000003c4 .L0 
     /tmp/ccGgmCTb.s:589    .text:00000000000003c4 .L0 
     /tmp/ccGgmCTb.s:593    .text:00000000000003d4 .L0 
     /tmp/ccGgmCTb.s:594    .text:00000000000003d4 .L0 
     /tmp/ccGgmCTb.s:597    .text:00000000000003dc .L0 
     /tmp/ccGgmCTb.s:598    .text:00000000000003dc .L0 
     /tmp/ccGgmCTb.s:604    .text:00000000000003e4 .L0 
     /tmp/ccGgmCTb.s:605    .text:00000000000003e4 .L0 
     /tmp/ccGgmCTb.s:607    .text:00000000000003e8 .L0 
     /tmp/ccGgmCTb.s:608    .text:00000000000003ec .L0 
     /tmp/ccGgmCTb.s:630    .text:00000000000003ec .L0 
     /tmp/ccGgmCTb.s:8      .rodata.str1.8:0000000000000000 .LC0
     /tmp/ccGgmCTb.s:42     .text:0000000000000028 .L0 
     /tmp/ccGgmCTb.s:51     .text:0000000000000038 .L0 
     /tmp/ccGgmCTb.s:58     .text:0000000000000044 .L0 
     /tmp/ccGgmCTb.s:65     .text:0000000000000050 .L0 
     /tmp/ccGgmCTb.s:71     .text:0000000000000058 .L0 
     /tmp/ccGgmCTb.s:11     .rodata.str1.8:0000000000000008 .LC1
     /tmp/ccGgmCTb.s:89     .text:0000000000000078 .L0 
     /tmp/ccGgmCTb.s:171    .text:00000000000000d0 .L0 
     /tmp/ccGgmCTb.s:178    .text:00000000000000dc .L0 
GAS LISTING /tmp/ccGgmCTb.s 			page 22


     /tmp/ccGgmCTb.s:185    .text:00000000000000e8 .L0 
     /tmp/ccGgmCTb.s:191    .text:00000000000000f0 .L0 
     /tmp/ccGgmCTb.s:199    .text:00000000000000fc .L0 
     /tmp/ccGgmCTb.s:206    .text:0000000000000108 .L0 
     /tmp/ccGgmCTb.s:213    .text:0000000000000114 .L0 
     /tmp/ccGgmCTb.s:219    .text:000000000000011c .L0 
     /tmp/ccGgmCTb.s:120    .rodata.str1.8:0000000000000010 .LC2
     /tmp/ccGgmCTb.s:252    .text:0000000000000144 .L0 
     /tmp/ccGgmCTb.s:123    .rodata.str1.8:0000000000000038 .LC3
     /tmp/ccGgmCTb.s:258    .text:0000000000000154 .L0 
     /tmp/ccGgmCTb.s:126    .rodata.str1.8:0000000000000050 .LC4
     /tmp/ccGgmCTb.s:263    .text:0000000000000164 .L0 
     /tmp/ccGgmCTb.s:129    .rodata.str1.8:0000000000000060 .LC5
     /tmp/ccGgmCTb.s:273    .text:0000000000000180 .L0 
     /tmp/ccGgmCTb.s:291    .text:00000000000001a0 .L0 
     /tmp/ccGgmCTb.s:297    .text:00000000000001b0 .L0 
     /tmp/ccGgmCTb.s:302    .text:00000000000001c0 .L0 
     /tmp/ccGgmCTb.s:312    .text:00000000000001dc .L0 
     /tmp/ccGgmCTb.s:331    .text:00000000000001fc .L0 
     /tmp/ccGgmCTb.s:334    .text:000000000000020c .L0 
     /tmp/ccGgmCTb.s:340    .text:0000000000000214 .L0 
     /tmp/ccGgmCTb.s:364    .text:000000000000022c .L0 
     /tmp/ccGgmCTb.s:371    .text:0000000000000238 .L0 
     /tmp/ccGgmCTb.s:378    .text:0000000000000244 .L0 
     /tmp/ccGgmCTb.s:384    .text:000000000000024c .L0 
     /tmp/ccGgmCTb.s:391    .text:0000000000000254 .L0 
     /tmp/ccGgmCTb.s:398    .text:0000000000000260 .L0 
     /tmp/ccGgmCTb.s:405    .text:000000000000026c .L0 
     /tmp/ccGgmCTb.s:411    .text:0000000000000274 .L0 
     /tmp/ccGgmCTb.s:416    .text:000000000000027c .L0 
     /tmp/ccGgmCTb.s:419    .text:000000000000028c .L0 
     /tmp/ccGgmCTb.s:427    .text:0000000000000298 .L0 
     /tmp/ccGgmCTb.s:462    .text:00000000000002d0 .L0 
     /tmp/ccGgmCTb.s:530    .text:000000000000032c .L0 
     /tmp/ccGgmCTb.s:536    .text:000000000000033c .L0 
     /tmp/ccGgmCTb.s:541    .text:000000000000034c .L0 
     /tmp/ccGgmCTb.s:551    .text:0000000000000368 .L0 
     /tmp/ccGgmCTb.s:569    .text:0000000000000388 .L0 
     /tmp/ccGgmCTb.s:574    .text:0000000000000398 .L0 
     /tmp/ccGgmCTb.s:579    .text:00000000000003a8 .L0 
     /tmp/ccGgmCTb.s:589    .text:00000000000003c4 .L0 
     /tmp/ccGgmCTb.s:66     .text:0000000000000058 .L2
     /tmp/ccGgmCTb.s:98     .text:0000000000000090 .L3
     /tmp/ccGgmCTb.s:73     .text:0000000000000060 .L4
     /tmp/ccGgmCTb.s:243    .text:0000000000000144 .L16
     /tmp/ccGgmCTb.s:284    .text:00000000000001a0 .L17
     /tmp/ccGgmCTb.s:186    .text:00000000000000f0 .L9
     /tmp/ccGgmCTb.s:323    .text:00000000000001fc .L18
     /tmp/ccGgmCTb.s:214    .text:000000000000011c .L13
     /tmp/ccGgmCTb.s:221    .text:0000000000000124 .L14
     /tmp/ccGgmCTb.s:335    .text:0000000000000214 .L11
     /tmp/ccGgmCTb.s:232    .text:0000000000000134 .L6
     /tmp/ccGgmCTb.s:379    .text:000000000000024c .L20
     /tmp/ccGgmCTb.s:406    .text:0000000000000274 .L21
     /tmp/ccGgmCTb.s:420    .text:0000000000000294 .L22
     /tmp/ccGgmCTb.s:524    .text:000000000000032c .L30
     /tmp/ccGgmCTb.s:562    .text:0000000000000388 .L31
GAS LISTING /tmp/ccGgmCTb.s 			page 23


     /tmp/ccGgmCTb.s:600    .text:00000000000003e4 .L27
     /tmp/ccGgmCTb.s:506    .text:0000000000000314 .L24
     /tmp/ccGgmCTb.s:1857   .debug_abbrev:0000000000000000 .Ldebug_abbrev0
     /tmp/ccGgmCTb.s:3270   .debug_str:00000000000004f9 .LASF87
     /tmp/ccGgmCTb.s:3282   .debug_str:00000000000005fb .LASF88
     /tmp/ccGgmCTb.s:3232   .debug_str:00000000000003d3 .LASF89
     /tmp/ccGgmCTb.s:5      .text:0000000000000000 .Ltext0
     /tmp/ccGgmCTb.s:626    .text:00000000000003ec .Letext0
     /tmp/ccGgmCTb.s:3086   .debug_line:0000000000000000 .Ldebug_line0
     /tmp/ccGgmCTb.s:3194   .debug_str:00000000000002e9 .LASF0
     /tmp/ccGgmCTb.s:3208   .debug_str:0000000000000347 .LASF1
     /tmp/ccGgmCTb.s:3178   .debug_str:0000000000000261 .LASF2
     /tmp/ccGgmCTb.s:3154   .debug_str:00000000000001d3 .LASF4
     /tmp/ccGgmCTb.s:3252   .debug_str:0000000000000466 .LASF3
     /tmp/ccGgmCTb.s:3112   .debug_str:00000000000000a8 .LASF5
     /tmp/ccGgmCTb.s:3212   .debug_str:000000000000035f .LASF6
     /tmp/ccGgmCTb.s:3192   .debug_str:00000000000002d6 .LASF7
     /tmp/ccGgmCTb.s:3276   .debug_str:00000000000005d3 .LASF8
     /tmp/ccGgmCTb.s:3142   .debug_str:0000000000000194 .LASF9
     /tmp/ccGgmCTb.s:3228   .debug_str:00000000000003ad .LASF10
     /tmp/ccGgmCTb.s:3272   .debug_str:00000000000005bd .LASF11
     /tmp/ccGgmCTb.s:3114   .debug_str:00000000000000af .LASF12
     /tmp/ccGgmCTb.s:3098   .debug_str:0000000000000053 .LASF13
     /tmp/ccGgmCTb.s:3120   .debug_str:00000000000000e7 .LASF14
     /tmp/ccGgmCTb.s:3248   .debug_str:0000000000000445 .LASF15
     /tmp/ccGgmCTb.s:3126   .debug_str:0000000000000108 .LASF16
     /tmp/ccGgmCTb.s:3274   .debug_str:00000000000005cc .LASF46
     /tmp/ccGgmCTb.s:3146   .debug_str:00000000000001a8 .LASF90
     /tmp/ccGgmCTb.s:3220   .debug_str:0000000000000389 .LASF17
     /tmp/ccGgmCTb.s:3184   .debug_str:0000000000000281 .LASF18
     /tmp/ccGgmCTb.s:3226   .debug_str:00000000000003a7 .LASF19
     /tmp/ccGgmCTb.s:3182   .debug_str:0000000000000274 .LASF20
     /tmp/ccGgmCTb.s:3170   .debug_str:000000000000022e .LASF21
     /tmp/ccGgmCTb.s:3218   .debug_str:000000000000037d .LASF22
     /tmp/ccGgmCTb.s:3206   .debug_str:0000000000000332 .LASF23
     /tmp/ccGgmCTb.s:3266   .debug_str:00000000000004e2 .LASF24
     /tmp/ccGgmCTb.s:3254   .debug_str:0000000000000478 .LASF25
     /tmp/ccGgmCTb.s:3152   .debug_str:00000000000001c7 .LASF26
     /tmp/ccGgmCTb.s:3136   .debug_str:0000000000000167 .LASF27
     /tmp/ccGgmCTb.s:3090   .debug_str:0000000000000006 .LASF28
     /tmp/ccGgmCTb.s:3268   .debug_str:00000000000004ed .LASF29
     /tmp/ccGgmCTb.s:3128   .debug_str:000000000000011e .LASF31
     /tmp/ccGgmCTb.s:3224   .debug_str:000000000000039b .LASF33
     /tmp/ccGgmCTb.s:3242   .debug_str:0000000000000412 .LASF35
     /tmp/ccGgmCTb.s:3164   .debug_str:00000000000001f9 .LASF45
     /tmp/ccGgmCTb.s:3094   .debug_str:0000000000000024 .LASF47
     /tmp/ccGgmCTb.s:3240   .debug_str:000000000000040d .LASF91
     /tmp/ccGgmCTb.s:3172   .debug_str:000000000000023a .LASF30
     /tmp/ccGgmCTb.s:3108   .debug_str:0000000000000091 .LASF32
     /tmp/ccGgmCTb.s:3286   .debug_str:0000000000000619 .LASF58
     /tmp/ccGgmCTb.s:3196   .debug_str:00000000000002f6 .LASF60
     /tmp/ccGgmCTb.s:3256   .debug_str:0000000000000489 .LASF34
     /tmp/ccGgmCTb.s:3102   .debug_str:000000000000006e .LASF36
     /tmp/ccGgmCTb.s:3104   .debug_str:0000000000000080 .LASF37
     /tmp/ccGgmCTb.s:3160   .debug_str:00000000000001ec .LASF38
     /tmp/ccGgmCTb.s:3202   .debug_str:0000000000000323 .LASF39
     /tmp/ccGgmCTb.s:3284   .debug_str:000000000000060d .LASF40
GAS LISTING /tmp/ccGgmCTb.s 			page 24


     /tmp/ccGgmCTb.s:3204   .debug_str:0000000000000328 .LASF41
     /tmp/ccGgmCTb.s:3144   .debug_str:00000000000001a2 .LASF42
     /tmp/ccGgmCTb.s:3280   .debug_str:00000000000005ee .LASF43
     /tmp/ccGgmCTb.s:3180   .debug_str:000000000000026f .LASF44
     /tmp/ccGgmCTb.s:3230   .debug_str:00000000000003bc .LASF48
     /tmp/ccGgmCTb.s:3244   .debug_str:000000000000042e .LASF49
     /tmp/ccGgmCTb.s:3216   .debug_str:0000000000000378 .LASF50
     /tmp/ccGgmCTb.s:3166   .debug_str:0000000000000206 .LASF51
     /tmp/ccGgmCTb.s:3100   .debug_str:0000000000000063 .LASF92
     /tmp/ccGgmCTb.s:3140   .debug_str:000000000000017b .LASF93
     /tmp/ccGgmCTb.s:3130   .debug_str:0000000000000138 .LASF52
     /tmp/ccGgmCTb.s:3264   .debug_str:00000000000004c9 .LASF53
     /tmp/ccGgmCTb.s:3258   .debug_str:000000000000048e .LASF54
     /tmp/ccGgmCTb.s:3198   .debug_str:0000000000000311 .LASF55
     /tmp/ccGgmCTb.s:3138   .debug_str:0000000000000176 .LASF56
     /tmp/ccGgmCTb.s:3222   .debug_str:0000000000000391 .LASF57
     /tmp/ccGgmCTb.s:3150   .debug_str:00000000000001b3 .LASF94
     /tmp/ccGgmCTb.s:3234   .debug_str:00000000000003e7 .LASF59
     /tmp/ccGgmCTb.s:3190   .debug_str:00000000000002b6 .LASF61
     /tmp/ccGgmCTb.s:3162   .debug_str:00000000000001f1 .LASF62
     /tmp/ccGgmCTb.s:3118   .debug_str:00000000000000cf .LASF63
     /tmp/ccGgmCTb.s:3188   .debug_str:000000000000029b .LASF95
     /tmp/ccGgmCTb.s:3106   .debug_str:0000000000000086 .LASF64
     /tmp/ccGgmCTb.s:3262   .debug_str:00000000000004ad .LASF65
     /tmp/ccGgmCTb.s:3214   .debug_str:0000000000000372 .LASF66
     /tmp/ccGgmCTb.s:3174   .debug_str:000000000000023f .LASF71
     /tmp/ccGgmCTb.s:350    .text:0000000000000220 .LFB11
     /tmp/ccGgmCTb.s:437    .text:00000000000002ac .LFE11
     /tmp/ccGgmCTb.s:360    .text:000000000000022c .LBB81
     /tmp/ccGgmCTb.s:382    .text:000000000000024c .LBE81
     /tmp/ccGgmCTb.s:367    .text:0000000000000238 .LBB83
     /tmp/ccGgmCTb.s:375    .text:0000000000000240 .LBE83
     /tmp/ccGgmCTb.s:2758   .debug_loc:0000000000000000 .LLST12
     /tmp/ccGgmCTb.s:387    .text:0000000000000254 .LBB86
     /tmp/ccGgmCTb.s:409    .text:0000000000000274 .LBE86
     /tmp/ccGgmCTb.s:394    .text:0000000000000260 .LBB88
     /tmp/ccGgmCTb.s:402    .text:0000000000000268 .LBE88
     /tmp/ccGgmCTb.s:2767   .debug_loc:000000000000002c .LLST13
     /tmp/ccGgmCTb.s:412    .text:000000000000027c .LBB91
     /tmp/ccGgmCTb.s:423    .text:0000000000000294 .LBE91
     /tmp/ccGgmCTb.s:136    .text:00000000000000ac .LFB10
     /tmp/ccGgmCTb.s:344    .text:0000000000000220 .LFE10
     /tmp/ccGgmCTb.s:2776   .debug_loc:0000000000000058 .LLST2
     /tmp/ccGgmCTb.s:3210   .debug_str:000000000000035a .LASF67
     /tmp/ccGgmCTb.s:2805   .debug_loc:00000000000000cd .LLST3
     /tmp/ccGgmCTb.s:154    .text:00000000000000c8 .LBB63
     /tmp/ccGgmCTb.s:3066   .debug_ranges:0000000000000000 .Ldebug_ranges0
     /tmp/ccGgmCTb.s:2816   .debug_loc:0000000000000103 .LLST4
     /tmp/ccGgmCTb.s:2831   .debug_loc:000000000000013d .LLST5
     /tmp/ccGgmCTb.s:2846   .debug_loc:0000000000000185 .LLST6
     /tmp/ccGgmCTb.s:294    .text:00000000000001b0 .LVL31
     /tmp/ccGgmCTb.s:299    .text:00000000000001c0 .LVL32
     /tmp/ccGgmCTb.s:304    .text:00000000000001d0 .LVL33
     /tmp/ccGgmCTb.s:309    .text:00000000000001dc .LVL34
     /tmp/ccGgmCTb.s:314    .text:00000000000001ec .LVL35
     /tmp/ccGgmCTb.s:318    .text:00000000000001f4 .LVL36
     /tmp/ccGgmCTb.s:322    .text:00000000000001fc .LVL37
GAS LISTING /tmp/ccGgmCTb.s 			page 25


     /tmp/ccGgmCTb.s:167    .text:00000000000000d0 .LBB66
     /tmp/ccGgmCTb.s:189    .text:00000000000000f0 .LBE66
     /tmp/ccGgmCTb.s:174    .text:00000000000000dc .LBB68
     /tmp/ccGgmCTb.s:182    .text:00000000000000e4 .LBE68
     /tmp/ccGgmCTb.s:2865   .debug_loc:00000000000001c3 .LLST7
     /tmp/ccGgmCTb.s:195    .text:00000000000000fc .LBB71
     /tmp/ccGgmCTb.s:217    .text:000000000000011c .LBE71
     /tmp/ccGgmCTb.s:202    .text:0000000000000108 .LBB73
     /tmp/ccGgmCTb.s:210    .text:0000000000000110 .LBE73
     /tmp/ccGgmCTb.s:2874   .debug_loc:00000000000001ef .LLST8
     /tmp/ccGgmCTb.s:247    .text:0000000000000144 .LBB76
     /tmp/ccGgmCTb.s:286    .text:00000000000001a0 .LBE76
     /tmp/ccGgmCTb.s:2883   .debug_loc:000000000000021b .LLST9
     /tmp/ccGgmCTb.s:2892   .debug_loc:0000000000000240 .LLST10
     /tmp/ccGgmCTb.s:2901   .debug_loc:000000000000026c .LLST11
     /tmp/ccGgmCTb.s:255    .text:0000000000000154 .LVL23
     /tmp/ccGgmCTb.s:260    .text:0000000000000164 .LVL24
     /tmp/ccGgmCTb.s:265    .text:0000000000000174 .LVL25
     /tmp/ccGgmCTb.s:270    .text:0000000000000180 .LVL26
     /tmp/ccGgmCTb.s:275    .text:0000000000000190 .LVL27
     /tmp/ccGgmCTb.s:279    .text:0000000000000198 .LVL28
     /tmp/ccGgmCTb.s:283    .text:00000000000001a0 .LVL29
     /tmp/ccGgmCTb.s:327    .text:00000000000001fc .LBB79
     /tmp/ccGgmCTb.s:338    .text:0000000000000214 .LBE79
     /tmp/ccGgmCTb.s:443    .text:00000000000002ac .LFB9
     /tmp/ccGgmCTb.s:609    .text:00000000000003ec .LFE9
     /tmp/ccGgmCTb.s:3260   .debug_str:00000000000004a8 .LASF68
     /tmp/ccGgmCTb.s:2909   .debug_loc:0000000000000290 .LLST14
     /tmp/ccGgmCTb.s:3110   .debug_str:00000000000000a3 .LASF69
     /tmp/ccGgmCTb.s:2924   .debug_loc:00000000000002d9 .LLST15
     /tmp/ccGgmCTb.s:465    .text:00000000000002dc .LBB97
     /tmp/ccGgmCTb.s:2935   .debug_loc:000000000000030f .LLST16
     /tmp/ccGgmCTb.s:2948   .debug_loc:0000000000000347 .LLST17
     /tmp/ccGgmCTb.s:2963   .debug_loc:000000000000038f .LLST18
     /tmp/ccGgmCTb.s:533    .text:000000000000033c .LVL57
     /tmp/ccGgmCTb.s:538    .text:000000000000034c .LVL58
     /tmp/ccGgmCTb.s:543    .text:000000000000035c .LVL59
     /tmp/ccGgmCTb.s:548    .text:0000000000000368 .LVL60
     /tmp/ccGgmCTb.s:553    .text:0000000000000378 .LVL61
     /tmp/ccGgmCTb.s:557    .text:0000000000000380 .LVL62
     /tmp/ccGgmCTb.s:561    .text:0000000000000388 .LVL63
     /tmp/ccGgmCTb.s:489    .text:0000000000000300 .LBB100
     /tmp/ccGgmCTb.s:2988   .debug_loc:00000000000003d3 .LLST19
     /tmp/ccGgmCTb.s:3003   .debug_loc:000000000000040d .LLST20
     /tmp/ccGgmCTb.s:3018   .debug_loc:0000000000000455 .LLST21
     /tmp/ccGgmCTb.s:571    .text:0000000000000398 .LVL64
     /tmp/ccGgmCTb.s:576    .text:00000000000003a8 .LVL65
     /tmp/ccGgmCTb.s:581    .text:00000000000003b8 .LVL66
     /tmp/ccGgmCTb.s:586    .text:00000000000003c4 .LVL67
     /tmp/ccGgmCTb.s:591    .text:00000000000003d4 .LVL68
     /tmp/ccGgmCTb.s:595    .text:00000000000003dc .LVL69
     /tmp/ccGgmCTb.s:599    .text:00000000000003e4 .LVL70
     /tmp/ccGgmCTb.s:460    .text:00000000000002cc .LVL43
     /tmp/ccGgmCTb.s:476    .text:00000000000002e8 .LVL46
     /tmp/ccGgmCTb.s:482    .text:00000000000002f4 .LVL48
     /tmp/ccGgmCTb.s:500    .text:000000000000030c .LVL52
     /tmp/ccGgmCTb.s:18     .text:0000000000000000 .LFB8
GAS LISTING /tmp/ccGgmCTb.s 			page 26


     /tmp/ccGgmCTb.s:116    .text:00000000000000ac .LFE8
     /tmp/ccGgmCTb.s:3037   .debug_loc:0000000000000493 .LLST0
     /tmp/ccGgmCTb.s:46     .text:0000000000000038 .LBB40
     /tmp/ccGgmCTb.s:69     .text:0000000000000058 .LBE40
     /tmp/ccGgmCTb.s:54     .text:0000000000000044 .LBB42
     /tmp/ccGgmCTb.s:62     .text:000000000000004c .LBE42
     /tmp/ccGgmCTb.s:3044   .debug_loc:00000000000004b6 .LLST1
     /tmp/ccGgmCTb.s:35     .text:000000000000001c .LVL0
     /tmp/ccGgmCTb.s:39     .text:0000000000000028 .LVL1
     /tmp/ccGgmCTb.s:44     .text:0000000000000038 .LVL2
     /tmp/ccGgmCTb.s:81     .text:0000000000000070 .LVL6
     /tmp/ccGgmCTb.s:91     .text:0000000000000088 .LVL7
     /tmp/ccGgmCTb.s:102    .text:0000000000000098 .LVL9
     /tmp/ccGgmCTb.s:3236   .debug_str:00000000000003f6 .LASF96
     /tmp/ccGgmCTb.s:3238   .debug_str:00000000000003fb .LASF97
     /tmp/ccGgmCTb.s:3200   .debug_str:000000000000031a .LASF98
     /tmp/ccGgmCTb.s:3132   .debug_str:0000000000000143 .LASF99
     /tmp/ccGgmCTb.s:3246   .debug_str:000000000000043d .LASF70
     /tmp/ccGgmCTb.s:3124   .debug_str:00000000000000f8 .LASF72
     /tmp/ccGgmCTb.s:3088   .debug_str:0000000000000000 .LASF73
     /tmp/ccGgmCTb.s:3122   .debug_str:00000000000000f3 .LASF74
     /tmp/ccGgmCTb.s:3134   .debug_str:0000000000000162 .LASF75
     /tmp/ccGgmCTb.s:3148   .debug_str:00000000000001ae .LASF76
     /tmp/ccGgmCTb.s:3116   .debug_str:00000000000000bf .LASF77
     /tmp/ccGgmCTb.s:3096   .debug_str:0000000000000049 .LASF79
     /tmp/ccGgmCTb.s:3158   .debug_str:00000000000001e1 .LASF78
     /tmp/ccGgmCTb.s:3092   .debug_str:000000000000001d .LASF80
     /tmp/ccGgmCTb.s:3176   .debug_str:0000000000000251 .LASF81
     /tmp/ccGgmCTb.s:3250   .debug_str:000000000000045b .LASF82
     /tmp/ccGgmCTb.s:3186   .debug_str:000000000000028b .LASF83
     /tmp/ccGgmCTb.s:3168   .debug_str:0000000000000223 .LASF84
     /tmp/ccGgmCTb.s:3278   .debug_str:00000000000005e3 .LASF85
     /tmp/ccGgmCTb.s:3156   .debug_str:00000000000001da .LASF86
     /tmp/ccGgmCTb.s:366    .text:0000000000000238 .LVL38
     /tmp/ccGgmCTb.s:372    .text:0000000000000240 .LVL39
     /tmp/ccGgmCTb.s:393    .text:0000000000000260 .LVL41
     /tmp/ccGgmCTb.s:399    .text:0000000000000268 .LVL42
     /tmp/ccGgmCTb.s:139    .text:00000000000000ac .LVL11
     /tmp/ccGgmCTb.s:253    .text:000000000000014c .LVL22
     /tmp/ccGgmCTb.s:292    .text:00000000000001a8 .LVL30
     /tmp/ccGgmCTb.s:220    .text:0000000000000124 .LVL18
     /tmp/ccGgmCTb.s:226    .text:000000000000012c .LVL19
     /tmp/ccGgmCTb.s:231    .text:0000000000000134 .LVL20
     /tmp/ccGgmCTb.s:153    .text:00000000000000c8 .LVL12
     /tmp/ccGgmCTb.s:160    .text:00000000000000cc .LVL13
     /tmp/ccGgmCTb.s:173    .text:00000000000000dc .LVL14
     /tmp/ccGgmCTb.s:179    .text:00000000000000e4 .LVL15
     /tmp/ccGgmCTb.s:201    .text:0000000000000108 .LVL16
     /tmp/ccGgmCTb.s:207    .text:0000000000000110 .LVL17
     /tmp/ccGgmCTb.s:246    .text:0000000000000144 .LVL21
     /tmp/ccGgmCTb.s:478    .text:00000000000002ec .LVL47
     /tmp/ccGgmCTb.s:519    .text:0000000000000324 .LVL54
     /tmp/ccGgmCTb.s:484    .text:00000000000002f8 .LVL49
     /tmp/ccGgmCTb.s:516    .text:0000000000000320 .LVL53
     /tmp/ccGgmCTb.s:464    .text:00000000000002dc .LVL44
     /tmp/ccGgmCTb.s:470    .text:00000000000002e0 .LVL45
     /tmp/ccGgmCTb.s:523    .text:000000000000032c .LVL55
GAS LISTING /tmp/ccGgmCTb.s 			page 27


     /tmp/ccGgmCTb.s:531    .text:0000000000000334 .LVL56
     /tmp/ccGgmCTb.s:488    .text:0000000000000300 .LVL50
     /tmp/ccGgmCTb.s:494    .text:0000000000000304 .LVL51
     /tmp/ccGgmCTb.s:72     .text:0000000000000060 .LVL5
     /tmp/ccGgmCTb.s:111    .text:00000000000000a4 .LVL10
     /tmp/ccGgmCTb.s:53     .text:0000000000000044 .LVL3
     /tmp/ccGgmCTb.s:59     .text:000000000000004c .LVL4
     /tmp/ccGgmCTb.s:631    .debug_info:0000000000000000 .Ldebug_info0
     /tmp/ccGgmCTb.s:162    .text:00000000000000cc .LBE63
     /tmp/ccGgmCTb.s:287    .text:00000000000001a0 .LBB78
     /tmp/ccGgmCTb.s:325    .text:00000000000001fc .LBE78
     /tmp/ccGgmCTb.s:472    .text:00000000000002e0 .LBE97
     /tmp/ccGgmCTb.s:526    .text:000000000000032c .LBB103
     /tmp/ccGgmCTb.s:564    .text:0000000000000388 .LBE103
     /tmp/ccGgmCTb.s:496    .text:0000000000000304 .LBE100
     /tmp/ccGgmCTb.s:565    .text:0000000000000388 .LBB104
     /tmp/ccGgmCTb.s:602    .text:00000000000003e4 .LBE104

UNDEFINED SYMBOLS
_ZN6Thread11getPRunningEv
_Z6putU64m
_Z9putStringPKc
_Z10putNewlinev
_Z6putInti
_Z10stopKernelv
_ZN6Thread10pRunningSpE
_ZN6Thread11setPRunningEPS_
