GAS LISTING /tmp/ccWA0aO1.s 			page 1


   1              		.file	"scheduler.cpp"
   2              		.option pic
   3              		.option norelax
   4              		.text
   5              	.Ltext0:
   6              		.section	.rodata.str1.8,"aMS",@progbits,1
   7              		.align	3
   8              	.LC0:
   9 0000 3A202000 		.string	":  "
  10 0004 00000000 		.align	3
  11              	.LC1:
  12 0008 2D3E00   		.string	"->"
  13              		.text
  14              		.align	2
  15              		.globl	_ZN9Scheduler10printStateEv
  17              	_ZN9Scheduler10printStateEv:
  18              	.LFB9:
  19              		.file 1 "src/scheduler.cpp"
   1:src/scheduler.cpp **** #include "../h/scheduler.h"
   2:src/scheduler.cpp **** 
   3:src/scheduler.cpp **** void Scheduler::dispatchUserVersion()
   4:src/scheduler.cpp **** {
   5:src/scheduler.cpp ****     extern IThread kernelThread;
   6:src/scheduler.cpp ****     assert(IThread::getPRunning() !=
   7:src/scheduler.cpp ****            &kernelThread); // you're only supposed to open user threads with system call with code 
   8:src/scheduler.cpp **** 
   9:src/scheduler.cpp ****     IThread::getPRunning()->state = IThread::READY;
  10:src/scheduler.cpp ****     Scheduler::put(IThread::getPRunning());
  11:src/scheduler.cpp **** 
  12:src/scheduler.cpp ****     Scheduler::dispatchToNext();
  13:src/scheduler.cpp **** }
  14:src/scheduler.cpp **** 
  15:src/scheduler.cpp **** void Scheduler::printState()
  16:src/scheduler.cpp **** {
  20              		.loc 1 16 1
  21              		.cfi_startproc
  22 0000 130101FE 		addi	sp,sp,-32
  23              		.cfi_def_cfa_offset 32
  24 0004 233C1100 		sd	ra,24(sp)
  25 0008 23388100 		sd	s0,16(sp)
  26 000c 23349100 		sd	s1,8(sp)
  27              		.cfi_offset 1, -8
  28              		.cfi_offset 8, -16
  29              		.cfi_offset 9, -24
  30 0010 13040102 		addi	s0,sp,32
  31              		.cfi_def_cfa 8, 0
  17:src/scheduler.cpp ****     putU64(IThread::getPRunning()->id);
  32              		.loc 1 17 5
  33              		.loc 1 17 32 is_stmt 0
  34 0014 97000000 		call	_ZN7IThread11getPRunningEv@plt
  34      E7800000 
  35              	.LVL0:
  36              		.loc 1 17 11
  37 001c 03358502 		ld	a0,40(a0)
  38 0020 97000000 		call	_Z6putU64m@plt
  38      E7800000 
  39              	.LVL1:
GAS LISTING /tmp/ccWA0aO1.s 			page 2


  18:src/scheduler.cpp ****     putString(":  ");
  40              		.loc 1 18 5 is_stmt 1
  41              		.loc 1 18 14 is_stmt 0
  42 0028 17050000 		lla	a0,.LC0
  42      13050500 
  43 0030 97000000 		call	_Z9putStringPKc@plt
  43      E7800000 
  44              	.LVL2:
  19:src/scheduler.cpp **** 
  20:src/scheduler.cpp ****     IThread* pCur = get()->pHead;
  45              		.loc 1 20 5 is_stmt 1
  46              	.LBB40:
  47              	.LBB41:
  48              		.file 2 "src/../h/scheduler.h"
   1:src/../h/scheduler.h **** #pragma once
   2:src/../h/scheduler.h **** 
   3:src/../h/scheduler.h **** #include "../h/thread.h"
   4:src/../h/scheduler.h **** 
   5:src/../h/scheduler.h **** class Scheduler // singleton
   6:src/../h/scheduler.h **** {
   7:src/../h/scheduler.h **** public:
   8:src/../h/scheduler.h ****     static Scheduler* get()
   9:src/../h/scheduler.h ****     {
  10:src/../h/scheduler.h ****         static Scheduler instance;
  49              		.loc 2 10 9
  50              		.loc 2 10 26 is_stmt 0
  51 0038 97070000 		lbu	a5,_ZGVZN9Scheduler3getEvE8instance
  51      83C70700 
  52 0040 639C0700 		bnez	a5,.L2
  53              	.LVL3:
  54              	.LBB42:
  55              	.LBB43:
  56              	.LBB44:
  11:src/../h/scheduler.h ****         return &instance;
  12:src/../h/scheduler.h ****     }
  13:src/../h/scheduler.h **** 
  14:src/../h/scheduler.h ****     static void dispatchToNext(); // WARNING: different than sys. call dispatch()
  15:src/../h/scheduler.h ****     static void dispatchUserVersion();
  16:src/../h/scheduler.h ****     static IThread* getNext();
  17:src/../h/scheduler.h ****     static void put(IThread*);
  18:src/../h/scheduler.h ****     static void printState();
  19:src/../h/scheduler.h **** 
  20:src/../h/scheduler.h ****     IThread* pHead; // points to the one that is the next to be run
  21:src/../h/scheduler.h **** 
  22:src/../h/scheduler.h **** private:
  23:src/../h/scheduler.h ****     Scheduler()
  24:src/../h/scheduler.h ****         : pHead(nullptr)
  57              		.loc 2 24 24
  58 0044 97070000 		sd	zero,_ZZN9Scheduler3getEvE8instance,a5
  58      23B00700 
  59              	.LVL4:
  60              	.LBE44:
  61              	.LBE43:
  62              	.LBE42:
  10:src/../h/scheduler.h ****         return &instance;
  63              		.loc 2 10 26
  64 004c 93071000 		li	a5,1
GAS LISTING /tmp/ccWA0aO1.s 			page 3


  65 0050 17070000 		sb	a5,_ZGVZN9Scheduler3getEvE8instance,a4
  65      2300F700 
  66              	.L2:
  11:src/../h/scheduler.h ****         return &instance;
  67              		.loc 2 11 9 is_stmt 1
  68              	.LBE41:
  69              	.LBE40:
  70              		.loc 1 20 28 is_stmt 0
  71 0058 97040000 		ld	s1,_ZZN9Scheduler3getEvE8instance
  71      83B40400 
  72              	.LVL5:
  73              	.L4:
  21:src/scheduler.cpp ****     while(pCur)
  74              		.loc 1 21 5 is_stmt 1
  75              		.loc 1 21 11
  76 0060 63880402 		beqz	s1,.L3
  22:src/scheduler.cpp ****     {
  23:src/scheduler.cpp ****         putU64(pCur->id);
  77              		.loc 1 23 9
  78              		.loc 1 23 15 is_stmt 0
  79 0064 03B58402 		ld	a0,40(s1)
  80 0068 97000000 		call	_Z6putU64m@plt
  80      E7800000 
  81              	.LVL6:
  24:src/scheduler.cpp **** 
  25:src/scheduler.cpp ****         if(pCur->pNext)
  82              		.loc 1 25 9 is_stmt 1
  83              		.loc 1 25 18 is_stmt 0
  84 0070 83B70403 		ld	a5,48(s1)
  85              		.loc 1 25 9
  86 0074 638E0700 		beqz	a5,.L3
  26:src/scheduler.cpp ****         {
  27:src/scheduler.cpp ****             putString("->");
  87              		.loc 1 27 13 is_stmt 1
  88              		.loc 1 27 22 is_stmt 0
  89 0078 17050000 		lla	a0,.LC1
  89      13050500 
  90 0080 97000000 		call	_Z9putStringPKc@plt
  90      E7800000 
  91              	.LVL7:
  28:src/scheduler.cpp ****         }
  29:src/scheduler.cpp ****         else
  30:src/scheduler.cpp ****         {
  31:src/scheduler.cpp ****             break;
  32:src/scheduler.cpp ****         }
  33:src/scheduler.cpp **** 
  34:src/scheduler.cpp ****         pCur = pCur->pNext;
  92              		.loc 1 34 9 is_stmt 1
  93              		.loc 1 34 14 is_stmt 0
  94 0088 83B40403 		ld	s1,48(s1)
  95              	.LVL8:
  21:src/scheduler.cpp ****     {
  96              		.loc 1 21 5
  97 008c 6FF05FFD 		j	.L4
  98              	.L3:
  35:src/scheduler.cpp ****     }
  36:src/scheduler.cpp **** 
GAS LISTING /tmp/ccWA0aO1.s 			page 4


  37:src/scheduler.cpp ****     putNewline();
  99              		.loc 1 37 5 is_stmt 1
 100              		.loc 1 37 15 is_stmt 0
 101 0090 97000000 		call	_Z10putNewlinev@plt
 101      E7800000 
 102              	.LVL9:
  38:src/scheduler.cpp **** }
 103              		.loc 1 38 1
 104 0098 83308101 		ld	ra,24(sp)
 105              		.cfi_restore 1
 106 009c 03340101 		ld	s0,16(sp)
 107              		.cfi_restore 8
 108              		.cfi_def_cfa 2, 32
 109 00a0 83348100 		ld	s1,8(sp)
 110              		.cfi_restore 9
 111              	.LVL10:
 112 00a4 13010102 		addi	sp,sp,32
 113              		.cfi_def_cfa_offset 0
 114 00a8 67800000 		jr	ra
 115              		.cfi_endproc
 116              	.LFE9:
 118              		.section	.rodata.str1.8
 119 000b 00000000 		.align	3
 119      00
 120              	.LC2:
 121 0010 3D3D3D3D 		.string	"===================== ASSERT file: "
 121      3D3D3D3D 
 121      3D3D3D3D 
 121      3D3D3D3D 
 121      3D3D3D3D 
 122 0034 00000000 		.align	3
 123              	.LC3:
 124 0038 7372632F 		.string	"src/scheduler.cpp"
 124      73636865 
 124      64756C65 
 124      722E6370 
 124      7000
 125 004a 00000000 		.align	3
 125      0000
 126              	.LC4:
 127 0050 20202020 		.string	"    line: "
 127      6C696E65 
 127      3A2000
 128 005b 00000000 		.align	3
 128      00
 129              	.LC5:
 130 0060 2020203D 		.string	"   ==========================="
 130      3D3D3D3D 
 130      3D3D3D3D 
 130      3D3D3D3D 
 130      3D3D3D3D 
 131              		.text
 132              		.align	2
 133              		.globl	_ZN9Scheduler3putEP7IThread
 135              	_ZN9Scheduler3putEP7IThread:
 136              	.LFB11:
  39:src/scheduler.cpp **** 
GAS LISTING /tmp/ccWA0aO1.s 			page 5


  40:src/scheduler.cpp **** void Scheduler::dispatchToNext() // WARNING: different than sys. call dispatch()
  41:src/scheduler.cpp **** {
  42:src/scheduler.cpp ****     assert(&(IThread::getPRunning()->sp) == IThread::pRunningSp);
  43:src/scheduler.cpp **** 
  44:src/scheduler.cpp ****     IThread *pOld = IThread::getPRunning();
  45:src/scheduler.cpp ****     IThread *pNew = Scheduler::getNext();
  46:src/scheduler.cpp **** 
  47:src/scheduler.cpp ****     assert(pNew->state == IThread::READY);
  48:src/scheduler.cpp **** 
  49:src/scheduler.cpp ****     IThread::setPRunning(pNew);
  50:src/scheduler.cpp **** 
  51:src/scheduler.cpp ****     if(pOld != pNew) // split into two cases for safety
  52:src/scheduler.cpp ****     {
  53:src/scheduler.cpp ****         pNew->state = IThread::RUNNING;
  54:src/scheduler.cpp ****     }
  55:src/scheduler.cpp ****     else
  56:src/scheduler.cpp ****     {
  57:src/scheduler.cpp ****         pNew->state = IThread::RUNNING;
  58:src/scheduler.cpp ****     }
  59:src/scheduler.cpp **** }
  60:src/scheduler.cpp **** 
  61:src/scheduler.cpp **** void Scheduler::put(IThread* p)
  62:src/scheduler.cpp **** {
 137              		.loc 1 62 1 is_stmt 1
 138              		.cfi_startproc
 139              	.LVL11:
 140 00ac 130101FF 		addi	sp,sp,-16
 141              		.cfi_def_cfa_offset 16
 142 00b0 23341100 		sd	ra,8(sp)
 143 00b4 23308100 		sd	s0,0(sp)
 144              		.cfi_offset 1, -8
 145              		.cfi_offset 8, -16
 146 00b8 13040101 		addi	s0,sp,16
 147              		.cfi_def_cfa 8, 0
  63:src/scheduler.cpp ****     if(!p)
 148              		.loc 1 63 5
 149 00bc 63040508 		beqz	a0,.L16
  64:src/scheduler.cpp ****     {
  65:src/scheduler.cpp ****         assert(false);
  66:src/scheduler.cpp ****     }
  67:src/scheduler.cpp **** 
  68:src/scheduler.cpp ****     assert(p->state == IThread::READY);
 150              		.loc 1 68 5
 151 00c0 83270500 		lw	a5,0(a0)
 152 00c4 9387E7FF 		addi	a5,a5,-2
 153              	.LVL12:
 154              	.LBB63:
 155              	.LBB64:
 156              		.file 3 "src/../h/../h/../h/my_console.h"
   1:src/../h/../h/../h/my_console.h **** #pragma once
   2:src/../h/../h/../h/my_console.h **** 
   3:src/../h/../h/../h/my_console.h **** #include "../h/risc.h"
   4:src/../h/../h/../h/my_console.h **** 
   5:src/../h/../h/../h/my_console.h **** #include "../lib/hw.h"
   6:src/../h/../h/../h/my_console.h **** 
   7:src/../h/../h/../h/my_console.h **** #define __DEBUG_MODE
   8:src/../h/../h/../h/my_console.h **** 
GAS LISTING /tmp/ccWA0aO1.s 			page 6


   9:src/../h/../h/../h/my_console.h **** 
  10:src/../h/../h/../h/my_console.h **** void putString(const char* s);
  11:src/../h/../h/../h/my_console.h **** void putInt(int n);
  12:src/../h/../h/../h/my_console.h **** void putNewline();
  13:src/../h/../h/../h/my_console.h **** void putU64(uint64 n);
  14:src/../h/../h/../h/my_console.h **** void putBinary(uint64 n);
  15:src/../h/../h/../h/my_console.h **** 
  16:src/../h/../h/../h/my_console.h **** [[noreturn]] void stopKernel();
  17:src/../h/../h/../h/my_console.h **** 
  18:src/../h/../h/../h/my_console.h **** inline void _assert(bool valid, const char* file, int line) // MUST be inline
  19:src/../h/../h/../h/my_console.h **** {
  20:src/../h/../h/../h/my_console.h ****     if(valid)
 157              		.loc 3 20 5
 158 00c8 639C070C 		bnez	a5,.L17
  21:src/../h/../h/../h/my_console.h ****         return;
 159              		.loc 3 21 9
 160              	.LVL13:
 161              	.LBE64:
 162              	.LBE63:
  69:src/scheduler.cpp **** 
  70:src/scheduler.cpp ****     p->pNext = nullptr; // ensure no thread is after this one (and ensure no random pointers)
 163              		.loc 1 70 5
 164              		.loc 1 70 14 is_stmt 0
 165 00cc 23380502 		sd	zero,48(a0)
  71:src/scheduler.cpp **** 
  72:src/scheduler.cpp ****     if(!(get()->pHead))
 166              		.loc 1 72 5 is_stmt 1
 167              	.LBB66:
 168              	.LBB67:
  10:src/../h/scheduler.h ****         return &instance;
 169              		.loc 2 10 9
  10:src/../h/scheduler.h ****         return &instance;
 170              		.loc 2 10 26 is_stmt 0
 171 00d0 97070000 		lbu	a5,_ZGVZN9Scheduler3getEvE8instance
 171      83C70700 
 172 00d8 639C0700 		bnez	a5,.L9
 173              	.LVL14:
 174              	.LBB68:
 175              	.LBB69:
 176              	.LBB70:
 177              		.loc 2 24 24
 178 00dc 97070000 		sd	zero,_ZZN9Scheduler3getEvE8instance,a5
 178      23B00700 
 179              	.LVL15:
 180              	.LBE70:
 181              	.LBE69:
 182              	.LBE68:
  10:src/../h/scheduler.h ****         return &instance;
 183              		.loc 2 10 26
 184 00e4 93071000 		li	a5,1
 185 00e8 17070000 		sb	a5,_ZGVZN9Scheduler3getEvE8instance,a4
 185      2300F700 
 186              	.L9:
  11:src/../h/scheduler.h ****     }
 187              		.loc 2 11 9 is_stmt 1
 188              	.LBE67:
 189              	.LBE66:
GAS LISTING /tmp/ccWA0aO1.s 			page 7


 190              		.loc 1 72 17 is_stmt 0
 191 00f0 97070000 		ld	a5,_ZZN9Scheduler3getEvE8instance
 191      83B70700 
 192              		.loc 1 72 5
 193 00f8 63820710 		beqz	a5,.L18
  73:src/scheduler.cpp ****     {
  74:src/scheduler.cpp ****         get()->pHead = p;
  75:src/scheduler.cpp ****         return;
  76:src/scheduler.cpp ****     }
  77:src/scheduler.cpp **** 
  78:src/scheduler.cpp ****     IThread* pCur = get()->pHead;
 194              		.loc 1 78 5 is_stmt 1
 195              	.LBB71:
 196              	.LBB72:
  10:src/../h/scheduler.h ****         return &instance;
 197              		.loc 2 10 9
  10:src/../h/scheduler.h ****         return &instance;
 198              		.loc 2 10 26 is_stmt 0
 199 00fc 97070000 		lbu	a5,_ZGVZN9Scheduler3getEvE8instance
 199      83C70700 
 200 0104 639C0700 		bnez	a5,.L13
 201              	.LVL16:
 202              	.LBB73:
 203              	.LBB74:
 204              	.LBB75:
 205              		.loc 2 24 24
 206 0108 97070000 		sd	zero,_ZZN9Scheduler3getEvE8instance,a5
 206      23B00700 
 207              	.LVL17:
 208              	.LBE75:
 209              	.LBE74:
 210              	.LBE73:
  10:src/../h/scheduler.h ****         return &instance;
 211              		.loc 2 10 26
 212 0110 93071000 		li	a5,1
 213 0114 17070000 		sb	a5,_ZGVZN9Scheduler3getEvE8instance,a4
 213      2300F700 
 214              	.L13:
  11:src/../h/scheduler.h ****     }
 215              		.loc 2 11 9 is_stmt 1
 216              	.LBE72:
 217              	.LBE71:
 218              		.loc 1 78 28 is_stmt 0
 219 011c 97070000 		ld	a5,_ZZN9Scheduler3getEvE8instance
 219      83B70700 
 220              	.LVL18:
 221              	.L14:
  79:src/scheduler.cpp ****     while(pCur->pNext)
 222              		.loc 1 79 5 is_stmt 1
 223              		.loc 1 79 17
 224 0124 13870700 		mv	a4,a5
 225 0128 83B70703 		ld	a5,48(a5)
 226              	.LVL19:
 227 012c E39C07FE 		bnez	a5,.L14
  80:src/scheduler.cpp ****     {
  81:src/scheduler.cpp ****         pCur = pCur->pNext;
  82:src/scheduler.cpp ****     }
GAS LISTING /tmp/ccWA0aO1.s 			page 8


  83:src/scheduler.cpp ****     pCur->pNext = p;
 228              		.loc 1 83 5
 229              		.loc 1 83 17 is_stmt 0
 230 0130 2338A702 		sd	a0,48(a4)
 231              	.LVL20:
 232              	.L6:
  84:src/scheduler.cpp **** }
 233              		.loc 1 84 1
 234 0134 83308100 		ld	ra,8(sp)
 235              		.cfi_remember_state
 236              		.cfi_restore 1
 237 0138 03340100 		ld	s0,0(sp)
 238              		.cfi_restore 8
 239              		.cfi_def_cfa 2, 16
 240 013c 13010101 		addi	sp,sp,16
 241              		.cfi_def_cfa_offset 0
 242 0140 67800000 		jr	ra
 243              	.L16:
 244              		.cfi_restore_state
  65:src/scheduler.cpp ****     }
 245              		.loc 1 65 9 is_stmt 1
 246              	.LVL21:
 247              	.LBB76:
 248              	.LBB77:
  20:src/../h/../h/../h/my_console.h ****         return;
 249              		.loc 3 20 5
  22:src/../h/../h/../h/my_console.h **** 
  23:src/../h/../h/../h/my_console.h ****     putString("===================== ASSERT file: ");
 250              		.loc 3 23 5
 251              		.loc 3 23 14 is_stmt 0
 252 0144 17050000 		lla	a0,.LC2
 252      13050500 
 253              	.LVL22:
 254 014c 97000000 		call	_Z9putStringPKc@plt
 254      E7800000 
 255              	.LVL23:
  24:src/../h/../h/../h/my_console.h ****     putString(file);
 256              		.loc 3 24 5 is_stmt 1
 257              		.loc 3 24 14 is_stmt 0
 258 0154 17050000 		lla	a0,.LC3
 258      13050500 
 259 015c 97000000 		call	_Z9putStringPKc@plt
 259      E7800000 
 260              	.LVL24:
  25:src/../h/../h/../h/my_console.h ****     putString("    line: ");
 261              		.loc 3 25 5 is_stmt 1
 262              		.loc 3 25 14 is_stmt 0
 263 0164 17050000 		lla	a0,.LC4
 263      13050500 
 264 016c 97000000 		call	_Z9putStringPKc@plt
 264      E7800000 
 265              	.LVL25:
  26:src/../h/../h/../h/my_console.h ****     putInt(line);
 266              		.loc 3 26 5 is_stmt 1
 267              		.loc 3 26 11 is_stmt 0
 268 0174 13051004 		li	a0,65
 269 0178 97000000 		call	_Z6putInti@plt
GAS LISTING /tmp/ccWA0aO1.s 			page 9


 269      E7800000 
 270              	.LVL26:
  27:src/../h/../h/../h/my_console.h ****     putString("   ===========================");
 271              		.loc 3 27 5 is_stmt 1
 272              		.loc 3 27 14 is_stmt 0
 273 0180 17050000 		lla	a0,.LC5
 273      13050500 
 274 0188 97000000 		call	_Z9putStringPKc@plt
 274      E7800000 
 275              	.LVL27:
  28:src/../h/../h/../h/my_console.h ****     putNewline();
 276              		.loc 3 28 5 is_stmt 1
 277              		.loc 3 28 15 is_stmt 0
 278 0190 97000000 		call	_Z10putNewlinev@plt
 278      E7800000 
 279              	.LVL28:
  29:src/../h/../h/../h/my_console.h **** 
  30:src/../h/../h/../h/my_console.h ****     stopKernel();
 280              		.loc 3 30 5 is_stmt 1
 281              		.loc 3 30 15 is_stmt 0
 282 0198 97000000 		call	_Z10stopKernelv@plt
 282      E7800000 
 283              	.LVL29:
 284              	.L17:
 285              	.LBE77:
 286              	.LBE76:
 287              	.LBB78:
 288              	.LBB65:
  23:src/../h/../h/../h/my_console.h ****     putString(file);
 289              		.loc 3 23 5 is_stmt 1
  23:src/../h/../h/../h/my_console.h ****     putString(file);
 290              		.loc 3 23 14 is_stmt 0
 291 01a0 17050000 		lla	a0,.LC2
 291      13050500 
 292              	.LVL30:
 293 01a8 97000000 		call	_Z9putStringPKc@plt
 293      E7800000 
 294              	.LVL31:
  24:src/../h/../h/../h/my_console.h ****     putString("    line: ");
 295              		.loc 3 24 5 is_stmt 1
  24:src/../h/../h/../h/my_console.h ****     putString("    line: ");
 296              		.loc 3 24 14 is_stmt 0
 297 01b0 17050000 		lla	a0,.LC3
 297      13050500 
 298 01b8 97000000 		call	_Z9putStringPKc@plt
 298      E7800000 
 299              	.LVL32:
  25:src/../h/../h/../h/my_console.h ****     putInt(line);
 300              		.loc 3 25 5 is_stmt 1
  25:src/../h/../h/../h/my_console.h ****     putInt(line);
 301              		.loc 3 25 14 is_stmt 0
 302 01c0 17050000 		lla	a0,.LC4
 302      13050500 
 303 01c8 97000000 		call	_Z9putStringPKc@plt
 303      E7800000 
 304              	.LVL33:
  26:src/../h/../h/../h/my_console.h ****     putString("   ===========================");
GAS LISTING /tmp/ccWA0aO1.s 			page 10


 305              		.loc 3 26 5 is_stmt 1
  26:src/../h/../h/../h/my_console.h ****     putString("   ===========================");
 306              		.loc 3 26 11 is_stmt 0
 307 01d0 13054004 		li	a0,68
 308 01d4 97000000 		call	_Z6putInti@plt
 308      E7800000 
 309              	.LVL34:
  27:src/../h/../h/../h/my_console.h ****     putNewline();
 310              		.loc 3 27 5 is_stmt 1
  27:src/../h/../h/../h/my_console.h ****     putNewline();
 311              		.loc 3 27 14 is_stmt 0
 312 01dc 17050000 		lla	a0,.LC5
 312      13050500 
 313 01e4 97000000 		call	_Z9putStringPKc@plt
 313      E7800000 
 314              	.LVL35:
  28:src/../h/../h/../h/my_console.h **** 
 315              		.loc 3 28 5 is_stmt 1
  28:src/../h/../h/../h/my_console.h **** 
 316              		.loc 3 28 15 is_stmt 0
 317 01ec 97000000 		call	_Z10putNewlinev@plt
 317      E7800000 
 318              	.LVL36:
 319              		.loc 3 30 5 is_stmt 1
 320              		.loc 3 30 15 is_stmt 0
 321 01f4 97000000 		call	_Z10stopKernelv@plt
 321      E7800000 
 322              	.LVL37:
 323              	.L18:
 324              	.LBE65:
 325              	.LBE78:
  74:src/scheduler.cpp ****         return;
 326              		.loc 1 74 9 is_stmt 1
 327              	.LBB79:
 328              	.LBB80:
  10:src/../h/scheduler.h ****         return &instance;
 329              		.loc 2 10 9
  10:src/../h/scheduler.h ****         return &instance;
 330              		.loc 2 10 26 is_stmt 0
 331 01fc 97070000 		lbu	a5,_ZGVZN9Scheduler3getEvE8instance
 331      83C70700 
 332 0204 63980700 		bnez	a5,.L11
 333 0208 93071000 		li	a5,1
 334 020c 17070000 		sb	a5,_ZGVZN9Scheduler3getEvE8instance,a4
 334      2300F700 
 335              	.L11:
  11:src/../h/scheduler.h ****     }
 336              		.loc 2 11 9 is_stmt 1
 337              	.LBE80:
 338              	.LBE79:
  74:src/scheduler.cpp ****         return;
 339              		.loc 1 74 22 is_stmt 0
 340 0214 97070000 		sd	a0,_ZZN9Scheduler3getEvE8instance,a5
 340      23B0A700 
  75:src/scheduler.cpp ****     }
 341              		.loc 1 75 9 is_stmt 1
 342 021c 6FF09FF1 		j	.L6
GAS LISTING /tmp/ccWA0aO1.s 			page 11


 343              		.cfi_endproc
 344              	.LFE11:
 346              		.align	2
 347              		.globl	_ZN9Scheduler7getNextEv
 349              	_ZN9Scheduler7getNextEv:
 350              	.LFB12:
  85:src/scheduler.cpp **** 
  86:src/scheduler.cpp **** IThread* Scheduler::getNext()
  87:src/scheduler.cpp **** {
 351              		.loc 1 87 1
 352              		.cfi_startproc
  88:src/scheduler.cpp ****     IThread* ret = get()->pHead;
 353              		.loc 1 88 5
 354              	.LBB97:
 355              	.LBB98:
  10:src/../h/scheduler.h ****         return &instance;
 356              		.loc 2 10 9
  10:src/../h/scheduler.h ****         return &instance;
 357              		.loc 2 10 26 is_stmt 0
 358 0220 97070000 		lbu	a5,_ZGVZN9Scheduler3getEvE8instance
 358      83C70700 
 359 0228 639C0700 		bnez	a5,.L20
 360              	.LVL38:
 361              	.LBB99:
 362              	.LBB100:
 363              	.LBB101:
 364              		.loc 2 24 24
 365 022c 97070000 		sd	zero,_ZZN9Scheduler3getEvE8instance,a5
 365      23B00700 
 366              	.LVL39:
 367              	.LBE101:
 368              	.LBE100:
 369              	.LBE99:
  10:src/../h/scheduler.h ****         return &instance;
 370              		.loc 2 10 26
 371 0234 93071000 		li	a5,1
 372 0238 17070000 		sb	a5,_ZGVZN9Scheduler3getEvE8instance,a4
 372      2300F700 
 373              	.L20:
  11:src/../h/scheduler.h ****     }
 374              		.loc 2 11 9 is_stmt 1
 375              	.LBE98:
 376              	.LBE97:
 377              		.loc 1 88 27 is_stmt 0
 378 0240 17050000 		ld	a0,_ZZN9Scheduler3getEvE8instance
 378      03350500 
 379              	.LVL40:
  89:src/scheduler.cpp **** 
  90:src/scheduler.cpp ****     assert(ret != nullptr);
 380              		.loc 1 90 5 is_stmt 1
 381              	.LBB102:
 382              	.LBB103:
  20:src/../h/../h/../h/my_console.h ****         return;
 383              		.loc 3 20 5
 384 0248 630A0504 		beqz	a0,.L27
  21:src/../h/../h/../h/my_console.h **** 
 385              		.loc 3 21 9
GAS LISTING /tmp/ccWA0aO1.s 			page 12


 386              	.LVL41:
 387              	.LBE103:
 388              	.LBE102:
  91:src/scheduler.cpp **** 
  92:src/scheduler.cpp ****     get()->pHead = get()->pHead->pNext;
 389              		.loc 1 92 5
 390              	.LBB105:
 391              	.LBB106:
  10:src/../h/scheduler.h ****         return &instance;
 392              		.loc 2 10 9
  10:src/../h/scheduler.h ****         return &instance;
 393              		.loc 2 10 26 is_stmt 0
 394 024c 97070000 		lbu	a5,_ZGVZN9Scheduler3getEvE8instance
 394      83C70700 
 395 0254 639C0700 		bnez	a5,.L22
 396              	.LVL42:
 397              	.LBB107:
 398              	.LBB108:
 399              	.LBB109:
 400              		.loc 2 24 24
 401 0258 97070000 		sd	zero,_ZZN9Scheduler3getEvE8instance,a5
 401      23B00700 
 402              	.LVL43:
 403              	.LBE109:
 404              	.LBE108:
 405              	.LBE107:
  10:src/../h/scheduler.h ****         return &instance;
 406              		.loc 2 10 26
 407 0260 93071000 		li	a5,1
 408 0264 17070000 		sb	a5,_ZGVZN9Scheduler3getEvE8instance,a4
 408      2300F700 
 409              	.L22:
  11:src/../h/scheduler.h ****     }
 410              		.loc 2 11 9 is_stmt 1
 411              	.LBE106:
 412              	.LBE105:
 413              		.loc 1 92 27 is_stmt 0
 414 026c 97070000 		ld	a5,_ZZN9Scheduler3getEvE8instance
 414      83B70700 
 415              	.LBB110:
 416              	.LBB111:
  10:src/../h/scheduler.h ****         return &instance;
 417              		.loc 2 10 9 is_stmt 1
  10:src/../h/scheduler.h ****         return &instance;
 418              		.loc 2 10 26 is_stmt 0
 419 0274 17070000 		lbu	a4,_ZGVZN9Scheduler3getEvE8instance
 419      03470700 
 420 027c 63180700 		bnez	a4,.L23
 421 0280 13071000 		li	a4,1
 422 0284 97060000 		sb	a4,_ZGVZN9Scheduler3getEvE8instance,a3
 422      2380E600 
 423              	.L23:
  11:src/../h/scheduler.h ****     }
 424              		.loc 2 11 9 is_stmt 1
 425              	.LBE111:
 426              	.LBE110:
 427              		.loc 1 92 34 is_stmt 0
GAS LISTING /tmp/ccWA0aO1.s 			page 13


 428 028c 83B70703 		ld	a5,48(a5)
 429              		.loc 1 92 18
 430 0290 17070000 		sd	a5,_ZZN9Scheduler3getEvE8instance,a4
 430      2330F700 
  93:src/scheduler.cpp **** 
  94:src/scheduler.cpp ****     return ret;
 431              		.loc 1 94 5 is_stmt 1
  95:src/scheduler.cpp **** }
 432              		.loc 1 95 1 is_stmt 0
 433 0298 67800000 		ret
 434              	.LVL44:
 435              	.L27:
  87:src/scheduler.cpp ****     IThread* ret = get()->pHead;
 436              		.loc 1 87 1
 437 029c 130101FF 		addi	sp,sp,-16
 438              		.cfi_def_cfa_offset 16
 439 02a0 23341100 		sd	ra,8(sp)
 440 02a4 23308100 		sd	s0,0(sp)
 441              		.cfi_offset 1, -8
 442              		.cfi_offset 8, -16
 443 02a8 13040101 		addi	s0,sp,16
 444              		.cfi_def_cfa 8, 0
 445              	.LBB112:
 446              	.LBB104:
  23:src/../h/../h/../h/my_console.h ****     putString(file);
 447              		.loc 3 23 5 is_stmt 1
  23:src/../h/../h/../h/my_console.h ****     putString(file);
 448              		.loc 3 23 14 is_stmt 0
 449 02ac 17050000 		lla	a0,.LC2
 449      13050500 
 450              	.LVL45:
 451 02b4 97000000 		call	_Z9putStringPKc@plt
 451      E7800000 
 452              	.LVL46:
  24:src/../h/../h/../h/my_console.h ****     putString("    line: ");
 453              		.loc 3 24 5 is_stmt 1
  24:src/../h/../h/../h/my_console.h ****     putString("    line: ");
 454              		.loc 3 24 14 is_stmt 0
 455 02bc 17050000 		lla	a0,.LC3
 455      13050500 
 456 02c4 97000000 		call	_Z9putStringPKc@plt
 456      E7800000 
 457              	.LVL47:
  25:src/../h/../h/../h/my_console.h ****     putInt(line);
 458              		.loc 3 25 5 is_stmt 1
  25:src/../h/../h/../h/my_console.h ****     putInt(line);
 459              		.loc 3 25 14 is_stmt 0
 460 02cc 17050000 		lla	a0,.LC4
 460      13050500 
 461 02d4 97000000 		call	_Z9putStringPKc@plt
 461      E7800000 
 462              	.LVL48:
  26:src/../h/../h/../h/my_console.h ****     putString("   ===========================");
 463              		.loc 3 26 5 is_stmt 1
  26:src/../h/../h/../h/my_console.h ****     putString("   ===========================");
 464              		.loc 3 26 11 is_stmt 0
 465 02dc 1305A005 		li	a0,90
GAS LISTING /tmp/ccWA0aO1.s 			page 14


 466 02e0 97000000 		call	_Z6putInti@plt
 466      E7800000 
 467              	.LVL49:
  27:src/../h/../h/../h/my_console.h ****     putNewline();
 468              		.loc 3 27 5 is_stmt 1
  27:src/../h/../h/../h/my_console.h ****     putNewline();
 469              		.loc 3 27 14 is_stmt 0
 470 02e8 17050000 		lla	a0,.LC5
 470      13050500 
 471 02f0 97000000 		call	_Z9putStringPKc@plt
 471      E7800000 
 472              	.LVL50:
  28:src/../h/../h/../h/my_console.h **** 
 473              		.loc 3 28 5 is_stmt 1
  28:src/../h/../h/../h/my_console.h **** 
 474              		.loc 3 28 15 is_stmt 0
 475 02f8 97000000 		call	_Z10putNewlinev@plt
 475      E7800000 
 476              	.LVL51:
 477              		.loc 3 30 5 is_stmt 1
 478              		.loc 3 30 15 is_stmt 0
 479 0300 97000000 		call	_Z10stopKernelv@plt
 479      E7800000 
 480              	.LVL52:
 481              	.LBE104:
 482              	.LBE112:
 483              		.cfi_endproc
 484              	.LFE12:
 486              		.align	2
 487              		.globl	_ZN9Scheduler14dispatchToNextEv
 489              	_ZN9Scheduler14dispatchToNextEv:
 490              	.LFB10:
  41:src/scheduler.cpp ****     assert(&(IThread::getPRunning()->sp) == IThread::pRunningSp);
 491              		.loc 1 41 1 is_stmt 1
 492              		.cfi_startproc
 493 0308 130101FE 		addi	sp,sp,-32
 494              		.cfi_def_cfa_offset 32
 495 030c 233C1100 		sd	ra,24(sp)
 496 0310 23388100 		sd	s0,16(sp)
 497 0314 23349100 		sd	s1,8(sp)
 498 0318 23302101 		sd	s2,0(sp)
 499              		.cfi_offset 1, -8
 500              		.cfi_offset 8, -16
 501              		.cfi_offset 9, -24
 502              		.cfi_offset 18, -32
 503 031c 13040102 		addi	s0,sp,32
 504              		.cfi_def_cfa 8, 0
  42:src/scheduler.cpp **** 
 505              		.loc 1 42 5
 506 0320 97000000 		call	_ZN7IThread11getPRunningEv@plt
 506      E7800000 
 507              	.LVL53:
 508 0328 13058504 		addi	a0,a0,72
 509 032c 97070000 		la	a5,_ZN7IThread10pRunningSpE
 509      83B70700 
 510 0334 83B70700 		ld	a5,0(a5)
 511              	.LVL54:
GAS LISTING /tmp/ccWA0aO1.s 			page 15


 512              	.LBB117:
 513              	.LBB118:
  20:src/../h/../h/../h/my_console.h ****         return;
 514              		.loc 3 20 5
 515 0338 6398A704 		bne	a5,a0,.L34
  21:src/../h/../h/../h/my_console.h **** 
 516              		.loc 3 21 9
 517              	.LVL55:
 518              	.LBE118:
 519              	.LBE117:
  44:src/scheduler.cpp ****     IThread *pNew = Scheduler::getNext();
 520              		.loc 1 44 5
  44:src/scheduler.cpp ****     IThread *pNew = Scheduler::getNext();
 521              		.loc 1 44 41 is_stmt 0
 522 033c 97000000 		call	_ZN7IThread11getPRunningEv@plt
 522      E7800000 
 523              	.LVL56:
 524 0344 13090500 		mv	s2,a0
 525              	.LVL57:
  45:src/scheduler.cpp **** 
 526              		.loc 1 45 5 is_stmt 1
  45:src/scheduler.cpp **** 
 527              		.loc 1 45 39 is_stmt 0
 528 0348 97000000 		call	_ZN9Scheduler7getNextEv
 528      E7800000 
 529              	.LVL58:
 530 0350 93040500 		mv	s1,a0
 531              	.LVL59:
  47:src/scheduler.cpp **** 
 532              		.loc 1 47 5 is_stmt 1
 533 0354 83270500 		lw	a5,0(a0)
 534 0358 9387E7FF 		addi	a5,a5,-2
 535              	.LVL60:
 536              	.LBB120:
 537              	.LBB121:
  20:src/../h/../h/../h/my_console.h ****         return;
 538              		.loc 3 20 5
 539 035c 63940708 		bnez	a5,.L35
  21:src/../h/../h/../h/my_console.h **** 
 540              		.loc 3 21 9
 541              	.LVL61:
 542              	.LBE121:
 543              	.LBE120:
  49:src/scheduler.cpp **** 
 544              		.loc 1 49 5
  49:src/scheduler.cpp **** 
 545              		.loc 1 49 25 is_stmt 0
 546 0360 97000000 		call	_ZN7IThread11setPRunningEPS_@plt
 546      E7800000 
 547              	.LVL62:
  51:src/scheduler.cpp ****     {
 548              		.loc 1 51 5 is_stmt 1
 549 0368 630C990C 		beq	s2,s1,.L31
  53:src/scheduler.cpp ****     }
 550              		.loc 1 53 9
  53:src/scheduler.cpp ****     }
 551              		.loc 1 53 21 is_stmt 0
GAS LISTING /tmp/ccWA0aO1.s 			page 16


 552 036c 23A00400 		sw	zero,0(s1)
 553              	.L28:
  59:src/scheduler.cpp **** 
 554              		.loc 1 59 1
 555 0370 83308101 		ld	ra,24(sp)
 556              		.cfi_remember_state
 557              		.cfi_restore 1
 558 0374 03340101 		ld	s0,16(sp)
 559              		.cfi_restore 8
 560              		.cfi_def_cfa 2, 32
 561 0378 83348100 		ld	s1,8(sp)
 562              		.cfi_restore 9
 563              	.LVL63:
 564 037c 03390100 		ld	s2,0(sp)
 565              		.cfi_restore 18
 566              	.LVL64:
 567 0380 13010102 		addi	sp,sp,32
 568              		.cfi_def_cfa_offset 0
 569 0384 67800000 		jr	ra
 570              	.LVL65:
 571              	.L34:
 572              		.cfi_restore_state
 573              	.LBB123:
 574              	.LBB119:
  23:src/../h/../h/../h/my_console.h ****     putString(file);
 575              		.loc 3 23 5 is_stmt 1
  23:src/../h/../h/../h/my_console.h ****     putString(file);
 576              		.loc 3 23 14 is_stmt 0
 577 0388 17050000 		lla	a0,.LC2
 577      13050500 
 578              	.LVL66:
 579 0390 97000000 		call	_Z9putStringPKc@plt
 579      E7800000 
 580              	.LVL67:
  24:src/../h/../h/../h/my_console.h ****     putString("    line: ");
 581              		.loc 3 24 5 is_stmt 1
  24:src/../h/../h/../h/my_console.h ****     putString("    line: ");
 582              		.loc 3 24 14 is_stmt 0
 583 0398 17050000 		lla	a0,.LC3
 583      13050500 
 584 03a0 97000000 		call	_Z9putStringPKc@plt
 584      E7800000 
 585              	.LVL68:
  25:src/../h/../h/../h/my_console.h ****     putInt(line);
 586              		.loc 3 25 5 is_stmt 1
  25:src/../h/../h/../h/my_console.h ****     putInt(line);
 587              		.loc 3 25 14 is_stmt 0
 588 03a8 17050000 		lla	a0,.LC4
 588      13050500 
 589 03b0 97000000 		call	_Z9putStringPKc@plt
 589      E7800000 
 590              	.LVL69:
  26:src/../h/../h/../h/my_console.h ****     putString("   ===========================");
 591              		.loc 3 26 5 is_stmt 1
  26:src/../h/../h/../h/my_console.h ****     putString("   ===========================");
 592              		.loc 3 26 11 is_stmt 0
 593 03b8 1305A002 		li	a0,42
GAS LISTING /tmp/ccWA0aO1.s 			page 17


 594 03bc 97000000 		call	_Z6putInti@plt
 594      E7800000 
 595              	.LVL70:
  27:src/../h/../h/../h/my_console.h ****     putNewline();
 596              		.loc 3 27 5 is_stmt 1
  27:src/../h/../h/../h/my_console.h ****     putNewline();
 597              		.loc 3 27 14 is_stmt 0
 598 03c4 17050000 		lla	a0,.LC5
 598      13050500 
 599 03cc 97000000 		call	_Z9putStringPKc@plt
 599      E7800000 
 600              	.LVL71:
  28:src/../h/../h/../h/my_console.h **** 
 601              		.loc 3 28 5 is_stmt 1
  28:src/../h/../h/../h/my_console.h **** 
 602              		.loc 3 28 15 is_stmt 0
 603 03d4 97000000 		call	_Z10putNewlinev@plt
 603      E7800000 
 604              	.LVL72:
 605              		.loc 3 30 5 is_stmt 1
 606              		.loc 3 30 15 is_stmt 0
 607 03dc 97000000 		call	_Z10stopKernelv@plt
 607      E7800000 
 608              	.LVL73:
 609              	.L35:
 610              	.LBE119:
 611              	.LBE123:
 612              	.LBB124:
 613              	.LBB122:
  23:src/../h/../h/../h/my_console.h ****     putString(file);
 614              		.loc 3 23 5 is_stmt 1
  23:src/../h/../h/../h/my_console.h ****     putString(file);
 615              		.loc 3 23 14 is_stmt 0
 616 03e4 17050000 		lla	a0,.LC2
 616      13050500 
 617 03ec 97000000 		call	_Z9putStringPKc@plt
 617      E7800000 
 618              	.LVL74:
  24:src/../h/../h/../h/my_console.h ****     putString("    line: ");
 619              		.loc 3 24 5 is_stmt 1
  24:src/../h/../h/../h/my_console.h ****     putString("    line: ");
 620              		.loc 3 24 14 is_stmt 0
 621 03f4 17050000 		lla	a0,.LC3
 621      13050500 
 622 03fc 97000000 		call	_Z9putStringPKc@plt
 622      E7800000 
 623              	.LVL75:
  25:src/../h/../h/../h/my_console.h ****     putInt(line);
 624              		.loc 3 25 5 is_stmt 1
  25:src/../h/../h/../h/my_console.h ****     putInt(line);
 625              		.loc 3 25 14 is_stmt 0
 626 0404 17050000 		lla	a0,.LC4
 626      13050500 
 627 040c 97000000 		call	_Z9putStringPKc@plt
 627      E7800000 
 628              	.LVL76:
  26:src/../h/../h/../h/my_console.h ****     putString("   ===========================");
GAS LISTING /tmp/ccWA0aO1.s 			page 18


 629              		.loc 3 26 5 is_stmt 1
  26:src/../h/../h/../h/my_console.h ****     putString("   ===========================");
 630              		.loc 3 26 11 is_stmt 0
 631 0414 1305F002 		li	a0,47
 632 0418 97000000 		call	_Z6putInti@plt
 632      E7800000 
 633              	.LVL77:
  27:src/../h/../h/../h/my_console.h ****     putNewline();
 634              		.loc 3 27 5 is_stmt 1
  27:src/../h/../h/../h/my_console.h ****     putNewline();
 635              		.loc 3 27 14 is_stmt 0
 636 0420 17050000 		lla	a0,.LC5
 636      13050500 
 637 0428 97000000 		call	_Z9putStringPKc@plt
 637      E7800000 
 638              	.LVL78:
  28:src/../h/../h/../h/my_console.h **** 
 639              		.loc 3 28 5 is_stmt 1
  28:src/../h/../h/../h/my_console.h **** 
 640              		.loc 3 28 15 is_stmt 0
 641 0430 97000000 		call	_Z10putNewlinev@plt
 641      E7800000 
 642              	.LVL79:
 643              		.loc 3 30 5 is_stmt 1
 644              		.loc 3 30 15 is_stmt 0
 645 0438 97000000 		call	_Z10stopKernelv@plt
 645      E7800000 
 646              	.LVL80:
 647              	.L31:
 648              	.LBE122:
 649              	.LBE124:
  57:src/scheduler.cpp ****     }
 650              		.loc 1 57 9 is_stmt 1
  57:src/scheduler.cpp ****     }
 651              		.loc 1 57 21 is_stmt 0
 652 0440 23A00400 		sw	zero,0(s1)
  59:src/scheduler.cpp **** 
 653              		.loc 1 59 1
 654 0444 6FF0DFF2 		j	.L28
 655              		.cfi_endproc
 656              	.LFE10:
 658              		.align	2
 659              		.globl	_ZN9Scheduler19dispatchUserVersionEv
 661              	_ZN9Scheduler19dispatchUserVersionEv:
 662              	.LFB8:
   4:src/scheduler.cpp ****     extern IThread kernelThread;
 663              		.loc 1 4 1 is_stmt 1
 664              		.cfi_startproc
 665 0448 130101FF 		addi	sp,sp,-16
 666              		.cfi_def_cfa_offset 16
 667 044c 23341100 		sd	ra,8(sp)
 668 0450 23308100 		sd	s0,0(sp)
 669              		.cfi_offset 1, -8
 670              		.cfi_offset 8, -16
 671 0454 13040101 		addi	s0,sp,16
 672              		.cfi_def_cfa 8, 0
   5:src/scheduler.cpp ****     assert(IThread::getPRunning() !=
GAS LISTING /tmp/ccWA0aO1.s 			page 19


 673              		.loc 1 5 5
   6:src/scheduler.cpp ****            &kernelThread); // you're only supposed to open user threads with system call with code 
 674              		.loc 1 6 5
 675 0458 97000000 		call	_ZN7IThread11getPRunningEv@plt
 675      E7800000 
 676              	.LVL81:
 677 0460 97070000 		la	a5,kernelThread
 677      83B70700 
 678              	.LVL82:
 679              	.LBB127:
 680              	.LBB128:
  20:src/../h/../h/../h/my_console.h ****         return;
 681              		.loc 3 20 5
 682 0468 638EA702 		beq	a5,a0,.L39
  21:src/../h/../h/../h/my_console.h **** 
 683              		.loc 3 21 9
 684              	.LVL83:
 685              	.LBE128:
 686              	.LBE127:
   9:src/scheduler.cpp ****     Scheduler::put(IThread::getPRunning());
 687              		.loc 1 9 5
   9:src/scheduler.cpp ****     Scheduler::put(IThread::getPRunning());
 688              		.loc 1 9 25 is_stmt 0
 689 046c 97000000 		call	_ZN7IThread11getPRunningEv@plt
 689      E7800000 
 690              	.LVL84:
   9:src/scheduler.cpp ****     Scheduler::put(IThread::getPRunning());
 691              		.loc 1 9 35
 692 0474 93072000 		li	a5,2
 693 0478 2320F500 		sw	a5,0(a0)
  10:src/scheduler.cpp **** 
 694              		.loc 1 10 5 is_stmt 1
  10:src/scheduler.cpp **** 
 695              		.loc 1 10 19 is_stmt 0
 696 047c 97000000 		call	_ZN7IThread11getPRunningEv@plt
 696      E7800000 
 697              	.LVL85:
 698 0484 97000000 		call	_ZN9Scheduler3putEP7IThread
 698      E7800000 
 699              	.LVL86:
  12:src/scheduler.cpp **** }
 700              		.loc 1 12 5 is_stmt 1
  12:src/scheduler.cpp **** }
 701              		.loc 1 12 30 is_stmt 0
 702 048c 97000000 		call	_ZN9Scheduler14dispatchToNextEv
 702      E7800000 
 703              	.LVL87:
  13:src/scheduler.cpp **** 
 704              		.loc 1 13 1
 705 0494 83308100 		ld	ra,8(sp)
 706              		.cfi_remember_state
 707              		.cfi_restore 1
 708 0498 03340100 		ld	s0,0(sp)
 709              		.cfi_restore 8
 710              		.cfi_def_cfa 2, 16
 711 049c 13010101 		addi	sp,sp,16
 712              		.cfi_def_cfa_offset 0
GAS LISTING /tmp/ccWA0aO1.s 			page 20


 713 04a0 67800000 		jr	ra
 714              	.LVL88:
 715              	.L39:
 716              		.cfi_restore_state
 717              	.LBB130:
 718              	.LBB129:
  23:src/../h/../h/../h/my_console.h ****     putString(file);
 719              		.loc 3 23 5 is_stmt 1
  23:src/../h/../h/../h/my_console.h ****     putString(file);
 720              		.loc 3 23 14 is_stmt 0
 721 04a4 17050000 		lla	a0,.LC2
 721      13050500 
 722              	.LVL89:
 723 04ac 97000000 		call	_Z9putStringPKc@plt
 723      E7800000 
 724              	.LVL90:
  24:src/../h/../h/../h/my_console.h ****     putString("    line: ");
 725              		.loc 3 24 5 is_stmt 1
  24:src/../h/../h/../h/my_console.h ****     putString("    line: ");
 726              		.loc 3 24 14 is_stmt 0
 727 04b4 17050000 		lla	a0,.LC3
 727      13050500 
 728 04bc 97000000 		call	_Z9putStringPKc@plt
 728      E7800000 
 729              	.LVL91:
  25:src/../h/../h/../h/my_console.h ****     putInt(line);
 730              		.loc 3 25 5 is_stmt 1
  25:src/../h/../h/../h/my_console.h ****     putInt(line);
 731              		.loc 3 25 14 is_stmt 0
 732 04c4 17050000 		lla	a0,.LC4
 732      13050500 
 733 04cc 97000000 		call	_Z9putStringPKc@plt
 733      E7800000 
 734              	.LVL92:
  26:src/../h/../h/../h/my_console.h ****     putString("   ===========================");
 735              		.loc 3 26 5 is_stmt 1
  26:src/../h/../h/../h/my_console.h ****     putString("   ===========================");
 736              		.loc 3 26 11 is_stmt 0
 737 04d4 13056000 		li	a0,6
 738 04d8 97000000 		call	_Z6putInti@plt
 738      E7800000 
 739              	.LVL93:
  27:src/../h/../h/../h/my_console.h ****     putNewline();
 740              		.loc 3 27 5 is_stmt 1
  27:src/../h/../h/../h/my_console.h ****     putNewline();
 741              		.loc 3 27 14 is_stmt 0
 742 04e0 17050000 		lla	a0,.LC5
 742      13050500 
 743 04e8 97000000 		call	_Z9putStringPKc@plt
 743      E7800000 
 744              	.LVL94:
  28:src/../h/../h/../h/my_console.h **** 
 745              		.loc 3 28 5 is_stmt 1
  28:src/../h/../h/../h/my_console.h **** 
 746              		.loc 3 28 15 is_stmt 0
 747 04f0 97000000 		call	_Z10putNewlinev@plt
 747      E7800000 
GAS LISTING /tmp/ccWA0aO1.s 			page 21


 748              	.LVL95:
 749              		.loc 3 30 5 is_stmt 1
 750              		.loc 3 30 15 is_stmt 0
 751 04f8 97000000 		call	_Z10stopKernelv@plt
 751      E7800000 
 752              	.LVL96:
 753              	.LBE129:
 754              	.LBE130:
 755              		.cfi_endproc
 756              	.LFE8:
 758              		.weak	_ZGVZN9Scheduler3getEvE8instance
 759              		.section	.bss._ZGVZN9Scheduler3getEvE8instance,"awG",@nobits,_ZGVZN9Scheduler3getEvE8instance,comd
 760              		.align	3
 763              	_ZGVZN9Scheduler3getEvE8instance:
 764 0000 00000000 		.zero	8
 764      00000000 
 765              		.weak	_ZZN9Scheduler3getEvE8instance
 766              		.section	.bss._ZZN9Scheduler3getEvE8instance,"awG",@nobits,_ZZN9Scheduler3getEvE8instance,comdat
 767              		.align	3
 770              	_ZZN9Scheduler3getEvE8instance:
 771 0000 00000000 		.zero	8
 771      00000000 
 772              		.text
 773              	.Letext0:
 774              		.file 4 "src/../h/../h/../lib/hw.h"
 775              		.file 5 "src/../h/../h/thread.h"
 776              		.file 6 "src/../h/../h/../h/syscall_c.hpp"
GAS LISTING /tmp/ccWA0aO1.s 			page 22


DEFINED SYMBOLS
                            *ABS*:0000000000000000 scheduler.cpp
     /tmp/ccWA0aO1.s:17     .text:0000000000000000 _ZN9Scheduler10printStateEv
     /tmp/ccWA0aO1.s:21     .text:0000000000000000 .L0 
     /tmp/ccWA0aO1.s:22     .text:0000000000000000 .L0 
     /tmp/ccWA0aO1.s:23     .text:0000000000000004 .L0 
     /tmp/ccWA0aO1.s:27     .text:0000000000000010 .L0 
     /tmp/ccWA0aO1.s:28     .text:0000000000000010 .L0 
     /tmp/ccWA0aO1.s:29     .text:0000000000000010 .L0 
     /tmp/ccWA0aO1.s:31     .text:0000000000000014 .L0 
     /tmp/ccWA0aO1.s:33     .text:0000000000000014 .L0 
     /tmp/ccWA0aO1.s:34     .text:0000000000000014 .L0 
     /tmp/ccWA0aO1.s:37     .text:000000000000001c .L0 
     /tmp/ccWA0aO1.s:41     .text:0000000000000028 .L0 
     /tmp/ccWA0aO1.s:42     .text:0000000000000028 .L0 
     /tmp/ccWA0aO1.s:49     .text:0000000000000038 .L0 
     /tmp/ccWA0aO1.s:50     .text:0000000000000038 .L0 
     /tmp/ccWA0aO1.s:763    .bss._ZGVZN9Scheduler3getEvE8instance:0000000000000000 _ZGVZN9Scheduler3getEvE8instance
     /tmp/ccWA0aO1.s:51     .text:0000000000000038 .L0 
     /tmp/ccWA0aO1.s:770    .bss._ZZN9Scheduler3getEvE8instance:0000000000000000 _ZZN9Scheduler3getEvE8instance
     /tmp/ccWA0aO1.s:58     .text:0000000000000044 .L0 
     /tmp/ccWA0aO1.s:64     .text:000000000000004c .L0 
     /tmp/ccWA0aO1.s:70     .text:0000000000000058 .L0 
     /tmp/ccWA0aO1.s:71     .text:0000000000000058 .L0 
     /tmp/ccWA0aO1.s:75     .text:0000000000000060 .L0 
     /tmp/ccWA0aO1.s:76     .text:0000000000000060 .L0 
     /tmp/ccWA0aO1.s:78     .text:0000000000000064 .L0 
     /tmp/ccWA0aO1.s:79     .text:0000000000000064 .L0 
     /tmp/ccWA0aO1.s:83     .text:0000000000000070 .L0 
     /tmp/ccWA0aO1.s:84     .text:0000000000000070 .L0 
     /tmp/ccWA0aO1.s:86     .text:0000000000000074 .L0 
     /tmp/ccWA0aO1.s:88     .text:0000000000000078 .L0 
     /tmp/ccWA0aO1.s:89     .text:0000000000000078 .L0 
     /tmp/ccWA0aO1.s:93     .text:0000000000000088 .L0 
     /tmp/ccWA0aO1.s:94     .text:0000000000000088 .L0 
     /tmp/ccWA0aO1.s:97     .text:000000000000008c .L0 
     /tmp/ccWA0aO1.s:100    .text:0000000000000090 .L0 
     /tmp/ccWA0aO1.s:101    .text:0000000000000090 .L0 
     /tmp/ccWA0aO1.s:104    .text:0000000000000098 .L0 
     /tmp/ccWA0aO1.s:105    .text:000000000000009c .L0 
     /tmp/ccWA0aO1.s:107    .text:00000000000000a0 .L0 
     /tmp/ccWA0aO1.s:108    .text:00000000000000a0 .L0 
     /tmp/ccWA0aO1.s:110    .text:00000000000000a4 .L0 
     /tmp/ccWA0aO1.s:113    .text:00000000000000a8 .L0 
     /tmp/ccWA0aO1.s:115    .text:00000000000000ac .L0 
     /tmp/ccWA0aO1.s:135    .text:00000000000000ac _ZN9Scheduler3putEP7IThread
     /tmp/ccWA0aO1.s:138    .text:00000000000000ac .L0 
     /tmp/ccWA0aO1.s:140    .text:00000000000000ac .L0 
     /tmp/ccWA0aO1.s:141    .text:00000000000000b0 .L0 
     /tmp/ccWA0aO1.s:144    .text:00000000000000b8 .L0 
     /tmp/ccWA0aO1.s:145    .text:00000000000000b8 .L0 
     /tmp/ccWA0aO1.s:147    .text:00000000000000bc .L0 
     /tmp/ccWA0aO1.s:149    .text:00000000000000bc .L0 
     /tmp/ccWA0aO1.s:151    .text:00000000000000c0 .L0 
     /tmp/ccWA0aO1.s:158    .text:00000000000000c8 .L0 
     /tmp/ccWA0aO1.s:163    .text:00000000000000cc .L0 
     /tmp/ccWA0aO1.s:164    .text:00000000000000cc .L0 
GAS LISTING /tmp/ccWA0aO1.s 			page 23


     /tmp/ccWA0aO1.s:165    .text:00000000000000cc .L0 
     /tmp/ccWA0aO1.s:169    .text:00000000000000d0 .L0 
     /tmp/ccWA0aO1.s:170    .text:00000000000000d0 .L0 
     /tmp/ccWA0aO1.s:171    .text:00000000000000d0 .L0 
     /tmp/ccWA0aO1.s:178    .text:00000000000000dc .L0 
     /tmp/ccWA0aO1.s:184    .text:00000000000000e4 .L0 
     /tmp/ccWA0aO1.s:190    .text:00000000000000f0 .L0 
     /tmp/ccWA0aO1.s:191    .text:00000000000000f0 .L0 
     /tmp/ccWA0aO1.s:193    .text:00000000000000f8 .L0 
     /tmp/ccWA0aO1.s:197    .text:00000000000000fc .L0 
     /tmp/ccWA0aO1.s:198    .text:00000000000000fc .L0 
     /tmp/ccWA0aO1.s:199    .text:00000000000000fc .L0 
     /tmp/ccWA0aO1.s:206    .text:0000000000000108 .L0 
     /tmp/ccWA0aO1.s:212    .text:0000000000000110 .L0 
     /tmp/ccWA0aO1.s:218    .text:000000000000011c .L0 
     /tmp/ccWA0aO1.s:219    .text:000000000000011c .L0 
     /tmp/ccWA0aO1.s:223    .text:0000000000000124 .L0 
     /tmp/ccWA0aO1.s:224    .text:0000000000000124 .L0 
     /tmp/ccWA0aO1.s:229    .text:0000000000000130 .L0 
     /tmp/ccWA0aO1.s:230    .text:0000000000000130 .L0 
     /tmp/ccWA0aO1.s:234    .text:0000000000000134 .L0 
     /tmp/ccWA0aO1.s:235    .text:0000000000000138 .L0 
     /tmp/ccWA0aO1.s:236    .text:0000000000000138 .L0 
     /tmp/ccWA0aO1.s:238    .text:000000000000013c .L0 
     /tmp/ccWA0aO1.s:239    .text:000000000000013c .L0 
     /tmp/ccWA0aO1.s:241    .text:0000000000000140 .L0 
     /tmp/ccWA0aO1.s:244    .text:0000000000000144 .L0 
     /tmp/ccWA0aO1.s:249    .text:0000000000000144 .L0 
     /tmp/ccWA0aO1.s:250    .text:0000000000000144 .L0 
     /tmp/ccWA0aO1.s:251    .text:0000000000000144 .L0 
     /tmp/ccWA0aO1.s:252    .text:0000000000000144 .L0 
     /tmp/ccWA0aO1.s:257    .text:0000000000000154 .L0 
     /tmp/ccWA0aO1.s:258    .text:0000000000000154 .L0 
     /tmp/ccWA0aO1.s:262    .text:0000000000000164 .L0 
     /tmp/ccWA0aO1.s:263    .text:0000000000000164 .L0 
     /tmp/ccWA0aO1.s:267    .text:0000000000000174 .L0 
     /tmp/ccWA0aO1.s:268    .text:0000000000000174 .L0 
     /tmp/ccWA0aO1.s:272    .text:0000000000000180 .L0 
     /tmp/ccWA0aO1.s:273    .text:0000000000000180 .L0 
     /tmp/ccWA0aO1.s:277    .text:0000000000000190 .L0 
     /tmp/ccWA0aO1.s:278    .text:0000000000000190 .L0 
     /tmp/ccWA0aO1.s:281    .text:0000000000000198 .L0 
     /tmp/ccWA0aO1.s:282    .text:0000000000000198 .L0 
     /tmp/ccWA0aO1.s:290    .text:00000000000001a0 .L0 
     /tmp/ccWA0aO1.s:291    .text:00000000000001a0 .L0 
     /tmp/ccWA0aO1.s:296    .text:00000000000001b0 .L0 
     /tmp/ccWA0aO1.s:297    .text:00000000000001b0 .L0 
     /tmp/ccWA0aO1.s:301    .text:00000000000001c0 .L0 
     /tmp/ccWA0aO1.s:302    .text:00000000000001c0 .L0 
     /tmp/ccWA0aO1.s:306    .text:00000000000001d0 .L0 
     /tmp/ccWA0aO1.s:307    .text:00000000000001d0 .L0 
     /tmp/ccWA0aO1.s:311    .text:00000000000001dc .L0 
     /tmp/ccWA0aO1.s:312    .text:00000000000001dc .L0 
     /tmp/ccWA0aO1.s:316    .text:00000000000001ec .L0 
     /tmp/ccWA0aO1.s:317    .text:00000000000001ec .L0 
     /tmp/ccWA0aO1.s:320    .text:00000000000001f4 .L0 
     /tmp/ccWA0aO1.s:321    .text:00000000000001f4 .L0 
GAS LISTING /tmp/ccWA0aO1.s 			page 24


     /tmp/ccWA0aO1.s:329    .text:00000000000001fc .L0 
     /tmp/ccWA0aO1.s:330    .text:00000000000001fc .L0 
     /tmp/ccWA0aO1.s:331    .text:00000000000001fc .L0 
     /tmp/ccWA0aO1.s:339    .text:0000000000000214 .L0 
     /tmp/ccWA0aO1.s:340    .text:0000000000000214 .L0 
     /tmp/ccWA0aO1.s:342    .text:000000000000021c .L0 
     /tmp/ccWA0aO1.s:343    .text:0000000000000220 .L0 
     /tmp/ccWA0aO1.s:349    .text:0000000000000220 _ZN9Scheduler7getNextEv
     /tmp/ccWA0aO1.s:352    .text:0000000000000220 .L0 
     /tmp/ccWA0aO1.s:353    .text:0000000000000220 .L0 
     /tmp/ccWA0aO1.s:356    .text:0000000000000220 .L0 
     /tmp/ccWA0aO1.s:357    .text:0000000000000220 .L0 
     /tmp/ccWA0aO1.s:358    .text:0000000000000220 .L0 
     /tmp/ccWA0aO1.s:365    .text:000000000000022c .L0 
     /tmp/ccWA0aO1.s:371    .text:0000000000000234 .L0 
     /tmp/ccWA0aO1.s:377    .text:0000000000000240 .L0 
     /tmp/ccWA0aO1.s:378    .text:0000000000000240 .L0 
     /tmp/ccWA0aO1.s:383    .text:0000000000000248 .L0 
     /tmp/ccWA0aO1.s:384    .text:0000000000000248 .L0 
     /tmp/ccWA0aO1.s:389    .text:000000000000024c .L0 
     /tmp/ccWA0aO1.s:392    .text:000000000000024c .L0 
     /tmp/ccWA0aO1.s:393    .text:000000000000024c .L0 
     /tmp/ccWA0aO1.s:394    .text:000000000000024c .L0 
     /tmp/ccWA0aO1.s:401    .text:0000000000000258 .L0 
     /tmp/ccWA0aO1.s:407    .text:0000000000000260 .L0 
     /tmp/ccWA0aO1.s:413    .text:000000000000026c .L0 
     /tmp/ccWA0aO1.s:414    .text:000000000000026c .L0 
     /tmp/ccWA0aO1.s:418    .text:0000000000000274 .L0 
     /tmp/ccWA0aO1.s:419    .text:0000000000000274 .L0 
     /tmp/ccWA0aO1.s:427    .text:000000000000028c .L0 
     /tmp/ccWA0aO1.s:428    .text:000000000000028c .L0 
     /tmp/ccWA0aO1.s:430    .text:0000000000000290 .L0 
     /tmp/ccWA0aO1.s:432    .text:0000000000000298 .L0 
     /tmp/ccWA0aO1.s:433    .text:0000000000000298 .L0 
     /tmp/ccWA0aO1.s:437    .text:000000000000029c .L0 
     /tmp/ccWA0aO1.s:438    .text:00000000000002a0 .L0 
     /tmp/ccWA0aO1.s:441    .text:00000000000002a8 .L0 
     /tmp/ccWA0aO1.s:442    .text:00000000000002a8 .L0 
     /tmp/ccWA0aO1.s:444    .text:00000000000002ac .L0 
     /tmp/ccWA0aO1.s:448    .text:00000000000002ac .L0 
     /tmp/ccWA0aO1.s:449    .text:00000000000002ac .L0 
     /tmp/ccWA0aO1.s:454    .text:00000000000002bc .L0 
     /tmp/ccWA0aO1.s:455    .text:00000000000002bc .L0 
     /tmp/ccWA0aO1.s:459    .text:00000000000002cc .L0 
     /tmp/ccWA0aO1.s:460    .text:00000000000002cc .L0 
     /tmp/ccWA0aO1.s:464    .text:00000000000002dc .L0 
     /tmp/ccWA0aO1.s:465    .text:00000000000002dc .L0 
     /tmp/ccWA0aO1.s:469    .text:00000000000002e8 .L0 
     /tmp/ccWA0aO1.s:470    .text:00000000000002e8 .L0 
     /tmp/ccWA0aO1.s:474    .text:00000000000002f8 .L0 
     /tmp/ccWA0aO1.s:475    .text:00000000000002f8 .L0 
     /tmp/ccWA0aO1.s:478    .text:0000000000000300 .L0 
     /tmp/ccWA0aO1.s:479    .text:0000000000000300 .L0 
     /tmp/ccWA0aO1.s:483    .text:0000000000000308 .L0 
     /tmp/ccWA0aO1.s:489    .text:0000000000000308 _ZN9Scheduler14dispatchToNextEv
     /tmp/ccWA0aO1.s:492    .text:0000000000000308 .L0 
     /tmp/ccWA0aO1.s:493    .text:0000000000000308 .L0 
GAS LISTING /tmp/ccWA0aO1.s 			page 25


     /tmp/ccWA0aO1.s:494    .text:000000000000030c .L0 
     /tmp/ccWA0aO1.s:499    .text:000000000000031c .L0 
     /tmp/ccWA0aO1.s:500    .text:000000000000031c .L0 
     /tmp/ccWA0aO1.s:501    .text:000000000000031c .L0 
     /tmp/ccWA0aO1.s:502    .text:000000000000031c .L0 
     /tmp/ccWA0aO1.s:504    .text:0000000000000320 .L0 
     /tmp/ccWA0aO1.s:506    .text:0000000000000320 .L0 
     /tmp/ccWA0aO1.s:515    .text:0000000000000338 .L0 
     /tmp/ccWA0aO1.s:520    .text:000000000000033c .L0 
     /tmp/ccWA0aO1.s:521    .text:000000000000033c .L0 
     /tmp/ccWA0aO1.s:522    .text:000000000000033c .L0 
     /tmp/ccWA0aO1.s:527    .text:0000000000000348 .L0 
     /tmp/ccWA0aO1.s:528    .text:0000000000000348 .L0 
     /tmp/ccWA0aO1.s:533    .text:0000000000000354 .L0 
     /tmp/ccWA0aO1.s:539    .text:000000000000035c .L0 
     /tmp/ccWA0aO1.s:544    .text:0000000000000360 .L0 
     /tmp/ccWA0aO1.s:545    .text:0000000000000360 .L0 
     /tmp/ccWA0aO1.s:546    .text:0000000000000360 .L0 
     /tmp/ccWA0aO1.s:549    .text:0000000000000368 .L0 
     /tmp/ccWA0aO1.s:551    .text:000000000000036c .L0 
     /tmp/ccWA0aO1.s:552    .text:000000000000036c .L0 
     /tmp/ccWA0aO1.s:555    .text:0000000000000370 .L0 
     /tmp/ccWA0aO1.s:556    .text:0000000000000374 .L0 
     /tmp/ccWA0aO1.s:557    .text:0000000000000374 .L0 
     /tmp/ccWA0aO1.s:559    .text:0000000000000378 .L0 
     /tmp/ccWA0aO1.s:560    .text:0000000000000378 .L0 
     /tmp/ccWA0aO1.s:562    .text:000000000000037c .L0 
     /tmp/ccWA0aO1.s:565    .text:0000000000000380 .L0 
     /tmp/ccWA0aO1.s:568    .text:0000000000000384 .L0 
     /tmp/ccWA0aO1.s:572    .text:0000000000000388 .L0 
     /tmp/ccWA0aO1.s:576    .text:0000000000000388 .L0 
     /tmp/ccWA0aO1.s:577    .text:0000000000000388 .L0 
     /tmp/ccWA0aO1.s:582    .text:0000000000000398 .L0 
     /tmp/ccWA0aO1.s:583    .text:0000000000000398 .L0 
     /tmp/ccWA0aO1.s:587    .text:00000000000003a8 .L0 
     /tmp/ccWA0aO1.s:588    .text:00000000000003a8 .L0 
     /tmp/ccWA0aO1.s:592    .text:00000000000003b8 .L0 
     /tmp/ccWA0aO1.s:593    .text:00000000000003b8 .L0 
     /tmp/ccWA0aO1.s:597    .text:00000000000003c4 .L0 
     /tmp/ccWA0aO1.s:598    .text:00000000000003c4 .L0 
     /tmp/ccWA0aO1.s:602    .text:00000000000003d4 .L0 
     /tmp/ccWA0aO1.s:603    .text:00000000000003d4 .L0 
     /tmp/ccWA0aO1.s:606    .text:00000000000003dc .L0 
     /tmp/ccWA0aO1.s:607    .text:00000000000003dc .L0 
     /tmp/ccWA0aO1.s:615    .text:00000000000003e4 .L0 
     /tmp/ccWA0aO1.s:616    .text:00000000000003e4 .L0 
     /tmp/ccWA0aO1.s:620    .text:00000000000003f4 .L0 
     /tmp/ccWA0aO1.s:621    .text:00000000000003f4 .L0 
     /tmp/ccWA0aO1.s:625    .text:0000000000000404 .L0 
     /tmp/ccWA0aO1.s:626    .text:0000000000000404 .L0 
     /tmp/ccWA0aO1.s:630    .text:0000000000000414 .L0 
     /tmp/ccWA0aO1.s:631    .text:0000000000000414 .L0 
     /tmp/ccWA0aO1.s:635    .text:0000000000000420 .L0 
     /tmp/ccWA0aO1.s:636    .text:0000000000000420 .L0 
     /tmp/ccWA0aO1.s:640    .text:0000000000000430 .L0 
     /tmp/ccWA0aO1.s:641    .text:0000000000000430 .L0 
     /tmp/ccWA0aO1.s:644    .text:0000000000000438 .L0 
GAS LISTING /tmp/ccWA0aO1.s 			page 26


     /tmp/ccWA0aO1.s:645    .text:0000000000000438 .L0 
     /tmp/ccWA0aO1.s:651    .text:0000000000000440 .L0 
     /tmp/ccWA0aO1.s:652    .text:0000000000000440 .L0 
     /tmp/ccWA0aO1.s:654    .text:0000000000000444 .L0 
     /tmp/ccWA0aO1.s:655    .text:0000000000000448 .L0 
     /tmp/ccWA0aO1.s:661    .text:0000000000000448 _ZN9Scheduler19dispatchUserVersionEv
     /tmp/ccWA0aO1.s:664    .text:0000000000000448 .L0 
     /tmp/ccWA0aO1.s:665    .text:0000000000000448 .L0 
     /tmp/ccWA0aO1.s:666    .text:000000000000044c .L0 
     /tmp/ccWA0aO1.s:669    .text:0000000000000454 .L0 
     /tmp/ccWA0aO1.s:670    .text:0000000000000454 .L0 
     /tmp/ccWA0aO1.s:672    .text:0000000000000458 .L0 
     /tmp/ccWA0aO1.s:674    .text:0000000000000458 .L0 
     /tmp/ccWA0aO1.s:675    .text:0000000000000458 .L0 
     /tmp/ccWA0aO1.s:682    .text:0000000000000468 .L0 
     /tmp/ccWA0aO1.s:687    .text:000000000000046c .L0 
     /tmp/ccWA0aO1.s:688    .text:000000000000046c .L0 
     /tmp/ccWA0aO1.s:689    .text:000000000000046c .L0 
     /tmp/ccWA0aO1.s:692    .text:0000000000000474 .L0 
     /tmp/ccWA0aO1.s:695    .text:000000000000047c .L0 
     /tmp/ccWA0aO1.s:696    .text:000000000000047c .L0 
     /tmp/ccWA0aO1.s:701    .text:000000000000048c .L0 
     /tmp/ccWA0aO1.s:702    .text:000000000000048c .L0 
     /tmp/ccWA0aO1.s:705    .text:0000000000000494 .L0 
     /tmp/ccWA0aO1.s:706    .text:0000000000000498 .L0 
     /tmp/ccWA0aO1.s:707    .text:0000000000000498 .L0 
     /tmp/ccWA0aO1.s:709    .text:000000000000049c .L0 
     /tmp/ccWA0aO1.s:710    .text:000000000000049c .L0 
     /tmp/ccWA0aO1.s:712    .text:00000000000004a0 .L0 
     /tmp/ccWA0aO1.s:716    .text:00000000000004a4 .L0 
     /tmp/ccWA0aO1.s:720    .text:00000000000004a4 .L0 
     /tmp/ccWA0aO1.s:721    .text:00000000000004a4 .L0 
     /tmp/ccWA0aO1.s:726    .text:00000000000004b4 .L0 
     /tmp/ccWA0aO1.s:727    .text:00000000000004b4 .L0 
     /tmp/ccWA0aO1.s:731    .text:00000000000004c4 .L0 
     /tmp/ccWA0aO1.s:732    .text:00000000000004c4 .L0 
     /tmp/ccWA0aO1.s:736    .text:00000000000004d4 .L0 
     /tmp/ccWA0aO1.s:737    .text:00000000000004d4 .L0 
     /tmp/ccWA0aO1.s:741    .text:00000000000004e0 .L0 
     /tmp/ccWA0aO1.s:742    .text:00000000000004e0 .L0 
     /tmp/ccWA0aO1.s:746    .text:00000000000004f0 .L0 
     /tmp/ccWA0aO1.s:747    .text:00000000000004f0 .L0 
     /tmp/ccWA0aO1.s:750    .text:00000000000004f8 .L0 
     /tmp/ccWA0aO1.s:751    .text:00000000000004f8 .L0 
     /tmp/ccWA0aO1.s:755    .text:0000000000000500 .L0 
     /tmp/ccWA0aO1.s:777    .text:0000000000000500 .L0 
     /tmp/ccWA0aO1.s:8      .rodata.str1.8:0000000000000000 .LC0
     /tmp/ccWA0aO1.s:42     .text:0000000000000028 .L0 
     /tmp/ccWA0aO1.s:51     .text:0000000000000038 .L0 
     /tmp/ccWA0aO1.s:58     .text:0000000000000044 .L0 
     /tmp/ccWA0aO1.s:65     .text:0000000000000050 .L0 
     /tmp/ccWA0aO1.s:71     .text:0000000000000058 .L0 
     /tmp/ccWA0aO1.s:11     .rodata.str1.8:0000000000000008 .LC1
     /tmp/ccWA0aO1.s:89     .text:0000000000000078 .L0 
     /tmp/ccWA0aO1.s:171    .text:00000000000000d0 .L0 
     /tmp/ccWA0aO1.s:178    .text:00000000000000dc .L0 
     /tmp/ccWA0aO1.s:185    .text:00000000000000e8 .L0 
GAS LISTING /tmp/ccWA0aO1.s 			page 27


     /tmp/ccWA0aO1.s:191    .text:00000000000000f0 .L0 
     /tmp/ccWA0aO1.s:199    .text:00000000000000fc .L0 
     /tmp/ccWA0aO1.s:206    .text:0000000000000108 .L0 
     /tmp/ccWA0aO1.s:213    .text:0000000000000114 .L0 
     /tmp/ccWA0aO1.s:219    .text:000000000000011c .L0 
     /tmp/ccWA0aO1.s:120    .rodata.str1.8:0000000000000010 .LC2
     /tmp/ccWA0aO1.s:252    .text:0000000000000144 .L0 
     /tmp/ccWA0aO1.s:123    .rodata.str1.8:0000000000000038 .LC3
     /tmp/ccWA0aO1.s:258    .text:0000000000000154 .L0 
     /tmp/ccWA0aO1.s:126    .rodata.str1.8:0000000000000050 .LC4
     /tmp/ccWA0aO1.s:263    .text:0000000000000164 .L0 
     /tmp/ccWA0aO1.s:129    .rodata.str1.8:0000000000000060 .LC5
     /tmp/ccWA0aO1.s:273    .text:0000000000000180 .L0 
     /tmp/ccWA0aO1.s:291    .text:00000000000001a0 .L0 
     /tmp/ccWA0aO1.s:297    .text:00000000000001b0 .L0 
     /tmp/ccWA0aO1.s:302    .text:00000000000001c0 .L0 
     /tmp/ccWA0aO1.s:312    .text:00000000000001dc .L0 
     /tmp/ccWA0aO1.s:331    .text:00000000000001fc .L0 
     /tmp/ccWA0aO1.s:334    .text:000000000000020c .L0 
     /tmp/ccWA0aO1.s:340    .text:0000000000000214 .L0 
     /tmp/ccWA0aO1.s:358    .text:0000000000000220 .L0 
     /tmp/ccWA0aO1.s:365    .text:000000000000022c .L0 
     /tmp/ccWA0aO1.s:372    .text:0000000000000238 .L0 
     /tmp/ccWA0aO1.s:378    .text:0000000000000240 .L0 
     /tmp/ccWA0aO1.s:394    .text:000000000000024c .L0 
     /tmp/ccWA0aO1.s:401    .text:0000000000000258 .L0 
     /tmp/ccWA0aO1.s:408    .text:0000000000000264 .L0 
     /tmp/ccWA0aO1.s:414    .text:000000000000026c .L0 
     /tmp/ccWA0aO1.s:419    .text:0000000000000274 .L0 
     /tmp/ccWA0aO1.s:422    .text:0000000000000284 .L0 
     /tmp/ccWA0aO1.s:430    .text:0000000000000290 .L0 
     /tmp/ccWA0aO1.s:449    .text:00000000000002ac .L0 
     /tmp/ccWA0aO1.s:455    .text:00000000000002bc .L0 
     /tmp/ccWA0aO1.s:460    .text:00000000000002cc .L0 
     /tmp/ccWA0aO1.s:470    .text:00000000000002e8 .L0 
     /tmp/ccWA0aO1.s:509    .text:000000000000032c .L0 
     /tmp/ccWA0aO1.s:577    .text:0000000000000388 .L0 
     /tmp/ccWA0aO1.s:583    .text:0000000000000398 .L0 
     /tmp/ccWA0aO1.s:588    .text:00000000000003a8 .L0 
     /tmp/ccWA0aO1.s:598    .text:00000000000003c4 .L0 
     /tmp/ccWA0aO1.s:616    .text:00000000000003e4 .L0 
     /tmp/ccWA0aO1.s:621    .text:00000000000003f4 .L0 
     /tmp/ccWA0aO1.s:626    .text:0000000000000404 .L0 
     /tmp/ccWA0aO1.s:636    .text:0000000000000420 .L0 
     /tmp/ccWA0aO1.s:677    .text:0000000000000460 .L0 
     /tmp/ccWA0aO1.s:721    .text:00000000000004a4 .L0 
     /tmp/ccWA0aO1.s:727    .text:00000000000004b4 .L0 
     /tmp/ccWA0aO1.s:732    .text:00000000000004c4 .L0 
     /tmp/ccWA0aO1.s:742    .text:00000000000004e0 .L0 
     /tmp/ccWA0aO1.s:66     .text:0000000000000058 .L2
     /tmp/ccWA0aO1.s:98     .text:0000000000000090 .L3
     /tmp/ccWA0aO1.s:73     .text:0000000000000060 .L4
     /tmp/ccWA0aO1.s:243    .text:0000000000000144 .L16
     /tmp/ccWA0aO1.s:284    .text:00000000000001a0 .L17
     /tmp/ccWA0aO1.s:186    .text:00000000000000f0 .L9
     /tmp/ccWA0aO1.s:323    .text:00000000000001fc .L18
     /tmp/ccWA0aO1.s:214    .text:000000000000011c .L13
GAS LISTING /tmp/ccWA0aO1.s 			page 28


     /tmp/ccWA0aO1.s:221    .text:0000000000000124 .L14
     /tmp/ccWA0aO1.s:335    .text:0000000000000214 .L11
     /tmp/ccWA0aO1.s:232    .text:0000000000000134 .L6
     /tmp/ccWA0aO1.s:373    .text:0000000000000240 .L20
     /tmp/ccWA0aO1.s:435    .text:000000000000029c .L27
     /tmp/ccWA0aO1.s:409    .text:000000000000026c .L22
     /tmp/ccWA0aO1.s:423    .text:000000000000028c .L23
     /tmp/ccWA0aO1.s:571    .text:0000000000000388 .L34
     /tmp/ccWA0aO1.s:609    .text:00000000000003e4 .L35
     /tmp/ccWA0aO1.s:647    .text:0000000000000440 .L31
     /tmp/ccWA0aO1.s:553    .text:0000000000000370 .L28
     /tmp/ccWA0aO1.s:715    .text:00000000000004a4 .L39
     /tmp/ccWA0aO1.s:2207   .debug_abbrev:0000000000000000 .Ldebug_abbrev0
     /tmp/ccWA0aO1.s:3747   .debug_str:0000000000000531 .LASF91
     /tmp/ccWA0aO1.s:3759   .debug_str:000000000000064a .LASF92
     /tmp/ccWA0aO1.s:3713   .debug_str:000000000000044a .LASF93
     /tmp/ccWA0aO1.s:5      .text:0000000000000000 .Ltext0
     /tmp/ccWA0aO1.s:773    .text:0000000000000500 .Letext0
     /tmp/ccWA0aO1.s:3559   .debug_line:0000000000000000 .Ldebug_line0
     /tmp/ccWA0aO1.s:3671   .debug_str:0000000000000312 .LASF0
     /tmp/ccWA0aO1.s:3687   .debug_str:000000000000039b .LASF1
     /tmp/ccWA0aO1.s:3655   .debug_str:0000000000000291 .LASF2
     /tmp/ccWA0aO1.s:3633   .debug_str:0000000000000220 .LASF4
     /tmp/ccWA0aO1.s:3733   .debug_str:00000000000004d1 .LASF3
     /tmp/ccWA0aO1.s:3583   .debug_str:0000000000000085 .LASF5
     /tmp/ccWA0aO1.s:3691   .debug_str:00000000000003b3 .LASF6
     /tmp/ccWA0aO1.s:3669   .debug_str:00000000000002ff .LASF7
     /tmp/ccWA0aO1.s:3751   .debug_str:0000000000000604 .LASF8
     /tmp/ccWA0aO1.s:3621   .debug_str:00000000000001e1 .LASF9
     /tmp/ccWA0aO1.s:3709   .debug_str:0000000000000432 .LASF10
     /tmp/ccWA0aO1.s:3749   .debug_str:00000000000005f5 .LASF11
     /tmp/ccWA0aO1.s:3585   .debug_str:000000000000008c .LASF12
     /tmp/ccWA0aO1.s:3569   .debug_str:000000000000002e .LASF13
     /tmp/ccWA0aO1.s:3593   .debug_str:00000000000000df .LASF14
     /tmp/ccWA0aO1.s:3727   .debug_str:0000000000000496 .LASF15
     /tmp/ccWA0aO1.s:3601   .debug_str:0000000000000108 .LASF16
     /tmp/ccWA0aO1.s:3595   .debug_str:00000000000000eb .LASF47
     /tmp/ccWA0aO1.s:3625   .debug_str:00000000000001f5 .LASF94
     /tmp/ccWA0aO1.s:3699   .debug_str:00000000000003fe .LASF17
     /tmp/ccWA0aO1.s:3663   .debug_str:00000000000002c5 .LASF18
     /tmp/ccWA0aO1.s:3707   .debug_str:000000000000042c .LASF19
     /tmp/ccWA0aO1.s:3661   .debug_str:00000000000002b8 .LASF20
     /tmp/ccWA0aO1.s:3647   .debug_str:000000000000025e .LASF21
     /tmp/ccWA0aO1.s:3697   .debug_str:00000000000003f2 .LASF22
     /tmp/ccWA0aO1.s:3761   .debug_str:000000000000065c .LASF23
     /tmp/ccWA0aO1.s:3735   .debug_str:00000000000004e3 .LASF24
     /tmp/ccWA0aO1.s:3685   .debug_str:0000000000000386 .LASF25
     /tmp/ccWA0aO1.s:3743   .debug_str:000000000000051a .LASF26
     /tmp/ccWA0aO1.s:3631   .debug_str:0000000000000214 .LASF27
     /tmp/ccWA0aO1.s:3613   .debug_str:0000000000000194 .LASF28
     /tmp/ccWA0aO1.s:3563   .debug_str:0000000000000006 .LASF29
     /tmp/ccWA0aO1.s:3745   .debug_str:0000000000000525 .LASF30
     /tmp/ccWA0aO1.s:3677   .debug_str:0000000000000340 .LASF32
     /tmp/ccWA0aO1.s:3705   .debug_str:0000000000000420 .LASF34
     /tmp/ccWA0aO1.s:3619   .debug_str:00000000000001c4 .LASF36
     /tmp/ccWA0aO1.s:3641   .debug_str:000000000000023f .LASF46
     /tmp/ccWA0aO1.s:3695   .debug_str:00000000000003cc .LASF48
GAS LISTING /tmp/ccWA0aO1.s 			page 29


     /tmp/ccWA0aO1.s:3721   .debug_str:0000000000000484 .LASF95
     /tmp/ccWA0aO1.s:3649   .debug_str:000000000000026a .LASF31
     /tmp/ccWA0aO1.s:3575   .debug_str:000000000000005c .LASF33
     /tmp/ccWA0aO1.s:3767   .debug_str:0000000000000678 .LASF59
     /tmp/ccWA0aO1.s:3683   .debug_str:000000000000036a .LASF61
     /tmp/ccWA0aO1.s:3737   .debug_str:00000000000004f4 .LASF35
     /tmp/ccWA0aO1.s:3573   .debug_str:0000000000000049 .LASF37
     /tmp/ccWA0aO1.s:3577   .debug_str:000000000000006f .LASF38
     /tmp/ccWA0aO1.s:3637   .debug_str:0000000000000232 .LASF39
     /tmp/ccWA0aO1.s:3679   .debug_str:000000000000035b .LASF40
     /tmp/ccWA0aO1.s:3763   .debug_str:0000000000000667 .LASF41
     /tmp/ccWA0aO1.s:3681   .debug_str:0000000000000360 .LASF42
     /tmp/ccWA0aO1.s:3623   .debug_str:00000000000001ef .LASF43
     /tmp/ccWA0aO1.s:3755   .debug_str:000000000000061f .LASF44
     /tmp/ccWA0aO1.s:3657   .debug_str:000000000000029f .LASF45
     /tmp/ccWA0aO1.s:3673   .debug_str:000000000000031f .LASF49
     /tmp/ccWA0aO1.s:3701   .debug_str:0000000000000406 .LASF50
     /tmp/ccWA0aO1.s:3765   .debug_str:0000000000000673 .LASF51
     /tmp/ccWA0aO1.s:3757   .debug_str:000000000000062c .LASF52
     /tmp/ccWA0aO1.s:3571   .debug_str:000000000000003e .LASF96
     /tmp/ccWA0aO1.s:3729   .debug_str:00000000000004ac .LASF97
     /tmp/ccWA0aO1.s:3607   .debug_str:000000000000015d .LASF53
     /tmp/ccWA0aO1.s:3605   .debug_str:0000000000000143 .LASF54
     /tmp/ccWA0aO1.s:3587   .debug_str:000000000000009c .LASF55
     /tmp/ccWA0aO1.s:3711   .debug_str:0000000000000441 .LASF56
     /tmp/ccWA0aO1.s:3615   .debug_str:00000000000001a3 .LASF57
     /tmp/ccWA0aO1.s:3703   .debug_str:0000000000000416 .LASF58
     /tmp/ccWA0aO1.s:3629   .debug_str:0000000000000200 .LASF98
     /tmp/ccWA0aO1.s:3715   .debug_str:000000000000045e .LASF60
     /tmp/ccWA0aO1.s:3667   .debug_str:00000000000002df .LASF62
     /tmp/ccWA0aO1.s:3659   .debug_str:00000000000002a4 .LASF63
     /tmp/ccWA0aO1.s:3603   .debug_str:000000000000011e .LASF64
     /tmp/ccWA0aO1.s:3639   .debug_str:0000000000000237 .LASF65
     /tmp/ccWA0aO1.s:3591   .debug_str:00000000000000c7 .LASF66
     /tmp/ccWA0aO1.s:3617   .debug_str:00000000000001a8 .LASF99
     /tmp/ccWA0aO1.s:3579   .debug_str:0000000000000075 .LASF67
     /tmp/ccWA0aO1.s:3741   .debug_str:00000000000004fe .LASF68
     /tmp/ccWA0aO1.s:3693   .debug_str:00000000000003c6 .LASF69
     /tmp/ccWA0aO1.s:3651   .debug_str:000000000000026f .LASF75
     /tmp/ccWA0aO1.s:350    .text:0000000000000220 .LFB12
     /tmp/ccWA0aO1.s:484    .text:0000000000000308 .LFE12
     /tmp/ccWA0aO1.s:3108   .debug_loc:0000000000000000 .LLST12
     /tmp/ccWA0aO1.s:354    .text:0000000000000220 .LBB97
     /tmp/ccWA0aO1.s:376    .text:0000000000000240 .LBE97
     /tmp/ccWA0aO1.s:361    .text:000000000000022c .LBB99
     /tmp/ccWA0aO1.s:369    .text:0000000000000234 .LBE99
     /tmp/ccWA0aO1.s:3115   .debug_loc:0000000000000023 .LLST13
     /tmp/ccWA0aO1.s:381    .text:0000000000000248 .LBB102
     /tmp/ccWA0aO1.s:3527   .debug_ranges:0000000000000000 .Ldebug_ranges0
     /tmp/ccWA0aO1.s:3124   .debug_loc:000000000000004f .LLST14
     /tmp/ccWA0aO1.s:3139   .debug_loc:0000000000000089 .LLST15
     /tmp/ccWA0aO1.s:3154   .debug_loc:00000000000000d1 .LLST16
     /tmp/ccWA0aO1.s:452    .text:00000000000002bc .LVL46
     /tmp/ccWA0aO1.s:457    .text:00000000000002cc .LVL47
     /tmp/ccWA0aO1.s:462    .text:00000000000002dc .LVL48
     /tmp/ccWA0aO1.s:467    .text:00000000000002e8 .LVL49
     /tmp/ccWA0aO1.s:472    .text:00000000000002f8 .LVL50
GAS LISTING /tmp/ccWA0aO1.s 			page 30


     /tmp/ccWA0aO1.s:476    .text:0000000000000300 .LVL51
     /tmp/ccWA0aO1.s:480    .text:0000000000000308 .LVL52
     /tmp/ccWA0aO1.s:390    .text:000000000000024c .LBB105
     /tmp/ccWA0aO1.s:412    .text:000000000000026c .LBE105
     /tmp/ccWA0aO1.s:397    .text:0000000000000258 .LBB107
     /tmp/ccWA0aO1.s:405    .text:0000000000000260 .LBE107
     /tmp/ccWA0aO1.s:3173   .debug_loc:000000000000010f .LLST17
     /tmp/ccWA0aO1.s:415    .text:0000000000000274 .LBB110
     /tmp/ccWA0aO1.s:426    .text:000000000000028c .LBE110
     /tmp/ccWA0aO1.s:136    .text:00000000000000ac .LFB11
     /tmp/ccWA0aO1.s:344    .text:0000000000000220 .LFE11
     /tmp/ccWA0aO1.s:3182   .debug_loc:000000000000013b .LLST2
     /tmp/ccWA0aO1.s:3689   .debug_str:00000000000003ae .LASF70
     /tmp/ccWA0aO1.s:3211   .debug_loc:00000000000001b0 .LLST3
     /tmp/ccWA0aO1.s:154    .text:00000000000000c8 .LBB63
     /tmp/ccWA0aO1.s:3222   .debug_loc:00000000000001e6 .LLST4
     /tmp/ccWA0aO1.s:3237   .debug_loc:0000000000000220 .LLST5
     /tmp/ccWA0aO1.s:3252   .debug_loc:0000000000000268 .LLST6
     /tmp/ccWA0aO1.s:294    .text:00000000000001b0 .LVL31
     /tmp/ccWA0aO1.s:299    .text:00000000000001c0 .LVL32
     /tmp/ccWA0aO1.s:304    .text:00000000000001d0 .LVL33
     /tmp/ccWA0aO1.s:309    .text:00000000000001dc .LVL34
     /tmp/ccWA0aO1.s:314    .text:00000000000001ec .LVL35
     /tmp/ccWA0aO1.s:318    .text:00000000000001f4 .LVL36
     /tmp/ccWA0aO1.s:322    .text:00000000000001fc .LVL37
     /tmp/ccWA0aO1.s:167    .text:00000000000000d0 .LBB66
     /tmp/ccWA0aO1.s:189    .text:00000000000000f0 .LBE66
     /tmp/ccWA0aO1.s:174    .text:00000000000000dc .LBB68
     /tmp/ccWA0aO1.s:182    .text:00000000000000e4 .LBE68
     /tmp/ccWA0aO1.s:3271   .debug_loc:00000000000002a6 .LLST7
     /tmp/ccWA0aO1.s:195    .text:00000000000000fc .LBB71
     /tmp/ccWA0aO1.s:217    .text:000000000000011c .LBE71
     /tmp/ccWA0aO1.s:202    .text:0000000000000108 .LBB73
     /tmp/ccWA0aO1.s:210    .text:0000000000000110 .LBE73
     /tmp/ccWA0aO1.s:3280   .debug_loc:00000000000002d2 .LLST8
     /tmp/ccWA0aO1.s:247    .text:0000000000000144 .LBB76
     /tmp/ccWA0aO1.s:286    .text:00000000000001a0 .LBE76
     /tmp/ccWA0aO1.s:3289   .debug_loc:00000000000002fe .LLST9
     /tmp/ccWA0aO1.s:3298   .debug_loc:0000000000000323 .LLST10
     /tmp/ccWA0aO1.s:3307   .debug_loc:000000000000034f .LLST11
     /tmp/ccWA0aO1.s:255    .text:0000000000000154 .LVL23
     /tmp/ccWA0aO1.s:260    .text:0000000000000164 .LVL24
     /tmp/ccWA0aO1.s:265    .text:0000000000000174 .LVL25
     /tmp/ccWA0aO1.s:270    .text:0000000000000180 .LVL26
     /tmp/ccWA0aO1.s:275    .text:0000000000000190 .LVL27
     /tmp/ccWA0aO1.s:279    .text:0000000000000198 .LVL28
     /tmp/ccWA0aO1.s:283    .text:00000000000001a0 .LVL29
     /tmp/ccWA0aO1.s:327    .text:00000000000001fc .LBB79
     /tmp/ccWA0aO1.s:338    .text:0000000000000214 .LBE79
     /tmp/ccWA0aO1.s:490    .text:0000000000000308 .LFB10
     /tmp/ccWA0aO1.s:656    .text:0000000000000448 .LFE10
     /tmp/ccWA0aO1.s:3739   .debug_str:00000000000004f9 .LASF71
     /tmp/ccWA0aO1.s:3315   .debug_loc:0000000000000373 .LLST18
     /tmp/ccWA0aO1.s:3581   .debug_str:0000000000000080 .LASF72
     /tmp/ccWA0aO1.s:3330   .debug_loc:00000000000003bc .LLST19
     /tmp/ccWA0aO1.s:512    .text:0000000000000338 .LBB117
     /tmp/ccWA0aO1.s:3341   .debug_loc:00000000000003f2 .LLST20
GAS LISTING /tmp/ccWA0aO1.s 			page 31


     /tmp/ccWA0aO1.s:3356   .debug_loc:000000000000042c .LLST21
     /tmp/ccWA0aO1.s:3371   .debug_loc:0000000000000474 .LLST22
     /tmp/ccWA0aO1.s:580    .text:0000000000000398 .LVL67
     /tmp/ccWA0aO1.s:585    .text:00000000000003a8 .LVL68
     /tmp/ccWA0aO1.s:590    .text:00000000000003b8 .LVL69
     /tmp/ccWA0aO1.s:595    .text:00000000000003c4 .LVL70
     /tmp/ccWA0aO1.s:600    .text:00000000000003d4 .LVL71
     /tmp/ccWA0aO1.s:604    .text:00000000000003dc .LVL72
     /tmp/ccWA0aO1.s:608    .text:00000000000003e4 .LVL73
     /tmp/ccWA0aO1.s:536    .text:000000000000035c .LBB120
     /tmp/ccWA0aO1.s:3396   .debug_loc:00000000000004b8 .LLST23
     /tmp/ccWA0aO1.s:3411   .debug_loc:00000000000004f2 .LLST24
     /tmp/ccWA0aO1.s:3426   .debug_loc:000000000000053a .LLST25
     /tmp/ccWA0aO1.s:618    .text:00000000000003f4 .LVL74
     /tmp/ccWA0aO1.s:623    .text:0000000000000404 .LVL75
     /tmp/ccWA0aO1.s:628    .text:0000000000000414 .LVL76
     /tmp/ccWA0aO1.s:633    .text:0000000000000420 .LVL77
     /tmp/ccWA0aO1.s:638    .text:0000000000000430 .LVL78
     /tmp/ccWA0aO1.s:642    .text:0000000000000438 .LVL79
     /tmp/ccWA0aO1.s:646    .text:0000000000000440 .LVL80
     /tmp/ccWA0aO1.s:507    .text:0000000000000328 .LVL53
     /tmp/ccWA0aO1.s:523    .text:0000000000000344 .LVL56
     /tmp/ccWA0aO1.s:529    .text:0000000000000350 .LVL58
     /tmp/ccWA0aO1.s:547    .text:0000000000000368 .LVL62
     /tmp/ccWA0aO1.s:18     .text:0000000000000000 .LFB9
     /tmp/ccWA0aO1.s:116    .text:00000000000000ac .LFE9
     /tmp/ccWA0aO1.s:3445   .debug_loc:0000000000000578 .LLST0
     /tmp/ccWA0aO1.s:46     .text:0000000000000038 .LBB40
     /tmp/ccWA0aO1.s:69     .text:0000000000000058 .LBE40
     /tmp/ccWA0aO1.s:54     .text:0000000000000044 .LBB42
     /tmp/ccWA0aO1.s:62     .text:000000000000004c .LBE42
     /tmp/ccWA0aO1.s:3452   .debug_loc:000000000000059b .LLST1
     /tmp/ccWA0aO1.s:35     .text:000000000000001c .LVL0
     /tmp/ccWA0aO1.s:39     .text:0000000000000028 .LVL1
     /tmp/ccWA0aO1.s:44     .text:0000000000000038 .LVL2
     /tmp/ccWA0aO1.s:81     .text:0000000000000070 .LVL6
     /tmp/ccWA0aO1.s:91     .text:0000000000000088 .LVL7
     /tmp/ccWA0aO1.s:102    .text:0000000000000098 .LVL9
     /tmp/ccWA0aO1.s:662    .text:0000000000000448 .LFB8
     /tmp/ccWA0aO1.s:756    .text:0000000000000500 .LFE8
     /tmp/ccWA0aO1.s:3611   .debug_str:0000000000000187 .LASF73
     /tmp/ccWA0aO1.s:679    .text:0000000000000468 .LBB127
     /tmp/ccWA0aO1.s:3461   .debug_loc:00000000000005c7 .LLST26
     /tmp/ccWA0aO1.s:3474   .debug_loc:00000000000005ff .LLST27
     /tmp/ccWA0aO1.s:3489   .debug_loc:0000000000000647 .LLST28
     /tmp/ccWA0aO1.s:724    .text:00000000000004b4 .LVL90
     /tmp/ccWA0aO1.s:729    .text:00000000000004c4 .LVL91
     /tmp/ccWA0aO1.s:734    .text:00000000000004d4 .LVL92
     /tmp/ccWA0aO1.s:739    .text:00000000000004e0 .LVL93
     /tmp/ccWA0aO1.s:744    .text:00000000000004f0 .LVL94
     /tmp/ccWA0aO1.s:748    .text:00000000000004f8 .LVL95
     /tmp/ccWA0aO1.s:752    .text:0000000000000500 .LVL96
     /tmp/ccWA0aO1.s:676    .text:0000000000000460 .LVL81
     /tmp/ccWA0aO1.s:690    .text:0000000000000474 .LVL84
     /tmp/ccWA0aO1.s:697    .text:0000000000000484 .LVL85
     /tmp/ccWA0aO1.s:699    .text:000000000000048c .LVL86
     /tmp/ccWA0aO1.s:703    .text:0000000000000494 .LVL87
GAS LISTING /tmp/ccWA0aO1.s 			page 32


     /tmp/ccWA0aO1.s:3717   .debug_str:000000000000046d .LASF100
     /tmp/ccWA0aO1.s:3719   .debug_str:0000000000000472 .LASF101
     /tmp/ccWA0aO1.s:3675   .debug_str:0000000000000337 .LASF102
     /tmp/ccWA0aO1.s:3609   .debug_str:0000000000000168 .LASF103
     /tmp/ccWA0aO1.s:3725   .debug_str:000000000000048e .LASF74
     /tmp/ccWA0aO1.s:3599   .debug_str:00000000000000f8 .LASF76
     /tmp/ccWA0aO1.s:3561   .debug_str:0000000000000000 .LASF77
     /tmp/ccWA0aO1.s:3597   .debug_str:00000000000000f3 .LASF78
     /tmp/ccWA0aO1.s:3723   .debug_str:0000000000000489 .LASF79
     /tmp/ccWA0aO1.s:3627   .debug_str:00000000000001fb .LASF80
     /tmp/ccWA0aO1.s:3589   .debug_str:00000000000000b7 .LASF81
     /tmp/ccWA0aO1.s:3567   .debug_str:0000000000000024 .LASF83
     /tmp/ccWA0aO1.s:3635   .debug_str:0000000000000227 .LASF82
     /tmp/ccWA0aO1.s:3565   .debug_str:000000000000001d .LASF84
     /tmp/ccWA0aO1.s:3653   .debug_str:0000000000000281 .LASF85
     /tmp/ccWA0aO1.s:3731   .debug_str:00000000000004c6 .LASF86
     /tmp/ccWA0aO1.s:3665   .debug_str:00000000000002cf .LASF87
     /tmp/ccWA0aO1.s:3645   .debug_str:0000000000000253 .LASF88
     /tmp/ccWA0aO1.s:3753   .debug_str:0000000000000614 .LASF89
     /tmp/ccWA0aO1.s:3643   .debug_str:000000000000024c .LASF90
     /tmp/ccWA0aO1.s:379    .text:0000000000000248 .LVL40
     /tmp/ccWA0aO1.s:450    .text:00000000000002b4 .LVL45
     /tmp/ccWA0aO1.s:360    .text:000000000000022c .LVL38
     /tmp/ccWA0aO1.s:366    .text:0000000000000234 .LVL39
     /tmp/ccWA0aO1.s:386    .text:000000000000024c .LVL41
     /tmp/ccWA0aO1.s:434    .text:000000000000029c .LVL44
     /tmp/ccWA0aO1.s:396    .text:0000000000000258 .LVL42
     /tmp/ccWA0aO1.s:402    .text:0000000000000260 .LVL43
     /tmp/ccWA0aO1.s:139    .text:00000000000000ac .LVL11
     /tmp/ccWA0aO1.s:253    .text:000000000000014c .LVL22
     /tmp/ccWA0aO1.s:292    .text:00000000000001a8 .LVL30
     /tmp/ccWA0aO1.s:220    .text:0000000000000124 .LVL18
     /tmp/ccWA0aO1.s:226    .text:000000000000012c .LVL19
     /tmp/ccWA0aO1.s:231    .text:0000000000000134 .LVL20
     /tmp/ccWA0aO1.s:153    .text:00000000000000c8 .LVL12
     /tmp/ccWA0aO1.s:160    .text:00000000000000cc .LVL13
     /tmp/ccWA0aO1.s:173    .text:00000000000000dc .LVL14
     /tmp/ccWA0aO1.s:179    .text:00000000000000e4 .LVL15
     /tmp/ccWA0aO1.s:201    .text:0000000000000108 .LVL16
     /tmp/ccWA0aO1.s:207    .text:0000000000000110 .LVL17
     /tmp/ccWA0aO1.s:246    .text:0000000000000144 .LVL21
     /tmp/ccWA0aO1.s:525    .text:0000000000000348 .LVL57
     /tmp/ccWA0aO1.s:566    .text:0000000000000380 .LVL64
     /tmp/ccWA0aO1.s:531    .text:0000000000000354 .LVL59
     /tmp/ccWA0aO1.s:563    .text:000000000000037c .LVL63
     /tmp/ccWA0aO1.s:511    .text:0000000000000338 .LVL54
     /tmp/ccWA0aO1.s:517    .text:000000000000033c .LVL55
     /tmp/ccWA0aO1.s:570    .text:0000000000000388 .LVL65
     /tmp/ccWA0aO1.s:578    .text:0000000000000390 .LVL66
     /tmp/ccWA0aO1.s:535    .text:000000000000035c .LVL60
     /tmp/ccWA0aO1.s:541    .text:0000000000000360 .LVL61
     /tmp/ccWA0aO1.s:72     .text:0000000000000060 .LVL5
     /tmp/ccWA0aO1.s:111    .text:00000000000000a4 .LVL10
     /tmp/ccWA0aO1.s:53     .text:0000000000000044 .LVL3
     /tmp/ccWA0aO1.s:59     .text:000000000000004c .LVL4
     /tmp/ccWA0aO1.s:678    .text:0000000000000468 .LVL82
     /tmp/ccWA0aO1.s:684    .text:000000000000046c .LVL83
GAS LISTING /tmp/ccWA0aO1.s 			page 33


     /tmp/ccWA0aO1.s:714    .text:00000000000004a4 .LVL88
     /tmp/ccWA0aO1.s:722    .text:00000000000004ac .LVL89
     /tmp/ccWA0aO1.s:778    .debug_info:0000000000000000 .Ldebug_info0
     /tmp/ccWA0aO1.s:162    .text:00000000000000cc .LBE63
     /tmp/ccWA0aO1.s:287    .text:00000000000001a0 .LBB78
     /tmp/ccWA0aO1.s:325    .text:00000000000001fc .LBE78
     /tmp/ccWA0aO1.s:388    .text:000000000000024c .LBE102
     /tmp/ccWA0aO1.s:445    .text:00000000000002ac .LBB112
     /tmp/ccWA0aO1.s:482    .text:0000000000000308 .LBE112
     /tmp/ccWA0aO1.s:519    .text:000000000000033c .LBE117
     /tmp/ccWA0aO1.s:573    .text:0000000000000388 .LBB123
     /tmp/ccWA0aO1.s:611    .text:00000000000003e4 .LBE123
     /tmp/ccWA0aO1.s:543    .text:0000000000000360 .LBE120
     /tmp/ccWA0aO1.s:612    .text:00000000000003e4 .LBB124
     /tmp/ccWA0aO1.s:649    .text:0000000000000440 .LBE124
     /tmp/ccWA0aO1.s:686    .text:000000000000046c .LBE127
     /tmp/ccWA0aO1.s:717    .text:00000000000004a4 .LBB130
     /tmp/ccWA0aO1.s:754    .text:0000000000000500 .LBE130

UNDEFINED SYMBOLS
_ZN7IThread11getPRunningEv
_Z6putU64m
_Z9putStringPKc
_Z10putNewlinev
_Z6putInti
_Z10stopKernelv
_ZN7IThread10pRunningSpE
_ZN7IThread11setPRunningEPS_
kernelThread
