GAS LISTING /tmp/ccxd8uy7.s 			page 1


   1              		.file	"scheduler.cpp"
   2              		.option pic
   3              		.option norelax
   4              		.text
   5              	.Ltext0:
   6              		.section	.rodata.str1.8,"aMS",@progbits,1
   7              		.align	3
   8              	.LC0:
   9 0000 3A202000 		.string	":  "
  10 0004 00000000 		.align	3
  11              	.LC1:
  12 0008 2D3E00   		.string	"->"
  13              		.text
  14              		.align	2
  15              		.globl	_ZN9Scheduler10printStateEv
  17              	_ZN9Scheduler10printStateEv:
  18              	.LFB10:
  19              		.file 1 "src/scheduler.cpp"
   1:src/scheduler.cpp **** #include "../h/scheduler.h"
   2:src/scheduler.cpp **** 
   3:src/scheduler.cpp **** int Scheduler::sleep(time_t time)
   4:src/scheduler.cpp **** {
   5:src/scheduler.cpp ****     assert(IThread::getPRunning()->state == IThread::RUNNING);
   6:src/scheduler.cpp ****     assert(IThread::getPRunning()->done == false);
   7:src/scheduler.cpp **** 
   8:src/scheduler.cpp ****     IThread::getPRunning()->state = IThread::SUSPENDED;
   9:src/scheduler.cpp ****     IThread::getPRunning()->remainingSleep = time;
  10:src/scheduler.cpp **** 
  11:src/scheduler.cpp ****     if(pSleepHead == nullptr)
  12:src/scheduler.cpp ****     {
  13:src/scheduler.cpp ****         pSleepHead = IThread::getPRunning();
  14:src/scheduler.cpp ****         IThread::getPRunning()->pNext = nullptr;
  15:src/scheduler.cpp ****     }
  16:src/scheduler.cpp ****     else
  17:src/scheduler.cpp ****     {
  18:src/scheduler.cpp ****         IThread::getPRunning()->pNext = pSleepHead;
  19:src/scheduler.cpp ****         pSleepHead = IThread::getPRunning();
  20:src/scheduler.cpp ****     }
  21:src/scheduler.cpp **** 
  22:src/scheduler.cpp ****     dispatchToNext();
  23:src/scheduler.cpp **** 
  24:src/scheduler.cpp ****     return 0;
  25:src/scheduler.cpp **** }
  26:src/scheduler.cpp **** 
  27:src/scheduler.cpp **** void Scheduler::dispatchUserVersion()
  28:src/scheduler.cpp **** {
  29:src/scheduler.cpp ****     extern IThread kernelThread;
  30:src/scheduler.cpp ****     assert(IThread::getPRunning() !=
  31:src/scheduler.cpp ****            &kernelThread); // you're only supposed to open user threads with system call with code 
  32:src/scheduler.cpp **** 
  33:src/scheduler.cpp ****     if(IThread::getPRunning()->id != BUSY_WAIT_THREAD_ID)
  34:src/scheduler.cpp ****     {
  35:src/scheduler.cpp ****         IThread::getPRunning()->state = IThread::READY;
  36:src/scheduler.cpp ****         Scheduler::put(IThread::getPRunning());
  37:src/scheduler.cpp ****     }
  38:src/scheduler.cpp **** 
  39:src/scheduler.cpp ****     Scheduler::dispatchToNext();
GAS LISTING /tmp/ccxd8uy7.s 			page 2


  40:src/scheduler.cpp **** }
  41:src/scheduler.cpp **** 
  42:src/scheduler.cpp **** void Scheduler::printState()
  43:src/scheduler.cpp **** {
  20              		.loc 1 43 1
  21              		.cfi_startproc
  22 0000 130101FE 		addi	sp,sp,-32
  23              		.cfi_def_cfa_offset 32
  24 0004 233C1100 		sd	ra,24(sp)
  25 0008 23388100 		sd	s0,16(sp)
  26 000c 23349100 		sd	s1,8(sp)
  27              		.cfi_offset 1, -8
  28              		.cfi_offset 8, -16
  29              		.cfi_offset 9, -24
  30 0010 13040102 		addi	s0,sp,32
  31              		.cfi_def_cfa 8, 0
  44:src/scheduler.cpp ****     putU64(IThread::getPRunning()->id);
  32              		.loc 1 44 5
  33              		.loc 1 44 32 is_stmt 0
  34 0014 97000000 		call	_ZN7IThread11getPRunningEv@plt
  34      E7800000 
  35              	.LVL0:
  36              		.loc 1 44 11
  37 001c 03358502 		ld	a0,40(a0)
  38 0020 97000000 		call	_Z6putU64m@plt
  38      E7800000 
  39              	.LVL1:
  45:src/scheduler.cpp ****     putString(":  ");
  40              		.loc 1 45 5 is_stmt 1
  41              		.loc 1 45 14 is_stmt 0
  42 0028 17050000 		lla	a0,.LC0
  42      13050500 
  43 0030 97000000 		call	_Z9putStringPKc@plt
  43      E7800000 
  44              	.LVL2:
  46:src/scheduler.cpp **** 
  47:src/scheduler.cpp ****     IThread* pCur = get()->pHead;
  45              		.loc 1 47 5 is_stmt 1
  46              	.LBB45:
  47              	.LBB46:
  48              		.file 2 "src/../h/scheduler.h"
   1:src/../h/scheduler.h **** #pragma once
   2:src/../h/scheduler.h **** 
   3:src/../h/scheduler.h **** #include "../h/thread.h"
   4:src/../h/scheduler.h **** 
   5:src/../h/scheduler.h **** class Scheduler // singleton
   6:src/../h/scheduler.h **** {
   7:src/../h/scheduler.h **** public:
   8:src/../h/scheduler.h ****     static Scheduler* get()
   9:src/../h/scheduler.h ****     {
  10:src/../h/scheduler.h ****         static Scheduler instance;
  49              		.loc 2 10 9
  50              		.loc 2 10 26 is_stmt 0
  51 0038 97070000 		lbu	a5,_ZGVZN9Scheduler3getEvE8instance
  51      83C70700 
  52 0040 63900702 		bnez	a5,.L2
  53              	.LVL3:
GAS LISTING /tmp/ccxd8uy7.s 			page 3


  54              	.LBB47:
  55              	.LBB48:
  56              	.LBB49:
  11:src/../h/scheduler.h ****         return &instance;
  12:src/../h/scheduler.h ****     }
  13:src/../h/scheduler.h **** 
  14:src/../h/scheduler.h ****     int sleep(time_t time);
  15:src/../h/scheduler.h **** 
  16:src/../h/scheduler.h ****     static void dispatchToNext(); // WARNING: different than sys. call dispatch()
  17:src/../h/scheduler.h ****     static void dispatchUserVersion();
  18:src/../h/scheduler.h ****     static IThread* getNext();
  19:src/../h/scheduler.h ****     static void put(IThread*);
  20:src/../h/scheduler.h ****     static void printState();
  21:src/../h/scheduler.h **** 
  22:src/../h/scheduler.h ****     IThread* pHead; // points to the one that is the next to be run
  23:src/../h/scheduler.h ****     IThread* pSleepHead;
  24:src/../h/scheduler.h **** 
  25:src/../h/scheduler.h **** private:
  26:src/../h/scheduler.h ****     Scheduler()
  27:src/../h/scheduler.h ****         : pHead(nullptr), pSleepHead(nullptr)
  57              		.loc 2 27 45
  58 0044 97070000 		lla	a5,_ZZN9Scheduler3getEvE8instance
  58      93870700 
  59 004c 23B00700 		sd	zero,0(a5)
  60 0050 23B40700 		sd	zero,8(a5)
  61              	.LVL4:
  62              	.LBE49:
  63              	.LBE48:
  64              	.LBE47:
  10:src/../h/scheduler.h ****         return &instance;
  65              		.loc 2 10 26
  66 0054 93071000 		li	a5,1
  67 0058 17070000 		sb	a5,_ZGVZN9Scheduler3getEvE8instance,a4
  67      2300F700 
  68              	.L2:
  11:src/../h/scheduler.h ****         return &instance;
  69              		.loc 2 11 9 is_stmt 1
  70              	.LBE46:
  71              	.LBE45:
  72              		.loc 1 47 28 is_stmt 0
  73 0060 97040000 		ld	s1,_ZZN9Scheduler3getEvE8instance
  73      83B40400 
  74              	.LVL5:
  75              	.L4:
  48:src/scheduler.cpp ****     while(pCur)
  76              		.loc 1 48 5 is_stmt 1
  77              		.loc 1 48 11
  78 0068 63880402 		beqz	s1,.L3
  49:src/scheduler.cpp ****     {
  50:src/scheduler.cpp ****         putU64(pCur->id);
  79              		.loc 1 50 9
  80              		.loc 1 50 15 is_stmt 0
  81 006c 03B58402 		ld	a0,40(s1)
  82 0070 97000000 		call	_Z6putU64m@plt
  82      E7800000 
  83              	.LVL6:
  51:src/scheduler.cpp **** 
GAS LISTING /tmp/ccxd8uy7.s 			page 4


  52:src/scheduler.cpp ****         if(pCur->pNext)
  84              		.loc 1 52 9 is_stmt 1
  85              		.loc 1 52 18 is_stmt 0
  86 0078 83B70403 		ld	a5,48(s1)
  87              		.loc 1 52 9
  88 007c 638E0700 		beqz	a5,.L3
  53:src/scheduler.cpp ****         {
  54:src/scheduler.cpp ****             putString("->");
  89              		.loc 1 54 13 is_stmt 1
  90              		.loc 1 54 22 is_stmt 0
  91 0080 17050000 		lla	a0,.LC1
  91      13050500 
  92 0088 97000000 		call	_Z9putStringPKc@plt
  92      E7800000 
  93              	.LVL7:
  55:src/scheduler.cpp ****         }
  56:src/scheduler.cpp ****         else
  57:src/scheduler.cpp ****         {
  58:src/scheduler.cpp ****             break;
  59:src/scheduler.cpp ****         }
  60:src/scheduler.cpp **** 
  61:src/scheduler.cpp ****         pCur = pCur->pNext;
  94              		.loc 1 61 9 is_stmt 1
  95              		.loc 1 61 14 is_stmt 0
  96 0090 83B40403 		ld	s1,48(s1)
  97              	.LVL8:
  48:src/scheduler.cpp ****     {
  98              		.loc 1 48 5
  99 0094 6FF05FFD 		j	.L4
 100              	.L3:
  62:src/scheduler.cpp ****     }
  63:src/scheduler.cpp **** 
  64:src/scheduler.cpp ****     putNewline();
 101              		.loc 1 64 5 is_stmt 1
 102              		.loc 1 64 15 is_stmt 0
 103 0098 97000000 		call	_Z10putNewlinev@plt
 103      E7800000 
 104              	.LVL9:
  65:src/scheduler.cpp **** }
 105              		.loc 1 65 1
 106 00a0 83308101 		ld	ra,24(sp)
 107              		.cfi_restore 1
 108 00a4 03340101 		ld	s0,16(sp)
 109              		.cfi_restore 8
 110              		.cfi_def_cfa 2, 32
 111 00a8 83348100 		ld	s1,8(sp)
 112              		.cfi_restore 9
 113              	.LVL10:
 114 00ac 13010102 		addi	sp,sp,32
 115              		.cfi_def_cfa_offset 0
 116 00b0 67800000 		jr	ra
 117              		.cfi_endproc
 118              	.LFE10:
 120              		.section	.rodata.str1.8
 121 000b 00000000 		.align	3
 121      00
 122              	.LC2:
GAS LISTING /tmp/ccxd8uy7.s 			page 5


 123 0010 3D3D3D3D 		.string	"===================== ASSERT file: "
 123      3D3D3D3D 
 123      3D3D3D3D 
 123      3D3D3D3D 
 123      3D3D3D3D 
 124 0034 00000000 		.align	3
 125              	.LC3:
 126 0038 7372632F 		.string	"src/scheduler.cpp"
 126      73636865 
 126      64756C65 
 126      722E6370 
 126      7000
 127 004a 00000000 		.align	3
 127      0000
 128              	.LC4:
 129 0050 20202020 		.string	"    line: "
 129      6C696E65 
 129      3A2000
 130 005b 00000000 		.align	3
 130      00
 131              	.LC5:
 132 0060 2020203D 		.string	"   ==========================="
 132      3D3D3D3D 
 132      3D3D3D3D 
 132      3D3D3D3D 
 132      3D3D3D3D 
 133              		.text
 134              		.align	2
 135              		.globl	_ZN9Scheduler3putEP7IThread
 137              	_ZN9Scheduler3putEP7IThread:
 138              	.LFB12:
  66:src/scheduler.cpp **** 
  67:src/scheduler.cpp **** void Scheduler::dispatchToNext() // WARNING: different than sys. call thread_dispatch()
  68:src/scheduler.cpp **** {
  69:src/scheduler.cpp ****     assert(&(IThread::getPRunning()->sp) == IThread::pRunningSp);
  70:src/scheduler.cpp **** 
  71:src/scheduler.cpp ****     IThread *pOld = IThread::getPRunning();
  72:src/scheduler.cpp ****     IThread *pNew = Scheduler::getNext();
  73:src/scheduler.cpp **** 
  74:src/scheduler.cpp ****     extern IThread kernelThread;
  75:src/scheduler.cpp ****     assert(pNew != &kernelThread);
  76:src/scheduler.cpp **** 
  77:src/scheduler.cpp ****     assert(pNew->state == IThread::READY);
  78:src/scheduler.cpp **** 
  79:src/scheduler.cpp ****     bool existReadyThread = (pNew != nullptr);
  80:src/scheduler.cpp ****     bool existSleeper = (Scheduler::get()->pSleepHead != nullptr);
  81:src/scheduler.cpp **** 
  82:src/scheduler.cpp ****     if(existReadyThread == false && existSleeper == false)
  83:src/scheduler.cpp ****     {
  84:src/scheduler.cpp ****         pNew = &kernelThread;
  85:src/scheduler.cpp **** 
  86:src/scheduler.cpp ****         putString("=== NO MORE USER THREADS EXIST. RETURNING TO KERNEL THREAD");
  87:src/scheduler.cpp ****         putNewline();
  88:src/scheduler.cpp **** 
  89:src/scheduler.cpp ****         assert(IThread::pAllThreads[0] == &kernelThread);
  90:src/scheduler.cpp ****         IThread::pAllThreads[0]->state = IThread::READY;
  91:src/scheduler.cpp **** 
GAS LISTING /tmp/ccxd8uy7.s 			page 6


  92:src/scheduler.cpp ****         // TODO: set permission
  93:src/scheduler.cpp ****     }
  94:src/scheduler.cpp ****     else if(existReadyThread == false && existSleeper == true)
  95:src/scheduler.cpp ****     {
  96:src/scheduler.cpp ****         assert(existReadyThread == false && existSleeper == true);
  97:src/scheduler.cpp **** 
  98:src/scheduler.cpp ****         Scheduler::put(IThread::pAllThreads[BUSY_WAIT_THREAD_ID]);
  99:src/scheduler.cpp ****     }
 100:src/scheduler.cpp **** 
 101:src/scheduler.cpp ****     pOld->state = IThread::READY; // must be in this order (maby)
 102:src/scheduler.cpp ****     pNew->state = IThread::RUNNING;
 103:src/scheduler.cpp **** 
 104:src/scheduler.cpp ****     Scheduler::put(pOld);
 105:src/scheduler.cpp **** }
 106:src/scheduler.cpp **** 
 107:src/scheduler.cpp **** void Scheduler::put(IThread* p)
 108:src/scheduler.cpp **** {
 139              		.loc 1 108 1 is_stmt 1
 140              		.cfi_startproc
 141              	.LVL11:
 142 00b4 130101FF 		addi	sp,sp,-16
 143              		.cfi_def_cfa_offset 16
 144 00b8 23341100 		sd	ra,8(sp)
 145 00bc 23308100 		sd	s0,0(sp)
 146              		.cfi_offset 1, -8
 147              		.cfi_offset 8, -16
 148 00c0 13040101 		addi	s0,sp,16
 149              		.cfi_def_cfa 8, 0
 109:src/scheduler.cpp ****     if(!p)
 150              		.loc 1 109 5
 151 00c4 630C0508 		beqz	a0,.L16
 110:src/scheduler.cpp ****     {
 111:src/scheduler.cpp ****         assert(false);
 112:src/scheduler.cpp ****     }
 113:src/scheduler.cpp **** 
 114:src/scheduler.cpp ****     assert(p->state == IThread::READY);
 152              		.loc 1 114 5
 153 00c8 83270500 		lw	a5,0(a0)
 154 00cc 9387E7FF 		addi	a5,a5,-2
 155              	.LVL12:
 156              	.LBB69:
 157              	.LBB70:
 158              		.file 3 "src/../h/../h/../h/my_console.h"
   1:src/../h/../h/../h/my_console.h **** #pragma once
   2:src/../h/../h/../h/my_console.h **** 
   3:src/../h/../h/../h/my_console.h **** #include "../h/risc.h"
   4:src/../h/../h/../h/my_console.h **** 
   5:src/../h/../h/../h/my_console.h **** #include "../lib/hw.h"
   6:src/../h/../h/../h/my_console.h **** 
   7:src/../h/../h/../h/my_console.h **** #define __DEBUG_MODE
   8:src/../h/../h/../h/my_console.h **** 
   9:src/../h/../h/../h/my_console.h **** 
  10:src/../h/../h/../h/my_console.h **** void putString(const char* s);
  11:src/../h/../h/../h/my_console.h **** void putInt(int n);
  12:src/../h/../h/../h/my_console.h **** void putNewline();
  13:src/../h/../h/../h/my_console.h **** void putU64(uint64 n);
  14:src/../h/../h/../h/my_console.h **** void putBinary(uint64 n);
GAS LISTING /tmp/ccxd8uy7.s 			page 7


  15:src/../h/../h/../h/my_console.h **** 
  16:src/../h/../h/../h/my_console.h **** [[noreturn]] void stopKernel();
  17:src/../h/../h/../h/my_console.h **** 
  18:src/../h/../h/../h/my_console.h **** inline void _assert(bool valid, const char* file, int line) // MUST be inline
  19:src/../h/../h/../h/my_console.h **** {
  20:src/../h/../h/../h/my_console.h ****     if(valid)
 159              		.loc 3 20 5
 160 00d0 6394070E 		bnez	a5,.L17
  21:src/../h/../h/../h/my_console.h ****         return;
 161              		.loc 3 21 9
 162              	.LVL13:
 163              	.LBE70:
 164              	.LBE69:
 115:src/scheduler.cpp **** 
 116:src/scheduler.cpp ****     p->pNext = nullptr; // ensure no thread is after this one (and ensure no random pointers)
 165              		.loc 1 116 5
 166              		.loc 1 116 14 is_stmt 0
 167 00d4 23380502 		sd	zero,48(a0)
 117:src/scheduler.cpp **** 
 118:src/scheduler.cpp ****     if(!(get()->pHead))
 168              		.loc 1 118 5 is_stmt 1
 169              	.LBB72:
 170              	.LBB73:
  10:src/../h/scheduler.h ****         return &instance;
 171              		.loc 2 10 9
  10:src/../h/scheduler.h ****         return &instance;
 172              		.loc 2 10 26 is_stmt 0
 173 00d8 97070000 		lbu	a5,_ZGVZN9Scheduler3getEvE8instance
 173      83C70700 
 174 00e0 63900702 		bnez	a5,.L9
 175              	.LVL14:
 176              	.LBB74:
 177              	.LBB75:
 178              	.LBB76:
 179              		.loc 2 27 45
 180 00e4 97070000 		lla	a5,_ZZN9Scheduler3getEvE8instance
 180      93870700 
 181 00ec 23B00700 		sd	zero,0(a5)
 182 00f0 23B40700 		sd	zero,8(a5)
 183              	.LVL15:
 184              	.LBE76:
 185              	.LBE75:
 186              	.LBE74:
  10:src/../h/scheduler.h ****         return &instance;
 187              		.loc 2 10 26
 188 00f4 93071000 		li	a5,1
 189 00f8 17070000 		sb	a5,_ZGVZN9Scheduler3getEvE8instance,a4
 189      2300F700 
 190              	.L9:
  11:src/../h/scheduler.h ****     }
 191              		.loc 2 11 9 is_stmt 1
 192              	.LBE73:
 193              	.LBE72:
 194              		.loc 1 118 17 is_stmt 0
 195 0100 97070000 		ld	a5,_ZZN9Scheduler3getEvE8instance
 195      83B70700 
 196              		.loc 1 118 5
GAS LISTING /tmp/ccxd8uy7.s 			page 8


 197 0108 63860710 		beqz	a5,.L18
 119:src/scheduler.cpp ****     {
 120:src/scheduler.cpp ****         get()->pHead = p;
 121:src/scheduler.cpp ****         return;
 122:src/scheduler.cpp ****     }
 123:src/scheduler.cpp **** 
 124:src/scheduler.cpp ****     IThread* pCur = get()->pHead;
 198              		.loc 1 124 5 is_stmt 1
 199              	.LBB77:
 200              	.LBB78:
  10:src/../h/scheduler.h ****         return &instance;
 201              		.loc 2 10 9
  10:src/../h/scheduler.h ****         return &instance;
 202              		.loc 2 10 26 is_stmt 0
 203 010c 97070000 		lbu	a5,_ZGVZN9Scheduler3getEvE8instance
 203      83C70700 
 204 0114 63900702 		bnez	a5,.L13
 205              	.LVL16:
 206              	.LBB79:
 207              	.LBB80:
 208              	.LBB81:
 209              		.loc 2 27 45
 210 0118 97070000 		lla	a5,_ZZN9Scheduler3getEvE8instance
 210      93870700 
 211 0120 23B00700 		sd	zero,0(a5)
 212 0124 23B40700 		sd	zero,8(a5)
 213              	.LVL17:
 214              	.LBE81:
 215              	.LBE80:
 216              	.LBE79:
  10:src/../h/scheduler.h ****         return &instance;
 217              		.loc 2 10 26
 218 0128 93071000 		li	a5,1
 219 012c 17070000 		sb	a5,_ZGVZN9Scheduler3getEvE8instance,a4
 219      2300F700 
 220              	.L13:
  11:src/../h/scheduler.h ****     }
 221              		.loc 2 11 9 is_stmt 1
 222              	.LBE78:
 223              	.LBE77:
 224              		.loc 1 124 28 is_stmt 0
 225 0134 97070000 		ld	a5,_ZZN9Scheduler3getEvE8instance
 225      83B70700 
 226              	.LVL18:
 227              	.L14:
 125:src/scheduler.cpp ****     while(pCur->pNext)
 228              		.loc 1 125 5 is_stmt 1
 229              		.loc 1 125 17
 230 013c 13870700 		mv	a4,a5
 231 0140 83B70703 		ld	a5,48(a5)
 232              	.LVL19:
 233 0144 E39C07FE 		bnez	a5,.L14
 126:src/scheduler.cpp ****     {
 127:src/scheduler.cpp ****         pCur = pCur->pNext;
 128:src/scheduler.cpp ****     }
 129:src/scheduler.cpp ****     pCur->pNext = p;
 234              		.loc 1 129 5
GAS LISTING /tmp/ccxd8uy7.s 			page 9


 235              		.loc 1 129 17 is_stmt 0
 236 0148 2338A702 		sd	a0,48(a4)
 237              	.LVL20:
 238              	.L6:
 130:src/scheduler.cpp **** }
 239              		.loc 1 130 1
 240 014c 83308100 		ld	ra,8(sp)
 241              		.cfi_remember_state
 242              		.cfi_restore 1
 243 0150 03340100 		ld	s0,0(sp)
 244              		.cfi_restore 8
 245              		.cfi_def_cfa 2, 16
 246 0154 13010101 		addi	sp,sp,16
 247              		.cfi_def_cfa_offset 0
 248 0158 67800000 		jr	ra
 249              	.L16:
 250              		.cfi_restore_state
 111:src/scheduler.cpp ****     }
 251              		.loc 1 111 9 is_stmt 1
 252              	.LVL21:
 253              	.LBB82:
 254              	.LBB83:
  20:src/../h/../h/../h/my_console.h ****         return;
 255              		.loc 3 20 5
  22:src/../h/../h/../h/my_console.h **** 
  23:src/../h/../h/../h/my_console.h ****     putString("===================== ASSERT file: ");
 256              		.loc 3 23 5
 257              		.loc 3 23 14 is_stmt 0
 258 015c 17050000 		lla	a0,.LC2
 258      13050500 
 259              	.LVL22:
 260 0164 97000000 		call	_Z9putStringPKc@plt
 260      E7800000 
 261              	.LVL23:
  24:src/../h/../h/../h/my_console.h ****     putString(file);
 262              		.loc 3 24 5 is_stmt 1
 263              		.loc 3 24 14 is_stmt 0
 264 016c 17050000 		lla	a0,.LC3
 264      13050500 
 265 0174 97000000 		call	_Z9putStringPKc@plt
 265      E7800000 
 266              	.LVL24:
  25:src/../h/../h/../h/my_console.h ****     putString("    line: ");
 267              		.loc 3 25 5 is_stmt 1
 268              		.loc 3 25 14 is_stmt 0
 269 017c 17050000 		lla	a0,.LC4
 269      13050500 
 270 0184 97000000 		call	_Z9putStringPKc@plt
 270      E7800000 
 271              	.LVL25:
  26:src/../h/../h/../h/my_console.h ****     putInt(line);
 272              		.loc 3 26 5 is_stmt 1
 273              		.loc 3 26 11 is_stmt 0
 274 018c 1305F006 		li	a0,111
 275 0190 97000000 		call	_Z6putInti@plt
 275      E7800000 
 276              	.LVL26:
GAS LISTING /tmp/ccxd8uy7.s 			page 10


  27:src/../h/../h/../h/my_console.h ****     putString("   ===========================");
 277              		.loc 3 27 5 is_stmt 1
 278              		.loc 3 27 14 is_stmt 0
 279 0198 17050000 		lla	a0,.LC5
 279      13050500 
 280 01a0 97000000 		call	_Z9putStringPKc@plt
 280      E7800000 
 281              	.LVL27:
  28:src/../h/../h/../h/my_console.h ****     putNewline();
 282              		.loc 3 28 5 is_stmt 1
 283              		.loc 3 28 15 is_stmt 0
 284 01a8 97000000 		call	_Z10putNewlinev@plt
 284      E7800000 
 285              	.LVL28:
  29:src/../h/../h/../h/my_console.h **** 
  30:src/../h/../h/../h/my_console.h ****     stopKernel();
 286              		.loc 3 30 5 is_stmt 1
 287              		.loc 3 30 15 is_stmt 0
 288 01b0 97000000 		call	_Z10stopKernelv@plt
 288      E7800000 
 289              	.LVL29:
 290              	.L17:
 291              	.LBE83:
 292              	.LBE82:
 293              	.LBB84:
 294              	.LBB71:
  23:src/../h/../h/../h/my_console.h ****     putString(file);
 295              		.loc 3 23 5 is_stmt 1
  23:src/../h/../h/../h/my_console.h ****     putString(file);
 296              		.loc 3 23 14 is_stmt 0
 297 01b8 17050000 		lla	a0,.LC2
 297      13050500 
 298              	.LVL30:
 299 01c0 97000000 		call	_Z9putStringPKc@plt
 299      E7800000 
 300              	.LVL31:
  24:src/../h/../h/../h/my_console.h ****     putString("    line: ");
 301              		.loc 3 24 5 is_stmt 1
  24:src/../h/../h/../h/my_console.h ****     putString("    line: ");
 302              		.loc 3 24 14 is_stmt 0
 303 01c8 17050000 		lla	a0,.LC3
 303      13050500 
 304 01d0 97000000 		call	_Z9putStringPKc@plt
 304      E7800000 
 305              	.LVL32:
  25:src/../h/../h/../h/my_console.h ****     putInt(line);
 306              		.loc 3 25 5 is_stmt 1
  25:src/../h/../h/../h/my_console.h ****     putInt(line);
 307              		.loc 3 25 14 is_stmt 0
 308 01d8 17050000 		lla	a0,.LC4
 308      13050500 
 309 01e0 97000000 		call	_Z9putStringPKc@plt
 309      E7800000 
 310              	.LVL33:
  26:src/../h/../h/../h/my_console.h ****     putString("   ===========================");
 311              		.loc 3 26 5 is_stmt 1
  26:src/../h/../h/../h/my_console.h ****     putString("   ===========================");
GAS LISTING /tmp/ccxd8uy7.s 			page 11


 312              		.loc 3 26 11 is_stmt 0
 313 01e8 13052007 		li	a0,114
 314 01ec 97000000 		call	_Z6putInti@plt
 314      E7800000 
 315              	.LVL34:
  27:src/../h/../h/../h/my_console.h ****     putNewline();
 316              		.loc 3 27 5 is_stmt 1
  27:src/../h/../h/../h/my_console.h ****     putNewline();
 317              		.loc 3 27 14 is_stmt 0
 318 01f4 17050000 		lla	a0,.LC5
 318      13050500 
 319 01fc 97000000 		call	_Z9putStringPKc@plt
 319      E7800000 
 320              	.LVL35:
  28:src/../h/../h/../h/my_console.h **** 
 321              		.loc 3 28 5 is_stmt 1
  28:src/../h/../h/../h/my_console.h **** 
 322              		.loc 3 28 15 is_stmt 0
 323 0204 97000000 		call	_Z10putNewlinev@plt
 323      E7800000 
 324              	.LVL36:
 325              		.loc 3 30 5 is_stmt 1
 326              		.loc 3 30 15 is_stmt 0
 327 020c 97000000 		call	_Z10stopKernelv@plt
 327      E7800000 
 328              	.LVL37:
 329              	.L18:
 330              	.LBE71:
 331              	.LBE84:
 120:src/scheduler.cpp ****         return;
 332              		.loc 1 120 9 is_stmt 1
 333              	.LBB85:
 334              	.LBB86:
  10:src/../h/scheduler.h ****         return &instance;
 335              		.loc 2 10 9
  10:src/../h/scheduler.h ****         return &instance;
 336              		.loc 2 10 26 is_stmt 0
 337 0214 97070000 		lbu	a5,_ZGVZN9Scheduler3getEvE8instance
 337      83C70700 
 338 021c 639C0700 		bnez	a5,.L11
 339              	.LVL38:
 340              	.LBB87:
 341              	.LBB88:
 342              	.LBB89:
 343              		.loc 2 27 45
 344 0220 97070000 		sd	zero,_ZZN9Scheduler3getEvE8instance+8,a5
 344      23B00700 
 345              	.LVL39:
 346              	.LBE89:
 347              	.LBE88:
 348              	.LBE87:
  10:src/../h/scheduler.h ****         return &instance;
 349              		.loc 2 10 26
 350 0228 93071000 		li	a5,1
 351 022c 17070000 		sb	a5,_ZGVZN9Scheduler3getEvE8instance,a4
 351      2300F700 
 352              	.L11:
GAS LISTING /tmp/ccxd8uy7.s 			page 12


  11:src/../h/scheduler.h ****     }
 353              		.loc 2 11 9 is_stmt 1
 354              	.LBE86:
 355              	.LBE85:
 120:src/scheduler.cpp ****         return;
 356              		.loc 1 120 22 is_stmt 0
 357 0234 97070000 		sd	a0,_ZZN9Scheduler3getEvE8instance,a5
 357      23B0A700 
 121:src/scheduler.cpp ****     }
 358              		.loc 1 121 9 is_stmt 1
 359 023c 6FF01FF1 		j	.L6
 360              		.cfi_endproc
 361              	.LFE12:
 363              		.align	2
 364              		.globl	_ZN9Scheduler7getNextEv
 366              	_ZN9Scheduler7getNextEv:
 367              	.LFB13:
 131:src/scheduler.cpp **** 
 132:src/scheduler.cpp **** IThread* Scheduler::getNext()
 133:src/scheduler.cpp **** {
 368              		.loc 1 133 1
 369              		.cfi_startproc
 370 0240 130101FF 		addi	sp,sp,-16
 371              		.cfi_def_cfa_offset 16
 372 0244 23348100 		sd	s0,8(sp)
 373              		.cfi_offset 8, -8
 374 0248 13040101 		addi	s0,sp,16
 375              		.cfi_def_cfa 8, 0
 134:src/scheduler.cpp ****     IThread* ret = get()->pHead;
 376              		.loc 1 134 5
 377              	.LBB90:
 378              	.LBB91:
  10:src/../h/scheduler.h ****         return &instance;
 379              		.loc 2 10 9
  10:src/../h/scheduler.h ****         return &instance;
 380              		.loc 2 10 26 is_stmt 0
 381 024c 97070000 		lbu	a5,_ZGVZN9Scheduler3getEvE8instance
 381      83C70700 
 382 0254 63900702 		bnez	a5,.L20
 383              	.LVL40:
 384              	.LBB92:
 385              	.LBB93:
 386              	.LBB94:
 387              		.loc 2 27 45
 388 0258 97070000 		lla	a5,_ZZN9Scheduler3getEvE8instance
 388      93870700 
 389 0260 23B00700 		sd	zero,0(a5)
 390 0264 23B40700 		sd	zero,8(a5)
 391              	.LVL41:
 392              	.LBE94:
 393              	.LBE93:
 394              	.LBE92:
  10:src/../h/scheduler.h ****         return &instance;
 395              		.loc 2 10 26
 396 0268 93071000 		li	a5,1
 397 026c 17070000 		sb	a5,_ZGVZN9Scheduler3getEvE8instance,a4
 397      2300F700 
GAS LISTING /tmp/ccxd8uy7.s 			page 13


 398              	.L20:
  11:src/../h/scheduler.h ****     }
 399              		.loc 2 11 9 is_stmt 1
 400              	.LBE91:
 401              	.LBE90:
 402              		.loc 1 134 27 is_stmt 0
 403 0274 17050000 		ld	a0,_ZZN9Scheduler3getEvE8instance
 403      03350500 
 404              	.LVL42:
 135:src/scheduler.cpp **** 
 136:src/scheduler.cpp ****     if(ret == nullptr)
 405              		.loc 1 136 5 is_stmt 1
 406 027c 63000506 		beqz	a0,.L19
 137:src/scheduler.cpp ****         return ret;
 138:src/scheduler.cpp **** 
 139:src/scheduler.cpp ****     get()->pHead = get()->pHead->pNext;
 407              		.loc 1 139 5
 408              	.LBB95:
 409              	.LBB96:
  10:src/../h/scheduler.h ****         return &instance;
 410              		.loc 2 10 9
  10:src/../h/scheduler.h ****         return &instance;
 411              		.loc 2 10 26 is_stmt 0
 412 0280 97070000 		lbu	a5,_ZGVZN9Scheduler3getEvE8instance
 412      83C70700 
 413 0288 63900702 		bnez	a5,.L22
 414              	.LVL43:
 415              	.LBB97:
 416              	.LBB98:
 417              	.LBB99:
 418              		.loc 2 27 45
 419 028c 97070000 		lla	a5,_ZZN9Scheduler3getEvE8instance
 419      93870700 
 420 0294 23B00700 		sd	zero,0(a5)
 421 0298 23B40700 		sd	zero,8(a5)
 422              	.LVL44:
 423              	.LBE99:
 424              	.LBE98:
 425              	.LBE97:
  10:src/../h/scheduler.h ****         return &instance;
 426              		.loc 2 10 26
 427 029c 93071000 		li	a5,1
 428 02a0 17070000 		sb	a5,_ZGVZN9Scheduler3getEvE8instance,a4
 428      2300F700 
 429              	.L22:
  11:src/../h/scheduler.h ****     }
 430              		.loc 2 11 9 is_stmt 1
 431              	.LBE96:
 432              	.LBE95:
 433              		.loc 1 139 27 is_stmt 0
 434 02a8 97070000 		ld	a5,_ZZN9Scheduler3getEvE8instance
 434      83B70700 
 435              	.LBB100:
 436              	.LBB101:
  10:src/../h/scheduler.h ****         return &instance;
 437              		.loc 2 10 9 is_stmt 1
  10:src/../h/scheduler.h ****         return &instance;
GAS LISTING /tmp/ccxd8uy7.s 			page 14


 438              		.loc 2 10 26 is_stmt 0
 439 02b0 17070000 		lbu	a4,_ZGVZN9Scheduler3getEvE8instance
 439      03470700 
 440 02b8 631C0700 		bnez	a4,.L23
 441              	.LVL45:
 442              	.LBB102:
 443              	.LBB103:
 444              	.LBB104:
 445              		.loc 2 27 45
 446 02bc 17070000 		sd	zero,_ZZN9Scheduler3getEvE8instance+8,a4
 446      23300700 
 447              	.LVL46:
 448              	.LBE104:
 449              	.LBE103:
 450              	.LBE102:
  10:src/../h/scheduler.h ****         return &instance;
 451              		.loc 2 10 26
 452 02c4 13071000 		li	a4,1
 453 02c8 97060000 		sb	a4,_ZGVZN9Scheduler3getEvE8instance,a3
 453      2380E600 
 454              	.L23:
  11:src/../h/scheduler.h ****     }
 455              		.loc 2 11 9 is_stmt 1
 456              	.LBE101:
 457              	.LBE100:
 458              		.loc 1 139 34 is_stmt 0
 459 02d0 83B70703 		ld	a5,48(a5)
 460              		.loc 1 139 18
 461 02d4 17070000 		sd	a5,_ZZN9Scheduler3getEvE8instance,a4
 461      2330F700 
 140:src/scheduler.cpp **** 
 141:src/scheduler.cpp ****     return ret;
 462              		.loc 1 141 5 is_stmt 1
 463              	.L19:
 142:src/scheduler.cpp **** }
 464              		.loc 1 142 1 is_stmt 0
 465 02dc 03348100 		ld	s0,8(sp)
 466              		.cfi_restore 8
 467              		.cfi_def_cfa 2, 16
 468 02e0 13010101 		addi	sp,sp,16
 469              		.cfi_def_cfa_offset 0
 470 02e4 67800000 		jr	ra
 471              		.cfi_endproc
 472              	.LFE13:
 474              		.section	.rodata.str1.8
 475 007f 00       		.align	3
 476              	.LC6:
 477 0080 3D3D3D20 		.string	"=== NO MORE USER THREADS EXIST. RETURNING TO KERNEL THREAD"
 477      4E4F204D 
 477      4F524520 
 477      55534552 
 477      20544852 
 478              		.text
 479              		.align	2
 480              		.globl	_ZN9Scheduler14dispatchToNextEv
 482              	_ZN9Scheduler14dispatchToNextEv:
 483              	.LFB11:
GAS LISTING /tmp/ccxd8uy7.s 			page 15


  68:src/scheduler.cpp ****     assert(&(IThread::getPRunning()->sp) == IThread::pRunningSp);
 484              		.loc 1 68 1 is_stmt 1
 485              		.cfi_startproc
 486 02e8 130101FE 		addi	sp,sp,-32
 487              		.cfi_def_cfa_offset 32
 488 02ec 233C1100 		sd	ra,24(sp)
 489 02f0 23388100 		sd	s0,16(sp)
 490 02f4 23349100 		sd	s1,8(sp)
 491 02f8 23302101 		sd	s2,0(sp)
 492              		.cfi_offset 1, -8
 493              		.cfi_offset 8, -16
 494              		.cfi_offset 9, -24
 495              		.cfi_offset 18, -32
 496 02fc 13040102 		addi	s0,sp,32
 497              		.cfi_def_cfa 8, 0
  69:src/scheduler.cpp **** 
 498              		.loc 1 69 5
 499 0300 97000000 		call	_ZN7IThread11getPRunningEv@plt
 499      E7800000 
 500              	.LVL47:
 501 0308 13050505 		addi	a0,a0,80
 502 030c 97070000 		la	a5,_ZN7IThread10pRunningSpE
 502      83B70700 
 503 0314 83B70700 		ld	a5,0(a5)
 504              	.LVL48:
 505              	.LBB120:
 506              	.LBB121:
  20:src/../h/../h/../h/my_console.h ****         return;
 507              		.loc 3 20 5
 508 0318 6390A70A 		bne	a5,a0,.L37
  21:src/../h/../h/../h/my_console.h **** 
 509              		.loc 3 21 9
 510              	.LVL49:
 511              	.LBE121:
 512              	.LBE120:
  71:src/scheduler.cpp ****     IThread *pNew = Scheduler::getNext();
 513              		.loc 1 71 5
  71:src/scheduler.cpp ****     IThread *pNew = Scheduler::getNext();
 514              		.loc 1 71 41 is_stmt 0
 515 031c 97000000 		call	_ZN7IThread11getPRunningEv@plt
 515      E7800000 
 516              	.LVL50:
 517 0324 13090500 		mv	s2,a0
 518              	.LVL51:
  72:src/scheduler.cpp **** 
 519              		.loc 1 72 5 is_stmt 1
  72:src/scheduler.cpp **** 
 520              		.loc 1 72 39 is_stmt 0
 521 0328 97000000 		call	_ZN9Scheduler7getNextEv
 521      E7800000 
 522              	.LVL52:
 523 0330 93040500 		mv	s1,a0
 524              	.LVL53:
  74:src/scheduler.cpp ****     assert(pNew != &kernelThread);
 525              		.loc 1 74 5 is_stmt 1
  75:src/scheduler.cpp **** 
 526              		.loc 1 75 5
GAS LISTING /tmp/ccxd8uy7.s 			page 16


 527 0334 97070000 		la	a5,kernelThread
 527      83B70700 
 528              	.LVL54:
 529              	.LBB123:
 530              	.LBB124:
  20:src/../h/../h/../h/my_console.h ****         return;
 531              		.loc 3 20 5
 532 033c 630CF50C 		beq	a0,a5,.L38
  21:src/../h/../h/../h/my_console.h **** 
 533              		.loc 3 21 9
 534              	.LVL55:
 535              	.LBE124:
 536              	.LBE123:
  77:src/scheduler.cpp **** 
 537              		.loc 1 77 5
 538 0340 83270500 		lw	a5,0(a0)
 539 0344 9387E7FF 		addi	a5,a5,-2
 540 0348 13B71700 		seqz	a4,a5
 541              	.LVL56:
 542              	.LBB126:
 543              	.LBB127:
  20:src/../h/../h/../h/my_console.h ****         return;
 544              		.loc 3 20 5
 545 034c 63920712 		bnez	a5,.L39
  21:src/../h/../h/../h/my_console.h **** 
 546              		.loc 3 21 9
 547              	.LVL57:
 548              	.LBE127:
 549              	.LBE126:
  79:src/scheduler.cpp ****     bool existSleeper = (Scheduler::get()->pSleepHead != nullptr);
 550              		.loc 1 79 5
  80:src/scheduler.cpp **** 
 551              		.loc 1 80 5
 552              	.LBB129:
 553              	.LBB130:
  10:src/../h/scheduler.h ****         return &instance;
 554              		.loc 2 10 9
  10:src/../h/scheduler.h ****         return &instance;
 555              		.loc 2 10 26 is_stmt 0
 556 0350 97070000 		lbu	a5,_ZGVZN9Scheduler3getEvE8instance
 556      83C70700 
 557 0358 63900702 		bnez	a5,.L29
 558              	.LVL58:
 559              	.LBB131:
 560              	.LBB132:
 561              	.LBB133:
 562              		.loc 2 27 45
 563 035c 97070000 		lla	a5,_ZZN9Scheduler3getEvE8instance
 563      93870700 
 564 0364 23B00700 		sd	zero,0(a5)
 565 0368 23B40700 		sd	zero,8(a5)
 566              	.LVL59:
 567              	.LBE133:
 568              	.LBE132:
 569              	.LBE131:
  10:src/../h/scheduler.h ****         return &instance;
 570              		.loc 2 10 26
GAS LISTING /tmp/ccxd8uy7.s 			page 17


 571 036c 93071000 		li	a5,1
 572 0370 97060000 		sb	a5,_ZGVZN9Scheduler3getEvE8instance,a3
 572      2380F600 
 573              	.L29:
  11:src/../h/scheduler.h ****     }
 574              		.loc 2 11 9 is_stmt 1
 575              	.LBE130:
 576              	.LBE129:
  80:src/scheduler.cpp **** 
 577              		.loc 1 80 44 is_stmt 0
 578 0378 97070000 		ld	a5,_ZZN9Scheduler3getEvE8instance+8
 578      83B70700 
 579              	.LVL60:
  82:src/scheduler.cpp ****     {
 580              		.loc 1 82 5 is_stmt 1
 581 0380 63860414 		beqz	s1,.L40
 582              	.L30:
  94:src/scheduler.cpp ****     {
 583              		.loc 1 94 10
 584 0384 638C041E 		beqz	s1,.L41
 585              	.LVL61:
 586              	.L32:
 101:src/scheduler.cpp ****     pNew->state = IThread::RUNNING;
 587              		.loc 1 101 5
 101:src/scheduler.cpp ****     pNew->state = IThread::RUNNING;
 588              		.loc 1 101 17 is_stmt 0
 589 0388 93072000 		li	a5,2
 590 038c 2320F900 		sw	a5,0(s2)
 102:src/scheduler.cpp **** 
 591              		.loc 1 102 5 is_stmt 1
 102:src/scheduler.cpp **** 
 592              		.loc 1 102 17 is_stmt 0
 593 0390 23A00400 		sw	zero,0(s1)
 104:src/scheduler.cpp **** }
 594              		.loc 1 104 5 is_stmt 1
 104:src/scheduler.cpp **** }
 595              		.loc 1 104 19 is_stmt 0
 596 0394 13050900 		mv	a0,s2
 597 0398 97000000 		call	_ZN9Scheduler3putEP7IThread
 597      E7800000 
 598              	.LVL62:
 105:src/scheduler.cpp **** 
 599              		.loc 1 105 1
 600 03a0 83308101 		ld	ra,24(sp)
 601              		.cfi_remember_state
 602              		.cfi_restore 1
 603 03a4 03340101 		ld	s0,16(sp)
 604              		.cfi_restore 8
 605              		.cfi_def_cfa 2, 32
 606 03a8 83348100 		ld	s1,8(sp)
 607              		.cfi_restore 9
 608              	.LVL63:
 609 03ac 03390100 		ld	s2,0(sp)
 610              		.cfi_restore 18
 611              	.LVL64:
 612 03b0 13010102 		addi	sp,sp,32
 613              		.cfi_def_cfa_offset 0
GAS LISTING /tmp/ccxd8uy7.s 			page 18


 614 03b4 67800000 		jr	ra
 615              	.LVL65:
 616              	.L37:
 617              		.cfi_restore_state
 618              	.LBB134:
 619              	.LBB122:
  23:src/../h/../h/../h/my_console.h ****     putString(file);
 620              		.loc 3 23 5 is_stmt 1
  23:src/../h/../h/../h/my_console.h ****     putString(file);
 621              		.loc 3 23 14 is_stmt 0
 622 03b8 17050000 		lla	a0,.LC2
 622      13050500 
 623              	.LVL66:
 624 03c0 97000000 		call	_Z9putStringPKc@plt
 624      E7800000 
 625              	.LVL67:
  24:src/../h/../h/../h/my_console.h ****     putString("    line: ");
 626              		.loc 3 24 5 is_stmt 1
  24:src/../h/../h/../h/my_console.h ****     putString("    line: ");
 627              		.loc 3 24 14 is_stmt 0
 628 03c8 17050000 		lla	a0,.LC3
 628      13050500 
 629 03d0 97000000 		call	_Z9putStringPKc@plt
 629      E7800000 
 630              	.LVL68:
  25:src/../h/../h/../h/my_console.h ****     putInt(line);
 631              		.loc 3 25 5 is_stmt 1
  25:src/../h/../h/../h/my_console.h ****     putInt(line);
 632              		.loc 3 25 14 is_stmt 0
 633 03d8 17050000 		lla	a0,.LC4
 633      13050500 
 634 03e0 97000000 		call	_Z9putStringPKc@plt
 634      E7800000 
 635              	.LVL69:
  26:src/../h/../h/../h/my_console.h ****     putString("   ===========================");
 636              		.loc 3 26 5 is_stmt 1
  26:src/../h/../h/../h/my_console.h ****     putString("   ===========================");
 637              		.loc 3 26 11 is_stmt 0
 638 03e8 13055004 		li	a0,69
 639 03ec 97000000 		call	_Z6putInti@plt
 639      E7800000 
 640              	.LVL70:
  27:src/../h/../h/../h/my_console.h ****     putNewline();
 641              		.loc 3 27 5 is_stmt 1
  27:src/../h/../h/../h/my_console.h ****     putNewline();
 642              		.loc 3 27 14 is_stmt 0
 643 03f4 17050000 		lla	a0,.LC5
 643      13050500 
 644 03fc 97000000 		call	_Z9putStringPKc@plt
 644      E7800000 
 645              	.LVL71:
  28:src/../h/../h/../h/my_console.h **** 
 646              		.loc 3 28 5 is_stmt 1
  28:src/../h/../h/../h/my_console.h **** 
 647              		.loc 3 28 15 is_stmt 0
 648 0404 97000000 		call	_Z10putNewlinev@plt
 648      E7800000 
GAS LISTING /tmp/ccxd8uy7.s 			page 19


 649              	.LVL72:
 650              		.loc 3 30 5 is_stmt 1
 651              		.loc 3 30 15 is_stmt 0
 652 040c 97000000 		call	_Z10stopKernelv@plt
 652      E7800000 
 653              	.LVL73:
 654              	.L38:
 655              	.LBE122:
 656              	.LBE134:
 657              	.LBB135:
 658              	.LBB125:
  23:src/../h/../h/../h/my_console.h ****     putString(file);
 659              		.loc 3 23 5 is_stmt 1
  23:src/../h/../h/../h/my_console.h ****     putString(file);
 660              		.loc 3 23 14 is_stmt 0
 661 0414 17050000 		lla	a0,.LC2
 661      13050500 
 662 041c 97000000 		call	_Z9putStringPKc@plt
 662      E7800000 
 663              	.LVL74:
  24:src/../h/../h/../h/my_console.h ****     putString("    line: ");
 664              		.loc 3 24 5 is_stmt 1
  24:src/../h/../h/../h/my_console.h ****     putString("    line: ");
 665              		.loc 3 24 14 is_stmt 0
 666 0424 17050000 		lla	a0,.LC3
 666      13050500 
 667 042c 97000000 		call	_Z9putStringPKc@plt
 667      E7800000 
 668              	.LVL75:
  25:src/../h/../h/../h/my_console.h ****     putInt(line);
 669              		.loc 3 25 5 is_stmt 1
  25:src/../h/../h/../h/my_console.h ****     putInt(line);
 670              		.loc 3 25 14 is_stmt 0
 671 0434 17050000 		lla	a0,.LC4
 671      13050500 
 672 043c 97000000 		call	_Z9putStringPKc@plt
 672      E7800000 
 673              	.LVL76:
  26:src/../h/../h/../h/my_console.h ****     putString("   ===========================");
 674              		.loc 3 26 5 is_stmt 1
  26:src/../h/../h/../h/my_console.h ****     putString("   ===========================");
 675              		.loc 3 26 11 is_stmt 0
 676 0444 1305B004 		li	a0,75
 677 0448 97000000 		call	_Z6putInti@plt
 677      E7800000 
 678              	.LVL77:
  27:src/../h/../h/../h/my_console.h ****     putNewline();
 679              		.loc 3 27 5 is_stmt 1
  27:src/../h/../h/../h/my_console.h ****     putNewline();
 680              		.loc 3 27 14 is_stmt 0
 681 0450 17050000 		lla	a0,.LC5
 681      13050500 
 682 0458 97000000 		call	_Z9putStringPKc@plt
 682      E7800000 
 683              	.LVL78:
  28:src/../h/../h/../h/my_console.h **** 
 684              		.loc 3 28 5 is_stmt 1
GAS LISTING /tmp/ccxd8uy7.s 			page 20


  28:src/../h/../h/../h/my_console.h **** 
 685              		.loc 3 28 15 is_stmt 0
 686 0460 97000000 		call	_Z10putNewlinev@plt
 686      E7800000 
 687              	.LVL79:
 688              		.loc 3 30 5 is_stmt 1
 689              		.loc 3 30 15 is_stmt 0
 690 0468 97000000 		call	_Z10stopKernelv@plt
 690      E7800000 
 691              	.LVL80:
 692              	.L39:
 693              	.LBE125:
 694              	.LBE135:
 695              	.LBB136:
 696              	.LBB128:
  23:src/../h/../h/../h/my_console.h ****     putString(file);
 697              		.loc 3 23 5 is_stmt 1
  23:src/../h/../h/../h/my_console.h ****     putString(file);
 698              		.loc 3 23 14 is_stmt 0
 699 0470 17050000 		lla	a0,.LC2
 699      13050500 
 700 0478 97000000 		call	_Z9putStringPKc@plt
 700      E7800000 
 701              	.LVL81:
  24:src/../h/../h/../h/my_console.h ****     putString("    line: ");
 702              		.loc 3 24 5 is_stmt 1
  24:src/../h/../h/../h/my_console.h ****     putString("    line: ");
 703              		.loc 3 24 14 is_stmt 0
 704 0480 17050000 		lla	a0,.LC3
 704      13050500 
 705 0488 97000000 		call	_Z9putStringPKc@plt
 705      E7800000 
 706              	.LVL82:
  25:src/../h/../h/../h/my_console.h ****     putInt(line);
 707              		.loc 3 25 5 is_stmt 1
  25:src/../h/../h/../h/my_console.h ****     putInt(line);
 708              		.loc 3 25 14 is_stmt 0
 709 0490 17050000 		lla	a0,.LC4
 709      13050500 
 710 0498 97000000 		call	_Z9putStringPKc@plt
 710      E7800000 
 711              	.LVL83:
  26:src/../h/../h/../h/my_console.h ****     putString("   ===========================");
 712              		.loc 3 26 5 is_stmt 1
  26:src/../h/../h/../h/my_console.h ****     putString("   ===========================");
 713              		.loc 3 26 11 is_stmt 0
 714 04a0 1305D004 		li	a0,77
 715 04a4 97000000 		call	_Z6putInti@plt
 715      E7800000 
 716              	.LVL84:
  27:src/../h/../h/../h/my_console.h ****     putNewline();
 717              		.loc 3 27 5 is_stmt 1
  27:src/../h/../h/../h/my_console.h ****     putNewline();
 718              		.loc 3 27 14 is_stmt 0
 719 04ac 17050000 		lla	a0,.LC5
 719      13050500 
 720 04b4 97000000 		call	_Z9putStringPKc@plt
GAS LISTING /tmp/ccxd8uy7.s 			page 21


 720      E7800000 
 721              	.LVL85:
  28:src/../h/../h/../h/my_console.h **** 
 722              		.loc 3 28 5 is_stmt 1
  28:src/../h/../h/../h/my_console.h **** 
 723              		.loc 3 28 15 is_stmt 0
 724 04bc 97000000 		call	_Z10putNewlinev@plt
 724      E7800000 
 725              	.LVL86:
 726              		.loc 3 30 5 is_stmt 1
 727              		.loc 3 30 15 is_stmt 0
 728 04c4 97000000 		call	_Z10stopKernelv@plt
 728      E7800000 
 729              	.LVL87:
 730              	.L40:
 731              	.LBE128:
 732              	.LBE136:
  82:src/scheduler.cpp ****     {
 733              		.loc 1 82 34 discriminator 1
 734 04cc E39C07EA 		bnez	a5,.L30
  84:src/scheduler.cpp **** 
 735              		.loc 1 84 9 is_stmt 1
 736              	.LVL88:
  86:src/scheduler.cpp ****         putNewline();
 737              		.loc 1 86 9
  86:src/scheduler.cpp ****         putNewline();
 738              		.loc 1 86 18 is_stmt 0
 739 04d0 17050000 		lla	a0,.LC6
 739      13050500 
 740 04d8 97000000 		call	_Z9putStringPKc@plt
 740      E7800000 
 741              	.LVL89:
  87:src/scheduler.cpp **** 
 742              		.loc 1 87 9 is_stmt 1
  87:src/scheduler.cpp **** 
 743              		.loc 1 87 19 is_stmt 0
 744 04e0 97000000 		call	_Z10putNewlinev@plt
 744      E7800000 
 745              	.LVL90:
  89:src/scheduler.cpp ****         IThread::pAllThreads[0]->state = IThread::READY;
 746              		.loc 1 89 9 is_stmt 1
 747 04e8 97070000 		la	a5,_ZN7IThread11pAllThreadsE
 747      83B70700 
 748 04f0 03B70700 		ld	a4,0(a5)
 749 04f4 97070000 		la	a5,kernelThread
 749      83B70700 
 750              	.LVL91:
 751              	.LBB137:
 752              	.LBB138:
  20:src/../h/../h/../h/my_console.h ****         return;
 753              		.loc 3 20 5
 754 04fc 6312F702 		bne	a4,a5,.L42
  21:src/../h/../h/../h/my_console.h **** 
 755              		.loc 3 21 9
 756              	.LVL92:
 757              	.LBE138:
 758              	.LBE137:
GAS LISTING /tmp/ccxd8uy7.s 			page 22


  90:src/scheduler.cpp **** 
 759              		.loc 1 90 9
  90:src/scheduler.cpp **** 
 760              		.loc 1 90 31 is_stmt 0
 761 0500 97070000 		la	a5,_ZN7IThread11pAllThreadsE
 761      83B70700 
 762 0508 83B70700 		ld	a5,0(a5)
  90:src/scheduler.cpp **** 
 763              		.loc 1 90 40
 764 050c 13072000 		li	a4,2
 765 0510 23A0E700 		sw	a4,0(a5)
  84:src/scheduler.cpp **** 
 766              		.loc 1 84 14
 767 0514 97040000 		la	s1,kernelThread
 767      83B40400 
 768              	.LVL93:
  90:src/scheduler.cpp **** 
 769              		.loc 1 90 40
 770 051c 6FF0DFE6 		j	.L32
 771              	.LVL94:
 772              	.L42:
 773              	.LBB140:
 774              	.LBB139:
  23:src/../h/../h/../h/my_console.h ****     putString(file);
 775              		.loc 3 23 5 is_stmt 1
  23:src/../h/../h/../h/my_console.h ****     putString(file);
 776              		.loc 3 23 14 is_stmt 0
 777 0520 17050000 		lla	a0,.LC2
 777      13050500 
 778 0528 97000000 		call	_Z9putStringPKc@plt
 778      E7800000 
 779              	.LVL95:
  24:src/../h/../h/../h/my_console.h ****     putString("    line: ");
 780              		.loc 3 24 5 is_stmt 1
  24:src/../h/../h/../h/my_console.h ****     putString("    line: ");
 781              		.loc 3 24 14 is_stmt 0
 782 0530 17050000 		lla	a0,.LC3
 782      13050500 
 783 0538 97000000 		call	_Z9putStringPKc@plt
 783      E7800000 
 784              	.LVL96:
  25:src/../h/../h/../h/my_console.h ****     putInt(line);
 785              		.loc 3 25 5 is_stmt 1
  25:src/../h/../h/../h/my_console.h ****     putInt(line);
 786              		.loc 3 25 14 is_stmt 0
 787 0540 17050000 		lla	a0,.LC4
 787      13050500 
 788 0548 97000000 		call	_Z9putStringPKc@plt
 788      E7800000 
 789              	.LVL97:
  26:src/../h/../h/../h/my_console.h ****     putString("   ===========================");
 790              		.loc 3 26 5 is_stmt 1
  26:src/../h/../h/../h/my_console.h ****     putString("   ===========================");
 791              		.loc 3 26 11 is_stmt 0
 792 0550 13059005 		li	a0,89
 793 0554 97000000 		call	_Z6putInti@plt
 793      E7800000 
GAS LISTING /tmp/ccxd8uy7.s 			page 23


 794              	.LVL98:
  27:src/../h/../h/../h/my_console.h ****     putNewline();
 795              		.loc 3 27 5 is_stmt 1
  27:src/../h/../h/../h/my_console.h ****     putNewline();
 796              		.loc 3 27 14 is_stmt 0
 797 055c 17050000 		lla	a0,.LC5
 797      13050500 
 798 0564 97000000 		call	_Z9putStringPKc@plt
 798      E7800000 
 799              	.LVL99:
  28:src/../h/../h/../h/my_console.h **** 
 800              		.loc 3 28 5 is_stmt 1
  28:src/../h/../h/../h/my_console.h **** 
 801              		.loc 3 28 15 is_stmt 0
 802 056c 97000000 		call	_Z10putNewlinev@plt
 802      E7800000 
 803              	.LVL100:
 804              		.loc 3 30 5 is_stmt 1
 805              		.loc 3 30 15 is_stmt 0
 806 0574 97000000 		call	_Z10stopKernelv@plt
 806      E7800000 
 807              	.LVL101:
 808              	.L41:
 809              	.LBE139:
 810              	.LBE140:
  94:src/scheduler.cpp ****     {
 811              		.loc 1 94 39 discriminator 1
 812 057c E38607E0 		beqz	a5,.L32
  96:src/scheduler.cpp **** 
 813              		.loc 1 96 9 is_stmt 1 discriminator 1
 814 0580 63800702 		beqz	a5,.L43
 815              	.L33:
 816              	.LVL102:
 817              	.LBB141:
 818              	.LBB142:
  20:src/../h/../h/../h/my_console.h ****         return;
 819              		.loc 3 20 5 discriminator 6
 820 0584 63020702 		beqz	a4,.L44
  21:src/../h/../h/../h/my_console.h **** 
 821              		.loc 3 21 9 discriminator 6
 822              	.LVL103:
 823              	.LBE142:
 824              	.LBE141:
  98:src/scheduler.cpp ****     }
 825              		.loc 1 98 9 discriminator 6
  98:src/scheduler.cpp ****     }
 826              		.loc 1 98 23 is_stmt 0 discriminator 6
 827 0588 97070000 		la	a5,_ZN7IThread11pAllThreadsE
 827      83B70700 
 828              	.LVL104:
 829 0590 03B58700 		ld	a0,8(a5)
 830 0594 97000000 		call	_ZN9Scheduler3putEP7IThread
 830      E7800000 
 831              	.LVL105:
 832 059c 6FF0DFDE 		j	.L32
 833              	.LVL106:
 834              	.L43:
GAS LISTING /tmp/ccxd8uy7.s 			page 24


  96:src/scheduler.cpp **** 
 835              		.loc 1 96 9
 836 05a0 13070000 		li	a4,0
 837 05a4 6FF01FFE 		j	.L33
 838              	.LVL107:
 839              	.L44:
 840              	.LBB144:
 841              	.LBB143:
  23:src/../h/../h/../h/my_console.h ****     putString(file);
 842              		.loc 3 23 5 is_stmt 1
  23:src/../h/../h/../h/my_console.h ****     putString(file);
 843              		.loc 3 23 14 is_stmt 0
 844 05a8 17050000 		lla	a0,.LC2
 844      13050500 
 845 05b0 97000000 		call	_Z9putStringPKc@plt
 845      E7800000 
 846              	.LVL108:
  24:src/../h/../h/../h/my_console.h ****     putString("    line: ");
 847              		.loc 3 24 5 is_stmt 1
  24:src/../h/../h/../h/my_console.h ****     putString("    line: ");
 848              		.loc 3 24 14 is_stmt 0
 849 05b8 17050000 		lla	a0,.LC3
 849      13050500 
 850 05c0 97000000 		call	_Z9putStringPKc@plt
 850      E7800000 
 851              	.LVL109:
  25:src/../h/../h/../h/my_console.h ****     putInt(line);
 852              		.loc 3 25 5 is_stmt 1
  25:src/../h/../h/../h/my_console.h ****     putInt(line);
 853              		.loc 3 25 14 is_stmt 0
 854 05c8 17050000 		lla	a0,.LC4
 854      13050500 
 855 05d0 97000000 		call	_Z9putStringPKc@plt
 855      E7800000 
 856              	.LVL110:
  26:src/../h/../h/../h/my_console.h ****     putString("   ===========================");
 857              		.loc 3 26 5 is_stmt 1
  26:src/../h/../h/../h/my_console.h ****     putString("   ===========================");
 858              		.loc 3 26 11 is_stmt 0
 859 05d8 13050006 		li	a0,96
 860 05dc 97000000 		call	_Z6putInti@plt
 860      E7800000 
 861              	.LVL111:
  27:src/../h/../h/../h/my_console.h ****     putNewline();
 862              		.loc 3 27 5 is_stmt 1
  27:src/../h/../h/../h/my_console.h ****     putNewline();
 863              		.loc 3 27 14 is_stmt 0
 864 05e4 17050000 		lla	a0,.LC5
 864      13050500 
 865 05ec 97000000 		call	_Z9putStringPKc@plt
 865      E7800000 
 866              	.LVL112:
  28:src/../h/../h/../h/my_console.h **** 
 867              		.loc 3 28 5 is_stmt 1
  28:src/../h/../h/../h/my_console.h **** 
 868              		.loc 3 28 15 is_stmt 0
 869 05f4 97000000 		call	_Z10putNewlinev@plt
GAS LISTING /tmp/ccxd8uy7.s 			page 25


 869      E7800000 
 870              	.LVL113:
 871              		.loc 3 30 5 is_stmt 1
 872              		.loc 3 30 15 is_stmt 0
 873 05fc 97000000 		call	_Z10stopKernelv@plt
 873      E7800000 
 874              	.LVL114:
 875              	.LBE143:
 876              	.LBE144:
 877              		.cfi_endproc
 878              	.LFE11:
 880              		.align	2
 881              		.globl	_ZN9Scheduler5sleepEm
 883              	_ZN9Scheduler5sleepEm:
 884              	.LFB8:
   4:src/scheduler.cpp ****     assert(IThread::getPRunning()->state == IThread::RUNNING);
 885              		.loc 1 4 1 is_stmt 1
 886              		.cfi_startproc
 887              	.LVL115:
 888 0604 130101FE 		addi	sp,sp,-32
 889              		.cfi_def_cfa_offset 32
 890 0608 233C1100 		sd	ra,24(sp)
 891 060c 23388100 		sd	s0,16(sp)
 892 0610 23349100 		sd	s1,8(sp)
 893 0614 23302101 		sd	s2,0(sp)
 894              		.cfi_offset 1, -8
 895              		.cfi_offset 8, -16
 896              		.cfi_offset 9, -24
 897              		.cfi_offset 18, -32
 898 0618 13040102 		addi	s0,sp,32
 899              		.cfi_def_cfa 8, 0
 900 061c 93040500 		mv	s1,a0
 901 0620 13890500 		mv	s2,a1
   5:src/scheduler.cpp ****     assert(IThread::getPRunning()->done == false);
 902              		.loc 1 5 5
 903 0624 97000000 		call	_ZN7IThread11getPRunningEv@plt
 903      E7800000 
 904              	.LVL116:
 905 062c 83270500 		lw	a5,0(a0)
 906              	.LVL117:
 907              	.LBB149:
 908              	.LBB150:
  20:src/../h/../h/../h/my_console.h ****         return;
 909              		.loc 3 20 5
 910 0630 639E0706 		bnez	a5,.L51
  21:src/../h/../h/../h/my_console.h **** 
 911              		.loc 3 21 9
 912              	.LVL118:
 913              	.LBE150:
 914              	.LBE149:
   6:src/scheduler.cpp **** 
 915              		.loc 1 6 5
 916 0634 97000000 		call	_ZN7IThread11getPRunningEv@plt
 916      E7800000 
 917              	.LVL119:
 918 063c 83470504 		lbu	a5,64(a0)
 919 0640 93C71700 		xori	a5,a5,1
GAS LISTING /tmp/ccxd8uy7.s 			page 26


 920              	.LVL120:
 921              	.LBB152:
 922              	.LBB153:
  20:src/../h/../h/../h/my_console.h ****         return;
 923              		.loc 3 20 5
 924 0644 6382070C 		beqz	a5,.L52
  21:src/../h/../h/../h/my_console.h **** 
 925              		.loc 3 21 9
 926              	.LVL121:
 927              	.LBE153:
 928              	.LBE152:
   8:src/scheduler.cpp ****     IThread::getPRunning()->remainingSleep = time;
 929              		.loc 1 8 5
   8:src/scheduler.cpp ****     IThread::getPRunning()->remainingSleep = time;
 930              		.loc 1 8 25 is_stmt 0
 931 0648 97000000 		call	_ZN7IThread11getPRunningEv@plt
 931      E7800000 
 932              	.LVL122:
   8:src/scheduler.cpp ****     IThread::getPRunning()->remainingSleep = time;
 933              		.loc 1 8 35
 934 0650 93071000 		li	a5,1
 935 0654 2320F500 		sw	a5,0(a0)
   9:src/scheduler.cpp **** 
 936              		.loc 1 9 5 is_stmt 1
   9:src/scheduler.cpp **** 
 937              		.loc 1 9 25 is_stmt 0
 938 0658 97000000 		call	_ZN7IThread11getPRunningEv@plt
 938      E7800000 
 939              	.LVL123:
   9:src/scheduler.cpp **** 
 940              		.loc 1 9 44
 941 0660 23342505 		sd	s2,72(a0)
  11:src/scheduler.cpp ****     {
 942              		.loc 1 11 5 is_stmt 1
  11:src/scheduler.cpp ****     {
 943              		.loc 1 11 8 is_stmt 0
 944 0664 83B78400 		ld	a5,8(s1)
  11:src/scheduler.cpp ****     {
 945              		.loc 1 11 5
 946 0668 638E070E 		beqz	a5,.L53
  18:src/scheduler.cpp ****         pSleepHead = IThread::getPRunning();
 947              		.loc 1 18 9 is_stmt 1
  18:src/scheduler.cpp ****         pSleepHead = IThread::getPRunning();
 948              		.loc 1 18 29 is_stmt 0
 949 066c 97000000 		call	_ZN7IThread11getPRunningEv@plt
 949      E7800000 
 950              	.LVL124:
  18:src/scheduler.cpp ****         pSleepHead = IThread::getPRunning();
 951              		.loc 1 18 41
 952 0674 83B78400 		ld	a5,8(s1)
  18:src/scheduler.cpp ****         pSleepHead = IThread::getPRunning();
 953              		.loc 1 18 39
 954 0678 2338F502 		sd	a5,48(a0)
  19:src/scheduler.cpp ****     }
 955              		.loc 1 19 9 is_stmt 1
  19:src/scheduler.cpp ****     }
 956              		.loc 1 19 42 is_stmt 0
GAS LISTING /tmp/ccxd8uy7.s 			page 27


 957 067c 97000000 		call	_ZN7IThread11getPRunningEv@plt
 957      E7800000 
 958              	.LVL125:
  19:src/scheduler.cpp ****     }
 959              		.loc 1 19 20
 960 0684 23B4A400 		sd	a0,8(s1)
 961              	.L49:
  22:src/scheduler.cpp **** 
 962              		.loc 1 22 5 is_stmt 1
  22:src/scheduler.cpp **** 
 963              		.loc 1 22 19 is_stmt 0
 964 0688 97000000 		call	_ZN9Scheduler14dispatchToNextEv
 964      E7800000 
 965              	.LVL126:
  24:src/scheduler.cpp **** }
 966              		.loc 1 24 5 is_stmt 1
  25:src/scheduler.cpp **** 
 967              		.loc 1 25 1 is_stmt 0
 968 0690 13050000 		li	a0,0
 969 0694 83308101 		ld	ra,24(sp)
 970              		.cfi_remember_state
 971              		.cfi_restore 1
 972 0698 03340101 		ld	s0,16(sp)
 973              		.cfi_restore 8
 974              		.cfi_def_cfa 2, 32
 975 069c 83348100 		ld	s1,8(sp)
 976              		.cfi_restore 9
 977              	.LVL127:
 978 06a0 03390100 		ld	s2,0(sp)
 979              		.cfi_restore 18
 980              	.LVL128:
 981 06a4 13010102 		addi	sp,sp,32
 982              		.cfi_def_cfa_offset 0
 983 06a8 67800000 		jr	ra
 984              	.LVL129:
 985              	.L51:
 986              		.cfi_restore_state
 987              	.LBB155:
 988              	.LBB151:
  23:src/../h/../h/../h/my_console.h ****     putString(file);
 989              		.loc 3 23 5 is_stmt 1
  23:src/../h/../h/../h/my_console.h ****     putString(file);
 990              		.loc 3 23 14 is_stmt 0
 991 06ac 17050000 		lla	a0,.LC2
 991      13050500 
 992 06b4 97000000 		call	_Z9putStringPKc@plt
 992      E7800000 
 993              	.LVL130:
  24:src/../h/../h/../h/my_console.h ****     putString("    line: ");
 994              		.loc 3 24 5 is_stmt 1
  24:src/../h/../h/../h/my_console.h ****     putString("    line: ");
 995              		.loc 3 24 14 is_stmt 0
 996 06bc 17050000 		lla	a0,.LC3
 996      13050500 
 997 06c4 97000000 		call	_Z9putStringPKc@plt
 997      E7800000 
 998              	.LVL131:
GAS LISTING /tmp/ccxd8uy7.s 			page 28


  25:src/../h/../h/../h/my_console.h ****     putInt(line);
 999              		.loc 3 25 5 is_stmt 1
  25:src/../h/../h/../h/my_console.h ****     putInt(line);
 1000              		.loc 3 25 14 is_stmt 0
 1001 06cc 17050000 		lla	a0,.LC4
 1001      13050500 
 1002 06d4 97000000 		call	_Z9putStringPKc@plt
 1002      E7800000 
 1003              	.LVL132:
  26:src/../h/../h/../h/my_console.h ****     putString("   ===========================");
 1004              		.loc 3 26 5 is_stmt 1
  26:src/../h/../h/../h/my_console.h ****     putString("   ===========================");
 1005              		.loc 3 26 11 is_stmt 0
 1006 06dc 13055000 		li	a0,5
 1007 06e0 97000000 		call	_Z6putInti@plt
 1007      E7800000 
 1008              	.LVL133:
  27:src/../h/../h/../h/my_console.h ****     putNewline();
 1009              		.loc 3 27 5 is_stmt 1
  27:src/../h/../h/../h/my_console.h ****     putNewline();
 1010              		.loc 3 27 14 is_stmt 0
 1011 06e8 17050000 		lla	a0,.LC5
 1011      13050500 
 1012 06f0 97000000 		call	_Z9putStringPKc@plt
 1012      E7800000 
 1013              	.LVL134:
  28:src/../h/../h/../h/my_console.h **** 
 1014              		.loc 3 28 5 is_stmt 1
  28:src/../h/../h/../h/my_console.h **** 
 1015              		.loc 3 28 15 is_stmt 0
 1016 06f8 97000000 		call	_Z10putNewlinev@plt
 1016      E7800000 
 1017              	.LVL135:
 1018              		.loc 3 30 5 is_stmt 1
 1019              		.loc 3 30 15 is_stmt 0
 1020 0700 97000000 		call	_Z10stopKernelv@plt
 1020      E7800000 
 1021              	.LVL136:
 1022              	.L52:
 1023              	.LBE151:
 1024              	.LBE155:
 1025              	.LBB156:
 1026              	.LBB154:
  23:src/../h/../h/../h/my_console.h ****     putString(file);
 1027              		.loc 3 23 5 is_stmt 1
  23:src/../h/../h/../h/my_console.h ****     putString(file);
 1028              		.loc 3 23 14 is_stmt 0
 1029 0708 17050000 		lla	a0,.LC2
 1029      13050500 
 1030 0710 97000000 		call	_Z9putStringPKc@plt
 1030      E7800000 
 1031              	.LVL137:
  24:src/../h/../h/../h/my_console.h ****     putString("    line: ");
 1032              		.loc 3 24 5 is_stmt 1
  24:src/../h/../h/../h/my_console.h ****     putString("    line: ");
 1033              		.loc 3 24 14 is_stmt 0
 1034 0718 17050000 		lla	a0,.LC3
GAS LISTING /tmp/ccxd8uy7.s 			page 29


 1034      13050500 
 1035 0720 97000000 		call	_Z9putStringPKc@plt
 1035      E7800000 
 1036              	.LVL138:
  25:src/../h/../h/../h/my_console.h ****     putInt(line);
 1037              		.loc 3 25 5 is_stmt 1
  25:src/../h/../h/../h/my_console.h ****     putInt(line);
 1038              		.loc 3 25 14 is_stmt 0
 1039 0728 17050000 		lla	a0,.LC4
 1039      13050500 
 1040 0730 97000000 		call	_Z9putStringPKc@plt
 1040      E7800000 
 1041              	.LVL139:
  26:src/../h/../h/../h/my_console.h ****     putString("   ===========================");
 1042              		.loc 3 26 5 is_stmt 1
  26:src/../h/../h/../h/my_console.h ****     putString("   ===========================");
 1043              		.loc 3 26 11 is_stmt 0
 1044 0738 13056000 		li	a0,6
 1045 073c 97000000 		call	_Z6putInti@plt
 1045      E7800000 
 1046              	.LVL140:
  27:src/../h/../h/../h/my_console.h ****     putNewline();
 1047              		.loc 3 27 5 is_stmt 1
  27:src/../h/../h/../h/my_console.h ****     putNewline();
 1048              		.loc 3 27 14 is_stmt 0
 1049 0744 17050000 		lla	a0,.LC5
 1049      13050500 
 1050 074c 97000000 		call	_Z9putStringPKc@plt
 1050      E7800000 
 1051              	.LVL141:
  28:src/../h/../h/../h/my_console.h **** 
 1052              		.loc 3 28 5 is_stmt 1
  28:src/../h/../h/../h/my_console.h **** 
 1053              		.loc 3 28 15 is_stmt 0
 1054 0754 97000000 		call	_Z10putNewlinev@plt
 1054      E7800000 
 1055              	.LVL142:
 1056              		.loc 3 30 5 is_stmt 1
 1057              		.loc 3 30 15 is_stmt 0
 1058 075c 97000000 		call	_Z10stopKernelv@plt
 1058      E7800000 
 1059              	.LVL143:
 1060              	.L53:
 1061              	.LBE154:
 1062              	.LBE156:
  13:src/scheduler.cpp ****         IThread::getPRunning()->pNext = nullptr;
 1063              		.loc 1 13 9 is_stmt 1
  13:src/scheduler.cpp ****         IThread::getPRunning()->pNext = nullptr;
 1064              		.loc 1 13 42 is_stmt 0
 1065 0764 97000000 		call	_ZN7IThread11getPRunningEv@plt
 1065      E7800000 
 1066              	.LVL144:
  13:src/scheduler.cpp ****         IThread::getPRunning()->pNext = nullptr;
 1067              		.loc 1 13 20
 1068 076c 23B4A400 		sd	a0,8(s1)
  14:src/scheduler.cpp ****     }
 1069              		.loc 1 14 9 is_stmt 1
GAS LISTING /tmp/ccxd8uy7.s 			page 30


  14:src/scheduler.cpp ****     }
 1070              		.loc 1 14 29 is_stmt 0
 1071 0770 97000000 		call	_ZN7IThread11getPRunningEv@plt
 1071      E7800000 
 1072              	.LVL145:
  14:src/scheduler.cpp ****     }
 1073              		.loc 1 14 39
 1074 0778 23380502 		sd	zero,48(a0)
 1075 077c 6FF0DFF0 		j	.L49
 1076              		.cfi_endproc
 1077              	.LFE8:
 1079              		.align	2
 1080              		.globl	_ZN9Scheduler19dispatchUserVersionEv
 1082              	_ZN9Scheduler19dispatchUserVersionEv:
 1083              	.LFB9:
  28:src/scheduler.cpp ****     extern IThread kernelThread;
 1084              		.loc 1 28 1 is_stmt 1
 1085              		.cfi_startproc
 1086 0780 130101FF 		addi	sp,sp,-16
 1087              		.cfi_def_cfa_offset 16
 1088 0784 23341100 		sd	ra,8(sp)
 1089 0788 23308100 		sd	s0,0(sp)
 1090              		.cfi_offset 1, -8
 1091              		.cfi_offset 8, -16
 1092 078c 13040101 		addi	s0,sp,16
 1093              		.cfi_def_cfa 8, 0
  29:src/scheduler.cpp ****     assert(IThread::getPRunning() !=
 1094              		.loc 1 29 5
  30:src/scheduler.cpp ****            &kernelThread); // you're only supposed to open user threads with system call with code 
 1095              		.loc 1 30 5
 1096 0790 97000000 		call	_ZN7IThread11getPRunningEv@plt
 1096      E7800000 
 1097              	.LVL146:
 1098 0798 97070000 		la	a5,kernelThread
 1098      83B70700 
 1099              	.LVL147:
 1100              	.LBB159:
 1101              	.LBB160:
  20:src/../h/../h/../h/my_console.h ****         return;
 1102              		.loc 3 20 5
 1103 07a0 6388A702 		beq	a5,a0,.L58
  21:src/../h/../h/../h/my_console.h **** 
 1104              		.loc 3 21 9
 1105              	.LVL148:
 1106              	.LBE160:
 1107              	.LBE159:
  33:src/scheduler.cpp ****     {
 1108              		.loc 1 33 5
  33:src/scheduler.cpp ****     {
 1109              		.loc 1 33 28 is_stmt 0
 1110 07a4 97000000 		call	_ZN7IThread11getPRunningEv@plt
 1110      E7800000 
 1111              	.LVL149:
  33:src/scheduler.cpp ****     {
 1112              		.loc 1 33 32
 1113 07ac 03378502 		ld	a4,40(a0)
  33:src/scheduler.cpp ****     {
GAS LISTING /tmp/ccxd8uy7.s 			page 31


 1114              		.loc 1 33 5
 1115 07b0 93071000 		li	a5,1
 1116 07b4 631CF706 		bne	a4,a5,.L59
 1117              	.L56:
  39:src/scheduler.cpp **** }
 1118              		.loc 1 39 5 is_stmt 1
  39:src/scheduler.cpp **** }
 1119              		.loc 1 39 30 is_stmt 0
 1120 07b8 97000000 		call	_ZN9Scheduler14dispatchToNextEv
 1120      E7800000 
 1121              	.LVL150:
  40:src/scheduler.cpp **** 
 1122              		.loc 1 40 1
 1123 07c0 83308100 		ld	ra,8(sp)
 1124              		.cfi_remember_state
 1125              		.cfi_restore 1
 1126 07c4 03340100 		ld	s0,0(sp)
 1127              		.cfi_restore 8
 1128              		.cfi_def_cfa 2, 16
 1129 07c8 13010101 		addi	sp,sp,16
 1130              		.cfi_def_cfa_offset 0
 1131 07cc 67800000 		jr	ra
 1132              	.LVL151:
 1133              	.L58:
 1134              		.cfi_restore_state
 1135              	.LBB162:
 1136              	.LBB161:
  23:src/../h/../h/../h/my_console.h ****     putString(file);
 1137              		.loc 3 23 5 is_stmt 1
  23:src/../h/../h/../h/my_console.h ****     putString(file);
 1138              		.loc 3 23 14 is_stmt 0
 1139 07d0 17050000 		lla	a0,.LC2
 1139      13050500 
 1140              	.LVL152:
 1141 07d8 97000000 		call	_Z9putStringPKc@plt
 1141      E7800000 
 1142              	.LVL153:
  24:src/../h/../h/../h/my_console.h ****     putString("    line: ");
 1143              		.loc 3 24 5 is_stmt 1
  24:src/../h/../h/../h/my_console.h ****     putString("    line: ");
 1144              		.loc 3 24 14 is_stmt 0
 1145 07e0 17050000 		lla	a0,.LC3
 1145      13050500 
 1146 07e8 97000000 		call	_Z9putStringPKc@plt
 1146      E7800000 
 1147              	.LVL154:
  25:src/../h/../h/../h/my_console.h ****     putInt(line);
 1148              		.loc 3 25 5 is_stmt 1
  25:src/../h/../h/../h/my_console.h ****     putInt(line);
 1149              		.loc 3 25 14 is_stmt 0
 1150 07f0 17050000 		lla	a0,.LC4
 1150      13050500 
 1151 07f8 97000000 		call	_Z9putStringPKc@plt
 1151      E7800000 
 1152              	.LVL155:
  26:src/../h/../h/../h/my_console.h ****     putString("   ===========================");
 1153              		.loc 3 26 5 is_stmt 1
GAS LISTING /tmp/ccxd8uy7.s 			page 32


  26:src/../h/../h/../h/my_console.h ****     putString("   ===========================");
 1154              		.loc 3 26 11 is_stmt 0
 1155 0800 1305E001 		li	a0,30
 1156 0804 97000000 		call	_Z6putInti@plt
 1156      E7800000 
 1157              	.LVL156:
  27:src/../h/../h/../h/my_console.h ****     putNewline();
 1158              		.loc 3 27 5 is_stmt 1
  27:src/../h/../h/../h/my_console.h ****     putNewline();
 1159              		.loc 3 27 14 is_stmt 0
 1160 080c 17050000 		lla	a0,.LC5
 1160      13050500 
 1161 0814 97000000 		call	_Z9putStringPKc@plt
 1161      E7800000 
 1162              	.LVL157:
  28:src/../h/../h/../h/my_console.h **** 
 1163              		.loc 3 28 5 is_stmt 1
  28:src/../h/../h/../h/my_console.h **** 
 1164              		.loc 3 28 15 is_stmt 0
 1165 081c 97000000 		call	_Z10putNewlinev@plt
 1165      E7800000 
 1166              	.LVL158:
 1167              		.loc 3 30 5 is_stmt 1
 1168              		.loc 3 30 15 is_stmt 0
 1169 0824 97000000 		call	_Z10stopKernelv@plt
 1169      E7800000 
 1170              	.LVL159:
 1171              	.L59:
 1172              	.LBE161:
 1173              	.LBE162:
  35:src/scheduler.cpp ****         Scheduler::put(IThread::getPRunning());
 1174              		.loc 1 35 9 is_stmt 1
  35:src/scheduler.cpp ****         Scheduler::put(IThread::getPRunning());
 1175              		.loc 1 35 29 is_stmt 0
 1176 082c 97000000 		call	_ZN7IThread11getPRunningEv@plt
 1176      E7800000 
 1177              	.LVL160:
  35:src/scheduler.cpp ****         Scheduler::put(IThread::getPRunning());
 1178              		.loc 1 35 39
 1179 0834 93072000 		li	a5,2
 1180 0838 2320F500 		sw	a5,0(a0)
  36:src/scheduler.cpp ****     }
 1181              		.loc 1 36 9 is_stmt 1
  36:src/scheduler.cpp ****     }
 1182              		.loc 1 36 23 is_stmt 0
 1183 083c 97000000 		call	_ZN7IThread11getPRunningEv@plt
 1183      E7800000 
 1184              	.LVL161:
 1185 0844 97000000 		call	_ZN9Scheduler3putEP7IThread
 1185      E7800000 
 1186              	.LVL162:
 1187 084c 6FF0DFF6 		j	.L56
 1188              		.cfi_endproc
 1189              	.LFE9:
 1191              		.weak	_ZGVZN9Scheduler3getEvE8instance
 1192              		.section	.bss._ZGVZN9Scheduler3getEvE8instance,"awG",@nobits,_ZGVZN9Scheduler3getEvE8instance,comd
 1193              		.align	3
GAS LISTING /tmp/ccxd8uy7.s 			page 33


 1196              	_ZGVZN9Scheduler3getEvE8instance:
 1197 0000 00000000 		.zero	8
 1197      00000000 
 1198              		.weak	_ZZN9Scheduler3getEvE8instance
 1199              		.section	.bss._ZZN9Scheduler3getEvE8instance,"awG",@nobits,_ZZN9Scheduler3getEvE8instance,comdat
 1200              		.align	3
 1203              	_ZZN9Scheduler3getEvE8instance:
 1204 0000 00000000 		.zero	16
 1204      00000000 
 1204      00000000 
 1204      00000000 
 1205              		.text
 1206              	.Letext0:
 1207              		.file 4 "src/../h/../h/../lib/hw.h"
 1208              		.file 5 "src/../h/../h/thread.h"
 1209              		.file 6 "src/../h/../h/../h/syscall_c.hpp"
GAS LISTING /tmp/ccxd8uy7.s 			page 34


DEFINED SYMBOLS
                            *ABS*:0000000000000000 scheduler.cpp
     /tmp/ccxd8uy7.s:17     .text:0000000000000000 _ZN9Scheduler10printStateEv
     /tmp/ccxd8uy7.s:21     .text:0000000000000000 .L0 
     /tmp/ccxd8uy7.s:22     .text:0000000000000000 .L0 
     /tmp/ccxd8uy7.s:23     .text:0000000000000004 .L0 
     /tmp/ccxd8uy7.s:27     .text:0000000000000010 .L0 
     /tmp/ccxd8uy7.s:28     .text:0000000000000010 .L0 
     /tmp/ccxd8uy7.s:29     .text:0000000000000010 .L0 
     /tmp/ccxd8uy7.s:31     .text:0000000000000014 .L0 
     /tmp/ccxd8uy7.s:33     .text:0000000000000014 .L0 
     /tmp/ccxd8uy7.s:34     .text:0000000000000014 .L0 
     /tmp/ccxd8uy7.s:37     .text:000000000000001c .L0 
     /tmp/ccxd8uy7.s:41     .text:0000000000000028 .L0 
     /tmp/ccxd8uy7.s:42     .text:0000000000000028 .L0 
     /tmp/ccxd8uy7.s:49     .text:0000000000000038 .L0 
     /tmp/ccxd8uy7.s:50     .text:0000000000000038 .L0 
     /tmp/ccxd8uy7.s:1196   .bss._ZGVZN9Scheduler3getEvE8instance:0000000000000000 _ZGVZN9Scheduler3getEvE8instance
     /tmp/ccxd8uy7.s:51     .text:0000000000000038 .L0 
     /tmp/ccxd8uy7.s:1203   .bss._ZZN9Scheduler3getEvE8instance:0000000000000000 _ZZN9Scheduler3getEvE8instance
     /tmp/ccxd8uy7.s:58     .text:0000000000000044 .L0 
     /tmp/ccxd8uy7.s:66     .text:0000000000000054 .L0 
     /tmp/ccxd8uy7.s:72     .text:0000000000000060 .L0 
     /tmp/ccxd8uy7.s:73     .text:0000000000000060 .L0 
     /tmp/ccxd8uy7.s:77     .text:0000000000000068 .L0 
     /tmp/ccxd8uy7.s:78     .text:0000000000000068 .L0 
     /tmp/ccxd8uy7.s:80     .text:000000000000006c .L0 
     /tmp/ccxd8uy7.s:81     .text:000000000000006c .L0 
     /tmp/ccxd8uy7.s:85     .text:0000000000000078 .L0 
     /tmp/ccxd8uy7.s:86     .text:0000000000000078 .L0 
     /tmp/ccxd8uy7.s:88     .text:000000000000007c .L0 
     /tmp/ccxd8uy7.s:90     .text:0000000000000080 .L0 
     /tmp/ccxd8uy7.s:91     .text:0000000000000080 .L0 
     /tmp/ccxd8uy7.s:95     .text:0000000000000090 .L0 
     /tmp/ccxd8uy7.s:96     .text:0000000000000090 .L0 
     /tmp/ccxd8uy7.s:99     .text:0000000000000094 .L0 
     /tmp/ccxd8uy7.s:102    .text:0000000000000098 .L0 
     /tmp/ccxd8uy7.s:103    .text:0000000000000098 .L0 
     /tmp/ccxd8uy7.s:106    .text:00000000000000a0 .L0 
     /tmp/ccxd8uy7.s:107    .text:00000000000000a4 .L0 
     /tmp/ccxd8uy7.s:109    .text:00000000000000a8 .L0 
     /tmp/ccxd8uy7.s:110    .text:00000000000000a8 .L0 
     /tmp/ccxd8uy7.s:112    .text:00000000000000ac .L0 
     /tmp/ccxd8uy7.s:115    .text:00000000000000b0 .L0 
     /tmp/ccxd8uy7.s:117    .text:00000000000000b4 .L0 
     /tmp/ccxd8uy7.s:137    .text:00000000000000b4 _ZN9Scheduler3putEP7IThread
     /tmp/ccxd8uy7.s:140    .text:00000000000000b4 .L0 
     /tmp/ccxd8uy7.s:142    .text:00000000000000b4 .L0 
     /tmp/ccxd8uy7.s:143    .text:00000000000000b8 .L0 
     /tmp/ccxd8uy7.s:146    .text:00000000000000c0 .L0 
     /tmp/ccxd8uy7.s:147    .text:00000000000000c0 .L0 
     /tmp/ccxd8uy7.s:149    .text:00000000000000c4 .L0 
     /tmp/ccxd8uy7.s:151    .text:00000000000000c4 .L0 
     /tmp/ccxd8uy7.s:153    .text:00000000000000c8 .L0 
     /tmp/ccxd8uy7.s:160    .text:00000000000000d0 .L0 
     /tmp/ccxd8uy7.s:165    .text:00000000000000d4 .L0 
     /tmp/ccxd8uy7.s:166    .text:00000000000000d4 .L0 
GAS LISTING /tmp/ccxd8uy7.s 			page 35


     /tmp/ccxd8uy7.s:167    .text:00000000000000d4 .L0 
     /tmp/ccxd8uy7.s:171    .text:00000000000000d8 .L0 
     /tmp/ccxd8uy7.s:172    .text:00000000000000d8 .L0 
     /tmp/ccxd8uy7.s:173    .text:00000000000000d8 .L0 
     /tmp/ccxd8uy7.s:180    .text:00000000000000e4 .L0 
     /tmp/ccxd8uy7.s:188    .text:00000000000000f4 .L0 
     /tmp/ccxd8uy7.s:194    .text:0000000000000100 .L0 
     /tmp/ccxd8uy7.s:195    .text:0000000000000100 .L0 
     /tmp/ccxd8uy7.s:197    .text:0000000000000108 .L0 
     /tmp/ccxd8uy7.s:201    .text:000000000000010c .L0 
     /tmp/ccxd8uy7.s:202    .text:000000000000010c .L0 
     /tmp/ccxd8uy7.s:203    .text:000000000000010c .L0 
     /tmp/ccxd8uy7.s:210    .text:0000000000000118 .L0 
     /tmp/ccxd8uy7.s:218    .text:0000000000000128 .L0 
     /tmp/ccxd8uy7.s:224    .text:0000000000000134 .L0 
     /tmp/ccxd8uy7.s:225    .text:0000000000000134 .L0 
     /tmp/ccxd8uy7.s:229    .text:000000000000013c .L0 
     /tmp/ccxd8uy7.s:230    .text:000000000000013c .L0 
     /tmp/ccxd8uy7.s:235    .text:0000000000000148 .L0 
     /tmp/ccxd8uy7.s:236    .text:0000000000000148 .L0 
     /tmp/ccxd8uy7.s:240    .text:000000000000014c .L0 
     /tmp/ccxd8uy7.s:241    .text:0000000000000150 .L0 
     /tmp/ccxd8uy7.s:242    .text:0000000000000150 .L0 
     /tmp/ccxd8uy7.s:244    .text:0000000000000154 .L0 
     /tmp/ccxd8uy7.s:245    .text:0000000000000154 .L0 
     /tmp/ccxd8uy7.s:247    .text:0000000000000158 .L0 
     /tmp/ccxd8uy7.s:250    .text:000000000000015c .L0 
     /tmp/ccxd8uy7.s:255    .text:000000000000015c .L0 
     /tmp/ccxd8uy7.s:256    .text:000000000000015c .L0 
     /tmp/ccxd8uy7.s:257    .text:000000000000015c .L0 
     /tmp/ccxd8uy7.s:258    .text:000000000000015c .L0 
     /tmp/ccxd8uy7.s:263    .text:000000000000016c .L0 
     /tmp/ccxd8uy7.s:264    .text:000000000000016c .L0 
     /tmp/ccxd8uy7.s:268    .text:000000000000017c .L0 
     /tmp/ccxd8uy7.s:269    .text:000000000000017c .L0 
     /tmp/ccxd8uy7.s:273    .text:000000000000018c .L0 
     /tmp/ccxd8uy7.s:274    .text:000000000000018c .L0 
     /tmp/ccxd8uy7.s:278    .text:0000000000000198 .L0 
     /tmp/ccxd8uy7.s:279    .text:0000000000000198 .L0 
     /tmp/ccxd8uy7.s:283    .text:00000000000001a8 .L0 
     /tmp/ccxd8uy7.s:284    .text:00000000000001a8 .L0 
     /tmp/ccxd8uy7.s:287    .text:00000000000001b0 .L0 
     /tmp/ccxd8uy7.s:288    .text:00000000000001b0 .L0 
     /tmp/ccxd8uy7.s:296    .text:00000000000001b8 .L0 
     /tmp/ccxd8uy7.s:297    .text:00000000000001b8 .L0 
     /tmp/ccxd8uy7.s:302    .text:00000000000001c8 .L0 
     /tmp/ccxd8uy7.s:303    .text:00000000000001c8 .L0 
     /tmp/ccxd8uy7.s:307    .text:00000000000001d8 .L0 
     /tmp/ccxd8uy7.s:308    .text:00000000000001d8 .L0 
     /tmp/ccxd8uy7.s:312    .text:00000000000001e8 .L0 
     /tmp/ccxd8uy7.s:313    .text:00000000000001e8 .L0 
     /tmp/ccxd8uy7.s:317    .text:00000000000001f4 .L0 
     /tmp/ccxd8uy7.s:318    .text:00000000000001f4 .L0 
     /tmp/ccxd8uy7.s:322    .text:0000000000000204 .L0 
     /tmp/ccxd8uy7.s:323    .text:0000000000000204 .L0 
     /tmp/ccxd8uy7.s:326    .text:000000000000020c .L0 
     /tmp/ccxd8uy7.s:327    .text:000000000000020c .L0 
GAS LISTING /tmp/ccxd8uy7.s 			page 36


     /tmp/ccxd8uy7.s:335    .text:0000000000000214 .L0 
     /tmp/ccxd8uy7.s:336    .text:0000000000000214 .L0 
     /tmp/ccxd8uy7.s:337    .text:0000000000000214 .L0 
     /tmp/ccxd8uy7.s:344    .text:0000000000000220 .L0 
     /tmp/ccxd8uy7.s:350    .text:0000000000000228 .L0 
     /tmp/ccxd8uy7.s:356    .text:0000000000000234 .L0 
     /tmp/ccxd8uy7.s:357    .text:0000000000000234 .L0 
     /tmp/ccxd8uy7.s:359    .text:000000000000023c .L0 
     /tmp/ccxd8uy7.s:360    .text:0000000000000240 .L0 
     /tmp/ccxd8uy7.s:366    .text:0000000000000240 _ZN9Scheduler7getNextEv
     /tmp/ccxd8uy7.s:369    .text:0000000000000240 .L0 
     /tmp/ccxd8uy7.s:370    .text:0000000000000240 .L0 
     /tmp/ccxd8uy7.s:371    .text:0000000000000244 .L0 
     /tmp/ccxd8uy7.s:373    .text:0000000000000248 .L0 
     /tmp/ccxd8uy7.s:375    .text:000000000000024c .L0 
     /tmp/ccxd8uy7.s:379    .text:000000000000024c .L0 
     /tmp/ccxd8uy7.s:380    .text:000000000000024c .L0 
     /tmp/ccxd8uy7.s:381    .text:000000000000024c .L0 
     /tmp/ccxd8uy7.s:388    .text:0000000000000258 .L0 
     /tmp/ccxd8uy7.s:396    .text:0000000000000268 .L0 
     /tmp/ccxd8uy7.s:402    .text:0000000000000274 .L0 
     /tmp/ccxd8uy7.s:403    .text:0000000000000274 .L0 
     /tmp/ccxd8uy7.s:406    .text:000000000000027c .L0 
     /tmp/ccxd8uy7.s:410    .text:0000000000000280 .L0 
     /tmp/ccxd8uy7.s:411    .text:0000000000000280 .L0 
     /tmp/ccxd8uy7.s:412    .text:0000000000000280 .L0 
     /tmp/ccxd8uy7.s:419    .text:000000000000028c .L0 
     /tmp/ccxd8uy7.s:427    .text:000000000000029c .L0 
     /tmp/ccxd8uy7.s:433    .text:00000000000002a8 .L0 
     /tmp/ccxd8uy7.s:434    .text:00000000000002a8 .L0 
     /tmp/ccxd8uy7.s:438    .text:00000000000002b0 .L0 
     /tmp/ccxd8uy7.s:439    .text:00000000000002b0 .L0 
     /tmp/ccxd8uy7.s:446    .text:00000000000002bc .L0 
     /tmp/ccxd8uy7.s:452    .text:00000000000002c4 .L0 
     /tmp/ccxd8uy7.s:458    .text:00000000000002d0 .L0 
     /tmp/ccxd8uy7.s:459    .text:00000000000002d0 .L0 
     /tmp/ccxd8uy7.s:461    .text:00000000000002d4 .L0 
     /tmp/ccxd8uy7.s:464    .text:00000000000002dc .L0 
     /tmp/ccxd8uy7.s:465    .text:00000000000002dc .L0 
     /tmp/ccxd8uy7.s:466    .text:00000000000002e0 .L0 
     /tmp/ccxd8uy7.s:467    .text:00000000000002e0 .L0 
     /tmp/ccxd8uy7.s:469    .text:00000000000002e4 .L0 
     /tmp/ccxd8uy7.s:471    .text:00000000000002e8 .L0 
     /tmp/ccxd8uy7.s:482    .text:00000000000002e8 _ZN9Scheduler14dispatchToNextEv
     /tmp/ccxd8uy7.s:485    .text:00000000000002e8 .L0 
     /tmp/ccxd8uy7.s:486    .text:00000000000002e8 .L0 
     /tmp/ccxd8uy7.s:487    .text:00000000000002ec .L0 
     /tmp/ccxd8uy7.s:492    .text:00000000000002fc .L0 
     /tmp/ccxd8uy7.s:493    .text:00000000000002fc .L0 
     /tmp/ccxd8uy7.s:494    .text:00000000000002fc .L0 
     /tmp/ccxd8uy7.s:495    .text:00000000000002fc .L0 
     /tmp/ccxd8uy7.s:497    .text:0000000000000300 .L0 
     /tmp/ccxd8uy7.s:499    .text:0000000000000300 .L0 
     /tmp/ccxd8uy7.s:508    .text:0000000000000318 .L0 
     /tmp/ccxd8uy7.s:513    .text:000000000000031c .L0 
     /tmp/ccxd8uy7.s:514    .text:000000000000031c .L0 
     /tmp/ccxd8uy7.s:515    .text:000000000000031c .L0 
GAS LISTING /tmp/ccxd8uy7.s 			page 37


     /tmp/ccxd8uy7.s:520    .text:0000000000000328 .L0 
     /tmp/ccxd8uy7.s:521    .text:0000000000000328 .L0 
     /tmp/ccxd8uy7.s:526    .text:0000000000000334 .L0 
     /tmp/ccxd8uy7.s:527    .text:0000000000000334 .L0 
     /tmp/ccxd8uy7.s:532    .text:000000000000033c .L0 
     /tmp/ccxd8uy7.s:537    .text:0000000000000340 .L0 
     /tmp/ccxd8uy7.s:538    .text:0000000000000340 .L0 
     /tmp/ccxd8uy7.s:545    .text:000000000000034c .L0 
     /tmp/ccxd8uy7.s:550    .text:0000000000000350 .L0 
     /tmp/ccxd8uy7.s:551    .text:0000000000000350 .L0 
     /tmp/ccxd8uy7.s:554    .text:0000000000000350 .L0 
     /tmp/ccxd8uy7.s:555    .text:0000000000000350 .L0 
     /tmp/ccxd8uy7.s:556    .text:0000000000000350 .L0 
     /tmp/ccxd8uy7.s:563    .text:000000000000035c .L0 
     /tmp/ccxd8uy7.s:571    .text:000000000000036c .L0 
     /tmp/ccxd8uy7.s:577    .text:0000000000000378 .L0 
     /tmp/ccxd8uy7.s:578    .text:0000000000000378 .L0 
     /tmp/ccxd8uy7.s:581    .text:0000000000000380 .L0 
     /tmp/ccxd8uy7.s:584    .text:0000000000000384 .L0 
     /tmp/ccxd8uy7.s:588    .text:0000000000000388 .L0 
     /tmp/ccxd8uy7.s:589    .text:0000000000000388 .L0 
     /tmp/ccxd8uy7.s:592    .text:0000000000000390 .L0 
     /tmp/ccxd8uy7.s:593    .text:0000000000000390 .L0 
     /tmp/ccxd8uy7.s:595    .text:0000000000000394 .L0 
     /tmp/ccxd8uy7.s:596    .text:0000000000000394 .L0 
     /tmp/ccxd8uy7.s:600    .text:00000000000003a0 .L0 
     /tmp/ccxd8uy7.s:601    .text:00000000000003a4 .L0 
     /tmp/ccxd8uy7.s:602    .text:00000000000003a4 .L0 
     /tmp/ccxd8uy7.s:604    .text:00000000000003a8 .L0 
     /tmp/ccxd8uy7.s:605    .text:00000000000003a8 .L0 
     /tmp/ccxd8uy7.s:607    .text:00000000000003ac .L0 
     /tmp/ccxd8uy7.s:610    .text:00000000000003b0 .L0 
     /tmp/ccxd8uy7.s:613    .text:00000000000003b4 .L0 
     /tmp/ccxd8uy7.s:617    .text:00000000000003b8 .L0 
     /tmp/ccxd8uy7.s:621    .text:00000000000003b8 .L0 
     /tmp/ccxd8uy7.s:622    .text:00000000000003b8 .L0 
     /tmp/ccxd8uy7.s:627    .text:00000000000003c8 .L0 
     /tmp/ccxd8uy7.s:628    .text:00000000000003c8 .L0 
     /tmp/ccxd8uy7.s:632    .text:00000000000003d8 .L0 
     /tmp/ccxd8uy7.s:633    .text:00000000000003d8 .L0 
     /tmp/ccxd8uy7.s:637    .text:00000000000003e8 .L0 
     /tmp/ccxd8uy7.s:638    .text:00000000000003e8 .L0 
     /tmp/ccxd8uy7.s:642    .text:00000000000003f4 .L0 
     /tmp/ccxd8uy7.s:643    .text:00000000000003f4 .L0 
     /tmp/ccxd8uy7.s:647    .text:0000000000000404 .L0 
     /tmp/ccxd8uy7.s:648    .text:0000000000000404 .L0 
     /tmp/ccxd8uy7.s:651    .text:000000000000040c .L0 
     /tmp/ccxd8uy7.s:652    .text:000000000000040c .L0 
     /tmp/ccxd8uy7.s:660    .text:0000000000000414 .L0 
     /tmp/ccxd8uy7.s:661    .text:0000000000000414 .L0 
     /tmp/ccxd8uy7.s:665    .text:0000000000000424 .L0 
     /tmp/ccxd8uy7.s:666    .text:0000000000000424 .L0 
     /tmp/ccxd8uy7.s:670    .text:0000000000000434 .L0 
     /tmp/ccxd8uy7.s:671    .text:0000000000000434 .L0 
     /tmp/ccxd8uy7.s:675    .text:0000000000000444 .L0 
     /tmp/ccxd8uy7.s:676    .text:0000000000000444 .L0 
     /tmp/ccxd8uy7.s:680    .text:0000000000000450 .L0 
GAS LISTING /tmp/ccxd8uy7.s 			page 38


     /tmp/ccxd8uy7.s:681    .text:0000000000000450 .L0 
     /tmp/ccxd8uy7.s:685    .text:0000000000000460 .L0 
     /tmp/ccxd8uy7.s:686    .text:0000000000000460 .L0 
     /tmp/ccxd8uy7.s:689    .text:0000000000000468 .L0 
     /tmp/ccxd8uy7.s:690    .text:0000000000000468 .L0 
     /tmp/ccxd8uy7.s:698    .text:0000000000000470 .L0 
     /tmp/ccxd8uy7.s:699    .text:0000000000000470 .L0 
     /tmp/ccxd8uy7.s:703    .text:0000000000000480 .L0 
     /tmp/ccxd8uy7.s:704    .text:0000000000000480 .L0 
     /tmp/ccxd8uy7.s:708    .text:0000000000000490 .L0 
     /tmp/ccxd8uy7.s:709    .text:0000000000000490 .L0 
     /tmp/ccxd8uy7.s:713    .text:00000000000004a0 .L0 
     /tmp/ccxd8uy7.s:714    .text:00000000000004a0 .L0 
     /tmp/ccxd8uy7.s:718    .text:00000000000004ac .L0 
     /tmp/ccxd8uy7.s:719    .text:00000000000004ac .L0 
     /tmp/ccxd8uy7.s:723    .text:00000000000004bc .L0 
     /tmp/ccxd8uy7.s:724    .text:00000000000004bc .L0 
     /tmp/ccxd8uy7.s:727    .text:00000000000004c4 .L0 
     /tmp/ccxd8uy7.s:728    .text:00000000000004c4 .L0 
     /tmp/ccxd8uy7.s:734    .text:00000000000004cc .L0 
     /tmp/ccxd8uy7.s:737    .text:00000000000004d0 .L0 
     /tmp/ccxd8uy7.s:738    .text:00000000000004d0 .L0 
     /tmp/ccxd8uy7.s:739    .text:00000000000004d0 .L0 
     /tmp/ccxd8uy7.s:743    .text:00000000000004e0 .L0 
     /tmp/ccxd8uy7.s:744    .text:00000000000004e0 .L0 
     /tmp/ccxd8uy7.s:747    .text:00000000000004e8 .L0 
     /tmp/ccxd8uy7.s:754    .text:00000000000004fc .L0 
     /tmp/ccxd8uy7.s:759    .text:0000000000000500 .L0 
     /tmp/ccxd8uy7.s:760    .text:0000000000000500 .L0 
     /tmp/ccxd8uy7.s:761    .text:0000000000000500 .L0 
     /tmp/ccxd8uy7.s:764    .text:000000000000050c .L0 
     /tmp/ccxd8uy7.s:767    .text:0000000000000514 .L0 
     /tmp/ccxd8uy7.s:770    .text:000000000000051c .L0 
     /tmp/ccxd8uy7.s:776    .text:0000000000000520 .L0 
     /tmp/ccxd8uy7.s:777    .text:0000000000000520 .L0 
     /tmp/ccxd8uy7.s:781    .text:0000000000000530 .L0 
     /tmp/ccxd8uy7.s:782    .text:0000000000000530 .L0 
     /tmp/ccxd8uy7.s:786    .text:0000000000000540 .L0 
     /tmp/ccxd8uy7.s:787    .text:0000000000000540 .L0 
     /tmp/ccxd8uy7.s:791    .text:0000000000000550 .L0 
     /tmp/ccxd8uy7.s:792    .text:0000000000000550 .L0 
     /tmp/ccxd8uy7.s:796    .text:000000000000055c .L0 
     /tmp/ccxd8uy7.s:797    .text:000000000000055c .L0 
     /tmp/ccxd8uy7.s:801    .text:000000000000056c .L0 
     /tmp/ccxd8uy7.s:802    .text:000000000000056c .L0 
     /tmp/ccxd8uy7.s:805    .text:0000000000000574 .L0 
     /tmp/ccxd8uy7.s:806    .text:0000000000000574 .L0 
     /tmp/ccxd8uy7.s:812    .text:000000000000057c .L0 
     /tmp/ccxd8uy7.s:814    .text:0000000000000580 .L0 
     /tmp/ccxd8uy7.s:820    .text:0000000000000584 .L0 
     /tmp/ccxd8uy7.s:825    .text:0000000000000588 .L0 
     /tmp/ccxd8uy7.s:826    .text:0000000000000588 .L0 
     /tmp/ccxd8uy7.s:827    .text:0000000000000588 .L0 
     /tmp/ccxd8uy7.s:836    .text:00000000000005a0 .L0 
     /tmp/ccxd8uy7.s:843    .text:00000000000005a8 .L0 
     /tmp/ccxd8uy7.s:844    .text:00000000000005a8 .L0 
     /tmp/ccxd8uy7.s:848    .text:00000000000005b8 .L0 
GAS LISTING /tmp/ccxd8uy7.s 			page 39


     /tmp/ccxd8uy7.s:849    .text:00000000000005b8 .L0 
     /tmp/ccxd8uy7.s:853    .text:00000000000005c8 .L0 
     /tmp/ccxd8uy7.s:854    .text:00000000000005c8 .L0 
     /tmp/ccxd8uy7.s:858    .text:00000000000005d8 .L0 
     /tmp/ccxd8uy7.s:859    .text:00000000000005d8 .L0 
     /tmp/ccxd8uy7.s:863    .text:00000000000005e4 .L0 
     /tmp/ccxd8uy7.s:864    .text:00000000000005e4 .L0 
     /tmp/ccxd8uy7.s:868    .text:00000000000005f4 .L0 
     /tmp/ccxd8uy7.s:869    .text:00000000000005f4 .L0 
     /tmp/ccxd8uy7.s:872    .text:00000000000005fc .L0 
     /tmp/ccxd8uy7.s:873    .text:00000000000005fc .L0 
     /tmp/ccxd8uy7.s:877    .text:0000000000000604 .L0 
     /tmp/ccxd8uy7.s:883    .text:0000000000000604 _ZN9Scheduler5sleepEm
     /tmp/ccxd8uy7.s:886    .text:0000000000000604 .L0 
     /tmp/ccxd8uy7.s:888    .text:0000000000000604 .L0 
     /tmp/ccxd8uy7.s:889    .text:0000000000000608 .L0 
     /tmp/ccxd8uy7.s:894    .text:0000000000000618 .L0 
     /tmp/ccxd8uy7.s:895    .text:0000000000000618 .L0 
     /tmp/ccxd8uy7.s:896    .text:0000000000000618 .L0 
     /tmp/ccxd8uy7.s:897    .text:0000000000000618 .L0 
     /tmp/ccxd8uy7.s:899    .text:000000000000061c .L0 
     /tmp/ccxd8uy7.s:903    .text:0000000000000624 .L0 
     /tmp/ccxd8uy7.s:910    .text:0000000000000630 .L0 
     /tmp/ccxd8uy7.s:915    .text:0000000000000634 .L0 
     /tmp/ccxd8uy7.s:916    .text:0000000000000634 .L0 
     /tmp/ccxd8uy7.s:924    .text:0000000000000644 .L0 
     /tmp/ccxd8uy7.s:929    .text:0000000000000648 .L0 
     /tmp/ccxd8uy7.s:930    .text:0000000000000648 .L0 
     /tmp/ccxd8uy7.s:931    .text:0000000000000648 .L0 
     /tmp/ccxd8uy7.s:934    .text:0000000000000650 .L0 
     /tmp/ccxd8uy7.s:937    .text:0000000000000658 .L0 
     /tmp/ccxd8uy7.s:938    .text:0000000000000658 .L0 
     /tmp/ccxd8uy7.s:941    .text:0000000000000660 .L0 
     /tmp/ccxd8uy7.s:943    .text:0000000000000664 .L0 
     /tmp/ccxd8uy7.s:944    .text:0000000000000664 .L0 
     /tmp/ccxd8uy7.s:946    .text:0000000000000668 .L0 
     /tmp/ccxd8uy7.s:948    .text:000000000000066c .L0 
     /tmp/ccxd8uy7.s:949    .text:000000000000066c .L0 
     /tmp/ccxd8uy7.s:952    .text:0000000000000674 .L0 
     /tmp/ccxd8uy7.s:954    .text:0000000000000678 .L0 
     /tmp/ccxd8uy7.s:956    .text:000000000000067c .L0 
     /tmp/ccxd8uy7.s:957    .text:000000000000067c .L0 
     /tmp/ccxd8uy7.s:960    .text:0000000000000684 .L0 
     /tmp/ccxd8uy7.s:963    .text:0000000000000688 .L0 
     /tmp/ccxd8uy7.s:964    .text:0000000000000688 .L0 
     /tmp/ccxd8uy7.s:967    .text:0000000000000690 .L0 
     /tmp/ccxd8uy7.s:968    .text:0000000000000690 .L0 
     /tmp/ccxd8uy7.s:970    .text:0000000000000698 .L0 
     /tmp/ccxd8uy7.s:971    .text:0000000000000698 .L0 
     /tmp/ccxd8uy7.s:973    .text:000000000000069c .L0 
     /tmp/ccxd8uy7.s:974    .text:000000000000069c .L0 
     /tmp/ccxd8uy7.s:976    .text:00000000000006a0 .L0 
     /tmp/ccxd8uy7.s:979    .text:00000000000006a4 .L0 
     /tmp/ccxd8uy7.s:982    .text:00000000000006a8 .L0 
     /tmp/ccxd8uy7.s:986    .text:00000000000006ac .L0 
     /tmp/ccxd8uy7.s:990    .text:00000000000006ac .L0 
     /tmp/ccxd8uy7.s:991    .text:00000000000006ac .L0 
GAS LISTING /tmp/ccxd8uy7.s 			page 40


     /tmp/ccxd8uy7.s:995    .text:00000000000006bc .L0 
     /tmp/ccxd8uy7.s:996    .text:00000000000006bc .L0 
     /tmp/ccxd8uy7.s:1000   .text:00000000000006cc .L0 
     /tmp/ccxd8uy7.s:1001   .text:00000000000006cc .L0 
     /tmp/ccxd8uy7.s:1005   .text:00000000000006dc .L0 
     /tmp/ccxd8uy7.s:1006   .text:00000000000006dc .L0 
     /tmp/ccxd8uy7.s:1010   .text:00000000000006e8 .L0 
     /tmp/ccxd8uy7.s:1011   .text:00000000000006e8 .L0 
     /tmp/ccxd8uy7.s:1015   .text:00000000000006f8 .L0 
     /tmp/ccxd8uy7.s:1016   .text:00000000000006f8 .L0 
     /tmp/ccxd8uy7.s:1019   .text:0000000000000700 .L0 
     /tmp/ccxd8uy7.s:1020   .text:0000000000000700 .L0 
     /tmp/ccxd8uy7.s:1028   .text:0000000000000708 .L0 
     /tmp/ccxd8uy7.s:1029   .text:0000000000000708 .L0 
     /tmp/ccxd8uy7.s:1033   .text:0000000000000718 .L0 
     /tmp/ccxd8uy7.s:1034   .text:0000000000000718 .L0 
     /tmp/ccxd8uy7.s:1038   .text:0000000000000728 .L0 
     /tmp/ccxd8uy7.s:1039   .text:0000000000000728 .L0 
     /tmp/ccxd8uy7.s:1043   .text:0000000000000738 .L0 
     /tmp/ccxd8uy7.s:1044   .text:0000000000000738 .L0 
     /tmp/ccxd8uy7.s:1048   .text:0000000000000744 .L0 
     /tmp/ccxd8uy7.s:1049   .text:0000000000000744 .L0 
     /tmp/ccxd8uy7.s:1053   .text:0000000000000754 .L0 
     /tmp/ccxd8uy7.s:1054   .text:0000000000000754 .L0 
     /tmp/ccxd8uy7.s:1057   .text:000000000000075c .L0 
     /tmp/ccxd8uy7.s:1058   .text:000000000000075c .L0 
     /tmp/ccxd8uy7.s:1064   .text:0000000000000764 .L0 
     /tmp/ccxd8uy7.s:1065   .text:0000000000000764 .L0 
     /tmp/ccxd8uy7.s:1068   .text:000000000000076c .L0 
     /tmp/ccxd8uy7.s:1070   .text:0000000000000770 .L0 
     /tmp/ccxd8uy7.s:1071   .text:0000000000000770 .L0 
     /tmp/ccxd8uy7.s:1074   .text:0000000000000778 .L0 
     /tmp/ccxd8uy7.s:1076   .text:0000000000000780 .L0 
     /tmp/ccxd8uy7.s:1082   .text:0000000000000780 _ZN9Scheduler19dispatchUserVersionEv
     /tmp/ccxd8uy7.s:1085   .text:0000000000000780 .L0 
     /tmp/ccxd8uy7.s:1086   .text:0000000000000780 .L0 
     /tmp/ccxd8uy7.s:1087   .text:0000000000000784 .L0 
     /tmp/ccxd8uy7.s:1090   .text:000000000000078c .L0 
     /tmp/ccxd8uy7.s:1091   .text:000000000000078c .L0 
     /tmp/ccxd8uy7.s:1093   .text:0000000000000790 .L0 
     /tmp/ccxd8uy7.s:1095   .text:0000000000000790 .L0 
     /tmp/ccxd8uy7.s:1096   .text:0000000000000790 .L0 
     /tmp/ccxd8uy7.s:1103   .text:00000000000007a0 .L0 
     /tmp/ccxd8uy7.s:1108   .text:00000000000007a4 .L0 
     /tmp/ccxd8uy7.s:1109   .text:00000000000007a4 .L0 
     /tmp/ccxd8uy7.s:1110   .text:00000000000007a4 .L0 
     /tmp/ccxd8uy7.s:1113   .text:00000000000007ac .L0 
     /tmp/ccxd8uy7.s:1115   .text:00000000000007b0 .L0 
     /tmp/ccxd8uy7.s:1119   .text:00000000000007b8 .L0 
     /tmp/ccxd8uy7.s:1120   .text:00000000000007b8 .L0 
     /tmp/ccxd8uy7.s:1123   .text:00000000000007c0 .L0 
     /tmp/ccxd8uy7.s:1124   .text:00000000000007c4 .L0 
     /tmp/ccxd8uy7.s:1125   .text:00000000000007c4 .L0 
     /tmp/ccxd8uy7.s:1127   .text:00000000000007c8 .L0 
     /tmp/ccxd8uy7.s:1128   .text:00000000000007c8 .L0 
     /tmp/ccxd8uy7.s:1130   .text:00000000000007cc .L0 
     /tmp/ccxd8uy7.s:1134   .text:00000000000007d0 .L0 
GAS LISTING /tmp/ccxd8uy7.s 			page 41


     /tmp/ccxd8uy7.s:1138   .text:00000000000007d0 .L0 
     /tmp/ccxd8uy7.s:1139   .text:00000000000007d0 .L0 
     /tmp/ccxd8uy7.s:1144   .text:00000000000007e0 .L0 
     /tmp/ccxd8uy7.s:1145   .text:00000000000007e0 .L0 
     /tmp/ccxd8uy7.s:1149   .text:00000000000007f0 .L0 
     /tmp/ccxd8uy7.s:1150   .text:00000000000007f0 .L0 
     /tmp/ccxd8uy7.s:1154   .text:0000000000000800 .L0 
     /tmp/ccxd8uy7.s:1155   .text:0000000000000800 .L0 
     /tmp/ccxd8uy7.s:1159   .text:000000000000080c .L0 
     /tmp/ccxd8uy7.s:1160   .text:000000000000080c .L0 
     /tmp/ccxd8uy7.s:1164   .text:000000000000081c .L0 
     /tmp/ccxd8uy7.s:1165   .text:000000000000081c .L0 
     /tmp/ccxd8uy7.s:1168   .text:0000000000000824 .L0 
     /tmp/ccxd8uy7.s:1169   .text:0000000000000824 .L0 
     /tmp/ccxd8uy7.s:1175   .text:000000000000082c .L0 
     /tmp/ccxd8uy7.s:1176   .text:000000000000082c .L0 
     /tmp/ccxd8uy7.s:1179   .text:0000000000000834 .L0 
     /tmp/ccxd8uy7.s:1182   .text:000000000000083c .L0 
     /tmp/ccxd8uy7.s:1183   .text:000000000000083c .L0 
     /tmp/ccxd8uy7.s:1188   .text:0000000000000850 .L0 
     /tmp/ccxd8uy7.s:1210   .text:0000000000000850 .L0 
     /tmp/ccxd8uy7.s:8      .rodata.str1.8:0000000000000000 .LC0
     /tmp/ccxd8uy7.s:42     .text:0000000000000028 .L0 
     /tmp/ccxd8uy7.s:51     .text:0000000000000038 .L0 
     /tmp/ccxd8uy7.s:58     .text:0000000000000044 .L0 
     /tmp/ccxd8uy7.s:67     .text:0000000000000058 .L0 
     /tmp/ccxd8uy7.s:73     .text:0000000000000060 .L0 
     /tmp/ccxd8uy7.s:11     .rodata.str1.8:0000000000000008 .LC1
     /tmp/ccxd8uy7.s:91     .text:0000000000000080 .L0 
     /tmp/ccxd8uy7.s:173    .text:00000000000000d8 .L0 
     /tmp/ccxd8uy7.s:180    .text:00000000000000e4 .L0 
     /tmp/ccxd8uy7.s:189    .text:00000000000000f8 .L0 
     /tmp/ccxd8uy7.s:195    .text:0000000000000100 .L0 
     /tmp/ccxd8uy7.s:203    .text:000000000000010c .L0 
     /tmp/ccxd8uy7.s:210    .text:0000000000000118 .L0 
     /tmp/ccxd8uy7.s:219    .text:000000000000012c .L0 
     /tmp/ccxd8uy7.s:225    .text:0000000000000134 .L0 
     /tmp/ccxd8uy7.s:122    .rodata.str1.8:0000000000000010 .LC2
     /tmp/ccxd8uy7.s:258    .text:000000000000015c .L0 
     /tmp/ccxd8uy7.s:125    .rodata.str1.8:0000000000000038 .LC3
     /tmp/ccxd8uy7.s:264    .text:000000000000016c .L0 
     /tmp/ccxd8uy7.s:128    .rodata.str1.8:0000000000000050 .LC4
     /tmp/ccxd8uy7.s:269    .text:000000000000017c .L0 
     /tmp/ccxd8uy7.s:131    .rodata.str1.8:0000000000000060 .LC5
     /tmp/ccxd8uy7.s:279    .text:0000000000000198 .L0 
     /tmp/ccxd8uy7.s:297    .text:00000000000001b8 .L0 
     /tmp/ccxd8uy7.s:303    .text:00000000000001c8 .L0 
     /tmp/ccxd8uy7.s:308    .text:00000000000001d8 .L0 
     /tmp/ccxd8uy7.s:318    .text:00000000000001f4 .L0 
     /tmp/ccxd8uy7.s:337    .text:0000000000000214 .L0 
     /tmp/ccxd8uy7.s:344    .text:0000000000000220 .L0 
     /tmp/ccxd8uy7.s:351    .text:000000000000022c .L0 
     /tmp/ccxd8uy7.s:357    .text:0000000000000234 .L0 
     /tmp/ccxd8uy7.s:381    .text:000000000000024c .L0 
     /tmp/ccxd8uy7.s:388    .text:0000000000000258 .L0 
     /tmp/ccxd8uy7.s:397    .text:000000000000026c .L0 
     /tmp/ccxd8uy7.s:403    .text:0000000000000274 .L0 
GAS LISTING /tmp/ccxd8uy7.s 			page 42


     /tmp/ccxd8uy7.s:412    .text:0000000000000280 .L0 
     /tmp/ccxd8uy7.s:419    .text:000000000000028c .L0 
     /tmp/ccxd8uy7.s:428    .text:00000000000002a0 .L0 
     /tmp/ccxd8uy7.s:434    .text:00000000000002a8 .L0 
     /tmp/ccxd8uy7.s:439    .text:00000000000002b0 .L0 
     /tmp/ccxd8uy7.s:446    .text:00000000000002bc .L0 
     /tmp/ccxd8uy7.s:453    .text:00000000000002c8 .L0 
     /tmp/ccxd8uy7.s:461    .text:00000000000002d4 .L0 
     /tmp/ccxd8uy7.s:502    .text:000000000000030c .L0 
     /tmp/ccxd8uy7.s:527    .text:0000000000000334 .L0 
     /tmp/ccxd8uy7.s:556    .text:0000000000000350 .L0 
     /tmp/ccxd8uy7.s:563    .text:000000000000035c .L0 
     /tmp/ccxd8uy7.s:572    .text:0000000000000370 .L0 
     /tmp/ccxd8uy7.s:578    .text:0000000000000378 .L0 
     /tmp/ccxd8uy7.s:622    .text:00000000000003b8 .L0 
     /tmp/ccxd8uy7.s:628    .text:00000000000003c8 .L0 
     /tmp/ccxd8uy7.s:633    .text:00000000000003d8 .L0 
     /tmp/ccxd8uy7.s:643    .text:00000000000003f4 .L0 
     /tmp/ccxd8uy7.s:661    .text:0000000000000414 .L0 
     /tmp/ccxd8uy7.s:666    .text:0000000000000424 .L0 
     /tmp/ccxd8uy7.s:671    .text:0000000000000434 .L0 
     /tmp/ccxd8uy7.s:681    .text:0000000000000450 .L0 
     /tmp/ccxd8uy7.s:699    .text:0000000000000470 .L0 
     /tmp/ccxd8uy7.s:704    .text:0000000000000480 .L0 
     /tmp/ccxd8uy7.s:709    .text:0000000000000490 .L0 
     /tmp/ccxd8uy7.s:719    .text:00000000000004ac .L0 
     /tmp/ccxd8uy7.s:476    .rodata.str1.8:0000000000000080 .LC6
     /tmp/ccxd8uy7.s:739    .text:00000000000004d0 .L0 
     /tmp/ccxd8uy7.s:747    .text:00000000000004e8 .L0 
     /tmp/ccxd8uy7.s:749    .text:00000000000004f4 .L0 
     /tmp/ccxd8uy7.s:761    .text:0000000000000500 .L0 
     /tmp/ccxd8uy7.s:767    .text:0000000000000514 .L0 
     /tmp/ccxd8uy7.s:777    .text:0000000000000520 .L0 
     /tmp/ccxd8uy7.s:782    .text:0000000000000530 .L0 
     /tmp/ccxd8uy7.s:787    .text:0000000000000540 .L0 
     /tmp/ccxd8uy7.s:797    .text:000000000000055c .L0 
     /tmp/ccxd8uy7.s:827    .text:0000000000000588 .L0 
     /tmp/ccxd8uy7.s:844    .text:00000000000005a8 .L0 
     /tmp/ccxd8uy7.s:849    .text:00000000000005b8 .L0 
     /tmp/ccxd8uy7.s:854    .text:00000000000005c8 .L0 
     /tmp/ccxd8uy7.s:864    .text:00000000000005e4 .L0 
     /tmp/ccxd8uy7.s:991    .text:00000000000006ac .L0 
     /tmp/ccxd8uy7.s:996    .text:00000000000006bc .L0 
     /tmp/ccxd8uy7.s:1001   .text:00000000000006cc .L0 
     /tmp/ccxd8uy7.s:1011   .text:00000000000006e8 .L0 
     /tmp/ccxd8uy7.s:1029   .text:0000000000000708 .L0 
     /tmp/ccxd8uy7.s:1034   .text:0000000000000718 .L0 
     /tmp/ccxd8uy7.s:1039   .text:0000000000000728 .L0 
     /tmp/ccxd8uy7.s:1049   .text:0000000000000744 .L0 
     /tmp/ccxd8uy7.s:1098   .text:0000000000000798 .L0 
     /tmp/ccxd8uy7.s:1139   .text:00000000000007d0 .L0 
     /tmp/ccxd8uy7.s:1145   .text:00000000000007e0 .L0 
     /tmp/ccxd8uy7.s:1150   .text:00000000000007f0 .L0 
     /tmp/ccxd8uy7.s:1160   .text:000000000000080c .L0 
     /tmp/ccxd8uy7.s:68     .text:0000000000000060 .L2
     /tmp/ccxd8uy7.s:100    .text:0000000000000098 .L3
     /tmp/ccxd8uy7.s:75     .text:0000000000000068 .L4
GAS LISTING /tmp/ccxd8uy7.s 			page 43


     /tmp/ccxd8uy7.s:249    .text:000000000000015c .L16
     /tmp/ccxd8uy7.s:290    .text:00000000000001b8 .L17
     /tmp/ccxd8uy7.s:190    .text:0000000000000100 .L9
     /tmp/ccxd8uy7.s:329    .text:0000000000000214 .L18
     /tmp/ccxd8uy7.s:220    .text:0000000000000134 .L13
     /tmp/ccxd8uy7.s:227    .text:000000000000013c .L14
     /tmp/ccxd8uy7.s:352    .text:0000000000000234 .L11
     /tmp/ccxd8uy7.s:238    .text:000000000000014c .L6
     /tmp/ccxd8uy7.s:398    .text:0000000000000274 .L20
     /tmp/ccxd8uy7.s:463    .text:00000000000002dc .L19
     /tmp/ccxd8uy7.s:429    .text:00000000000002a8 .L22
     /tmp/ccxd8uy7.s:454    .text:00000000000002d0 .L23
     /tmp/ccxd8uy7.s:616    .text:00000000000003b8 .L37
     /tmp/ccxd8uy7.s:654    .text:0000000000000414 .L38
     /tmp/ccxd8uy7.s:692    .text:0000000000000470 .L39
     /tmp/ccxd8uy7.s:573    .text:0000000000000378 .L29
     /tmp/ccxd8uy7.s:730    .text:00000000000004cc .L40
     /tmp/ccxd8uy7.s:808    .text:000000000000057c .L41
     /tmp/ccxd8uy7.s:582    .text:0000000000000384 .L30
     /tmp/ccxd8uy7.s:772    .text:0000000000000520 .L42
     /tmp/ccxd8uy7.s:586    .text:0000000000000388 .L32
     /tmp/ccxd8uy7.s:834    .text:00000000000005a0 .L43
     /tmp/ccxd8uy7.s:839    .text:00000000000005a8 .L44
     /tmp/ccxd8uy7.s:815    .text:0000000000000584 .L33
     /tmp/ccxd8uy7.s:985    .text:00000000000006ac .L51
     /tmp/ccxd8uy7.s:1022   .text:0000000000000708 .L52
     /tmp/ccxd8uy7.s:1060   .text:0000000000000764 .L53
     /tmp/ccxd8uy7.s:961    .text:0000000000000688 .L49
     /tmp/ccxd8uy7.s:1133   .text:00000000000007d0 .L58
     /tmp/ccxd8uy7.s:1171   .text:000000000000082c .L59
     /tmp/ccxd8uy7.s:1117   .text:00000000000007b8 .L56
     /tmp/ccxd8uy7.s:3127   .debug_abbrev:0000000000000000 .Ldebug_abbrev0
     /tmp/ccxd8uy7.s:5057   .debug_str:0000000000000570 .LASF100
     /tmp/ccxd8uy7.s:5073   .debug_str:000000000000069f .LASF101
     /tmp/ccxd8uy7.s:5021   .debug_str:0000000000000483 .LASF102
     /tmp/ccxd8uy7.s:5      .text:0000000000000000 .Ltext0
     /tmp/ccxd8uy7.s:1206   .text:0000000000000850 .Letext0
     /tmp/ccxd8uy7.s:4859   .debug_line:0000000000000000 .Ldebug_line0
     /tmp/ccxd8uy7.s:4979   .debug_str:000000000000034b .LASF0
     /tmp/ccxd8uy7.s:4995   .debug_str:00000000000003d4 .LASF1
     /tmp/ccxd8uy7.s:4963   .debug_str:00000000000002ca .LASF2
     /tmp/ccxd8uy7.s:4941   .debug_str:0000000000000259 .LASF4
     /tmp/ccxd8uy7.s:5041   .debug_str:000000000000050a .LASF3
     /tmp/ccxd8uy7.s:4883   .debug_str:0000000000000085 .LASF5
     /tmp/ccxd8uy7.s:4907   .debug_str:0000000000000159 .LASF6
     /tmp/ccxd8uy7.s:4999   .debug_str:00000000000003ec .LASF7
     /tmp/ccxd8uy7.s:4977   .debug_str:0000000000000338 .LASF8
     /tmp/ccxd8uy7.s:5063   .debug_str:0000000000000654 .LASF9
     /tmp/ccxd8uy7.s:4929   .debug_str:000000000000021a .LASF10
     /tmp/ccxd8uy7.s:5017   .debug_str:000000000000046b .LASF11
     /tmp/ccxd8uy7.s:5059   .debug_str:0000000000000634 .LASF12
     /tmp/ccxd8uy7.s:4885   .debug_str:000000000000008c .LASF13
     /tmp/ccxd8uy7.s:4869   .debug_str:000000000000002e .LASF14
     /tmp/ccxd8uy7.s:4893   .debug_str:00000000000000df .LASF15
     /tmp/ccxd8uy7.s:5035   .debug_str:00000000000004cf .LASF16
     /tmp/ccxd8uy7.s:4901   .debug_str:0000000000000108 .LASF17
     /tmp/ccxd8uy7.s:4895   .debug_str:00000000000000eb .LASF49
GAS LISTING /tmp/ccxd8uy7.s 			page 44


     /tmp/ccxd8uy7.s:4933   .debug_str:000000000000022e .LASF103
     /tmp/ccxd8uy7.s:5007   .debug_str:0000000000000437 .LASF18
     /tmp/ccxd8uy7.s:4971   .debug_str:00000000000002fe .LASF19
     /tmp/ccxd8uy7.s:5015   .debug_str:0000000000000465 .LASF20
     /tmp/ccxd8uy7.s:4969   .debug_str:00000000000002f1 .LASF21
     /tmp/ccxd8uy7.s:4955   .debug_str:0000000000000297 .LASF22
     /tmp/ccxd8uy7.s:5005   .debug_str:000000000000042b .LASF23
     /tmp/ccxd8uy7.s:5075   .debug_str:00000000000006b1 .LASF24
     /tmp/ccxd8uy7.s:5043   .debug_str:000000000000051c .LASF25
     /tmp/ccxd8uy7.s:4993   .debug_str:00000000000003bf .LASF26
     /tmp/ccxd8uy7.s:5053   .debug_str:0000000000000559 .LASF27
     /tmp/ccxd8uy7.s:4939   .debug_str:000000000000024d .LASF28
     /tmp/ccxd8uy7.s:4917   .debug_str:00000000000001b1 .LASF29
     /tmp/ccxd8uy7.s:4863   .debug_str:0000000000000006 .LASF30
     /tmp/ccxd8uy7.s:5055   .debug_str:0000000000000564 .LASF31
     /tmp/ccxd8uy7.s:4985   .debug_str:0000000000000379 .LASF33
     /tmp/ccxd8uy7.s:5013   .debug_str:0000000000000459 .LASF35
     /tmp/ccxd8uy7.s:4923   .debug_str:00000000000001e1 .LASF37
     /tmp/ccxd8uy7.s:4949   .debug_str:0000000000000278 .LASF48
     /tmp/ccxd8uy7.s:5003   .debug_str:0000000000000405 .LASF50
     /tmp/ccxd8uy7.s:5029   .debug_str:00000000000004bd .LASF104
     /tmp/ccxd8uy7.s:4957   .debug_str:00000000000002a3 .LASF32
     /tmp/ccxd8uy7.s:4875   .debug_str:000000000000005c .LASF34
     /tmp/ccxd8uy7.s:5081   .debug_str:00000000000006cd .LASF65
     /tmp/ccxd8uy7.s:4991   .debug_str:00000000000003a3 .LASF67
     /tmp/ccxd8uy7.s:5045   .debug_str:000000000000052d .LASF36
     /tmp/ccxd8uy7.s:4873   .debug_str:0000000000000049 .LASF38
     /tmp/ccxd8uy7.s:4877   .debug_str:000000000000006f .LASF39
     /tmp/ccxd8uy7.s:4945   .debug_str:000000000000026b .LASF40
     /tmp/ccxd8uy7.s:4987   .debug_str:0000000000000394 .LASF41
     /tmp/ccxd8uy7.s:5077   .debug_str:00000000000006bc .LASF42
     /tmp/ccxd8uy7.s:4989   .debug_str:0000000000000399 .LASF43
     /tmp/ccxd8uy7.s:4931   .debug_str:0000000000000228 .LASF44
     /tmp/ccxd8uy7.s:5069   .debug_str:0000000000000674 .LASF45
     /tmp/ccxd8uy7.s:4965   .debug_str:00000000000002d8 .LASF46
     /tmp/ccxd8uy7.s:4925   .debug_str:00000000000001fe .LASF47
     /tmp/ccxd8uy7.s:4981   .debug_str:0000000000000358 .LASF51
     /tmp/ccxd8uy7.s:5009   .debug_str:000000000000043f .LASF52
     /tmp/ccxd8uy7.s:5079   .debug_str:00000000000006c8 .LASF53
     /tmp/ccxd8uy7.s:5071   .debug_str:0000000000000681 .LASF54
     /tmp/ccxd8uy7.s:4871   .debug_str:000000000000003e .LASF61
     /tmp/ccxd8uy7.s:5037   .debug_str:00000000000004e5 .LASF63
     /tmp/ccxd8uy7.s:4911   .debug_str:000000000000017a .LASF55
     /tmp/ccxd8uy7.s:4909   .debug_str:0000000000000160 .LASF56
     /tmp/ccxd8uy7.s:4887   .debug_str:000000000000009c .LASF57
     /tmp/ccxd8uy7.s:5019   .debug_str:000000000000047a .LASF58
     /tmp/ccxd8uy7.s:4919   .debug_str:00000000000001c0 .LASF59
     /tmp/ccxd8uy7.s:5011   .debug_str:000000000000044f .LASF60
     /tmp/ccxd8uy7.s:4937   .debug_str:0000000000000239 .LASF105
     /tmp/ccxd8uy7.s:5051   .debug_str:0000000000000553 .LASF62
     /tmp/ccxd8uy7.s:4905   .debug_str:0000000000000143 .LASF64
     /tmp/ccxd8uy7.s:5023   .debug_str:0000000000000497 .LASF66
     /tmp/ccxd8uy7.s:4975   .debug_str:0000000000000318 .LASF68
     /tmp/ccxd8uy7.s:4967   .debug_str:00000000000002dd .LASF69
     /tmp/ccxd8uy7.s:4903   .debug_str:000000000000011e .LASF70
     /tmp/ccxd8uy7.s:4947   .debug_str:0000000000000270 .LASF71
     /tmp/ccxd8uy7.s:4891   .debug_str:00000000000000c7 .LASF72
GAS LISTING /tmp/ccxd8uy7.s 			page 45


     /tmp/ccxd8uy7.s:4921   .debug_str:00000000000001c5 .LASF106
     /tmp/ccxd8uy7.s:4879   .debug_str:0000000000000075 .LASF73
     /tmp/ccxd8uy7.s:5049   .debug_str:0000000000000537 .LASF74
     /tmp/ccxd8uy7.s:5001   .debug_str:00000000000003ff .LASF75
     /tmp/ccxd8uy7.s:4959   .debug_str:00000000000002a8 .LASF84
     /tmp/ccxd8uy7.s:367    .text:0000000000000240 .LFB13
     /tmp/ccxd8uy7.s:472    .text:00000000000002e8 .LFE13
     /tmp/ccxd8uy7.s:377    .text:000000000000024c .LBB90
     /tmp/ccxd8uy7.s:401    .text:0000000000000274 .LBE90
     /tmp/ccxd8uy7.s:384    .text:0000000000000258 .LBB92
     /tmp/ccxd8uy7.s:394    .text:0000000000000268 .LBE92
     /tmp/ccxd8uy7.s:4057   .debug_loc:0000000000000000 .LLST13
     /tmp/ccxd8uy7.s:408    .text:0000000000000280 .LBB95
     /tmp/ccxd8uy7.s:432    .text:00000000000002a8 .LBE95
     /tmp/ccxd8uy7.s:415    .text:000000000000028c .LBB97
     /tmp/ccxd8uy7.s:425    .text:000000000000029c .LBE97
     /tmp/ccxd8uy7.s:4066   .debug_loc:000000000000002c .LLST14
     /tmp/ccxd8uy7.s:435    .text:00000000000002b0 .LBB100
     /tmp/ccxd8uy7.s:457    .text:00000000000002d0 .LBE100
     /tmp/ccxd8uy7.s:442    .text:00000000000002bc .LBB102
     /tmp/ccxd8uy7.s:450    .text:00000000000002c4 .LBE102
     /tmp/ccxd8uy7.s:4075   .debug_loc:0000000000000058 .LLST15
     /tmp/ccxd8uy7.s:138    .text:00000000000000b4 .LFB12
     /tmp/ccxd8uy7.s:361    .text:0000000000000240 .LFE12
     /tmp/ccxd8uy7.s:4084   .debug_loc:0000000000000084 .LLST2
     /tmp/ccxd8uy7.s:4997   .debug_str:00000000000003e7 .LASF76
     /tmp/ccxd8uy7.s:4113   .debug_loc:00000000000000f9 .LLST3
     /tmp/ccxd8uy7.s:156    .text:00000000000000d0 .LBB69
     /tmp/ccxd8uy7.s:4803   .debug_ranges:0000000000000000 .Ldebug_ranges0
     /tmp/ccxd8uy7.s:4124   .debug_loc:000000000000012f .LLST4
     /tmp/ccxd8uy7.s:4139   .debug_loc:0000000000000169 .LLST5
     /tmp/ccxd8uy7.s:4154   .debug_loc:00000000000001b1 .LLST6
     /tmp/ccxd8uy7.s:300    .text:00000000000001c8 .LVL31
     /tmp/ccxd8uy7.s:305    .text:00000000000001d8 .LVL32
     /tmp/ccxd8uy7.s:310    .text:00000000000001e8 .LVL33
     /tmp/ccxd8uy7.s:315    .text:00000000000001f4 .LVL34
     /tmp/ccxd8uy7.s:320    .text:0000000000000204 .LVL35
     /tmp/ccxd8uy7.s:324    .text:000000000000020c .LVL36
     /tmp/ccxd8uy7.s:328    .text:0000000000000214 .LVL37
     /tmp/ccxd8uy7.s:169    .text:00000000000000d8 .LBB72
     /tmp/ccxd8uy7.s:193    .text:0000000000000100 .LBE72
     /tmp/ccxd8uy7.s:176    .text:00000000000000e4 .LBB74
     /tmp/ccxd8uy7.s:186    .text:00000000000000f4 .LBE74
     /tmp/ccxd8uy7.s:4173   .debug_loc:00000000000001ef .LLST7
     /tmp/ccxd8uy7.s:199    .text:000000000000010c .LBB77
     /tmp/ccxd8uy7.s:223    .text:0000000000000134 .LBE77
     /tmp/ccxd8uy7.s:206    .text:0000000000000118 .LBB79
     /tmp/ccxd8uy7.s:216    .text:0000000000000128 .LBE79
     /tmp/ccxd8uy7.s:4182   .debug_loc:000000000000021b .LLST8
     /tmp/ccxd8uy7.s:253    .text:000000000000015c .LBB82
     /tmp/ccxd8uy7.s:292    .text:00000000000001b8 .LBE82
     /tmp/ccxd8uy7.s:4191   .debug_loc:0000000000000247 .LLST9
     /tmp/ccxd8uy7.s:4200   .debug_loc:000000000000026c .LLST10
     /tmp/ccxd8uy7.s:4209   .debug_loc:0000000000000298 .LLST11
     /tmp/ccxd8uy7.s:261    .text:000000000000016c .LVL23
     /tmp/ccxd8uy7.s:266    .text:000000000000017c .LVL24
     /tmp/ccxd8uy7.s:271    .text:000000000000018c .LVL25
GAS LISTING /tmp/ccxd8uy7.s 			page 46


     /tmp/ccxd8uy7.s:276    .text:0000000000000198 .LVL26
     /tmp/ccxd8uy7.s:281    .text:00000000000001a8 .LVL27
     /tmp/ccxd8uy7.s:285    .text:00000000000001b0 .LVL28
     /tmp/ccxd8uy7.s:289    .text:00000000000001b8 .LVL29
     /tmp/ccxd8uy7.s:333    .text:0000000000000214 .LBB85
     /tmp/ccxd8uy7.s:355    .text:0000000000000234 .LBE85
     /tmp/ccxd8uy7.s:340    .text:0000000000000220 .LBB87
     /tmp/ccxd8uy7.s:348    .text:0000000000000228 .LBE87
     /tmp/ccxd8uy7.s:4217   .debug_loc:00000000000002bc .LLST12
     /tmp/ccxd8uy7.s:483    .text:00000000000002e8 .LFB11
     /tmp/ccxd8uy7.s:878    .text:0000000000000604 .LFE11
     /tmp/ccxd8uy7.s:5047   .debug_str:0000000000000532 .LASF77
     /tmp/ccxd8uy7.s:4226   .debug_loc:00000000000002e8 .LLST16
     /tmp/ccxd8uy7.s:4881   .debug_str:0000000000000080 .LASF78
     /tmp/ccxd8uy7.s:4241   .debug_loc:0000000000000331 .LLST17
     /tmp/ccxd8uy7.s:4915   .debug_str:00000000000001a4 .LASF79
     /tmp/ccxd8uy7.s:5061   .debug_str:0000000000000643 .LASF80
     /tmp/ccxd8uy7.s:4256   .debug_loc:000000000000037a .LLST18
     /tmp/ccxd8uy7.s:4927   .debug_str:000000000000020d .LASF81
     /tmp/ccxd8uy7.s:4283   .debug_loc:00000000000003cf .LLST19
     /tmp/ccxd8uy7.s:505    .text:0000000000000318 .LBB120
     /tmp/ccxd8uy7.s:4327   .debug_loc:000000000000045a .LLST20
     /tmp/ccxd8uy7.s:4342   .debug_loc:0000000000000494 .LLST21
     /tmp/ccxd8uy7.s:4357   .debug_loc:00000000000004dc .LLST22
     /tmp/ccxd8uy7.s:625    .text:00000000000003c8 .LVL67
     /tmp/ccxd8uy7.s:630    .text:00000000000003d8 .LVL68
     /tmp/ccxd8uy7.s:635    .text:00000000000003e8 .LVL69
     /tmp/ccxd8uy7.s:640    .text:00000000000003f4 .LVL70
     /tmp/ccxd8uy7.s:645    .text:0000000000000404 .LVL71
     /tmp/ccxd8uy7.s:649    .text:000000000000040c .LVL72
     /tmp/ccxd8uy7.s:653    .text:0000000000000414 .LVL73
     /tmp/ccxd8uy7.s:529    .text:000000000000033c .LBB123
     /tmp/ccxd8uy7.s:4382   .debug_loc:0000000000000520 .LLST23
     /tmp/ccxd8uy7.s:4397   .debug_loc:000000000000055a .LLST24
     /tmp/ccxd8uy7.s:4412   .debug_loc:00000000000005a2 .LLST25
     /tmp/ccxd8uy7.s:663    .text:0000000000000424 .LVL74
     /tmp/ccxd8uy7.s:668    .text:0000000000000434 .LVL75
     /tmp/ccxd8uy7.s:673    .text:0000000000000444 .LVL76
     /tmp/ccxd8uy7.s:678    .text:0000000000000450 .LVL77
     /tmp/ccxd8uy7.s:683    .text:0000000000000460 .LVL78
     /tmp/ccxd8uy7.s:687    .text:0000000000000468 .LVL79
     /tmp/ccxd8uy7.s:691    .text:0000000000000470 .LVL80
     /tmp/ccxd8uy7.s:542    .text:000000000000034c .LBB126
     /tmp/ccxd8uy7.s:4437   .debug_loc:00000000000005e6 .LLST26
     /tmp/ccxd8uy7.s:4452   .debug_loc:0000000000000620 .LLST27
     /tmp/ccxd8uy7.s:4467   .debug_loc:0000000000000668 .LLST28
     /tmp/ccxd8uy7.s:701    .text:0000000000000480 .LVL81
     /tmp/ccxd8uy7.s:706    .text:0000000000000490 .LVL82
     /tmp/ccxd8uy7.s:711    .text:00000000000004a0 .LVL83
     /tmp/ccxd8uy7.s:716    .text:00000000000004ac .LVL84
     /tmp/ccxd8uy7.s:721    .text:00000000000004bc .LVL85
     /tmp/ccxd8uy7.s:725    .text:00000000000004c4 .LVL86
     /tmp/ccxd8uy7.s:729    .text:00000000000004cc .LVL87
     /tmp/ccxd8uy7.s:552    .text:0000000000000350 .LBB129
     /tmp/ccxd8uy7.s:576    .text:0000000000000378 .LBE129
     /tmp/ccxd8uy7.s:559    .text:000000000000035c .LBB131
     /tmp/ccxd8uy7.s:569    .text:000000000000036c .LBE131
GAS LISTING /tmp/ccxd8uy7.s 			page 47


     /tmp/ccxd8uy7.s:4486   .debug_loc:00000000000006a6 .LLST29
     /tmp/ccxd8uy7.s:751    .text:00000000000004fc .LBB137
     /tmp/ccxd8uy7.s:4495   .debug_loc:00000000000006d2 .LLST30
     /tmp/ccxd8uy7.s:4510   .debug_loc:000000000000070c .LLST31
     /tmp/ccxd8uy7.s:4525   .debug_loc:0000000000000754 .LLST32
     /tmp/ccxd8uy7.s:779    .text:0000000000000530 .LVL95
     /tmp/ccxd8uy7.s:784    .text:0000000000000540 .LVL96
     /tmp/ccxd8uy7.s:789    .text:0000000000000550 .LVL97
     /tmp/ccxd8uy7.s:794    .text:000000000000055c .LVL98
     /tmp/ccxd8uy7.s:799    .text:000000000000056c .LVL99
     /tmp/ccxd8uy7.s:803    .text:0000000000000574 .LVL100
     /tmp/ccxd8uy7.s:807    .text:000000000000057c .LVL101
     /tmp/ccxd8uy7.s:817    .text:0000000000000584 .LBB141
     /tmp/ccxd8uy7.s:4550   .debug_loc:0000000000000798 .LLST33
     /tmp/ccxd8uy7.s:4565   .debug_loc:00000000000007d2 .LLST34
     /tmp/ccxd8uy7.s:4580   .debug_loc:000000000000081a .LLST35
     /tmp/ccxd8uy7.s:846    .text:00000000000005b8 .LVL108
     /tmp/ccxd8uy7.s:851    .text:00000000000005c8 .LVL109
     /tmp/ccxd8uy7.s:856    .text:00000000000005d8 .LVL110
     /tmp/ccxd8uy7.s:861    .text:00000000000005e4 .LVL111
     /tmp/ccxd8uy7.s:866    .text:00000000000005f4 .LVL112
     /tmp/ccxd8uy7.s:870    .text:00000000000005fc .LVL113
     /tmp/ccxd8uy7.s:874    .text:0000000000000604 .LVL114
     /tmp/ccxd8uy7.s:500    .text:0000000000000308 .LVL47
     /tmp/ccxd8uy7.s:516    .text:0000000000000324 .LVL50
     /tmp/ccxd8uy7.s:522    .text:0000000000000330 .LVL52
     /tmp/ccxd8uy7.s:598    .text:00000000000003a0 .LVL62
     /tmp/ccxd8uy7.s:741    .text:00000000000004e0 .LVL89
     /tmp/ccxd8uy7.s:745    .text:00000000000004e8 .LVL90
     /tmp/ccxd8uy7.s:831    .text:000000000000059c .LVL105
     /tmp/ccxd8uy7.s:18     .text:0000000000000000 .LFB10
     /tmp/ccxd8uy7.s:118    .text:00000000000000b4 .LFE10
     /tmp/ccxd8uy7.s:4591   .debug_loc:0000000000000850 .LLST0
     /tmp/ccxd8uy7.s:46     .text:0000000000000038 .LBB45
     /tmp/ccxd8uy7.s:71     .text:0000000000000060 .LBE45
     /tmp/ccxd8uy7.s:54     .text:0000000000000044 .LBB47
     /tmp/ccxd8uy7.s:64     .text:0000000000000054 .LBE47
     /tmp/ccxd8uy7.s:4598   .debug_loc:0000000000000873 .LLST1
     /tmp/ccxd8uy7.s:35     .text:000000000000001c .LVL0
     /tmp/ccxd8uy7.s:39     .text:0000000000000028 .LVL1
     /tmp/ccxd8uy7.s:44     .text:0000000000000038 .LVL2
     /tmp/ccxd8uy7.s:83     .text:0000000000000078 .LVL6
     /tmp/ccxd8uy7.s:93     .text:0000000000000090 .LVL7
     /tmp/ccxd8uy7.s:104    .text:00000000000000a0 .LVL9
     /tmp/ccxd8uy7.s:1083   .text:0000000000000780 .LFB9
     /tmp/ccxd8uy7.s:1189   .text:0000000000000850 .LFE9
     /tmp/ccxd8uy7.s:1100   .text:00000000000007a0 .LBB159
     /tmp/ccxd8uy7.s:4607   .debug_loc:000000000000089f .LLST44
     /tmp/ccxd8uy7.s:4620   .debug_loc:00000000000008d7 .LLST45
     /tmp/ccxd8uy7.s:4635   .debug_loc:000000000000091f .LLST46
     /tmp/ccxd8uy7.s:1142   .text:00000000000007e0 .LVL153
     /tmp/ccxd8uy7.s:1147   .text:00000000000007f0 .LVL154
     /tmp/ccxd8uy7.s:1152   .text:0000000000000800 .LVL155
     /tmp/ccxd8uy7.s:1157   .text:000000000000080c .LVL156
     /tmp/ccxd8uy7.s:1162   .text:000000000000081c .LVL157
     /tmp/ccxd8uy7.s:1166   .text:0000000000000824 .LVL158
     /tmp/ccxd8uy7.s:1170   .text:000000000000082c .LVL159
GAS LISTING /tmp/ccxd8uy7.s 			page 48


     /tmp/ccxd8uy7.s:1097   .text:0000000000000798 .LVL146
     /tmp/ccxd8uy7.s:1111   .text:00000000000007ac .LVL149
     /tmp/ccxd8uy7.s:1121   .text:00000000000007c0 .LVL150
     /tmp/ccxd8uy7.s:1177   .text:0000000000000834 .LVL160
     /tmp/ccxd8uy7.s:1184   .text:0000000000000844 .LVL161
     /tmp/ccxd8uy7.s:1186   .text:000000000000084c .LVL162
     /tmp/ccxd8uy7.s:884    .text:0000000000000604 .LFB8
     /tmp/ccxd8uy7.s:1077   .text:0000000000000780 .LFE8
     /tmp/ccxd8uy7.s:5025   .debug_str:00000000000004a6 .LASF107
     /tmp/ccxd8uy7.s:4660   .debug_loc:0000000000000963 .LLST36
     /tmp/ccxd8uy7.s:5065   .debug_str:0000000000000664 .LASF82
     /tmp/ccxd8uy7.s:4682   .debug_loc:00000000000009c2 .LLST37
     /tmp/ccxd8uy7.s:907    .text:0000000000000630 .LBB149
     /tmp/ccxd8uy7.s:4704   .debug_loc:0000000000000a21 .LLST38
     /tmp/ccxd8uy7.s:4717   .debug_loc:0000000000000a59 .LLST39
     /tmp/ccxd8uy7.s:4732   .debug_loc:0000000000000aa1 .LLST40
     /tmp/ccxd8uy7.s:993    .text:00000000000006bc .LVL130
     /tmp/ccxd8uy7.s:998    .text:00000000000006cc .LVL131
     /tmp/ccxd8uy7.s:1003   .text:00000000000006dc .LVL132
     /tmp/ccxd8uy7.s:1008   .text:00000000000006e8 .LVL133
     /tmp/ccxd8uy7.s:1013   .text:00000000000006f8 .LVL134
     /tmp/ccxd8uy7.s:1017   .text:0000000000000700 .LVL135
     /tmp/ccxd8uy7.s:1021   .text:0000000000000708 .LVL136
     /tmp/ccxd8uy7.s:921    .text:0000000000000644 .LBB152
     /tmp/ccxd8uy7.s:4751   .debug_loc:0000000000000adf .LLST41
     /tmp/ccxd8uy7.s:4764   .debug_loc:0000000000000b17 .LLST42
     /tmp/ccxd8uy7.s:4779   .debug_loc:0000000000000b5f .LLST43
     /tmp/ccxd8uy7.s:1031   .text:0000000000000718 .LVL137
     /tmp/ccxd8uy7.s:1036   .text:0000000000000728 .LVL138
     /tmp/ccxd8uy7.s:1041   .text:0000000000000738 .LVL139
     /tmp/ccxd8uy7.s:1046   .text:0000000000000744 .LVL140
     /tmp/ccxd8uy7.s:1051   .text:0000000000000754 .LVL141
     /tmp/ccxd8uy7.s:1055   .text:000000000000075c .LVL142
     /tmp/ccxd8uy7.s:1059   .text:0000000000000764 .LVL143
     /tmp/ccxd8uy7.s:904    .text:000000000000062c .LVL116
     /tmp/ccxd8uy7.s:917    .text:000000000000063c .LVL119
     /tmp/ccxd8uy7.s:932    .text:0000000000000650 .LVL122
     /tmp/ccxd8uy7.s:939    .text:0000000000000660 .LVL123
     /tmp/ccxd8uy7.s:950    .text:0000000000000674 .LVL124
     /tmp/ccxd8uy7.s:958    .text:0000000000000684 .LVL125
     /tmp/ccxd8uy7.s:965    .text:0000000000000690 .LVL126
     /tmp/ccxd8uy7.s:1066   .text:000000000000076c .LVL144
     /tmp/ccxd8uy7.s:1072   .text:0000000000000778 .LVL145
     /tmp/ccxd8uy7.s:5027   .debug_str:00000000000004ab .LASF108
     /tmp/ccxd8uy7.s:4983   .debug_str:0000000000000370 .LASF109
     /tmp/ccxd8uy7.s:4913   .debug_str:0000000000000185 .LASF110
     /tmp/ccxd8uy7.s:5033   .debug_str:00000000000004c7 .LASF83
     /tmp/ccxd8uy7.s:4899   .debug_str:00000000000000f8 .LASF85
     /tmp/ccxd8uy7.s:4861   .debug_str:0000000000000000 .LASF86
     /tmp/ccxd8uy7.s:4897   .debug_str:00000000000000f3 .LASF87
     /tmp/ccxd8uy7.s:5031   .debug_str:00000000000004c2 .LASF88
     /tmp/ccxd8uy7.s:4935   .debug_str:0000000000000234 .LASF89
     /tmp/ccxd8uy7.s:4889   .debug_str:00000000000000b7 .LASF90
     /tmp/ccxd8uy7.s:4867   .debug_str:0000000000000024 .LASF92
     /tmp/ccxd8uy7.s:4943   .debug_str:0000000000000260 .LASF91
     /tmp/ccxd8uy7.s:4865   .debug_str:000000000000001d .LASF93
     /tmp/ccxd8uy7.s:4961   .debug_str:00000000000002ba .LASF94
GAS LISTING /tmp/ccxd8uy7.s 			page 49


     /tmp/ccxd8uy7.s:5039   .debug_str:00000000000004ff .LASF95
     /tmp/ccxd8uy7.s:4973   .debug_str:0000000000000308 .LASF96
     /tmp/ccxd8uy7.s:4953   .debug_str:000000000000028c .LASF97
     /tmp/ccxd8uy7.s:5067   .debug_str:0000000000000669 .LASF98
     /tmp/ccxd8uy7.s:4951   .debug_str:0000000000000285 .LASF99
     /tmp/ccxd8uy7.s:383    .text:0000000000000258 .LVL40
     /tmp/ccxd8uy7.s:391    .text:0000000000000268 .LVL41
     /tmp/ccxd8uy7.s:414    .text:000000000000028c .LVL43
     /tmp/ccxd8uy7.s:422    .text:000000000000029c .LVL44
     /tmp/ccxd8uy7.s:441    .text:00000000000002bc .LVL45
     /tmp/ccxd8uy7.s:447    .text:00000000000002c4 .LVL46
     /tmp/ccxd8uy7.s:141    .text:00000000000000b4 .LVL11
     /tmp/ccxd8uy7.s:259    .text:0000000000000164 .LVL22
     /tmp/ccxd8uy7.s:298    .text:00000000000001c0 .LVL30
     /tmp/ccxd8uy7.s:226    .text:000000000000013c .LVL18
     /tmp/ccxd8uy7.s:232    .text:0000000000000144 .LVL19
     /tmp/ccxd8uy7.s:237    .text:000000000000014c .LVL20
     /tmp/ccxd8uy7.s:155    .text:00000000000000d0 .LVL12
     /tmp/ccxd8uy7.s:162    .text:00000000000000d4 .LVL13
     /tmp/ccxd8uy7.s:175    .text:00000000000000e4 .LVL14
     /tmp/ccxd8uy7.s:183    .text:00000000000000f4 .LVL15
     /tmp/ccxd8uy7.s:205    .text:0000000000000118 .LVL16
     /tmp/ccxd8uy7.s:213    .text:0000000000000128 .LVL17
     /tmp/ccxd8uy7.s:252    .text:000000000000015c .LVL21
     /tmp/ccxd8uy7.s:339    .text:0000000000000220 .LVL38
     /tmp/ccxd8uy7.s:345    .text:0000000000000228 .LVL39
     /tmp/ccxd8uy7.s:518    .text:0000000000000328 .LVL51
     /tmp/ccxd8uy7.s:611    .text:00000000000003b0 .LVL64
     /tmp/ccxd8uy7.s:524    .text:0000000000000334 .LVL53
     /tmp/ccxd8uy7.s:608    .text:00000000000003ac .LVL63
     /tmp/ccxd8uy7.s:736    .text:00000000000004d0 .LVL88
     /tmp/ccxd8uy7.s:547    .text:0000000000000350 .LVL57
     /tmp/ccxd8uy7.s:585    .text:0000000000000388 .LVL61
     /tmp/ccxd8uy7.s:768    .text:000000000000051c .LVL93
     /tmp/ccxd8uy7.s:771    .text:0000000000000520 .LVL94
     /tmp/ccxd8uy7.s:579    .text:0000000000000380 .LVL60
     /tmp/ccxd8uy7.s:828    .text:0000000000000590 .LVL104
     /tmp/ccxd8uy7.s:833    .text:00000000000005a0 .LVL106
     /tmp/ccxd8uy7.s:504    .text:0000000000000318 .LVL48
     /tmp/ccxd8uy7.s:510    .text:000000000000031c .LVL49
     /tmp/ccxd8uy7.s:615    .text:00000000000003b8 .LVL65
     /tmp/ccxd8uy7.s:623    .text:00000000000003c0 .LVL66
     /tmp/ccxd8uy7.s:528    .text:000000000000033c .LVL54
     /tmp/ccxd8uy7.s:534    .text:0000000000000340 .LVL55
     /tmp/ccxd8uy7.s:541    .text:000000000000034c .LVL56
     /tmp/ccxd8uy7.s:558    .text:000000000000035c .LVL58
     /tmp/ccxd8uy7.s:566    .text:000000000000036c .LVL59
     /tmp/ccxd8uy7.s:750    .text:00000000000004fc .LVL91
     /tmp/ccxd8uy7.s:756    .text:0000000000000500 .LVL92
     /tmp/ccxd8uy7.s:816    .text:0000000000000584 .LVL102
     /tmp/ccxd8uy7.s:822    .text:0000000000000588 .LVL103
     /tmp/ccxd8uy7.s:838    .text:00000000000005a8 .LVL107
     /tmp/ccxd8uy7.s:74     .text:0000000000000068 .LVL5
     /tmp/ccxd8uy7.s:113    .text:00000000000000ac .LVL10
     /tmp/ccxd8uy7.s:53     .text:0000000000000044 .LVL3
     /tmp/ccxd8uy7.s:61     .text:0000000000000054 .LVL4
     /tmp/ccxd8uy7.s:1099   .text:00000000000007a0 .LVL147
GAS LISTING /tmp/ccxd8uy7.s 			page 50


     /tmp/ccxd8uy7.s:1105   .text:00000000000007a4 .LVL148
     /tmp/ccxd8uy7.s:1132   .text:00000000000007d0 .LVL151
     /tmp/ccxd8uy7.s:1140   .text:00000000000007d8 .LVL152
     /tmp/ccxd8uy7.s:887    .text:0000000000000604 .LVL115
     /tmp/ccxd8uy7.s:977    .text:00000000000006a0 .LVL127
     /tmp/ccxd8uy7.s:984    .text:00000000000006ac .LVL129
     /tmp/ccxd8uy7.s:980    .text:00000000000006a4 .LVL128
     /tmp/ccxd8uy7.s:906    .text:0000000000000630 .LVL117
     /tmp/ccxd8uy7.s:912    .text:0000000000000634 .LVL118
     /tmp/ccxd8uy7.s:920    .text:0000000000000644 .LVL120
     /tmp/ccxd8uy7.s:926    .text:0000000000000648 .LVL121
     /tmp/ccxd8uy7.s:1211   .debug_info:0000000000000000 .Ldebug_info0
     /tmp/ccxd8uy7.s:164    .text:00000000000000d4 .LBE69
     /tmp/ccxd8uy7.s:293    .text:00000000000001b8 .LBB84
     /tmp/ccxd8uy7.s:331    .text:0000000000000214 .LBE84
     /tmp/ccxd8uy7.s:512    .text:000000000000031c .LBE120
     /tmp/ccxd8uy7.s:618    .text:00000000000003b8 .LBB134
     /tmp/ccxd8uy7.s:656    .text:0000000000000414 .LBE134
     /tmp/ccxd8uy7.s:536    .text:0000000000000340 .LBE123
     /tmp/ccxd8uy7.s:657    .text:0000000000000414 .LBB135
     /tmp/ccxd8uy7.s:694    .text:0000000000000470 .LBE135
     /tmp/ccxd8uy7.s:549    .text:0000000000000350 .LBE126
     /tmp/ccxd8uy7.s:695    .text:0000000000000470 .LBB136
     /tmp/ccxd8uy7.s:732    .text:00000000000004cc .LBE136
     /tmp/ccxd8uy7.s:758    .text:0000000000000500 .LBE137
     /tmp/ccxd8uy7.s:773    .text:0000000000000520 .LBB140
     /tmp/ccxd8uy7.s:810    .text:000000000000057c .LBE140
     /tmp/ccxd8uy7.s:824    .text:0000000000000588 .LBE141
     /tmp/ccxd8uy7.s:840    .text:00000000000005a8 .LBB144
     /tmp/ccxd8uy7.s:876    .text:0000000000000604 .LBE144
     /tmp/ccxd8uy7.s:914    .text:0000000000000634 .LBE149
     /tmp/ccxd8uy7.s:987    .text:00000000000006ac .LBB155
     /tmp/ccxd8uy7.s:1024   .text:0000000000000708 .LBE155
     /tmp/ccxd8uy7.s:928    .text:0000000000000648 .LBE152
     /tmp/ccxd8uy7.s:1025   .text:0000000000000708 .LBB156
     /tmp/ccxd8uy7.s:1062   .text:0000000000000764 .LBE156
     /tmp/ccxd8uy7.s:1107   .text:00000000000007a4 .LBE159
     /tmp/ccxd8uy7.s:1135   .text:00000000000007d0 .LBB162
     /tmp/ccxd8uy7.s:1173   .text:000000000000082c .LBE162

UNDEFINED SYMBOLS
_ZN7IThread11getPRunningEv
_Z6putU64m
_Z9putStringPKc
_Z10putNewlinev
_Z6putInti
_Z10stopKernelv
_ZN7IThread10pRunningSpE
kernelThread
_ZN7IThread11pAllThreadsE
