GAS LISTING /tmp/cc728Fbo.s 			page 1


   1              		.file	"scheduler.cpp"
   2              		.option pic
   3              		.option norelax
   4              		.text
   5              	.Ltext0:
   6              		.section	.rodata.str1.8,"aMS",@progbits,1
   7              		.align	3
   8              	.LC0:
   9 0000 3A202000 		.string	":  "
  10 0004 00000000 		.align	3
  11              	.LC1:
  12 0008 2D3E00   		.string	"->"
  13              		.text
  14              		.align	2
  15              		.globl	_ZN9Scheduler10printStateEv
  17              	_ZN9Scheduler10printStateEv:
  18              	.LFB14:
  19              		.file 1 "src/scheduler.cpp"
   1:src/scheduler.cpp **** #include "../h/scheduler.h"
   2:src/scheduler.cpp **** 
   3:src/scheduler.cpp **** int Scheduler::sleep(time_t time)
   4:src/scheduler.cpp **** {
   5:src/scheduler.cpp ****     assert(IThread::getPRunning()->state == IThread::RUNNING);
   6:src/scheduler.cpp ****     assert(IThread::getPRunning()->done == false);
   7:src/scheduler.cpp **** 
   8:src/scheduler.cpp ****     IThread::getPRunning()->state = IThread::SUSPENDED;
   9:src/scheduler.cpp ****     IThread::getPRunning()->remainingSleep = time;
  10:src/scheduler.cpp **** 
  11:src/scheduler.cpp ****     if(pSleepHead == nullptr)
  12:src/scheduler.cpp ****     {
  13:src/scheduler.cpp ****         pSleepHead = IThread::getPRunning();
  14:src/scheduler.cpp ****         IThread::getPRunning()->pNext = nullptr;
  15:src/scheduler.cpp ****     }
  16:src/scheduler.cpp ****     else
  17:src/scheduler.cpp ****     {
  18:src/scheduler.cpp ****         IThread::getPRunning()->pNext = pSleepHead;
  19:src/scheduler.cpp ****         pSleepHead = IThread::getPRunning();
  20:src/scheduler.cpp ****     }
  21:src/scheduler.cpp **** 
  22:src/scheduler.cpp ****     dispatchToNext();
  23:src/scheduler.cpp **** 
  24:src/scheduler.cpp ****     return 0;
  25:src/scheduler.cpp **** }
  26:src/scheduler.cpp **** 
  27:src/scheduler.cpp **** void Scheduler::dispatchUserVersion()
  28:src/scheduler.cpp **** {
  29:src/scheduler.cpp ****     extern IThread kernelThread;
  30:src/scheduler.cpp ****     assert(IThread::getPRunning() !=
  31:src/scheduler.cpp ****            &kernelThread); // you're only supposed to open user threads with system call with code 
  32:src/scheduler.cpp **** 
  33:src/scheduler.cpp ****     if(IThread::getPRunning()->id != BUSY_WAIT_THREAD_ID)
  34:src/scheduler.cpp ****     {
  35:src/scheduler.cpp ****         IThread::getPRunning()->state = IThread::READY;
  36:src/scheduler.cpp ****         Scheduler::put(IThread::getPRunning());
  37:src/scheduler.cpp ****     }
  38:src/scheduler.cpp **** 
  39:src/scheduler.cpp ****     Scheduler::dispatchToNext();
GAS LISTING /tmp/cc728Fbo.s 			page 2


  40:src/scheduler.cpp **** }
  41:src/scheduler.cpp **** 
  42:src/scheduler.cpp **** void Scheduler::printState()
  43:src/scheduler.cpp **** {
  20              		.loc 1 43 1
  21              		.cfi_startproc
  22 0000 130101FE 		addi	sp,sp,-32
  23              		.cfi_def_cfa_offset 32
  24 0004 233C1100 		sd	ra,24(sp)
  25 0008 23388100 		sd	s0,16(sp)
  26 000c 23349100 		sd	s1,8(sp)
  27              		.cfi_offset 1, -8
  28              		.cfi_offset 8, -16
  29              		.cfi_offset 9, -24
  30 0010 13040102 		addi	s0,sp,32
  31              		.cfi_def_cfa 8, 0
  44:src/scheduler.cpp ****     putU64(IThread::getPRunning()->id);
  32              		.loc 1 44 5
  33              		.loc 1 44 32 is_stmt 0
  34 0014 97000000 		call	_ZN7IThread11getPRunningEv@plt
  34      E7800000 
  35              	.LVL0:
  36              		.loc 1 44 11
  37 001c 03358502 		ld	a0,40(a0)
  38 0020 97000000 		call	_Z6putU64m@plt
  38      E7800000 
  39              	.LVL1:
  45:src/scheduler.cpp ****     putString(":  ");
  40              		.loc 1 45 5 is_stmt 1
  41              		.loc 1 45 14 is_stmt 0
  42 0028 17050000 		lla	a0,.LC0
  42      13050500 
  43 0030 97000000 		call	_Z9putStringPKc@plt
  43      E7800000 
  44              	.LVL2:
  46:src/scheduler.cpp **** 
  47:src/scheduler.cpp ****     IThread* pCur = get()->pHead;
  45              		.loc 1 47 5 is_stmt 1
  46              	.LBB53:
  47              	.LBB54:
  48              		.file 2 "src/../h/scheduler.h"
   1:src/../h/scheduler.h **** #pragma once
   2:src/../h/scheduler.h **** 
   3:src/../h/scheduler.h **** #include "../h/thread.h"
   4:src/../h/scheduler.h **** 
   5:src/../h/scheduler.h **** class Scheduler // singleton
   6:src/../h/scheduler.h **** {
   7:src/../h/scheduler.h **** public:
   8:src/../h/scheduler.h ****     static Scheduler* get()
   9:src/../h/scheduler.h ****     {
  10:src/../h/scheduler.h ****         static Scheduler instance;
  49              		.loc 2 10 9
  50              		.loc 2 10 26 is_stmt 0
  51 0038 97070000 		lbu	a5,_ZGVZN9Scheduler3getEvE8instance
  51      83C70700 
  52 0040 63900702 		bnez	a5,.L2
  53              	.LVL3:
GAS LISTING /tmp/cc728Fbo.s 			page 3


  54              	.LBB55:
  55              	.LBB56:
  56              	.LBB57:
  11:src/../h/scheduler.h ****         return &instance;
  12:src/../h/scheduler.h ****     }
  13:src/../h/scheduler.h **** 
  14:src/../h/scheduler.h ****     int sleep(time_t time);
  15:src/../h/scheduler.h **** 
  16:src/../h/scheduler.h ****     static void dispatchToNext(); // WARNING: different than sys. call dispatch()
  17:src/../h/scheduler.h ****     static void dispatchUserVersion();
  18:src/../h/scheduler.h ****     static IThread* getNext();
  19:src/../h/scheduler.h ****     static void put(IThread*);
  20:src/../h/scheduler.h ****     static void printState();
  21:src/../h/scheduler.h **** 
  22:src/../h/scheduler.h ****     IThread* pHead; // points to the one that is the next to be run
  23:src/../h/scheduler.h ****     IThread* pSleepHead;
  24:src/../h/scheduler.h **** 
  25:src/../h/scheduler.h **** private:
  26:src/../h/scheduler.h ****     Scheduler()
  27:src/../h/scheduler.h ****         : pHead(nullptr), pSleepHead(nullptr)
  57              		.loc 2 27 45
  58 0044 97070000 		lla	a5,_ZZN9Scheduler3getEvE8instance
  58      93870700 
  59 004c 23B00700 		sd	zero,0(a5)
  60 0050 23B40700 		sd	zero,8(a5)
  61              	.LVL4:
  62              	.LBE57:
  63              	.LBE56:
  64              	.LBE55:
  10:src/../h/scheduler.h ****         return &instance;
  65              		.loc 2 10 26
  66 0054 93071000 		li	a5,1
  67 0058 17070000 		sb	a5,_ZGVZN9Scheduler3getEvE8instance,a4
  67      2300F700 
  68              	.L2:
  11:src/../h/scheduler.h ****         return &instance;
  69              		.loc 2 11 9 is_stmt 1
  70              	.LBE54:
  71              	.LBE53:
  72              		.loc 1 47 28 is_stmt 0
  73 0060 97040000 		ld	s1,_ZZN9Scheduler3getEvE8instance
  73      83B40400 
  74              	.LVL5:
  75              	.L4:
  48:src/scheduler.cpp ****     while(pCur)
  76              		.loc 1 48 5 is_stmt 1
  77              		.loc 1 48 11
  78 0068 63880402 		beqz	s1,.L3
  49:src/scheduler.cpp ****     {
  50:src/scheduler.cpp ****         putU64(pCur->id);
  79              		.loc 1 50 9
  80              		.loc 1 50 15 is_stmt 0
  81 006c 03B58402 		ld	a0,40(s1)
  82 0070 97000000 		call	_Z6putU64m@plt
  82      E7800000 
  83              	.LVL6:
  51:src/scheduler.cpp **** 
GAS LISTING /tmp/cc728Fbo.s 			page 4


  52:src/scheduler.cpp ****         if(pCur->pNext)
  84              		.loc 1 52 9 is_stmt 1
  85              		.loc 1 52 18 is_stmt 0
  86 0078 83B70403 		ld	a5,48(s1)
  87              		.loc 1 52 9
  88 007c 638E0700 		beqz	a5,.L3
  53:src/scheduler.cpp ****         {
  54:src/scheduler.cpp ****             putString("->");
  89              		.loc 1 54 13 is_stmt 1
  90              		.loc 1 54 22 is_stmt 0
  91 0080 17050000 		lla	a0,.LC1
  91      13050500 
  92 0088 97000000 		call	_Z9putStringPKc@plt
  92      E7800000 
  93              	.LVL7:
  55:src/scheduler.cpp ****         }
  56:src/scheduler.cpp ****         else
  57:src/scheduler.cpp ****         {
  58:src/scheduler.cpp ****             break;
  59:src/scheduler.cpp ****         }
  60:src/scheduler.cpp **** 
  61:src/scheduler.cpp ****         pCur = pCur->pNext;
  94              		.loc 1 61 9 is_stmt 1
  95              		.loc 1 61 14 is_stmt 0
  96 0090 83B40403 		ld	s1,48(s1)
  97              	.LVL8:
  48:src/scheduler.cpp ****     {
  98              		.loc 1 48 5
  99 0094 6FF05FFD 		j	.L4
 100              	.L3:
  62:src/scheduler.cpp ****     }
  63:src/scheduler.cpp **** 
  64:src/scheduler.cpp ****     putNewline();
 101              		.loc 1 64 5 is_stmt 1
 102              		.loc 1 64 15 is_stmt 0
 103 0098 97000000 		call	_Z10putNewlinev@plt
 103      E7800000 
 104              	.LVL9:
  65:src/scheduler.cpp **** }
 105              		.loc 1 65 1
 106 00a0 83308101 		ld	ra,24(sp)
 107              		.cfi_restore 1
 108 00a4 03340101 		ld	s0,16(sp)
 109              		.cfi_restore 8
 110              		.cfi_def_cfa 2, 32
 111 00a8 83348100 		ld	s1,8(sp)
 112              		.cfi_restore 9
 113              	.LVL10:
 114 00ac 13010102 		addi	sp,sp,32
 115              		.cfi_def_cfa_offset 0
 116 00b0 67800000 		jr	ra
 117              		.cfi_endproc
 118              	.LFE14:
 120              		.section	.rodata.str1.8
 121 000b 00000000 		.align	3
 121      00
 122              	.LC2:
GAS LISTING /tmp/cc728Fbo.s 			page 5


 123 0010 3D3D3D3D 		.string	"===================== ASSERT file: "
 123      3D3D3D3D 
 123      3D3D3D3D 
 123      3D3D3D3D 
 123      3D3D3D3D 
 124 0034 00000000 		.align	3
 125              	.LC3:
 126 0038 7372632F 		.string	"src/scheduler.cpp"
 126      73636865 
 126      64756C65 
 126      722E6370 
 126      7000
 127 004a 00000000 		.align	3
 127      0000
 128              	.LC4:
 129 0050 20202020 		.string	"    line: "
 129      6C696E65 
 129      3A2000
 130 005b 00000000 		.align	3
 130      00
 131              	.LC5:
 132 0060 2020203D 		.string	"   ==========================="
 132      3D3D3D3D 
 132      3D3D3D3D 
 132      3D3D3D3D 
 132      3D3D3D3D 
 133              		.text
 134              		.align	2
 135              		.globl	_ZN9Scheduler3putEP7IThread
 137              	_ZN9Scheduler3putEP7IThread:
 138              	.LFB16:
  66:src/scheduler.cpp **** 
  67:src/scheduler.cpp **** void Scheduler::dispatchToNext() // WARNING: different than sys. call thread_dispatch()
  68:src/scheduler.cpp **** {
  69:src/scheduler.cpp ****     assert(&(IThread::getPRunning()->sp) == IThread::pRunningSp);
  70:src/scheduler.cpp **** 
  71:src/scheduler.cpp ****     IThread *pOld = IThread::getPRunning();
  72:src/scheduler.cpp ****     IThread *pNew = Scheduler::getNext();
  73:src/scheduler.cpp **** 
  74:src/scheduler.cpp ****     extern IThread kernelThread;
  75:src/scheduler.cpp ****     assert(pNew != &kernelThread);
  76:src/scheduler.cpp **** 
  77:src/scheduler.cpp ****     bool existReadyThread = (pNew != nullptr);
  78:src/scheduler.cpp ****     bool existSleeper = (Scheduler::get()->pSleepHead != nullptr);
  79:src/scheduler.cpp **** 
  80:src/scheduler.cpp ****     if(existReadyThread == false && existSleeper == false)
  81:src/scheduler.cpp ****     {
  82:src/scheduler.cpp ****         pNew = &kernelThread;
  83:src/scheduler.cpp **** 
  84:src/scheduler.cpp ****         putString("=== NO MORE USER THREADS EXIST. RETURNING TO KERNEL THREAD");
  85:src/scheduler.cpp ****         putNewline();
  86:src/scheduler.cpp **** 
  87:src/scheduler.cpp ****         assert(IThread::pAllThreads[0] == &kernelThread);
  88:src/scheduler.cpp ****         IThread::pAllThreads[0]->state = IThread::READY;
  89:src/scheduler.cpp **** 
  90:src/scheduler.cpp ****         pNew = IThread::pAllThreads[0];
  91:src/scheduler.cpp **** 
GAS LISTING /tmp/cc728Fbo.s 			page 6


  92:src/scheduler.cpp ****         // TODO: set permission
  93:src/scheduler.cpp ****     }
  94:src/scheduler.cpp ****     else if(existReadyThread == false && existSleeper == true)
  95:src/scheduler.cpp ****     {
  96:src/scheduler.cpp ****         assert(existReadyThread == false && existSleeper == true);
  97:src/scheduler.cpp **** 
  98:src/scheduler.cpp ****         pNew = IThread::pAllThreads[BUSY_WAIT_THREAD_ID];
  99:src/scheduler.cpp ****         Scheduler::put(pNew);
 100:src/scheduler.cpp ****     }
 101:src/scheduler.cpp **** 
 102:src/scheduler.cpp ****     assert(pNew->state == IThread::READY);
 103:src/scheduler.cpp **** 
 104:src/scheduler.cpp ****     pOld->state = IThread::READY; // must be in this order (maby)
 105:src/scheduler.cpp ****     pNew->state = IThread::RUNNING;
 106:src/scheduler.cpp **** 
 107:src/scheduler.cpp ****     IThread::setPRunning(pNew);
 108:src/scheduler.cpp **** }
 109:src/scheduler.cpp **** 
 110:src/scheduler.cpp **** void Scheduler::put(IThread* p)
 111:src/scheduler.cpp **** {
 139              		.loc 1 111 1 is_stmt 1
 140              		.cfi_startproc
 141              	.LVL11:
 142 00b4 130101FF 		addi	sp,sp,-16
 143              		.cfi_def_cfa_offset 16
 144 00b8 23341100 		sd	ra,8(sp)
 145 00bc 23308100 		sd	s0,0(sp)
 146              		.cfi_offset 1, -8
 147              		.cfi_offset 8, -16
 148 00c0 13040101 		addi	s0,sp,16
 149              		.cfi_def_cfa 8, 0
 112:src/scheduler.cpp ****     if(!p)
 150              		.loc 1 112 5
 151 00c4 630C0508 		beqz	a0,.L18
 113:src/scheduler.cpp ****     {
 114:src/scheduler.cpp ****         assert(false);
 115:src/scheduler.cpp ****     }
 116:src/scheduler.cpp **** 
 117:src/scheduler.cpp ****     assert(p->state == IThread::READY);
 152              		.loc 1 117 5
 153 00c8 83270500 		lw	a5,0(a0)
 154 00cc 9387E7FF 		addi	a5,a5,-2
 155              	.LVL12:
 156              	.LBB87:
 157              	.LBB88:
 158              		.file 3 "src/../h/../h/../h/my_console.h"
   1:src/../h/../h/../h/my_console.h **** #pragma once
   2:src/../h/../h/../h/my_console.h **** 
   3:src/../h/../h/../h/my_console.h **** #include "../h/risc.h"
   4:src/../h/../h/../h/my_console.h **** #include "../lib/hw.h"
   5:src/../h/../h/../h/my_console.h **** 
   6:src/../h/../h/../h/my_console.h **** #include "../h/0_console.h"
   7:src/../h/../h/../h/my_console.h **** 
   8:src/../h/../h/../h/my_console.h **** #define __DEBUG_MODE
   9:src/../h/../h/../h/my_console.h **** 
  10:src/../h/../h/../h/my_console.h **** 
  11:src/../h/../h/../h/my_console.h **** void putString(const char* s);
GAS LISTING /tmp/cc728Fbo.s 			page 7


  12:src/../h/../h/../h/my_console.h **** void putInt(int n);
  13:src/../h/../h/../h/my_console.h **** void putNewline();
  14:src/../h/../h/../h/my_console.h **** void putU64(uint64 n);
  15:src/../h/../h/../h/my_console.h **** void putBinary(uint64 n);
  16:src/../h/../h/../h/my_console.h **** 
  17:src/../h/../h/../h/my_console.h **** [[noreturn]] void stopKernel();
  18:src/../h/../h/../h/my_console.h **** 
  19:src/../h/../h/../h/my_console.h **** inline void _assert(bool valid, const char* file, int line) // MUST be inline
  20:src/../h/../h/../h/my_console.h **** {
  21:src/../h/../h/../h/my_console.h ****     if(valid)
 159              		.loc 3 21 5
 160 00d0 63920712 		bnez	a5,.L19
  22:src/../h/../h/../h/my_console.h ****         return;
 161              		.loc 3 22 9
 162              	.LVL13:
 163              	.LBE88:
 164              	.LBE87:
 118:src/scheduler.cpp **** 
 119:src/scheduler.cpp ****     p->pNext = nullptr; // ensure no thread is after this one (and ensure no random pointers)
 165              		.loc 1 119 5
 166              		.loc 1 119 14 is_stmt 0
 167 00d4 23380502 		sd	zero,48(a0)
 120:src/scheduler.cpp **** 
 121:src/scheduler.cpp ****     if(!(get()->pHead))
 168              		.loc 1 121 5 is_stmt 1
 169              	.LBB95:
 170              	.LBB96:
  10:src/../h/scheduler.h ****         return &instance;
 171              		.loc 2 10 9
  10:src/../h/scheduler.h ****         return &instance;
 172              		.loc 2 10 26 is_stmt 0
 173 00d8 97070000 		lbu	a5,_ZGVZN9Scheduler3getEvE8instance
 173      83C70700 
 174 00e0 63900702 		bnez	a5,.L11
 175              	.LVL14:
 176              	.LBB97:
 177              	.LBB98:
 178              	.LBB99:
 179              		.loc 2 27 45
 180 00e4 97070000 		lla	a5,_ZZN9Scheduler3getEvE8instance
 180      93870700 
 181 00ec 23B00700 		sd	zero,0(a5)
 182 00f0 23B40700 		sd	zero,8(a5)
 183              	.LVL15:
 184              	.LBE99:
 185              	.LBE98:
 186              	.LBE97:
  10:src/../h/scheduler.h ****         return &instance;
 187              		.loc 2 10 26
 188 00f4 93071000 		li	a5,1
 189 00f8 17070000 		sb	a5,_ZGVZN9Scheduler3getEvE8instance,a4
 189      2300F700 
 190              	.L11:
  11:src/../h/scheduler.h ****     }
 191              		.loc 2 11 9 is_stmt 1
 192              	.LBE96:
 193              	.LBE95:
GAS LISTING /tmp/cc728Fbo.s 			page 8


 194              		.loc 1 121 17 is_stmt 0
 195 0100 97070000 		ld	a5,_ZZN9Scheduler3getEvE8instance
 195      83B70700 
 196              		.loc 1 121 5
 197 0108 63820718 		beqz	a5,.L20
 122:src/scheduler.cpp ****     {
 123:src/scheduler.cpp ****         get()->pHead = p;
 124:src/scheduler.cpp ****         return;
 125:src/scheduler.cpp ****     }
 126:src/scheduler.cpp **** 
 127:src/scheduler.cpp ****     IThread* pCur = get()->pHead;
 198              		.loc 1 127 5 is_stmt 1
 199              	.LBB100:
 200              	.LBB101:
  10:src/../h/scheduler.h ****         return &instance;
 201              		.loc 2 10 9
  10:src/../h/scheduler.h ****         return &instance;
 202              		.loc 2 10 26 is_stmt 0
 203 010c 97070000 		lbu	a5,_ZGVZN9Scheduler3getEvE8instance
 203      83C70700 
 204 0114 63900702 		bnez	a5,.L15
 205              	.LVL16:
 206              	.LBB102:
 207              	.LBB103:
 208              	.LBB104:
 209              		.loc 2 27 45
 210 0118 97070000 		lla	a5,_ZZN9Scheduler3getEvE8instance
 210      93870700 
 211 0120 23B00700 		sd	zero,0(a5)
 212 0124 23B40700 		sd	zero,8(a5)
 213              	.LVL17:
 214              	.LBE104:
 215              	.LBE103:
 216              	.LBE102:
  10:src/../h/scheduler.h ****         return &instance;
 217              		.loc 2 10 26
 218 0128 93071000 		li	a5,1
 219 012c 17070000 		sb	a5,_ZGVZN9Scheduler3getEvE8instance,a4
 219      2300F700 
 220              	.L15:
  11:src/../h/scheduler.h ****     }
 221              		.loc 2 11 9 is_stmt 1
 222              	.LBE101:
 223              	.LBE100:
 224              		.loc 1 127 28 is_stmt 0
 225 0134 97070000 		ld	a5,_ZZN9Scheduler3getEvE8instance
 225      83B70700 
 226              	.LVL18:
 227              	.L16:
 128:src/scheduler.cpp ****     while(pCur->pNext)
 228              		.loc 1 128 5 is_stmt 1
 229              		.loc 1 128 17
 230 013c 13870700 		mv	a4,a5
 231 0140 83B70703 		ld	a5,48(a5)
 232              	.LVL19:
 233 0144 E39C07FE 		bnez	a5,.L16
 129:src/scheduler.cpp ****     {
GAS LISTING /tmp/cc728Fbo.s 			page 9


 130:src/scheduler.cpp ****         pCur = pCur->pNext;
 131:src/scheduler.cpp ****     }
 132:src/scheduler.cpp ****     pCur->pNext = p;
 234              		.loc 1 132 5
 235              		.loc 1 132 17 is_stmt 0
 236 0148 2338A702 		sd	a0,48(a4)
 237              	.LVL20:
 238              	.L6:
 133:src/scheduler.cpp **** }
 239              		.loc 1 133 1
 240 014c 83308100 		ld	ra,8(sp)
 241              		.cfi_remember_state
 242              		.cfi_restore 1
 243 0150 03340100 		ld	s0,0(sp)
 244              		.cfi_restore 8
 245              		.cfi_def_cfa 2, 16
 246 0154 13010101 		addi	sp,sp,16
 247              		.cfi_def_cfa_offset 0
 248 0158 67800000 		jr	ra
 249              	.L18:
 250              		.cfi_restore_state
 114:src/scheduler.cpp ****     }
 251              		.loc 1 114 9 is_stmt 1
 252              	.LVL21:
 253              	.LBB105:
 254              	.LBB106:
  21:src/../h/../h/../h/my_console.h ****         return;
 255              		.loc 3 21 5
  23:src/../h/../h/../h/my_console.h **** 
  24:src/../h/../h/../h/my_console.h ****     putString("===================== ASSERT file: ");
 256              		.loc 3 24 5
 257              		.loc 3 24 14 is_stmt 0
 258 015c 17050000 		lla	a0,.LC2
 258      13050500 
 259              	.LVL22:
 260 0164 97000000 		call	_Z9putStringPKc@plt
 260      E7800000 
 261              	.LVL23:
  25:src/../h/../h/../h/my_console.h ****     putString(file);
 262              		.loc 3 25 5 is_stmt 1
 263              		.loc 3 25 14 is_stmt 0
 264 016c 17050000 		lla	a0,.LC3
 264      13050500 
 265 0174 97000000 		call	_Z9putStringPKc@plt
 265      E7800000 
 266              	.LVL24:
  26:src/../h/../h/../h/my_console.h ****     putString("    line: ");
 267              		.loc 3 26 5 is_stmt 1
 268              		.loc 3 26 14 is_stmt 0
 269 017c 17050000 		lla	a0,.LC4
 269      13050500 
 270 0184 97000000 		call	_Z9putStringPKc@plt
 270      E7800000 
 271              	.LVL25:
  27:src/../h/../h/../h/my_console.h ****     putInt(line);
 272              		.loc 3 27 5 is_stmt 1
 273              		.loc 3 27 11 is_stmt 0
GAS LISTING /tmp/cc728Fbo.s 			page 10


 274 018c 13052007 		li	a0,114
 275 0190 97000000 		call	_Z6putInti@plt
 275      E7800000 
 276              	.LVL26:
  28:src/../h/../h/../h/my_console.h ****     putString("   ===========================");
 277              		.loc 3 28 5 is_stmt 1
 278              		.loc 3 28 14 is_stmt 0
 279 0198 17050000 		lla	a0,.LC5
 279      13050500 
 280 01a0 97000000 		call	_Z9putStringPKc@plt
 280      E7800000 
 281              	.LVL27:
  29:src/../h/../h/../h/my_console.h ****     putNewline();
 282              		.loc 3 29 5 is_stmt 1
 283              		.loc 3 29 15 is_stmt 0
 284 01a8 97000000 		call	_Z10putNewlinev@plt
 284      E7800000 
 285              	.LVL28:
  30:src/../h/../h/../h/my_console.h **** 
  31:src/../h/../h/../h/my_console.h ****     IConsole::get()->writeToConsole();
 286              		.loc 3 31 5 is_stmt 1
 287              	.LBB107:
 288              	.LBB108:
 289              		.file 4 "src/../h/../h/../h/../h/0_console.h"
   1:src/../h/../h/../h/../h/0_console.h **** #pragma once
   2:src/../h/../h/../h/../h/0_console.h **** 
   3:src/../h/../h/../h/../h/0_console.h **** #include "../lib/hw.h"
   4:src/../h/../h/../h/../h/0_console.h **** 
   5:src/../h/../h/../h/../h/0_console.h **** #define BUFFER_SIZE 1000
   6:src/../h/../h/../h/../h/0_console.h **** 
   7:src/../h/../h/../h/../h/0_console.h **** class IConsole // singleton class
   8:src/../h/../h/../h/../h/0_console.h **** {
   9:src/../h/../h/../h/../h/0_console.h **** public:
  10:src/../h/../h/../h/../h/0_console.h ****     static IConsole* get()
  11:src/../h/../h/../h/../h/0_console.h ****     {
  12:src/../h/../h/../h/../h/0_console.h ****         static IConsole instance;
 290              		.loc 4 12 9
 291              		.loc 4 12 25 is_stmt 0
 292 01b0 97070000 		lbu	a5,_ZGVZN8IConsole3getEvE8instance
 292      83C70700 
 293 01b8 63920702 		bnez	a5,.L8
 294              	.LVL29:
 295              	.LBB109:
 296              	.LBB110:
 297              	.LBB111:
  13:src/../h/../h/../h/../h/0_console.h ****         return &instance;
  14:src/../h/../h/../h/../h/0_console.h ****     }
  15:src/../h/../h/../h/../h/0_console.h **** 
  16:src/../h/../h/../h/../h/0_console.h ****     void writeToConsole();
  17:src/../h/../h/../h/../h/0_console.h ****     uint64 putBufferHead, putBufferTail;
  18:src/../h/../h/../h/../h/0_console.h ****     char putBuffer[BUFFER_SIZE];
  19:src/../h/../h/../h/../h/0_console.h ****     uint64 putBufferItems;
  20:src/../h/../h/../h/../h/0_console.h **** 
  21:src/../h/../h/../h/../h/0_console.h ****     char getBuffer[BUFFER_SIZE];
  22:src/../h/../h/../h/../h/0_console.h ****     uint64 getBufferItems;
  23:src/../h/../h/../h/../h/0_console.h ****     uint64 getBufferHead, getBufferTail;
  24:src/../h/../h/../h/../h/0_console.h **** 
GAS LISTING /tmp/cc728Fbo.s 			page 11


  25:src/../h/../h/../h/../h/0_console.h ****     void putc(char c);
  26:src/../h/../h/../h/../h/0_console.h ****     char getc();
  27:src/../h/../h/../h/../h/0_console.h ****     void consoleHandler();
  28:src/../h/../h/../h/../h/0_console.h ****     void actualWriteToConsole();
  29:src/../h/../h/../h/../h/0_console.h **** 
  30:src/../h/../h/../h/../h/0_console.h **** private:
  31:src/../h/../h/../h/../h/0_console.h ****     IConsole()
  32:src/../h/../h/../h/../h/0_console.h ****         : putBufferHead(0), putBufferTail(0), putBufferItems(0)
 298              		.loc 4 32 63
 299 01bc 97070000 		lla	a5,_ZZN8IConsole3getEvE8instance
 299      93870700 
 300 01c4 23B00700 		sd	zero,0(a5)
 301 01c8 23B40700 		sd	zero,8(a5)
 302 01cc 23BC073E 		sd	zero,1016(a5)
 303              	.LVL30:
 304              	.LBE111:
 305              	.LBE110:
 306              	.LBE109:
  12:src/../h/../h/../h/../h/0_console.h ****         return &instance;
 307              		.loc 4 12 25
 308 01d0 93071000 		li	a5,1
 309 01d4 17070000 		sb	a5,_ZGVZN8IConsole3getEvE8instance,a4
 309      2300F700 
 310              	.L8:
  13:src/../h/../h/../h/../h/0_console.h ****         return &instance;
 311              		.loc 4 13 9 is_stmt 1
 312              	.LBE108:
 313              	.LBE107:
 314              		.loc 3 31 36 is_stmt 0
 315 01dc 17050000 		lla	a0,_ZZN8IConsole3getEvE8instance
 315      13050500 
 316 01e4 97000000 		call	_ZN8IConsole14writeToConsoleEv@plt
 316      E7800000 
 317              	.LVL31:
  32:src/../h/../h/../h/my_console.h **** 
  33:src/../h/../h/../h/my_console.h **** 
  34:src/../h/../h/../h/my_console.h ****     stopKernel();
 318              		.loc 3 34 5 is_stmt 1
 319              		.loc 3 34 15 is_stmt 0
 320 01ec 97000000 		call	_Z10stopKernelv@plt
 320      E7800000 
 321              	.LVL32:
 322              	.L19:
 323              	.LBE106:
 324              	.LBE105:
 325              	.LBB112:
 326              	.LBB94:
  24:src/../h/../h/../h/my_console.h ****     putString(file);
 327              		.loc 3 24 5 is_stmt 1
  24:src/../h/../h/../h/my_console.h ****     putString(file);
 328              		.loc 3 24 14 is_stmt 0
 329 01f4 17050000 		lla	a0,.LC2
 329      13050500 
 330              	.LVL33:
 331 01fc 97000000 		call	_Z9putStringPKc@plt
 331      E7800000 
 332              	.LVL34:
GAS LISTING /tmp/cc728Fbo.s 			page 12


  25:src/../h/../h/../h/my_console.h ****     putString("    line: ");
 333              		.loc 3 25 5 is_stmt 1
  25:src/../h/../h/../h/my_console.h ****     putString("    line: ");
 334              		.loc 3 25 14 is_stmt 0
 335 0204 17050000 		lla	a0,.LC3
 335      13050500 
 336 020c 97000000 		call	_Z9putStringPKc@plt
 336      E7800000 
 337              	.LVL35:
  26:src/../h/../h/../h/my_console.h ****     putInt(line);
 338              		.loc 3 26 5 is_stmt 1
  26:src/../h/../h/../h/my_console.h ****     putInt(line);
 339              		.loc 3 26 14 is_stmt 0
 340 0214 17050000 		lla	a0,.LC4
 340      13050500 
 341 021c 97000000 		call	_Z9putStringPKc@plt
 341      E7800000 
 342              	.LVL36:
  27:src/../h/../h/../h/my_console.h ****     putString("   ===========================");
 343              		.loc 3 27 5 is_stmt 1
  27:src/../h/../h/../h/my_console.h ****     putString("   ===========================");
 344              		.loc 3 27 11 is_stmt 0
 345 0224 13055007 		li	a0,117
 346 0228 97000000 		call	_Z6putInti@plt
 346      E7800000 
 347              	.LVL37:
  28:src/../h/../h/../h/my_console.h ****     putNewline();
 348              		.loc 3 28 5 is_stmt 1
  28:src/../h/../h/../h/my_console.h ****     putNewline();
 349              		.loc 3 28 14 is_stmt 0
 350 0230 17050000 		lla	a0,.LC5
 350      13050500 
 351 0238 97000000 		call	_Z9putStringPKc@plt
 351      E7800000 
 352              	.LVL38:
  29:src/../h/../h/../h/my_console.h **** 
 353              		.loc 3 29 5 is_stmt 1
  29:src/../h/../h/../h/my_console.h **** 
 354              		.loc 3 29 15 is_stmt 0
 355 0240 97000000 		call	_Z10putNewlinev@plt
 355      E7800000 
 356              	.LVL39:
  31:src/../h/../h/../h/my_console.h **** 
 357              		.loc 3 31 5 is_stmt 1
 358              	.LBB89:
 359              	.LBB90:
  12:src/../h/../h/../h/../h/0_console.h ****         return &instance;
 360              		.loc 4 12 9
  12:src/../h/../h/../h/../h/0_console.h ****         return &instance;
 361              		.loc 4 12 25 is_stmt 0
 362 0248 97070000 		lbu	a5,_ZGVZN8IConsole3getEvE8instance
 362      83C70700 
 363 0250 63920702 		bnez	a5,.L10
 364              	.LVL40:
 365              	.LBB91:
 366              	.LBB92:
 367              	.LBB93:
GAS LISTING /tmp/cc728Fbo.s 			page 13


 368              		.loc 4 32 63
 369 0254 97070000 		lla	a5,_ZZN8IConsole3getEvE8instance
 369      93870700 
 370 025c 23B00700 		sd	zero,0(a5)
 371 0260 23B40700 		sd	zero,8(a5)
 372 0264 23BC073E 		sd	zero,1016(a5)
 373              	.LVL41:
 374              	.LBE93:
 375              	.LBE92:
 376              	.LBE91:
  12:src/../h/../h/../h/../h/0_console.h ****         return &instance;
 377              		.loc 4 12 25
 378 0268 93071000 		li	a5,1
 379 026c 17070000 		sb	a5,_ZGVZN8IConsole3getEvE8instance,a4
 379      2300F700 
 380              	.L10:
  13:src/../h/../h/../h/../h/0_console.h ****     }
 381              		.loc 4 13 9 is_stmt 1
 382              	.LBE90:
 383              	.LBE89:
  31:src/../h/../h/../h/my_console.h **** 
 384              		.loc 3 31 36 is_stmt 0
 385 0274 17050000 		lla	a0,_ZZN8IConsole3getEvE8instance
 385      13050500 
 386 027c 97000000 		call	_ZN8IConsole14writeToConsoleEv@plt
 386      E7800000 
 387              	.LVL42:
 388              		.loc 3 34 5 is_stmt 1
 389              		.loc 3 34 15 is_stmt 0
 390 0284 97000000 		call	_Z10stopKernelv@plt
 390      E7800000 
 391              	.LVL43:
 392              	.L20:
 393              	.LBE94:
 394              	.LBE112:
 123:src/scheduler.cpp ****         return;
 395              		.loc 1 123 9 is_stmt 1
 396              	.LBB113:
 397              	.LBB114:
  10:src/../h/scheduler.h ****         return &instance;
 398              		.loc 2 10 9
  10:src/../h/scheduler.h ****         return &instance;
 399              		.loc 2 10 26 is_stmt 0
 400 028c 97070000 		lbu	a5,_ZGVZN9Scheduler3getEvE8instance
 400      83C70700 
 401 0294 639C0700 		bnez	a5,.L13
 402              	.LVL44:
 403              	.LBB115:
 404              	.LBB116:
 405              	.LBB117:
 406              		.loc 2 27 45
 407 0298 97070000 		sd	zero,_ZZN9Scheduler3getEvE8instance+8,a5
 407      23B00700 
 408              	.LVL45:
 409              	.LBE117:
 410              	.LBE116:
 411              	.LBE115:
GAS LISTING /tmp/cc728Fbo.s 			page 14


  10:src/../h/scheduler.h ****         return &instance;
 412              		.loc 2 10 26
 413 02a0 93071000 		li	a5,1
 414 02a4 17070000 		sb	a5,_ZGVZN9Scheduler3getEvE8instance,a4
 414      2300F700 
 415              	.L13:
  11:src/../h/scheduler.h ****     }
 416              		.loc 2 11 9 is_stmt 1
 417              	.LBE114:
 418              	.LBE113:
 123:src/scheduler.cpp ****         return;
 419              		.loc 1 123 22 is_stmt 0
 420 02ac 97070000 		sd	a0,_ZZN9Scheduler3getEvE8instance,a5
 420      23B0A700 
 124:src/scheduler.cpp ****     }
 421              		.loc 1 124 9 is_stmt 1
 422 02b4 6FF09FE9 		j	.L6
 423              		.cfi_endproc
 424              	.LFE16:
 426              		.align	2
 427              		.globl	_ZN9Scheduler7getNextEv
 429              	_ZN9Scheduler7getNextEv:
 430              	.LFB17:
 134:src/scheduler.cpp **** 
 135:src/scheduler.cpp **** IThread* Scheduler::getNext()
 136:src/scheduler.cpp **** {
 431              		.loc 1 136 1
 432              		.cfi_startproc
 433 02b8 130101FF 		addi	sp,sp,-16
 434              		.cfi_def_cfa_offset 16
 435 02bc 23348100 		sd	s0,8(sp)
 436              		.cfi_offset 8, -8
 437 02c0 13040101 		addi	s0,sp,16
 438              		.cfi_def_cfa 8, 0
 137:src/scheduler.cpp ****     IThread* ret = get()->pHead;
 439              		.loc 1 137 5
 440              	.LBB118:
 441              	.LBB119:
  10:src/../h/scheduler.h ****         return &instance;
 442              		.loc 2 10 9
  10:src/../h/scheduler.h ****         return &instance;
 443              		.loc 2 10 26 is_stmt 0
 444 02c4 97070000 		lbu	a5,_ZGVZN9Scheduler3getEvE8instance
 444      83C70700 
 445 02cc 63900702 		bnez	a5,.L22
 446              	.LVL46:
 447              	.LBB120:
 448              	.LBB121:
 449              	.LBB122:
 450              		.loc 2 27 45
 451 02d0 97070000 		lla	a5,_ZZN9Scheduler3getEvE8instance
 451      93870700 
 452 02d8 23B00700 		sd	zero,0(a5)
 453 02dc 23B40700 		sd	zero,8(a5)
 454              	.LVL47:
 455              	.LBE122:
 456              	.LBE121:
GAS LISTING /tmp/cc728Fbo.s 			page 15


 457              	.LBE120:
  10:src/../h/scheduler.h ****         return &instance;
 458              		.loc 2 10 26
 459 02e0 93071000 		li	a5,1
 460 02e4 17070000 		sb	a5,_ZGVZN9Scheduler3getEvE8instance,a4
 460      2300F700 
 461              	.L22:
  11:src/../h/scheduler.h ****     }
 462              		.loc 2 11 9 is_stmt 1
 463              	.LBE119:
 464              	.LBE118:
 465              		.loc 1 137 27 is_stmt 0
 466 02ec 17050000 		ld	a0,_ZZN9Scheduler3getEvE8instance
 466      03350500 
 467              	.LVL48:
 138:src/scheduler.cpp **** 
 139:src/scheduler.cpp ****     if(ret == nullptr)
 468              		.loc 1 139 5 is_stmt 1
 469 02f4 63000506 		beqz	a0,.L21
 140:src/scheduler.cpp ****         return ret;
 141:src/scheduler.cpp **** 
 142:src/scheduler.cpp ****     get()->pHead = get()->pHead->pNext;
 470              		.loc 1 142 5
 471              	.LBB123:
 472              	.LBB124:
  10:src/../h/scheduler.h ****         return &instance;
 473              		.loc 2 10 9
  10:src/../h/scheduler.h ****         return &instance;
 474              		.loc 2 10 26 is_stmt 0
 475 02f8 97070000 		lbu	a5,_ZGVZN9Scheduler3getEvE8instance
 475      83C70700 
 476 0300 63900702 		bnez	a5,.L24
 477              	.LVL49:
 478              	.LBB125:
 479              	.LBB126:
 480              	.LBB127:
 481              		.loc 2 27 45
 482 0304 97070000 		lla	a5,_ZZN9Scheduler3getEvE8instance
 482      93870700 
 483 030c 23B00700 		sd	zero,0(a5)
 484 0310 23B40700 		sd	zero,8(a5)
 485              	.LVL50:
 486              	.LBE127:
 487              	.LBE126:
 488              	.LBE125:
  10:src/../h/scheduler.h ****         return &instance;
 489              		.loc 2 10 26
 490 0314 93071000 		li	a5,1
 491 0318 17070000 		sb	a5,_ZGVZN9Scheduler3getEvE8instance,a4
 491      2300F700 
 492              	.L24:
  11:src/../h/scheduler.h ****     }
 493              		.loc 2 11 9 is_stmt 1
 494              	.LBE124:
 495              	.LBE123:
 496              		.loc 1 142 27 is_stmt 0
 497 0320 97070000 		ld	a5,_ZZN9Scheduler3getEvE8instance
GAS LISTING /tmp/cc728Fbo.s 			page 16


 497      83B70700 
 498              	.LBB128:
 499              	.LBB129:
  10:src/../h/scheduler.h ****         return &instance;
 500              		.loc 2 10 9 is_stmt 1
  10:src/../h/scheduler.h ****         return &instance;
 501              		.loc 2 10 26 is_stmt 0
 502 0328 17070000 		lbu	a4,_ZGVZN9Scheduler3getEvE8instance
 502      03470700 
 503 0330 631C0700 		bnez	a4,.L25
 504              	.LVL51:
 505              	.LBB130:
 506              	.LBB131:
 507              	.LBB132:
 508              		.loc 2 27 45
 509 0334 17070000 		sd	zero,_ZZN9Scheduler3getEvE8instance+8,a4
 509      23300700 
 510              	.LVL52:
 511              	.LBE132:
 512              	.LBE131:
 513              	.LBE130:
  10:src/../h/scheduler.h ****         return &instance;
 514              		.loc 2 10 26
 515 033c 13071000 		li	a4,1
 516 0340 97060000 		sb	a4,_ZGVZN9Scheduler3getEvE8instance,a3
 516      2380E600 
 517              	.L25:
  11:src/../h/scheduler.h ****     }
 518              		.loc 2 11 9 is_stmt 1
 519              	.LBE129:
 520              	.LBE128:
 521              		.loc 1 142 34 is_stmt 0
 522 0348 83B70703 		ld	a5,48(a5)
 523              		.loc 1 142 18
 524 034c 17070000 		sd	a5,_ZZN9Scheduler3getEvE8instance,a4
 524      2330F700 
 143:src/scheduler.cpp **** 
 144:src/scheduler.cpp ****     return ret;
 525              		.loc 1 144 5 is_stmt 1
 526              	.L21:
 145:src/scheduler.cpp **** }
 527              		.loc 1 145 1 is_stmt 0
 528 0354 03348100 		ld	s0,8(sp)
 529              		.cfi_restore 8
 530              		.cfi_def_cfa 2, 16
 531 0358 13010101 		addi	sp,sp,16
 532              		.cfi_def_cfa_offset 0
 533 035c 67800000 		jr	ra
 534              		.cfi_endproc
 535              	.LFE17:
 537              		.section	.rodata.str1.8
 538 007f 00       		.align	3
 539              	.LC6:
 540 0080 3D3D3D20 		.string	"=== NO MORE USER THREADS EXIST. RETURNING TO KERNEL THREAD"
 540      4E4F204D 
 540      4F524520 
 540      55534552 
GAS LISTING /tmp/cc728Fbo.s 			page 17


 540      20544852 
 541              		.text
 542              		.align	2
 543              		.globl	_ZN9Scheduler14dispatchToNextEv
 545              	_ZN9Scheduler14dispatchToNextEv:
 546              	.LFB15:
  68:src/scheduler.cpp ****     assert(&(IThread::getPRunning()->sp) == IThread::pRunningSp);
 547              		.loc 1 68 1 is_stmt 1
 548              		.cfi_startproc
 549 0360 130101FE 		addi	sp,sp,-32
 550              		.cfi_def_cfa_offset 32
 551 0364 233C1100 		sd	ra,24(sp)
 552 0368 23388100 		sd	s0,16(sp)
 553 036c 23349100 		sd	s1,8(sp)
 554 0370 23302101 		sd	s2,0(sp)
 555              		.cfi_offset 1, -8
 556              		.cfi_offset 8, -16
 557              		.cfi_offset 9, -24
 558              		.cfi_offset 18, -32
 559 0374 13040102 		addi	s0,sp,32
 560              		.cfi_def_cfa 8, 0
  69:src/scheduler.cpp **** 
 561              		.loc 1 69 5
 562 0378 97000000 		call	_ZN7IThread11getPRunningEv@plt
 562      E7800000 
 563              	.LVL53:
 564 0380 13050505 		addi	a0,a0,80
 565 0384 97070000 		la	a5,_ZN7IThread10pRunningSpE
 565      83B70700 
 566 038c 83B70700 		ld	a5,0(a5)
 567              	.LVL54:
 568              	.LBB173:
 569              	.LBB174:
  21:src/../h/../h/../h/my_console.h ****         return;
 570              		.loc 3 21 5
 571 0390 6392A70A 		bne	a5,a0,.L44
  22:src/../h/../h/../h/my_console.h **** 
 572              		.loc 3 22 9
 573              	.LVL55:
 574              	.LBE174:
 575              	.LBE173:
  71:src/scheduler.cpp ****     IThread *pNew = Scheduler::getNext();
 576              		.loc 1 71 5
  71:src/scheduler.cpp ****     IThread *pNew = Scheduler::getNext();
 577              		.loc 1 71 41 is_stmt 0
 578 0394 97000000 		call	_ZN7IThread11getPRunningEv@plt
 578      E7800000 
 579              	.LVL56:
 580 039c 13090500 		mv	s2,a0
 581              	.LVL57:
  72:src/scheduler.cpp **** 
 582              		.loc 1 72 5 is_stmt 1
  72:src/scheduler.cpp **** 
 583              		.loc 1 72 39 is_stmt 0
 584 03a0 97000000 		call	_ZN9Scheduler7getNextEv
 584      E7800000 
 585              	.LVL58:
GAS LISTING /tmp/cc728Fbo.s 			page 18


 586 03a8 93040500 		mv	s1,a0
 587              	.LVL59:
  74:src/scheduler.cpp ****     assert(pNew != &kernelThread);
 588              		.loc 1 74 5 is_stmt 1
  75:src/scheduler.cpp **** 
 589              		.loc 1 75 5
 590 03ac 97070000 		la	a5,kernelThread
 590      83B70700 
 591 03b4 B307F540 		sub	a5,a0,a5
 592 03b8 3337F000 		snez	a4,a5
 593              	.LVL60:
 594              	.LBB181:
 595              	.LBB182:
  21:src/../h/../h/../h/my_console.h ****         return;
 596              		.loc 3 21 5
 597 03bc 63880710 		beqz	a5,.L45
  22:src/../h/../h/../h/my_console.h **** 
 598              		.loc 3 22 9
 599              	.LVL61:
 600              	.LBE182:
 601              	.LBE181:
  77:src/scheduler.cpp ****     bool existSleeper = (Scheduler::get()->pSleepHead != nullptr);
 602              		.loc 1 77 5
  78:src/scheduler.cpp **** 
 603              		.loc 1 78 5
 604              	.LBB189:
 605              	.LBB190:
  10:src/../h/scheduler.h ****         return &instance;
 606              		.loc 2 10 9
  10:src/../h/scheduler.h ****         return &instance;
 607              		.loc 2 10 26 is_stmt 0
 608 03c0 97070000 		lbu	a5,_ZGVZN9Scheduler3getEvE8instance
 608      83C70700 
 609 03c8 63900702 		bnez	a5,.L32
 610              	.LVL62:
 611              	.LBB191:
 612              	.LBB192:
 613              	.LBB193:
 614              		.loc 2 27 45
 615 03cc 97070000 		lla	a5,_ZZN9Scheduler3getEvE8instance
 615      93870700 
 616 03d4 23B00700 		sd	zero,0(a5)
 617 03d8 23B40700 		sd	zero,8(a5)
 618              	.LVL63:
 619              	.LBE193:
 620              	.LBE192:
 621              	.LBE191:
  10:src/../h/scheduler.h ****         return &instance;
 622              		.loc 2 10 26
 623 03dc 93071000 		li	a5,1
 624 03e0 97060000 		sb	a5,_ZGVZN9Scheduler3getEvE8instance,a3
 624      2380F600 
 625              	.L32:
  11:src/../h/scheduler.h ****     }
 626              		.loc 2 11 9 is_stmt 1
 627              	.LBE190:
 628              	.LBE189:
GAS LISTING /tmp/cc728Fbo.s 			page 19


  78:src/scheduler.cpp **** 
 629              		.loc 1 78 44 is_stmt 0
 630 03e8 97070000 		ld	a5,_ZZN9Scheduler3getEvE8instance+8
 630      83B70700 
 631              	.LVL64:
  80:src/scheduler.cpp ****     {
 632              		.loc 1 80 5 is_stmt 1
 633 03f0 638A0416 		beqz	s1,.L46
 634              	.L33:
  94:src/scheduler.cpp ****     {
 635              		.loc 1 94 10
 636 03f4 638C0424 		beqz	s1,.L47
 637              	.LVL65:
 638              	.L36:
 102:src/scheduler.cpp **** 
 639              		.loc 1 102 5
 640 03f8 83A70400 		lw	a5,0(s1)
 641 03fc 9387E7FF 		addi	a5,a5,-2
 642              	.LVL66:
 643              	.LBB194:
 644              	.LBB195:
  21:src/../h/../h/../h/my_console.h ****         return;
 645              		.loc 3 21 5
 646 0400 639A0730 		bnez	a5,.L48
  22:src/../h/../h/../h/my_console.h **** 
 647              		.loc 3 22 9
 648              	.LVL67:
 649              	.LBE195:
 650              	.LBE194:
 104:src/scheduler.cpp ****     pNew->state = IThread::RUNNING;
 651              		.loc 1 104 5
 104:src/scheduler.cpp ****     pNew->state = IThread::RUNNING;
 652              		.loc 1 104 17 is_stmt 0
 653 0404 93072000 		li	a5,2
 654 0408 2320F900 		sw	a5,0(s2)
 105:src/scheduler.cpp **** 
 655              		.loc 1 105 5 is_stmt 1
 105:src/scheduler.cpp **** 
 656              		.loc 1 105 17 is_stmt 0
 657 040c 23A00400 		sw	zero,0(s1)
 107:src/scheduler.cpp **** }
 658              		.loc 1 107 5 is_stmt 1
 107:src/scheduler.cpp **** }
 659              		.loc 1 107 25 is_stmt 0
 660 0410 13850400 		mv	a0,s1
 661 0414 97000000 		call	_ZN7IThread11setPRunningEPS_@plt
 661      E7800000 
 662              	.LVL68:
 108:src/scheduler.cpp **** 
 663              		.loc 1 108 1
 664 041c 83308101 		ld	ra,24(sp)
 665              		.cfi_remember_state
 666              		.cfi_restore 1
 667 0420 03340101 		ld	s0,16(sp)
 668              		.cfi_restore 8
 669              		.cfi_def_cfa 2, 32
 670 0424 83348100 		ld	s1,8(sp)
GAS LISTING /tmp/cc728Fbo.s 			page 20


 671              		.cfi_restore 9
 672              	.LVL69:
 673 0428 03390100 		ld	s2,0(sp)
 674              		.cfi_restore 18
 675              	.LVL70:
 676 042c 13010102 		addi	sp,sp,32
 677              		.cfi_def_cfa_offset 0
 678 0430 67800000 		jr	ra
 679              	.LVL71:
 680              	.L44:
 681              		.cfi_restore_state
 682              	.LBB202:
 683              	.LBB180:
  24:src/../h/../h/../h/my_console.h ****     putString(file);
 684              		.loc 3 24 5 is_stmt 1
  24:src/../h/../h/../h/my_console.h ****     putString(file);
 685              		.loc 3 24 14 is_stmt 0
 686 0434 17050000 		lla	a0,.LC2
 686      13050500 
 687              	.LVL72:
 688 043c 97000000 		call	_Z9putStringPKc@plt
 688      E7800000 
 689              	.LVL73:
  25:src/../h/../h/../h/my_console.h ****     putString("    line: ");
 690              		.loc 3 25 5 is_stmt 1
  25:src/../h/../h/../h/my_console.h ****     putString("    line: ");
 691              		.loc 3 25 14 is_stmt 0
 692 0444 17050000 		lla	a0,.LC3
 692      13050500 
 693 044c 97000000 		call	_Z9putStringPKc@plt
 693      E7800000 
 694              	.LVL74:
  26:src/../h/../h/../h/my_console.h ****     putInt(line);
 695              		.loc 3 26 5 is_stmt 1
  26:src/../h/../h/../h/my_console.h ****     putInt(line);
 696              		.loc 3 26 14 is_stmt 0
 697 0454 17050000 		lla	a0,.LC4
 697      13050500 
 698 045c 97000000 		call	_Z9putStringPKc@plt
 698      E7800000 
 699              	.LVL75:
  27:src/../h/../h/../h/my_console.h ****     putString("   ===========================");
 700              		.loc 3 27 5 is_stmt 1
  27:src/../h/../h/../h/my_console.h ****     putString("   ===========================");
 701              		.loc 3 27 11 is_stmt 0
 702 0464 13055004 		li	a0,69
 703 0468 97000000 		call	_Z6putInti@plt
 703      E7800000 
 704              	.LVL76:
  28:src/../h/../h/../h/my_console.h ****     putNewline();
 705              		.loc 3 28 5 is_stmt 1
  28:src/../h/../h/../h/my_console.h ****     putNewline();
 706              		.loc 3 28 14 is_stmt 0
 707 0470 17050000 		lla	a0,.LC5
 707      13050500 
 708 0478 97000000 		call	_Z9putStringPKc@plt
 708      E7800000 
GAS LISTING /tmp/cc728Fbo.s 			page 21


 709              	.LVL77:
  29:src/../h/../h/../h/my_console.h **** 
 710              		.loc 3 29 5 is_stmt 1
  29:src/../h/../h/../h/my_console.h **** 
 711              		.loc 3 29 15 is_stmt 0
 712 0480 97000000 		call	_Z10putNewlinev@plt
 712      E7800000 
 713              	.LVL78:
  31:src/../h/../h/../h/my_console.h **** 
 714              		.loc 3 31 5 is_stmt 1
 715              	.LBB175:
 716              	.LBB176:
  12:src/../h/../h/../h/../h/0_console.h ****         return &instance;
 717              		.loc 4 12 9
  12:src/../h/../h/../h/../h/0_console.h ****         return &instance;
 718              		.loc 4 12 25 is_stmt 0
 719 0488 97070000 		lbu	a5,_ZGVZN8IConsole3getEvE8instance
 719      83C70700 
 720 0490 63920702 		bnez	a5,.L29
 721              	.LVL79:
 722              	.LBB177:
 723              	.LBB178:
 724              	.LBB179:
 725              		.loc 4 32 63
 726 0494 97070000 		lla	a5,_ZZN8IConsole3getEvE8instance
 726      93870700 
 727 049c 23B00700 		sd	zero,0(a5)
 728 04a0 23B40700 		sd	zero,8(a5)
 729 04a4 23BC073E 		sd	zero,1016(a5)
 730              	.LVL80:
 731              	.LBE179:
 732              	.LBE178:
 733              	.LBE177:
  12:src/../h/../h/../h/../h/0_console.h ****         return &instance;
 734              		.loc 4 12 25
 735 04a8 93071000 		li	a5,1
 736 04ac 17070000 		sb	a5,_ZGVZN8IConsole3getEvE8instance,a4
 736      2300F700 
 737              	.L29:
  13:src/../h/../h/../h/../h/0_console.h ****     }
 738              		.loc 4 13 9 is_stmt 1
 739              	.LBE176:
 740              	.LBE175:
  31:src/../h/../h/../h/my_console.h **** 
 741              		.loc 3 31 36 is_stmt 0
 742 04b4 17050000 		lla	a0,_ZZN8IConsole3getEvE8instance
 742      13050500 
 743 04bc 97000000 		call	_ZN8IConsole14writeToConsoleEv@plt
 743      E7800000 
 744              	.LVL81:
 745              		.loc 3 34 5 is_stmt 1
 746              		.loc 3 34 15 is_stmt 0
 747 04c4 97000000 		call	_Z10stopKernelv@plt
 747      E7800000 
 748              	.LVL82:
 749              	.L45:
 750              	.LBE180:
GAS LISTING /tmp/cc728Fbo.s 			page 22


 751              	.LBE202:
 752              	.LBB203:
 753              	.LBB188:
  24:src/../h/../h/../h/my_console.h ****     putString(file);
 754              		.loc 3 24 5 is_stmt 1
  24:src/../h/../h/../h/my_console.h ****     putString(file);
 755              		.loc 3 24 14 is_stmt 0
 756 04cc 17050000 		lla	a0,.LC2
 756      13050500 
 757 04d4 97000000 		call	_Z9putStringPKc@plt
 757      E7800000 
 758              	.LVL83:
  25:src/../h/../h/../h/my_console.h ****     putString("    line: ");
 759              		.loc 3 25 5 is_stmt 1
  25:src/../h/../h/../h/my_console.h ****     putString("    line: ");
 760              		.loc 3 25 14 is_stmt 0
 761 04dc 17050000 		lla	a0,.LC3
 761      13050500 
 762 04e4 97000000 		call	_Z9putStringPKc@plt
 762      E7800000 
 763              	.LVL84:
  26:src/../h/../h/../h/my_console.h ****     putInt(line);
 764              		.loc 3 26 5 is_stmt 1
  26:src/../h/../h/../h/my_console.h ****     putInt(line);
 765              		.loc 3 26 14 is_stmt 0
 766 04ec 17050000 		lla	a0,.LC4
 766      13050500 
 767 04f4 97000000 		call	_Z9putStringPKc@plt
 767      E7800000 
 768              	.LVL85:
  27:src/../h/../h/../h/my_console.h ****     putString("   ===========================");
 769              		.loc 3 27 5 is_stmt 1
  27:src/../h/../h/../h/my_console.h ****     putString("   ===========================");
 770              		.loc 3 27 11 is_stmt 0
 771 04fc 1305B004 		li	a0,75
 772 0500 97000000 		call	_Z6putInti@plt
 772      E7800000 
 773              	.LVL86:
  28:src/../h/../h/../h/my_console.h ****     putNewline();
 774              		.loc 3 28 5 is_stmt 1
  28:src/../h/../h/../h/my_console.h ****     putNewline();
 775              		.loc 3 28 14 is_stmt 0
 776 0508 17050000 		lla	a0,.LC5
 776      13050500 
 777 0510 97000000 		call	_Z9putStringPKc@plt
 777      E7800000 
 778              	.LVL87:
  29:src/../h/../h/../h/my_console.h **** 
 779              		.loc 3 29 5 is_stmt 1
  29:src/../h/../h/../h/my_console.h **** 
 780              		.loc 3 29 15 is_stmt 0
 781 0518 97000000 		call	_Z10putNewlinev@plt
 781      E7800000 
 782              	.LVL88:
  31:src/../h/../h/../h/my_console.h **** 
 783              		.loc 3 31 5 is_stmt 1
 784              	.LBB183:
GAS LISTING /tmp/cc728Fbo.s 			page 23


 785              	.LBB184:
  12:src/../h/../h/../h/../h/0_console.h ****         return &instance;
 786              		.loc 4 12 9
  12:src/../h/../h/../h/../h/0_console.h ****         return &instance;
 787              		.loc 4 12 25 is_stmt 0
 788 0520 97070000 		lbu	a5,_ZGVZN8IConsole3getEvE8instance
 788      83C70700 
 789 0528 63920702 		bnez	a5,.L31
 790              	.LVL89:
 791              	.LBB185:
 792              	.LBB186:
 793              	.LBB187:
 794              		.loc 4 32 63
 795 052c 97070000 		lla	a5,_ZZN8IConsole3getEvE8instance
 795      93870700 
 796 0534 23B00700 		sd	zero,0(a5)
 797 0538 23B40700 		sd	zero,8(a5)
 798 053c 23BC073E 		sd	zero,1016(a5)
 799              	.LVL90:
 800              	.LBE187:
 801              	.LBE186:
 802              	.LBE185:
  12:src/../h/../h/../h/../h/0_console.h ****         return &instance;
 803              		.loc 4 12 25
 804 0540 93071000 		li	a5,1
 805 0544 17070000 		sb	a5,_ZGVZN8IConsole3getEvE8instance,a4
 805      2300F700 
 806              	.L31:
  13:src/../h/../h/../h/../h/0_console.h ****     }
 807              		.loc 4 13 9 is_stmt 1
 808              	.LBE184:
 809              	.LBE183:
  31:src/../h/../h/../h/my_console.h **** 
 810              		.loc 3 31 36 is_stmt 0
 811 054c 17050000 		lla	a0,_ZZN8IConsole3getEvE8instance
 811      13050500 
 812 0554 97000000 		call	_ZN8IConsole14writeToConsoleEv@plt
 812      E7800000 
 813              	.LVL91:
 814              		.loc 3 34 5 is_stmt 1
 815              		.loc 3 34 15 is_stmt 0
 816 055c 97000000 		call	_Z10stopKernelv@plt
 816      E7800000 
 817              	.LVL92:
 818              	.L46:
 819              	.LBE188:
 820              	.LBE203:
  80:src/scheduler.cpp ****     {
 821              		.loc 1 80 34 discriminator 1
 822 0564 E39807E8 		bnez	a5,.L33
  82:src/scheduler.cpp **** 
 823              		.loc 1 82 9 is_stmt 1
 824              	.LVL93:
  84:src/scheduler.cpp ****         putNewline();
 825              		.loc 1 84 9
  84:src/scheduler.cpp ****         putNewline();
 826              		.loc 1 84 18 is_stmt 0
GAS LISTING /tmp/cc728Fbo.s 			page 24


 827 0568 17050000 		lla	a0,.LC6
 827      13050500 
 828 0570 97000000 		call	_Z9putStringPKc@plt
 828      E7800000 
 829              	.LVL94:
  85:src/scheduler.cpp **** 
 830              		.loc 1 85 9 is_stmt 1
  85:src/scheduler.cpp **** 
 831              		.loc 1 85 19 is_stmt 0
 832 0578 97000000 		call	_Z10putNewlinev@plt
 832      E7800000 
 833              	.LVL95:
  87:src/scheduler.cpp ****         IThread::pAllThreads[0]->state = IThread::READY;
 834              		.loc 1 87 9 is_stmt 1
 835 0580 97070000 		la	a5,_ZN7IThread11pAllThreadsE
 835      83B70700 
 836 0588 03B70700 		ld	a4,0(a5)
 837 058c 97070000 		la	a5,kernelThread
 837      83B70700 
 838              	.LVL96:
 839              	.LBB204:
 840              	.LBB205:
  21:src/../h/../h/../h/my_console.h ****         return;
 841              		.loc 3 21 5
 842 0594 6310F702 		bne	a4,a5,.L49
  22:src/../h/../h/../h/my_console.h **** 
 843              		.loc 3 22 9
 844              	.LVL97:
 845              	.LBE205:
 846              	.LBE204:
  88:src/scheduler.cpp **** 
 847              		.loc 1 88 9
  88:src/scheduler.cpp **** 
 848              		.loc 1 88 31 is_stmt 0
 849 0598 97070000 		la	a5,_ZN7IThread11pAllThreadsE
 849      83B70700 
 850 05a0 03B70700 		ld	a4,0(a5)
  88:src/scheduler.cpp **** 
 851              		.loc 1 88 40
 852 05a4 93062000 		li	a3,2
 853 05a8 2320D700 		sw	a3,0(a4)
  90:src/scheduler.cpp **** 
 854              		.loc 1 90 9 is_stmt 1
  90:src/scheduler.cpp **** 
 855              		.loc 1 90 14 is_stmt 0
 856 05ac 83B40700 		ld	s1,0(a5)
 857              	.LVL98:
 858 05b0 6FF09FE4 		j	.L36
 859              	.LVL99:
 860              	.L49:
 861              	.LBB212:
 862              	.LBB211:
  24:src/../h/../h/../h/my_console.h ****     putString(file);
 863              		.loc 3 24 5 is_stmt 1
  24:src/../h/../h/../h/my_console.h ****     putString(file);
 864              		.loc 3 24 14 is_stmt 0
 865 05b4 17050000 		lla	a0,.LC2
GAS LISTING /tmp/cc728Fbo.s 			page 25


 865      13050500 
 866 05bc 97000000 		call	_Z9putStringPKc@plt
 866      E7800000 
 867              	.LVL100:
  25:src/../h/../h/../h/my_console.h ****     putString("    line: ");
 868              		.loc 3 25 5 is_stmt 1
  25:src/../h/../h/../h/my_console.h ****     putString("    line: ");
 869              		.loc 3 25 14 is_stmt 0
 870 05c4 17050000 		lla	a0,.LC3
 870      13050500 
 871 05cc 97000000 		call	_Z9putStringPKc@plt
 871      E7800000 
 872              	.LVL101:
  26:src/../h/../h/../h/my_console.h ****     putInt(line);
 873              		.loc 3 26 5 is_stmt 1
  26:src/../h/../h/../h/my_console.h ****     putInt(line);
 874              		.loc 3 26 14 is_stmt 0
 875 05d4 17050000 		lla	a0,.LC4
 875      13050500 
 876 05dc 97000000 		call	_Z9putStringPKc@plt
 876      E7800000 
 877              	.LVL102:
  27:src/../h/../h/../h/my_console.h ****     putString("   ===========================");
 878              		.loc 3 27 5 is_stmt 1
  27:src/../h/../h/../h/my_console.h ****     putString("   ===========================");
 879              		.loc 3 27 11 is_stmt 0
 880 05e4 13057005 		li	a0,87
 881 05e8 97000000 		call	_Z6putInti@plt
 881      E7800000 
 882              	.LVL103:
  28:src/../h/../h/../h/my_console.h ****     putNewline();
 883              		.loc 3 28 5 is_stmt 1
  28:src/../h/../h/../h/my_console.h ****     putNewline();
 884              		.loc 3 28 14 is_stmt 0
 885 05f0 17050000 		lla	a0,.LC5
 885      13050500 
 886 05f8 97000000 		call	_Z9putStringPKc@plt
 886      E7800000 
 887              	.LVL104:
  29:src/../h/../h/../h/my_console.h **** 
 888              		.loc 3 29 5 is_stmt 1
  29:src/../h/../h/../h/my_console.h **** 
 889              		.loc 3 29 15 is_stmt 0
 890 0600 97000000 		call	_Z10putNewlinev@plt
 890      E7800000 
 891              	.LVL105:
  31:src/../h/../h/../h/my_console.h **** 
 892              		.loc 3 31 5 is_stmt 1
 893              	.LBB206:
 894              	.LBB207:
  12:src/../h/../h/../h/../h/0_console.h ****         return &instance;
 895              		.loc 4 12 9
  12:src/../h/../h/../h/../h/0_console.h ****         return &instance;
 896              		.loc 4 12 25 is_stmt 0
 897 0608 97070000 		lbu	a5,_ZGVZN8IConsole3getEvE8instance
 897      83C70700 
 898 0610 63920702 		bnez	a5,.L35
GAS LISTING /tmp/cc728Fbo.s 			page 26


 899              	.LVL106:
 900              	.LBB208:
 901              	.LBB209:
 902              	.LBB210:
 903              		.loc 4 32 63
 904 0614 97070000 		lla	a5,_ZZN8IConsole3getEvE8instance
 904      93870700 
 905 061c 23B00700 		sd	zero,0(a5)
 906 0620 23B40700 		sd	zero,8(a5)
 907 0624 23BC073E 		sd	zero,1016(a5)
 908              	.LVL107:
 909              	.LBE210:
 910              	.LBE209:
 911              	.LBE208:
  12:src/../h/../h/../h/../h/0_console.h ****         return &instance;
 912              		.loc 4 12 25
 913 0628 93071000 		li	a5,1
 914 062c 17070000 		sb	a5,_ZGVZN8IConsole3getEvE8instance,a4
 914      2300F700 
 915              	.L35:
  13:src/../h/../h/../h/../h/0_console.h ****     }
 916              		.loc 4 13 9 is_stmt 1
 917              	.LBE207:
 918              	.LBE206:
  31:src/../h/../h/../h/my_console.h **** 
 919              		.loc 3 31 36 is_stmt 0
 920 0634 17050000 		lla	a0,_ZZN8IConsole3getEvE8instance
 920      13050500 
 921 063c 97000000 		call	_ZN8IConsole14writeToConsoleEv@plt
 921      E7800000 
 922              	.LVL108:
 923              		.loc 3 34 5 is_stmt 1
 924              		.loc 3 34 15 is_stmt 0
 925 0644 97000000 		call	_Z10stopKernelv@plt
 925      E7800000 
 926              	.LVL109:
 927              	.L47:
 928              	.LBE211:
 929              	.LBE212:
  94:src/scheduler.cpp ****     {
 930              		.loc 1 94 39 discriminator 1
 931 064c E38607DA 		beqz	a5,.L36
  96:src/scheduler.cpp **** 
 932              		.loc 1 96 9 is_stmt 1 discriminator 1
 933 0650 63820702 		beqz	a5,.L50
 934              	.L37:
 935              	.LVL110:
 936              	.LBB213:
 937              	.LBB214:
  21:src/../h/../h/../h/my_console.h ****         return;
 938              		.loc 3 21 5 discriminator 6
 939 0654 63040702 		beqz	a4,.L51
  22:src/../h/../h/../h/my_console.h **** 
 940              		.loc 3 22 9 discriminator 6
 941              	.LVL111:
 942              	.LBE214:
 943              	.LBE213:
GAS LISTING /tmp/cc728Fbo.s 			page 27


  98:src/scheduler.cpp ****         Scheduler::put(pNew);
 944              		.loc 1 98 9 discriminator 6
  98:src/scheduler.cpp ****         Scheduler::put(pNew);
 945              		.loc 1 98 14 is_stmt 0 discriminator 6
 946 0658 97070000 		la	a5,_ZN7IThread11pAllThreadsE
 946      83B70700 
 947              	.LVL112:
 948 0660 83B48700 		ld	s1,8(a5)
 949              	.LVL113:
  99:src/scheduler.cpp ****     }
 950              		.loc 1 99 9 is_stmt 1 discriminator 6
  99:src/scheduler.cpp ****     }
 951              		.loc 1 99 23 is_stmt 0 discriminator 6
 952 0664 13850400 		mv	a0,s1
 953              	.LVL114:
 954 0668 97000000 		call	_ZN9Scheduler3putEP7IThread
 954      E7800000 
 955              	.LVL115:
 956 0670 6FF09FD8 		j	.L36
 957              	.LVL116:
 958              	.L50:
  96:src/scheduler.cpp **** 
 959              		.loc 1 96 9
 960 0674 13070000 		li	a4,0
 961 0678 6FF0DFFD 		j	.L37
 962              	.LVL117:
 963              	.L51:
 964              	.LBB221:
 965              	.LBB220:
  24:src/../h/../h/../h/my_console.h ****     putString(file);
 966              		.loc 3 24 5 is_stmt 1
  24:src/../h/../h/../h/my_console.h ****     putString(file);
 967              		.loc 3 24 14 is_stmt 0
 968 067c 17050000 		lla	a0,.LC2
 968      13050500 
 969 0684 97000000 		call	_Z9putStringPKc@plt
 969      E7800000 
 970              	.LVL118:
  25:src/../h/../h/../h/my_console.h ****     putString("    line: ");
 971              		.loc 3 25 5 is_stmt 1
  25:src/../h/../h/../h/my_console.h ****     putString("    line: ");
 972              		.loc 3 25 14 is_stmt 0
 973 068c 17050000 		lla	a0,.LC3
 973      13050500 
 974 0694 97000000 		call	_Z9putStringPKc@plt
 974      E7800000 
 975              	.LVL119:
  26:src/../h/../h/../h/my_console.h ****     putInt(line);
 976              		.loc 3 26 5 is_stmt 1
  26:src/../h/../h/../h/my_console.h ****     putInt(line);
 977              		.loc 3 26 14 is_stmt 0
 978 069c 17050000 		lla	a0,.LC4
 978      13050500 
 979 06a4 97000000 		call	_Z9putStringPKc@plt
 979      E7800000 
 980              	.LVL120:
  27:src/../h/../h/../h/my_console.h ****     putString("   ===========================");
GAS LISTING /tmp/cc728Fbo.s 			page 28


 981              		.loc 3 27 5 is_stmt 1
  27:src/../h/../h/../h/my_console.h ****     putString("   ===========================");
 982              		.loc 3 27 11 is_stmt 0
 983 06ac 13050006 		li	a0,96
 984 06b0 97000000 		call	_Z6putInti@plt
 984      E7800000 
 985              	.LVL121:
  28:src/../h/../h/../h/my_console.h ****     putNewline();
 986              		.loc 3 28 5 is_stmt 1
  28:src/../h/../h/../h/my_console.h ****     putNewline();
 987              		.loc 3 28 14 is_stmt 0
 988 06b8 17050000 		lla	a0,.LC5
 988      13050500 
 989 06c0 97000000 		call	_Z9putStringPKc@plt
 989      E7800000 
 990              	.LVL122:
  29:src/../h/../h/../h/my_console.h **** 
 991              		.loc 3 29 5 is_stmt 1
  29:src/../h/../h/../h/my_console.h **** 
 992              		.loc 3 29 15 is_stmt 0
 993 06c8 97000000 		call	_Z10putNewlinev@plt
 993      E7800000 
 994              	.LVL123:
  31:src/../h/../h/../h/my_console.h **** 
 995              		.loc 3 31 5 is_stmt 1
 996              	.LBB215:
 997              	.LBB216:
  12:src/../h/../h/../h/../h/0_console.h ****         return &instance;
 998              		.loc 4 12 9
  12:src/../h/../h/../h/../h/0_console.h ****         return &instance;
 999              		.loc 4 12 25 is_stmt 0
 1000 06d0 97070000 		lbu	a5,_ZGVZN8IConsole3getEvE8instance
 1000      83C70700 
 1001 06d8 63920702 		bnez	a5,.L39
 1002              	.LVL124:
 1003              	.LBB217:
 1004              	.LBB218:
 1005              	.LBB219:
 1006              		.loc 4 32 63
 1007 06dc 97070000 		lla	a5,_ZZN8IConsole3getEvE8instance
 1007      93870700 
 1008 06e4 23B00700 		sd	zero,0(a5)
 1009 06e8 23B40700 		sd	zero,8(a5)
 1010 06ec 23BC073E 		sd	zero,1016(a5)
 1011              	.LVL125:
 1012              	.LBE219:
 1013              	.LBE218:
 1014              	.LBE217:
  12:src/../h/../h/../h/../h/0_console.h ****         return &instance;
 1015              		.loc 4 12 25
 1016 06f0 93071000 		li	a5,1
 1017 06f4 17070000 		sb	a5,_ZGVZN8IConsole3getEvE8instance,a4
 1017      2300F700 
 1018              	.L39:
  13:src/../h/../h/../h/../h/0_console.h ****     }
 1019              		.loc 4 13 9 is_stmt 1
 1020              	.LBE216:
GAS LISTING /tmp/cc728Fbo.s 			page 29


 1021              	.LBE215:
  31:src/../h/../h/../h/my_console.h **** 
 1022              		.loc 3 31 36 is_stmt 0
 1023 06fc 17050000 		lla	a0,_ZZN8IConsole3getEvE8instance
 1023      13050500 
 1024 0704 97000000 		call	_ZN8IConsole14writeToConsoleEv@plt
 1024      E7800000 
 1025              	.LVL126:
 1026              		.loc 3 34 5 is_stmt 1
 1027              		.loc 3 34 15 is_stmt 0
 1028 070c 97000000 		call	_Z10stopKernelv@plt
 1028      E7800000 
 1029              	.LVL127:
 1030              	.L48:
 1031              	.LBE220:
 1032              	.LBE221:
 1033              	.LBB222:
 1034              	.LBB201:
  24:src/../h/../h/../h/my_console.h ****     putString(file);
 1035              		.loc 3 24 5 is_stmt 1
  24:src/../h/../h/../h/my_console.h ****     putString(file);
 1036              		.loc 3 24 14 is_stmt 0
 1037 0714 17050000 		lla	a0,.LC2
 1037      13050500 
 1038 071c 97000000 		call	_Z9putStringPKc@plt
 1038      E7800000 
 1039              	.LVL128:
  25:src/../h/../h/../h/my_console.h ****     putString("    line: ");
 1040              		.loc 3 25 5 is_stmt 1
  25:src/../h/../h/../h/my_console.h ****     putString("    line: ");
 1041              		.loc 3 25 14 is_stmt 0
 1042 0724 17050000 		lla	a0,.LC3
 1042      13050500 
 1043 072c 97000000 		call	_Z9putStringPKc@plt
 1043      E7800000 
 1044              	.LVL129:
  26:src/../h/../h/../h/my_console.h ****     putInt(line);
 1045              		.loc 3 26 5 is_stmt 1
  26:src/../h/../h/../h/my_console.h ****     putInt(line);
 1046              		.loc 3 26 14 is_stmt 0
 1047 0734 17050000 		lla	a0,.LC4
 1047      13050500 
 1048 073c 97000000 		call	_Z9putStringPKc@plt
 1048      E7800000 
 1049              	.LVL130:
  27:src/../h/../h/../h/my_console.h ****     putString("   ===========================");
 1050              		.loc 3 27 5 is_stmt 1
  27:src/../h/../h/../h/my_console.h ****     putString("   ===========================");
 1051              		.loc 3 27 11 is_stmt 0
 1052 0744 13056006 		li	a0,102
 1053 0748 97000000 		call	_Z6putInti@plt
 1053      E7800000 
 1054              	.LVL131:
  28:src/../h/../h/../h/my_console.h ****     putNewline();
 1055              		.loc 3 28 5 is_stmt 1
  28:src/../h/../h/../h/my_console.h ****     putNewline();
 1056              		.loc 3 28 14 is_stmt 0
GAS LISTING /tmp/cc728Fbo.s 			page 30


 1057 0750 17050000 		lla	a0,.LC5
 1057      13050500 
 1058 0758 97000000 		call	_Z9putStringPKc@plt
 1058      E7800000 
 1059              	.LVL132:
  29:src/../h/../h/../h/my_console.h **** 
 1060              		.loc 3 29 5 is_stmt 1
  29:src/../h/../h/../h/my_console.h **** 
 1061              		.loc 3 29 15 is_stmt 0
 1062 0760 97000000 		call	_Z10putNewlinev@plt
 1062      E7800000 
 1063              	.LVL133:
  31:src/../h/../h/../h/my_console.h **** 
 1064              		.loc 3 31 5 is_stmt 1
 1065              	.LBB196:
 1066              	.LBB197:
  12:src/../h/../h/../h/../h/0_console.h ****         return &instance;
 1067              		.loc 4 12 9
  12:src/../h/../h/../h/../h/0_console.h ****         return &instance;
 1068              		.loc 4 12 25 is_stmt 0
 1069 0768 97070000 		lbu	a5,_ZGVZN8IConsole3getEvE8instance
 1069      83C70700 
 1070 0770 63920702 		bnez	a5,.L41
 1071              	.LVL134:
 1072              	.LBB198:
 1073              	.LBB199:
 1074              	.LBB200:
 1075              		.loc 4 32 63
 1076 0774 97070000 		lla	a5,_ZZN8IConsole3getEvE8instance
 1076      93870700 
 1077 077c 23B00700 		sd	zero,0(a5)
 1078 0780 23B40700 		sd	zero,8(a5)
 1079 0784 23BC073E 		sd	zero,1016(a5)
 1080              	.LVL135:
 1081              	.LBE200:
 1082              	.LBE199:
 1083              	.LBE198:
  12:src/../h/../h/../h/../h/0_console.h ****         return &instance;
 1084              		.loc 4 12 25
 1085 0788 93071000 		li	a5,1
 1086 078c 17070000 		sb	a5,_ZGVZN8IConsole3getEvE8instance,a4
 1086      2300F700 
 1087              	.L41:
  13:src/../h/../h/../h/../h/0_console.h ****     }
 1088              		.loc 4 13 9 is_stmt 1
 1089              	.LBE197:
 1090              	.LBE196:
  31:src/../h/../h/../h/my_console.h **** 
 1091              		.loc 3 31 36 is_stmt 0
 1092 0794 17050000 		lla	a0,_ZZN8IConsole3getEvE8instance
 1092      13050500 
 1093 079c 97000000 		call	_ZN8IConsole14writeToConsoleEv@plt
 1093      E7800000 
 1094              	.LVL136:
 1095              		.loc 3 34 5 is_stmt 1
 1096              		.loc 3 34 15 is_stmt 0
 1097 07a4 97000000 		call	_Z10stopKernelv@plt
GAS LISTING /tmp/cc728Fbo.s 			page 31


 1097      E7800000 
 1098              	.LVL137:
 1099              	.LBE201:
 1100              	.LBE222:
 1101              		.cfi_endproc
 1102              	.LFE15:
 1104              		.align	2
 1105              		.globl	_ZN9Scheduler5sleepEm
 1107              	_ZN9Scheduler5sleepEm:
 1108              	.LFB12:
   4:src/scheduler.cpp ****     assert(IThread::getPRunning()->state == IThread::RUNNING);
 1109              		.loc 1 4 1 is_stmt 1
 1110              		.cfi_startproc
 1111              	.LVL138:
 1112 07ac 130101FE 		addi	sp,sp,-32
 1113              		.cfi_def_cfa_offset 32
 1114 07b0 233C1100 		sd	ra,24(sp)
 1115 07b4 23388100 		sd	s0,16(sp)
 1116 07b8 23349100 		sd	s1,8(sp)
 1117 07bc 23302101 		sd	s2,0(sp)
 1118              		.cfi_offset 1, -8
 1119              		.cfi_offset 8, -16
 1120              		.cfi_offset 9, -24
 1121              		.cfi_offset 18, -32
 1122 07c0 13040102 		addi	s0,sp,32
 1123              		.cfi_def_cfa 8, 0
 1124 07c4 93040500 		mv	s1,a0
 1125 07c8 13890500 		mv	s2,a1
   5:src/scheduler.cpp ****     assert(IThread::getPRunning()->done == false);
 1126              		.loc 1 5 5
 1127 07cc 97000000 		call	_ZN7IThread11getPRunningEv@plt
 1127      E7800000 
 1128              	.LVL139:
 1129 07d4 83270500 		lw	a5,0(a0)
 1130              	.LVL140:
 1131              	.LBB237:
 1132              	.LBB238:
  21:src/../h/../h/../h/my_console.h ****         return;
 1133              		.loc 3 21 5
 1134 07d8 639E0706 		bnez	a5,.L60
  22:src/../h/../h/../h/my_console.h **** 
 1135              		.loc 3 22 9
 1136              	.LVL141:
 1137              	.LBE238:
 1138              	.LBE237:
   6:src/scheduler.cpp **** 
 1139              		.loc 1 6 5
 1140 07dc 97000000 		call	_ZN7IThread11getPRunningEv@plt
 1140      E7800000 
 1141              	.LVL142:
 1142 07e4 83470504 		lbu	a5,64(a0)
 1143 07e8 93C71700 		xori	a5,a5,1
 1144              	.LVL143:
 1145              	.LBB245:
 1146              	.LBB246:
  21:src/../h/../h/../h/my_console.h ****         return;
 1147              		.loc 3 21 5
GAS LISTING /tmp/cc728Fbo.s 			page 32


 1148 07ec 63800710 		beqz	a5,.L61
  22:src/../h/../h/../h/my_console.h **** 
 1149              		.loc 3 22 9
 1150              	.LVL144:
 1151              	.LBE246:
 1152              	.LBE245:
   8:src/scheduler.cpp ****     IThread::getPRunning()->remainingSleep = time;
 1153              		.loc 1 8 5
   8:src/scheduler.cpp ****     IThread::getPRunning()->remainingSleep = time;
 1154              		.loc 1 8 25 is_stmt 0
 1155 07f0 97000000 		call	_ZN7IThread11getPRunningEv@plt
 1155      E7800000 
 1156              	.LVL145:
   8:src/scheduler.cpp ****     IThread::getPRunning()->remainingSleep = time;
 1157              		.loc 1 8 35
 1158 07f8 93071000 		li	a5,1
 1159 07fc 2320F500 		sw	a5,0(a0)
   9:src/scheduler.cpp **** 
 1160              		.loc 1 9 5 is_stmt 1
   9:src/scheduler.cpp **** 
 1161              		.loc 1 9 25 is_stmt 0
 1162 0800 97000000 		call	_ZN7IThread11getPRunningEv@plt
 1162      E7800000 
 1163              	.LVL146:
   9:src/scheduler.cpp **** 
 1164              		.loc 1 9 44
 1165 0808 23342505 		sd	s2,72(a0)
  11:src/scheduler.cpp ****     {
 1166              		.loc 1 11 5 is_stmt 1
  11:src/scheduler.cpp ****     {
 1167              		.loc 1 11 8 is_stmt 0
 1168 080c 83B78400 		ld	a5,8(s1)
  11:src/scheduler.cpp ****     {
 1169              		.loc 1 11 5
 1170 0810 638A0716 		beqz	a5,.L62
  18:src/scheduler.cpp ****         pSleepHead = IThread::getPRunning();
 1171              		.loc 1 18 9 is_stmt 1
  18:src/scheduler.cpp ****         pSleepHead = IThread::getPRunning();
 1172              		.loc 1 18 29 is_stmt 0
 1173 0814 97000000 		call	_ZN7IThread11getPRunningEv@plt
 1173      E7800000 
 1174              	.LVL147:
  18:src/scheduler.cpp ****         pSleepHead = IThread::getPRunning();
 1175              		.loc 1 18 41
 1176 081c 83B78400 		ld	a5,8(s1)
  18:src/scheduler.cpp ****         pSleepHead = IThread::getPRunning();
 1177              		.loc 1 18 39
 1178 0820 2338F502 		sd	a5,48(a0)
  19:src/scheduler.cpp ****     }
 1179              		.loc 1 19 9 is_stmt 1
  19:src/scheduler.cpp ****     }
 1180              		.loc 1 19 42 is_stmt 0
 1181 0824 97000000 		call	_ZN7IThread11getPRunningEv@plt
 1181      E7800000 
 1182              	.LVL148:
  19:src/scheduler.cpp ****     }
 1183              		.loc 1 19 20
GAS LISTING /tmp/cc728Fbo.s 			page 33


 1184 082c 23B4A400 		sd	a0,8(s1)
 1185              	.L58:
  22:src/scheduler.cpp **** 
 1186              		.loc 1 22 5 is_stmt 1
  22:src/scheduler.cpp **** 
 1187              		.loc 1 22 19 is_stmt 0
 1188 0830 97000000 		call	_ZN9Scheduler14dispatchToNextEv
 1188      E7800000 
 1189              	.LVL149:
  24:src/scheduler.cpp **** }
 1190              		.loc 1 24 5 is_stmt 1
  25:src/scheduler.cpp **** 
 1191              		.loc 1 25 1 is_stmt 0
 1192 0838 13050000 		li	a0,0
 1193 083c 83308101 		ld	ra,24(sp)
 1194              		.cfi_remember_state
 1195              		.cfi_restore 1
 1196 0840 03340101 		ld	s0,16(sp)
 1197              		.cfi_restore 8
 1198              		.cfi_def_cfa 2, 32
 1199 0844 83348100 		ld	s1,8(sp)
 1200              		.cfi_restore 9
 1201              	.LVL150:
 1202 0848 03390100 		ld	s2,0(sp)
 1203              		.cfi_restore 18
 1204              	.LVL151:
 1205 084c 13010102 		addi	sp,sp,32
 1206              		.cfi_def_cfa_offset 0
 1207 0850 67800000 		jr	ra
 1208              	.LVL152:
 1209              	.L60:
 1210              		.cfi_restore_state
 1211              	.LBB253:
 1212              	.LBB244:
  24:src/../h/../h/../h/my_console.h ****     putString(file);
 1213              		.loc 3 24 5 is_stmt 1
  24:src/../h/../h/../h/my_console.h ****     putString(file);
 1214              		.loc 3 24 14 is_stmt 0
 1215 0854 17050000 		lla	a0,.LC2
 1215      13050500 
 1216 085c 97000000 		call	_Z9putStringPKc@plt
 1216      E7800000 
 1217              	.LVL153:
  25:src/../h/../h/../h/my_console.h ****     putString("    line: ");
 1218              		.loc 3 25 5 is_stmt 1
  25:src/../h/../h/../h/my_console.h ****     putString("    line: ");
 1219              		.loc 3 25 14 is_stmt 0
 1220 0864 17050000 		lla	a0,.LC3
 1220      13050500 
 1221 086c 97000000 		call	_Z9putStringPKc@plt
 1221      E7800000 
 1222              	.LVL154:
  26:src/../h/../h/../h/my_console.h ****     putInt(line);
 1223              		.loc 3 26 5 is_stmt 1
  26:src/../h/../h/../h/my_console.h ****     putInt(line);
 1224              		.loc 3 26 14 is_stmt 0
 1225 0874 17050000 		lla	a0,.LC4
GAS LISTING /tmp/cc728Fbo.s 			page 34


 1225      13050500 
 1226 087c 97000000 		call	_Z9putStringPKc@plt
 1226      E7800000 
 1227              	.LVL155:
  27:src/../h/../h/../h/my_console.h ****     putString("   ===========================");
 1228              		.loc 3 27 5 is_stmt 1
  27:src/../h/../h/../h/my_console.h ****     putString("   ===========================");
 1229              		.loc 3 27 11 is_stmt 0
 1230 0884 13055000 		li	a0,5
 1231 0888 97000000 		call	_Z6putInti@plt
 1231      E7800000 
 1232              	.LVL156:
  28:src/../h/../h/../h/my_console.h ****     putNewline();
 1233              		.loc 3 28 5 is_stmt 1
  28:src/../h/../h/../h/my_console.h ****     putNewline();
 1234              		.loc 3 28 14 is_stmt 0
 1235 0890 17050000 		lla	a0,.LC5
 1235      13050500 
 1236 0898 97000000 		call	_Z9putStringPKc@plt
 1236      E7800000 
 1237              	.LVL157:
  29:src/../h/../h/../h/my_console.h **** 
 1238              		.loc 3 29 5 is_stmt 1
  29:src/../h/../h/../h/my_console.h **** 
 1239              		.loc 3 29 15 is_stmt 0
 1240 08a0 97000000 		call	_Z10putNewlinev@plt
 1240      E7800000 
 1241              	.LVL158:
  31:src/../h/../h/../h/my_console.h **** 
 1242              		.loc 3 31 5 is_stmt 1
 1243              	.LBB239:
 1244              	.LBB240:
  12:src/../h/../h/../h/../h/0_console.h ****         return &instance;
 1245              		.loc 4 12 9
  12:src/../h/../h/../h/../h/0_console.h ****         return &instance;
 1246              		.loc 4 12 25 is_stmt 0
 1247 08a8 97070000 		lbu	a5,_ZGVZN8IConsole3getEvE8instance
 1247      83C70700 
 1248 08b0 63920702 		bnez	a5,.L54
 1249              	.LVL159:
 1250              	.LBB241:
 1251              	.LBB242:
 1252              	.LBB243:
 1253              		.loc 4 32 63
 1254 08b4 97070000 		lla	a5,_ZZN8IConsole3getEvE8instance
 1254      93870700 
 1255 08bc 23B00700 		sd	zero,0(a5)
 1256 08c0 23B40700 		sd	zero,8(a5)
 1257 08c4 23BC073E 		sd	zero,1016(a5)
 1258              	.LVL160:
 1259              	.LBE243:
 1260              	.LBE242:
 1261              	.LBE241:
  12:src/../h/../h/../h/../h/0_console.h ****         return &instance;
 1262              		.loc 4 12 25
 1263 08c8 93071000 		li	a5,1
 1264 08cc 17070000 		sb	a5,_ZGVZN8IConsole3getEvE8instance,a4
GAS LISTING /tmp/cc728Fbo.s 			page 35


 1264      2300F700 
 1265              	.L54:
  13:src/../h/../h/../h/../h/0_console.h ****     }
 1266              		.loc 4 13 9 is_stmt 1
 1267              	.LBE240:
 1268              	.LBE239:
  31:src/../h/../h/../h/my_console.h **** 
 1269              		.loc 3 31 36 is_stmt 0
 1270 08d4 17050000 		lla	a0,_ZZN8IConsole3getEvE8instance
 1270      13050500 
 1271 08dc 97000000 		call	_ZN8IConsole14writeToConsoleEv@plt
 1271      E7800000 
 1272              	.LVL161:
 1273              		.loc 3 34 5 is_stmt 1
 1274              		.loc 3 34 15 is_stmt 0
 1275 08e4 97000000 		call	_Z10stopKernelv@plt
 1275      E7800000 
 1276              	.LVL162:
 1277              	.L61:
 1278              	.LBE244:
 1279              	.LBE253:
 1280              	.LBB254:
 1281              	.LBB252:
  24:src/../h/../h/../h/my_console.h ****     putString(file);
 1282              		.loc 3 24 5 is_stmt 1
  24:src/../h/../h/../h/my_console.h ****     putString(file);
 1283              		.loc 3 24 14 is_stmt 0
 1284 08ec 17050000 		lla	a0,.LC2
 1284      13050500 
 1285 08f4 97000000 		call	_Z9putStringPKc@plt
 1285      E7800000 
 1286              	.LVL163:
  25:src/../h/../h/../h/my_console.h ****     putString("    line: ");
 1287              		.loc 3 25 5 is_stmt 1
  25:src/../h/../h/../h/my_console.h ****     putString("    line: ");
 1288              		.loc 3 25 14 is_stmt 0
 1289 08fc 17050000 		lla	a0,.LC3
 1289      13050500 
 1290 0904 97000000 		call	_Z9putStringPKc@plt
 1290      E7800000 
 1291              	.LVL164:
  26:src/../h/../h/../h/my_console.h ****     putInt(line);
 1292              		.loc 3 26 5 is_stmt 1
  26:src/../h/../h/../h/my_console.h ****     putInt(line);
 1293              		.loc 3 26 14 is_stmt 0
 1294 090c 17050000 		lla	a0,.LC4
 1294      13050500 
 1295 0914 97000000 		call	_Z9putStringPKc@plt
 1295      E7800000 
 1296              	.LVL165:
  27:src/../h/../h/../h/my_console.h ****     putString("   ===========================");
 1297              		.loc 3 27 5 is_stmt 1
  27:src/../h/../h/../h/my_console.h ****     putString("   ===========================");
 1298              		.loc 3 27 11 is_stmt 0
 1299 091c 13056000 		li	a0,6
 1300 0920 97000000 		call	_Z6putInti@plt
 1300      E7800000 
GAS LISTING /tmp/cc728Fbo.s 			page 36


 1301              	.LVL166:
  28:src/../h/../h/../h/my_console.h ****     putNewline();
 1302              		.loc 3 28 5 is_stmt 1
  28:src/../h/../h/../h/my_console.h ****     putNewline();
 1303              		.loc 3 28 14 is_stmt 0
 1304 0928 17050000 		lla	a0,.LC5
 1304      13050500 
 1305 0930 97000000 		call	_Z9putStringPKc@plt
 1305      E7800000 
 1306              	.LVL167:
  29:src/../h/../h/../h/my_console.h **** 
 1307              		.loc 3 29 5 is_stmt 1
  29:src/../h/../h/../h/my_console.h **** 
 1308              		.loc 3 29 15 is_stmt 0
 1309 0938 97000000 		call	_Z10putNewlinev@plt
 1309      E7800000 
 1310              	.LVL168:
  31:src/../h/../h/../h/my_console.h **** 
 1311              		.loc 3 31 5 is_stmt 1
 1312              	.LBB247:
 1313              	.LBB248:
  12:src/../h/../h/../h/../h/0_console.h ****         return &instance;
 1314              		.loc 4 12 9
  12:src/../h/../h/../h/../h/0_console.h ****         return &instance;
 1315              		.loc 4 12 25 is_stmt 0
 1316 0940 97070000 		lbu	a5,_ZGVZN8IConsole3getEvE8instance
 1316      83C70700 
 1317 0948 63920702 		bnez	a5,.L56
 1318              	.LVL169:
 1319              	.LBB249:
 1320              	.LBB250:
 1321              	.LBB251:
 1322              		.loc 4 32 63
 1323 094c 97070000 		lla	a5,_ZZN8IConsole3getEvE8instance
 1323      93870700 
 1324 0954 23B00700 		sd	zero,0(a5)
 1325 0958 23B40700 		sd	zero,8(a5)
 1326 095c 23BC073E 		sd	zero,1016(a5)
 1327              	.LVL170:
 1328              	.LBE251:
 1329              	.LBE250:
 1330              	.LBE249:
  12:src/../h/../h/../h/../h/0_console.h ****         return &instance;
 1331              		.loc 4 12 25
 1332 0960 93071000 		li	a5,1
 1333 0964 17070000 		sb	a5,_ZGVZN8IConsole3getEvE8instance,a4
 1333      2300F700 
 1334              	.L56:
  13:src/../h/../h/../h/../h/0_console.h ****     }
 1335              		.loc 4 13 9 is_stmt 1
 1336              	.LBE248:
 1337              	.LBE247:
  31:src/../h/../h/../h/my_console.h **** 
 1338              		.loc 3 31 36 is_stmt 0
 1339 096c 17050000 		lla	a0,_ZZN8IConsole3getEvE8instance
 1339      13050500 
 1340 0974 97000000 		call	_ZN8IConsole14writeToConsoleEv@plt
GAS LISTING /tmp/cc728Fbo.s 			page 37


 1340      E7800000 
 1341              	.LVL171:
 1342              		.loc 3 34 5 is_stmt 1
 1343              		.loc 3 34 15 is_stmt 0
 1344 097c 97000000 		call	_Z10stopKernelv@plt
 1344      E7800000 
 1345              	.LVL172:
 1346              	.L62:
 1347              	.LBE252:
 1348              	.LBE254:
  13:src/scheduler.cpp ****         IThread::getPRunning()->pNext = nullptr;
 1349              		.loc 1 13 9 is_stmt 1
  13:src/scheduler.cpp ****         IThread::getPRunning()->pNext = nullptr;
 1350              		.loc 1 13 42 is_stmt 0
 1351 0984 97000000 		call	_ZN7IThread11getPRunningEv@plt
 1351      E7800000 
 1352              	.LVL173:
  13:src/scheduler.cpp ****         IThread::getPRunning()->pNext = nullptr;
 1353              		.loc 1 13 20
 1354 098c 23B4A400 		sd	a0,8(s1)
  14:src/scheduler.cpp ****     }
 1355              		.loc 1 14 9 is_stmt 1
  14:src/scheduler.cpp ****     }
 1356              		.loc 1 14 29 is_stmt 0
 1357 0990 97000000 		call	_ZN7IThread11getPRunningEv@plt
 1357      E7800000 
 1358              	.LVL174:
  14:src/scheduler.cpp ****     }
 1359              		.loc 1 14 39
 1360 0998 23380502 		sd	zero,48(a0)
 1361 099c 6FF05FE9 		j	.L58
 1362              		.cfi_endproc
 1363              	.LFE12:
 1365              		.align	2
 1366              		.globl	_ZN9Scheduler19dispatchUserVersionEv
 1368              	_ZN9Scheduler19dispatchUserVersionEv:
 1369              	.LFB13:
  28:src/scheduler.cpp ****     extern IThread kernelThread;
 1370              		.loc 1 28 1 is_stmt 1
 1371              		.cfi_startproc
 1372 09a0 130101FF 		addi	sp,sp,-16
 1373              		.cfi_def_cfa_offset 16
 1374 09a4 23341100 		sd	ra,8(sp)
 1375 09a8 23308100 		sd	s0,0(sp)
 1376              		.cfi_offset 1, -8
 1377              		.cfi_offset 8, -16
 1378 09ac 13040101 		addi	s0,sp,16
 1379              		.cfi_def_cfa 8, 0
  29:src/scheduler.cpp ****     assert(IThread::getPRunning() !=
 1380              		.loc 1 29 5
  30:src/scheduler.cpp ****            &kernelThread); // you're only supposed to open user threads with system call with code 
 1381              		.loc 1 30 5
 1382 09b0 97000000 		call	_ZN7IThread11getPRunningEv@plt
 1382      E7800000 
 1383              	.LVL175:
 1384 09b8 97070000 		la	a5,kernelThread
 1384      83B70700 
GAS LISTING /tmp/cc728Fbo.s 			page 38


 1385              	.LVL176:
 1386              	.LBB262:
 1387              	.LBB263:
  21:src/../h/../h/../h/my_console.h ****         return;
 1388              		.loc 3 21 5
 1389 09c0 6388A702 		beq	a5,a0,.L68
  22:src/../h/../h/../h/my_console.h **** 
 1390              		.loc 3 22 9
 1391              	.LVL177:
 1392              	.LBE263:
 1393              	.LBE262:
  33:src/scheduler.cpp ****     {
 1394              		.loc 1 33 5
  33:src/scheduler.cpp ****     {
 1395              		.loc 1 33 28 is_stmt 0
 1396 09c4 97000000 		call	_ZN7IThread11getPRunningEv@plt
 1396      E7800000 
 1397              	.LVL178:
  33:src/scheduler.cpp ****     {
 1398              		.loc 1 33 32
 1399 09cc 03378502 		ld	a4,40(a0)
  33:src/scheduler.cpp ****     {
 1400              		.loc 1 33 5
 1401 09d0 93071000 		li	a5,1
 1402 09d4 631AF70A 		bne	a4,a5,.L69
 1403              	.L66:
  39:src/scheduler.cpp **** }
 1404              		.loc 1 39 5 is_stmt 1
  39:src/scheduler.cpp **** }
 1405              		.loc 1 39 30 is_stmt 0
 1406 09d8 97000000 		call	_ZN9Scheduler14dispatchToNextEv
 1406      E7800000 
 1407              	.LVL179:
  40:src/scheduler.cpp **** 
 1408              		.loc 1 40 1
 1409 09e0 83308100 		ld	ra,8(sp)
 1410              		.cfi_remember_state
 1411              		.cfi_restore 1
 1412 09e4 03340100 		ld	s0,0(sp)
 1413              		.cfi_restore 8
 1414              		.cfi_def_cfa 2, 16
 1415 09e8 13010101 		addi	sp,sp,16
 1416              		.cfi_def_cfa_offset 0
 1417 09ec 67800000 		jr	ra
 1418              	.LVL180:
 1419              	.L68:
 1420              		.cfi_restore_state
 1421              	.LBB270:
 1422              	.LBB269:
  24:src/../h/../h/../h/my_console.h ****     putString(file);
 1423              		.loc 3 24 5 is_stmt 1
  24:src/../h/../h/../h/my_console.h ****     putString(file);
 1424              		.loc 3 24 14 is_stmt 0
 1425 09f0 17050000 		lla	a0,.LC2
 1425      13050500 
 1426              	.LVL181:
 1427 09f8 97000000 		call	_Z9putStringPKc@plt
GAS LISTING /tmp/cc728Fbo.s 			page 39


 1427      E7800000 
 1428              	.LVL182:
  25:src/../h/../h/../h/my_console.h ****     putString("    line: ");
 1429              		.loc 3 25 5 is_stmt 1
  25:src/../h/../h/../h/my_console.h ****     putString("    line: ");
 1430              		.loc 3 25 14 is_stmt 0
 1431 0a00 17050000 		lla	a0,.LC3
 1431      13050500 
 1432 0a08 97000000 		call	_Z9putStringPKc@plt
 1432      E7800000 
 1433              	.LVL183:
  26:src/../h/../h/../h/my_console.h ****     putInt(line);
 1434              		.loc 3 26 5 is_stmt 1
  26:src/../h/../h/../h/my_console.h ****     putInt(line);
 1435              		.loc 3 26 14 is_stmt 0
 1436 0a10 17050000 		lla	a0,.LC4
 1436      13050500 
 1437 0a18 97000000 		call	_Z9putStringPKc@plt
 1437      E7800000 
 1438              	.LVL184:
  27:src/../h/../h/../h/my_console.h ****     putString("   ===========================");
 1439              		.loc 3 27 5 is_stmt 1
  27:src/../h/../h/../h/my_console.h ****     putString("   ===========================");
 1440              		.loc 3 27 11 is_stmt 0
 1441 0a20 1305E001 		li	a0,30
 1442 0a24 97000000 		call	_Z6putInti@plt
 1442      E7800000 
 1443              	.LVL185:
  28:src/../h/../h/../h/my_console.h ****     putNewline();
 1444              		.loc 3 28 5 is_stmt 1
  28:src/../h/../h/../h/my_console.h ****     putNewline();
 1445              		.loc 3 28 14 is_stmt 0
 1446 0a2c 17050000 		lla	a0,.LC5
 1446      13050500 
 1447 0a34 97000000 		call	_Z9putStringPKc@plt
 1447      E7800000 
 1448              	.LVL186:
  29:src/../h/../h/../h/my_console.h **** 
 1449              		.loc 3 29 5 is_stmt 1
  29:src/../h/../h/../h/my_console.h **** 
 1450              		.loc 3 29 15 is_stmt 0
 1451 0a3c 97000000 		call	_Z10putNewlinev@plt
 1451      E7800000 
 1452              	.LVL187:
  31:src/../h/../h/../h/my_console.h **** 
 1453              		.loc 3 31 5 is_stmt 1
 1454              	.LBB264:
 1455              	.LBB265:
  12:src/../h/../h/../h/../h/0_console.h ****         return &instance;
 1456              		.loc 4 12 9
  12:src/../h/../h/../h/../h/0_console.h ****         return &instance;
 1457              		.loc 4 12 25 is_stmt 0
 1458 0a44 97070000 		lbu	a5,_ZGVZN8IConsole3getEvE8instance
 1458      83C70700 
 1459 0a4c 63920702 		bnez	a5,.L65
 1460              	.LVL188:
 1461              	.LBB266:
GAS LISTING /tmp/cc728Fbo.s 			page 40


 1462              	.LBB267:
 1463              	.LBB268:
 1464              		.loc 4 32 63
 1465 0a50 97070000 		lla	a5,_ZZN8IConsole3getEvE8instance
 1465      93870700 
 1466 0a58 23B00700 		sd	zero,0(a5)
 1467 0a5c 23B40700 		sd	zero,8(a5)
 1468 0a60 23BC073E 		sd	zero,1016(a5)
 1469              	.LVL189:
 1470              	.LBE268:
 1471              	.LBE267:
 1472              	.LBE266:
  12:src/../h/../h/../h/../h/0_console.h ****         return &instance;
 1473              		.loc 4 12 25
 1474 0a64 93071000 		li	a5,1
 1475 0a68 17070000 		sb	a5,_ZGVZN8IConsole3getEvE8instance,a4
 1475      2300F700 
 1476              	.L65:
  13:src/../h/../h/../h/../h/0_console.h ****     }
 1477              		.loc 4 13 9 is_stmt 1
 1478              	.LBE265:
 1479              	.LBE264:
  31:src/../h/../h/../h/my_console.h **** 
 1480              		.loc 3 31 36 is_stmt 0
 1481 0a70 17050000 		lla	a0,_ZZN8IConsole3getEvE8instance
 1481      13050500 
 1482 0a78 97000000 		call	_ZN8IConsole14writeToConsoleEv@plt
 1482      E7800000 
 1483              	.LVL190:
 1484              		.loc 3 34 5 is_stmt 1
 1485              		.loc 3 34 15 is_stmt 0
 1486 0a80 97000000 		call	_Z10stopKernelv@plt
 1486      E7800000 
 1487              	.LVL191:
 1488              	.L69:
 1489              	.LBE269:
 1490              	.LBE270:
  35:src/scheduler.cpp ****         Scheduler::put(IThread::getPRunning());
 1491              		.loc 1 35 9 is_stmt 1
  35:src/scheduler.cpp ****         Scheduler::put(IThread::getPRunning());
 1492              		.loc 1 35 29 is_stmt 0
 1493 0a88 97000000 		call	_ZN7IThread11getPRunningEv@plt
 1493      E7800000 
 1494              	.LVL192:
  35:src/scheduler.cpp ****         Scheduler::put(IThread::getPRunning());
 1495              		.loc 1 35 39
 1496 0a90 93072000 		li	a5,2
 1497 0a94 2320F500 		sw	a5,0(a0)
  36:src/scheduler.cpp ****     }
 1498              		.loc 1 36 9 is_stmt 1
  36:src/scheduler.cpp ****     }
 1499              		.loc 1 36 23 is_stmt 0
 1500 0a98 97000000 		call	_ZN7IThread11getPRunningEv@plt
 1500      E7800000 
 1501              	.LVL193:
 1502 0aa0 97000000 		call	_ZN9Scheduler3putEP7IThread
 1502      E7800000 
GAS LISTING /tmp/cc728Fbo.s 			page 41


 1503              	.LVL194:
 1504 0aa8 6FF01FF3 		j	.L66
 1505              		.cfi_endproc
 1506              	.LFE13:
 1508              		.weak	_ZGVZN9Scheduler3getEvE8instance
 1509              		.section	.bss._ZGVZN9Scheduler3getEvE8instance,"awG",@nobits,_ZGVZN9Scheduler3getEvE8instance,comd
 1510              		.align	3
 1513              	_ZGVZN9Scheduler3getEvE8instance:
 1514 0000 00000000 		.zero	8
 1514      00000000 
 1515              		.weak	_ZZN9Scheduler3getEvE8instance
 1516              		.section	.bss._ZZN9Scheduler3getEvE8instance,"awG",@nobits,_ZZN9Scheduler3getEvE8instance,comdat
 1517              		.align	3
 1520              	_ZZN9Scheduler3getEvE8instance:
 1521 0000 00000000 		.zero	16
 1521      00000000 
 1521      00000000 
 1521      00000000 
 1522              		.weak	_ZGVZN8IConsole3getEvE8instance
 1523              		.section	.bss._ZGVZN8IConsole3getEvE8instance,"awG",@nobits,_ZGVZN8IConsole3getEvE8instance,comdat
 1524              		.align	3
 1527              	_ZGVZN8IConsole3getEvE8instance:
 1528 0000 00000000 		.zero	8
 1528      00000000 
 1529              		.weak	_ZZN8IConsole3getEvE8instance
 1530              		.section	.bss._ZZN8IConsole3getEvE8instance,"awG",@nobits,_ZZN8IConsole3getEvE8instance,comdat
 1531              		.align	3
 1534              	_ZZN8IConsole3getEvE8instance:
 1535 0000 00000000 		.zero	2048
 1535      00000000 
 1535      00000000 
 1535      00000000 
 1535      00000000 
 1536              		.text
 1537              	.Letext0:
 1538              		.file 5 "src/../h/../h/../lib/hw.h"
 1539              		.file 6 "src/../h/../h/thread.h"
 1540              		.file 7 "src/../h/../h/../h/syscall_c.hpp"
GAS LISTING /tmp/cc728Fbo.s 			page 42


DEFINED SYMBOLS
                            *ABS*:0000000000000000 scheduler.cpp
     /tmp/cc728Fbo.s:17     .text:0000000000000000 _ZN9Scheduler10printStateEv
     /tmp/cc728Fbo.s:21     .text:0000000000000000 .L0 
     /tmp/cc728Fbo.s:22     .text:0000000000000000 .L0 
     /tmp/cc728Fbo.s:23     .text:0000000000000004 .L0 
     /tmp/cc728Fbo.s:27     .text:0000000000000010 .L0 
     /tmp/cc728Fbo.s:28     .text:0000000000000010 .L0 
     /tmp/cc728Fbo.s:29     .text:0000000000000010 .L0 
     /tmp/cc728Fbo.s:31     .text:0000000000000014 .L0 
     /tmp/cc728Fbo.s:33     .text:0000000000000014 .L0 
     /tmp/cc728Fbo.s:34     .text:0000000000000014 .L0 
     /tmp/cc728Fbo.s:37     .text:000000000000001c .L0 
     /tmp/cc728Fbo.s:41     .text:0000000000000028 .L0 
     /tmp/cc728Fbo.s:42     .text:0000000000000028 .L0 
     /tmp/cc728Fbo.s:49     .text:0000000000000038 .L0 
     /tmp/cc728Fbo.s:50     .text:0000000000000038 .L0 
     /tmp/cc728Fbo.s:1513   .bss._ZGVZN9Scheduler3getEvE8instance:0000000000000000 _ZGVZN9Scheduler3getEvE8instance
     /tmp/cc728Fbo.s:51     .text:0000000000000038 .L0 
     /tmp/cc728Fbo.s:1520   .bss._ZZN9Scheduler3getEvE8instance:0000000000000000 _ZZN9Scheduler3getEvE8instance
     /tmp/cc728Fbo.s:58     .text:0000000000000044 .L0 
     /tmp/cc728Fbo.s:66     .text:0000000000000054 .L0 
     /tmp/cc728Fbo.s:72     .text:0000000000000060 .L0 
     /tmp/cc728Fbo.s:73     .text:0000000000000060 .L0 
     /tmp/cc728Fbo.s:77     .text:0000000000000068 .L0 
     /tmp/cc728Fbo.s:78     .text:0000000000000068 .L0 
     /tmp/cc728Fbo.s:80     .text:000000000000006c .L0 
     /tmp/cc728Fbo.s:81     .text:000000000000006c .L0 
     /tmp/cc728Fbo.s:85     .text:0000000000000078 .L0 
     /tmp/cc728Fbo.s:86     .text:0000000000000078 .L0 
     /tmp/cc728Fbo.s:88     .text:000000000000007c .L0 
     /tmp/cc728Fbo.s:90     .text:0000000000000080 .L0 
     /tmp/cc728Fbo.s:91     .text:0000000000000080 .L0 
     /tmp/cc728Fbo.s:95     .text:0000000000000090 .L0 
     /tmp/cc728Fbo.s:96     .text:0000000000000090 .L0 
     /tmp/cc728Fbo.s:99     .text:0000000000000094 .L0 
     /tmp/cc728Fbo.s:102    .text:0000000000000098 .L0 
     /tmp/cc728Fbo.s:103    .text:0000000000000098 .L0 
     /tmp/cc728Fbo.s:106    .text:00000000000000a0 .L0 
     /tmp/cc728Fbo.s:107    .text:00000000000000a4 .L0 
     /tmp/cc728Fbo.s:109    .text:00000000000000a8 .L0 
     /tmp/cc728Fbo.s:110    .text:00000000000000a8 .L0 
     /tmp/cc728Fbo.s:112    .text:00000000000000ac .L0 
     /tmp/cc728Fbo.s:115    .text:00000000000000b0 .L0 
     /tmp/cc728Fbo.s:117    .text:00000000000000b4 .L0 
     /tmp/cc728Fbo.s:137    .text:00000000000000b4 _ZN9Scheduler3putEP7IThread
     /tmp/cc728Fbo.s:140    .text:00000000000000b4 .L0 
     /tmp/cc728Fbo.s:142    .text:00000000000000b4 .L0 
     /tmp/cc728Fbo.s:143    .text:00000000000000b8 .L0 
     /tmp/cc728Fbo.s:146    .text:00000000000000c0 .L0 
     /tmp/cc728Fbo.s:147    .text:00000000000000c0 .L0 
     /tmp/cc728Fbo.s:149    .text:00000000000000c4 .L0 
     /tmp/cc728Fbo.s:151    .text:00000000000000c4 .L0 
     /tmp/cc728Fbo.s:153    .text:00000000000000c8 .L0 
     /tmp/cc728Fbo.s:160    .text:00000000000000d0 .L0 
     /tmp/cc728Fbo.s:165    .text:00000000000000d4 .L0 
     /tmp/cc728Fbo.s:166    .text:00000000000000d4 .L0 
GAS LISTING /tmp/cc728Fbo.s 			page 43


     /tmp/cc728Fbo.s:167    .text:00000000000000d4 .L0 
     /tmp/cc728Fbo.s:171    .text:00000000000000d8 .L0 
     /tmp/cc728Fbo.s:172    .text:00000000000000d8 .L0 
     /tmp/cc728Fbo.s:173    .text:00000000000000d8 .L0 
     /tmp/cc728Fbo.s:180    .text:00000000000000e4 .L0 
     /tmp/cc728Fbo.s:188    .text:00000000000000f4 .L0 
     /tmp/cc728Fbo.s:194    .text:0000000000000100 .L0 
     /tmp/cc728Fbo.s:195    .text:0000000000000100 .L0 
     /tmp/cc728Fbo.s:197    .text:0000000000000108 .L0 
     /tmp/cc728Fbo.s:201    .text:000000000000010c .L0 
     /tmp/cc728Fbo.s:202    .text:000000000000010c .L0 
     /tmp/cc728Fbo.s:203    .text:000000000000010c .L0 
     /tmp/cc728Fbo.s:210    .text:0000000000000118 .L0 
     /tmp/cc728Fbo.s:218    .text:0000000000000128 .L0 
     /tmp/cc728Fbo.s:224    .text:0000000000000134 .L0 
     /tmp/cc728Fbo.s:225    .text:0000000000000134 .L0 
     /tmp/cc728Fbo.s:229    .text:000000000000013c .L0 
     /tmp/cc728Fbo.s:230    .text:000000000000013c .L0 
     /tmp/cc728Fbo.s:235    .text:0000000000000148 .L0 
     /tmp/cc728Fbo.s:236    .text:0000000000000148 .L0 
     /tmp/cc728Fbo.s:240    .text:000000000000014c .L0 
     /tmp/cc728Fbo.s:241    .text:0000000000000150 .L0 
     /tmp/cc728Fbo.s:242    .text:0000000000000150 .L0 
     /tmp/cc728Fbo.s:244    .text:0000000000000154 .L0 
     /tmp/cc728Fbo.s:245    .text:0000000000000154 .L0 
     /tmp/cc728Fbo.s:247    .text:0000000000000158 .L0 
     /tmp/cc728Fbo.s:250    .text:000000000000015c .L0 
     /tmp/cc728Fbo.s:255    .text:000000000000015c .L0 
     /tmp/cc728Fbo.s:256    .text:000000000000015c .L0 
     /tmp/cc728Fbo.s:257    .text:000000000000015c .L0 
     /tmp/cc728Fbo.s:258    .text:000000000000015c .L0 
     /tmp/cc728Fbo.s:263    .text:000000000000016c .L0 
     /tmp/cc728Fbo.s:264    .text:000000000000016c .L0 
     /tmp/cc728Fbo.s:268    .text:000000000000017c .L0 
     /tmp/cc728Fbo.s:269    .text:000000000000017c .L0 
     /tmp/cc728Fbo.s:273    .text:000000000000018c .L0 
     /tmp/cc728Fbo.s:274    .text:000000000000018c .L0 
     /tmp/cc728Fbo.s:278    .text:0000000000000198 .L0 
     /tmp/cc728Fbo.s:279    .text:0000000000000198 .L0 
     /tmp/cc728Fbo.s:283    .text:00000000000001a8 .L0 
     /tmp/cc728Fbo.s:284    .text:00000000000001a8 .L0 
     /tmp/cc728Fbo.s:290    .text:00000000000001b0 .L0 
     /tmp/cc728Fbo.s:291    .text:00000000000001b0 .L0 
     /tmp/cc728Fbo.s:1527   .bss._ZGVZN8IConsole3getEvE8instance:0000000000000000 _ZGVZN8IConsole3getEvE8instance
     /tmp/cc728Fbo.s:292    .text:00000000000001b0 .L0 
     /tmp/cc728Fbo.s:1534   .bss._ZZN8IConsole3getEvE8instance:0000000000000000 _ZZN8IConsole3getEvE8instance
     /tmp/cc728Fbo.s:299    .text:00000000000001bc .L0 
     /tmp/cc728Fbo.s:308    .text:00000000000001d0 .L0 
     /tmp/cc728Fbo.s:314    .text:00000000000001dc .L0 
     /tmp/cc728Fbo.s:315    .text:00000000000001dc .L0 
     /tmp/cc728Fbo.s:319    .text:00000000000001ec .L0 
     /tmp/cc728Fbo.s:320    .text:00000000000001ec .L0 
     /tmp/cc728Fbo.s:328    .text:00000000000001f4 .L0 
     /tmp/cc728Fbo.s:329    .text:00000000000001f4 .L0 
     /tmp/cc728Fbo.s:334    .text:0000000000000204 .L0 
     /tmp/cc728Fbo.s:335    .text:0000000000000204 .L0 
     /tmp/cc728Fbo.s:339    .text:0000000000000214 .L0 
GAS LISTING /tmp/cc728Fbo.s 			page 44


     /tmp/cc728Fbo.s:340    .text:0000000000000214 .L0 
     /tmp/cc728Fbo.s:344    .text:0000000000000224 .L0 
     /tmp/cc728Fbo.s:345    .text:0000000000000224 .L0 
     /tmp/cc728Fbo.s:349    .text:0000000000000230 .L0 
     /tmp/cc728Fbo.s:350    .text:0000000000000230 .L0 
     /tmp/cc728Fbo.s:354    .text:0000000000000240 .L0 
     /tmp/cc728Fbo.s:355    .text:0000000000000240 .L0 
     /tmp/cc728Fbo.s:360    .text:0000000000000248 .L0 
     /tmp/cc728Fbo.s:361    .text:0000000000000248 .L0 
     /tmp/cc728Fbo.s:362    .text:0000000000000248 .L0 
     /tmp/cc728Fbo.s:369    .text:0000000000000254 .L0 
     /tmp/cc728Fbo.s:378    .text:0000000000000268 .L0 
     /tmp/cc728Fbo.s:384    .text:0000000000000274 .L0 
     /tmp/cc728Fbo.s:385    .text:0000000000000274 .L0 
     /tmp/cc728Fbo.s:389    .text:0000000000000284 .L0 
     /tmp/cc728Fbo.s:390    .text:0000000000000284 .L0 
     /tmp/cc728Fbo.s:398    .text:000000000000028c .L0 
     /tmp/cc728Fbo.s:399    .text:000000000000028c .L0 
     /tmp/cc728Fbo.s:400    .text:000000000000028c .L0 
     /tmp/cc728Fbo.s:407    .text:0000000000000298 .L0 
     /tmp/cc728Fbo.s:413    .text:00000000000002a0 .L0 
     /tmp/cc728Fbo.s:419    .text:00000000000002ac .L0 
     /tmp/cc728Fbo.s:420    .text:00000000000002ac .L0 
     /tmp/cc728Fbo.s:422    .text:00000000000002b4 .L0 
     /tmp/cc728Fbo.s:423    .text:00000000000002b8 .L0 
     /tmp/cc728Fbo.s:429    .text:00000000000002b8 _ZN9Scheduler7getNextEv
     /tmp/cc728Fbo.s:432    .text:00000000000002b8 .L0 
     /tmp/cc728Fbo.s:433    .text:00000000000002b8 .L0 
     /tmp/cc728Fbo.s:434    .text:00000000000002bc .L0 
     /tmp/cc728Fbo.s:436    .text:00000000000002c0 .L0 
     /tmp/cc728Fbo.s:438    .text:00000000000002c4 .L0 
     /tmp/cc728Fbo.s:442    .text:00000000000002c4 .L0 
     /tmp/cc728Fbo.s:443    .text:00000000000002c4 .L0 
     /tmp/cc728Fbo.s:444    .text:00000000000002c4 .L0 
     /tmp/cc728Fbo.s:451    .text:00000000000002d0 .L0 
     /tmp/cc728Fbo.s:459    .text:00000000000002e0 .L0 
     /tmp/cc728Fbo.s:465    .text:00000000000002ec .L0 
     /tmp/cc728Fbo.s:466    .text:00000000000002ec .L0 
     /tmp/cc728Fbo.s:469    .text:00000000000002f4 .L0 
     /tmp/cc728Fbo.s:473    .text:00000000000002f8 .L0 
     /tmp/cc728Fbo.s:474    .text:00000000000002f8 .L0 
     /tmp/cc728Fbo.s:475    .text:00000000000002f8 .L0 
     /tmp/cc728Fbo.s:482    .text:0000000000000304 .L0 
     /tmp/cc728Fbo.s:490    .text:0000000000000314 .L0 
     /tmp/cc728Fbo.s:496    .text:0000000000000320 .L0 
     /tmp/cc728Fbo.s:497    .text:0000000000000320 .L0 
     /tmp/cc728Fbo.s:501    .text:0000000000000328 .L0 
     /tmp/cc728Fbo.s:502    .text:0000000000000328 .L0 
     /tmp/cc728Fbo.s:509    .text:0000000000000334 .L0 
     /tmp/cc728Fbo.s:515    .text:000000000000033c .L0 
     /tmp/cc728Fbo.s:521    .text:0000000000000348 .L0 
     /tmp/cc728Fbo.s:522    .text:0000000000000348 .L0 
     /tmp/cc728Fbo.s:524    .text:000000000000034c .L0 
     /tmp/cc728Fbo.s:527    .text:0000000000000354 .L0 
     /tmp/cc728Fbo.s:528    .text:0000000000000354 .L0 
     /tmp/cc728Fbo.s:529    .text:0000000000000358 .L0 
     /tmp/cc728Fbo.s:530    .text:0000000000000358 .L0 
GAS LISTING /tmp/cc728Fbo.s 			page 45


     /tmp/cc728Fbo.s:532    .text:000000000000035c .L0 
     /tmp/cc728Fbo.s:534    .text:0000000000000360 .L0 
     /tmp/cc728Fbo.s:545    .text:0000000000000360 _ZN9Scheduler14dispatchToNextEv
     /tmp/cc728Fbo.s:548    .text:0000000000000360 .L0 
     /tmp/cc728Fbo.s:549    .text:0000000000000360 .L0 
     /tmp/cc728Fbo.s:550    .text:0000000000000364 .L0 
     /tmp/cc728Fbo.s:555    .text:0000000000000374 .L0 
     /tmp/cc728Fbo.s:556    .text:0000000000000374 .L0 
     /tmp/cc728Fbo.s:557    .text:0000000000000374 .L0 
     /tmp/cc728Fbo.s:558    .text:0000000000000374 .L0 
     /tmp/cc728Fbo.s:560    .text:0000000000000378 .L0 
     /tmp/cc728Fbo.s:562    .text:0000000000000378 .L0 
     /tmp/cc728Fbo.s:571    .text:0000000000000390 .L0 
     /tmp/cc728Fbo.s:576    .text:0000000000000394 .L0 
     /tmp/cc728Fbo.s:577    .text:0000000000000394 .L0 
     /tmp/cc728Fbo.s:578    .text:0000000000000394 .L0 
     /tmp/cc728Fbo.s:583    .text:00000000000003a0 .L0 
     /tmp/cc728Fbo.s:584    .text:00000000000003a0 .L0 
     /tmp/cc728Fbo.s:589    .text:00000000000003ac .L0 
     /tmp/cc728Fbo.s:590    .text:00000000000003ac .L0 
     /tmp/cc728Fbo.s:597    .text:00000000000003bc .L0 
     /tmp/cc728Fbo.s:602    .text:00000000000003c0 .L0 
     /tmp/cc728Fbo.s:603    .text:00000000000003c0 .L0 
     /tmp/cc728Fbo.s:606    .text:00000000000003c0 .L0 
     /tmp/cc728Fbo.s:607    .text:00000000000003c0 .L0 
     /tmp/cc728Fbo.s:608    .text:00000000000003c0 .L0 
     /tmp/cc728Fbo.s:615    .text:00000000000003cc .L0 
     /tmp/cc728Fbo.s:623    .text:00000000000003dc .L0 
     /tmp/cc728Fbo.s:629    .text:00000000000003e8 .L0 
     /tmp/cc728Fbo.s:630    .text:00000000000003e8 .L0 
     /tmp/cc728Fbo.s:633    .text:00000000000003f0 .L0 
     /tmp/cc728Fbo.s:636    .text:00000000000003f4 .L0 
     /tmp/cc728Fbo.s:640    .text:00000000000003f8 .L0 
     /tmp/cc728Fbo.s:646    .text:0000000000000400 .L0 
     /tmp/cc728Fbo.s:651    .text:0000000000000404 .L0 
     /tmp/cc728Fbo.s:652    .text:0000000000000404 .L0 
     /tmp/cc728Fbo.s:653    .text:0000000000000404 .L0 
     /tmp/cc728Fbo.s:656    .text:000000000000040c .L0 
     /tmp/cc728Fbo.s:657    .text:000000000000040c .L0 
     /tmp/cc728Fbo.s:659    .text:0000000000000410 .L0 
     /tmp/cc728Fbo.s:660    .text:0000000000000410 .L0 
     /tmp/cc728Fbo.s:664    .text:000000000000041c .L0 
     /tmp/cc728Fbo.s:665    .text:0000000000000420 .L0 
     /tmp/cc728Fbo.s:666    .text:0000000000000420 .L0 
     /tmp/cc728Fbo.s:668    .text:0000000000000424 .L0 
     /tmp/cc728Fbo.s:669    .text:0000000000000424 .L0 
     /tmp/cc728Fbo.s:671    .text:0000000000000428 .L0 
     /tmp/cc728Fbo.s:674    .text:000000000000042c .L0 
     /tmp/cc728Fbo.s:677    .text:0000000000000430 .L0 
     /tmp/cc728Fbo.s:681    .text:0000000000000434 .L0 
     /tmp/cc728Fbo.s:685    .text:0000000000000434 .L0 
     /tmp/cc728Fbo.s:686    .text:0000000000000434 .L0 
     /tmp/cc728Fbo.s:691    .text:0000000000000444 .L0 
     /tmp/cc728Fbo.s:692    .text:0000000000000444 .L0 
     /tmp/cc728Fbo.s:696    .text:0000000000000454 .L0 
     /tmp/cc728Fbo.s:697    .text:0000000000000454 .L0 
     /tmp/cc728Fbo.s:701    .text:0000000000000464 .L0 
GAS LISTING /tmp/cc728Fbo.s 			page 46


     /tmp/cc728Fbo.s:702    .text:0000000000000464 .L0 
     /tmp/cc728Fbo.s:706    .text:0000000000000470 .L0 
     /tmp/cc728Fbo.s:707    .text:0000000000000470 .L0 
     /tmp/cc728Fbo.s:711    .text:0000000000000480 .L0 
     /tmp/cc728Fbo.s:712    .text:0000000000000480 .L0 
     /tmp/cc728Fbo.s:717    .text:0000000000000488 .L0 
     /tmp/cc728Fbo.s:718    .text:0000000000000488 .L0 
     /tmp/cc728Fbo.s:719    .text:0000000000000488 .L0 
     /tmp/cc728Fbo.s:726    .text:0000000000000494 .L0 
     /tmp/cc728Fbo.s:735    .text:00000000000004a8 .L0 
     /tmp/cc728Fbo.s:741    .text:00000000000004b4 .L0 
     /tmp/cc728Fbo.s:742    .text:00000000000004b4 .L0 
     /tmp/cc728Fbo.s:746    .text:00000000000004c4 .L0 
     /tmp/cc728Fbo.s:747    .text:00000000000004c4 .L0 
     /tmp/cc728Fbo.s:755    .text:00000000000004cc .L0 
     /tmp/cc728Fbo.s:756    .text:00000000000004cc .L0 
     /tmp/cc728Fbo.s:760    .text:00000000000004dc .L0 
     /tmp/cc728Fbo.s:761    .text:00000000000004dc .L0 
     /tmp/cc728Fbo.s:765    .text:00000000000004ec .L0 
     /tmp/cc728Fbo.s:766    .text:00000000000004ec .L0 
     /tmp/cc728Fbo.s:770    .text:00000000000004fc .L0 
     /tmp/cc728Fbo.s:771    .text:00000000000004fc .L0 
     /tmp/cc728Fbo.s:775    .text:0000000000000508 .L0 
     /tmp/cc728Fbo.s:776    .text:0000000000000508 .L0 
     /tmp/cc728Fbo.s:780    .text:0000000000000518 .L0 
     /tmp/cc728Fbo.s:781    .text:0000000000000518 .L0 
     /tmp/cc728Fbo.s:786    .text:0000000000000520 .L0 
     /tmp/cc728Fbo.s:787    .text:0000000000000520 .L0 
     /tmp/cc728Fbo.s:788    .text:0000000000000520 .L0 
     /tmp/cc728Fbo.s:795    .text:000000000000052c .L0 
     /tmp/cc728Fbo.s:804    .text:0000000000000540 .L0 
     /tmp/cc728Fbo.s:810    .text:000000000000054c .L0 
     /tmp/cc728Fbo.s:811    .text:000000000000054c .L0 
     /tmp/cc728Fbo.s:815    .text:000000000000055c .L0 
     /tmp/cc728Fbo.s:816    .text:000000000000055c .L0 
     /tmp/cc728Fbo.s:822    .text:0000000000000564 .L0 
     /tmp/cc728Fbo.s:825    .text:0000000000000568 .L0 
     /tmp/cc728Fbo.s:826    .text:0000000000000568 .L0 
     /tmp/cc728Fbo.s:827    .text:0000000000000568 .L0 
     /tmp/cc728Fbo.s:831    .text:0000000000000578 .L0 
     /tmp/cc728Fbo.s:832    .text:0000000000000578 .L0 
     /tmp/cc728Fbo.s:835    .text:0000000000000580 .L0 
     /tmp/cc728Fbo.s:842    .text:0000000000000594 .L0 
     /tmp/cc728Fbo.s:847    .text:0000000000000598 .L0 
     /tmp/cc728Fbo.s:848    .text:0000000000000598 .L0 
     /tmp/cc728Fbo.s:849    .text:0000000000000598 .L0 
     /tmp/cc728Fbo.s:852    .text:00000000000005a4 .L0 
     /tmp/cc728Fbo.s:855    .text:00000000000005ac .L0 
     /tmp/cc728Fbo.s:856    .text:00000000000005ac .L0 
     /tmp/cc728Fbo.s:864    .text:00000000000005b4 .L0 
     /tmp/cc728Fbo.s:865    .text:00000000000005b4 .L0 
     /tmp/cc728Fbo.s:869    .text:00000000000005c4 .L0 
     /tmp/cc728Fbo.s:870    .text:00000000000005c4 .L0 
     /tmp/cc728Fbo.s:874    .text:00000000000005d4 .L0 
     /tmp/cc728Fbo.s:875    .text:00000000000005d4 .L0 
     /tmp/cc728Fbo.s:879    .text:00000000000005e4 .L0 
     /tmp/cc728Fbo.s:880    .text:00000000000005e4 .L0 
GAS LISTING /tmp/cc728Fbo.s 			page 47


     /tmp/cc728Fbo.s:884    .text:00000000000005f0 .L0 
     /tmp/cc728Fbo.s:885    .text:00000000000005f0 .L0 
     /tmp/cc728Fbo.s:889    .text:0000000000000600 .L0 
     /tmp/cc728Fbo.s:890    .text:0000000000000600 .L0 
     /tmp/cc728Fbo.s:895    .text:0000000000000608 .L0 
     /tmp/cc728Fbo.s:896    .text:0000000000000608 .L0 
     /tmp/cc728Fbo.s:897    .text:0000000000000608 .L0 
     /tmp/cc728Fbo.s:904    .text:0000000000000614 .L0 
     /tmp/cc728Fbo.s:913    .text:0000000000000628 .L0 
     /tmp/cc728Fbo.s:919    .text:0000000000000634 .L0 
     /tmp/cc728Fbo.s:920    .text:0000000000000634 .L0 
     /tmp/cc728Fbo.s:924    .text:0000000000000644 .L0 
     /tmp/cc728Fbo.s:925    .text:0000000000000644 .L0 
     /tmp/cc728Fbo.s:931    .text:000000000000064c .L0 
     /tmp/cc728Fbo.s:933    .text:0000000000000650 .L0 
     /tmp/cc728Fbo.s:939    .text:0000000000000654 .L0 
     /tmp/cc728Fbo.s:944    .text:0000000000000658 .L0 
     /tmp/cc728Fbo.s:945    .text:0000000000000658 .L0 
     /tmp/cc728Fbo.s:946    .text:0000000000000658 .L0 
     /tmp/cc728Fbo.s:951    .text:0000000000000664 .L0 
     /tmp/cc728Fbo.s:952    .text:0000000000000664 .L0 
     /tmp/cc728Fbo.s:960    .text:0000000000000674 .L0 
     /tmp/cc728Fbo.s:967    .text:000000000000067c .L0 
     /tmp/cc728Fbo.s:968    .text:000000000000067c .L0 
     /tmp/cc728Fbo.s:972    .text:000000000000068c .L0 
     /tmp/cc728Fbo.s:973    .text:000000000000068c .L0 
     /tmp/cc728Fbo.s:977    .text:000000000000069c .L0 
     /tmp/cc728Fbo.s:978    .text:000000000000069c .L0 
     /tmp/cc728Fbo.s:982    .text:00000000000006ac .L0 
     /tmp/cc728Fbo.s:983    .text:00000000000006ac .L0 
     /tmp/cc728Fbo.s:987    .text:00000000000006b8 .L0 
     /tmp/cc728Fbo.s:988    .text:00000000000006b8 .L0 
     /tmp/cc728Fbo.s:992    .text:00000000000006c8 .L0 
     /tmp/cc728Fbo.s:993    .text:00000000000006c8 .L0 
     /tmp/cc728Fbo.s:998    .text:00000000000006d0 .L0 
     /tmp/cc728Fbo.s:999    .text:00000000000006d0 .L0 
     /tmp/cc728Fbo.s:1000   .text:00000000000006d0 .L0 
     /tmp/cc728Fbo.s:1007   .text:00000000000006dc .L0 
     /tmp/cc728Fbo.s:1016   .text:00000000000006f0 .L0 
     /tmp/cc728Fbo.s:1022   .text:00000000000006fc .L0 
     /tmp/cc728Fbo.s:1023   .text:00000000000006fc .L0 
     /tmp/cc728Fbo.s:1027   .text:000000000000070c .L0 
     /tmp/cc728Fbo.s:1028   .text:000000000000070c .L0 
     /tmp/cc728Fbo.s:1036   .text:0000000000000714 .L0 
     /tmp/cc728Fbo.s:1037   .text:0000000000000714 .L0 
     /tmp/cc728Fbo.s:1041   .text:0000000000000724 .L0 
     /tmp/cc728Fbo.s:1042   .text:0000000000000724 .L0 
     /tmp/cc728Fbo.s:1046   .text:0000000000000734 .L0 
     /tmp/cc728Fbo.s:1047   .text:0000000000000734 .L0 
     /tmp/cc728Fbo.s:1051   .text:0000000000000744 .L0 
     /tmp/cc728Fbo.s:1052   .text:0000000000000744 .L0 
     /tmp/cc728Fbo.s:1056   .text:0000000000000750 .L0 
     /tmp/cc728Fbo.s:1057   .text:0000000000000750 .L0 
     /tmp/cc728Fbo.s:1061   .text:0000000000000760 .L0 
     /tmp/cc728Fbo.s:1062   .text:0000000000000760 .L0 
     /tmp/cc728Fbo.s:1067   .text:0000000000000768 .L0 
     /tmp/cc728Fbo.s:1068   .text:0000000000000768 .L0 
GAS LISTING /tmp/cc728Fbo.s 			page 48


     /tmp/cc728Fbo.s:1069   .text:0000000000000768 .L0 
     /tmp/cc728Fbo.s:1076   .text:0000000000000774 .L0 
     /tmp/cc728Fbo.s:1085   .text:0000000000000788 .L0 
     /tmp/cc728Fbo.s:1091   .text:0000000000000794 .L0 
     /tmp/cc728Fbo.s:1092   .text:0000000000000794 .L0 
     /tmp/cc728Fbo.s:1096   .text:00000000000007a4 .L0 
     /tmp/cc728Fbo.s:1097   .text:00000000000007a4 .L0 
     /tmp/cc728Fbo.s:1101   .text:00000000000007ac .L0 
     /tmp/cc728Fbo.s:1107   .text:00000000000007ac _ZN9Scheduler5sleepEm
     /tmp/cc728Fbo.s:1110   .text:00000000000007ac .L0 
     /tmp/cc728Fbo.s:1112   .text:00000000000007ac .L0 
     /tmp/cc728Fbo.s:1113   .text:00000000000007b0 .L0 
     /tmp/cc728Fbo.s:1118   .text:00000000000007c0 .L0 
     /tmp/cc728Fbo.s:1119   .text:00000000000007c0 .L0 
     /tmp/cc728Fbo.s:1120   .text:00000000000007c0 .L0 
     /tmp/cc728Fbo.s:1121   .text:00000000000007c0 .L0 
     /tmp/cc728Fbo.s:1123   .text:00000000000007c4 .L0 
     /tmp/cc728Fbo.s:1127   .text:00000000000007cc .L0 
     /tmp/cc728Fbo.s:1134   .text:00000000000007d8 .L0 
     /tmp/cc728Fbo.s:1139   .text:00000000000007dc .L0 
     /tmp/cc728Fbo.s:1140   .text:00000000000007dc .L0 
     /tmp/cc728Fbo.s:1148   .text:00000000000007ec .L0 
     /tmp/cc728Fbo.s:1153   .text:00000000000007f0 .L0 
     /tmp/cc728Fbo.s:1154   .text:00000000000007f0 .L0 
     /tmp/cc728Fbo.s:1155   .text:00000000000007f0 .L0 
     /tmp/cc728Fbo.s:1158   .text:00000000000007f8 .L0 
     /tmp/cc728Fbo.s:1161   .text:0000000000000800 .L0 
     /tmp/cc728Fbo.s:1162   .text:0000000000000800 .L0 
     /tmp/cc728Fbo.s:1165   .text:0000000000000808 .L0 
     /tmp/cc728Fbo.s:1167   .text:000000000000080c .L0 
     /tmp/cc728Fbo.s:1168   .text:000000000000080c .L0 
     /tmp/cc728Fbo.s:1170   .text:0000000000000810 .L0 
     /tmp/cc728Fbo.s:1172   .text:0000000000000814 .L0 
     /tmp/cc728Fbo.s:1173   .text:0000000000000814 .L0 
     /tmp/cc728Fbo.s:1176   .text:000000000000081c .L0 
     /tmp/cc728Fbo.s:1178   .text:0000000000000820 .L0 
     /tmp/cc728Fbo.s:1180   .text:0000000000000824 .L0 
     /tmp/cc728Fbo.s:1181   .text:0000000000000824 .L0 
     /tmp/cc728Fbo.s:1184   .text:000000000000082c .L0 
     /tmp/cc728Fbo.s:1187   .text:0000000000000830 .L0 
     /tmp/cc728Fbo.s:1188   .text:0000000000000830 .L0 
     /tmp/cc728Fbo.s:1191   .text:0000000000000838 .L0 
     /tmp/cc728Fbo.s:1192   .text:0000000000000838 .L0 
     /tmp/cc728Fbo.s:1194   .text:0000000000000840 .L0 
     /tmp/cc728Fbo.s:1195   .text:0000000000000840 .L0 
     /tmp/cc728Fbo.s:1197   .text:0000000000000844 .L0 
     /tmp/cc728Fbo.s:1198   .text:0000000000000844 .L0 
     /tmp/cc728Fbo.s:1200   .text:0000000000000848 .L0 
     /tmp/cc728Fbo.s:1203   .text:000000000000084c .L0 
     /tmp/cc728Fbo.s:1206   .text:0000000000000850 .L0 
     /tmp/cc728Fbo.s:1210   .text:0000000000000854 .L0 
     /tmp/cc728Fbo.s:1214   .text:0000000000000854 .L0 
     /tmp/cc728Fbo.s:1215   .text:0000000000000854 .L0 
     /tmp/cc728Fbo.s:1219   .text:0000000000000864 .L0 
     /tmp/cc728Fbo.s:1220   .text:0000000000000864 .L0 
     /tmp/cc728Fbo.s:1224   .text:0000000000000874 .L0 
     /tmp/cc728Fbo.s:1225   .text:0000000000000874 .L0 
GAS LISTING /tmp/cc728Fbo.s 			page 49


     /tmp/cc728Fbo.s:1229   .text:0000000000000884 .L0 
     /tmp/cc728Fbo.s:1230   .text:0000000000000884 .L0 
     /tmp/cc728Fbo.s:1234   .text:0000000000000890 .L0 
     /tmp/cc728Fbo.s:1235   .text:0000000000000890 .L0 
     /tmp/cc728Fbo.s:1239   .text:00000000000008a0 .L0 
     /tmp/cc728Fbo.s:1240   .text:00000000000008a0 .L0 
     /tmp/cc728Fbo.s:1245   .text:00000000000008a8 .L0 
     /tmp/cc728Fbo.s:1246   .text:00000000000008a8 .L0 
     /tmp/cc728Fbo.s:1247   .text:00000000000008a8 .L0 
     /tmp/cc728Fbo.s:1254   .text:00000000000008b4 .L0 
     /tmp/cc728Fbo.s:1263   .text:00000000000008c8 .L0 
     /tmp/cc728Fbo.s:1269   .text:00000000000008d4 .L0 
     /tmp/cc728Fbo.s:1270   .text:00000000000008d4 .L0 
     /tmp/cc728Fbo.s:1274   .text:00000000000008e4 .L0 
     /tmp/cc728Fbo.s:1275   .text:00000000000008e4 .L0 
     /tmp/cc728Fbo.s:1283   .text:00000000000008ec .L0 
     /tmp/cc728Fbo.s:1284   .text:00000000000008ec .L0 
     /tmp/cc728Fbo.s:1288   .text:00000000000008fc .L0 
     /tmp/cc728Fbo.s:1289   .text:00000000000008fc .L0 
     /tmp/cc728Fbo.s:1293   .text:000000000000090c .L0 
     /tmp/cc728Fbo.s:1294   .text:000000000000090c .L0 
     /tmp/cc728Fbo.s:1298   .text:000000000000091c .L0 
     /tmp/cc728Fbo.s:1299   .text:000000000000091c .L0 
     /tmp/cc728Fbo.s:1303   .text:0000000000000928 .L0 
     /tmp/cc728Fbo.s:1304   .text:0000000000000928 .L0 
     /tmp/cc728Fbo.s:1308   .text:0000000000000938 .L0 
     /tmp/cc728Fbo.s:1309   .text:0000000000000938 .L0 
     /tmp/cc728Fbo.s:1314   .text:0000000000000940 .L0 
     /tmp/cc728Fbo.s:1315   .text:0000000000000940 .L0 
     /tmp/cc728Fbo.s:1316   .text:0000000000000940 .L0 
     /tmp/cc728Fbo.s:1323   .text:000000000000094c .L0 
     /tmp/cc728Fbo.s:1332   .text:0000000000000960 .L0 
     /tmp/cc728Fbo.s:1338   .text:000000000000096c .L0 
     /tmp/cc728Fbo.s:1339   .text:000000000000096c .L0 
     /tmp/cc728Fbo.s:1343   .text:000000000000097c .L0 
     /tmp/cc728Fbo.s:1344   .text:000000000000097c .L0 
     /tmp/cc728Fbo.s:1350   .text:0000000000000984 .L0 
     /tmp/cc728Fbo.s:1351   .text:0000000000000984 .L0 
     /tmp/cc728Fbo.s:1354   .text:000000000000098c .L0 
     /tmp/cc728Fbo.s:1356   .text:0000000000000990 .L0 
     /tmp/cc728Fbo.s:1357   .text:0000000000000990 .L0 
     /tmp/cc728Fbo.s:1360   .text:0000000000000998 .L0 
     /tmp/cc728Fbo.s:1362   .text:00000000000009a0 .L0 
     /tmp/cc728Fbo.s:1368   .text:00000000000009a0 _ZN9Scheduler19dispatchUserVersionEv
     /tmp/cc728Fbo.s:1371   .text:00000000000009a0 .L0 
     /tmp/cc728Fbo.s:1372   .text:00000000000009a0 .L0 
     /tmp/cc728Fbo.s:1373   .text:00000000000009a4 .L0 
     /tmp/cc728Fbo.s:1376   .text:00000000000009ac .L0 
     /tmp/cc728Fbo.s:1377   .text:00000000000009ac .L0 
     /tmp/cc728Fbo.s:1379   .text:00000000000009b0 .L0 
     /tmp/cc728Fbo.s:1381   .text:00000000000009b0 .L0 
     /tmp/cc728Fbo.s:1382   .text:00000000000009b0 .L0 
     /tmp/cc728Fbo.s:1389   .text:00000000000009c0 .L0 
     /tmp/cc728Fbo.s:1394   .text:00000000000009c4 .L0 
     /tmp/cc728Fbo.s:1395   .text:00000000000009c4 .L0 
     /tmp/cc728Fbo.s:1396   .text:00000000000009c4 .L0 
     /tmp/cc728Fbo.s:1399   .text:00000000000009cc .L0 
GAS LISTING /tmp/cc728Fbo.s 			page 50


     /tmp/cc728Fbo.s:1401   .text:00000000000009d0 .L0 
     /tmp/cc728Fbo.s:1405   .text:00000000000009d8 .L0 
     /tmp/cc728Fbo.s:1406   .text:00000000000009d8 .L0 
     /tmp/cc728Fbo.s:1409   .text:00000000000009e0 .L0 
     /tmp/cc728Fbo.s:1410   .text:00000000000009e4 .L0 
     /tmp/cc728Fbo.s:1411   .text:00000000000009e4 .L0 
     /tmp/cc728Fbo.s:1413   .text:00000000000009e8 .L0 
     /tmp/cc728Fbo.s:1414   .text:00000000000009e8 .L0 
     /tmp/cc728Fbo.s:1416   .text:00000000000009ec .L0 
     /tmp/cc728Fbo.s:1420   .text:00000000000009f0 .L0 
     /tmp/cc728Fbo.s:1424   .text:00000000000009f0 .L0 
     /tmp/cc728Fbo.s:1425   .text:00000000000009f0 .L0 
     /tmp/cc728Fbo.s:1430   .text:0000000000000a00 .L0 
     /tmp/cc728Fbo.s:1431   .text:0000000000000a00 .L0 
     /tmp/cc728Fbo.s:1435   .text:0000000000000a10 .L0 
     /tmp/cc728Fbo.s:1436   .text:0000000000000a10 .L0 
     /tmp/cc728Fbo.s:1440   .text:0000000000000a20 .L0 
     /tmp/cc728Fbo.s:1441   .text:0000000000000a20 .L0 
     /tmp/cc728Fbo.s:1445   .text:0000000000000a2c .L0 
     /tmp/cc728Fbo.s:1446   .text:0000000000000a2c .L0 
     /tmp/cc728Fbo.s:1450   .text:0000000000000a3c .L0 
     /tmp/cc728Fbo.s:1451   .text:0000000000000a3c .L0 
     /tmp/cc728Fbo.s:1456   .text:0000000000000a44 .L0 
     /tmp/cc728Fbo.s:1457   .text:0000000000000a44 .L0 
     /tmp/cc728Fbo.s:1458   .text:0000000000000a44 .L0 
     /tmp/cc728Fbo.s:1465   .text:0000000000000a50 .L0 
     /tmp/cc728Fbo.s:1474   .text:0000000000000a64 .L0 
     /tmp/cc728Fbo.s:1480   .text:0000000000000a70 .L0 
     /tmp/cc728Fbo.s:1481   .text:0000000000000a70 .L0 
     /tmp/cc728Fbo.s:1485   .text:0000000000000a80 .L0 
     /tmp/cc728Fbo.s:1486   .text:0000000000000a80 .L0 
     /tmp/cc728Fbo.s:1492   .text:0000000000000a88 .L0 
     /tmp/cc728Fbo.s:1493   .text:0000000000000a88 .L0 
     /tmp/cc728Fbo.s:1496   .text:0000000000000a90 .L0 
     /tmp/cc728Fbo.s:1499   .text:0000000000000a98 .L0 
     /tmp/cc728Fbo.s:1500   .text:0000000000000a98 .L0 
     /tmp/cc728Fbo.s:1505   .text:0000000000000aac .L0 
     /tmp/cc728Fbo.s:1541   .text:0000000000000aac .L0 
     /tmp/cc728Fbo.s:8      .rodata.str1.8:0000000000000000 .LC0
     /tmp/cc728Fbo.s:42     .text:0000000000000028 .L0 
     /tmp/cc728Fbo.s:51     .text:0000000000000038 .L0 
     /tmp/cc728Fbo.s:58     .text:0000000000000044 .L0 
     /tmp/cc728Fbo.s:67     .text:0000000000000058 .L0 
     /tmp/cc728Fbo.s:73     .text:0000000000000060 .L0 
     /tmp/cc728Fbo.s:11     .rodata.str1.8:0000000000000008 .LC1
     /tmp/cc728Fbo.s:91     .text:0000000000000080 .L0 
     /tmp/cc728Fbo.s:173    .text:00000000000000d8 .L0 
     /tmp/cc728Fbo.s:180    .text:00000000000000e4 .L0 
     /tmp/cc728Fbo.s:189    .text:00000000000000f8 .L0 
     /tmp/cc728Fbo.s:195    .text:0000000000000100 .L0 
     /tmp/cc728Fbo.s:203    .text:000000000000010c .L0 
     /tmp/cc728Fbo.s:210    .text:0000000000000118 .L0 
     /tmp/cc728Fbo.s:219    .text:000000000000012c .L0 
     /tmp/cc728Fbo.s:225    .text:0000000000000134 .L0 
     /tmp/cc728Fbo.s:122    .rodata.str1.8:0000000000000010 .LC2
     /tmp/cc728Fbo.s:258    .text:000000000000015c .L0 
     /tmp/cc728Fbo.s:125    .rodata.str1.8:0000000000000038 .LC3
GAS LISTING /tmp/cc728Fbo.s 			page 51


     /tmp/cc728Fbo.s:264    .text:000000000000016c .L0 
     /tmp/cc728Fbo.s:128    .rodata.str1.8:0000000000000050 .LC4
     /tmp/cc728Fbo.s:269    .text:000000000000017c .L0 
     /tmp/cc728Fbo.s:131    .rodata.str1.8:0000000000000060 .LC5
     /tmp/cc728Fbo.s:279    .text:0000000000000198 .L0 
     /tmp/cc728Fbo.s:292    .text:00000000000001b0 .L0 
     /tmp/cc728Fbo.s:299    .text:00000000000001bc .L0 
     /tmp/cc728Fbo.s:309    .text:00000000000001d4 .L0 
     /tmp/cc728Fbo.s:315    .text:00000000000001dc .L0 
     /tmp/cc728Fbo.s:329    .text:00000000000001f4 .L0 
     /tmp/cc728Fbo.s:335    .text:0000000000000204 .L0 
     /tmp/cc728Fbo.s:340    .text:0000000000000214 .L0 
     /tmp/cc728Fbo.s:350    .text:0000000000000230 .L0 
     /tmp/cc728Fbo.s:362    .text:0000000000000248 .L0 
     /tmp/cc728Fbo.s:369    .text:0000000000000254 .L0 
     /tmp/cc728Fbo.s:379    .text:000000000000026c .L0 
     /tmp/cc728Fbo.s:385    .text:0000000000000274 .L0 
     /tmp/cc728Fbo.s:400    .text:000000000000028c .L0 
     /tmp/cc728Fbo.s:407    .text:0000000000000298 .L0 
     /tmp/cc728Fbo.s:414    .text:00000000000002a4 .L0 
     /tmp/cc728Fbo.s:420    .text:00000000000002ac .L0 
     /tmp/cc728Fbo.s:444    .text:00000000000002c4 .L0 
     /tmp/cc728Fbo.s:451    .text:00000000000002d0 .L0 
     /tmp/cc728Fbo.s:460    .text:00000000000002e4 .L0 
     /tmp/cc728Fbo.s:466    .text:00000000000002ec .L0 
     /tmp/cc728Fbo.s:475    .text:00000000000002f8 .L0 
     /tmp/cc728Fbo.s:482    .text:0000000000000304 .L0 
     /tmp/cc728Fbo.s:491    .text:0000000000000318 .L0 
     /tmp/cc728Fbo.s:497    .text:0000000000000320 .L0 
     /tmp/cc728Fbo.s:502    .text:0000000000000328 .L0 
     /tmp/cc728Fbo.s:509    .text:0000000000000334 .L0 
     /tmp/cc728Fbo.s:516    .text:0000000000000340 .L0 
     /tmp/cc728Fbo.s:524    .text:000000000000034c .L0 
     /tmp/cc728Fbo.s:565    .text:0000000000000384 .L0 
     /tmp/cc728Fbo.s:590    .text:00000000000003ac .L0 
     /tmp/cc728Fbo.s:608    .text:00000000000003c0 .L0 
     /tmp/cc728Fbo.s:615    .text:00000000000003cc .L0 
     /tmp/cc728Fbo.s:624    .text:00000000000003e0 .L0 
     /tmp/cc728Fbo.s:630    .text:00000000000003e8 .L0 
     /tmp/cc728Fbo.s:686    .text:0000000000000434 .L0 
     /tmp/cc728Fbo.s:692    .text:0000000000000444 .L0 
     /tmp/cc728Fbo.s:697    .text:0000000000000454 .L0 
     /tmp/cc728Fbo.s:707    .text:0000000000000470 .L0 
     /tmp/cc728Fbo.s:719    .text:0000000000000488 .L0 
     /tmp/cc728Fbo.s:726    .text:0000000000000494 .L0 
     /tmp/cc728Fbo.s:736    .text:00000000000004ac .L0 
     /tmp/cc728Fbo.s:742    .text:00000000000004b4 .L0 
     /tmp/cc728Fbo.s:756    .text:00000000000004cc .L0 
     /tmp/cc728Fbo.s:761    .text:00000000000004dc .L0 
     /tmp/cc728Fbo.s:766    .text:00000000000004ec .L0 
     /tmp/cc728Fbo.s:776    .text:0000000000000508 .L0 
     /tmp/cc728Fbo.s:788    .text:0000000000000520 .L0 
     /tmp/cc728Fbo.s:795    .text:000000000000052c .L0 
     /tmp/cc728Fbo.s:805    .text:0000000000000544 .L0 
     /tmp/cc728Fbo.s:811    .text:000000000000054c .L0 
     /tmp/cc728Fbo.s:539    .rodata.str1.8:0000000000000080 .LC6
     /tmp/cc728Fbo.s:827    .text:0000000000000568 .L0 
GAS LISTING /tmp/cc728Fbo.s 			page 52


     /tmp/cc728Fbo.s:835    .text:0000000000000580 .L0 
     /tmp/cc728Fbo.s:837    .text:000000000000058c .L0 
     /tmp/cc728Fbo.s:849    .text:0000000000000598 .L0 
     /tmp/cc728Fbo.s:865    .text:00000000000005b4 .L0 
     /tmp/cc728Fbo.s:870    .text:00000000000005c4 .L0 
     /tmp/cc728Fbo.s:875    .text:00000000000005d4 .L0 
     /tmp/cc728Fbo.s:885    .text:00000000000005f0 .L0 
     /tmp/cc728Fbo.s:897    .text:0000000000000608 .L0 
     /tmp/cc728Fbo.s:904    .text:0000000000000614 .L0 
     /tmp/cc728Fbo.s:914    .text:000000000000062c .L0 
     /tmp/cc728Fbo.s:920    .text:0000000000000634 .L0 
     /tmp/cc728Fbo.s:946    .text:0000000000000658 .L0 
     /tmp/cc728Fbo.s:968    .text:000000000000067c .L0 
     /tmp/cc728Fbo.s:973    .text:000000000000068c .L0 
     /tmp/cc728Fbo.s:978    .text:000000000000069c .L0 
     /tmp/cc728Fbo.s:988    .text:00000000000006b8 .L0 
     /tmp/cc728Fbo.s:1000   .text:00000000000006d0 .L0 
     /tmp/cc728Fbo.s:1007   .text:00000000000006dc .L0 
     /tmp/cc728Fbo.s:1017   .text:00000000000006f4 .L0 
     /tmp/cc728Fbo.s:1023   .text:00000000000006fc .L0 
     /tmp/cc728Fbo.s:1037   .text:0000000000000714 .L0 
     /tmp/cc728Fbo.s:1042   .text:0000000000000724 .L0 
     /tmp/cc728Fbo.s:1047   .text:0000000000000734 .L0 
     /tmp/cc728Fbo.s:1057   .text:0000000000000750 .L0 
     /tmp/cc728Fbo.s:1069   .text:0000000000000768 .L0 
     /tmp/cc728Fbo.s:1076   .text:0000000000000774 .L0 
     /tmp/cc728Fbo.s:1086   .text:000000000000078c .L0 
     /tmp/cc728Fbo.s:1092   .text:0000000000000794 .L0 
     /tmp/cc728Fbo.s:1215   .text:0000000000000854 .L0 
     /tmp/cc728Fbo.s:1220   .text:0000000000000864 .L0 
     /tmp/cc728Fbo.s:1225   .text:0000000000000874 .L0 
     /tmp/cc728Fbo.s:1235   .text:0000000000000890 .L0 
     /tmp/cc728Fbo.s:1247   .text:00000000000008a8 .L0 
     /tmp/cc728Fbo.s:1254   .text:00000000000008b4 .L0 
     /tmp/cc728Fbo.s:1264   .text:00000000000008cc .L0 
     /tmp/cc728Fbo.s:1270   .text:00000000000008d4 .L0 
     /tmp/cc728Fbo.s:1284   .text:00000000000008ec .L0 
     /tmp/cc728Fbo.s:1289   .text:00000000000008fc .L0 
     /tmp/cc728Fbo.s:1294   .text:000000000000090c .L0 
     /tmp/cc728Fbo.s:1304   .text:0000000000000928 .L0 
     /tmp/cc728Fbo.s:1316   .text:0000000000000940 .L0 
     /tmp/cc728Fbo.s:1323   .text:000000000000094c .L0 
     /tmp/cc728Fbo.s:1333   .text:0000000000000964 .L0 
     /tmp/cc728Fbo.s:1339   .text:000000000000096c .L0 
     /tmp/cc728Fbo.s:1384   .text:00000000000009b8 .L0 
     /tmp/cc728Fbo.s:1425   .text:00000000000009f0 .L0 
     /tmp/cc728Fbo.s:1431   .text:0000000000000a00 .L0 
     /tmp/cc728Fbo.s:1436   .text:0000000000000a10 .L0 
     /tmp/cc728Fbo.s:1446   .text:0000000000000a2c .L0 
     /tmp/cc728Fbo.s:1458   .text:0000000000000a44 .L0 
     /tmp/cc728Fbo.s:1465   .text:0000000000000a50 .L0 
     /tmp/cc728Fbo.s:1475   .text:0000000000000a68 .L0 
     /tmp/cc728Fbo.s:1481   .text:0000000000000a70 .L0 
     /tmp/cc728Fbo.s:68     .text:0000000000000060 .L2
     /tmp/cc728Fbo.s:100    .text:0000000000000098 .L3
     /tmp/cc728Fbo.s:75     .text:0000000000000068 .L4
     /tmp/cc728Fbo.s:249    .text:000000000000015c .L18
GAS LISTING /tmp/cc728Fbo.s 			page 53


     /tmp/cc728Fbo.s:322    .text:00000000000001f4 .L19
     /tmp/cc728Fbo.s:190    .text:0000000000000100 .L11
     /tmp/cc728Fbo.s:392    .text:000000000000028c .L20
     /tmp/cc728Fbo.s:220    .text:0000000000000134 .L15
     /tmp/cc728Fbo.s:227    .text:000000000000013c .L16
     /tmp/cc728Fbo.s:310    .text:00000000000001dc .L8
     /tmp/cc728Fbo.s:380    .text:0000000000000274 .L10
     /tmp/cc728Fbo.s:415    .text:00000000000002ac .L13
     /tmp/cc728Fbo.s:238    .text:000000000000014c .L6
     /tmp/cc728Fbo.s:461    .text:00000000000002ec .L22
     /tmp/cc728Fbo.s:526    .text:0000000000000354 .L21
     /tmp/cc728Fbo.s:492    .text:0000000000000320 .L24
     /tmp/cc728Fbo.s:517    .text:0000000000000348 .L25
     /tmp/cc728Fbo.s:680    .text:0000000000000434 .L44
     /tmp/cc728Fbo.s:749    .text:00000000000004cc .L45
     /tmp/cc728Fbo.s:625    .text:00000000000003e8 .L32
     /tmp/cc728Fbo.s:818    .text:0000000000000564 .L46
     /tmp/cc728Fbo.s:927    .text:000000000000064c .L47
     /tmp/cc728Fbo.s:1030   .text:0000000000000714 .L48
     /tmp/cc728Fbo.s:737    .text:00000000000004b4 .L29
     /tmp/cc728Fbo.s:806    .text:000000000000054c .L31
     /tmp/cc728Fbo.s:634    .text:00000000000003f4 .L33
     /tmp/cc728Fbo.s:860    .text:00000000000005b4 .L49
     /tmp/cc728Fbo.s:638    .text:00000000000003f8 .L36
     /tmp/cc728Fbo.s:915    .text:0000000000000634 .L35
     /tmp/cc728Fbo.s:958    .text:0000000000000674 .L50
     /tmp/cc728Fbo.s:963    .text:000000000000067c .L51
     /tmp/cc728Fbo.s:934    .text:0000000000000654 .L37
     /tmp/cc728Fbo.s:1018   .text:00000000000006fc .L39
     /tmp/cc728Fbo.s:1087   .text:0000000000000794 .L41
     /tmp/cc728Fbo.s:1209   .text:0000000000000854 .L60
     /tmp/cc728Fbo.s:1277   .text:00000000000008ec .L61
     /tmp/cc728Fbo.s:1346   .text:0000000000000984 .L62
     /tmp/cc728Fbo.s:1265   .text:00000000000008d4 .L54
     /tmp/cc728Fbo.s:1334   .text:000000000000096c .L56
     /tmp/cc728Fbo.s:1185   .text:0000000000000830 .L58
     /tmp/cc728Fbo.s:1419   .text:00000000000009f0 .L68
     /tmp/cc728Fbo.s:1488   .text:0000000000000a88 .L69
     /tmp/cc728Fbo.s:1476   .text:0000000000000a70 .L65
     /tmp/cc728Fbo.s:1403   .text:00000000000009d8 .L66
     /tmp/cc728Fbo.s:3972   .debug_abbrev:0000000000000000 .Ldebug_abbrev0
     /tmp/cc728Fbo.s:6088   .debug_str:0000000000000682 .LASF128
     /tmp/cc728Fbo.s:6118   .debug_str:000000000000080e .LASF129
     /tmp/cc728Fbo.s:6048   .debug_str:0000000000000576 .LASF130
     /tmp/cc728Fbo.s:5      .text:0000000000000000 .Ltext0
     /tmp/cc728Fbo.s:1537   .text:0000000000000aac .Letext0
     /tmp/cc728Fbo.s:5862   .debug_line:0000000000000000 .Ldebug_line0
     /tmp/cc728Fbo.s:6004   .debug_str:0000000000000439 .LASF0
     /tmp/cc728Fbo.s:6020   .debug_str:00000000000004a3 .LASF1
     /tmp/cc728Fbo.s:5988   .debug_str:00000000000003c0 .LASF2
     /tmp/cc728Fbo.s:5962   .debug_str:000000000000033b .LASF4
     /tmp/cc728Fbo.s:6070   .debug_str:000000000000060e .LASF3
     /tmp/cc728Fbo.s:5894   .debug_str:00000000000000f6 .LASF5
     /tmp/cc728Fbo.s:5926   .debug_str:0000000000000215 .LASF6
     /tmp/cc728Fbo.s:6024   .debug_str:00000000000004bb .LASF7
     /tmp/cc728Fbo.s:6002   .debug_str:0000000000000426 .LASF8
     /tmp/cc728Fbo.s:6102   .debug_str:00000000000007b0 .LASF9
GAS LISTING /tmp/cc728Fbo.s 			page 54


     /tmp/cc728Fbo.s:5948   .debug_str:00000000000002e2 .LASF10
     /tmp/cc728Fbo.s:6044   .debug_str:000000000000055e .LASF11
     /tmp/cc728Fbo.s:6092   .debug_str:0000000000000750 .LASF12
     /tmp/cc728Fbo.s:5898   .debug_str:0000000000000122 .LASF13
     /tmp/cc728Fbo.s:5874   .debug_str:0000000000000063 .LASF14
     /tmp/cc728Fbo.s:5908   .debug_str:000000000000016e .LASF15
     /tmp/cc728Fbo.s:6064   .debug_str:00000000000005d3 .LASF16
     /tmp/cc728Fbo.s:5920   .debug_str:00000000000001db .LASF17
     /tmp/cc728Fbo.s:5900   .debug_str:0000000000000132 .LASF35
     /tmp/cc728Fbo.s:6062   .debug_str:00000000000005c0 .LASF83
     /tmp/cc728Fbo.s:5912   .debug_str:0000000000000199 .LASF26
     /tmp/cc728Fbo.s:5910   .debug_str:000000000000017a .LASF28
     /tmp/cc728Fbo.s:5982   .debug_str:0000000000000391 .LASF18
     /tmp/cc728Fbo.s:5922   .debug_str:00000000000001f1 .LASF19
     /tmp/cc728Fbo.s:6110   .debug_str:00000000000007e1 .LASF20
     /tmp/cc728Fbo.s:5950   .debug_str:00000000000002f0 .LASF21
     /tmp/cc728Fbo.s:6016   .debug_str:0000000000000491 .LASF22
     /tmp/cc728Fbo.s:5918   .debug_str:00000000000001cc .LASF23
     /tmp/cc728Fbo.s:5878   .debug_str:0000000000000078 .LASF24
     /tmp/cc728Fbo.s:6078   .debug_str:000000000000063b .LASF25
     /tmp/cc728Fbo.s:5994   .debug_str:00000000000003e7 .LASF27
     /tmp/cc728Fbo.s:6120   .debug_str:0000000000000820 .LASF29
     /tmp/cc728Fbo.s:5876   .debug_str:0000000000000073 .LASF73
     /tmp/cc728Fbo.s:5880   .debug_str:0000000000000086 .LASF75
     /tmp/cc728Fbo.s:6114   .debug_str:00000000000007f8 .LASF30
     /tmp/cc728Fbo.s:5914   .debug_str:00000000000001a8 .LASF31
     /tmp/cc728Fbo.s:5934   .debug_str:0000000000000260 .LASF32
     /tmp/cc728Fbo.s:5896   .debug_str:00000000000000fd .LASF33
     /tmp/cc728Fbo.s:5970   .debug_str:000000000000035a .LASF98
     /tmp/cc728Fbo.s:6028   .debug_str:00000000000004f3 .LASF34
     /tmp/cc728Fbo.s:6018   .debug_str:000000000000049b .LASF36
     /tmp/cc728Fbo.s:5954   .debug_str:0000000000000305 .LASF131
     /tmp/cc728Fbo.s:6034   .debug_str:000000000000052a .LASF37
     /tmp/cc728Fbo.s:5996   .debug_str:00000000000003ec .LASF38
     /tmp/cc728Fbo.s:6042   .debug_str:0000000000000558 .LASF39
     /tmp/cc728Fbo.s:6106   .debug_str:00000000000007cf .LASF40
     /tmp/cc728Fbo.s:5976   .debug_str:0000000000000378 .LASF41
     /tmp/cc728Fbo.s:6032   .debug_str:000000000000051e .LASF42
     /tmp/cc728Fbo.s:6124   .debug_str:000000000000083f .LASF43
     /tmp/cc728Fbo.s:6072   .debug_str:0000000000000620 .LASF44
     /tmp/cc728Fbo.s:6098   .debug_str:000000000000078a .LASF45
     /tmp/cc728Fbo.s:6084   .debug_str:000000000000066b .LASF46
     /tmp/cc728Fbo.s:5960   .debug_str:000000000000032f .LASF47
     /tmp/cc728Fbo.s:5936   .debug_str:0000000000000275 .LASF48
     /tmp/cc728Fbo.s:5866   .debug_str:0000000000000006 .LASF49
     /tmp/cc728Fbo.s:6086   .debug_str:0000000000000676 .LASF50
     /tmp/cc728Fbo.s:6010   .debug_str:0000000000000467 .LASF54
     /tmp/cc728Fbo.s:6040   .debug_str:000000000000054c .LASF56
     /tmp/cc728Fbo.s:5942   .debug_str:00000000000002a5 .LASF58
     /tmp/cc728Fbo.s:5868   .debug_str:000000000000001d .LASF51
     /tmp/cc728Fbo.s:6030   .debug_str:00000000000004f8 .LASF52
     /tmp/cc728Fbo.s:6056   .debug_str:00000000000005b1 .LASF132
     /tmp/cc728Fbo.s:5978   .debug_str:0000000000000384 .LASF53
     /tmp/cc728Fbo.s:5884   .debug_str:00000000000000ac .LASF55
     /tmp/cc728Fbo.s:6130   .debug_str:000000000000085b .LASF87
     /tmp/cc728Fbo.s:5886   .debug_str:00000000000000bf .LASF89
     /tmp/cc728Fbo.s:6074   .debug_str:0000000000000631 .LASF57
GAS LISTING /tmp/cc728Fbo.s 			page 55


     /tmp/cc728Fbo.s:5944   .debug_str:00000000000002c2 .LASF59
     /tmp/cc728Fbo.s:5974   .debug_str:0000000000000372 .LASF60
     /tmp/cc728Fbo.s:5966   .debug_str:000000000000034d .LASF61
     /tmp/cc728Fbo.s:6012   .debug_str:0000000000000482 .LASF62
     /tmp/cc728Fbo.s:6126   .debug_str:000000000000084a .LASF63
     /tmp/cc728Fbo.s:6014   .debug_str:0000000000000487 .LASF64
     /tmp/cc728Fbo.s:5952   .debug_str:00000000000002ff .LASF65
     /tmp/cc728Fbo.s:6112   .debug_str:00000000000007eb .LASF66
     /tmp/cc728Fbo.s:5990   .debug_str:00000000000003ce .LASF67
     /tmp/cc728Fbo.s:6104   .debug_str:00000000000007c0 .LASF68
     /tmp/cc728Fbo.s:6006   .debug_str:0000000000000446 .LASF69
     /tmp/cc728Fbo.s:6036   .debug_str:0000000000000532 .LASF70
     /tmp/cc728Fbo.s:6128   .debug_str:0000000000000856 .LASF71
     /tmp/cc728Fbo.s:6094   .debug_str:000000000000075f .LASF72
     /tmp/cc728Fbo.s:6122   .debug_str:0000000000000834 .LASF74
     /tmp/cc728Fbo.s:6066   .debug_str:00000000000005e9 .LASF76
     /tmp/cc728Fbo.s:5930   .debug_str:0000000000000236 .LASF77
     /tmp/cc728Fbo.s:5928   .debug_str:000000000000021c .LASF78
     /tmp/cc728Fbo.s:5872   .debug_str:0000000000000048 .LASF79
     /tmp/cc728Fbo.s:6046   .debug_str:000000000000056d .LASF80
     /tmp/cc728Fbo.s:5938   .debug_str:0000000000000284 .LASF81
     /tmp/cc728Fbo.s:6038   .debug_str:0000000000000542 .LASF82
     /tmp/cc728Fbo.s:5958   .debug_str:000000000000031b .LASF84
     /tmp/cc728Fbo.s:6082   .debug_str:0000000000000665 .LASF85
     /tmp/cc728Fbo.s:5924   .debug_str:00000000000001ff .LASF86
     /tmp/cc728Fbo.s:6050   .debug_str:000000000000058a .LASF88
     /tmp/cc728Fbo.s:6000   .debug_str:0000000000000406 .LASF90
     /tmp/cc728Fbo.s:5992   .debug_str:00000000000003d3 .LASF91
     /tmp/cc728Fbo.s:6026   .debug_str:00000000000004ce .LASF92
     /tmp/cc728Fbo.s:5968   .debug_str:0000000000000352 .LASF93
     /tmp/cc728Fbo.s:5906   .debug_str:0000000000000156 .LASF94
     /tmp/cc728Fbo.s:5940   .debug_str:0000000000000289 .LASF133
     /tmp/cc728Fbo.s:5890   .debug_str:00000000000000e6 .LASF95
     /tmp/cc728Fbo.s:6080   .debug_str:0000000000000649 .LASF96
     /tmp/cc728Fbo.s:6052   .debug_str:0000000000000599 .LASF97
     /tmp/cc728Fbo.s:5882   .debug_str:000000000000009a .LASF99
     /tmp/cc728Fbo.s:430    .text:00000000000002b8 .LFB17
     /tmp/cc728Fbo.s:535    .text:0000000000000360 .LFE17
     /tmp/cc728Fbo.s:440    .text:00000000000002c4 .LBB118
     /tmp/cc728Fbo.s:464    .text:00000000000002ec .LBE118
     /tmp/cc728Fbo.s:447    .text:00000000000002d0 .LBB120
     /tmp/cc728Fbo.s:457    .text:00000000000002e0 .LBE120
     /tmp/cc728Fbo.s:4956   .debug_loc:0000000000000000 .LLST15
     /tmp/cc728Fbo.s:471    .text:00000000000002f8 .LBB123
     /tmp/cc728Fbo.s:495    .text:0000000000000320 .LBE123
     /tmp/cc728Fbo.s:478    .text:0000000000000304 .LBB125
     /tmp/cc728Fbo.s:488    .text:0000000000000314 .LBE125
     /tmp/cc728Fbo.s:4965   .debug_loc:000000000000002c .LLST16
     /tmp/cc728Fbo.s:498    .text:0000000000000328 .LBB128
     /tmp/cc728Fbo.s:520    .text:0000000000000348 .LBE128
     /tmp/cc728Fbo.s:505    .text:0000000000000334 .LBB130
     /tmp/cc728Fbo.s:513    .text:000000000000033c .LBE130
     /tmp/cc728Fbo.s:4974   .debug_loc:0000000000000058 .LLST17
     /tmp/cc728Fbo.s:138    .text:00000000000000b4 .LFB16
     /tmp/cc728Fbo.s:424    .text:00000000000002b8 .LFE16
     /tmp/cc728Fbo.s:4983   .debug_loc:0000000000000084 .LLST2
     /tmp/cc728Fbo.s:6022   .debug_str:00000000000004b6 .LASF100
GAS LISTING /tmp/cc728Fbo.s 			page 56


     /tmp/cc728Fbo.s:5012   .debug_loc:00000000000000f9 .LLST3
     /tmp/cc728Fbo.s:156    .text:00000000000000d0 .LBB87
     /tmp/cc728Fbo.s:5806   .debug_ranges:0000000000000000 .Ldebug_ranges0
     /tmp/cc728Fbo.s:5023   .debug_loc:000000000000012f .LLST4
     /tmp/cc728Fbo.s:5038   .debug_loc:0000000000000169 .LLST5
     /tmp/cc728Fbo.s:5053   .debug_loc:00000000000001b1 .LLST6
     /tmp/cc728Fbo.s:358    .text:0000000000000248 .LBB89
     /tmp/cc728Fbo.s:383    .text:0000000000000274 .LBE89
     /tmp/cc728Fbo.s:365    .text:0000000000000254 .LBB91
     /tmp/cc728Fbo.s:376    .text:0000000000000268 .LBE91
     /tmp/cc728Fbo.s:5072   .debug_loc:00000000000001ef .LLST7
     /tmp/cc728Fbo.s:332    .text:0000000000000204 .LVL34
     /tmp/cc728Fbo.s:337    .text:0000000000000214 .LVL35
     /tmp/cc728Fbo.s:342    .text:0000000000000224 .LVL36
     /tmp/cc728Fbo.s:347    .text:0000000000000230 .LVL37
     /tmp/cc728Fbo.s:352    .text:0000000000000240 .LVL38
     /tmp/cc728Fbo.s:356    .text:0000000000000248 .LVL39
     /tmp/cc728Fbo.s:387    .text:0000000000000284 .LVL42
     /tmp/cc728Fbo.s:391    .text:000000000000028c .LVL43
     /tmp/cc728Fbo.s:169    .text:00000000000000d8 .LBB95
     /tmp/cc728Fbo.s:193    .text:0000000000000100 .LBE95
     /tmp/cc728Fbo.s:176    .text:00000000000000e4 .LBB97
     /tmp/cc728Fbo.s:186    .text:00000000000000f4 .LBE97
     /tmp/cc728Fbo.s:5081   .debug_loc:000000000000021b .LLST8
     /tmp/cc728Fbo.s:199    .text:000000000000010c .LBB100
     /tmp/cc728Fbo.s:223    .text:0000000000000134 .LBE100
     /tmp/cc728Fbo.s:206    .text:0000000000000118 .LBB102
     /tmp/cc728Fbo.s:216    .text:0000000000000128 .LBE102
     /tmp/cc728Fbo.s:5090   .debug_loc:0000000000000247 .LLST9
     /tmp/cc728Fbo.s:253    .text:000000000000015c .LBB105
     /tmp/cc728Fbo.s:324    .text:00000000000001f4 .LBE105
     /tmp/cc728Fbo.s:5099   .debug_loc:0000000000000273 .LLST10
     /tmp/cc728Fbo.s:5108   .debug_loc:0000000000000298 .LLST11
     /tmp/cc728Fbo.s:5117   .debug_loc:00000000000002c4 .LLST12
     /tmp/cc728Fbo.s:287    .text:00000000000001b0 .LBB107
     /tmp/cc728Fbo.s:313    .text:00000000000001dc .LBE107
     /tmp/cc728Fbo.s:295    .text:00000000000001bc .LBB109
     /tmp/cc728Fbo.s:306    .text:00000000000001d0 .LBE109
     /tmp/cc728Fbo.s:5125   .debug_loc:00000000000002e8 .LLST13
     /tmp/cc728Fbo.s:261    .text:000000000000016c .LVL23
     /tmp/cc728Fbo.s:266    .text:000000000000017c .LVL24
     /tmp/cc728Fbo.s:271    .text:000000000000018c .LVL25
     /tmp/cc728Fbo.s:276    .text:0000000000000198 .LVL26
     /tmp/cc728Fbo.s:281    .text:00000000000001a8 .LVL27
     /tmp/cc728Fbo.s:285    .text:00000000000001b0 .LVL28
     /tmp/cc728Fbo.s:317    .text:00000000000001ec .LVL31
     /tmp/cc728Fbo.s:321    .text:00000000000001f4 .LVL32
     /tmp/cc728Fbo.s:396    .text:000000000000028c .LBB113
     /tmp/cc728Fbo.s:418    .text:00000000000002ac .LBE113
     /tmp/cc728Fbo.s:403    .text:0000000000000298 .LBB115
     /tmp/cc728Fbo.s:411    .text:00000000000002a0 .LBE115
     /tmp/cc728Fbo.s:5134   .debug_loc:0000000000000314 .LLST14
     /tmp/cc728Fbo.s:546    .text:0000000000000360 .LFB15
     /tmp/cc728Fbo.s:1102   .text:00000000000007ac .LFE15
     /tmp/cc728Fbo.s:6076   .debug_str:0000000000000636 .LASF101
     /tmp/cc728Fbo.s:5143   .debug_loc:0000000000000340 .LLST18
     /tmp/cc728Fbo.s:5892   .debug_str:00000000000000f1 .LASF102
GAS LISTING /tmp/cc728Fbo.s 			page 57


     /tmp/cc728Fbo.s:5158   .debug_loc:0000000000000389 .LLST19
     /tmp/cc728Fbo.s:6096   .debug_str:000000000000077d .LASF103
     /tmp/cc728Fbo.s:6100   .debug_str:000000000000079f .LASF104
     /tmp/cc728Fbo.s:5177   .debug_loc:00000000000003e5 .LLST20
     /tmp/cc728Fbo.s:5946   .debug_str:00000000000002d5 .LASF105
     /tmp/cc728Fbo.s:5220   .debug_loc:0000000000000468 .LLST21
     /tmp/cc728Fbo.s:568    .text:0000000000000390 .LBB173
     /tmp/cc728Fbo.s:5264   .debug_loc:00000000000004f3 .LLST22
     /tmp/cc728Fbo.s:5279   .debug_loc:000000000000052d .LLST23
     /tmp/cc728Fbo.s:5294   .debug_loc:0000000000000575 .LLST24
     /tmp/cc728Fbo.s:715    .text:0000000000000488 .LBB175
     /tmp/cc728Fbo.s:740    .text:00000000000004b4 .LBE175
     /tmp/cc728Fbo.s:722    .text:0000000000000494 .LBB177
     /tmp/cc728Fbo.s:733    .text:00000000000004a8 .LBE177
     /tmp/cc728Fbo.s:5319   .debug_loc:00000000000005b9 .LLST25
     /tmp/cc728Fbo.s:689    .text:0000000000000444 .LVL73
     /tmp/cc728Fbo.s:694    .text:0000000000000454 .LVL74
     /tmp/cc728Fbo.s:699    .text:0000000000000464 .LVL75
     /tmp/cc728Fbo.s:704    .text:0000000000000470 .LVL76
     /tmp/cc728Fbo.s:709    .text:0000000000000480 .LVL77
     /tmp/cc728Fbo.s:713    .text:0000000000000488 .LVL78
     /tmp/cc728Fbo.s:744    .text:00000000000004c4 .LVL81
     /tmp/cc728Fbo.s:748    .text:00000000000004cc .LVL82
     /tmp/cc728Fbo.s:594    .text:00000000000003bc .LBB181
     /tmp/cc728Fbo.s:5328   .debug_loc:00000000000005e5 .LLST26
     /tmp/cc728Fbo.s:5343   .debug_loc:000000000000061f .LLST27
     /tmp/cc728Fbo.s:5358   .debug_loc:0000000000000667 .LLST28
     /tmp/cc728Fbo.s:784    .text:0000000000000520 .LBB183
     /tmp/cc728Fbo.s:809    .text:000000000000054c .LBE183
     /tmp/cc728Fbo.s:791    .text:000000000000052c .LBB185
     /tmp/cc728Fbo.s:802    .text:0000000000000540 .LBE185
     /tmp/cc728Fbo.s:5377   .debug_loc:00000000000006a5 .LLST29
     /tmp/cc728Fbo.s:758    .text:00000000000004dc .LVL83
     /tmp/cc728Fbo.s:763    .text:00000000000004ec .LVL84
     /tmp/cc728Fbo.s:768    .text:00000000000004fc .LVL85
     /tmp/cc728Fbo.s:773    .text:0000000000000508 .LVL86
     /tmp/cc728Fbo.s:778    .text:0000000000000518 .LVL87
     /tmp/cc728Fbo.s:782    .text:0000000000000520 .LVL88
     /tmp/cc728Fbo.s:813    .text:000000000000055c .LVL91
     /tmp/cc728Fbo.s:817    .text:0000000000000564 .LVL92
     /tmp/cc728Fbo.s:604    .text:00000000000003c0 .LBB189
     /tmp/cc728Fbo.s:628    .text:00000000000003e8 .LBE189
     /tmp/cc728Fbo.s:611    .text:00000000000003cc .LBB191
     /tmp/cc728Fbo.s:621    .text:00000000000003dc .LBE191
     /tmp/cc728Fbo.s:5386   .debug_loc:00000000000006d1 .LLST30
     /tmp/cc728Fbo.s:643    .text:0000000000000400 .LBB194
     /tmp/cc728Fbo.s:5395   .debug_loc:00000000000006fd .LLST31
     /tmp/cc728Fbo.s:5410   .debug_loc:0000000000000737 .LLST32
     /tmp/cc728Fbo.s:5425   .debug_loc:000000000000077f .LLST33
     /tmp/cc728Fbo.s:1065   .text:0000000000000768 .LBB196
     /tmp/cc728Fbo.s:1090   .text:0000000000000794 .LBE196
     /tmp/cc728Fbo.s:1072   .text:0000000000000774 .LBB198
     /tmp/cc728Fbo.s:1083   .text:0000000000000788 .LBE198
     /tmp/cc728Fbo.s:5444   .debug_loc:00000000000007bd .LLST34
     /tmp/cc728Fbo.s:1039   .text:0000000000000724 .LVL128
     /tmp/cc728Fbo.s:1044   .text:0000000000000734 .LVL129
     /tmp/cc728Fbo.s:1049   .text:0000000000000744 .LVL130
GAS LISTING /tmp/cc728Fbo.s 			page 58


     /tmp/cc728Fbo.s:1054   .text:0000000000000750 .LVL131
     /tmp/cc728Fbo.s:1059   .text:0000000000000760 .LVL132
     /tmp/cc728Fbo.s:1063   .text:0000000000000768 .LVL133
     /tmp/cc728Fbo.s:1094   .text:00000000000007a4 .LVL136
     /tmp/cc728Fbo.s:1098   .text:00000000000007ac .LVL137
     /tmp/cc728Fbo.s:839    .text:0000000000000594 .LBB204
     /tmp/cc728Fbo.s:5453   .debug_loc:00000000000007e9 .LLST35
     /tmp/cc728Fbo.s:5468   .debug_loc:0000000000000823 .LLST36
     /tmp/cc728Fbo.s:5483   .debug_loc:000000000000086b .LLST37
     /tmp/cc728Fbo.s:893    .text:0000000000000608 .LBB206
     /tmp/cc728Fbo.s:918    .text:0000000000000634 .LBE206
     /tmp/cc728Fbo.s:900    .text:0000000000000614 .LBB208
     /tmp/cc728Fbo.s:911    .text:0000000000000628 .LBE208
     /tmp/cc728Fbo.s:5508   .debug_loc:00000000000008af .LLST38
     /tmp/cc728Fbo.s:867    .text:00000000000005c4 .LVL100
     /tmp/cc728Fbo.s:872    .text:00000000000005d4 .LVL101
     /tmp/cc728Fbo.s:877    .text:00000000000005e4 .LVL102
     /tmp/cc728Fbo.s:882    .text:00000000000005f0 .LVL103
     /tmp/cc728Fbo.s:887    .text:0000000000000600 .LVL104
     /tmp/cc728Fbo.s:891    .text:0000000000000608 .LVL105
     /tmp/cc728Fbo.s:922    .text:0000000000000644 .LVL108
     /tmp/cc728Fbo.s:926    .text:000000000000064c .LVL109
     /tmp/cc728Fbo.s:936    .text:0000000000000654 .LBB213
     /tmp/cc728Fbo.s:5517   .debug_loc:00000000000008db .LLST39
     /tmp/cc728Fbo.s:5532   .debug_loc:0000000000000915 .LLST40
     /tmp/cc728Fbo.s:5547   .debug_loc:000000000000095d .LLST41
     /tmp/cc728Fbo.s:996    .text:00000000000006d0 .LBB215
     /tmp/cc728Fbo.s:1021   .text:00000000000006fc .LBE215
     /tmp/cc728Fbo.s:1003   .text:00000000000006dc .LBB217
     /tmp/cc728Fbo.s:1014   .text:00000000000006f0 .LBE217
     /tmp/cc728Fbo.s:5558   .debug_loc:0000000000000993 .LLST42
     /tmp/cc728Fbo.s:970    .text:000000000000068c .LVL118
     /tmp/cc728Fbo.s:975    .text:000000000000069c .LVL119
     /tmp/cc728Fbo.s:980    .text:00000000000006ac .LVL120
     /tmp/cc728Fbo.s:985    .text:00000000000006b8 .LVL121
     /tmp/cc728Fbo.s:990    .text:00000000000006c8 .LVL122
     /tmp/cc728Fbo.s:994    .text:00000000000006d0 .LVL123
     /tmp/cc728Fbo.s:1025   .text:000000000000070c .LVL126
     /tmp/cc728Fbo.s:1029   .text:0000000000000714 .LVL127
     /tmp/cc728Fbo.s:563    .text:0000000000000380 .LVL53
     /tmp/cc728Fbo.s:579    .text:000000000000039c .LVL56
     /tmp/cc728Fbo.s:585    .text:00000000000003a8 .LVL58
     /tmp/cc728Fbo.s:662    .text:000000000000041c .LVL68
     /tmp/cc728Fbo.s:829    .text:0000000000000578 .LVL94
     /tmp/cc728Fbo.s:833    .text:0000000000000580 .LVL95
     /tmp/cc728Fbo.s:955    .text:0000000000000670 .LVL115
     /tmp/cc728Fbo.s:18     .text:0000000000000000 .LFB14
     /tmp/cc728Fbo.s:118    .text:00000000000000b4 .LFE14
     /tmp/cc728Fbo.s:5567   .debug_loc:00000000000009bf .LLST0
     /tmp/cc728Fbo.s:46     .text:0000000000000038 .LBB53
     /tmp/cc728Fbo.s:71     .text:0000000000000060 .LBE53
     /tmp/cc728Fbo.s:54     .text:0000000000000044 .LBB55
     /tmp/cc728Fbo.s:64     .text:0000000000000054 .LBE55
     /tmp/cc728Fbo.s:5574   .debug_loc:00000000000009e2 .LLST1
     /tmp/cc728Fbo.s:35     .text:000000000000001c .LVL0
     /tmp/cc728Fbo.s:39     .text:0000000000000028 .LVL1
     /tmp/cc728Fbo.s:44     .text:0000000000000038 .LVL2
GAS LISTING /tmp/cc728Fbo.s 			page 59


     /tmp/cc728Fbo.s:83     .text:0000000000000078 .LVL6
     /tmp/cc728Fbo.s:93     .text:0000000000000090 .LVL7
     /tmp/cc728Fbo.s:104    .text:00000000000000a0 .LVL9
     /tmp/cc728Fbo.s:1369   .text:00000000000009a0 .LFB13
     /tmp/cc728Fbo.s:1506   .text:0000000000000aac .LFE13
     /tmp/cc728Fbo.s:1386   .text:00000000000009c0 .LBB262
     /tmp/cc728Fbo.s:5583   .debug_loc:0000000000000a0e .LLST53
     /tmp/cc728Fbo.s:5596   .debug_loc:0000000000000a46 .LLST54
     /tmp/cc728Fbo.s:5611   .debug_loc:0000000000000a8e .LLST55
     /tmp/cc728Fbo.s:1454   .text:0000000000000a44 .LBB264
     /tmp/cc728Fbo.s:1479   .text:0000000000000a70 .LBE264
     /tmp/cc728Fbo.s:1461   .text:0000000000000a50 .LBB266
     /tmp/cc728Fbo.s:1472   .text:0000000000000a64 .LBE266
     /tmp/cc728Fbo.s:5636   .debug_loc:0000000000000ad2 .LLST56
     /tmp/cc728Fbo.s:1428   .text:0000000000000a00 .LVL182
     /tmp/cc728Fbo.s:1433   .text:0000000000000a10 .LVL183
     /tmp/cc728Fbo.s:1438   .text:0000000000000a20 .LVL184
     /tmp/cc728Fbo.s:1443   .text:0000000000000a2c .LVL185
     /tmp/cc728Fbo.s:1448   .text:0000000000000a3c .LVL186
     /tmp/cc728Fbo.s:1452   .text:0000000000000a44 .LVL187
     /tmp/cc728Fbo.s:1483   .text:0000000000000a80 .LVL190
     /tmp/cc728Fbo.s:1487   .text:0000000000000a88 .LVL191
     /tmp/cc728Fbo.s:1383   .text:00000000000009b8 .LVL175
     /tmp/cc728Fbo.s:1397   .text:00000000000009cc .LVL178
     /tmp/cc728Fbo.s:1407   .text:00000000000009e0 .LVL179
     /tmp/cc728Fbo.s:1494   .text:0000000000000a90 .LVL192
     /tmp/cc728Fbo.s:1501   .text:0000000000000aa0 .LVL193
     /tmp/cc728Fbo.s:1503   .text:0000000000000aa8 .LVL194
     /tmp/cc728Fbo.s:1108   .text:00000000000007ac .LFB12
     /tmp/cc728Fbo.s:1363   .text:00000000000009a0 .LFE12
     /tmp/cc728Fbo.s:6058   .debug_str:00000000000005b6 .LASF112
     /tmp/cc728Fbo.s:5645   .debug_loc:0000000000000afe .LLST43
     /tmp/cc728Fbo.s:6108   .debug_str:00000000000007dc .LASF106
     /tmp/cc728Fbo.s:5667   .debug_loc:0000000000000b5d .LLST44
     /tmp/cc728Fbo.s:1131   .text:00000000000007d8 .LBB237
     /tmp/cc728Fbo.s:5689   .debug_loc:0000000000000bbc .LLST45
     /tmp/cc728Fbo.s:5702   .debug_loc:0000000000000bf4 .LLST46
     /tmp/cc728Fbo.s:5717   .debug_loc:0000000000000c3c .LLST47
     /tmp/cc728Fbo.s:1243   .text:00000000000008a8 .LBB239
     /tmp/cc728Fbo.s:1268   .text:00000000000008d4 .LBE239
     /tmp/cc728Fbo.s:1250   .text:00000000000008b4 .LBB241
     /tmp/cc728Fbo.s:1261   .text:00000000000008c8 .LBE241
     /tmp/cc728Fbo.s:5736   .debug_loc:0000000000000c7a .LLST48
     /tmp/cc728Fbo.s:1217   .text:0000000000000864 .LVL153
     /tmp/cc728Fbo.s:1222   .text:0000000000000874 .LVL154
     /tmp/cc728Fbo.s:1227   .text:0000000000000884 .LVL155
     /tmp/cc728Fbo.s:1232   .text:0000000000000890 .LVL156
     /tmp/cc728Fbo.s:1237   .text:00000000000008a0 .LVL157
     /tmp/cc728Fbo.s:1241   .text:00000000000008a8 .LVL158
     /tmp/cc728Fbo.s:1272   .text:00000000000008e4 .LVL161
     /tmp/cc728Fbo.s:1276   .text:00000000000008ec .LVL162
     /tmp/cc728Fbo.s:1145   .text:00000000000007ec .LBB245
     /tmp/cc728Fbo.s:5745   .debug_loc:0000000000000ca6 .LLST49
     /tmp/cc728Fbo.s:5758   .debug_loc:0000000000000cde .LLST50
     /tmp/cc728Fbo.s:5773   .debug_loc:0000000000000d26 .LLST51
     /tmp/cc728Fbo.s:1312   .text:0000000000000940 .LBB247
     /tmp/cc728Fbo.s:1337   .text:000000000000096c .LBE247
GAS LISTING /tmp/cc728Fbo.s 			page 60


     /tmp/cc728Fbo.s:1319   .text:000000000000094c .LBB249
     /tmp/cc728Fbo.s:1330   .text:0000000000000960 .LBE249
     /tmp/cc728Fbo.s:5784   .debug_loc:0000000000000d5c .LLST52
     /tmp/cc728Fbo.s:1286   .text:00000000000008fc .LVL163
     /tmp/cc728Fbo.s:1291   .text:000000000000090c .LVL164
     /tmp/cc728Fbo.s:1296   .text:000000000000091c .LVL165
     /tmp/cc728Fbo.s:1301   .text:0000000000000928 .LVL166
     /tmp/cc728Fbo.s:1306   .text:0000000000000938 .LVL167
     /tmp/cc728Fbo.s:1310   .text:0000000000000940 .LVL168
     /tmp/cc728Fbo.s:1341   .text:000000000000097c .LVL171
     /tmp/cc728Fbo.s:1345   .text:0000000000000984 .LVL172
     /tmp/cc728Fbo.s:1128   .text:00000000000007d4 .LVL139
     /tmp/cc728Fbo.s:1141   .text:00000000000007e4 .LVL142
     /tmp/cc728Fbo.s:1156   .text:00000000000007f8 .LVL145
     /tmp/cc728Fbo.s:1163   .text:0000000000000808 .LVL146
     /tmp/cc728Fbo.s:1174   .text:000000000000081c .LVL147
     /tmp/cc728Fbo.s:1182   .text:000000000000082c .LVL148
     /tmp/cc728Fbo.s:1189   .text:0000000000000838 .LVL149
     /tmp/cc728Fbo.s:1352   .text:000000000000098c .LVL173
     /tmp/cc728Fbo.s:1358   .text:0000000000000998 .LVL174
     /tmp/cc728Fbo.s:6054   .debug_str:000000000000059f .LASF113
     /tmp/cc728Fbo.s:6008   .debug_str:000000000000045e .LASF115
     /tmp/cc728Fbo.s:5932   .debug_str:0000000000000241 .LASF116
     /tmp/cc728Fbo.s:5980   .debug_str:0000000000000389 .LASF107
     /tmp/cc728Fbo.s:5956   .debug_str:000000000000030b .LASF108
     /tmp/cc728Fbo.s:5864   .debug_str:0000000000000000 .LASF109
     /tmp/cc728Fbo.s:5916   .debug_str:00000000000001c7 .LASF110
     /tmp/cc728Fbo.s:6060   .debug_str:00000000000005bb .LASF111
     /tmp/cc728Fbo.s:5984   .debug_str:000000000000039f .LASF114
     /tmp/cc728Fbo.s:5870   .debug_str:000000000000002a .LASF117
     /tmp/cc728Fbo.s:5902   .debug_str:000000000000013b .LASF118
     /tmp/cc728Fbo.s:6090   .debug_str:0000000000000746 .LASF120
     /tmp/cc728Fbo.s:5964   .debug_str:0000000000000342 .LASF119
     /tmp/cc728Fbo.s:6116   .debug_str:0000000000000807 .LASF121
     /tmp/cc728Fbo.s:5986   .debug_str:00000000000003b0 .LASF122
     /tmp/cc728Fbo.s:6068   .debug_str:0000000000000603 .LASF123
     /tmp/cc728Fbo.s:5998   .debug_str:00000000000003f6 .LASF124
     /tmp/cc728Fbo.s:5888   .debug_str:00000000000000db .LASF125
     /tmp/cc728Fbo.s:5904   .debug_str:000000000000014b .LASF126
     /tmp/cc728Fbo.s:5972   .debug_str:000000000000036b .LASF127
     /tmp/cc728Fbo.s:446    .text:00000000000002d0 .LVL46
     /tmp/cc728Fbo.s:454    .text:00000000000002e0 .LVL47
     /tmp/cc728Fbo.s:477    .text:0000000000000304 .LVL49
     /tmp/cc728Fbo.s:485    .text:0000000000000314 .LVL50
     /tmp/cc728Fbo.s:504    .text:0000000000000334 .LVL51
     /tmp/cc728Fbo.s:510    .text:000000000000033c .LVL52
     /tmp/cc728Fbo.s:141    .text:00000000000000b4 .LVL11
     /tmp/cc728Fbo.s:259    .text:0000000000000164 .LVL22
     /tmp/cc728Fbo.s:330    .text:00000000000001fc .LVL33
     /tmp/cc728Fbo.s:226    .text:000000000000013c .LVL18
     /tmp/cc728Fbo.s:232    .text:0000000000000144 .LVL19
     /tmp/cc728Fbo.s:237    .text:000000000000014c .LVL20
     /tmp/cc728Fbo.s:155    .text:00000000000000d0 .LVL12
     /tmp/cc728Fbo.s:162    .text:00000000000000d4 .LVL13
     /tmp/cc728Fbo.s:364    .text:0000000000000254 .LVL40
     /tmp/cc728Fbo.s:373    .text:0000000000000268 .LVL41
     /tmp/cc728Fbo.s:175    .text:00000000000000e4 .LVL14
GAS LISTING /tmp/cc728Fbo.s 			page 61


     /tmp/cc728Fbo.s:183    .text:00000000000000f4 .LVL15
     /tmp/cc728Fbo.s:205    .text:0000000000000118 .LVL16
     /tmp/cc728Fbo.s:213    .text:0000000000000128 .LVL17
     /tmp/cc728Fbo.s:252    .text:000000000000015c .LVL21
     /tmp/cc728Fbo.s:294    .text:00000000000001bc .LVL29
     /tmp/cc728Fbo.s:303    .text:00000000000001d0 .LVL30
     /tmp/cc728Fbo.s:402    .text:0000000000000298 .LVL44
     /tmp/cc728Fbo.s:408    .text:00000000000002a0 .LVL45
     /tmp/cc728Fbo.s:581    .text:00000000000003a0 .LVL57
     /tmp/cc728Fbo.s:675    .text:000000000000042c .LVL70
     /tmp/cc728Fbo.s:587    .text:00000000000003ac .LVL59
     /tmp/cc728Fbo.s:672    .text:0000000000000428 .LVL69
     /tmp/cc728Fbo.s:824    .text:0000000000000568 .LVL93
     /tmp/cc728Fbo.s:857    .text:00000000000005b0 .LVL98
     /tmp/cc728Fbo.s:859    .text:00000000000005b4 .LVL99
     /tmp/cc728Fbo.s:599    .text:00000000000003c0 .LVL61
     /tmp/cc728Fbo.s:637    .text:00000000000003f8 .LVL65
     /tmp/cc728Fbo.s:949    .text:0000000000000664 .LVL113
     /tmp/cc728Fbo.s:953    .text:0000000000000668 .LVL114
     /tmp/cc728Fbo.s:957    .text:0000000000000674 .LVL116
     /tmp/cc728Fbo.s:631    .text:00000000000003f0 .LVL64
     /tmp/cc728Fbo.s:947    .text:0000000000000660 .LVL112
     /tmp/cc728Fbo.s:567    .text:0000000000000390 .LVL54
     /tmp/cc728Fbo.s:573    .text:0000000000000394 .LVL55
     /tmp/cc728Fbo.s:679    .text:0000000000000434 .LVL71
     /tmp/cc728Fbo.s:687    .text:000000000000043c .LVL72
     /tmp/cc728Fbo.s:721    .text:0000000000000494 .LVL79
     /tmp/cc728Fbo.s:730    .text:00000000000004a8 .LVL80
     /tmp/cc728Fbo.s:593    .text:00000000000003bc .LVL60
     /tmp/cc728Fbo.s:790    .text:000000000000052c .LVL89
     /tmp/cc728Fbo.s:799    .text:0000000000000540 .LVL90
     /tmp/cc728Fbo.s:610    .text:00000000000003cc .LVL62
     /tmp/cc728Fbo.s:618    .text:00000000000003dc .LVL63
     /tmp/cc728Fbo.s:642    .text:0000000000000400 .LVL66
     /tmp/cc728Fbo.s:648    .text:0000000000000404 .LVL67
     /tmp/cc728Fbo.s:1071   .text:0000000000000774 .LVL134
     /tmp/cc728Fbo.s:1080   .text:0000000000000788 .LVL135
     /tmp/cc728Fbo.s:838    .text:0000000000000594 .LVL96
     /tmp/cc728Fbo.s:844    .text:0000000000000598 .LVL97
     /tmp/cc728Fbo.s:899    .text:0000000000000614 .LVL106
     /tmp/cc728Fbo.s:908    .text:0000000000000628 .LVL107
     /tmp/cc728Fbo.s:935    .text:0000000000000654 .LVL110
     /tmp/cc728Fbo.s:941    .text:0000000000000658 .LVL111
     /tmp/cc728Fbo.s:962    .text:000000000000067c .LVL117
     /tmp/cc728Fbo.s:1002   .text:00000000000006dc .LVL124
     /tmp/cc728Fbo.s:1011   .text:00000000000006f0 .LVL125
     /tmp/cc728Fbo.s:74     .text:0000000000000068 .LVL5
     /tmp/cc728Fbo.s:113    .text:00000000000000ac .LVL10
     /tmp/cc728Fbo.s:53     .text:0000000000000044 .LVL3
     /tmp/cc728Fbo.s:61     .text:0000000000000054 .LVL4
     /tmp/cc728Fbo.s:1385   .text:00000000000009c0 .LVL176
     /tmp/cc728Fbo.s:1391   .text:00000000000009c4 .LVL177
     /tmp/cc728Fbo.s:1418   .text:00000000000009f0 .LVL180
     /tmp/cc728Fbo.s:1426   .text:00000000000009f8 .LVL181
     /tmp/cc728Fbo.s:1460   .text:0000000000000a50 .LVL188
     /tmp/cc728Fbo.s:1469   .text:0000000000000a64 .LVL189
     /tmp/cc728Fbo.s:1111   .text:00000000000007ac .LVL138
GAS LISTING /tmp/cc728Fbo.s 			page 62


     /tmp/cc728Fbo.s:1201   .text:0000000000000848 .LVL150
     /tmp/cc728Fbo.s:1208   .text:0000000000000854 .LVL152
     /tmp/cc728Fbo.s:1204   .text:000000000000084c .LVL151
     /tmp/cc728Fbo.s:1130   .text:00000000000007d8 .LVL140
     /tmp/cc728Fbo.s:1136   .text:00000000000007dc .LVL141
     /tmp/cc728Fbo.s:1249   .text:00000000000008b4 .LVL159
     /tmp/cc728Fbo.s:1258   .text:00000000000008c8 .LVL160
     /tmp/cc728Fbo.s:1144   .text:00000000000007ec .LVL143
     /tmp/cc728Fbo.s:1150   .text:00000000000007f0 .LVL144
     /tmp/cc728Fbo.s:1318   .text:000000000000094c .LVL169
     /tmp/cc728Fbo.s:1327   .text:0000000000000960 .LVL170
     /tmp/cc728Fbo.s:1542   .debug_info:0000000000000000 .Ldebug_info0
     /tmp/cc728Fbo.s:164    .text:00000000000000d4 .LBE87
     /tmp/cc728Fbo.s:325    .text:00000000000001f4 .LBB112
     /tmp/cc728Fbo.s:394    .text:000000000000028c .LBE112
     /tmp/cc728Fbo.s:575    .text:0000000000000394 .LBE173
     /tmp/cc728Fbo.s:682    .text:0000000000000434 .LBB202
     /tmp/cc728Fbo.s:751    .text:00000000000004cc .LBE202
     /tmp/cc728Fbo.s:601    .text:00000000000003c0 .LBE181
     /tmp/cc728Fbo.s:752    .text:00000000000004cc .LBB203
     /tmp/cc728Fbo.s:820    .text:0000000000000564 .LBE203
     /tmp/cc728Fbo.s:650    .text:0000000000000404 .LBE194
     /tmp/cc728Fbo.s:1033   .text:0000000000000714 .LBB222
     /tmp/cc728Fbo.s:1100   .text:00000000000007ac .LBE222
     /tmp/cc728Fbo.s:846    .text:0000000000000598 .LBE204
     /tmp/cc728Fbo.s:861    .text:00000000000005b4 .LBB212
     /tmp/cc728Fbo.s:929    .text:000000000000064c .LBE212
     /tmp/cc728Fbo.s:943    .text:0000000000000658 .LBE213
     /tmp/cc728Fbo.s:964    .text:000000000000067c .LBB221
     /tmp/cc728Fbo.s:1032   .text:0000000000000714 .LBE221
     /tmp/cc728Fbo.s:1138   .text:00000000000007dc .LBE237
     /tmp/cc728Fbo.s:1211   .text:0000000000000854 .LBB253
     /tmp/cc728Fbo.s:1279   .text:00000000000008ec .LBE253
     /tmp/cc728Fbo.s:1152   .text:00000000000007f0 .LBE245
     /tmp/cc728Fbo.s:1280   .text:00000000000008ec .LBB254
     /tmp/cc728Fbo.s:1348   .text:0000000000000984 .LBE254
     /tmp/cc728Fbo.s:1393   .text:00000000000009c4 .LBE262
     /tmp/cc728Fbo.s:1421   .text:00000000000009f0 .LBB270
     /tmp/cc728Fbo.s:1490   .text:0000000000000a88 .LBE270

UNDEFINED SYMBOLS
_ZN7IThread11getPRunningEv
_Z6putU64m
_Z9putStringPKc
_Z10putNewlinev
_Z6putInti
_ZN8IConsole14writeToConsoleEv
_Z10stopKernelv
_ZN7IThread10pRunningSpE
kernelThread
_ZN7IThread11setPRunningEPS_
_ZN7IThread11pAllThreadsE
