GAS LISTING /tmp/ccBXekVI.s 			page 1


   1              		.file	"syscall_c.cpp"
   2              		.option pic
   3              		.option norelax
   4              		.text
   5              	.Ltext0:
   6              		.align	2
   8              	_ZL15helperRet64P164mm:
   9              	.LFB12:
  10              		.file 1 "src/syscall_c.cpp"
   1:src/syscall_c.cpp **** #include "../h/syscall_c.hpp"
   2:src/syscall_c.cpp **** #include "../h/my_console.h"
   3:src/syscall_c.cpp **** #include "../h/thread.h"
   4:src/syscall_c.cpp **** #include "../h/0_console.h"
   5:src/syscall_c.cpp **** #include "../lib/console.h"
   6:src/syscall_c.cpp **** 
   7:src/syscall_c.cpp **** uint64 fib(uint64);
   8:src/syscall_c.cpp **** 
   9:src/syscall_c.cpp **** int helperRet32P164(uint64 code, uint64 parameter1)
  10:src/syscall_c.cpp **** {
  11:src/syscall_c.cpp ****     __asm__ volatile ("mv a1, %[name]" : : [name] "r" (parameter1));
  12:src/syscall_c.cpp ****     __asm__ volatile ("mv a0, %[name]" : : [name] "r" (code)); // WARNING: this instruction must be
  13:src/syscall_c.cpp **** 
  14:src/syscall_c.cpp ****     __asm__ volatile ("ecall");
  15:src/syscall_c.cpp **** 
  16:src/syscall_c.cpp ****     uint64 ret;
  17:src/syscall_c.cpp ****     __asm__ volatile ("mv %[name], a0" : [name] "=r"(ret));
  18:src/syscall_c.cpp **** 
  19:src/syscall_c.cpp ****     return *((int*)&ret);
  20:src/syscall_c.cpp **** }
  21:src/syscall_c.cpp **** 
  22:src/syscall_c.cpp **** char helperRet8(uint64 code)
  23:src/syscall_c.cpp **** {
  24:src/syscall_c.cpp **** 
  25:src/syscall_c.cpp ****     __asm__ volatile ("mv a0, %[name]" : : [name] "r" (code)); // WARNING: this instruction must be
  26:src/syscall_c.cpp **** 
  27:src/syscall_c.cpp ****     __asm__ volatile ("ecall");
  28:src/syscall_c.cpp **** 
  29:src/syscall_c.cpp ****     uint64 ret;
  30:src/syscall_c.cpp ****     __asm__ volatile ("mv %[name], a0" : [name] "=r"(ret));
  31:src/syscall_c.cpp **** 
  32:src/syscall_c.cpp ****     return *((char*)&ret);
  33:src/syscall_c.cpp **** }
  34:src/syscall_c.cpp **** 
  35:src/syscall_c.cpp **** void helperP164(uint64 code, uint64 parameter1)
  36:src/syscall_c.cpp **** {
  37:src/syscall_c.cpp ****     __asm__ volatile ("mv a1, %[name]" : : [name] "r" (parameter1));
  38:src/syscall_c.cpp ****     __asm__ volatile ("mv a0, %[name]" : : [name] "r" (code)); // WARNING: this instruction must be
  39:src/syscall_c.cpp **** 
  40:src/syscall_c.cpp ****     __asm__ volatile ("ecall");
  41:src/syscall_c.cpp **** }
  42:src/syscall_c.cpp **** 
  43:src/syscall_c.cpp **** int helperRet32P164P264P364(uint64 code, uint64 parameter1, uint64 parameter2, uint64 parameter3)
  44:src/syscall_c.cpp **** {
  45:src/syscall_c.cpp ****     __asm__ volatile ("mv a3, %[name]" : : [name] "r" (parameter3));
  46:src/syscall_c.cpp ****     __asm__ volatile ("mv a2, %[name]" : : [name] "r" (parameter2));
  47:src/syscall_c.cpp ****     __asm__ volatile ("mv a1, %[name]" : : [name] "r" (parameter1));
  48:src/syscall_c.cpp ****     __asm__ volatile ("mv a0, %[name]" : : [name] "r" (code)); // WARNING: this instruction must be
GAS LISTING /tmp/ccBXekVI.s 			page 2


  49:src/syscall_c.cpp **** 
  50:src/syscall_c.cpp ****     __asm__ volatile ("ecall");
  51:src/syscall_c.cpp **** 
  52:src/syscall_c.cpp ****     __asm__ volatile("mv x10, x10"); // temp
  53:src/syscall_c.cpp **** 
  54:src/syscall_c.cpp ****     uint64 ret;
  55:src/syscall_c.cpp ****     __asm__ volatile ("mv %[name], a0" : [name] "=r"(ret));
  56:src/syscall_c.cpp **** 
  57:src/syscall_c.cpp ****     return *((int*)&ret);
  58:src/syscall_c.cpp **** }
  59:src/syscall_c.cpp **** 
  60:src/syscall_c.cpp **** static uint64 helperRet64P164(uint64 code, uint64 parameter1) // returns 64bit and takes a 64bit pa
  61:src/syscall_c.cpp **** {
  11              		.loc 1 61 1
  12              		.cfi_startproc
  13              	.LVL0:
  14 0000 130101FF 		addi	sp,sp,-16
  15              		.cfi_def_cfa_offset 16
  16 0004 23348100 		sd	s0,8(sp)
  17              		.cfi_offset 8, -8
  18 0008 13040101 		addi	s0,sp,16
  19              		.cfi_def_cfa 8, 0
  62:src/syscall_c.cpp ****     __asm__ volatile ("mv a1, %[name]" : : [name] "r" (parameter1));
  20              		.loc 1 62 5
  21              		.loc 1 62 68 is_stmt 0
  22              	#APP
  23              	# 62 "src/syscall_c.cpp" 1
  63              	    __asm__ volatile ("mv a0, %[name]" : : [name] "r" (code)); // WARNING: this instruction must be
  24              		mv a1, a1
  25              	# 0 "" 2
  26              		.loc 1 63 5 is_stmt 1
  27              		.loc 1 63 62 is_stmt 0
  28              	# 63 "src/syscall_c.cpp" 1
  64              	
  65:src/syscall_c.cpp ****     __asm__ volatile ("ecall");
  29              		mv a0, a0
  30              	# 0 "" 2
  31              		.loc 1 65 5 is_stmt 1
  32              		.loc 1 65 31 is_stmt 0
  33              	# 65 "src/syscall_c.cpp" 1
  66              	
  67:src/syscall_c.cpp ****     __asm__ volatile ("mv x10, x10");
  34              		ecall
  35              	# 0 "" 2
  36              		.loc 1 67 5 is_stmt 1
  37              		.loc 1 67 37 is_stmt 0
  38              	# 67 "src/syscall_c.cpp" 1
  68              	
  69:src/syscall_c.cpp ****     uint64 ret;
  39              		mv x10, x10
  40              	# 0 "" 2
  41              		.loc 1 69 5 is_stmt 1
  70:src/syscall_c.cpp ****     __asm__ volatile ("mv %[name], a0" : [name] "=r"(ret));
  42              		.loc 1 70 5
  43              		.loc 1 70 59 is_stmt 0
  44              	# 70 "src/syscall_c.cpp" 1
  71              	
GAS LISTING /tmp/ccBXekVI.s 			page 3


  45              		mv a0, a0
  46              	# 0 "" 2
  47              	.LVL1:
  72:src/syscall_c.cpp ****     return ret;
  48              		.loc 1 72 5 is_stmt 1
  73:src/syscall_c.cpp **** }
  49              		.loc 1 73 1 is_stmt 0
  50              	#NO_APP
  51 0020 03348100 		ld	s0,8(sp)
  52              		.cfi_restore 8
  53              		.cfi_def_cfa 2, 16
  54 0024 13010101 		addi	sp,sp,16
  55              		.cfi_def_cfa_offset 0
  56 0028 67800000 		jr	ra
  57              		.cfi_endproc
  58              	.LFE12:
  60              		.align	2
  62              	_ZL11helperRet32m:
  63              	.LFB13:
  74:src/syscall_c.cpp **** 
  75:src/syscall_c.cpp **** static int helperRet32(uint64 code) // returns 64bit and takes no params
  76:src/syscall_c.cpp **** {
  64              		.loc 1 76 1 is_stmt 1
  65              		.cfi_startproc
  66              	.LVL2:
  67 002c 130101FF 		addi	sp,sp,-16
  68              		.cfi_def_cfa_offset 16
  69 0030 23348100 		sd	s0,8(sp)
  70              		.cfi_offset 8, -8
  71 0034 13040101 		addi	s0,sp,16
  72              		.cfi_def_cfa 8, 0
  77:src/syscall_c.cpp ****     __asm__ volatile ("mv a0, %[name]" : : [name] "r" (code));
  73              		.loc 1 77 5
  74              		.loc 1 77 62 is_stmt 0
  75              	#APP
  76              	# 77 "src/syscall_c.cpp" 1
  78              	
  79:src/syscall_c.cpp ****     __asm__ volatile ("ecall");
  77              		mv a0, a0
  78              	# 0 "" 2
  79              		.loc 1 79 5 is_stmt 1
  80              		.loc 1 79 31 is_stmt 0
  81              	# 79 "src/syscall_c.cpp" 1
  80              	
  81:src/syscall_c.cpp ****     uint64 ret;
  82              		ecall
  83              	# 0 "" 2
  84              		.loc 1 81 5 is_stmt 1
  82:src/syscall_c.cpp ****     __asm__ volatile ("mv %[name], a0" : [name] "=r"(ret));
  85              		.loc 1 82 5
  86              		.loc 1 82 59 is_stmt 0
  87              	# 82 "src/syscall_c.cpp" 1
  83              	
  88              		mv a0, a0
  89              	# 0 "" 2
  90              	.LVL3:
  84:src/syscall_c.cpp ****     return *((int*)&ret);
GAS LISTING /tmp/ccBXekVI.s 			page 4


  91              		.loc 1 84 5 is_stmt 1
  85:src/syscall_c.cpp **** }
  92              		.loc 1 85 1 is_stmt 0
  93              	#NO_APP
  94 0044 1B050500 		sext.w	a0,a0
  95 0048 03348100 		ld	s0,8(sp)
  96              		.cfi_restore 8
  97              		.cfi_def_cfa 2, 16
  98 004c 13010101 		addi	sp,sp,16
  99              		.cfi_def_cfa_offset 0
 100 0050 67800000 		jr	ra
 101              		.cfi_endproc
 102              	.LFE13:
 104              		.align	2
 106              	_ZL6helperm:
 107              	.LFB14:
  86:src/syscall_c.cpp **** 
  87:src/syscall_c.cpp **** static void helper(uint64 code) // returns nothing and takes no parameters (eg thread_dispatch)
  88:src/syscall_c.cpp **** {
 108              		.loc 1 88 1 is_stmt 1
 109              		.cfi_startproc
 110              	.LVL4:
 111 0054 130101FF 		addi	sp,sp,-16
 112              		.cfi_def_cfa_offset 16
 113 0058 23348100 		sd	s0,8(sp)
 114              		.cfi_offset 8, -8
 115 005c 13040101 		addi	s0,sp,16
 116              		.cfi_def_cfa 8, 0
  89:src/syscall_c.cpp ****     __asm__ volatile ("mv a0, %[name]" : : [name] "r" (code));
 117              		.loc 1 89 5
 118              		.loc 1 89 62 is_stmt 0
 119              	#APP
 120              	# 89 "src/syscall_c.cpp" 1
  90              	    __asm__ volatile ("ecall");
 121              		mv a0, a0
 122              	# 0 "" 2
 123              		.loc 1 90 5 is_stmt 1
 124              		.loc 1 90 31 is_stmt 0
 125              	# 90 "src/syscall_c.cpp" 1
  91              	
  92:src/syscall_c.cpp ****     __asm__ volatile ("mv x10, x10");
 126              		ecall
 127              	# 0 "" 2
 128              		.loc 1 92 5 is_stmt 1
 129              		.loc 1 92 37 is_stmt 0
 130              	# 92 "src/syscall_c.cpp" 1
  93              	}
 131              		mv x10, x10
 132              	# 0 "" 2
 133              		.loc 1 93 1
 134              	#NO_APP
 135 006c 03348100 		ld	s0,8(sp)
 136              		.cfi_restore 8
 137              		.cfi_def_cfa 2, 16
 138 0070 13010101 		addi	sp,sp,16
 139              		.cfi_def_cfa_offset 0
 140 0074 67800000 		jr	ra
GAS LISTING /tmp/ccBXekVI.s 			page 5


 141              		.cfi_endproc
 142              	.LFE14:
 144              		.align	2
 145              		.globl	_Z15helperRet32P164mm
 147              	_Z15helperRet32P164mm:
 148              	.LFB8:
  10:src/syscall_c.cpp ****     __asm__ volatile ("mv a1, %[name]" : : [name] "r" (parameter1));
 149              		.loc 1 10 1 is_stmt 1
 150              		.cfi_startproc
 151              	.LVL5:
 152 0078 130101FF 		addi	sp,sp,-16
 153              		.cfi_def_cfa_offset 16
 154 007c 23348100 		sd	s0,8(sp)
 155              		.cfi_offset 8, -8
 156 0080 13040101 		addi	s0,sp,16
 157              		.cfi_def_cfa 8, 0
  11:src/syscall_c.cpp ****     __asm__ volatile ("mv a0, %[name]" : : [name] "r" (code)); // WARNING: this instruction must be
 158              		.loc 1 11 5
  11:src/syscall_c.cpp ****     __asm__ volatile ("mv a0, %[name]" : : [name] "r" (code)); // WARNING: this instruction must be
 159              		.loc 1 11 68 is_stmt 0
 160              	#APP
 161              	# 11 "src/syscall_c.cpp" 1
  12:src/syscall_c.cpp **** 
 162              		mv a1, a1
 163              	# 0 "" 2
 164              		.loc 1 12 5 is_stmt 1
  12:src/syscall_c.cpp **** 
 165              		.loc 1 12 62 is_stmt 0
 166              	# 12 "src/syscall_c.cpp" 1
  14:src/syscall_c.cpp **** 
 167              		mv a0, a0
 168              	# 0 "" 2
 169              		.loc 1 14 5 is_stmt 1
  14:src/syscall_c.cpp **** 
 170              		.loc 1 14 31 is_stmt 0
 171              	# 14 "src/syscall_c.cpp" 1
  16:src/syscall_c.cpp ****     __asm__ volatile ("mv %[name], a0" : [name] "=r"(ret));
 172              		ecall
 173              	# 0 "" 2
 174              		.loc 1 16 5 is_stmt 1
  17:src/syscall_c.cpp **** 
 175              		.loc 1 17 5
  17:src/syscall_c.cpp **** 
 176              		.loc 1 17 59 is_stmt 0
 177              	# 17 "src/syscall_c.cpp" 1
 178              		mv a0, a0
 179              	# 0 "" 2
 180              	.LVL6:
  19:src/syscall_c.cpp **** }
 181              		.loc 1 19 5 is_stmt 1
  20:src/syscall_c.cpp **** 
 182              		.loc 1 20 1 is_stmt 0
 183              	#NO_APP
 184 0094 1B050500 		sext.w	a0,a0
 185 0098 03348100 		ld	s0,8(sp)
 186              		.cfi_restore 8
 187              		.cfi_def_cfa 2, 16
GAS LISTING /tmp/ccBXekVI.s 			page 6


 188 009c 13010101 		addi	sp,sp,16
 189              		.cfi_def_cfa_offset 0
 190 00a0 67800000 		jr	ra
 191              		.cfi_endproc
 192              	.LFE8:
 194              		.align	2
 195              		.globl	_Z10helperRet8m
 197              	_Z10helperRet8m:
 198              	.LFB9:
  23:src/syscall_c.cpp **** 
 199              		.loc 1 23 1 is_stmt 1
 200              		.cfi_startproc
 201              	.LVL7:
 202 00a4 130101FF 		addi	sp,sp,-16
 203              		.cfi_def_cfa_offset 16
 204 00a8 23348100 		sd	s0,8(sp)
 205              		.cfi_offset 8, -8
 206 00ac 13040101 		addi	s0,sp,16
 207              		.cfi_def_cfa 8, 0
  25:src/syscall_c.cpp **** 
 208              		.loc 1 25 5
  25:src/syscall_c.cpp **** 
 209              		.loc 1 25 62 is_stmt 0
 210              	#APP
 211              	# 25 "src/syscall_c.cpp" 1
  27:src/syscall_c.cpp **** 
 212              		mv a0, a0
 213              	# 0 "" 2
 214              		.loc 1 27 5 is_stmt 1
  27:src/syscall_c.cpp **** 
 215              		.loc 1 27 31 is_stmt 0
 216              	# 27 "src/syscall_c.cpp" 1
  29:src/syscall_c.cpp ****     __asm__ volatile ("mv %[name], a0" : [name] "=r"(ret));
 217              		ecall
 218              	# 0 "" 2
 219              		.loc 1 29 5 is_stmt 1
  30:src/syscall_c.cpp **** 
 220              		.loc 1 30 5
  30:src/syscall_c.cpp **** 
 221              		.loc 1 30 59 is_stmt 0
 222              	# 30 "src/syscall_c.cpp" 1
 223              		mv a0, a0
 224              	# 0 "" 2
 225              	.LVL8:
  32:src/syscall_c.cpp **** }
 226              		.loc 1 32 5 is_stmt 1
  33:src/syscall_c.cpp **** 
 227              		.loc 1 33 1 is_stmt 0
 228              	#NO_APP
 229 00bc 1375F50F 		andi	a0,a0,0xff
 230 00c0 03348100 		ld	s0,8(sp)
 231              		.cfi_restore 8
 232              		.cfi_def_cfa 2, 16
 233 00c4 13010101 		addi	sp,sp,16
 234              		.cfi_def_cfa_offset 0
 235 00c8 67800000 		jr	ra
 236              		.cfi_endproc
GAS LISTING /tmp/ccBXekVI.s 			page 7


 237              	.LFE9:
 239              		.align	2
 240              		.globl	_Z10helperP164mm
 242              	_Z10helperP164mm:
 243              	.LFB10:
  36:src/syscall_c.cpp ****     __asm__ volatile ("mv a1, %[name]" : : [name] "r" (parameter1));
 244              		.loc 1 36 1 is_stmt 1
 245              		.cfi_startproc
 246              	.LVL9:
 247 00cc 130101FF 		addi	sp,sp,-16
 248              		.cfi_def_cfa_offset 16
 249 00d0 23348100 		sd	s0,8(sp)
 250              		.cfi_offset 8, -8
 251 00d4 13040101 		addi	s0,sp,16
 252              		.cfi_def_cfa 8, 0
  37:src/syscall_c.cpp ****     __asm__ volatile ("mv a0, %[name]" : : [name] "r" (code)); // WARNING: this instruction must be
 253              		.loc 1 37 5
  37:src/syscall_c.cpp ****     __asm__ volatile ("mv a0, %[name]" : : [name] "r" (code)); // WARNING: this instruction must be
 254              		.loc 1 37 68 is_stmt 0
 255              	#APP
 256              	# 37 "src/syscall_c.cpp" 1
  38:src/syscall_c.cpp **** 
 257              		mv a1, a1
 258              	# 0 "" 2
 259              		.loc 1 38 5 is_stmt 1
  38:src/syscall_c.cpp **** 
 260              		.loc 1 38 62 is_stmt 0
 261              	# 38 "src/syscall_c.cpp" 1
  40:src/syscall_c.cpp **** }
 262              		mv a0, a0
 263              	# 0 "" 2
 264              		.loc 1 40 5 is_stmt 1
  40:src/syscall_c.cpp **** }
 265              		.loc 1 40 31 is_stmt 0
 266              	# 40 "src/syscall_c.cpp" 1
  41:src/syscall_c.cpp **** 
 267              		ecall
 268              	# 0 "" 2
 269              		.loc 1 41 1
 270              	#NO_APP
 271 00e4 03348100 		ld	s0,8(sp)
 272              		.cfi_restore 8
 273              		.cfi_def_cfa 2, 16
 274 00e8 13010101 		addi	sp,sp,16
 275              		.cfi_def_cfa_offset 0
 276 00ec 67800000 		jr	ra
 277              		.cfi_endproc
 278              	.LFE10:
 280              		.align	2
 281              		.globl	_Z23helperRet32P164P264P364mmmm
 283              	_Z23helperRet32P164P264P364mmmm:
 284              	.LFB11:
  44:src/syscall_c.cpp ****     __asm__ volatile ("mv a3, %[name]" : : [name] "r" (parameter3));
 285              		.loc 1 44 1 is_stmt 1
 286              		.cfi_startproc
 287              	.LVL10:
 288 00f0 130101FF 		addi	sp,sp,-16
GAS LISTING /tmp/ccBXekVI.s 			page 8


 289              		.cfi_def_cfa_offset 16
 290 00f4 23348100 		sd	s0,8(sp)
 291              		.cfi_offset 8, -8
 292 00f8 13040101 		addi	s0,sp,16
 293              		.cfi_def_cfa 8, 0
  45:src/syscall_c.cpp ****     __asm__ volatile ("mv a2, %[name]" : : [name] "r" (parameter2));
 294              		.loc 1 45 5
  45:src/syscall_c.cpp ****     __asm__ volatile ("mv a2, %[name]" : : [name] "r" (parameter2));
 295              		.loc 1 45 68 is_stmt 0
 296              	#APP
 297              	# 45 "src/syscall_c.cpp" 1
  46:src/syscall_c.cpp ****     __asm__ volatile ("mv a1, %[name]" : : [name] "r" (parameter1));
 298              		mv a3, a3
 299              	# 0 "" 2
 300              		.loc 1 46 5 is_stmt 1
  46:src/syscall_c.cpp ****     __asm__ volatile ("mv a1, %[name]" : : [name] "r" (parameter1));
 301              		.loc 1 46 68 is_stmt 0
 302              	# 46 "src/syscall_c.cpp" 1
  47:src/syscall_c.cpp ****     __asm__ volatile ("mv a0, %[name]" : : [name] "r" (code)); // WARNING: this instruction must be
 303              		mv a2, a2
 304              	# 0 "" 2
 305              		.loc 1 47 5 is_stmt 1
  47:src/syscall_c.cpp ****     __asm__ volatile ("mv a0, %[name]" : : [name] "r" (code)); // WARNING: this instruction must be
 306              		.loc 1 47 68 is_stmt 0
 307              	# 47 "src/syscall_c.cpp" 1
  48:src/syscall_c.cpp **** 
 308              		mv a1, a1
 309              	# 0 "" 2
 310              		.loc 1 48 5 is_stmt 1
  48:src/syscall_c.cpp **** 
 311              		.loc 1 48 62 is_stmt 0
 312              	# 48 "src/syscall_c.cpp" 1
  50:src/syscall_c.cpp **** 
 313              		mv a0, a0
 314              	# 0 "" 2
 315              		.loc 1 50 5 is_stmt 1
  50:src/syscall_c.cpp **** 
 316              		.loc 1 50 31 is_stmt 0
 317              	# 50 "src/syscall_c.cpp" 1
  52:src/syscall_c.cpp **** 
 318              		ecall
 319              	# 0 "" 2
 320              		.loc 1 52 5 is_stmt 1
  52:src/syscall_c.cpp **** 
 321              		.loc 1 52 36 is_stmt 0
 322              	# 52 "src/syscall_c.cpp" 1
  54:src/syscall_c.cpp ****     __asm__ volatile ("mv %[name], a0" : [name] "=r"(ret));
 323              		mv x10, x10
 324              	# 0 "" 2
 325              		.loc 1 54 5 is_stmt 1
  55:src/syscall_c.cpp **** 
 326              		.loc 1 55 5
  55:src/syscall_c.cpp **** 
 327              		.loc 1 55 59 is_stmt 0
 328              	# 55 "src/syscall_c.cpp" 1
 329              		mv a0, a0
 330              	# 0 "" 2
GAS LISTING /tmp/ccBXekVI.s 			page 9


 331              	.LVL11:
  57:src/syscall_c.cpp **** }
 332              		.loc 1 57 5 is_stmt 1
  58:src/syscall_c.cpp **** 
 333              		.loc 1 58 1 is_stmt 0
 334              	#NO_APP
 335 0118 1B050500 		sext.w	a0,a0
 336 011c 03348100 		ld	s0,8(sp)
 337              		.cfi_restore 8
 338              		.cfi_def_cfa 2, 16
 339 0120 13010101 		addi	sp,sp,16
 340              		.cfi_def_cfa_offset 0
 341 0124 67800000 		jr	ra
 342              		.cfi_endproc
 343              	.LFE11:
 345              		.align	2
 346              		.globl	_Z9mem_allocm
 348              	_Z9mem_allocm:
 349              	.LFB15:
  94:src/syscall_c.cpp **** 
  95:src/syscall_c.cpp **** void* mem_alloc(size_t size)
  96:src/syscall_c.cpp **** {
 350              		.loc 1 96 1 is_stmt 1
 351              		.cfi_startproc
 352              	.LVL12:
 353 0128 130101FF 		addi	sp,sp,-16
 354              		.cfi_def_cfa_offset 16
 355 012c 23341100 		sd	ra,8(sp)
 356 0130 23308100 		sd	s0,0(sp)
 357              		.cfi_offset 1, -8
 358              		.cfi_offset 8, -16
 359 0134 13040101 		addi	s0,sp,16
 360              		.cfi_def_cfa 8, 0
 361 0138 93050500 		mv	a1,a0
  97:src/syscall_c.cpp ****     return (void*) helperRet64P164(1, size);
 362              		.loc 1 97 5
 363              		.loc 1 97 35 is_stmt 0
 364 013c 13051000 		li	a0,1
 365              	.LVL13:
 366 0140 97000000 		call	_ZL15helperRet64P164mm
 366      E7800000 
 367              	.LVL14:
  98:src/syscall_c.cpp **** }
 368              		.loc 1 98 1
 369 0148 83308100 		ld	ra,8(sp)
 370              		.cfi_restore 1
 371 014c 03340100 		ld	s0,0(sp)
 372              		.cfi_restore 8
 373              		.cfi_def_cfa 2, 16
 374 0150 13010101 		addi	sp,sp,16
 375              		.cfi_def_cfa_offset 0
 376 0154 67800000 		jr	ra
 377              		.cfi_endproc
 378              	.LFE15:
 380              		.align	2
 381              		.globl	_Z8mem_freePv
 383              	_Z8mem_freePv:
GAS LISTING /tmp/ccBXekVI.s 			page 10


 384              	.LFB16:
  99:src/syscall_c.cpp **** 
 100:src/syscall_c.cpp **** int mem_free(void* ptr)
 101:src/syscall_c.cpp **** {
 385              		.loc 1 101 1 is_stmt 1
 386              		.cfi_startproc
 387              	.LVL15:
 388 0158 130101FF 		addi	sp,sp,-16
 389              		.cfi_def_cfa_offset 16
 390 015c 23341100 		sd	ra,8(sp)
 391 0160 23308100 		sd	s0,0(sp)
 392              		.cfi_offset 1, -8
 393              		.cfi_offset 8, -16
 394 0164 13040101 		addi	s0,sp,16
 395              		.cfi_def_cfa 8, 0
 396 0168 93050500 		mv	a1,a0
 102:src/syscall_c.cpp ****     return helperRet64P164(2, (uint64) ptr);
 397              		.loc 1 102 5
 398              		.loc 1 102 27 is_stmt 0
 399 016c 13052000 		li	a0,2
 400              	.LVL16:
 401 0170 97000000 		call	_ZL15helperRet64P164mm
 401      E7800000 
 402              	.LVL17:
 103:src/syscall_c.cpp **** }
 403              		.loc 1 103 1
 404 0178 1B050500 		sext.w	a0,a0
 405 017c 83308100 		ld	ra,8(sp)
 406              		.cfi_restore 1
 407 0180 03340100 		ld	s0,0(sp)
 408              		.cfi_restore 8
 409              		.cfi_def_cfa 2, 16
 410 0184 13010101 		addi	sp,sp,16
 411              		.cfi_def_cfa_offset 0
 412 0188 67800000 		jr	ra
 413              		.cfi_endproc
 414              	.LFE16:
 416              		.align	2
 417              		.globl	_Z15thread_dispatchv
 419              	_Z15thread_dispatchv:
 420              	.LFB17:
 104:src/syscall_c.cpp **** 
 105:src/syscall_c.cpp **** void thread_dispatch() // WARNING: different than Scheduler::dispatchToNext()
 106:src/syscall_c.cpp **** {
 421              		.loc 1 106 1 is_stmt 1
 422              		.cfi_startproc
 423 018c 130101FF 		addi	sp,sp,-16
 424              		.cfi_def_cfa_offset 16
 425 0190 23341100 		sd	ra,8(sp)
 426 0194 23308100 		sd	s0,0(sp)
 427              		.cfi_offset 1, -8
 428              		.cfi_offset 8, -16
 429 0198 13040101 		addi	s0,sp,16
 430              		.cfi_def_cfa 8, 0
 107:src/syscall_c.cpp ****     helper(0x13);
 431              		.loc 1 107 5
 432              		.loc 1 107 11 is_stmt 0
GAS LISTING /tmp/ccBXekVI.s 			page 11


 433 019c 13053001 		li	a0,19
 434 01a0 97000000 		call	_ZL6helperm
 434      E7800000 
 435              	.LVL18:
 108:src/syscall_c.cpp **** }
 436              		.loc 1 108 1
 437 01a8 83308100 		ld	ra,8(sp)
 438              		.cfi_restore 1
 439 01ac 03340100 		ld	s0,0(sp)
 440              		.cfi_restore 8
 441              		.cfi_def_cfa 2, 16
 442 01b0 13010101 		addi	sp,sp,16
 443              		.cfi_def_cfa_offset 0
 444 01b4 67800000 		jr	ra
 445              		.cfi_endproc
 446              	.LFE17:
 448              		.align	2
 449              		.globl	_Z11thread_exitv
 451              	_Z11thread_exitv:
 452              	.LFB18:
 109:src/syscall_c.cpp **** 
 110:src/syscall_c.cpp **** int thread_exit()
 111:src/syscall_c.cpp **** {
 453              		.loc 1 111 1 is_stmt 1
 454              		.cfi_startproc
 455 01b8 130101FF 		addi	sp,sp,-16
 456              		.cfi_def_cfa_offset 16
 457 01bc 23341100 		sd	ra,8(sp)
 458 01c0 23308100 		sd	s0,0(sp)
 459              		.cfi_offset 1, -8
 460              		.cfi_offset 8, -16
 461 01c4 13040101 		addi	s0,sp,16
 462              		.cfi_def_cfa 8, 0
 112:src/syscall_c.cpp ****     return helperRet32(0x12);
 463              		.loc 1 112 5
 464              		.loc 1 112 23 is_stmt 0
 465 01c8 13052001 		li	a0,18
 466 01cc 97000000 		call	_ZL11helperRet32m
 466      E7800000 
 467              	.LVL19:
 113:src/syscall_c.cpp **** }
 468              		.loc 1 113 1
 469 01d4 83308100 		ld	ra,8(sp)
 470              		.cfi_restore 1
 471 01d8 03340100 		ld	s0,0(sp)
 472              		.cfi_restore 8
 473              		.cfi_def_cfa 2, 16
 474 01dc 13010101 		addi	sp,sp,16
 475              		.cfi_def_cfa_offset 0
 476 01e0 67800000 		jr	ra
 477              		.cfi_endproc
 478              	.LFE18:
 480              		.align	2
 481              		.globl	_Z13thread_createPmPFvPvES0_
 483              	_Z13thread_createPmPFvPvES0_:
 484              	.LFB19:
 114:src/syscall_c.cpp **** 
GAS LISTING /tmp/ccBXekVI.s 			page 12


 115:src/syscall_c.cpp **** int thread_create(thread_t* handle, void(*start_routine)(void*), void*arg)
 116:src/syscall_c.cpp **** {
 485              		.loc 1 116 1 is_stmt 1
 486              		.cfi_startproc
 487              	.LVL20:
 488 01e4 130101FF 		addi	sp,sp,-16
 489              		.cfi_def_cfa_offset 16
 490 01e8 23341100 		sd	ra,8(sp)
 491 01ec 23308100 		sd	s0,0(sp)
 492              		.cfi_offset 1, -8
 493              		.cfi_offset 8, -16
 494 01f0 13040101 		addi	s0,sp,16
 495              		.cfi_def_cfa 8, 0
 496 01f4 93060600 		mv	a3,a2
 117:src/syscall_c.cpp ****     return helperRet32P164P264P364(0x11, (uint64)handle, (uint64)start_routine, *((uint64*)&arg));
 497              		.loc 1 117 5
 498              		.loc 1 117 35 is_stmt 0
 499 01f8 13860500 		mv	a2,a1
 500              	.LVL21:
 501 01fc 93050500 		mv	a1,a0
 502              	.LVL22:
 503 0200 13051001 		li	a0,17
 504              	.LVL23:
 505 0204 97000000 		call	_Z23helperRet32P164P264P364mmmm
 505      E7800000 
 506              	.LVL24:
 118:src/syscall_c.cpp **** }
 507              		.loc 1 118 1
 508 020c 83308100 		ld	ra,8(sp)
 509              		.cfi_restore 1
 510 0210 03340100 		ld	s0,0(sp)
 511              		.cfi_restore 8
 512              		.cfi_def_cfa 2, 16
 513 0214 13010101 		addi	sp,sp,16
 514              		.cfi_def_cfa_offset 0
 515 0218 67800000 		jr	ra
 516              		.cfi_endproc
 517              	.LFE19:
 519              		.align	2
 520              		.globl	_Z11thread_joinm
 522              	_Z11thread_joinm:
 523              	.LFB20:
 119:src/syscall_c.cpp **** 
 120:src/syscall_c.cpp **** void thread_join(thread_t handle)
 121:src/syscall_c.cpp **** {
 524              		.loc 1 121 1 is_stmt 1
 525              		.cfi_startproc
 526              	.LVL25:
 527 021c 130101FF 		addi	sp,sp,-16
 528              		.cfi_def_cfa_offset 16
 529 0220 23341100 		sd	ra,8(sp)
 530 0224 23308100 		sd	s0,0(sp)
 531              		.cfi_offset 1, -8
 532              		.cfi_offset 8, -16
 533 0228 13040101 		addi	s0,sp,16
 534              		.cfi_def_cfa 8, 0
 535 022c 93050500 		mv	a1,a0
GAS LISTING /tmp/ccBXekVI.s 			page 13


 122:src/syscall_c.cpp ****     helperP164(0x14, handle);
 536              		.loc 1 122 5
 537              		.loc 1 122 15 is_stmt 0
 538 0230 13054001 		li	a0,20
 539              	.LVL26:
 540 0234 97000000 		call	_Z10helperP164mm
 540      E7800000 
 541              	.LVL27:
 123:src/syscall_c.cpp **** }
 542              		.loc 1 123 1
 543 023c 83308100 		ld	ra,8(sp)
 544              		.cfi_restore 1
 545 0240 03340100 		ld	s0,0(sp)
 546              		.cfi_restore 8
 547              		.cfi_def_cfa 2, 16
 548 0244 13010101 		addi	sp,sp,16
 549              		.cfi_def_cfa_offset 0
 550 0248 67800000 		jr	ra
 551              		.cfi_endproc
 552              	.LFE20:
 554              		.align	2
 555              		.globl	_Z10time_sleepm
 557              	_Z10time_sleepm:
 558              	.LFB21:
 124:src/syscall_c.cpp **** 
 125:src/syscall_c.cpp **** int time_sleep(time_t time)
 126:src/syscall_c.cpp **** {
 559              		.loc 1 126 1 is_stmt 1
 560              		.cfi_startproc
 561              	.LVL28:
 562 024c 130101FF 		addi	sp,sp,-16
 563              		.cfi_def_cfa_offset 16
 564 0250 23341100 		sd	ra,8(sp)
 565 0254 23308100 		sd	s0,0(sp)
 566              		.cfi_offset 1, -8
 567              		.cfi_offset 8, -16
 568 0258 13040101 		addi	s0,sp,16
 569              		.cfi_def_cfa 8, 0
 570 025c 93050500 		mv	a1,a0
 127:src/syscall_c.cpp ****     return helperRet32P164(0x31, time);
 571              		.loc 1 127 5
 572              		.loc 1 127 27 is_stmt 0
 573 0260 13051003 		li	a0,49
 574              	.LVL29:
 575 0264 97000000 		call	_Z15helperRet32P164mm
 575      E7800000 
 576              	.LVL30:
 128:src/syscall_c.cpp **** }
 577              		.loc 1 128 1
 578 026c 83308100 		ld	ra,8(sp)
 579              		.cfi_restore 1
 580 0270 03340100 		ld	s0,0(sp)
 581              		.cfi_restore 8
 582              		.cfi_def_cfa 2, 16
 583 0274 13010101 		addi	sp,sp,16
 584              		.cfi_def_cfa_offset 0
 585 0278 67800000 		jr	ra
GAS LISTING /tmp/ccBXekVI.s 			page 14


 586              		.cfi_endproc
 587              	.LFE21:
 589              		.align	2
 590              		.globl	_Z4getcv
 592              	_Z4getcv:
 593              	.LFB22:
 129:src/syscall_c.cpp **** 
 130:src/syscall_c.cpp **** char getc()
 131:src/syscall_c.cpp **** {
 594              		.loc 1 131 1 is_stmt 1
 595              		.cfi_startproc
 596 027c 130101FF 		addi	sp,sp,-16
 597              		.cfi_def_cfa_offset 16
 598 0280 23348100 		sd	s0,8(sp)
 599              		.cfi_offset 8, -8
 600 0284 13040101 		addi	s0,sp,16
 601              		.cfi_def_cfa 8, 0
 132:src/syscall_c.cpp **** //    return __getc();
 133:src/syscall_c.cpp ****     return 'a';
 602              		.loc 1 133 5
 134:src/syscall_c.cpp **** }
 603              		.loc 1 134 1 is_stmt 0
 604 0288 13051006 		li	a0,97
 605 028c 03348100 		ld	s0,8(sp)
 606              		.cfi_restore 8
 607              		.cfi_def_cfa 2, 16
 608 0290 13010101 		addi	sp,sp,16
 609              		.cfi_def_cfa_offset 0
 610 0294 67800000 		jr	ra
 611              		.cfi_endproc
 612              	.LFE22:
 614              		.align	2
 615              		.globl	_Z4putcc
 617              	_Z4putcc:
 618              	.LFB23:
 135:src/syscall_c.cpp **** 
 136:src/syscall_c.cpp **** void putc(char c)
 137:src/syscall_c.cpp **** {
 619              		.loc 1 137 1 is_stmt 1
 620              		.cfi_startproc
 621              	.LVL31:
 622 0298 130101FF 		addi	sp,sp,-16
 623              		.cfi_def_cfa_offset 16
 624 029c 23341100 		sd	ra,8(sp)
 625 02a0 23308100 		sd	s0,0(sp)
 626              		.cfi_offset 1, -8
 627              		.cfi_offset 8, -16
 628 02a4 13040101 		addi	s0,sp,16
 629              		.cfi_def_cfa 8, 0
 138:src/syscall_c.cpp **** //    uint64 a;
 139:src/syscall_c.cpp **** //    *((char*)(&a)) = c;
 140:src/syscall_c.cpp **** //
 141:src/syscall_c.cpp **** //    helperP164(0x42, a);
 142:src/syscall_c.cpp **** 
 143:src/syscall_c.cpp **** //    IConsole::get()->putc(c);
 144:src/syscall_c.cpp ****     __putc(c);
 630              		.loc 1 144 5
GAS LISTING /tmp/ccBXekVI.s 			page 15


 631              		.loc 1 144 11 is_stmt 0
 632 02a8 97000000 		call	__putc@plt
 632      E7800000 
 633              	.LVL32:
 145:src/syscall_c.cpp **** }
 634              		.loc 1 145 1
 635 02b0 83308100 		ld	ra,8(sp)
 636              		.cfi_restore 1
 637 02b4 03340100 		ld	s0,0(sp)
 638              		.cfi_restore 8
 639              		.cfi_def_cfa 2, 16
 640 02b8 13010101 		addi	sp,sp,16
 641              		.cfi_def_cfa_offset 0
 642 02bc 67800000 		jr	ra
 643              		.cfi_endproc
 644              	.LFE23:
 646              		.align	2
 647              		.globl	_Z9test_callm
 649              	_Z9test_callm:
 650              	.LFB24:
 146:src/syscall_c.cpp **** 
 147:src/syscall_c.cpp **** uint64 test_call(uint64 n)
 148:src/syscall_c.cpp **** {
 651              		.loc 1 148 1 is_stmt 1
 652              		.cfi_startproc
 653              	.LVL33:
 654 02c0 130101FF 		addi	sp,sp,-16
 655              		.cfi_def_cfa_offset 16
 656 02c4 23341100 		sd	ra,8(sp)
 657 02c8 23308100 		sd	s0,0(sp)
 658              		.cfi_offset 1, -8
 659              		.cfi_offset 8, -16
 660 02cc 13040101 		addi	s0,sp,16
 661              		.cfi_def_cfa 8, 0
 662 02d0 93050500 		mv	a1,a0
 149:src/syscall_c.cpp ****     return helperRet64P164(3, n);
 663              		.loc 1 149 5
 664              		.loc 1 149 27 is_stmt 0
 665 02d4 13053000 		li	a0,3
 666              	.LVL34:
 667 02d8 97000000 		call	_ZL15helperRet64P164mm
 667      E7800000 
 668              	.LVL35:
 150:src/syscall_c.cpp **** }
 669              		.loc 1 150 1
 670 02e0 83308100 		ld	ra,8(sp)
 671              		.cfi_restore 1
 672 02e4 03340100 		ld	s0,0(sp)
 673              		.cfi_restore 8
 674              		.cfi_def_cfa 2, 16
 675 02e8 13010101 		addi	sp,sp,16
 676              		.cfi_def_cfa_offset 0
 677 02ec 67800000 		jr	ra
 678              		.cfi_endproc
 679              	.LFE24:
 681              	.Letext0:
 682              		.file 2 "src/../h/../lib/hw.h"
GAS LISTING /tmp/ccBXekVI.s 			page 16


 683              		.file 3 "src/../h/syscall_c.hpp"
 684              		.file 4 "src/../lib/console.h"
GAS LISTING /tmp/ccBXekVI.s 			page 17


DEFINED SYMBOLS
                            *ABS*:0000000000000000 syscall_c.cpp
     /tmp/ccBXekVI.s:8      .text:0000000000000000 _ZL15helperRet64P164mm
     /tmp/ccBXekVI.s:12     .text:0000000000000000 .L0 
     /tmp/ccBXekVI.s:14     .text:0000000000000000 .L0 
     /tmp/ccBXekVI.s:15     .text:0000000000000004 .L0 
     /tmp/ccBXekVI.s:17     .text:0000000000000008 .L0 
     /tmp/ccBXekVI.s:19     .text:000000000000000c .L0 
     /tmp/ccBXekVI.s:21     .text:000000000000000c .L0 
   src/syscall_c.cpp:62     .text:000000000000000c .L0 
     /tmp/ccBXekVI.s:27     .text:0000000000000010 .L0 
   src/syscall_c.cpp:63     .text:0000000000000010 .L0 
     /tmp/ccBXekVI.s:32     .text:0000000000000014 .L0 
   src/syscall_c.cpp:65     .text:0000000000000014 .L0 
     /tmp/ccBXekVI.s:37     .text:0000000000000018 .L0 
   src/syscall_c.cpp:67     .text:0000000000000018 .L0 
     /tmp/ccBXekVI.s:42     .text:000000000000001c .L0 
     /tmp/ccBXekVI.s:43     .text:000000000000001c .L0 
   src/syscall_c.cpp:70     .text:000000000000001c .L0 
     /tmp/ccBXekVI.s:49     .text:0000000000000020 .L0 
     /tmp/ccBXekVI.s:51     .text:0000000000000020 .L0 
     /tmp/ccBXekVI.s:52     .text:0000000000000024 .L0 
     /tmp/ccBXekVI.s:53     .text:0000000000000024 .L0 
     /tmp/ccBXekVI.s:55     .text:0000000000000028 .L0 
     /tmp/ccBXekVI.s:57     .text:000000000000002c .L0 
     /tmp/ccBXekVI.s:62     .text:000000000000002c _ZL11helperRet32m
     /tmp/ccBXekVI.s:65     .text:000000000000002c .L0 
     /tmp/ccBXekVI.s:67     .text:000000000000002c .L0 
     /tmp/ccBXekVI.s:68     .text:0000000000000030 .L0 
     /tmp/ccBXekVI.s:70     .text:0000000000000034 .L0 
     /tmp/ccBXekVI.s:72     .text:0000000000000038 .L0 
     /tmp/ccBXekVI.s:74     .text:0000000000000038 .L0 
   src/syscall_c.cpp:77     .text:0000000000000038 .L0 
     /tmp/ccBXekVI.s:80     .text:000000000000003c .L0 
   src/syscall_c.cpp:79     .text:000000000000003c .L0 
     /tmp/ccBXekVI.s:85     .text:0000000000000040 .L0 
     /tmp/ccBXekVI.s:86     .text:0000000000000040 .L0 
   src/syscall_c.cpp:82     .text:0000000000000040 .L0 
     /tmp/ccBXekVI.s:92     .text:0000000000000044 .L0 
     /tmp/ccBXekVI.s:94     .text:0000000000000044 .L0 
     /tmp/ccBXekVI.s:96     .text:000000000000004c .L0 
     /tmp/ccBXekVI.s:97     .text:000000000000004c .L0 
     /tmp/ccBXekVI.s:99     .text:0000000000000050 .L0 
     /tmp/ccBXekVI.s:101    .text:0000000000000054 .L0 
     /tmp/ccBXekVI.s:106    .text:0000000000000054 _ZL6helperm
     /tmp/ccBXekVI.s:109    .text:0000000000000054 .L0 
     /tmp/ccBXekVI.s:111    .text:0000000000000054 .L0 
     /tmp/ccBXekVI.s:112    .text:0000000000000058 .L0 
     /tmp/ccBXekVI.s:114    .text:000000000000005c .L0 
     /tmp/ccBXekVI.s:116    .text:0000000000000060 .L0 
     /tmp/ccBXekVI.s:118    .text:0000000000000060 .L0 
   src/syscall_c.cpp:89     .text:0000000000000060 .L0 
     /tmp/ccBXekVI.s:124    .text:0000000000000064 .L0 
   src/syscall_c.cpp:90     .text:0000000000000064 .L0 
     /tmp/ccBXekVI.s:129    .text:0000000000000068 .L0 
   src/syscall_c.cpp:92     .text:0000000000000068 .L0 
     /tmp/ccBXekVI.s:135    .text:000000000000006c .L0 
GAS LISTING /tmp/ccBXekVI.s 			page 18


     /tmp/ccBXekVI.s:136    .text:0000000000000070 .L0 
     /tmp/ccBXekVI.s:137    .text:0000000000000070 .L0 
     /tmp/ccBXekVI.s:139    .text:0000000000000074 .L0 
     /tmp/ccBXekVI.s:141    .text:0000000000000078 .L0 
     /tmp/ccBXekVI.s:147    .text:0000000000000078 _Z15helperRet32P164mm
     /tmp/ccBXekVI.s:150    .text:0000000000000078 .L0 
     /tmp/ccBXekVI.s:152    .text:0000000000000078 .L0 
     /tmp/ccBXekVI.s:153    .text:000000000000007c .L0 
     /tmp/ccBXekVI.s:155    .text:0000000000000080 .L0 
     /tmp/ccBXekVI.s:157    .text:0000000000000084 .L0 
     /tmp/ccBXekVI.s:159    .text:0000000000000084 .L0 
   src/syscall_c.cpp:11     .text:0000000000000084 .L0 
     /tmp/ccBXekVI.s:165    .text:0000000000000088 .L0 
   src/syscall_c.cpp:12     .text:0000000000000088 .L0 
     /tmp/ccBXekVI.s:170    .text:000000000000008c .L0 
   src/syscall_c.cpp:14     .text:000000000000008c .L0 
     /tmp/ccBXekVI.s:175    .text:0000000000000090 .L0 
     /tmp/ccBXekVI.s:176    .text:0000000000000090 .L0 
   src/syscall_c.cpp:17     .text:0000000000000090 .L0 
     /tmp/ccBXekVI.s:182    .text:0000000000000094 .L0 
     /tmp/ccBXekVI.s:184    .text:0000000000000094 .L0 
     /tmp/ccBXekVI.s:186    .text:000000000000009c .L0 
     /tmp/ccBXekVI.s:187    .text:000000000000009c .L0 
     /tmp/ccBXekVI.s:189    .text:00000000000000a0 .L0 
     /tmp/ccBXekVI.s:191    .text:00000000000000a4 .L0 
     /tmp/ccBXekVI.s:197    .text:00000000000000a4 _Z10helperRet8m
     /tmp/ccBXekVI.s:200    .text:00000000000000a4 .L0 
     /tmp/ccBXekVI.s:202    .text:00000000000000a4 .L0 
     /tmp/ccBXekVI.s:203    .text:00000000000000a8 .L0 
     /tmp/ccBXekVI.s:205    .text:00000000000000ac .L0 
     /tmp/ccBXekVI.s:207    .text:00000000000000b0 .L0 
     /tmp/ccBXekVI.s:209    .text:00000000000000b0 .L0 
   src/syscall_c.cpp:25     .text:00000000000000b0 .L0 
     /tmp/ccBXekVI.s:215    .text:00000000000000b4 .L0 
   src/syscall_c.cpp:27     .text:00000000000000b4 .L0 
     /tmp/ccBXekVI.s:220    .text:00000000000000b8 .L0 
     /tmp/ccBXekVI.s:221    .text:00000000000000b8 .L0 
   src/syscall_c.cpp:30     .text:00000000000000b8 .L0 
     /tmp/ccBXekVI.s:227    .text:00000000000000bc .L0 
     /tmp/ccBXekVI.s:229    .text:00000000000000bc .L0 
     /tmp/ccBXekVI.s:231    .text:00000000000000c4 .L0 
     /tmp/ccBXekVI.s:232    .text:00000000000000c4 .L0 
     /tmp/ccBXekVI.s:234    .text:00000000000000c8 .L0 
     /tmp/ccBXekVI.s:236    .text:00000000000000cc .L0 
     /tmp/ccBXekVI.s:242    .text:00000000000000cc _Z10helperP164mm
     /tmp/ccBXekVI.s:245    .text:00000000000000cc .L0 
     /tmp/ccBXekVI.s:247    .text:00000000000000cc .L0 
     /tmp/ccBXekVI.s:248    .text:00000000000000d0 .L0 
     /tmp/ccBXekVI.s:250    .text:00000000000000d4 .L0 
     /tmp/ccBXekVI.s:252    .text:00000000000000d8 .L0 
     /tmp/ccBXekVI.s:254    .text:00000000000000d8 .L0 
   src/syscall_c.cpp:37     .text:00000000000000d8 .L0 
     /tmp/ccBXekVI.s:260    .text:00000000000000dc .L0 
   src/syscall_c.cpp:38     .text:00000000000000dc .L0 
     /tmp/ccBXekVI.s:265    .text:00000000000000e0 .L0 
   src/syscall_c.cpp:40     .text:00000000000000e0 .L0 
     /tmp/ccBXekVI.s:271    .text:00000000000000e4 .L0 
GAS LISTING /tmp/ccBXekVI.s 			page 19


     /tmp/ccBXekVI.s:272    .text:00000000000000e8 .L0 
     /tmp/ccBXekVI.s:273    .text:00000000000000e8 .L0 
     /tmp/ccBXekVI.s:275    .text:00000000000000ec .L0 
     /tmp/ccBXekVI.s:277    .text:00000000000000f0 .L0 
     /tmp/ccBXekVI.s:283    .text:00000000000000f0 _Z23helperRet32P164P264P364mmmm
     /tmp/ccBXekVI.s:286    .text:00000000000000f0 .L0 
     /tmp/ccBXekVI.s:288    .text:00000000000000f0 .L0 
     /tmp/ccBXekVI.s:289    .text:00000000000000f4 .L0 
     /tmp/ccBXekVI.s:291    .text:00000000000000f8 .L0 
     /tmp/ccBXekVI.s:293    .text:00000000000000fc .L0 
     /tmp/ccBXekVI.s:295    .text:00000000000000fc .L0 
   src/syscall_c.cpp:45     .text:00000000000000fc .L0 
     /tmp/ccBXekVI.s:301    .text:0000000000000100 .L0 
   src/syscall_c.cpp:46     .text:0000000000000100 .L0 
     /tmp/ccBXekVI.s:306    .text:0000000000000104 .L0 
   src/syscall_c.cpp:47     .text:0000000000000104 .L0 
     /tmp/ccBXekVI.s:311    .text:0000000000000108 .L0 
   src/syscall_c.cpp:48     .text:0000000000000108 .L0 
     /tmp/ccBXekVI.s:316    .text:000000000000010c .L0 
   src/syscall_c.cpp:50     .text:000000000000010c .L0 
     /tmp/ccBXekVI.s:321    .text:0000000000000110 .L0 
   src/syscall_c.cpp:52     .text:0000000000000110 .L0 
     /tmp/ccBXekVI.s:326    .text:0000000000000114 .L0 
     /tmp/ccBXekVI.s:327    .text:0000000000000114 .L0 
   src/syscall_c.cpp:55     .text:0000000000000114 .L0 
     /tmp/ccBXekVI.s:333    .text:0000000000000118 .L0 
     /tmp/ccBXekVI.s:335    .text:0000000000000118 .L0 
     /tmp/ccBXekVI.s:337    .text:0000000000000120 .L0 
     /tmp/ccBXekVI.s:338    .text:0000000000000120 .L0 
     /tmp/ccBXekVI.s:340    .text:0000000000000124 .L0 
     /tmp/ccBXekVI.s:342    .text:0000000000000128 .L0 
     /tmp/ccBXekVI.s:348    .text:0000000000000128 _Z9mem_allocm
     /tmp/ccBXekVI.s:351    .text:0000000000000128 .L0 
     /tmp/ccBXekVI.s:353    .text:0000000000000128 .L0 
     /tmp/ccBXekVI.s:354    .text:000000000000012c .L0 
     /tmp/ccBXekVI.s:357    .text:0000000000000134 .L0 
     /tmp/ccBXekVI.s:358    .text:0000000000000134 .L0 
     /tmp/ccBXekVI.s:360    .text:0000000000000138 .L0 
     /tmp/ccBXekVI.s:363    .text:000000000000013c .L0 
     /tmp/ccBXekVI.s:364    .text:000000000000013c .L0 
     /tmp/ccBXekVI.s:369    .text:0000000000000148 .L0 
     /tmp/ccBXekVI.s:370    .text:000000000000014c .L0 
     /tmp/ccBXekVI.s:372    .text:0000000000000150 .L0 
     /tmp/ccBXekVI.s:373    .text:0000000000000150 .L0 
     /tmp/ccBXekVI.s:375    .text:0000000000000154 .L0 
     /tmp/ccBXekVI.s:377    .text:0000000000000158 .L0 
     /tmp/ccBXekVI.s:383    .text:0000000000000158 _Z8mem_freePv
     /tmp/ccBXekVI.s:386    .text:0000000000000158 .L0 
     /tmp/ccBXekVI.s:388    .text:0000000000000158 .L0 
     /tmp/ccBXekVI.s:389    .text:000000000000015c .L0 
     /tmp/ccBXekVI.s:392    .text:0000000000000164 .L0 
     /tmp/ccBXekVI.s:393    .text:0000000000000164 .L0 
     /tmp/ccBXekVI.s:395    .text:0000000000000168 .L0 
     /tmp/ccBXekVI.s:398    .text:000000000000016c .L0 
     /tmp/ccBXekVI.s:399    .text:000000000000016c .L0 
     /tmp/ccBXekVI.s:404    .text:0000000000000178 .L0 
     /tmp/ccBXekVI.s:406    .text:0000000000000180 .L0 
GAS LISTING /tmp/ccBXekVI.s 			page 20


     /tmp/ccBXekVI.s:408    .text:0000000000000184 .L0 
     /tmp/ccBXekVI.s:409    .text:0000000000000184 .L0 
     /tmp/ccBXekVI.s:411    .text:0000000000000188 .L0 
     /tmp/ccBXekVI.s:413    .text:000000000000018c .L0 
     /tmp/ccBXekVI.s:419    .text:000000000000018c _Z15thread_dispatchv
     /tmp/ccBXekVI.s:422    .text:000000000000018c .L0 
     /tmp/ccBXekVI.s:423    .text:000000000000018c .L0 
     /tmp/ccBXekVI.s:424    .text:0000000000000190 .L0 
     /tmp/ccBXekVI.s:427    .text:0000000000000198 .L0 
     /tmp/ccBXekVI.s:428    .text:0000000000000198 .L0 
     /tmp/ccBXekVI.s:430    .text:000000000000019c .L0 
     /tmp/ccBXekVI.s:432    .text:000000000000019c .L0 
     /tmp/ccBXekVI.s:433    .text:000000000000019c .L0 
     /tmp/ccBXekVI.s:437    .text:00000000000001a8 .L0 
     /tmp/ccBXekVI.s:438    .text:00000000000001ac .L0 
     /tmp/ccBXekVI.s:440    .text:00000000000001b0 .L0 
     /tmp/ccBXekVI.s:441    .text:00000000000001b0 .L0 
     /tmp/ccBXekVI.s:443    .text:00000000000001b4 .L0 
     /tmp/ccBXekVI.s:445    .text:00000000000001b8 .L0 
     /tmp/ccBXekVI.s:451    .text:00000000000001b8 _Z11thread_exitv
     /tmp/ccBXekVI.s:454    .text:00000000000001b8 .L0 
     /tmp/ccBXekVI.s:455    .text:00000000000001b8 .L0 
     /tmp/ccBXekVI.s:456    .text:00000000000001bc .L0 
     /tmp/ccBXekVI.s:459    .text:00000000000001c4 .L0 
     /tmp/ccBXekVI.s:460    .text:00000000000001c4 .L0 
     /tmp/ccBXekVI.s:462    .text:00000000000001c8 .L0 
     /tmp/ccBXekVI.s:464    .text:00000000000001c8 .L0 
     /tmp/ccBXekVI.s:465    .text:00000000000001c8 .L0 
     /tmp/ccBXekVI.s:469    .text:00000000000001d4 .L0 
     /tmp/ccBXekVI.s:470    .text:00000000000001d8 .L0 
     /tmp/ccBXekVI.s:472    .text:00000000000001dc .L0 
     /tmp/ccBXekVI.s:473    .text:00000000000001dc .L0 
     /tmp/ccBXekVI.s:475    .text:00000000000001e0 .L0 
     /tmp/ccBXekVI.s:477    .text:00000000000001e4 .L0 
     /tmp/ccBXekVI.s:483    .text:00000000000001e4 _Z13thread_createPmPFvPvES0_
     /tmp/ccBXekVI.s:486    .text:00000000000001e4 .L0 
     /tmp/ccBXekVI.s:488    .text:00000000000001e4 .L0 
     /tmp/ccBXekVI.s:489    .text:00000000000001e8 .L0 
     /tmp/ccBXekVI.s:492    .text:00000000000001f0 .L0 
     /tmp/ccBXekVI.s:493    .text:00000000000001f0 .L0 
     /tmp/ccBXekVI.s:495    .text:00000000000001f4 .L0 
     /tmp/ccBXekVI.s:498    .text:00000000000001f8 .L0 
     /tmp/ccBXekVI.s:499    .text:00000000000001f8 .L0 
     /tmp/ccBXekVI.s:508    .text:000000000000020c .L0 
     /tmp/ccBXekVI.s:509    .text:0000000000000210 .L0 
     /tmp/ccBXekVI.s:511    .text:0000000000000214 .L0 
     /tmp/ccBXekVI.s:512    .text:0000000000000214 .L0 
     /tmp/ccBXekVI.s:514    .text:0000000000000218 .L0 
     /tmp/ccBXekVI.s:516    .text:000000000000021c .L0 
     /tmp/ccBXekVI.s:522    .text:000000000000021c _Z11thread_joinm
     /tmp/ccBXekVI.s:525    .text:000000000000021c .L0 
     /tmp/ccBXekVI.s:527    .text:000000000000021c .L0 
     /tmp/ccBXekVI.s:528    .text:0000000000000220 .L0 
     /tmp/ccBXekVI.s:531    .text:0000000000000228 .L0 
     /tmp/ccBXekVI.s:532    .text:0000000000000228 .L0 
     /tmp/ccBXekVI.s:534    .text:000000000000022c .L0 
     /tmp/ccBXekVI.s:537    .text:0000000000000230 .L0 
GAS LISTING /tmp/ccBXekVI.s 			page 21


     /tmp/ccBXekVI.s:538    .text:0000000000000230 .L0 
     /tmp/ccBXekVI.s:543    .text:000000000000023c .L0 
     /tmp/ccBXekVI.s:544    .text:0000000000000240 .L0 
     /tmp/ccBXekVI.s:546    .text:0000000000000244 .L0 
     /tmp/ccBXekVI.s:547    .text:0000000000000244 .L0 
     /tmp/ccBXekVI.s:549    .text:0000000000000248 .L0 
     /tmp/ccBXekVI.s:551    .text:000000000000024c .L0 
     /tmp/ccBXekVI.s:557    .text:000000000000024c _Z10time_sleepm
     /tmp/ccBXekVI.s:560    .text:000000000000024c .L0 
     /tmp/ccBXekVI.s:562    .text:000000000000024c .L0 
     /tmp/ccBXekVI.s:563    .text:0000000000000250 .L0 
     /tmp/ccBXekVI.s:566    .text:0000000000000258 .L0 
     /tmp/ccBXekVI.s:567    .text:0000000000000258 .L0 
     /tmp/ccBXekVI.s:569    .text:000000000000025c .L0 
     /tmp/ccBXekVI.s:572    .text:0000000000000260 .L0 
     /tmp/ccBXekVI.s:573    .text:0000000000000260 .L0 
     /tmp/ccBXekVI.s:578    .text:000000000000026c .L0 
     /tmp/ccBXekVI.s:579    .text:0000000000000270 .L0 
     /tmp/ccBXekVI.s:581    .text:0000000000000274 .L0 
     /tmp/ccBXekVI.s:582    .text:0000000000000274 .L0 
     /tmp/ccBXekVI.s:584    .text:0000000000000278 .L0 
     /tmp/ccBXekVI.s:586    .text:000000000000027c .L0 
     /tmp/ccBXekVI.s:592    .text:000000000000027c _Z4getcv
     /tmp/ccBXekVI.s:595    .text:000000000000027c .L0 
     /tmp/ccBXekVI.s:596    .text:000000000000027c .L0 
     /tmp/ccBXekVI.s:597    .text:0000000000000280 .L0 
     /tmp/ccBXekVI.s:599    .text:0000000000000284 .L0 
     /tmp/ccBXekVI.s:601    .text:0000000000000288 .L0 
     /tmp/ccBXekVI.s:603    .text:0000000000000288 .L0 
     /tmp/ccBXekVI.s:604    .text:0000000000000288 .L0 
     /tmp/ccBXekVI.s:606    .text:0000000000000290 .L0 
     /tmp/ccBXekVI.s:607    .text:0000000000000290 .L0 
     /tmp/ccBXekVI.s:609    .text:0000000000000294 .L0 
     /tmp/ccBXekVI.s:611    .text:0000000000000298 .L0 
     /tmp/ccBXekVI.s:617    .text:0000000000000298 _Z4putcc
     /tmp/ccBXekVI.s:620    .text:0000000000000298 .L0 
     /tmp/ccBXekVI.s:622    .text:0000000000000298 .L0 
     /tmp/ccBXekVI.s:623    .text:000000000000029c .L0 
     /tmp/ccBXekVI.s:626    .text:00000000000002a4 .L0 
     /tmp/ccBXekVI.s:627    .text:00000000000002a4 .L0 
     /tmp/ccBXekVI.s:629    .text:00000000000002a8 .L0 
     /tmp/ccBXekVI.s:631    .text:00000000000002a8 .L0 
     /tmp/ccBXekVI.s:632    .text:00000000000002a8 .L0 
     /tmp/ccBXekVI.s:635    .text:00000000000002b0 .L0 
     /tmp/ccBXekVI.s:636    .text:00000000000002b4 .L0 
     /tmp/ccBXekVI.s:638    .text:00000000000002b8 .L0 
     /tmp/ccBXekVI.s:639    .text:00000000000002b8 .L0 
     /tmp/ccBXekVI.s:641    .text:00000000000002bc .L0 
     /tmp/ccBXekVI.s:643    .text:00000000000002c0 .L0 
     /tmp/ccBXekVI.s:649    .text:00000000000002c0 _Z9test_callm
     /tmp/ccBXekVI.s:652    .text:00000000000002c0 .L0 
     /tmp/ccBXekVI.s:654    .text:00000000000002c0 .L0 
     /tmp/ccBXekVI.s:655    .text:00000000000002c4 .L0 
     /tmp/ccBXekVI.s:658    .text:00000000000002cc .L0 
     /tmp/ccBXekVI.s:659    .text:00000000000002cc .L0 
     /tmp/ccBXekVI.s:661    .text:00000000000002d0 .L0 
     /tmp/ccBXekVI.s:664    .text:00000000000002d4 .L0 
GAS LISTING /tmp/ccBXekVI.s 			page 22


     /tmp/ccBXekVI.s:665    .text:00000000000002d4 .L0 
     /tmp/ccBXekVI.s:670    .text:00000000000002e0 .L0 
     /tmp/ccBXekVI.s:671    .text:00000000000002e4 .L0 
     /tmp/ccBXekVI.s:673    .text:00000000000002e8 .L0 
     /tmp/ccBXekVI.s:674    .text:00000000000002e8 .L0 
     /tmp/ccBXekVI.s:676    .text:00000000000002ec .L0 
     /tmp/ccBXekVI.s:678    .text:00000000000002f0 .L0 
     /tmp/ccBXekVI.s:685    .text:00000000000002f0 .L0 
     /tmp/ccBXekVI.s:1398   .debug_abbrev:0000000000000000 .Ldebug_abbrev0
     /tmp/ccBXekVI.s:2183   .debug_str:00000000000002c8 .LASF57
     /tmp/ccBXekVI.s:2127   .debug_str:000000000000014e .LASF58
     /tmp/ccBXekVI.s:2161   .debug_str:0000000000000235 .LASF59
     /tmp/ccBXekVI.s:5      .text:0000000000000000 .Ltext0
     /tmp/ccBXekVI.s:681    .text:00000000000002f0 .Letext0
     /tmp/ccBXekVI.s:2071   .debug_line:0000000000000000 .Ldebug_line0
     /tmp/ccBXekVI.s:2139   .debug_str:000000000000019e .LASF0
     /tmp/ccBXekVI.s:2149   .debug_str:00000000000001dc .LASF1
     /tmp/ccBXekVI.s:2133   .debug_str:0000000000000178 .LASF2
     /tmp/ccBXekVI.s:2125   .debug_str:0000000000000147 .LASF4
     /tmp/ccBXekVI.s:2175   .debug_str:00000000000002a0 .LASF3
     /tmp/ccBXekVI.s:2089   .debug_str:000000000000006b .LASF5
     /tmp/ccBXekVI.s:2111   .debug_str:0000000000000101 .LASF6
     /tmp/ccBXekVI.s:2153   .debug_str:0000000000000200 .LASF7
     /tmp/ccBXekVI.s:2137   .debug_str:000000000000018b .LASF8
     /tmp/ccBXekVI.s:2187   .debug_str:000000000000039b .LASF9
     /tmp/ccBXekVI.s:2121   .debug_str:000000000000012d .LASF10
     /tmp/ccBXekVI.s:2159   .debug_str:0000000000000226 .LASF11
     /tmp/ccBXekVI.s:2185   .debug_str:000000000000038c .LASF12
     /tmp/ccBXekVI.s:2091   .debug_str:0000000000000072 .LASF13
     /tmp/ccBXekVI.s:2077   .debug_str:0000000000000021 .LASF14
     /tmp/ccBXekVI.s:2093   .debug_str:0000000000000082 .LASF15
     /tmp/ccBXekVI.s:2171   .debug_str:000000000000027f .LASF16
     /tmp/ccBXekVI.s:2105   .debug_str:00000000000000cd .LASF17
     /tmp/ccBXekVI.s:2073   .debug_str:0000000000000000 .LASF18
     /tmp/ccBXekVI.s:2155   .debug_str:0000000000000213 .LASF19
     /tmp/ccBXekVI.s:2115   .debug_str:0000000000000111 .LASF20
     /tmp/ccBXekVI.s:2147   .debug_str:00000000000001d2 .LASF21
     /tmp/ccBXekVI.s:2167   .debug_str:000000000000026a .LASF23
     /tmp/ccBXekVI.s:650    .text:00000000000002c0 .LFB24
     /tmp/ccBXekVI.s:679    .text:00000000000002f0 .LFE24
     /tmp/ccBXekVI.s:1830   .debug_loc:0000000000000000 .LLST13
     /tmp/ccBXekVI.s:668    .text:00000000000002e0 .LVL35
     /tmp/ccBXekVI.s:2135   .debug_str:0000000000000186 .LASF26
     /tmp/ccBXekVI.s:2117   .debug_str:0000000000000116 .LASF28
     /tmp/ccBXekVI.s:618    .text:0000000000000298 .LFB23
     /tmp/ccBXekVI.s:644    .text:00000000000002c0 .LFE23
     /tmp/ccBXekVI.s:1848   .debug_loc:000000000000004c .LLST12
     /tmp/ccBXekVI.s:633    .text:00000000000002b0 .LVL32
     /tmp/ccBXekVI.s:2079   .debug_str:0000000000000031 .LASF60
     /tmp/ccBXekVI.s:2087   .debug_str:0000000000000062 .LASF61
     /tmp/ccBXekVI.s:593    .text:000000000000027c .LFB22
     /tmp/ccBXekVI.s:612    .text:0000000000000298 .LFE22
     /tmp/ccBXekVI.s:2173   .debug_str:0000000000000295 .LASF22
     /tmp/ccBXekVI.s:2165   .debug_str:000000000000025a .LASF24
     /tmp/ccBXekVI.s:558    .text:000000000000024c .LFB21
     /tmp/ccBXekVI.s:587    .text:000000000000027c .LFE21
     /tmp/ccBXekVI.s:2143   .debug_str:00000000000001b0 .LASF25
GAS LISTING /tmp/ccBXekVI.s 			page 23


     /tmp/ccBXekVI.s:1862   .debug_loc:0000000000000085 .LLST11
     /tmp/ccBXekVI.s:576    .text:000000000000026c .LVL30
     /tmp/ccBXekVI.s:2123   .debug_str:000000000000013b .LASF27
     /tmp/ccBXekVI.s:2129   .debug_str:0000000000000160 .LASF29
     /tmp/ccBXekVI.s:523    .text:000000000000021c .LFB20
     /tmp/ccBXekVI.s:552    .text:000000000000024c .LFE20
     /tmp/ccBXekVI.s:2179   .debug_str:00000000000002bc .LASF30
     /tmp/ccBXekVI.s:1880   .debug_loc:00000000000000d1 .LLST10
     /tmp/ccBXekVI.s:541    .text:000000000000023c .LVL27
     /tmp/ccBXekVI.s:2107   .debug_str:00000000000000e3 .LASF31
     /tmp/ccBXekVI.s:2145   .debug_str:00000000000001b5 .LASF32
     /tmp/ccBXekVI.s:484    .text:00000000000001e4 .LFB19
     /tmp/ccBXekVI.s:517    .text:000000000000021c .LFE19
     /tmp/ccBXekVI.s:1898   .debug_loc:000000000000011d .LLST7
     /tmp/ccBXekVI.s:2119   .debug_str:000000000000011f .LASF33
     /tmp/ccBXekVI.s:1916   .debug_loc:0000000000000169 .LLST8
     /tmp/ccBXekVI.s:1934   .debug_loc:00000000000001b5 .LLST9
     /tmp/ccBXekVI.s:506    .text:000000000000020c .LVL24
     /tmp/ccBXekVI.s:2083   .debug_str:0000000000000041 .LASF34
     /tmp/ccBXekVI.s:2151   .debug_str:00000000000001ef .LASF35
     /tmp/ccBXekVI.s:452    .text:00000000000001b8 .LFB18
     /tmp/ccBXekVI.s:478    .text:00000000000001e4 .LFE18
     /tmp/ccBXekVI.s:467    .text:00000000000001d4 .LVL19
     /tmp/ccBXekVI.s:2095   .debug_str:000000000000008e .LASF36
     /tmp/ccBXekVI.s:2085   .debug_str:000000000000004d .LASF37
     /tmp/ccBXekVI.s:420    .text:000000000000018c .LFB17
     /tmp/ccBXekVI.s:446    .text:00000000000001b8 .LFE17
     /tmp/ccBXekVI.s:435    .text:00000000000001a8 .LVL18
     /tmp/ccBXekVI.s:2113   .debug_str:0000000000000108 .LASF38
     /tmp/ccBXekVI.s:2157   .debug_str:0000000000000218 .LASF39
     /tmp/ccBXekVI.s:384    .text:0000000000000158 .LFB16
     /tmp/ccBXekVI.s:414    .text:000000000000018c .LFE16
     /tmp/ccBXekVI.s:1952   .debug_loc:0000000000000201 .LLST6
     /tmp/ccBXekVI.s:402    .text:0000000000000178 .LVL17
     /tmp/ccBXekVI.s:2177   .debug_str:00000000000002b2 .LASF40
     /tmp/ccBXekVI.s:2103   .debug_str:00000000000000bf .LASF41
     /tmp/ccBXekVI.s:349    .text:0000000000000128 .LFB15
     /tmp/ccBXekVI.s:378    .text:0000000000000158 .LFE15
     /tmp/ccBXekVI.s:2181   .debug_str:00000000000002c3 .LASF42
     /tmp/ccBXekVI.s:1970   .debug_loc:000000000000024d .LLST5
     /tmp/ccBXekVI.s:367    .text:0000000000000148 .LVL14
     /tmp/ccBXekVI.s:2131   .debug_str:0000000000000171 .LASF62
     /tmp/ccBXekVI.s:107    .text:0000000000000054 .LFB14
     /tmp/ccBXekVI.s:142    .text:0000000000000078 .LFE14
     /tmp/ccBXekVI.s:2141   .debug_str:00000000000001ab .LASF43
     /tmp/ccBXekVI.s:2189   .debug_str:00000000000003ab .LASF44
     /tmp/ccBXekVI.s:63     .text:000000000000002c .LFB13
     /tmp/ccBXekVI.s:102    .text:0000000000000054 .LFE13
     /tmp/ccBXekVI.s:1988   .debug_loc:0000000000000299 .LLST1
     /tmp/ccBXekVI.s:2191   .debug_str:00000000000003b7 .LASF45
     /tmp/ccBXekVI.s:9      .text:0000000000000000 .LFB12
     /tmp/ccBXekVI.s:58     .text:000000000000002c .LFE12
     /tmp/ccBXekVI.s:2002   .debug_loc:00000000000002d2 .LLST0
     /tmp/ccBXekVI.s:2097   .debug_str:000000000000009e .LASF46
     /tmp/ccBXekVI.s:2075   .debug_str:0000000000000009 .LASF47
     /tmp/ccBXekVI.s:2199   .debug_str:00000000000003f8 .LASF48
     /tmp/ccBXekVI.s:284    .text:00000000000000f0 .LFB11
GAS LISTING /tmp/ccBXekVI.s 			page 24


     /tmp/ccBXekVI.s:343    .text:0000000000000128 .LFE11
     /tmp/ccBXekVI.s:2016   .debug_loc:000000000000030b .LLST4
     /tmp/ccBXekVI.s:2099   .debug_str:00000000000000a9 .LASF49
     /tmp/ccBXekVI.s:2101   .debug_str:00000000000000b4 .LASF50
     /tmp/ccBXekVI.s:2197   .debug_str:00000000000003ed .LASF51
     /tmp/ccBXekVI.s:2163   .debug_str:0000000000000249 .LASF52
     /tmp/ccBXekVI.s:243    .text:00000000000000cc .LFB10
     /tmp/ccBXekVI.s:278    .text:00000000000000f0 .LFE10
     /tmp/ccBXekVI.s:2081   .debug_str:0000000000000036 .LASF53
     /tmp/ccBXekVI.s:2195   .debug_str:00000000000003dd .LASF54
     /tmp/ccBXekVI.s:198    .text:00000000000000a4 .LFB9
     /tmp/ccBXekVI.s:237    .text:00000000000000cc .LFE9
     /tmp/ccBXekVI.s:2030   .debug_loc:0000000000000344 .LLST3
     /tmp/ccBXekVI.s:2109   .debug_str:00000000000000f1 .LASF55
     /tmp/ccBXekVI.s:2193   .debug_str:00000000000003c7 .LASF56
     /tmp/ccBXekVI.s:148    .text:0000000000000078 .LFB8
     /tmp/ccBXekVI.s:192    .text:00000000000000a4 .LFE8
     /tmp/ccBXekVI.s:2044   .debug_loc:000000000000037d .LLST2
     /tmp/ccBXekVI.s:2169   .debug_str:0000000000000278 .LASF63
     /tmp/ccBXekVI.s:653    .text:00000000000002c0 .LVL33
     /tmp/ccBXekVI.s:666    .text:00000000000002d8 .LVL34
     /tmp/ccBXekVI.s:621    .text:0000000000000298 .LVL31
     /tmp/ccBXekVI.s:561    .text:000000000000024c .LVL28
     /tmp/ccBXekVI.s:574    .text:0000000000000264 .LVL29
     /tmp/ccBXekVI.s:526    .text:000000000000021c .LVL25
     /tmp/ccBXekVI.s:539    .text:0000000000000234 .LVL26
     /tmp/ccBXekVI.s:487    .text:00000000000001e4 .LVL20
     /tmp/ccBXekVI.s:504    .text:0000000000000204 .LVL23
     /tmp/ccBXekVI.s:502    .text:0000000000000200 .LVL22
     /tmp/ccBXekVI.s:500    .text:00000000000001fc .LVL21
     /tmp/ccBXekVI.s:387    .text:0000000000000158 .LVL15
     /tmp/ccBXekVI.s:400    .text:0000000000000170 .LVL16
     /tmp/ccBXekVI.s:352    .text:0000000000000128 .LVL12
     /tmp/ccBXekVI.s:365    .text:0000000000000140 .LVL13
     /tmp/ccBXekVI.s:66     .text:000000000000002c .LVL2
     /tmp/ccBXekVI.s:90     .text:0000000000000044 .LVL3
     /tmp/ccBXekVI.s:13     .text:0000000000000000 .LVL0
     /tmp/ccBXekVI.s:47     .text:0000000000000020 .LVL1
     /tmp/ccBXekVI.s:287    .text:00000000000000f0 .LVL10
     /tmp/ccBXekVI.s:331    .text:0000000000000118 .LVL11
     /tmp/ccBXekVI.s:201    .text:00000000000000a4 .LVL7
     /tmp/ccBXekVI.s:225    .text:00000000000000bc .LVL8
     /tmp/ccBXekVI.s:151    .text:0000000000000078 .LVL5
     /tmp/ccBXekVI.s:180    .text:0000000000000094 .LVL6
     /tmp/ccBXekVI.s:686    .debug_info:0000000000000000 .Ldebug_info0

UNDEFINED SYMBOLS
__putc
