GAS LISTING /tmp/ccjuwjZz.s 			page 1


   1              		.file	"syscall_c.cpp"
   2              		.option pic
   3              		.option norelax
   4              		.text
   5              	.Ltext0:
   6              		.align	2
   8              	_ZL15helperRet64P164mm:
   9              	.LFB11:
  10              		.file 1 "src/syscall_c.cpp"
   1:src/syscall_c.cpp **** #include "../h/syscall_c.hpp"
   2:src/syscall_c.cpp **** #include "../h/my_console.h"
   3:src/syscall_c.cpp **** #include "../h/thread.h"
   4:src/syscall_c.cpp **** #include "../h/0_console.h"
   5:src/syscall_c.cpp **** #include "../lib/console.h"
   6:src/syscall_c.cpp **** 
   7:src/syscall_c.cpp **** uint64 fib(uint64);
   8:src/syscall_c.cpp **** 
   9:src/syscall_c.cpp **** char helperRet8(uint64 code)
  10:src/syscall_c.cpp **** {
  11:src/syscall_c.cpp **** 
  12:src/syscall_c.cpp ****     __asm__ volatile ("mv a0, %[name]" : : [name] "r" (code)); // WARNING: this instruction must be
  13:src/syscall_c.cpp **** 
  14:src/syscall_c.cpp ****     __asm__ volatile ("ecall");
  15:src/syscall_c.cpp **** 
  16:src/syscall_c.cpp ****     uint64 ret;
  17:src/syscall_c.cpp ****     __asm__ volatile ("mv %[name], a0" : [name] "=r"(ret));
  18:src/syscall_c.cpp **** 
  19:src/syscall_c.cpp ****     return *((char*)&ret);
  20:src/syscall_c.cpp **** }
  21:src/syscall_c.cpp **** 
  22:src/syscall_c.cpp **** void helperP164(uint64 code, uint64 parameter1)
  23:src/syscall_c.cpp **** {
  24:src/syscall_c.cpp ****     __asm__ volatile ("mv a1, %[name]" : : [name] "r" (parameter1));
  25:src/syscall_c.cpp ****     __asm__ volatile ("mv a0, %[name]" : : [name] "r" (code)); // WARNING: this instruction must be
  26:src/syscall_c.cpp **** 
  27:src/syscall_c.cpp ****     __asm__ volatile ("ecall");
  28:src/syscall_c.cpp **** }
  29:src/syscall_c.cpp **** 
  30:src/syscall_c.cpp **** int helperRet32P164P264P364(uint64 code, uint64 parameter1, uint64 parameter2, uint64 parameter3)
  31:src/syscall_c.cpp **** {
  32:src/syscall_c.cpp ****     __asm__ volatile ("mv a3, %[name]" : : [name] "r" (parameter3));
  33:src/syscall_c.cpp ****     __asm__ volatile ("mv a2, %[name]" : : [name] "r" (parameter2));
  34:src/syscall_c.cpp ****     __asm__ volatile ("mv a1, %[name]" : : [name] "r" (parameter1));
  35:src/syscall_c.cpp ****     __asm__ volatile ("mv a0, %[name]" : : [name] "r" (code)); // WARNING: this instruction must be
  36:src/syscall_c.cpp **** 
  37:src/syscall_c.cpp ****     __asm__ volatile ("ecall");
  38:src/syscall_c.cpp **** 
  39:src/syscall_c.cpp ****     __asm__ volatile("mv x10, x10"); // temp
  40:src/syscall_c.cpp **** 
  41:src/syscall_c.cpp ****     uint64 ret;
  42:src/syscall_c.cpp ****     __asm__ volatile ("mv %[name], a0" : [name] "=r"(ret));
  43:src/syscall_c.cpp **** 
  44:src/syscall_c.cpp ****     return *((int*)&ret);
  45:src/syscall_c.cpp **** }
  46:src/syscall_c.cpp **** 
  47:src/syscall_c.cpp **** static uint64 helperRet64P164(uint64 code, uint64 parameter1) // returns 64bit and takes a 64bit pa
  48:src/syscall_c.cpp **** {
GAS LISTING /tmp/ccjuwjZz.s 			page 2


  11              		.loc 1 48 1
  12              		.cfi_startproc
  13              	.LVL0:
  14 0000 130101FF 		addi	sp,sp,-16
  15              		.cfi_def_cfa_offset 16
  16 0004 23348100 		sd	s0,8(sp)
  17              		.cfi_offset 8, -8
  18 0008 13040101 		addi	s0,sp,16
  19              		.cfi_def_cfa 8, 0
  49:src/syscall_c.cpp ****     __asm__ volatile ("mv a1, %[name]" : : [name] "r" (parameter1));
  20              		.loc 1 49 5
  21              		.loc 1 49 68 is_stmt 0
  22              	#APP
  23              	# 49 "src/syscall_c.cpp" 1
  50              	    __asm__ volatile ("mv a0, %[name]" : : [name] "r" (code)); // WARNING: this instruction must be
  24              		mv a1, a1
  25              	# 0 "" 2
  26              		.loc 1 50 5 is_stmt 1
  27              		.loc 1 50 62 is_stmt 0
  28              	# 50 "src/syscall_c.cpp" 1
  51              	
  52:src/syscall_c.cpp ****     __asm__ volatile ("ecall");
  29              		mv a0, a0
  30              	# 0 "" 2
  31              		.loc 1 52 5 is_stmt 1
  32              		.loc 1 52 31 is_stmt 0
  33              	# 52 "src/syscall_c.cpp" 1
  53              	
  54:src/syscall_c.cpp ****     __asm__ volatile ("mv x10, x10");
  34              		ecall
  35              	# 0 "" 2
  36              		.loc 1 54 5 is_stmt 1
  37              		.loc 1 54 37 is_stmt 0
  38              	# 54 "src/syscall_c.cpp" 1
  55              	
  56:src/syscall_c.cpp ****     uint64 ret;
  39              		mv x10, x10
  40              	# 0 "" 2
  41              		.loc 1 56 5 is_stmt 1
  57:src/syscall_c.cpp ****     __asm__ volatile ("mv %[name], a0" : [name] "=r"(ret));
  42              		.loc 1 57 5
  43              		.loc 1 57 59 is_stmt 0
  44              	# 57 "src/syscall_c.cpp" 1
  58              	
  45              		mv a0, a0
  46              	# 0 "" 2
  47              	.LVL1:
  59:src/syscall_c.cpp ****     return ret;
  48              		.loc 1 59 5 is_stmt 1
  60:src/syscall_c.cpp **** }
  49              		.loc 1 60 1 is_stmt 0
  50              	#NO_APP
  51 0020 03348100 		ld	s0,8(sp)
  52              		.cfi_restore 8
  53              		.cfi_def_cfa 2, 16
  54 0024 13010101 		addi	sp,sp,16
  55              		.cfi_def_cfa_offset 0
GAS LISTING /tmp/ccjuwjZz.s 			page 3


  56 0028 67800000 		jr	ra
  57              		.cfi_endproc
  58              	.LFE11:
  60              		.align	2
  62              	_ZL11helperRet32m:
  63              	.LFB12:
  61:src/syscall_c.cpp **** 
  62:src/syscall_c.cpp **** static int helperRet32(uint64 code) // returns 64bit and takes no params
  63:src/syscall_c.cpp **** {
  64              		.loc 1 63 1 is_stmt 1
  65              		.cfi_startproc
  66              	.LVL2:
  67 002c 130101FF 		addi	sp,sp,-16
  68              		.cfi_def_cfa_offset 16
  69 0030 23348100 		sd	s0,8(sp)
  70              		.cfi_offset 8, -8
  71 0034 13040101 		addi	s0,sp,16
  72              		.cfi_def_cfa 8, 0
  64:src/syscall_c.cpp ****     __asm__ volatile ("mv a0, %[name]" : : [name] "r" (code));
  73              		.loc 1 64 5
  74              		.loc 1 64 62 is_stmt 0
  75              	#APP
  76              	# 64 "src/syscall_c.cpp" 1
  65              	
  66:src/syscall_c.cpp ****     __asm__ volatile ("ecall");
  77              		mv a0, a0
  78              	# 0 "" 2
  79              		.loc 1 66 5 is_stmt 1
  80              		.loc 1 66 31 is_stmt 0
  81              	# 66 "src/syscall_c.cpp" 1
  67              	
  68:src/syscall_c.cpp ****     uint64 ret;
  82              		ecall
  83              	# 0 "" 2
  84              		.loc 1 68 5 is_stmt 1
  69:src/syscall_c.cpp ****     __asm__ volatile ("mv %[name], a0" : [name] "=r"(ret));
  85              		.loc 1 69 5
  86              		.loc 1 69 59 is_stmt 0
  87              	# 69 "src/syscall_c.cpp" 1
  70              	
  88              		mv a0, a0
  89              	# 0 "" 2
  90              	.LVL3:
  71:src/syscall_c.cpp ****     return *((int*)&ret);
  91              		.loc 1 71 5 is_stmt 1
  72:src/syscall_c.cpp **** }
  92              		.loc 1 72 1 is_stmt 0
  93              	#NO_APP
  94 0044 1B050500 		sext.w	a0,a0
  95 0048 03348100 		ld	s0,8(sp)
  96              		.cfi_restore 8
  97              		.cfi_def_cfa 2, 16
  98 004c 13010101 		addi	sp,sp,16
  99              		.cfi_def_cfa_offset 0
 100 0050 67800000 		jr	ra
 101              		.cfi_endproc
 102              	.LFE12:
GAS LISTING /tmp/ccjuwjZz.s 			page 4


 104              		.align	2
 106              	_ZL6helperm:
 107              	.LFB13:
  73:src/syscall_c.cpp **** 
  74:src/syscall_c.cpp **** static void helper(uint64 code) // returns nothing and takes no parameters (eg thread_dispatch)
  75:src/syscall_c.cpp **** {
 108              		.loc 1 75 1 is_stmt 1
 109              		.cfi_startproc
 110              	.LVL4:
 111 0054 130101FF 		addi	sp,sp,-16
 112              		.cfi_def_cfa_offset 16
 113 0058 23348100 		sd	s0,8(sp)
 114              		.cfi_offset 8, -8
 115 005c 13040101 		addi	s0,sp,16
 116              		.cfi_def_cfa 8, 0
  76:src/syscall_c.cpp ****     __asm__ volatile ("mv a0, %[name]" : : [name] "r" (code));
 117              		.loc 1 76 5
 118              		.loc 1 76 62 is_stmt 0
 119              	#APP
 120              	# 76 "src/syscall_c.cpp" 1
  77              	    __asm__ volatile ("ecall");
 121              		mv a0, a0
 122              	# 0 "" 2
 123              		.loc 1 77 5 is_stmt 1
 124              		.loc 1 77 31 is_stmt 0
 125              	# 77 "src/syscall_c.cpp" 1
  78              	
  79:src/syscall_c.cpp ****     __asm__ volatile ("mv x10, x10");
 126              		ecall
 127              	# 0 "" 2
 128              		.loc 1 79 5 is_stmt 1
 129              		.loc 1 79 37 is_stmt 0
 130              	# 79 "src/syscall_c.cpp" 1
  80              	}
 131              		mv x10, x10
 132              	# 0 "" 2
 133              		.loc 1 80 1
 134              	#NO_APP
 135 006c 03348100 		ld	s0,8(sp)
 136              		.cfi_restore 8
 137              		.cfi_def_cfa 2, 16
 138 0070 13010101 		addi	sp,sp,16
 139              		.cfi_def_cfa_offset 0
 140 0074 67800000 		jr	ra
 141              		.cfi_endproc
 142              	.LFE13:
 144              		.align	2
 145              		.globl	_Z10helperRet8m
 147              	_Z10helperRet8m:
 148              	.LFB8:
  10:src/syscall_c.cpp **** 
 149              		.loc 1 10 1 is_stmt 1
 150              		.cfi_startproc
 151              	.LVL5:
 152 0078 130101FF 		addi	sp,sp,-16
 153              		.cfi_def_cfa_offset 16
 154 007c 23348100 		sd	s0,8(sp)
GAS LISTING /tmp/ccjuwjZz.s 			page 5


 155              		.cfi_offset 8, -8
 156 0080 13040101 		addi	s0,sp,16
 157              		.cfi_def_cfa 8, 0
  12:src/syscall_c.cpp **** 
 158              		.loc 1 12 5
  12:src/syscall_c.cpp **** 
 159              		.loc 1 12 62 is_stmt 0
 160              	#APP
 161              	# 12 "src/syscall_c.cpp" 1
  14:src/syscall_c.cpp **** 
 162              		mv a0, a0
 163              	# 0 "" 2
 164              		.loc 1 14 5 is_stmt 1
  14:src/syscall_c.cpp **** 
 165              		.loc 1 14 31 is_stmt 0
 166              	# 14 "src/syscall_c.cpp" 1
  16:src/syscall_c.cpp ****     __asm__ volatile ("mv %[name], a0" : [name] "=r"(ret));
 167              		ecall
 168              	# 0 "" 2
 169              		.loc 1 16 5 is_stmt 1
  17:src/syscall_c.cpp **** 
 170              		.loc 1 17 5
  17:src/syscall_c.cpp **** 
 171              		.loc 1 17 59 is_stmt 0
 172              	# 17 "src/syscall_c.cpp" 1
 173              		mv a0, a0
 174              	# 0 "" 2
 175              	.LVL6:
  19:src/syscall_c.cpp **** }
 176              		.loc 1 19 5 is_stmt 1
  20:src/syscall_c.cpp **** 
 177              		.loc 1 20 1 is_stmt 0
 178              	#NO_APP
 179 0090 1375F50F 		andi	a0,a0,0xff
 180 0094 03348100 		ld	s0,8(sp)
 181              		.cfi_restore 8
 182              		.cfi_def_cfa 2, 16
 183 0098 13010101 		addi	sp,sp,16
 184              		.cfi_def_cfa_offset 0
 185 009c 67800000 		jr	ra
 186              		.cfi_endproc
 187              	.LFE8:
 189              		.align	2
 190              		.globl	_Z10helperP164mm
 192              	_Z10helperP164mm:
 193              	.LFB9:
  23:src/syscall_c.cpp ****     __asm__ volatile ("mv a1, %[name]" : : [name] "r" (parameter1));
 194              		.loc 1 23 1 is_stmt 1
 195              		.cfi_startproc
 196              	.LVL7:
 197 00a0 130101FF 		addi	sp,sp,-16
 198              		.cfi_def_cfa_offset 16
 199 00a4 23348100 		sd	s0,8(sp)
 200              		.cfi_offset 8, -8
 201 00a8 13040101 		addi	s0,sp,16
 202              		.cfi_def_cfa 8, 0
  24:src/syscall_c.cpp ****     __asm__ volatile ("mv a0, %[name]" : : [name] "r" (code)); // WARNING: this instruction must be
GAS LISTING /tmp/ccjuwjZz.s 			page 6


 203              		.loc 1 24 5
  24:src/syscall_c.cpp ****     __asm__ volatile ("mv a0, %[name]" : : [name] "r" (code)); // WARNING: this instruction must be
 204              		.loc 1 24 68 is_stmt 0
 205              	#APP
 206              	# 24 "src/syscall_c.cpp" 1
  25:src/syscall_c.cpp **** 
 207              		mv a1, a1
 208              	# 0 "" 2
 209              		.loc 1 25 5 is_stmt 1
  25:src/syscall_c.cpp **** 
 210              		.loc 1 25 62 is_stmt 0
 211              	# 25 "src/syscall_c.cpp" 1
  27:src/syscall_c.cpp **** }
 212              		mv a0, a0
 213              	# 0 "" 2
 214              		.loc 1 27 5 is_stmt 1
  27:src/syscall_c.cpp **** }
 215              		.loc 1 27 31 is_stmt 0
 216              	# 27 "src/syscall_c.cpp" 1
  28:src/syscall_c.cpp **** 
 217              		ecall
 218              	# 0 "" 2
 219              		.loc 1 28 1
 220              	#NO_APP
 221 00b8 03348100 		ld	s0,8(sp)
 222              		.cfi_restore 8
 223              		.cfi_def_cfa 2, 16
 224 00bc 13010101 		addi	sp,sp,16
 225              		.cfi_def_cfa_offset 0
 226 00c0 67800000 		jr	ra
 227              		.cfi_endproc
 228              	.LFE9:
 230              		.align	2
 231              		.globl	_Z23helperRet32P164P264P364mmmm
 233              	_Z23helperRet32P164P264P364mmmm:
 234              	.LFB10:
  31:src/syscall_c.cpp ****     __asm__ volatile ("mv a3, %[name]" : : [name] "r" (parameter3));
 235              		.loc 1 31 1 is_stmt 1
 236              		.cfi_startproc
 237              	.LVL8:
 238 00c4 130101FF 		addi	sp,sp,-16
 239              		.cfi_def_cfa_offset 16
 240 00c8 23348100 		sd	s0,8(sp)
 241              		.cfi_offset 8, -8
 242 00cc 13040101 		addi	s0,sp,16
 243              		.cfi_def_cfa 8, 0
  32:src/syscall_c.cpp ****     __asm__ volatile ("mv a2, %[name]" : : [name] "r" (parameter2));
 244              		.loc 1 32 5
  32:src/syscall_c.cpp ****     __asm__ volatile ("mv a2, %[name]" : : [name] "r" (parameter2));
 245              		.loc 1 32 68 is_stmt 0
 246              	#APP
 247              	# 32 "src/syscall_c.cpp" 1
  33:src/syscall_c.cpp ****     __asm__ volatile ("mv a1, %[name]" : : [name] "r" (parameter1));
 248              		mv a3, a3
 249              	# 0 "" 2
 250              		.loc 1 33 5 is_stmt 1
  33:src/syscall_c.cpp ****     __asm__ volatile ("mv a1, %[name]" : : [name] "r" (parameter1));
GAS LISTING /tmp/ccjuwjZz.s 			page 7


 251              		.loc 1 33 68 is_stmt 0
 252              	# 33 "src/syscall_c.cpp" 1
  34:src/syscall_c.cpp ****     __asm__ volatile ("mv a0, %[name]" : : [name] "r" (code)); // WARNING: this instruction must be
 253              		mv a2, a2
 254              	# 0 "" 2
 255              		.loc 1 34 5 is_stmt 1
  34:src/syscall_c.cpp ****     __asm__ volatile ("mv a0, %[name]" : : [name] "r" (code)); // WARNING: this instruction must be
 256              		.loc 1 34 68 is_stmt 0
 257              	# 34 "src/syscall_c.cpp" 1
  35:src/syscall_c.cpp **** 
 258              		mv a1, a1
 259              	# 0 "" 2
 260              		.loc 1 35 5 is_stmt 1
  35:src/syscall_c.cpp **** 
 261              		.loc 1 35 62 is_stmt 0
 262              	# 35 "src/syscall_c.cpp" 1
  37:src/syscall_c.cpp **** 
 263              		mv a0, a0
 264              	# 0 "" 2
 265              		.loc 1 37 5 is_stmt 1
  37:src/syscall_c.cpp **** 
 266              		.loc 1 37 31 is_stmt 0
 267              	# 37 "src/syscall_c.cpp" 1
  39:src/syscall_c.cpp **** 
 268              		ecall
 269              	# 0 "" 2
 270              		.loc 1 39 5 is_stmt 1
  39:src/syscall_c.cpp **** 
 271              		.loc 1 39 36 is_stmt 0
 272              	# 39 "src/syscall_c.cpp" 1
  41:src/syscall_c.cpp ****     __asm__ volatile ("mv %[name], a0" : [name] "=r"(ret));
 273              		mv x10, x10
 274              	# 0 "" 2
 275              		.loc 1 41 5 is_stmt 1
  42:src/syscall_c.cpp **** 
 276              		.loc 1 42 5
  42:src/syscall_c.cpp **** 
 277              		.loc 1 42 59 is_stmt 0
 278              	# 42 "src/syscall_c.cpp" 1
 279              		mv a0, a0
 280              	# 0 "" 2
 281              	.LVL9:
  44:src/syscall_c.cpp **** }
 282              		.loc 1 44 5 is_stmt 1
  45:src/syscall_c.cpp **** 
 283              		.loc 1 45 1 is_stmt 0
 284              	#NO_APP
 285 00ec 1B050500 		sext.w	a0,a0
 286 00f0 03348100 		ld	s0,8(sp)
 287              		.cfi_restore 8
 288              		.cfi_def_cfa 2, 16
 289 00f4 13010101 		addi	sp,sp,16
 290              		.cfi_def_cfa_offset 0
 291 00f8 67800000 		jr	ra
 292              		.cfi_endproc
 293              	.LFE10:
 295              		.align	2
GAS LISTING /tmp/ccjuwjZz.s 			page 8


 296              		.globl	_Z9mem_allocm
 298              	_Z9mem_allocm:
 299              	.LFB14:
  81:src/syscall_c.cpp **** 
  82:src/syscall_c.cpp **** void* mem_alloc(size_t size)
  83:src/syscall_c.cpp **** {
 300              		.loc 1 83 1 is_stmt 1
 301              		.cfi_startproc
 302              	.LVL10:
 303 00fc 130101FF 		addi	sp,sp,-16
 304              		.cfi_def_cfa_offset 16
 305 0100 23341100 		sd	ra,8(sp)
 306 0104 23308100 		sd	s0,0(sp)
 307              		.cfi_offset 1, -8
 308              		.cfi_offset 8, -16
 309 0108 13040101 		addi	s0,sp,16
 310              		.cfi_def_cfa 8, 0
 311 010c 93050500 		mv	a1,a0
  84:src/syscall_c.cpp ****     return (void*) helperRet64P164(1, size);
 312              		.loc 1 84 5
 313              		.loc 1 84 35 is_stmt 0
 314 0110 13051000 		li	a0,1
 315              	.LVL11:
 316 0114 97000000 		call	_ZL15helperRet64P164mm
 316      E7800000 
 317              	.LVL12:
  85:src/syscall_c.cpp **** }
 318              		.loc 1 85 1
 319 011c 83308100 		ld	ra,8(sp)
 320              		.cfi_restore 1
 321 0120 03340100 		ld	s0,0(sp)
 322              		.cfi_restore 8
 323              		.cfi_def_cfa 2, 16
 324 0124 13010101 		addi	sp,sp,16
 325              		.cfi_def_cfa_offset 0
 326 0128 67800000 		jr	ra
 327              		.cfi_endproc
 328              	.LFE14:
 330              		.align	2
 331              		.globl	_Z8mem_freePv
 333              	_Z8mem_freePv:
 334              	.LFB15:
  86:src/syscall_c.cpp **** 
  87:src/syscall_c.cpp **** int mem_free(void* ptr)
  88:src/syscall_c.cpp **** {
 335              		.loc 1 88 1 is_stmt 1
 336              		.cfi_startproc
 337              	.LVL13:
 338 012c 130101FF 		addi	sp,sp,-16
 339              		.cfi_def_cfa_offset 16
 340 0130 23341100 		sd	ra,8(sp)
 341 0134 23308100 		sd	s0,0(sp)
 342              		.cfi_offset 1, -8
 343              		.cfi_offset 8, -16
 344 0138 13040101 		addi	s0,sp,16
 345              		.cfi_def_cfa 8, 0
 346 013c 93050500 		mv	a1,a0
GAS LISTING /tmp/ccjuwjZz.s 			page 9


  89:src/syscall_c.cpp ****     return helperRet64P164(2, (uint64) ptr);
 347              		.loc 1 89 5
 348              		.loc 1 89 27 is_stmt 0
 349 0140 13052000 		li	a0,2
 350              	.LVL14:
 351 0144 97000000 		call	_ZL15helperRet64P164mm
 351      E7800000 
 352              	.LVL15:
  90:src/syscall_c.cpp **** }
 353              		.loc 1 90 1
 354 014c 1B050500 		sext.w	a0,a0
 355 0150 83308100 		ld	ra,8(sp)
 356              		.cfi_restore 1
 357 0154 03340100 		ld	s0,0(sp)
 358              		.cfi_restore 8
 359              		.cfi_def_cfa 2, 16
 360 0158 13010101 		addi	sp,sp,16
 361              		.cfi_def_cfa_offset 0
 362 015c 67800000 		jr	ra
 363              		.cfi_endproc
 364              	.LFE15:
 366              		.align	2
 367              		.globl	_Z15thread_dispatchv
 369              	_Z15thread_dispatchv:
 370              	.LFB16:
  91:src/syscall_c.cpp **** 
  92:src/syscall_c.cpp **** void thread_dispatch() // WARNING: different than Scheduler::dispatchToNext()
  93:src/syscall_c.cpp **** {
 371              		.loc 1 93 1 is_stmt 1
 372              		.cfi_startproc
 373 0160 130101FF 		addi	sp,sp,-16
 374              		.cfi_def_cfa_offset 16
 375 0164 23341100 		sd	ra,8(sp)
 376 0168 23308100 		sd	s0,0(sp)
 377              		.cfi_offset 1, -8
 378              		.cfi_offset 8, -16
 379 016c 13040101 		addi	s0,sp,16
 380              		.cfi_def_cfa 8, 0
  94:src/syscall_c.cpp ****     helper(0x13);
 381              		.loc 1 94 5
 382              		.loc 1 94 11 is_stmt 0
 383 0170 13053001 		li	a0,19
 384 0174 97000000 		call	_ZL6helperm
 384      E7800000 
 385              	.LVL16:
  95:src/syscall_c.cpp **** }
 386              		.loc 1 95 1
 387 017c 83308100 		ld	ra,8(sp)
 388              		.cfi_restore 1
 389 0180 03340100 		ld	s0,0(sp)
 390              		.cfi_restore 8
 391              		.cfi_def_cfa 2, 16
 392 0184 13010101 		addi	sp,sp,16
 393              		.cfi_def_cfa_offset 0
 394 0188 67800000 		jr	ra
 395              		.cfi_endproc
 396              	.LFE16:
GAS LISTING /tmp/ccjuwjZz.s 			page 10


 398              		.align	2
 399              		.globl	_Z11thread_exitv
 401              	_Z11thread_exitv:
 402              	.LFB17:
  96:src/syscall_c.cpp **** 
  97:src/syscall_c.cpp **** int thread_exit()
  98:src/syscall_c.cpp **** {
 403              		.loc 1 98 1 is_stmt 1
 404              		.cfi_startproc
 405 018c 130101FF 		addi	sp,sp,-16
 406              		.cfi_def_cfa_offset 16
 407 0190 23341100 		sd	ra,8(sp)
 408 0194 23308100 		sd	s0,0(sp)
 409              		.cfi_offset 1, -8
 410              		.cfi_offset 8, -16
 411 0198 13040101 		addi	s0,sp,16
 412              		.cfi_def_cfa 8, 0
  99:src/syscall_c.cpp ****     return helperRet32(0x12);
 413              		.loc 1 99 5
 414              		.loc 1 99 23 is_stmt 0
 415 019c 13052001 		li	a0,18
 416 01a0 97000000 		call	_ZL11helperRet32m
 416      E7800000 
 417              	.LVL17:
 100:src/syscall_c.cpp **** }
 418              		.loc 1 100 1
 419 01a8 83308100 		ld	ra,8(sp)
 420              		.cfi_restore 1
 421 01ac 03340100 		ld	s0,0(sp)
 422              		.cfi_restore 8
 423              		.cfi_def_cfa 2, 16
 424 01b0 13010101 		addi	sp,sp,16
 425              		.cfi_def_cfa_offset 0
 426 01b4 67800000 		jr	ra
 427              		.cfi_endproc
 428              	.LFE17:
 430              		.align	2
 431              		.globl	_Z13thread_createPmPFvPvES0_
 433              	_Z13thread_createPmPFvPvES0_:
 434              	.LFB18:
 101:src/syscall_c.cpp **** 
 102:src/syscall_c.cpp **** int thread_create(thread_t* handle, void(*start_routine)(void*), void*arg)
 103:src/syscall_c.cpp **** {
 435              		.loc 1 103 1 is_stmt 1
 436              		.cfi_startproc
 437              	.LVL18:
 438 01b8 130101FF 		addi	sp,sp,-16
 439              		.cfi_def_cfa_offset 16
 440 01bc 23341100 		sd	ra,8(sp)
 441 01c0 23308100 		sd	s0,0(sp)
 442              		.cfi_offset 1, -8
 443              		.cfi_offset 8, -16
 444 01c4 13040101 		addi	s0,sp,16
 445              		.cfi_def_cfa 8, 0
 446 01c8 93060600 		mv	a3,a2
 104:src/syscall_c.cpp ****     return helperRet32P164P264P364(0x11, (uint64)handle, (uint64)start_routine, *((uint64*)&arg));
 447              		.loc 1 104 5
GAS LISTING /tmp/ccjuwjZz.s 			page 11


 448              		.loc 1 104 35 is_stmt 0
 449 01cc 13860500 		mv	a2,a1
 450              	.LVL19:
 451 01d0 93050500 		mv	a1,a0
 452              	.LVL20:
 453 01d4 13051001 		li	a0,17
 454              	.LVL21:
 455 01d8 97000000 		call	_Z23helperRet32P164P264P364mmmm
 455      E7800000 
 456              	.LVL22:
 105:src/syscall_c.cpp **** }
 457              		.loc 1 105 1
 458 01e0 83308100 		ld	ra,8(sp)
 459              		.cfi_restore 1
 460 01e4 03340100 		ld	s0,0(sp)
 461              		.cfi_restore 8
 462              		.cfi_def_cfa 2, 16
 463 01e8 13010101 		addi	sp,sp,16
 464              		.cfi_def_cfa_offset 0
 465 01ec 67800000 		jr	ra
 466              		.cfi_endproc
 467              	.LFE18:
 469              		.align	2
 470              		.globl	_Z11thread_joinm
 472              	_Z11thread_joinm:
 473              	.LFB19:
 106:src/syscall_c.cpp **** 
 107:src/syscall_c.cpp **** void thread_join(thread_t handle)
 108:src/syscall_c.cpp **** {
 474              		.loc 1 108 1 is_stmt 1
 475              		.cfi_startproc
 476              	.LVL23:
 477 01f0 130101FF 		addi	sp,sp,-16
 478              		.cfi_def_cfa_offset 16
 479 01f4 23341100 		sd	ra,8(sp)
 480 01f8 23308100 		sd	s0,0(sp)
 481              		.cfi_offset 1, -8
 482              		.cfi_offset 8, -16
 483 01fc 13040101 		addi	s0,sp,16
 484              		.cfi_def_cfa 8, 0
 485 0200 93050500 		mv	a1,a0
 109:src/syscall_c.cpp ****     helperP164(0x14, handle);
 486              		.loc 1 109 5
 487              		.loc 1 109 15 is_stmt 0
 488 0204 13054001 		li	a0,20
 489              	.LVL24:
 490 0208 97000000 		call	_Z10helperP164mm
 490      E7800000 
 491              	.LVL25:
 110:src/syscall_c.cpp **** }
 492              		.loc 1 110 1
 493 0210 83308100 		ld	ra,8(sp)
 494              		.cfi_restore 1
 495 0214 03340100 		ld	s0,0(sp)
 496              		.cfi_restore 8
 497              		.cfi_def_cfa 2, 16
 498 0218 13010101 		addi	sp,sp,16
GAS LISTING /tmp/ccjuwjZz.s 			page 12


 499              		.cfi_def_cfa_offset 0
 500 021c 67800000 		jr	ra
 501              		.cfi_endproc
 502              	.LFE19:
 504              		.align	2
 505              		.globl	_Z9test_callm
 507              	_Z9test_callm:
 508              	.LFB20:
 111:src/syscall_c.cpp **** 
 112:src/syscall_c.cpp **** uint64 test_call(uint64 n)
 113:src/syscall_c.cpp **** {
 509              		.loc 1 113 1 is_stmt 1
 510              		.cfi_startproc
 511              	.LVL26:
 512 0220 130101FF 		addi	sp,sp,-16
 513              		.cfi_def_cfa_offset 16
 514 0224 23341100 		sd	ra,8(sp)
 515 0228 23308100 		sd	s0,0(sp)
 516              		.cfi_offset 1, -8
 517              		.cfi_offset 8, -16
 518 022c 13040101 		addi	s0,sp,16
 519              		.cfi_def_cfa 8, 0
 520 0230 93050500 		mv	a1,a0
 114:src/syscall_c.cpp ****     return helperRet64P164(3, n);
 521              		.loc 1 114 5
 522              		.loc 1 114 27 is_stmt 0
 523 0234 13053000 		li	a0,3
 524              	.LVL27:
 525 0238 97000000 		call	_ZL15helperRet64P164mm
 525      E7800000 
 526              	.LVL28:
 115:src/syscall_c.cpp **** }
 527              		.loc 1 115 1
 528 0240 83308100 		ld	ra,8(sp)
 529              		.cfi_restore 1
 530 0244 03340100 		ld	s0,0(sp)
 531              		.cfi_restore 8
 532              		.cfi_def_cfa 2, 16
 533 0248 13010101 		addi	sp,sp,16
 534              		.cfi_def_cfa_offset 0
 535 024c 67800000 		jr	ra
 536              		.cfi_endproc
 537              	.LFE20:
 539              		.align	2
 540              		.globl	_Z4getcv
 542              	_Z4getcv:
 543              	.LFB21:
 116:src/syscall_c.cpp **** 
 117:src/syscall_c.cpp **** char getc()
 118:src/syscall_c.cpp **** {
 544              		.loc 1 118 1 is_stmt 1
 545              		.cfi_startproc
 546 0250 130101FF 		addi	sp,sp,-16
 547              		.cfi_def_cfa_offset 16
 548 0254 23348100 		sd	s0,8(sp)
 549              		.cfi_offset 8, -8
 550 0258 13040101 		addi	s0,sp,16
GAS LISTING /tmp/ccjuwjZz.s 			page 13


 551              		.cfi_def_cfa 8, 0
 119:src/syscall_c.cpp **** //    return __getc();
 120:src/syscall_c.cpp ****     return 'a';
 552              		.loc 1 120 5
 121:src/syscall_c.cpp **** }
 553              		.loc 1 121 1 is_stmt 0
 554 025c 13051006 		li	a0,97
 555 0260 03348100 		ld	s0,8(sp)
 556              		.cfi_restore 8
 557              		.cfi_def_cfa 2, 16
 558 0264 13010101 		addi	sp,sp,16
 559              		.cfi_def_cfa_offset 0
 560 0268 67800000 		jr	ra
 561              		.cfi_endproc
 562              	.LFE21:
 564              		.align	2
 565              		.globl	_Z4putcc
 567              	_Z4putcc:
 568              	.LFB22:
 122:src/syscall_c.cpp **** 
 123:src/syscall_c.cpp **** void putc(char c)
 124:src/syscall_c.cpp **** {
 569              		.loc 1 124 1 is_stmt 1
 570              		.cfi_startproc
 571              	.LVL29:
 572 026c 130101FF 		addi	sp,sp,-16
 573              		.cfi_def_cfa_offset 16
 574 0270 23341100 		sd	ra,8(sp)
 575 0274 23308100 		sd	s0,0(sp)
 576              		.cfi_offset 1, -8
 577              		.cfi_offset 8, -16
 578 0278 13040101 		addi	s0,sp,16
 579              		.cfi_def_cfa 8, 0
 580 027c 93050500 		mv	a1,a0
 125:src/syscall_c.cpp **** //    uint64 a;
 126:src/syscall_c.cpp **** //    *((char*)(&a)) = c;
 127:src/syscall_c.cpp **** //
 128:src/syscall_c.cpp **** //    helperP164(0x42, a);
 129:src/syscall_c.cpp **** 
 130:src/syscall_c.cpp **** //    __putc(c);
 131:src/syscall_c.cpp ****     IConsole::get()->putc(c);
 581              		.loc 1 131 5
 582              	.LBB10:
 583              	.LBB11:
 584              		.file 2 "src/../h/0_console.h"
   1:src/../h/0_console.h **** #pragma once
   2:src/../h/0_console.h **** 
   3:src/../h/0_console.h **** #include "../lib/hw.h"
   4:src/../h/0_console.h **** 
   5:src/../h/0_console.h **** #define BUFFER_SIZE 1000
   6:src/../h/0_console.h **** 
   7:src/../h/0_console.h **** class IConsole // singleton class
   8:src/../h/0_console.h **** {
   9:src/../h/0_console.h **** public:
  10:src/../h/0_console.h ****     static IConsole* get()
  11:src/../h/0_console.h ****     {
  12:src/../h/0_console.h ****         static IConsole instance;
GAS LISTING /tmp/ccjuwjZz.s 			page 14


 585              		.loc 2 12 9
 586              		.loc 2 12 25 is_stmt 0
 587 0280 97070000 		lbu	a5,_ZGVZN8IConsole3getEvE8instance
 587      83C70700 
 588 0288 63920702 		bnez	a5,.L30
 589              	.LVL30:
 590              	.LBB12:
 591              	.LBB13:
 592              	.LBB14:
  13:src/../h/0_console.h ****         return &instance;
  14:src/../h/0_console.h ****     }
  15:src/../h/0_console.h **** 
  16:src/../h/0_console.h ****     uint64 putBufferHead, putBufferTail;
  17:src/../h/0_console.h ****     char putBuffer[BUFFER_SIZE];
  18:src/../h/0_console.h ****     uint64 putBufferItems;
  19:src/../h/0_console.h **** 
  20:src/../h/0_console.h ****     char getBuffer[BUFFER_SIZE];
  21:src/../h/0_console.h ****     uint64 getBufferItems;
  22:src/../h/0_console.h ****     uint64 getBufferHead, getBufferTail;
  23:src/../h/0_console.h **** 
  24:src/../h/0_console.h ****     void putc(char c);
  25:src/../h/0_console.h ****     char getc();
  26:src/../h/0_console.h ****     void consoleHandler();
  27:src/../h/0_console.h **** 
  28:src/../h/0_console.h **** private:
  29:src/../h/0_console.h ****     IConsole()
  30:src/../h/0_console.h ****         : putBufferHead(0), putBufferTail(0), putBufferItems(0)
 593              		.loc 2 30 63
 594 028c 97070000 		lla	a5,_ZZN8IConsole3getEvE8instance
 594      93870700 
 595 0294 23B00700 		sd	zero,0(a5)
 596 0298 23B40700 		sd	zero,8(a5)
 597 029c 23BC073E 		sd	zero,1016(a5)
 598              	.LVL31:
 599              	.LBE14:
 600              	.LBE13:
 601              	.LBE12:
  12:src/../h/0_console.h ****         return &instance;
 602              		.loc 2 12 25
 603 02a0 93071000 		li	a5,1
 604 02a4 17070000 		sb	a5,_ZGVZN8IConsole3getEvE8instance,a4
 604      2300F700 
 605              	.L30:
  13:src/../h/0_console.h ****         return &instance;
 606              		.loc 2 13 9 is_stmt 1
 607              	.LBE11:
 608              	.LBE10:
 609              		.loc 1 131 26 is_stmt 0
 610 02ac 17050000 		lla	a0,_ZZN8IConsole3getEvE8instance
 610      13050500 
 611              	.LVL32:
 612 02b4 97000000 		call	_ZN8IConsole4putcEc@plt
 612      E7800000 
 613              	.LVL33:
 132:src/syscall_c.cpp **** }...
 614              		.loc 1 132 1
 615 02bc 83308100 		ld	ra,8(sp)
GAS LISTING /tmp/ccjuwjZz.s 			page 15


 616              		.cfi_restore 1
 617 02c0 03340100 		ld	s0,0(sp)
 618              		.cfi_restore 8
 619              		.cfi_def_cfa 2, 16
 620 02c4 13010101 		addi	sp,sp,16
 621              		.cfi_def_cfa_offset 0
 622 02c8 67800000 		jr	ra
 623              		.cfi_endproc
 624              	.LFE22:
 626              		.weak	_ZGVZN8IConsole3getEvE8instance
 627              		.section	.bss._ZGVZN8IConsole3getEvE8instance,"awG",@nobits,_ZGVZN8IConsole3getEvE8instance,comdat
 628              		.align	3
 631              	_ZGVZN8IConsole3getEvE8instance:
 632 0000 00000000 		.zero	8
 632      00000000 
 633              		.weak	_ZZN8IConsole3getEvE8instance
 634              		.section	.bss._ZZN8IConsole3getEvE8instance,"awG",@nobits,_ZZN8IConsole3getEvE8instance,comdat
 635              		.align	3
 638              	_ZZN8IConsole3getEvE8instance:
 639 0000 00000000 		.zero	2048
 639      00000000 
 639      00000000 
 639      00000000 
 639      00000000 
 640              		.text
 641              	.Letext0:
 642              		.file 3 "src/../h/../lib/hw.h"
 643              		.file 4 "src/../h/syscall_c.hpp"
GAS LISTING /tmp/ccjuwjZz.s 			page 16

