GAS LISTING /tmp/cc0x4OnX.s 			page 1


   1              		.file	"thread.cpp"
   2              		.option pic
   3              		.option norelax
   4              		.text
   5              	.Ltext0:
   6              		.align	2
   7              		.globl	_Z7wrappermPFvPvES_
   9              	_Z7wrappermPFvPvES_:
  10              	.LFB18:
  11              		.file 1 "src/thread.cpp"
   1:src/thread.cpp **** #include "../h/thread.h"
   2:src/thread.cpp **** #include "../h/alloc.h"
   3:src/thread.cpp **** #include "../h/scheduler.h"
   4:src/thread.cpp **** 
   5:src/thread.cpp **** Thread* Thread::pRunning = nullptr;
   6:src/thread.cpp **** uint64* Thread::pRunningContext = nullptr;
   7:src/thread.cpp **** uint64 Thread::timeSliceCounter = 0;
   8:src/thread.cpp **** bool Thread::switchedToUserThread = 0;
   9:src/thread.cpp **** uint64 Thread::nrTotalThreads = 1;
  10:src/thread.cpp **** Thread* Thread::pAllThreads[MAX_NR_TOTAL_THREADS];
  11:src/thread.cpp **** 
  12:src/thread.cpp **** void Thread::setPRunning(Thread* p)
  13:src/thread.cpp **** {
  14:src/thread.cpp ****     pRunning = p;
  15:src/thread.cpp ****     pRunningContext = &(p->context[0]);
  16:src/thread.cpp **** }
  17:src/thread.cpp **** 
  18:src/thread.cpp **** int Thread::createThread(uint64* id, Body body, void* arg)
  19:src/thread.cpp **** {
  20:src/thread.cpp ****     assert(nrTotalThreads < MAX_NR_TOTAL_THREADS);
  21:src/thread.cpp **** 
  22:src/thread.cpp ****     Thread* t = (Thread*)MemAlloc::get()->allocMem(sizeof(Thread));
  23:src/thread.cpp ****     pAllThreads[nrTotalThreads] = t;
  24:src/thread.cpp **** 
  25:src/thread.cpp ****     t->pStackStart = nullptr;
  26:src/thread.cpp ****     void* pLogicalStack = t->allocStack();
  27:src/thread.cpp **** 
  28:src/thread.cpp ****     t->init(body, arg, pLogicalStack);
  29:src/thread.cpp **** 
  30:src/thread.cpp ****     Scheduler::put(t);
  31:src/thread.cpp **** 
  32:src/thread.cpp ****     return 0;
  33:src/thread.cpp **** }
  34:src/thread.cpp **** 
  35:src/thread.cpp **** Thread* Thread::getPRunning()
  36:src/thread.cpp **** {
  37:src/thread.cpp ****     __asm__ volatile("mv x10, x10"); // to avoid inline
  38:src/thread.cpp ****     return pRunning;
  39:src/thread.cpp **** }
  40:src/thread.cpp **** 
  41:src/thread.cpp **** void* Thread::allocStack()
  42:src/thread.cpp **** {
  43:src/thread.cpp ****     assert(pStackStart == nullptr); // error: this threads stack may have already been allocated
  44:src/thread.cpp **** 
  45:src/thread.cpp ****     pStackStart = MemAlloc::get()->allocMem(ACTUAL_STACK_SIZE);
  46:src/thread.cpp ****     uint64 stack =  (uint64)pStackStart + ACTUAL_STACK_SIZE;
  47:src/thread.cpp **** 
GAS LISTING /tmp/cc0x4OnX.s 			page 2


  48:src/thread.cpp ****     if(stack % 16 != 0)
  49:src/thread.cpp ****     {
  50:src/thread.cpp ****         stack -= stack % 16;
  51:src/thread.cpp ****     }
  52:src/thread.cpp **** 
  53:src/thread.cpp ****     stack -= 34*8; // for the initial context (necessary to avoid exceptions from reading from unal
  54:src/thread.cpp **** 
  55:src/thread.cpp ****     return (void*)stack;
  56:src/thread.cpp **** 
  57:src/thread.cpp **** }
  58:src/thread.cpp **** 
  59:src/thread.cpp **** void wrapper(uint64 __DO_NOT_USE, Thread::Body body, void* arg) // this entire function can be run 
  60:src/thread.cpp **** {
  12              		.loc 1 60 1
  13              		.cfi_startproc
  14              	.LVL0:
  15 0000 130101FF 		addi	sp,sp,-16
  16              		.cfi_def_cfa_offset 16
  17 0004 23341100 		sd	ra,8(sp)
  18 0008 23308100 		sd	s0,0(sp)
  19              		.cfi_offset 1, -8
  20              		.cfi_offset 8, -16
  21 000c 13040101 		addi	s0,sp,16
  22              		.cfi_def_cfa 8, 0
  61:src/thread.cpp ****     (*body)(arg);
  23              		.loc 1 61 5
  24              		.loc 1 61 12 is_stmt 0
  25 0010 13050600 		mv	a0,a2
  26              	.LVL1:
  27 0014 E7800500 		jalr	a1
  28              	.LVL2:
  62:src/thread.cpp ****     thread_exit();
  29              		.loc 1 62 5 is_stmt 1
  30              		.loc 1 62 16 is_stmt 0
  31 0018 97000000 		call	_Z11thread_exitv@plt
  31      E7800000 
  32              	.LVL3:
  63:src/thread.cpp **** }
  33              		.loc 1 63 1
  34 0020 83308100 		ld	ra,8(sp)
  35              		.cfi_restore 1
  36 0024 03340100 		ld	s0,0(sp)
  37              		.cfi_restore 8
  38              		.cfi_def_cfa 2, 16
  39 0028 13010101 		addi	sp,sp,16
  40              		.cfi_def_cfa_offset 0
  41 002c 67800000 		jr	ra
  42              		.cfi_endproc
  43              	.LFE18:
  45              		.align	2
  46              		.globl	_ZN6Thread11setPRunningEPS_
  48              	_ZN6Thread11setPRunningEPS_:
  49              	.LFB14:
  13:src/thread.cpp ****     pRunning = p;
  50              		.loc 1 13 1 is_stmt 1
  51              		.cfi_startproc
  52              	.LVL4:
GAS LISTING /tmp/cc0x4OnX.s 			page 3


  53 0030 130101FF 		addi	sp,sp,-16
  54              		.cfi_def_cfa_offset 16
  55 0034 23348100 		sd	s0,8(sp)
  56              		.cfi_offset 8, -8
  57 0038 13040101 		addi	s0,sp,16
  58              		.cfi_def_cfa 8, 0
  14:src/thread.cpp ****     pRunningContext = &(p->context[0]);
  59              		.loc 1 14 5
  14:src/thread.cpp ****     pRunningContext = &(p->context[0]);
  60              		.loc 1 14 14 is_stmt 0
  61 003c 97070000 		lla	a5,.LANCHOR0
  61      93870700 
  62 0044 23B0A700 		sd	a0,0(a5)
  15:src/thread.cpp **** }
  63              		.loc 1 15 5 is_stmt 1
  15:src/thread.cpp **** }
  64              		.loc 1 15 23 is_stmt 0
  65 0048 13050501 		addi	a0,a0,16
  66              	.LVL5:
  15:src/thread.cpp **** }
  67              		.loc 1 15 21
  68 004c 23B4A700 		sd	a0,8(a5)
  16:src/thread.cpp **** 
  69              		.loc 1 16 1
  70 0050 03348100 		ld	s0,8(sp)
  71              		.cfi_restore 8
  72              		.cfi_def_cfa 2, 16
  73 0054 13010101 		addi	sp,sp,16
  74              		.cfi_def_cfa_offset 0
  75 0058 67800000 		jr	ra
  76              		.cfi_endproc
  77              	.LFE14:
  79              		.align	2
  80              		.globl	_ZN6Thread11getPRunningEv
  82              	_ZN6Thread11getPRunningEv:
  83              	.LFB16:
  36:src/thread.cpp ****     __asm__ volatile("mv x10, x10"); // to avoid inline
  84              		.loc 1 36 1 is_stmt 1
  85              		.cfi_startproc
  86 005c 130101FF 		addi	sp,sp,-16
  87              		.cfi_def_cfa_offset 16
  88 0060 23348100 		sd	s0,8(sp)
  89              		.cfi_offset 8, -8
  90 0064 13040101 		addi	s0,sp,16
  91              		.cfi_def_cfa 8, 0
  37:src/thread.cpp ****     return pRunning;
  92              		.loc 1 37 5
  37:src/thread.cpp ****     return pRunning;
  93              		.loc 1 37 36 is_stmt 0
  94              	#APP
  95              	# 37 "src/thread.cpp" 1
  38:src/thread.cpp **** }
  96              		mv x10, x10
  97              	# 0 "" 2
  98              		.loc 1 38 5 is_stmt 1
  39:src/thread.cpp **** 
  99              		.loc 1 39 1 is_stmt 0
GAS LISTING /tmp/cc0x4OnX.s 			page 4


 100              	#NO_APP
 101 006c 17050000 		ld	a0,.LANCHOR0
 101      03350500 
 102 0074 03348100 		ld	s0,8(sp)
 103              		.cfi_restore 8
 104              		.cfi_def_cfa 2, 16
 105 0078 13010101 		addi	sp,sp,16
 106              		.cfi_def_cfa_offset 0
 107 007c 67800000 		jr	ra
 108              		.cfi_endproc
 109              	.LFE16:
 111              		.section	.rodata.str1.8,"aMS",@progbits,1
 112              		.align	3
 113              	.LC0:
 114 0000 3D3D3D3D 		.string	"===================== ASSERT file: "
 114      3D3D3D3D 
 114      3D3D3D3D 
 114      3D3D3D3D 
 114      3D3D3D3D 
 115 0024 00000000 		.align	3
 116              	.LC1:
 117 0028 7372632F 		.string	"src/thread.cpp"
 117      74687265 
 117      61642E63 
 117      707000
 118 0037 00       		.align	3
 119              	.LC2:
 120 0038 20202020 		.string	"    line: "
 120      6C696E65 
 120      3A2000
 121 0043 00000000 		.align	3
 121      00
 122              	.LC3:
 123 0048 2020203D 		.string	"   ==========================="
 123      3D3D3D3D 
 123      3D3D3D3D 
 123      3D3D3D3D 
 123      3D3D3D3D 
 124              		.text
 125              		.align	2
 126              		.globl	_ZN6Thread10allocStackEv
 128              	_ZN6Thread10allocStackEv:
 129              	.LFB17:
  42:src/thread.cpp ****     assert(pStackStart == nullptr); // error: this threads stack may have already been allocated
 130              		.loc 1 42 1 is_stmt 1
 131              		.cfi_startproc
 132              	.LVL6:
 133 0080 130101FE 		addi	sp,sp,-32
 134              		.cfi_def_cfa_offset 32
 135 0084 233C1100 		sd	ra,24(sp)
 136 0088 23388100 		sd	s0,16(sp)
 137 008c 23349100 		sd	s1,8(sp)
 138 0090 23302101 		sd	s2,0(sp)
 139              		.cfi_offset 1, -8
 140              		.cfi_offset 8, -16
 141              		.cfi_offset 9, -24
 142              		.cfi_offset 18, -32
GAS LISTING /tmp/cc0x4OnX.s 			page 5


 143 0094 13040102 		addi	s0,sp,32
 144              		.cfi_def_cfa 8, 0
  43:src/thread.cpp **** 
 145              		.loc 1 43 5
 146 0098 8337851A 		ld	a5,424(a0)
 147              	.LVL7:
 148              	.LBB12:
 149              	.LBB13:
 150              		.file 2 "src/../h/../h/my_console.h"
   1:src/../h/../h/my_console.h **** #pragma once
   2:src/../h/../h/my_console.h **** 
   3:src/../h/../h/my_console.h **** #include "../h/risc.h"
   4:src/../h/../h/my_console.h **** 
   5:src/../h/../h/my_console.h **** #include "../lib/console.h"
   6:src/../h/../h/my_console.h **** #include "../lib/hw.h"
   7:src/../h/../h/my_console.h **** 
   8:src/../h/../h/my_console.h **** #define __DEBUG_MODE
   9:src/../h/../h/my_console.h **** 
  10:src/../h/../h/my_console.h **** 
  11:src/../h/../h/my_console.h **** void putString(const char* s);
  12:src/../h/../h/my_console.h **** void putInt(int n);
  13:src/../h/../h/my_console.h **** void putNewline();
  14:src/../h/../h/my_console.h **** void putU64(uint64 n);
  15:src/../h/../h/my_console.h **** void putBinary(uint64 n);
  16:src/../h/../h/my_console.h **** 
  17:src/../h/../h/my_console.h **** [[noreturn]] void stopKernel();
  18:src/../h/../h/my_console.h **** 
  19:src/../h/../h/my_console.h **** inline void _assert(bool valid, const char* file, int line) // MUST be inline
  20:src/../h/../h/my_console.h **** {
  21:src/../h/../h/my_console.h ****     if(valid)
 151              		.loc 2 21 5
 152 009c 639A0704 		bnez	a5,.L11
 153 00a0 13090500 		mv	s2,a0
  22:src/../h/../h/my_console.h ****         return;
 154              		.loc 2 22 9
 155              	.LVL8:
 156              	.LBE13:
 157              	.LBE12:
  45:src/thread.cpp ****     uint64 stack =  (uint64)pStackStart + ACTUAL_STACK_SIZE;
 158              		.loc 1 45 5
  45:src/thread.cpp ****     uint64 stack =  (uint64)pStackStart + ACTUAL_STACK_SIZE;
 159              		.loc 1 45 44 is_stmt 0
 160 00a4 97000000 		call	_ZN8MemAlloc3getEv@plt
 160      E7800000 
 161              	.LVL9:
 162 00ac B7B40000 		li	s1,45056
 163 00b0 938504AA 		addi	a1,s1,-1376
 164 00b4 97000000 		call	_ZN8MemAlloc8allocMemEm@plt
 164      E7800000 
 165              	.LVL10:
  45:src/thread.cpp ****     uint64 stack =  (uint64)pStackStart + ACTUAL_STACK_SIZE;
 166              		.loc 1 45 17
 167 00bc 2334A91A 		sd	a0,424(s2)
  46:src/thread.cpp **** 
 168              		.loc 1 46 5 is_stmt 1
  46:src/thread.cpp **** 
 169              		.loc 1 46 12 is_stmt 0
GAS LISTING /tmp/cc0x4OnX.s 			page 6


 170 00c0 938404AA 		addi	s1,s1,-1376
 171 00c4 B3049500 		add	s1,a0,s1
 172              	.LVL11:
  48:src/thread.cpp ****     {
 173              		.loc 1 48 5 is_stmt 1
  48:src/thread.cpp ****     {
 174              		.loc 1 48 14 is_stmt 0
 175 00c8 1375F500 		andi	a0,a0,15
  48:src/thread.cpp ****     {
 176              		.loc 1 48 5
 177 00cc 63040500 		beqz	a0,.L9
  50:src/thread.cpp ****     }
 178              		.loc 1 50 9 is_stmt 1
  50:src/thread.cpp ****     }
 179              		.loc 1 50 15 is_stmt 0
 180 00d0 93F404FF 		andi	s1,s1,-16
 181              	.LVL12:
 182              	.L9:
  53:src/thread.cpp **** 
 183              		.loc 1 53 5 is_stmt 1
  55:src/thread.cpp **** 
 184              		.loc 1 55 5
  57:src/thread.cpp **** 
 185              		.loc 1 57 1 is_stmt 0
 186 00d4 138504EF 		addi	a0,s1,-272
 187              	.LVL13:
 188 00d8 83308101 		ld	ra,24(sp)
 189              		.cfi_remember_state
 190              		.cfi_restore 1
 191 00dc 03340101 		ld	s0,16(sp)
 192              		.cfi_restore 8
 193              		.cfi_def_cfa 2, 32
 194 00e0 83348100 		ld	s1,8(sp)
 195              		.cfi_restore 9
 196 00e4 03390100 		ld	s2,0(sp)
 197              		.cfi_restore 18
 198              	.LVL14:
 199 00e8 13010102 		addi	sp,sp,32
 200              		.cfi_def_cfa_offset 0
 201 00ec 67800000 		jr	ra
 202              	.LVL15:
 203              	.L11:
 204              		.cfi_restore_state
 205              	.LBB15:
 206              	.LBB14:
  23:src/../h/../h/my_console.h **** 
  24:src/../h/../h/my_console.h ****     putString("===================== ASSERT file: ");
 207              		.loc 2 24 5 is_stmt 1
 208              		.loc 2 24 14 is_stmt 0
 209 00f0 17050000 		lla	a0,.LC0
 209      13050500 
 210              	.LVL16:
 211 00f8 97000000 		call	_Z9putStringPKc@plt
 211      E7800000 
 212              	.LVL17:
  25:src/../h/../h/my_console.h ****     putString(file);
 213              		.loc 2 25 5 is_stmt 1
GAS LISTING /tmp/cc0x4OnX.s 			page 7


 214              		.loc 2 25 14 is_stmt 0
 215 0100 17050000 		lla	a0,.LC1
 215      13050500 
 216 0108 97000000 		call	_Z9putStringPKc@plt
 216      E7800000 
 217              	.LVL18:
  26:src/../h/../h/my_console.h ****     putString("    line: ");
 218              		.loc 2 26 5 is_stmt 1
 219              		.loc 2 26 14 is_stmt 0
 220 0110 17050000 		lla	a0,.LC2
 220      13050500 
 221 0118 97000000 		call	_Z9putStringPKc@plt
 221      E7800000 
 222              	.LVL19:
  27:src/../h/../h/my_console.h ****     putInt(line);
 223              		.loc 2 27 5 is_stmt 1
 224              		.loc 2 27 11 is_stmt 0
 225 0120 1305B002 		li	a0,43
 226 0124 97000000 		call	_Z6putInti@plt
 226      E7800000 
 227              	.LVL20:
  28:src/../h/../h/my_console.h ****     putString("   ===========================");
 228              		.loc 2 28 5 is_stmt 1
 229              		.loc 2 28 14 is_stmt 0
 230 012c 17050000 		lla	a0,.LC3
 230      13050500 
 231 0134 97000000 		call	_Z9putStringPKc@plt
 231      E7800000 
 232              	.LVL21:
  29:src/../h/../h/my_console.h ****     putNewline();
 233              		.loc 2 29 5 is_stmt 1
 234              		.loc 2 29 15 is_stmt 0
 235 013c 97000000 		call	_Z10putNewlinev@plt
 235      E7800000 
 236              	.LVL22:
  30:src/../h/../h/my_console.h **** 
  31:src/../h/../h/my_console.h ****     stopKernel();
 237              		.loc 2 31 5 is_stmt 1
 238              		.loc 2 31 15 is_stmt 0
 239 0144 97000000 		call	_Z10stopKernelv@plt
 239      E7800000 
 240              	.LVL23:
 241              	.LBE14:
 242              	.LBE15:
 243              		.cfi_endproc
 244              	.LFE17:
 246              		.align	2
 247              		.globl	_ZN6Thread4initEPFvPvES0_S0_
 249              	_ZN6Thread4initEPFvPvES0_S0_:
 250              	.LFB19:
  64:src/thread.cpp **** 
  65:src/thread.cpp **** void Thread::init(Body body, void* arg, void* pLogicalStack) // this is used as a "constructor"
  66:src/thread.cpp **** {
 251              		.loc 1 66 1 is_stmt 1
 252              		.cfi_startproc
 253              	.LVL24:
 254 014c 130101FF 		addi	sp,sp,-16
GAS LISTING /tmp/cc0x4OnX.s 			page 8


 255              		.cfi_def_cfa_offset 16
 256 0150 23341100 		sd	ra,8(sp)
 257 0154 23308100 		sd	s0,0(sp)
 258              		.cfi_offset 1, -8
 259              		.cfi_offset 8, -16
 260 0158 13040101 		addi	s0,sp,16
 261              		.cfi_def_cfa 8, 0
  67:src/thread.cpp ****     assert(nrTotalThreads < MAX_NR_TOTAL_THREADS);
 262              		.loc 1 67 5
 263 015c 97070000 		ld	a5,.LANCHOR1
 263      83B70700 
 264 0164 93B74706 		sltiu	a5,a5,100
 265              	.LVL25:
 266              	.LBB20:
 267              	.LBB21:
  21:src/../h/../h/my_console.h ****         return;
 268              		.loc 2 21 5
 269 0168 638E0704 		beqz	a5,.L16
  22:src/../h/../h/my_console.h **** 
 270              		.loc 2 22 9
 271              	.LVL26:
 272              	.LBE21:
 273              	.LBE20:
  68:src/thread.cpp ****     id = nrTotalThreads;
 274              		.loc 1 68 5
 275              		.loc 1 68 8 is_stmt 0
 276 016c 17070000 		lla	a4,.LANCHOR1
 276      13070700 
 277 0174 83370700 		ld	a5,0(a4)
 278 0178 233CF51A 		sd	a5,440(a0)
  69:src/thread.cpp ****     nrTotalThreads++;
 279              		.loc 1 69 5 is_stmt 1
 280              		.loc 1 69 19 is_stmt 0
 281 017c 93871700 		addi	a5,a5,1
 282 0180 2330F700 		sd	a5,0(a4)
  70:src/thread.cpp **** 
  71:src/thread.cpp ****     assert((uint64)pLogicalStack % 16 == 0);
 283              		.loc 1 71 5 is_stmt 1
 284 0184 93F7F600 		andi	a5,a3,15
 285              	.LVL27:
 286              	.LBB23:
 287              	.LBB24:
  21:src/../h/../h/my_console.h ****         return;
 288              		.loc 2 21 5
 289 0188 639C0708 		bnez	a5,.L17
  22:src/../h/../h/my_console.h **** 
 290              		.loc 2 22 9
 291              	.LVL28:
 292              	.LBE24:
 293              	.LBE23:
  72:src/thread.cpp **** 
  73:src/thread.cpp ****     state = INITIALIZING;
 294              		.loc 1 73 5
  74:src/thread.cpp ****     timeSlice = DEFAULT_TIME_SLICE;
 295              		.loc 1 74 5
 296              		.loc 1 74 15 is_stmt 0
 297 018c 93072000 		li	a5,2
GAS LISTING /tmp/cc0x4OnX.s 			page 9


 298 0190 2338F51A 		sd	a5,432(a0)
  75:src/thread.cpp ****     pNext = nullptr;
 299              		.loc 1 75 5 is_stmt 1
 300              		.loc 1 75 11 is_stmt 0
 301 0194 2330051C 		sd	zero,448(a0)
  76:src/thread.cpp **** 
  77:src/thread.cpp ****     // sets context
  78:src/thread.cpp ****     context[2] = (uint64)pLogicalStack; // sp field
 302              		.loc 1 78 5 is_stmt 1
 303              		.loc 1 78 16 is_stmt 0
 304 0198 2330D502 		sd	a3,32(a0)
  79:src/thread.cpp **** 
  80:src/thread.cpp ****     // skipping a0 to pass arguments as it is will be not be restored in the context switch because
  81:src/thread.cpp **** 
  82:src/thread.cpp ****     *((uint64*)pLogicalStack + 11) = (uint64)body;
 305              		.loc 1 82 5 is_stmt 1
 306              		.loc 1 82 36 is_stmt 0
 307 019c 23BCB604 		sd	a1,88(a3)
  83:src/thread.cpp ****     *((uint64*)pLogicalStack + 12) = (uint64)arg;
 308              		.loc 1 83 5 is_stmt 1
 309              		.loc 1 83 36 is_stmt 0
 310 01a0 23B0C606 		sd	a2,96(a3)
  84:src/thread.cpp ****     *((uint64*)pLogicalStack + 32) = (uint64)&wrapper;
 311              		.loc 1 84 5 is_stmt 1
 312              		.loc 1 84 36 is_stmt 0
 313 01a4 17070000 		lla	a4,_Z7wrappermPFvPvES_
 313      13070700 
 314 01ac 23B0E610 		sd	a4,256(a3)
  85:src/thread.cpp **** 
  86:src/thread.cpp ****     state = READY;
 315              		.loc 1 86 5 is_stmt 1
 316              		.loc 1 86 11 is_stmt 0
 317 01b0 2320F500 		sw	a5,0(a0)
  87:src/thread.cpp **** }
 318              		.loc 1 87 1
 319 01b4 83308100 		ld	ra,8(sp)
 320              		.cfi_remember_state
 321              		.cfi_restore 1
 322 01b8 03340100 		ld	s0,0(sp)
 323              		.cfi_restore 8
 324              		.cfi_def_cfa 2, 16
 325 01bc 13010101 		addi	sp,sp,16
 326              		.cfi_def_cfa_offset 0
 327 01c0 67800000 		jr	ra
 328              	.LVL29:
 329              	.L16:
 330              		.cfi_restore_state
 331              	.LBB26:
 332              	.LBB22:
  24:src/../h/../h/my_console.h ****     putString(file);
 333              		.loc 2 24 5 is_stmt 1
  24:src/../h/../h/my_console.h ****     putString(file);
 334              		.loc 2 24 14 is_stmt 0
 335 01c4 17050000 		lla	a0,.LC0
 335      13050500 
 336              	.LVL30:
 337 01cc 97000000 		call	_Z9putStringPKc@plt
GAS LISTING /tmp/cc0x4OnX.s 			page 10


 337      E7800000 
 338              	.LVL31:
  25:src/../h/../h/my_console.h ****     putString("    line: ");
 339              		.loc 2 25 5 is_stmt 1
  25:src/../h/../h/my_console.h ****     putString("    line: ");
 340              		.loc 2 25 14 is_stmt 0
 341 01d4 17050000 		lla	a0,.LC1
 341      13050500 
 342 01dc 97000000 		call	_Z9putStringPKc@plt
 342      E7800000 
 343              	.LVL32:
  26:src/../h/../h/my_console.h ****     putInt(line);
 344              		.loc 2 26 5 is_stmt 1
  26:src/../h/../h/my_console.h ****     putInt(line);
 345              		.loc 2 26 14 is_stmt 0
 346 01e4 17050000 		lla	a0,.LC2
 346      13050500 
 347 01ec 97000000 		call	_Z9putStringPKc@plt
 347      E7800000 
 348              	.LVL33:
  27:src/../h/../h/my_console.h ****     putString("   ===========================");
 349              		.loc 2 27 5 is_stmt 1
  27:src/../h/../h/my_console.h ****     putString("   ===========================");
 350              		.loc 2 27 11 is_stmt 0
 351 01f4 13053004 		li	a0,67
 352 01f8 97000000 		call	_Z6putInti@plt
 352      E7800000 
 353              	.LVL34:
  28:src/../h/../h/my_console.h ****     putNewline();
 354              		.loc 2 28 5 is_stmt 1
  28:src/../h/../h/my_console.h ****     putNewline();
 355              		.loc 2 28 14 is_stmt 0
 356 0200 17050000 		lla	a0,.LC3
 356      13050500 
 357 0208 97000000 		call	_Z9putStringPKc@plt
 357      E7800000 
 358              	.LVL35:
  29:src/../h/../h/my_console.h **** 
 359              		.loc 2 29 5 is_stmt 1
  29:src/../h/../h/my_console.h **** 
 360              		.loc 2 29 15 is_stmt 0
 361 0210 97000000 		call	_Z10putNewlinev@plt
 361      E7800000 
 362              	.LVL36:
 363              		.loc 2 31 5 is_stmt 1
 364              		.loc 2 31 15 is_stmt 0
 365 0218 97000000 		call	_Z10stopKernelv@plt
 365      E7800000 
 366              	.LVL37:
 367              	.L17:
 368              	.LBE22:
 369              	.LBE26:
 370              	.LBB27:
 371              	.LBB25:
  24:src/../h/../h/my_console.h ****     putString(file);
 372              		.loc 2 24 5 is_stmt 1
  24:src/../h/../h/my_console.h ****     putString(file);
GAS LISTING /tmp/cc0x4OnX.s 			page 11


 373              		.loc 2 24 14 is_stmt 0
 374 0220 17050000 		lla	a0,.LC0
 374      13050500 
 375              	.LVL38:
 376 0228 97000000 		call	_Z9putStringPKc@plt
 376      E7800000 
 377              	.LVL39:
  25:src/../h/../h/my_console.h ****     putString("    line: ");
 378              		.loc 2 25 5 is_stmt 1
  25:src/../h/../h/my_console.h ****     putString("    line: ");
 379              		.loc 2 25 14 is_stmt 0
 380 0230 17050000 		lla	a0,.LC1
 380      13050500 
 381 0238 97000000 		call	_Z9putStringPKc@plt
 381      E7800000 
 382              	.LVL40:
  26:src/../h/../h/my_console.h ****     putInt(line);
 383              		.loc 2 26 5 is_stmt 1
  26:src/../h/../h/my_console.h ****     putInt(line);
 384              		.loc 2 26 14 is_stmt 0
 385 0240 17050000 		lla	a0,.LC2
 385      13050500 
 386 0248 97000000 		call	_Z9putStringPKc@plt
 386      E7800000 
 387              	.LVL41:
  27:src/../h/../h/my_console.h ****     putString("   ===========================");
 388              		.loc 2 27 5 is_stmt 1
  27:src/../h/../h/my_console.h ****     putString("   ===========================");
 389              		.loc 2 27 11 is_stmt 0
 390 0250 13057004 		li	a0,71
 391 0254 97000000 		call	_Z6putInti@plt
 391      E7800000 
 392              	.LVL42:
  28:src/../h/../h/my_console.h ****     putNewline();
 393              		.loc 2 28 5 is_stmt 1
  28:src/../h/../h/my_console.h ****     putNewline();
 394              		.loc 2 28 14 is_stmt 0
 395 025c 17050000 		lla	a0,.LC3
 395      13050500 
 396 0264 97000000 		call	_Z9putStringPKc@plt
 396      E7800000 
 397              	.LVL43:
  29:src/../h/../h/my_console.h **** 
 398              		.loc 2 29 5 is_stmt 1
  29:src/../h/../h/my_console.h **** 
 399              		.loc 2 29 15 is_stmt 0
 400 026c 97000000 		call	_Z10putNewlinev@plt
 400      E7800000 
 401              	.LVL44:
 402              		.loc 2 31 5 is_stmt 1
 403              		.loc 2 31 15 is_stmt 0
 404 0274 97000000 		call	_Z10stopKernelv@plt
 404      E7800000 
 405              	.LVL45:
 406              	.LBE25:
 407              	.LBE27:
 408              		.cfi_endproc
GAS LISTING /tmp/cc0x4OnX.s 			page 12


 409              	.LFE19:
 411              		.align	2
 412              		.globl	_ZN6Thread12createThreadEPmPFvPvES1_
 414              	_ZN6Thread12createThreadEPmPFvPvES1_:
 415              	.LFB15:
  19:src/thread.cpp ****     assert(nrTotalThreads < MAX_NR_TOTAL_THREADS);
 416              		.loc 1 19 1 is_stmt 1
 417              		.cfi_startproc
 418              	.LVL46:
 419 027c 130101FD 		addi	sp,sp,-48
 420              		.cfi_def_cfa_offset 48
 421 0280 23341102 		sd	ra,40(sp)
 422 0284 23308102 		sd	s0,32(sp)
 423 0288 233C9100 		sd	s1,24(sp)
 424 028c 23382101 		sd	s2,16(sp)
 425 0290 23343101 		sd	s3,8(sp)
 426              		.cfi_offset 1, -8
 427              		.cfi_offset 8, -16
 428              		.cfi_offset 9, -24
 429              		.cfi_offset 18, -32
 430              		.cfi_offset 19, -40
 431 0294 13040103 		addi	s0,sp,48
 432              		.cfi_def_cfa 8, 0
  20:src/thread.cpp **** 
 433              		.loc 1 20 5
 434 0298 97070000 		ld	a5,.LANCHOR1
 434      83B70700 
 435 02a0 93B74706 		sltiu	a5,a5,100
 436              	.LVL47:
 437              	.LBB30:
 438              	.LBB31:
  21:src/../h/../h/my_console.h ****         return;
 439              		.loc 2 21 5
 440 02a4 63880708 		beqz	a5,.L21
 441 02a8 93890500 		mv	s3,a1
 442 02ac 13090600 		mv	s2,a2
  22:src/../h/../h/my_console.h **** 
 443              		.loc 2 22 9
 444              	.LVL48:
 445              	.LBE31:
 446              	.LBE30:
  22:src/thread.cpp ****     pAllThreads[nrTotalThreads] = t;
 447              		.loc 1 22 5
  22:src/thread.cpp ****     pAllThreads[nrTotalThreads] = t;
 448              		.loc 1 22 51 is_stmt 0
 449 02b0 97000000 		call	_ZN8MemAlloc3getEv@plt
 449      E7800000 
 450              	.LVL49:
 451 02b8 9305801C 		li	a1,456
 452 02bc 97000000 		call	_ZN8MemAlloc8allocMemEm@plt
 452      E7800000 
 453              	.LVL50:
 454 02c4 93040500 		mv	s1,a0
 455              	.LVL51:
  23:src/thread.cpp **** 
 456              		.loc 1 23 5 is_stmt 1
  23:src/thread.cpp **** 
GAS LISTING /tmp/cc0x4OnX.s 			page 13


 457              		.loc 1 23 33 is_stmt 0
 458 02c8 97070000 		ld	a5,.LANCHOR1
 458      83B70700 
 459 02d0 13973700 		slli	a4,a5,3
 460 02d4 97070000 		lla	a5,.LANCHOR0
 460      93870700 
 461 02dc B387E700 		add	a5,a5,a4
 462 02e0 23B8A700 		sd	a0,16(a5)
  25:src/thread.cpp ****     void* pLogicalStack = t->allocStack();
 463              		.loc 1 25 5 is_stmt 1
  25:src/thread.cpp ****     void* pLogicalStack = t->allocStack();
 464              		.loc 1 25 20 is_stmt 0
 465 02e4 2334051A 		sd	zero,424(a0)
  26:src/thread.cpp **** 
 466              		.loc 1 26 5 is_stmt 1
  26:src/thread.cpp **** 
 467              		.loc 1 26 40 is_stmt 0
 468 02e8 97000000 		call	_ZN6Thread10allocStackEv
 468      E7800000 
 469              	.LVL52:
 470 02f0 93060500 		mv	a3,a0
 471              	.LVL53:
  28:src/thread.cpp **** 
 472              		.loc 1 28 5 is_stmt 1
  28:src/thread.cpp **** 
 473              		.loc 1 28 12 is_stmt 0
 474 02f4 13060900 		mv	a2,s2
 475 02f8 93850900 		mv	a1,s3
 476 02fc 13850400 		mv	a0,s1
 477              	.LVL54:
 478 0300 97000000 		call	_ZN6Thread4initEPFvPvES0_S0_
 478      E7800000 
 479              	.LVL55:
  30:src/thread.cpp **** 
 480              		.loc 1 30 5 is_stmt 1
  30:src/thread.cpp **** 
 481              		.loc 1 30 19 is_stmt 0
 482 0308 13850400 		mv	a0,s1
 483 030c 97000000 		call	_ZN9Scheduler3putEP6Thread@plt
 483      E7800000 
 484              	.LVL56:
  32:src/thread.cpp **** }
 485              		.loc 1 32 5 is_stmt 1
  33:src/thread.cpp **** 
 486              		.loc 1 33 1 is_stmt 0
 487 0314 13050000 		li	a0,0
 488 0318 83308102 		ld	ra,40(sp)
 489              		.cfi_remember_state
 490              		.cfi_restore 1
 491 031c 03340102 		ld	s0,32(sp)
 492              		.cfi_restore 8
 493              		.cfi_def_cfa 2, 48
 494 0320 83348101 		ld	s1,24(sp)
 495              		.cfi_restore 9
 496              	.LVL57:
 497 0324 03390101 		ld	s2,16(sp)
 498              		.cfi_restore 18
GAS LISTING /tmp/cc0x4OnX.s 			page 14


 499              	.LVL58:
 500 0328 83398100 		ld	s3,8(sp)
 501              		.cfi_restore 19
 502              	.LVL59:
 503 032c 13010103 		addi	sp,sp,48
 504              		.cfi_def_cfa_offset 0
 505 0330 67800000 		jr	ra
 506              	.LVL60:
 507              	.L21:
 508              		.cfi_restore_state
 509              	.LBB33:
 510              	.LBB32:
  24:src/../h/../h/my_console.h ****     putString(file);
 511              		.loc 2 24 5 is_stmt 1
  24:src/../h/../h/my_console.h ****     putString(file);
 512              		.loc 2 24 14 is_stmt 0
 513 0334 17050000 		lla	a0,.LC0
 513      13050500 
 514              	.LVL61:
 515 033c 97000000 		call	_Z9putStringPKc@plt
 515      E7800000 
 516              	.LVL62:
  25:src/../h/../h/my_console.h ****     putString("    line: ");
 517              		.loc 2 25 5 is_stmt 1
  25:src/../h/../h/my_console.h ****     putString("    line: ");
 518              		.loc 2 25 14 is_stmt 0
 519 0344 17050000 		lla	a0,.LC1
 519      13050500 
 520 034c 97000000 		call	_Z9putStringPKc@plt
 520      E7800000 
 521              	.LVL63:
  26:src/../h/../h/my_console.h ****     putInt(line);
 522              		.loc 2 26 5 is_stmt 1
  26:src/../h/../h/my_console.h ****     putInt(line);
 523              		.loc 2 26 14 is_stmt 0
 524 0354 17050000 		lla	a0,.LC2
 524      13050500 
 525 035c 97000000 		call	_Z9putStringPKc@plt
 525      E7800000 
 526              	.LVL64:
  27:src/../h/../h/my_console.h ****     putString("   ===========================");
 527              		.loc 2 27 5 is_stmt 1
  27:src/../h/../h/my_console.h ****     putString("   ===========================");
 528              		.loc 2 27 11 is_stmt 0
 529 0364 13054001 		li	a0,20
 530 0368 97000000 		call	_Z6putInti@plt
 530      E7800000 
 531              	.LVL65:
  28:src/../h/../h/my_console.h ****     putNewline();
 532              		.loc 2 28 5 is_stmt 1
  28:src/../h/../h/my_console.h ****     putNewline();
 533              		.loc 2 28 14 is_stmt 0
 534 0370 17050000 		lla	a0,.LC3
 534      13050500 
 535 0378 97000000 		call	_Z9putStringPKc@plt
 535      E7800000 
 536              	.LVL66:
GAS LISTING /tmp/cc0x4OnX.s 			page 15


  29:src/../h/../h/my_console.h **** 
 537              		.loc 2 29 5 is_stmt 1
  29:src/../h/../h/my_console.h **** 
 538              		.loc 2 29 15 is_stmt 0
 539 0380 97000000 		call	_Z10putNewlinev@plt
 539      E7800000 
 540              	.LVL67:
 541              		.loc 2 31 5 is_stmt 1
 542              		.loc 2 31 15 is_stmt 0
 543 0388 97000000 		call	_Z10stopKernelv@plt
 543      E7800000 
 544              	.LVL68:
 545              	.LBE32:
 546              	.LBE33:
 547              		.cfi_endproc
 548              	.LFE15:
 550              		.section	.rodata.str1.8
 551 0067 00       		.align	3
 552              	.LC4:
 553 0068 4E4F204D 		.string	"NO MORE THREADS EXIST, IDK WHAT TO RUN"
 553      4F524520 
 553      54485245 
 553      41445320 
 553      45584953 
 554              		.text
 555              		.align	2
 556              		.globl	_ZN6Thread4exitEv
 558              	_ZN6Thread4exitEv:
 559              	.LFB20:
  88:src/thread.cpp **** 
  89:src/thread.cpp **** int Thread::exit()
  90:src/thread.cpp **** {
 560              		.loc 1 90 1 is_stmt 1
 561              		.cfi_startproc
 562 0390 130101FE 		addi	sp,sp,-32
 563              		.cfi_def_cfa_offset 32
 564 0394 233C1100 		sd	ra,24(sp)
 565 0398 23388100 		sd	s0,16(sp)
 566 039c 23349100 		sd	s1,8(sp)
 567              		.cfi_offset 1, -8
 568              		.cfi_offset 8, -16
 569              		.cfi_offset 9, -24
 570 03a0 13040102 		addi	s0,sp,32
 571              		.cfi_def_cfa 8, 0
  91:src/thread.cpp ****     Thread* t = Thread::getPRunning();
 572              		.loc 1 91 5
 573              		.loc 1 91 36 is_stmt 0
 574 03a4 97000000 		call	_ZN6Thread11getPRunningEv
 574      E7800000 
 575              	.LVL69:
  92:src/thread.cpp ****     assert(t->state == RUNNING);
 576              		.loc 1 92 5 is_stmt 1
 577 03ac 83270500 		lw	a5,0(a0)
 578              	.LVL70:
 579              	.LBB43:
 580              	.LBB44:
  21:src/../h/../h/my_console.h ****         return;
GAS LISTING /tmp/cc0x4OnX.s 			page 16


 581              		.loc 2 21 5
 582 03b0 63940706 		bnez	a5,.L27
 583 03b4 93040500 		mv	s1,a0
  22:src/../h/../h/my_console.h **** 
 584              		.loc 2 22 9
 585              	.LVL71:
 586              	.LBE44:
 587              	.LBE43:
  93:src/thread.cpp **** 
  94:src/thread.cpp ****     MemAlloc::get()->freeMem(t->pStackStart);
 588              		.loc 1 94 5
 589              		.loc 1 94 29 is_stmt 0
 590 03b8 97000000 		call	_ZN8MemAlloc3getEv@plt
 590      E7800000 
 591              	.LVL72:
 592 03c0 83B5841A 		ld	a1,424(s1)
 593 03c4 97000000 		call	_ZN8MemAlloc7freeMemEPv@plt
 593      E7800000 
 594              	.LVL73:
  95:src/thread.cpp **** //    t->signalDone();
  96:src/thread.cpp **** 
  97:src/thread.cpp ****     if(Scheduler::get()->pHead == nullptr)
 595              		.loc 1 97 5 is_stmt 1
 596              	.LBB46:
 597              	.LBB47:
 598              		.file 3 "src/../h/scheduler.h"
   1:src/../h/scheduler.h **** #pragma once
   2:src/../h/scheduler.h **** 
   3:src/../h/scheduler.h **** #include "../h/thread.h"
   4:src/../h/scheduler.h **** 
   5:src/../h/scheduler.h **** class Scheduler // singleton
   6:src/../h/scheduler.h **** {
   7:src/../h/scheduler.h **** public:
   8:src/../h/scheduler.h ****     static Scheduler* get()
   9:src/../h/scheduler.h ****     {
  10:src/../h/scheduler.h ****         static Scheduler instance;
 599              		.loc 3 10 9
 600              		.loc 3 10 26 is_stmt 0
 601 03cc 97070000 		lbu	a5,_ZGVZN9Scheduler3getEvE8instance
 601      83C70700 
 602 03d4 639C0700 		bnez	a5,.L24
 603              	.LVL74:
 604              	.LBB48:
 605              	.LBB49:
 606              	.LBB50:
  11:src/../h/scheduler.h ****         return &instance;
  12:src/../h/scheduler.h ****     }
  13:src/../h/scheduler.h **** 
  14:src/../h/scheduler.h ****     static void dispatchToNext(); // WARNING: different than sys. call dispatch()
  15:src/../h/scheduler.h ****     static Thread* getNext();
  16:src/../h/scheduler.h ****     static void put(Thread*);
  17:src/../h/scheduler.h ****     static void printState();
  18:src/../h/scheduler.h **** 
  19:src/../h/scheduler.h ****     Thread* pHead; // points to the one that is the next to be run
  20:src/../h/scheduler.h **** 
  21:src/../h/scheduler.h **** private:
  22:src/../h/scheduler.h ****     Scheduler()
GAS LISTING /tmp/cc0x4OnX.s 			page 17


  23:src/../h/scheduler.h ****         : pHead(nullptr)
 607              		.loc 3 23 24
 608 03d8 97070000 		sd	zero,_ZZN9Scheduler3getEvE8instance,a5
 608      23B00700 
 609              	.LVL75:
 610              	.LBE50:
 611              	.LBE49:
 612              	.LBE48:
  10:src/../h/scheduler.h ****         return &instance;
 613              		.loc 3 10 26
 614 03e0 93071000 		li	a5,1
 615 03e4 17070000 		sb	a5,_ZGVZN9Scheduler3getEvE8instance,a4
 615      2300F700 
 616              	.L24:
  11:src/../h/scheduler.h ****         return &instance;
 617              		.loc 3 11 9 is_stmt 1
 618              	.LBE47:
 619              	.LBE46:
 620              		.loc 1 97 26 is_stmt 0
 621 03ec 97070000 		ld	a5,_ZZN9Scheduler3getEvE8instance
 621      83B70700 
 622              		.loc 1 97 5
 623 03f4 63800708 		beqz	a5,.L28
  98:src/thread.cpp ****     {
  99:src/thread.cpp ****         putString("NO MORE THREADS EXIST, IDK WHAT TO RUN");
 100:src/thread.cpp ****         putNewline();
 101:src/thread.cpp ****         assert(false);
 102:src/thread.cpp ****     }
 103:src/thread.cpp ****     Scheduler::dispatchToNext();
 624              		.loc 1 103 5 is_stmt 1
 625              		.loc 1 103 30 is_stmt 0
 626 03f8 97000000 		call	_ZN9Scheduler14dispatchToNextEv@plt
 626      E7800000 
 627              	.LVL76:
 104:src/thread.cpp **** 
 105:src/thread.cpp ****     return 0;
 628              		.loc 1 105 5 is_stmt 1
 106:src/thread.cpp **** }
 629              		.loc 1 106 1 is_stmt 0
 630 0400 13050000 		li	a0,0
 631 0404 83308101 		ld	ra,24(sp)
 632              		.cfi_remember_state
 633              		.cfi_restore 1
 634 0408 03340101 		ld	s0,16(sp)
 635              		.cfi_restore 8
 636              		.cfi_def_cfa 2, 32
 637 040c 83348100 		ld	s1,8(sp)
 638              		.cfi_restore 9
 639              	.LVL77:
 640 0410 13010102 		addi	sp,sp,32
 641              		.cfi_def_cfa_offset 0
 642 0414 67800000 		jr	ra
 643              	.LVL78:
 644              	.L27:
 645              		.cfi_restore_state
 646              	.LBB51:
 647              	.LBB45:
GAS LISTING /tmp/cc0x4OnX.s 			page 18


  24:src/../h/../h/my_console.h ****     putString(file);
 648              		.loc 2 24 5 is_stmt 1
  24:src/../h/../h/my_console.h ****     putString(file);
 649              		.loc 2 24 14 is_stmt 0
 650 0418 17050000 		lla	a0,.LC0
 650      13050500 
 651              	.LVL79:
 652 0420 97000000 		call	_Z9putStringPKc@plt
 652      E7800000 
 653              	.LVL80:
  25:src/../h/../h/my_console.h ****     putString("    line: ");
 654              		.loc 2 25 5 is_stmt 1
  25:src/../h/../h/my_console.h ****     putString("    line: ");
 655              		.loc 2 25 14 is_stmt 0
 656 0428 17050000 		lla	a0,.LC1
 656      13050500 
 657 0430 97000000 		call	_Z9putStringPKc@plt
 657      E7800000 
 658              	.LVL81:
  26:src/../h/../h/my_console.h ****     putInt(line);
 659              		.loc 2 26 5 is_stmt 1
  26:src/../h/../h/my_console.h ****     putInt(line);
 660              		.loc 2 26 14 is_stmt 0
 661 0438 17050000 		lla	a0,.LC2
 661      13050500 
 662 0440 97000000 		call	_Z9putStringPKc@plt
 662      E7800000 
 663              	.LVL82:
  27:src/../h/../h/my_console.h ****     putString("   ===========================");
 664              		.loc 2 27 5 is_stmt 1
  27:src/../h/../h/my_console.h ****     putString("   ===========================");
 665              		.loc 2 27 11 is_stmt 0
 666 0448 1305C005 		li	a0,92
 667 044c 97000000 		call	_Z6putInti@plt
 667      E7800000 
 668              	.LVL83:
  28:src/../h/../h/my_console.h ****     putNewline();
 669              		.loc 2 28 5 is_stmt 1
  28:src/../h/../h/my_console.h ****     putNewline();
 670              		.loc 2 28 14 is_stmt 0
 671 0454 17050000 		lla	a0,.LC3
 671      13050500 
 672 045c 97000000 		call	_Z9putStringPKc@plt
 672      E7800000 
 673              	.LVL84:
  29:src/../h/../h/my_console.h **** 
 674              		.loc 2 29 5 is_stmt 1
  29:src/../h/../h/my_console.h **** 
 675              		.loc 2 29 15 is_stmt 0
 676 0464 97000000 		call	_Z10putNewlinev@plt
 676      E7800000 
 677              	.LVL85:
 678              		.loc 2 31 5 is_stmt 1
 679              		.loc 2 31 15 is_stmt 0
 680 046c 97000000 		call	_Z10stopKernelv@plt
 680      E7800000 
 681              	.LVL86:
GAS LISTING /tmp/cc0x4OnX.s 			page 19


 682              	.L28:
 683              	.LBE45:
 684              	.LBE51:
  99:src/thread.cpp ****         putNewline();
 685              		.loc 1 99 9 is_stmt 1
  99:src/thread.cpp ****         putNewline();
 686              		.loc 1 99 18 is_stmt 0
 687 0474 17050000 		lla	a0,.LC4
 687      13050500 
 688 047c 97000000 		call	_Z9putStringPKc@plt
 688      E7800000 
 689              	.LVL87:
 100:src/thread.cpp ****         assert(false);
 690              		.loc 1 100 9 is_stmt 1
 100:src/thread.cpp ****         assert(false);
 691              		.loc 1 100 19 is_stmt 0
 692 0484 97000000 		call	_Z10putNewlinev@plt
 692      E7800000 
 693              	.LVL88:
 101:src/thread.cpp ****     }
 694              		.loc 1 101 9 is_stmt 1
 695              	.LBB52:
 696              	.LBB53:
  21:src/../h/../h/my_console.h ****         return;
 697              		.loc 2 21 5
  24:src/../h/../h/my_console.h ****     putString(file);
 698              		.loc 2 24 5
  24:src/../h/../h/my_console.h ****     putString(file);
 699              		.loc 2 24 14 is_stmt 0
 700 048c 17050000 		lla	a0,.LC0
 700      13050500 
 701 0494 97000000 		call	_Z9putStringPKc@plt
 701      E7800000 
 702              	.LVL89:
  25:src/../h/../h/my_console.h ****     putString("    line: ");
 703              		.loc 2 25 5 is_stmt 1
  25:src/../h/../h/my_console.h ****     putString("    line: ");
 704              		.loc 2 25 14 is_stmt 0
 705 049c 17050000 		lla	a0,.LC1
 705      13050500 
 706 04a4 97000000 		call	_Z9putStringPKc@plt
 706      E7800000 
 707              	.LVL90:
  26:src/../h/../h/my_console.h ****     putInt(line);
 708              		.loc 2 26 5 is_stmt 1
  26:src/../h/../h/my_console.h ****     putInt(line);
 709              		.loc 2 26 14 is_stmt 0
 710 04ac 17050000 		lla	a0,.LC2
 710      13050500 
 711 04b4 97000000 		call	_Z9putStringPKc@plt
 711      E7800000 
 712              	.LVL91:
  27:src/../h/../h/my_console.h ****     putString("   ===========================");
 713              		.loc 2 27 5 is_stmt 1
  27:src/../h/../h/my_console.h ****     putString("   ===========================");
 714              		.loc 2 27 11 is_stmt 0
 715 04bc 13055006 		li	a0,101
GAS LISTING /tmp/cc0x4OnX.s 			page 20


 716 04c0 97000000 		call	_Z6putInti@plt
 716      E7800000 
 717              	.LVL92:
  28:src/../h/../h/my_console.h ****     putNewline();
 718              		.loc 2 28 5 is_stmt 1
  28:src/../h/../h/my_console.h ****     putNewline();
 719              		.loc 2 28 14 is_stmt 0
 720 04c8 17050000 		lla	a0,.LC3
 720      13050500 
 721 04d0 97000000 		call	_Z9putStringPKc@plt
 721      E7800000 
 722              	.LVL93:
  29:src/../h/../h/my_console.h **** 
 723              		.loc 2 29 5 is_stmt 1
  29:src/../h/../h/my_console.h **** 
 724              		.loc 2 29 15 is_stmt 0
 725 04d8 97000000 		call	_Z10putNewlinev@plt
 725      E7800000 
 726              	.LVL94:
 727              		.loc 2 31 5 is_stmt 1
 728              		.loc 2 31 15 is_stmt 0
 729 04e0 97000000 		call	_Z10stopKernelv@plt
 729      E7800000 
 730              	.LVL95:
 731              	.LBE53:
 732              	.LBE52:
 733              		.cfi_endproc
 734              	.LFE20:
 736              		.globl	_ZN6Thread11pAllThreadsE
 737              		.globl	_ZN6Thread14nrTotalThreadsE
 738              		.globl	_ZN6Thread20switchedToUserThreadE
 739              		.globl	_ZN6Thread16timeSliceCounterE
 740              		.globl	_ZN6Thread15pRunningContextE
 741              		.globl	_ZN6Thread8pRunningE
 742              		.weak	_ZGVZN9Scheduler3getEvE8instance
 743              		.section	.bss._ZGVZN9Scheduler3getEvE8instance,"awG",@nobits,_ZGVZN9Scheduler3getEvE8instance,comd
 744              		.align	3
 747              	_ZGVZN9Scheduler3getEvE8instance:
 748 0000 00000000 		.zero	8
 748      00000000 
 749              		.weak	_ZZN9Scheduler3getEvE8instance
 750              		.section	.bss._ZZN9Scheduler3getEvE8instance,"awG",@nobits,_ZZN9Scheduler3getEvE8instance,comdat
 751              		.align	3
 754              	_ZZN9Scheduler3getEvE8instance:
 755 0000 00000000 		.zero	8
 755      00000000 
 756              		.data
 757              		.align	3
 758              		.set	.LANCHOR1,. + 0
 761              	_ZN6Thread14nrTotalThreadsE:
 762 0000 01000000 		.dword	1
 762      00000000 
 763              		.bss
 764              		.align	3
 765              		.set	.LANCHOR0,. + 0
 768              	_ZN6Thread8pRunningE:
 769 0000 00000000 		.zero	8
GAS LISTING /tmp/cc0x4OnX.s 			page 21


 769      00000000 
 772              	_ZN6Thread15pRunningContextE:
 773 0008 00000000 		.zero	8
 773      00000000 
 776              	_ZN6Thread11pAllThreadsE:
 777 0010 00000000 		.zero	800
 777      00000000 
 777      00000000 
 777      00000000 
 777      00000000 
 780              	_ZN6Thread20switchedToUserThreadE:
 781 0330 00       		.zero	1
 782 0331 00000000 		.zero	7
 782      000000
 785              	_ZN6Thread16timeSliceCounterE:
 786 0338 00000000 		.zero	8
 786      00000000 
 787              		.text
 788              	.Letext0:
 789              		.file 4 "src/../h/../lib/hw.h"
 790              		.file 5 "src/../h/thread.h"
 791              		.file 6 "src/../h/alloc.h"
 792              		.file 7 "src/../h/../h/c_api.h"
GAS LISTING /tmp/cc0x4OnX.s 			page 22


DEFINED SYMBOLS
                            *ABS*:0000000000000000 thread.cpp
     /tmp/cc0x4OnX.s:9      .text:0000000000000000 _Z7wrappermPFvPvES_
     /tmp/cc0x4OnX.s:13     .text:0000000000000000 .L0 
     /tmp/cc0x4OnX.s:15     .text:0000000000000000 .L0 
     /tmp/cc0x4OnX.s:16     .text:0000000000000004 .L0 
     /tmp/cc0x4OnX.s:19     .text:000000000000000c .L0 
     /tmp/cc0x4OnX.s:20     .text:000000000000000c .L0 
     /tmp/cc0x4OnX.s:22     .text:0000000000000010 .L0 
     /tmp/cc0x4OnX.s:24     .text:0000000000000010 .L0 
     /tmp/cc0x4OnX.s:25     .text:0000000000000010 .L0 
     /tmp/cc0x4OnX.s:30     .text:0000000000000018 .L0 
     /tmp/cc0x4OnX.s:31     .text:0000000000000018 .L0 
     /tmp/cc0x4OnX.s:34     .text:0000000000000020 .L0 
     /tmp/cc0x4OnX.s:35     .text:0000000000000024 .L0 
     /tmp/cc0x4OnX.s:37     .text:0000000000000028 .L0 
     /tmp/cc0x4OnX.s:38     .text:0000000000000028 .L0 
     /tmp/cc0x4OnX.s:40     .text:000000000000002c .L0 
     /tmp/cc0x4OnX.s:42     .text:0000000000000030 .L0 
     /tmp/cc0x4OnX.s:48     .text:0000000000000030 _ZN6Thread11setPRunningEPS_
     /tmp/cc0x4OnX.s:51     .text:0000000000000030 .L0 
     /tmp/cc0x4OnX.s:53     .text:0000000000000030 .L0 
     /tmp/cc0x4OnX.s:54     .text:0000000000000034 .L0 
     /tmp/cc0x4OnX.s:56     .text:0000000000000038 .L0 
     /tmp/cc0x4OnX.s:58     .text:000000000000003c .L0 
     /tmp/cc0x4OnX.s:60     .text:000000000000003c .L0 
     /tmp/cc0x4OnX.s:61     .text:000000000000003c .L0 
     /tmp/cc0x4OnX.s:64     .text:0000000000000048 .L0 
     /tmp/cc0x4OnX.s:65     .text:0000000000000048 .L0 
     /tmp/cc0x4OnX.s:68     .text:000000000000004c .L0 
     /tmp/cc0x4OnX.s:70     .text:0000000000000050 .L0 
     /tmp/cc0x4OnX.s:71     .text:0000000000000054 .L0 
     /tmp/cc0x4OnX.s:72     .text:0000000000000054 .L0 
     /tmp/cc0x4OnX.s:74     .text:0000000000000058 .L0 
     /tmp/cc0x4OnX.s:76     .text:000000000000005c .L0 
     /tmp/cc0x4OnX.s:82     .text:000000000000005c _ZN6Thread11getPRunningEv
     /tmp/cc0x4OnX.s:85     .text:000000000000005c .L0 
     /tmp/cc0x4OnX.s:86     .text:000000000000005c .L0 
     /tmp/cc0x4OnX.s:87     .text:0000000000000060 .L0 
     /tmp/cc0x4OnX.s:89     .text:0000000000000064 .L0 
     /tmp/cc0x4OnX.s:91     .text:0000000000000068 .L0 
     /tmp/cc0x4OnX.s:93     .text:0000000000000068 .L0 
      src/thread.cpp:37     .text:0000000000000068 .L0 
     /tmp/cc0x4OnX.s:99     .text:000000000000006c .L0 
     /tmp/cc0x4OnX.s:101    .text:000000000000006c .L0 
     /tmp/cc0x4OnX.s:103    .text:0000000000000078 .L0 
     /tmp/cc0x4OnX.s:104    .text:0000000000000078 .L0 
     /tmp/cc0x4OnX.s:106    .text:000000000000007c .L0 
     /tmp/cc0x4OnX.s:108    .text:0000000000000080 .L0 
     /tmp/cc0x4OnX.s:128    .text:0000000000000080 _ZN6Thread10allocStackEv
     /tmp/cc0x4OnX.s:131    .text:0000000000000080 .L0 
     /tmp/cc0x4OnX.s:133    .text:0000000000000080 .L0 
     /tmp/cc0x4OnX.s:134    .text:0000000000000084 .L0 
     /tmp/cc0x4OnX.s:139    .text:0000000000000094 .L0 
     /tmp/cc0x4OnX.s:140    .text:0000000000000094 .L0 
     /tmp/cc0x4OnX.s:141    .text:0000000000000094 .L0 
     /tmp/cc0x4OnX.s:142    .text:0000000000000094 .L0 
GAS LISTING /tmp/cc0x4OnX.s 			page 23


     /tmp/cc0x4OnX.s:144    .text:0000000000000098 .L0 
     /tmp/cc0x4OnX.s:146    .text:0000000000000098 .L0 
     /tmp/cc0x4OnX.s:152    .text:000000000000009c .L0 
     /tmp/cc0x4OnX.s:158    .text:00000000000000a4 .L0 
     /tmp/cc0x4OnX.s:159    .text:00000000000000a4 .L0 
     /tmp/cc0x4OnX.s:160    .text:00000000000000a4 .L0 
     /tmp/cc0x4OnX.s:167    .text:00000000000000bc .L0 
     /tmp/cc0x4OnX.s:169    .text:00000000000000c0 .L0 
     /tmp/cc0x4OnX.s:170    .text:00000000000000c0 .L0 
     /tmp/cc0x4OnX.s:174    .text:00000000000000c8 .L0 
     /tmp/cc0x4OnX.s:175    .text:00000000000000c8 .L0 
     /tmp/cc0x4OnX.s:177    .text:00000000000000cc .L0 
     /tmp/cc0x4OnX.s:179    .text:00000000000000d0 .L0 
     /tmp/cc0x4OnX.s:180    .text:00000000000000d0 .L0 
     /tmp/cc0x4OnX.s:184    .text:00000000000000d4 .L0 
     /tmp/cc0x4OnX.s:185    .text:00000000000000d4 .L0 
     /tmp/cc0x4OnX.s:186    .text:00000000000000d4 .L0 
     /tmp/cc0x4OnX.s:189    .text:00000000000000dc .L0 
     /tmp/cc0x4OnX.s:190    .text:00000000000000dc .L0 
     /tmp/cc0x4OnX.s:192    .text:00000000000000e0 .L0 
     /tmp/cc0x4OnX.s:193    .text:00000000000000e0 .L0 
     /tmp/cc0x4OnX.s:195    .text:00000000000000e4 .L0 
     /tmp/cc0x4OnX.s:197    .text:00000000000000e8 .L0 
     /tmp/cc0x4OnX.s:200    .text:00000000000000ec .L0 
     /tmp/cc0x4OnX.s:204    .text:00000000000000f0 .L0 
     /tmp/cc0x4OnX.s:208    .text:00000000000000f0 .L0 
     /tmp/cc0x4OnX.s:209    .text:00000000000000f0 .L0 
     /tmp/cc0x4OnX.s:214    .text:0000000000000100 .L0 
     /tmp/cc0x4OnX.s:215    .text:0000000000000100 .L0 
     /tmp/cc0x4OnX.s:219    .text:0000000000000110 .L0 
     /tmp/cc0x4OnX.s:220    .text:0000000000000110 .L0 
     /tmp/cc0x4OnX.s:224    .text:0000000000000120 .L0 
     /tmp/cc0x4OnX.s:225    .text:0000000000000120 .L0 
     /tmp/cc0x4OnX.s:229    .text:000000000000012c .L0 
     /tmp/cc0x4OnX.s:230    .text:000000000000012c .L0 
     /tmp/cc0x4OnX.s:234    .text:000000000000013c .L0 
     /tmp/cc0x4OnX.s:235    .text:000000000000013c .L0 
     /tmp/cc0x4OnX.s:238    .text:0000000000000144 .L0 
     /tmp/cc0x4OnX.s:239    .text:0000000000000144 .L0 
     /tmp/cc0x4OnX.s:243    .text:000000000000014c .L0 
     /tmp/cc0x4OnX.s:249    .text:000000000000014c _ZN6Thread4initEPFvPvES0_S0_
     /tmp/cc0x4OnX.s:252    .text:000000000000014c .L0 
     /tmp/cc0x4OnX.s:254    .text:000000000000014c .L0 
     /tmp/cc0x4OnX.s:255    .text:0000000000000150 .L0 
     /tmp/cc0x4OnX.s:258    .text:0000000000000158 .L0 
     /tmp/cc0x4OnX.s:259    .text:0000000000000158 .L0 
     /tmp/cc0x4OnX.s:261    .text:000000000000015c .L0 
     /tmp/cc0x4OnX.s:263    .text:000000000000015c .L0 
     /tmp/cc0x4OnX.s:269    .text:0000000000000168 .L0 
     /tmp/cc0x4OnX.s:274    .text:000000000000016c .L0 
     /tmp/cc0x4OnX.s:275    .text:000000000000016c .L0 
     /tmp/cc0x4OnX.s:276    .text:000000000000016c .L0 
     /tmp/cc0x4OnX.s:280    .text:000000000000017c .L0 
     /tmp/cc0x4OnX.s:281    .text:000000000000017c .L0 
     /tmp/cc0x4OnX.s:284    .text:0000000000000184 .L0 
     /tmp/cc0x4OnX.s:289    .text:0000000000000188 .L0 
     /tmp/cc0x4OnX.s:294    .text:000000000000018c .L0 
GAS LISTING /tmp/cc0x4OnX.s 			page 24


     /tmp/cc0x4OnX.s:295    .text:000000000000018c .L0 
     /tmp/cc0x4OnX.s:296    .text:000000000000018c .L0 
     /tmp/cc0x4OnX.s:297    .text:000000000000018c .L0 
     /tmp/cc0x4OnX.s:300    .text:0000000000000194 .L0 
     /tmp/cc0x4OnX.s:301    .text:0000000000000194 .L0 
     /tmp/cc0x4OnX.s:303    .text:0000000000000198 .L0 
     /tmp/cc0x4OnX.s:304    .text:0000000000000198 .L0 
     /tmp/cc0x4OnX.s:306    .text:000000000000019c .L0 
     /tmp/cc0x4OnX.s:307    .text:000000000000019c .L0 
     /tmp/cc0x4OnX.s:309    .text:00000000000001a0 .L0 
     /tmp/cc0x4OnX.s:310    .text:00000000000001a0 .L0 
     /tmp/cc0x4OnX.s:312    .text:00000000000001a4 .L0 
     /tmp/cc0x4OnX.s:313    .text:00000000000001a4 .L0 
     /tmp/cc0x4OnX.s:316    .text:00000000000001b0 .L0 
     /tmp/cc0x4OnX.s:317    .text:00000000000001b0 .L0 
     /tmp/cc0x4OnX.s:319    .text:00000000000001b4 .L0 
     /tmp/cc0x4OnX.s:320    .text:00000000000001b8 .L0 
     /tmp/cc0x4OnX.s:321    .text:00000000000001b8 .L0 
     /tmp/cc0x4OnX.s:323    .text:00000000000001bc .L0 
     /tmp/cc0x4OnX.s:324    .text:00000000000001bc .L0 
     /tmp/cc0x4OnX.s:326    .text:00000000000001c0 .L0 
     /tmp/cc0x4OnX.s:330    .text:00000000000001c4 .L0 
     /tmp/cc0x4OnX.s:334    .text:00000000000001c4 .L0 
     /tmp/cc0x4OnX.s:335    .text:00000000000001c4 .L0 
     /tmp/cc0x4OnX.s:340    .text:00000000000001d4 .L0 
     /tmp/cc0x4OnX.s:341    .text:00000000000001d4 .L0 
     /tmp/cc0x4OnX.s:345    .text:00000000000001e4 .L0 
     /tmp/cc0x4OnX.s:346    .text:00000000000001e4 .L0 
     /tmp/cc0x4OnX.s:350    .text:00000000000001f4 .L0 
     /tmp/cc0x4OnX.s:351    .text:00000000000001f4 .L0 
     /tmp/cc0x4OnX.s:355    .text:0000000000000200 .L0 
     /tmp/cc0x4OnX.s:356    .text:0000000000000200 .L0 
     /tmp/cc0x4OnX.s:360    .text:0000000000000210 .L0 
     /tmp/cc0x4OnX.s:361    .text:0000000000000210 .L0 
     /tmp/cc0x4OnX.s:364    .text:0000000000000218 .L0 
     /tmp/cc0x4OnX.s:365    .text:0000000000000218 .L0 
     /tmp/cc0x4OnX.s:373    .text:0000000000000220 .L0 
     /tmp/cc0x4OnX.s:374    .text:0000000000000220 .L0 
     /tmp/cc0x4OnX.s:379    .text:0000000000000230 .L0 
     /tmp/cc0x4OnX.s:380    .text:0000000000000230 .L0 
     /tmp/cc0x4OnX.s:384    .text:0000000000000240 .L0 
     /tmp/cc0x4OnX.s:385    .text:0000000000000240 .L0 
     /tmp/cc0x4OnX.s:389    .text:0000000000000250 .L0 
     /tmp/cc0x4OnX.s:390    .text:0000000000000250 .L0 
     /tmp/cc0x4OnX.s:394    .text:000000000000025c .L0 
     /tmp/cc0x4OnX.s:395    .text:000000000000025c .L0 
     /tmp/cc0x4OnX.s:399    .text:000000000000026c .L0 
     /tmp/cc0x4OnX.s:400    .text:000000000000026c .L0 
     /tmp/cc0x4OnX.s:403    .text:0000000000000274 .L0 
     /tmp/cc0x4OnX.s:404    .text:0000000000000274 .L0 
     /tmp/cc0x4OnX.s:408    .text:000000000000027c .L0 
     /tmp/cc0x4OnX.s:414    .text:000000000000027c _ZN6Thread12createThreadEPmPFvPvES1_
     /tmp/cc0x4OnX.s:417    .text:000000000000027c .L0 
     /tmp/cc0x4OnX.s:419    .text:000000000000027c .L0 
     /tmp/cc0x4OnX.s:420    .text:0000000000000280 .L0 
     /tmp/cc0x4OnX.s:426    .text:0000000000000294 .L0 
     /tmp/cc0x4OnX.s:427    .text:0000000000000294 .L0 
GAS LISTING /tmp/cc0x4OnX.s 			page 25


     /tmp/cc0x4OnX.s:428    .text:0000000000000294 .L0 
     /tmp/cc0x4OnX.s:429    .text:0000000000000294 .L0 
     /tmp/cc0x4OnX.s:430    .text:0000000000000294 .L0 
     /tmp/cc0x4OnX.s:432    .text:0000000000000298 .L0 
     /tmp/cc0x4OnX.s:434    .text:0000000000000298 .L0 
     /tmp/cc0x4OnX.s:440    .text:00000000000002a4 .L0 
     /tmp/cc0x4OnX.s:447    .text:00000000000002b0 .L0 
     /tmp/cc0x4OnX.s:448    .text:00000000000002b0 .L0 
     /tmp/cc0x4OnX.s:449    .text:00000000000002b0 .L0 
     /tmp/cc0x4OnX.s:457    .text:00000000000002c8 .L0 
     /tmp/cc0x4OnX.s:458    .text:00000000000002c8 .L0 
     /tmp/cc0x4OnX.s:464    .text:00000000000002e4 .L0 
     /tmp/cc0x4OnX.s:465    .text:00000000000002e4 .L0 
     /tmp/cc0x4OnX.s:467    .text:00000000000002e8 .L0 
     /tmp/cc0x4OnX.s:468    .text:00000000000002e8 .L0 
     /tmp/cc0x4OnX.s:473    .text:00000000000002f4 .L0 
     /tmp/cc0x4OnX.s:474    .text:00000000000002f4 .L0 
     /tmp/cc0x4OnX.s:481    .text:0000000000000308 .L0 
     /tmp/cc0x4OnX.s:482    .text:0000000000000308 .L0 
     /tmp/cc0x4OnX.s:486    .text:0000000000000314 .L0 
     /tmp/cc0x4OnX.s:487    .text:0000000000000314 .L0 
     /tmp/cc0x4OnX.s:489    .text:000000000000031c .L0 
     /tmp/cc0x4OnX.s:490    .text:000000000000031c .L0 
     /tmp/cc0x4OnX.s:492    .text:0000000000000320 .L0 
     /tmp/cc0x4OnX.s:493    .text:0000000000000320 .L0 
     /tmp/cc0x4OnX.s:495    .text:0000000000000324 .L0 
     /tmp/cc0x4OnX.s:498    .text:0000000000000328 .L0 
     /tmp/cc0x4OnX.s:501    .text:000000000000032c .L0 
     /tmp/cc0x4OnX.s:504    .text:0000000000000330 .L0 
     /tmp/cc0x4OnX.s:508    .text:0000000000000334 .L0 
     /tmp/cc0x4OnX.s:512    .text:0000000000000334 .L0 
     /tmp/cc0x4OnX.s:513    .text:0000000000000334 .L0 
     /tmp/cc0x4OnX.s:518    .text:0000000000000344 .L0 
     /tmp/cc0x4OnX.s:519    .text:0000000000000344 .L0 
     /tmp/cc0x4OnX.s:523    .text:0000000000000354 .L0 
     /tmp/cc0x4OnX.s:524    .text:0000000000000354 .L0 
     /tmp/cc0x4OnX.s:528    .text:0000000000000364 .L0 
     /tmp/cc0x4OnX.s:529    .text:0000000000000364 .L0 
     /tmp/cc0x4OnX.s:533    .text:0000000000000370 .L0 
     /tmp/cc0x4OnX.s:534    .text:0000000000000370 .L0 
     /tmp/cc0x4OnX.s:538    .text:0000000000000380 .L0 
     /tmp/cc0x4OnX.s:539    .text:0000000000000380 .L0 
     /tmp/cc0x4OnX.s:542    .text:0000000000000388 .L0 
     /tmp/cc0x4OnX.s:543    .text:0000000000000388 .L0 
     /tmp/cc0x4OnX.s:547    .text:0000000000000390 .L0 
     /tmp/cc0x4OnX.s:558    .text:0000000000000390 _ZN6Thread4exitEv
     /tmp/cc0x4OnX.s:561    .text:0000000000000390 .L0 
     /tmp/cc0x4OnX.s:562    .text:0000000000000390 .L0 
     /tmp/cc0x4OnX.s:563    .text:0000000000000394 .L0 
     /tmp/cc0x4OnX.s:567    .text:00000000000003a0 .L0 
     /tmp/cc0x4OnX.s:568    .text:00000000000003a0 .L0 
     /tmp/cc0x4OnX.s:569    .text:00000000000003a0 .L0 
     /tmp/cc0x4OnX.s:571    .text:00000000000003a4 .L0 
     /tmp/cc0x4OnX.s:573    .text:00000000000003a4 .L0 
     /tmp/cc0x4OnX.s:574    .text:00000000000003a4 .L0 
     /tmp/cc0x4OnX.s:577    .text:00000000000003ac .L0 
     /tmp/cc0x4OnX.s:582    .text:00000000000003b0 .L0 
GAS LISTING /tmp/cc0x4OnX.s 			page 26


     /tmp/cc0x4OnX.s:588    .text:00000000000003b8 .L0 
     /tmp/cc0x4OnX.s:589    .text:00000000000003b8 .L0 
     /tmp/cc0x4OnX.s:590    .text:00000000000003b8 .L0 
     /tmp/cc0x4OnX.s:599    .text:00000000000003cc .L0 
     /tmp/cc0x4OnX.s:600    .text:00000000000003cc .L0 
     /tmp/cc0x4OnX.s:747    .bss._ZGVZN9Scheduler3getEvE8instance:0000000000000000 _ZGVZN9Scheduler3getEvE8instance
     /tmp/cc0x4OnX.s:601    .text:00000000000003cc .L0 
     /tmp/cc0x4OnX.s:754    .bss._ZZN9Scheduler3getEvE8instance:0000000000000000 _ZZN9Scheduler3getEvE8instance
     /tmp/cc0x4OnX.s:608    .text:00000000000003d8 .L0 
     /tmp/cc0x4OnX.s:614    .text:00000000000003e0 .L0 
     /tmp/cc0x4OnX.s:620    .text:00000000000003ec .L0 
     /tmp/cc0x4OnX.s:621    .text:00000000000003ec .L0 
     /tmp/cc0x4OnX.s:623    .text:00000000000003f4 .L0 
     /tmp/cc0x4OnX.s:625    .text:00000000000003f8 .L0 
     /tmp/cc0x4OnX.s:626    .text:00000000000003f8 .L0 
     /tmp/cc0x4OnX.s:629    .text:0000000000000400 .L0 
     /tmp/cc0x4OnX.s:630    .text:0000000000000400 .L0 
     /tmp/cc0x4OnX.s:632    .text:0000000000000408 .L0 
     /tmp/cc0x4OnX.s:633    .text:0000000000000408 .L0 
     /tmp/cc0x4OnX.s:635    .text:000000000000040c .L0 
     /tmp/cc0x4OnX.s:636    .text:000000000000040c .L0 
     /tmp/cc0x4OnX.s:638    .text:0000000000000410 .L0 
     /tmp/cc0x4OnX.s:641    .text:0000000000000414 .L0 
     /tmp/cc0x4OnX.s:645    .text:0000000000000418 .L0 
     /tmp/cc0x4OnX.s:649    .text:0000000000000418 .L0 
     /tmp/cc0x4OnX.s:650    .text:0000000000000418 .L0 
     /tmp/cc0x4OnX.s:655    .text:0000000000000428 .L0 
     /tmp/cc0x4OnX.s:656    .text:0000000000000428 .L0 
     /tmp/cc0x4OnX.s:660    .text:0000000000000438 .L0 
     /tmp/cc0x4OnX.s:661    .text:0000000000000438 .L0 
     /tmp/cc0x4OnX.s:665    .text:0000000000000448 .L0 
     /tmp/cc0x4OnX.s:666    .text:0000000000000448 .L0 
     /tmp/cc0x4OnX.s:670    .text:0000000000000454 .L0 
     /tmp/cc0x4OnX.s:671    .text:0000000000000454 .L0 
     /tmp/cc0x4OnX.s:675    .text:0000000000000464 .L0 
     /tmp/cc0x4OnX.s:676    .text:0000000000000464 .L0 
     /tmp/cc0x4OnX.s:679    .text:000000000000046c .L0 
     /tmp/cc0x4OnX.s:680    .text:000000000000046c .L0 
     /tmp/cc0x4OnX.s:686    .text:0000000000000474 .L0 
     /tmp/cc0x4OnX.s:687    .text:0000000000000474 .L0 
     /tmp/cc0x4OnX.s:691    .text:0000000000000484 .L0 
     /tmp/cc0x4OnX.s:692    .text:0000000000000484 .L0 
     /tmp/cc0x4OnX.s:697    .text:000000000000048c .L0 
     /tmp/cc0x4OnX.s:698    .text:000000000000048c .L0 
     /tmp/cc0x4OnX.s:699    .text:000000000000048c .L0 
     /tmp/cc0x4OnX.s:700    .text:000000000000048c .L0 
     /tmp/cc0x4OnX.s:704    .text:000000000000049c .L0 
     /tmp/cc0x4OnX.s:705    .text:000000000000049c .L0 
     /tmp/cc0x4OnX.s:709    .text:00000000000004ac .L0 
     /tmp/cc0x4OnX.s:710    .text:00000000000004ac .L0 
     /tmp/cc0x4OnX.s:714    .text:00000000000004bc .L0 
     /tmp/cc0x4OnX.s:715    .text:00000000000004bc .L0 
     /tmp/cc0x4OnX.s:719    .text:00000000000004c8 .L0 
     /tmp/cc0x4OnX.s:720    .text:00000000000004c8 .L0 
     /tmp/cc0x4OnX.s:724    .text:00000000000004d8 .L0 
     /tmp/cc0x4OnX.s:725    .text:00000000000004d8 .L0 
     /tmp/cc0x4OnX.s:728    .text:00000000000004e0 .L0 
GAS LISTING /tmp/cc0x4OnX.s 			page 27


     /tmp/cc0x4OnX.s:729    .text:00000000000004e0 .L0 
     /tmp/cc0x4OnX.s:733    .text:00000000000004e8 .L0 
     /tmp/cc0x4OnX.s:776    .bss:0000000000000010 _ZN6Thread11pAllThreadsE
     /tmp/cc0x4OnX.s:761    .data:0000000000000000 _ZN6Thread14nrTotalThreadsE
     /tmp/cc0x4OnX.s:780    .bss:0000000000000330 _ZN6Thread20switchedToUserThreadE
     /tmp/cc0x4OnX.s:785    .bss:0000000000000338 _ZN6Thread16timeSliceCounterE
     /tmp/cc0x4OnX.s:772    .bss:0000000000000008 _ZN6Thread15pRunningContextE
     /tmp/cc0x4OnX.s:768    .bss:0000000000000000 _ZN6Thread8pRunningE
     /tmp/cc0x4OnX.s:758    .data:0000000000000000 .LANCHOR1
     /tmp/cc0x4OnX.s:765    .bss:0000000000000000 .LANCHOR0
     /tmp/cc0x4OnX.s:793    .text:00000000000004e8 .L0 
     /tmp/cc0x4OnX.s:61     .text:000000000000003c .L0 
     /tmp/cc0x4OnX.s:101    .text:000000000000006c .L0 
     /tmp/cc0x4OnX.s:113    .rodata.str1.8:0000000000000000 .LC0
     /tmp/cc0x4OnX.s:209    .text:00000000000000f0 .L0 
     /tmp/cc0x4OnX.s:116    .rodata.str1.8:0000000000000028 .LC1
     /tmp/cc0x4OnX.s:215    .text:0000000000000100 .L0 
     /tmp/cc0x4OnX.s:119    .rodata.str1.8:0000000000000038 .LC2
     /tmp/cc0x4OnX.s:220    .text:0000000000000110 .L0 
     /tmp/cc0x4OnX.s:122    .rodata.str1.8:0000000000000048 .LC3
     /tmp/cc0x4OnX.s:230    .text:000000000000012c .L0 
     /tmp/cc0x4OnX.s:263    .text:000000000000015c .L0 
     /tmp/cc0x4OnX.s:276    .text:000000000000016c .L0 
     /tmp/cc0x4OnX.s:313    .text:00000000000001a4 .L0 
     /tmp/cc0x4OnX.s:335    .text:00000000000001c4 .L0 
     /tmp/cc0x4OnX.s:341    .text:00000000000001d4 .L0 
     /tmp/cc0x4OnX.s:346    .text:00000000000001e4 .L0 
     /tmp/cc0x4OnX.s:356    .text:0000000000000200 .L0 
     /tmp/cc0x4OnX.s:374    .text:0000000000000220 .L0 
     /tmp/cc0x4OnX.s:380    .text:0000000000000230 .L0 
     /tmp/cc0x4OnX.s:385    .text:0000000000000240 .L0 
     /tmp/cc0x4OnX.s:395    .text:000000000000025c .L0 
     /tmp/cc0x4OnX.s:434    .text:0000000000000298 .L0 
     /tmp/cc0x4OnX.s:458    .text:00000000000002c8 .L0 
     /tmp/cc0x4OnX.s:460    .text:00000000000002d4 .L0 
     /tmp/cc0x4OnX.s:513    .text:0000000000000334 .L0 
     /tmp/cc0x4OnX.s:519    .text:0000000000000344 .L0 
     /tmp/cc0x4OnX.s:524    .text:0000000000000354 .L0 
     /tmp/cc0x4OnX.s:534    .text:0000000000000370 .L0 
     /tmp/cc0x4OnX.s:601    .text:00000000000003cc .L0 
     /tmp/cc0x4OnX.s:608    .text:00000000000003d8 .L0 
     /tmp/cc0x4OnX.s:615    .text:00000000000003e4 .L0 
     /tmp/cc0x4OnX.s:621    .text:00000000000003ec .L0 
     /tmp/cc0x4OnX.s:650    .text:0000000000000418 .L0 
     /tmp/cc0x4OnX.s:656    .text:0000000000000428 .L0 
     /tmp/cc0x4OnX.s:661    .text:0000000000000438 .L0 
     /tmp/cc0x4OnX.s:671    .text:0000000000000454 .L0 
     /tmp/cc0x4OnX.s:552    .rodata.str1.8:0000000000000068 .LC4
     /tmp/cc0x4OnX.s:687    .text:0000000000000474 .L0 
     /tmp/cc0x4OnX.s:700    .text:000000000000048c .L0 
     /tmp/cc0x4OnX.s:705    .text:000000000000049c .L0 
     /tmp/cc0x4OnX.s:710    .text:00000000000004ac .L0 
     /tmp/cc0x4OnX.s:720    .text:00000000000004c8 .L0 
     /tmp/cc0x4OnX.s:203    .text:00000000000000f0 .L11
     /tmp/cc0x4OnX.s:182    .text:00000000000000d4 .L9
     /tmp/cc0x4OnX.s:329    .text:00000000000001c4 .L16
     /tmp/cc0x4OnX.s:367    .text:0000000000000220 .L17
GAS LISTING /tmp/cc0x4OnX.s 			page 28


     /tmp/cc0x4OnX.s:507    .text:0000000000000334 .L21
     /tmp/cc0x4OnX.s:644    .text:0000000000000418 .L27
     /tmp/cc0x4OnX.s:616    .text:00000000000003ec .L24
     /tmp/cc0x4OnX.s:682    .text:0000000000000474 .L28
     /tmp/cc0x4OnX.s:2444   .debug_abbrev:0000000000000000 .Ldebug_abbrev0
     /tmp/cc0x4OnX.s:4432   .debug_str:000000000000063c .LASF112
     /tmp/cc0x4OnX.s:4248   .debug_str:00000000000000d0 .LASF113
     /tmp/cc0x4OnX.s:4390   .debug_str:00000000000004f1 .LASF114
     /tmp/cc0x4OnX.s:5      .text:0000000000000000 .Ltext0
     /tmp/cc0x4OnX.s:788    .text:00000000000004e8 .Letext0
     /tmp/cc0x4OnX.s:4220   .debug_line:0000000000000000 .Ldebug_line0
     /tmp/cc0x4OnX.s:4348   .debug_str:00000000000003c3 .LASF0
     /tmp/cc0x4OnX.s:4362   .debug_str:0000000000000434 .LASF1
     /tmp/cc0x4OnX.s:4332   .debug_str:000000000000034d .LASF2
     /tmp/cc0x4OnX.s:4306   .debug_str:00000000000002a2 .LASF4
     /tmp/cc0x4OnX.s:4408   .debug_str:0000000000000575 .LASF3
     /tmp/cc0x4OnX.s:4244   .debug_str:00000000000000b9 .LASF5
     /tmp/cc0x4OnX.s:4366   .debug_str:0000000000000458 .LASF6
     /tmp/cc0x4OnX.s:4346   .debug_str:00000000000003b0 .LASF7
     /tmp/cc0x4OnX.s:4440   .debug_str:0000000000000727 .LASF8
     /tmp/cc0x4OnX.s:4288   .debug_str:0000000000000215 .LASF9
     /tmp/cc0x4OnX.s:4384   .debug_str:00000000000004be .LASF10
     /tmp/cc0x4OnX.s:4434   .debug_str:0000000000000700 .LASF11
     /tmp/cc0x4OnX.s:4246   .debug_str:00000000000000c0 .LASF12
     /tmp/cc0x4OnX.s:4230   .debug_str:0000000000000069 .LASF13
     /tmp/cc0x4OnX.s:4256   .debug_str:000000000000011f .LASF14
     /tmp/cc0x4OnX.s:4404   .debug_str:0000000000000554 .LASF15
     /tmp/cc0x4OnX.s:4268   .debug_str:0000000000000164 .LASF16
     /tmp/cc0x4OnX.s:4436   .debug_str:000000000000070f .LASF41
     /tmp/cc0x4OnX.s:4292   .debug_str:0000000000000229 .LASF115
     /tmp/cc0x4OnX.s:4376   .debug_str:000000000000049a .LASF17
     /tmp/cc0x4OnX.s:4338   .debug_str:0000000000000371 .LASF18
     /tmp/cc0x4OnX.s:4382   .debug_str:00000000000004b8 .LASF19
     /tmp/cc0x4OnX.s:4336   .debug_str:0000000000000364 .LASF20
     /tmp/cc0x4OnX.s:4324   .debug_str:000000000000030c .LASF21
     /tmp/cc0x4OnX.s:4374   .debug_str:000000000000048e .LASF22
     /tmp/cc0x4OnX.s:4358   .debug_str:000000000000040e .LASF23
     /tmp/cc0x4OnX.s:4424   .debug_str:000000000000060b .LASF24
     /tmp/cc0x4OnX.s:4410   .debug_str:0000000000000587 .LASF25
     /tmp/cc0x4OnX.s:4304   .debug_str:0000000000000296 .LASF26
     /tmp/cc0x4OnX.s:4278   .debug_str:00000000000001c6 .LASF27
     /tmp/cc0x4OnX.s:4430   .debug_str:0000000000000630 .LASF28
     /tmp/cc0x4OnX.s:4270   .debug_str:000000000000017a .LASF30
     /tmp/cc0x4OnX.s:4380   .debug_str:00000000000004ac .LASF47
     /tmp/cc0x4OnX.s:4400   .debug_str:0000000000000530 .LASF48
     /tmp/cc0x4OnX.s:4316   .debug_str:00000000000002c9 .LASF40
     /tmp/cc0x4OnX.s:4226   .debug_str:0000000000000023 .LASF42
     /tmp/cc0x4OnX.s:4398   .debug_str:000000000000052b .LASF34
     /tmp/cc0x4OnX.s:4326   .debug_str:0000000000000318 .LASF29
     /tmp/cc0x4OnX.s:4242   .debug_str:00000000000000a7 .LASF31
     /tmp/cc0x4OnX.s:4238   .debug_str:0000000000000096 .LASF32
     /tmp/cc0x4OnX.s:4310   .debug_str:00000000000002b4 .LASF33
     /tmp/cc0x4OnX.s:4234   .debug_str:0000000000000084 .LASF35
     /tmp/cc0x4OnX.s:4312   .debug_str:00000000000002b9 .LASF36
     /tmp/cc0x4OnX.s:4460   .debug_str:00000000000007cc .LASF37
     /tmp/cc0x4OnX.s:4354   .debug_str:00000000000003e2 .LASF38
     /tmp/cc0x4OnX.s:4290   .debug_str:0000000000000223 .LASF39
GAS LISTING /tmp/cc0x4OnX.s 			page 29


     /tmp/cc0x4OnX.s:4388   .debug_str:00000000000004da .LASF43
     /tmp/cc0x4OnX.s:4286   .debug_str:0000000000000206 .LASF44
     /tmp/cc0x4OnX.s:4372   .debug_str:0000000000000489 .LASF45
     /tmp/cc0x4OnX.s:4318   .debug_str:00000000000002d6 .LASF46
     /tmp/cc0x4OnX.s:4232   .debug_str:0000000000000079 .LASF61
     /tmp/cc0x4OnX.s:4282   .debug_str:00000000000001da .LASF63
     /tmp/cc0x4OnX.s:4414   .debug_str:00000000000005b4 .LASF49
     /tmp/cc0x4OnX.s:4350   .debug_str:00000000000003d0 .LASF50
     /tmp/cc0x4OnX.s:4280   .debug_str:00000000000001d5 .LASF51
     /tmp/cc0x4OnX.s:4334   .debug_str:000000000000035b .LASF52
     /tmp/cc0x4OnX.s:4284   .debug_str:00000000000001f3 .LASF75
     /tmp/cc0x4OnX.s:4418   .debug_str:00000000000005de .LASF56
     /tmp/cc0x4OnX.s:4426   .debug_str:000000000000061b .LASF53
     /tmp/cc0x4OnX.s:4450   .debug_str:000000000000077e .LASF54
     /tmp/cc0x4OnX.s:4224   .debug_str:0000000000000006 .LASF58
     /tmp/cc0x4OnX.s:4344   .debug_str:00000000000003a6 .LASF55
     /tmp/cc0x4OnX.s:4302   .debug_str:000000000000028c .LASF57
     /tmp/cc0x4OnX.s:4328   .debug_str:000000000000031d .LASF59
     /tmp/cc0x4OnX.s:4442   .debug_str:0000000000000737 .LASF60
     /tmp/cc0x4OnX.s:4448   .debug_str:0000000000000775 .LASF62
     /tmp/cc0x4OnX.s:4252   .debug_str:00000000000000ef .LASF64
     /tmp/cc0x4OnX.s:4314   .debug_str:00000000000002c1 .LASF65
     /tmp/cc0x4OnX.s:4296   .debug_str:000000000000024c .LASF66
     /tmp/cc0x4OnX.s:4438   .debug_str:0000000000000716 .LASF67
     /tmp/cc0x4OnX.s:4228   .debug_str:0000000000000048 .LASF68
     /tmp/cc0x4OnX.s:4452   .debug_str:0000000000000783 .LASF69
     /tmp/cc0x4OnX.s:4454   .debug_str:0000000000000796 .LASF70
     /tmp/cc0x4OnX.s:4322   .debug_str:00000000000002fe .LASF71
     /tmp/cc0x4OnX.s:4360   .debug_str:0000000000000423 .LASF72
     /tmp/cc0x4OnX.s:4370   .debug_str:0000000000000484 .LASF73
     /tmp/cc0x4OnX.s:4378   .debug_str:00000000000004a2 .LASF74
     /tmp/cc0x4OnX.s:4298   .debug_str:0000000000000264 .LASF76
     /tmp/cc0x4OnX.s:4392   .debug_str:0000000000000505 .LASF79
     /tmp/cc0x4OnX.s:4258   .debug_str:000000000000012b .LASF81
     /tmp/cc0x4OnX.s:4264   .debug_str:0000000000000157 .LASF77
     /tmp/cc0x4OnX.s:4254   .debug_str:0000000000000107 .LASF78
     /tmp/cc0x4OnX.s:4342   .debug_str:000000000000038b .LASF116
     /tmp/cc0x4OnX.s:4240   .debug_str:000000000000009c .LASF80
     /tmp/cc0x4OnX.s:4420   .debug_str:00000000000005e7 .LASF82
     /tmp/cc0x4OnX.s:4260   .debug_str:000000000000014b .LASF83
     /tmp/cc0x4OnX.s:4330   .debug_str:000000000000033b .LASF84
     /tmp/cc0x4OnX.s:4446   .debug_str:0000000000000760 .LASF85
     /tmp/cc0x4OnX.s:4294   .debug_str:000000000000022f .LASF86
     /tmp/cc0x4OnX.s:4444   .debug_str:0000000000000742 .LASF87
     /tmp/cc0x4OnX.s:4356   .debug_str:00000000000003ec .LASF88
     /tmp/cc0x4OnX.s:4412   .debug_str:0000000000000598 .LASF89
     /tmp/cc0x4OnX.s:4368   .debug_str:000000000000046b .LASF90
     /tmp/cc0x4OnX.s:559    .text:0000000000000390 .LFB20
     /tmp/cc0x4OnX.s:734    .text:00000000000004e8 .LFE20
     /tmp/cc0x4OnX.s:3576   .debug_loc:0000000000000000 .LLST27
     /tmp/cc0x4OnX.s:579    .text:00000000000003b0 .LBB43
     /tmp/cc0x4OnX.s:4188   .debug_ranges:0000000000000000 .Ldebug_ranges0
     /tmp/cc0x4OnX.s:3595   .debug_loc:000000000000005c .LLST28
     /tmp/cc0x4OnX.s:3610   .debug_loc:0000000000000096 .LLST29
     /tmp/cc0x4OnX.s:3625   .debug_loc:00000000000000de .LLST30
     /tmp/cc0x4OnX.s:653    .text:0000000000000428 .LVL80
     /tmp/cc0x4OnX.s:658    .text:0000000000000438 .LVL81
GAS LISTING /tmp/cc0x4OnX.s 			page 30


     /tmp/cc0x4OnX.s:663    .text:0000000000000448 .LVL82
     /tmp/cc0x4OnX.s:668    .text:0000000000000454 .LVL83
     /tmp/cc0x4OnX.s:673    .text:0000000000000464 .LVL84
     /tmp/cc0x4OnX.s:677    .text:000000000000046c .LVL85
     /tmp/cc0x4OnX.s:681    .text:0000000000000474 .LVL86
     /tmp/cc0x4OnX.s:596    .text:00000000000003cc .LBB46
     /tmp/cc0x4OnX.s:619    .text:00000000000003ec .LBE46
     /tmp/cc0x4OnX.s:604    .text:00000000000003d8 .LBB48
     /tmp/cc0x4OnX.s:612    .text:00000000000003e0 .LBE48
     /tmp/cc0x4OnX.s:3644   .debug_loc:000000000000011c .LLST31
     /tmp/cc0x4OnX.s:695    .text:000000000000048c .LBB52
     /tmp/cc0x4OnX.s:732    .text:00000000000004e8 .LBE52
     /tmp/cc0x4OnX.s:702    .text:000000000000049c .LVL89
     /tmp/cc0x4OnX.s:707    .text:00000000000004ac .LVL90
     /tmp/cc0x4OnX.s:712    .text:00000000000004bc .LVL91
     /tmp/cc0x4OnX.s:717    .text:00000000000004c8 .LVL92
     /tmp/cc0x4OnX.s:722    .text:00000000000004d8 .LVL93
     /tmp/cc0x4OnX.s:726    .text:00000000000004e0 .LVL94
     /tmp/cc0x4OnX.s:730    .text:00000000000004e8 .LVL95
     /tmp/cc0x4OnX.s:575    .text:00000000000003ac .LVL69
     /tmp/cc0x4OnX.s:591    .text:00000000000003c0 .LVL72
     /tmp/cc0x4OnX.s:594    .text:00000000000003cc .LVL73
     /tmp/cc0x4OnX.s:627    .text:0000000000000400 .LVL76
     /tmp/cc0x4OnX.s:689    .text:0000000000000484 .LVL87
     /tmp/cc0x4OnX.s:693    .text:000000000000048c .LVL88
     /tmp/cc0x4OnX.s:250    .text:000000000000014c .LFB19
     /tmp/cc0x4OnX.s:409    .text:000000000000027c .LFE19
     /tmp/cc0x4OnX.s:4394   .debug_str:0000000000000514 .LASF95
     /tmp/cc0x4OnX.s:3653   .debug_loc:0000000000000148 .LLST9
     /tmp/cc0x4OnX.s:3678   .debug_loc:00000000000001aa .LLST10
     /tmp/cc0x4OnX.s:3703   .debug_loc:000000000000020c .LLST11
     /tmp/cc0x4OnX.s:4272   .debug_str:0000000000000194 .LASF91
     /tmp/cc0x4OnX.s:3728   .debug_loc:000000000000026e .LLST12
     /tmp/cc0x4OnX.s:266    .text:0000000000000168 .LBB20
     /tmp/cc0x4OnX.s:3753   .debug_loc:00000000000002d0 .LLST13
     /tmp/cc0x4OnX.s:3768   .debug_loc:000000000000030a .LLST14
     /tmp/cc0x4OnX.s:3783   .debug_loc:0000000000000352 .LLST15
     /tmp/cc0x4OnX.s:338    .text:00000000000001d4 .LVL31
     /tmp/cc0x4OnX.s:343    .text:00000000000001e4 .LVL32
     /tmp/cc0x4OnX.s:348    .text:00000000000001f4 .LVL33
     /tmp/cc0x4OnX.s:353    .text:0000000000000200 .LVL34
     /tmp/cc0x4OnX.s:358    .text:0000000000000210 .LVL35
     /tmp/cc0x4OnX.s:362    .text:0000000000000218 .LVL36
     /tmp/cc0x4OnX.s:366    .text:0000000000000220 .LVL37
     /tmp/cc0x4OnX.s:286    .text:0000000000000188 .LBB23
     /tmp/cc0x4OnX.s:3810   .debug_loc:00000000000003ca .LLST16
     /tmp/cc0x4OnX.s:3825   .debug_loc:0000000000000404 .LLST17
     /tmp/cc0x4OnX.s:3840   .debug_loc:000000000000044c .LLST18
     /tmp/cc0x4OnX.s:377    .text:0000000000000230 .LVL39
     /tmp/cc0x4OnX.s:382    .text:0000000000000240 .LVL40
     /tmp/cc0x4OnX.s:387    .text:0000000000000250 .LVL41
     /tmp/cc0x4OnX.s:392    .text:000000000000025c .LVL42
     /tmp/cc0x4OnX.s:397    .text:000000000000026c .LVL43
     /tmp/cc0x4OnX.s:401    .text:0000000000000274 .LVL44
     /tmp/cc0x4OnX.s:405    .text:000000000000027c .LVL45
     /tmp/cc0x4OnX.s:4422   .debug_str:0000000000000603 .LASF92
     /tmp/cc0x4OnX.s:4300   .debug_str:0000000000000278 .LASF93
GAS LISTING /tmp/cc0x4OnX.s 			page 31


     /tmp/cc0x4OnX.s:10     .text:0000000000000000 .LFB18
     /tmp/cc0x4OnX.s:43     .text:0000000000000030 .LFE18
     /tmp/cc0x4OnX.s:4386   .debug_str:00000000000004cd .LASF94
     /tmp/cc0x4OnX.s:3870   .debug_loc:00000000000004a4 .LLST0
     /tmp/cc0x4OnX.s:3884   .debug_loc:00000000000004dd .LLST1
     /tmp/cc0x4OnX.s:3898   .debug_loc:0000000000000516 .LLST2
     /tmp/cc0x4OnX.s:28     .text:0000000000000018 .LVL2
     /tmp/cc0x4OnX.s:32     .text:0000000000000020 .LVL3
     /tmp/cc0x4OnX.s:129    .text:0000000000000080 .LFB17
     /tmp/cc0x4OnX.s:244    .text:000000000000014c .LFE17
     /tmp/cc0x4OnX.s:3912   .debug_loc:000000000000054f .LLST4
     /tmp/cc0x4OnX.s:4262   .debug_str:0000000000000151 .LASF96
     /tmp/cc0x4OnX.s:3941   .debug_loc:00000000000005c4 .LLST5
     /tmp/cc0x4OnX.s:148    .text:000000000000009c .LBB12
     /tmp/cc0x4OnX.s:3958   .debug_loc:0000000000000610 .LLST6
     /tmp/cc0x4OnX.s:3973   .debug_loc:000000000000064a .LLST7
     /tmp/cc0x4OnX.s:3988   .debug_loc:0000000000000692 .LLST8
     /tmp/cc0x4OnX.s:212    .text:0000000000000100 .LVL17
     /tmp/cc0x4OnX.s:217    .text:0000000000000110 .LVL18
     /tmp/cc0x4OnX.s:222    .text:0000000000000120 .LVL19
     /tmp/cc0x4OnX.s:227    .text:000000000000012c .LVL20
     /tmp/cc0x4OnX.s:232    .text:000000000000013c .LVL21
     /tmp/cc0x4OnX.s:236    .text:0000000000000144 .LVL22
     /tmp/cc0x4OnX.s:240    .text:000000000000014c .LVL23
     /tmp/cc0x4OnX.s:161    .text:00000000000000ac .LVL9
     /tmp/cc0x4OnX.s:165    .text:00000000000000bc .LVL10
     /tmp/cc0x4OnX.s:83     .text:000000000000005c .LFB16
     /tmp/cc0x4OnX.s:109    .text:0000000000000080 .LFE16
     /tmp/cc0x4OnX.s:415    .text:000000000000027c .LFB15
     /tmp/cc0x4OnX.s:548    .text:0000000000000390 .LFE15
     /tmp/cc0x4OnX.s:4007   .debug_loc:00000000000006d0 .LLST19
     /tmp/cc0x4OnX.s:4032   .debug_loc:0000000000000732 .LLST20
     /tmp/cc0x4OnX.s:4061   .debug_loc:00000000000007a7 .LLST21
     /tmp/cc0x4OnX.s:4090   .debug_loc:000000000000081c .LLST22
     /tmp/cc0x4OnX.s:4097   .debug_loc:000000000000083f .LLST23
     /tmp/cc0x4OnX.s:437    .text:00000000000002a4 .LBB30
     /tmp/cc0x4OnX.s:4108   .debug_loc:0000000000000875 .LLST24
     /tmp/cc0x4OnX.s:4121   .debug_loc:00000000000008ad .LLST25
     /tmp/cc0x4OnX.s:4136   .debug_loc:00000000000008f5 .LLST26
     /tmp/cc0x4OnX.s:516    .text:0000000000000344 .LVL62
     /tmp/cc0x4OnX.s:521    .text:0000000000000354 .LVL63
     /tmp/cc0x4OnX.s:526    .text:0000000000000364 .LVL64
     /tmp/cc0x4OnX.s:531    .text:0000000000000370 .LVL65
     /tmp/cc0x4OnX.s:536    .text:0000000000000380 .LVL66
     /tmp/cc0x4OnX.s:540    .text:0000000000000388 .LVL67
     /tmp/cc0x4OnX.s:544    .text:0000000000000390 .LVL68
     /tmp/cc0x4OnX.s:450    .text:00000000000002b8 .LVL49
     /tmp/cc0x4OnX.s:453    .text:00000000000002c4 .LVL50
     /tmp/cc0x4OnX.s:469    .text:00000000000002f0 .LVL52
     /tmp/cc0x4OnX.s:479    .text:0000000000000308 .LVL55
     /tmp/cc0x4OnX.s:484    .text:0000000000000314 .LVL56
     /tmp/cc0x4OnX.s:49     .text:0000000000000030 .LFB14
     /tmp/cc0x4OnX.s:77     .text:000000000000005c .LFE14
     /tmp/cc0x4OnX.s:4163   .debug_loc:000000000000096d .LLST3
     /tmp/cc0x4OnX.s:4396   .debug_str:0000000000000519 .LASF117
     /tmp/cc0x4OnX.s:4352   .debug_str:00000000000003d9 .LASF118
     /tmp/cc0x4OnX.s:4274   .debug_str:00000000000001a2 .LASF119
GAS LISTING /tmp/cc0x4OnX.s 			page 32


     /tmp/cc0x4OnX.s:4402   .debug_str:000000000000054c .LASF97
     /tmp/cc0x4OnX.s:4428   .debug_str:0000000000000620 .LASF98
     /tmp/cc0x4OnX.s:4222   .debug_str:0000000000000000 .LASF99
     /tmp/cc0x4OnX.s:4266   .debug_str:000000000000015f .LASF100
     /tmp/cc0x4OnX.s:4276   .debug_str:00000000000001c1 .LASF101
     /tmp/cc0x4OnX.s:4250   .debug_str:00000000000000df .LASF102
     /tmp/cc0x4OnX.s:4236   .debug_str:000000000000008c .LASF104
     /tmp/cc0x4OnX.s:4308   .debug_str:00000000000002a9 .LASF103
     /tmp/cc0x4OnX.s:4456   .debug_str:00000000000007b9 .LASF105
     /tmp/cc0x4OnX.s:4416   .debug_str:00000000000005ce .LASF106
     /tmp/cc0x4OnX.s:4406   .debug_str:000000000000056a .LASF107
     /tmp/cc0x4OnX.s:4340   .debug_str:000000000000037b .LASF108
     /tmp/cc0x4OnX.s:4320   .debug_str:00000000000002f3 .LASF109
     /tmp/cc0x4OnX.s:4364   .debug_str:0000000000000447 .LASF110
     /tmp/cc0x4OnX.s:4458   .debug_str:00000000000007c0 .LASF111
     /tmp/cc0x4OnX.s:639    .text:0000000000000410 .LVL77
     /tmp/cc0x4OnX.s:643    .text:0000000000000418 .LVL78
     /tmp/cc0x4OnX.s:651    .text:0000000000000420 .LVL79
     /tmp/cc0x4OnX.s:578    .text:00000000000003b0 .LVL70
     /tmp/cc0x4OnX.s:585    .text:00000000000003b8 .LVL71
     /tmp/cc0x4OnX.s:603    .text:00000000000003d8 .LVL74
     /tmp/cc0x4OnX.s:609    .text:00000000000003e0 .LVL75
     /tmp/cc0x4OnX.s:253    .text:000000000000014c .LVL24
     /tmp/cc0x4OnX.s:336    .text:00000000000001cc .LVL30
     /tmp/cc0x4OnX.s:375    .text:0000000000000228 .LVL38
     /tmp/cc0x4OnX.s:265    .text:0000000000000168 .LVL25
     /tmp/cc0x4OnX.s:271    .text:000000000000016c .LVL26
     /tmp/cc0x4OnX.s:328    .text:00000000000001c4 .LVL29
     /tmp/cc0x4OnX.s:285    .text:0000000000000188 .LVL27
     /tmp/cc0x4OnX.s:291    .text:000000000000018c .LVL28
     /tmp/cc0x4OnX.s:14     .text:0000000000000000 .LVL0
     /tmp/cc0x4OnX.s:26     .text:0000000000000014 .LVL1
     /tmp/cc0x4OnX.s:132    .text:0000000000000080 .LVL6
     /tmp/cc0x4OnX.s:198    .text:00000000000000e8 .LVL14
     /tmp/cc0x4OnX.s:202    .text:00000000000000f0 .LVL15
     /tmp/cc0x4OnX.s:210    .text:00000000000000f8 .LVL16
     /tmp/cc0x4OnX.s:172    .text:00000000000000c8 .LVL11
     /tmp/cc0x4OnX.s:181    .text:00000000000000d4 .LVL12
     /tmp/cc0x4OnX.s:187    .text:00000000000000d8 .LVL13
     /tmp/cc0x4OnX.s:147    .text:000000000000009c .LVL7
     /tmp/cc0x4OnX.s:155    .text:00000000000000a4 .LVL8
     /tmp/cc0x4OnX.s:418    .text:000000000000027c .LVL46
     /tmp/cc0x4OnX.s:506    .text:0000000000000334 .LVL60
     /tmp/cc0x4OnX.s:514    .text:000000000000033c .LVL61
     /tmp/cc0x4OnX.s:502    .text:000000000000032c .LVL59
     /tmp/cc0x4OnX.s:499    .text:0000000000000328 .LVL58
     /tmp/cc0x4OnX.s:455    .text:00000000000002c8 .LVL51
     /tmp/cc0x4OnX.s:496    .text:0000000000000324 .LVL57
     /tmp/cc0x4OnX.s:471    .text:00000000000002f4 .LVL53
     /tmp/cc0x4OnX.s:477    .text:0000000000000300 .LVL54
     /tmp/cc0x4OnX.s:436    .text:00000000000002a4 .LVL47
     /tmp/cc0x4OnX.s:444    .text:00000000000002b0 .LVL48
     /tmp/cc0x4OnX.s:52     .text:0000000000000030 .LVL4
     /tmp/cc0x4OnX.s:66     .text:000000000000004c .LVL5
     /tmp/cc0x4OnX.s:794    .debug_info:0000000000000000 .Ldebug_info0
     /tmp/cc0x4OnX.s:157    .text:00000000000000a4 .LBE12
     /tmp/cc0x4OnX.s:205    .text:00000000000000f0 .LBB15
GAS LISTING /tmp/cc0x4OnX.s 			page 33


     /tmp/cc0x4OnX.s:242    .text:000000000000014c .LBE15
     /tmp/cc0x4OnX.s:273    .text:000000000000016c .LBE20
     /tmp/cc0x4OnX.s:331    .text:00000000000001c4 .LBB26
     /tmp/cc0x4OnX.s:369    .text:0000000000000220 .LBE26
     /tmp/cc0x4OnX.s:293    .text:000000000000018c .LBE23
     /tmp/cc0x4OnX.s:370    .text:0000000000000220 .LBB27
     /tmp/cc0x4OnX.s:407    .text:000000000000027c .LBE27
     /tmp/cc0x4OnX.s:446    .text:00000000000002b0 .LBE30
     /tmp/cc0x4OnX.s:509    .text:0000000000000334 .LBB33
     /tmp/cc0x4OnX.s:546    .text:0000000000000390 .LBE33
     /tmp/cc0x4OnX.s:587    .text:00000000000003b8 .LBE43
     /tmp/cc0x4OnX.s:646    .text:0000000000000418 .LBB51
     /tmp/cc0x4OnX.s:684    .text:0000000000000474 .LBE51

UNDEFINED SYMBOLS
_Z11thread_exitv
_ZN8MemAlloc3getEv
_ZN8MemAlloc8allocMemEm
_Z9putStringPKc
_Z6putInti
_Z10putNewlinev
_Z10stopKernelv
_ZN9Scheduler3putEP6Thread
_ZN8MemAlloc7freeMemEPv
_ZN9Scheduler14dispatchToNextEv
