GAS LISTING /tmp/ccLJwVXV.s 			page 1


   1              		.file	"thread.cpp"
   2              		.option pic
   3              		.option norelax
   4              		.text
   5              	.Ltext0:
   6              		.align	2
   7              		.globl	_Z7wrappermPFvPvES_
   9              	_Z7wrappermPFvPvES_:
  10              	.LFB21:
  11              		.file 1 "src/thread.cpp"
   1:src/thread.cpp **** #include "../h/thread.h"
   2:src/thread.cpp **** #include "../h/alloc.h"
   3:src/thread.cpp **** #include "../h/scheduler.h"
   4:src/thread.cpp **** 
   5:src/thread.cpp **** IThread* IThread::pSleepHead = nullptr;
   6:src/thread.cpp **** uint64 IThread::timeSliceCounter = 0;
   7:src/thread.cpp **** 
   8:src/thread.cpp **** IThread* IThread::pRunning = nullptr;
   9:src/thread.cpp **** uint64** IThread::pRunningSp = nullptr;
  10:src/thread.cpp **** uint64 IThread::nrTotalThreads = 1;
  11:src/thread.cpp **** IThread* IThread::pAllThreads[MAX_NR_TOTAL_THREADS];
  12:src/thread.cpp **** uint64 IThread::initialUserMemoryUsage;
  13:src/thread.cpp **** //uint64* IThread::runningSp = nullptr;
  14:src/thread.cpp **** bool IThread::switchedToUserThread = 0;
  15:src/thread.cpp **** 
  16:src/thread.cpp **** void IThread::signalDone()
  17:src/thread.cpp **** {
  18:src/thread.cpp ****     IThread* pCur = pWaitingHead;
  19:src/thread.cpp **** 
  20:src/thread.cpp ****     while(pCur)
  21:src/thread.cpp ****     {
  22:src/thread.cpp ****         pCur->state = READY;
  23:src/thread.cpp ****         Scheduler::put(pCur);
  24:src/thread.cpp **** 
  25:src/thread.cpp ****         pCur = pCur->pNext;
  26:src/thread.cpp ****     }
  27:src/thread.cpp **** }
  28:src/thread.cpp **** 
  29:src/thread.cpp **** void IThread::join(uint64 id)
  30:src/thread.cpp **** {
  31:src/thread.cpp ****     IThread* oldRunning = IThread::getPRunning();
  32:src/thread.cpp **** 
  33:src/thread.cpp ****     IThread* t = pAllThreads[id];
  34:src/thread.cpp **** 
  35:src/thread.cpp ****     extern IThread kernelThread;
  36:src/thread.cpp ****     assert(oldRunning != &kernelThread); // you're only supposed to open user threads with system c
  37:src/thread.cpp **** 
  38:src/thread.cpp **** //    putU64(id);
  39:src/thread.cpp **** 
  40:src/thread.cpp ****     if(t->done == true)
  41:src/thread.cpp ****         return;
  42:src/thread.cpp **** 
  43:src/thread.cpp ****     if(t->pWaitingHead == nullptr)
  44:src/thread.cpp ****     {
  45:src/thread.cpp ****         t->pWaitingHead = oldRunning;
  46:src/thread.cpp ****     }
  47:src/thread.cpp ****     else
GAS LISTING /tmp/ccLJwVXV.s 			page 2


  48:src/thread.cpp ****     {
  49:src/thread.cpp ****         IThread* pCur = t->pWaitingHead;
  50:src/thread.cpp ****         while(pCur->pNext)
  51:src/thread.cpp ****         {
  52:src/thread.cpp ****             pCur = pCur->pNext;
  53:src/thread.cpp ****         }
  54:src/thread.cpp **** 
  55:src/thread.cpp ****         pCur->pNext = oldRunning;
  56:src/thread.cpp ****     }
  57:src/thread.cpp **** 
  58:src/thread.cpp ****     oldRunning->pNext = nullptr;
  59:src/thread.cpp ****     oldRunning->state = SUSPENDED;
  60:src/thread.cpp **** 
  61:src/thread.cpp ****     Scheduler::dispatchToNext();
  62:src/thread.cpp **** }
  63:src/thread.cpp **** 
  64:src/thread.cpp **** void IThread::switchToUser()
  65:src/thread.cpp **** {
  66:src/thread.cpp ****     uint64 scause;
  67:src/thread.cpp ****     __asm__ volatile ("csrr %[name], scause" : [name] "=r"(scause));
  68:src/thread.cpp ****     bool cameFromKernelMode = ((scause & (1 << 8)) == 0);
  69:src/thread.cpp **** 
  70:src/thread.cpp ****     if(!cameFromKernelMode) // if user thread calls this it does nothing
  71:src/thread.cpp ****     {
  72:src/thread.cpp ****         assert(false); // temp
  73:src/thread.cpp ****         assert(IThread::pRunning->id != 0);
  74:src/thread.cpp ****         return;
  75:src/thread.cpp ****     }
  76:src/thread.cpp **** 
  77:src/thread.cpp ****     assert(IThread::pRunning->id == 0);
  78:src/thread.cpp **** 
  79:src/thread.cpp ****     Scheduler* s = Scheduler::get(); // temp
  80:src/thread.cpp ****     assert(s); // temp
  81:src/thread.cpp **** 
  82:src/thread.cpp ****     Scheduler::dispatchToNext();
  83:src/thread.cpp **** 
  84:src/thread.cpp ****     assert(IThread::getPRunning()->id == 1);
  85:src/thread.cpp **** 
  86:src/thread.cpp **** //    __asm__ volatile ("csrs sstatus, 0x6"); // TODO: probably should be removed when i add permis
  87:src/thread.cpp **** //    __asm__ volatile ("mv x10, x10");
  88:src/thread.cpp **** //    __asm__ volatile ("mv x10, x10");
  89:src/thread.cpp **** //    __asm__ volatile ("mv x10, x10");
  90:src/thread.cpp **** //    putString("KITA PENIS");
  91:src/thread.cpp **** 
  92:src/thread.cpp **** //    __asm__ volatile ("csrc sstatus, 0x9");
  93:src/thread.cpp **** //    __asm__ volatile ("csrc sstatus, 0x8");
  94:src/thread.cpp **** //    __asm__ volatile ("csrw sstatus, 0"); // TODO: radi preko csrc jer ovako menjam sve
  95:src/thread.cpp **** }
  96:src/thread.cpp **** 
  97:src/thread.cpp **** void IThread::setPRunning(IThread* p)
  98:src/thread.cpp **** {
  99:src/thread.cpp ****     pRunning = p;
 100:src/thread.cpp ****     pRunningSp = &(p->sp);
 101:src/thread.cpp **** }
 102:src/thread.cpp **** 
 103:src/thread.cpp **** int IThread::createThread(uint64* id, Body body, void* arg)
 104:src/thread.cpp **** {
GAS LISTING /tmp/ccLJwVXV.s 			page 3


 105:src/thread.cpp ****     assert(nrTotalThreads < MAX_NR_TOTAL_THREADS);
 106:src/thread.cpp **** 
 107:src/thread.cpp ****     IThread* t = (IThread*)MemAlloc::get()->allocMem(sizeof(IThread));
 108:src/thread.cpp ****     pAllThreads[nrTotalThreads] = t;
 109:src/thread.cpp **** 
 110:src/thread.cpp ****     t->pStackStart = nullptr;
 111:src/thread.cpp ****     void* pLogicalStack = t->allocStack();
 112:src/thread.cpp **** 
 113:src/thread.cpp ****     t->init(body, arg, pLogicalStack);
 114:src/thread.cpp **** 
 115:src/thread.cpp ****     *id = t->id;
 116:src/thread.cpp **** 
 117:src/thread.cpp ****     Scheduler::put(t);
 118:src/thread.cpp **** 
 119:src/thread.cpp ****     return 0;
 120:src/thread.cpp **** }
 121:src/thread.cpp **** 
 122:src/thread.cpp **** IThread* IThread::getPRunning()
 123:src/thread.cpp **** {
 124:src/thread.cpp ****     __asm__ volatile("mv x10, x10"); // to avoid inline
 125:src/thread.cpp ****     return pRunning;
 126:src/thread.cpp **** }
 127:src/thread.cpp **** 
 128:src/thread.cpp **** void* IThread::allocStack()
 129:src/thread.cpp **** {
 130:src/thread.cpp ****     assert(pStackStart == nullptr); // error: this threads stack may have already been allocated
 131:src/thread.cpp **** 
 132:src/thread.cpp ****     pStackStart = MemAlloc::get()->allocMem(ACTUAL_STACK_SIZE);
 133:src/thread.cpp ****     uint64 stack =  (uint64)pStackStart + ACTUAL_STACK_SIZE;
 134:src/thread.cpp **** 
 135:src/thread.cpp ****     if(stack % 16 != 0)
 136:src/thread.cpp ****     {
 137:src/thread.cpp ****         stack -= stack % 16;
 138:src/thread.cpp ****     }
 139:src/thread.cpp **** 
 140:src/thread.cpp ****     stack -= 34*8; // for the initial context (necessary to avoid exceptions from reading from unal
 141:src/thread.cpp **** 
 142:src/thread.cpp ****     return (void*)stack;
 143:src/thread.cpp **** 
 144:src/thread.cpp **** }
 145:src/thread.cpp **** 
 146:src/thread.cpp **** void wrapper(uint64 __DO_NOT_USE, IThread::Body body, void* arg) // this entire function can be run
 147:src/thread.cpp **** {
  12              		.loc 1 147 1
  13              		.cfi_startproc
  14              	.LVL0:
  15 0000 130101FF 		addi	sp,sp,-16
  16              		.cfi_def_cfa_offset 16
  17 0004 23341100 		sd	ra,8(sp)
  18 0008 23308100 		sd	s0,0(sp)
  19              		.cfi_offset 1, -8
  20              		.cfi_offset 8, -16
  21 000c 13040101 		addi	s0,sp,16
  22              		.cfi_def_cfa 8, 0
 148:src/thread.cpp ****     (*body)(arg);
  23              		.loc 1 148 5
  24              		.loc 1 148 12 is_stmt 0
GAS LISTING /tmp/ccLJwVXV.s 			page 4


  25 0010 13050600 		mv	a0,a2
  26              	.LVL1:
  27 0014 E7800500 		jalr	a1
  28              	.LVL2:
 149:src/thread.cpp ****     thread_exit();
  29              		.loc 1 149 5 is_stmt 1
  30              		.loc 1 149 16 is_stmt 0
  31 0018 97000000 		call	_Z11thread_exitv@plt
  31      E7800000 
  32              	.LVL3:
 150:src/thread.cpp **** }
  33              		.loc 1 150 1
  34 0020 83308100 		ld	ra,8(sp)
  35              		.cfi_restore 1
  36 0024 03340100 		ld	s0,0(sp)
  37              		.cfi_restore 8
  38              		.cfi_def_cfa 2, 16
  39 0028 13010101 		addi	sp,sp,16
  40              		.cfi_def_cfa_offset 0
  41 002c 67800000 		jr	ra
  42              		.cfi_endproc
  43              	.LFE21:
  45              		.align	2
  46              		.globl	_ZN7IThread10signalDoneEv
  48              	_ZN7IThread10signalDoneEv:
  49              	.LFB14:
  17:src/thread.cpp ****     IThread* pCur = pWaitingHead;
  50              		.loc 1 17 1 is_stmt 1
  51              		.cfi_startproc
  52              	.LVL4:
  53 0030 130101FE 		addi	sp,sp,-32
  54              		.cfi_def_cfa_offset 32
  55 0034 233C1100 		sd	ra,24(sp)
  56 0038 23388100 		sd	s0,16(sp)
  57 003c 23349100 		sd	s1,8(sp)
  58              		.cfi_offset 1, -8
  59              		.cfi_offset 8, -16
  60              		.cfi_offset 9, -24
  61 0040 13040102 		addi	s0,sp,32
  62              		.cfi_def_cfa 8, 0
  18:src/thread.cpp **** 
  63              		.loc 1 18 5
  18:src/thread.cpp **** 
  64              		.loc 1 18 14 is_stmt 0
  65 0044 83348503 		ld	s1,56(a0)
  66              	.LVL5:
  67              	.L5:
  20:src/thread.cpp ****     {
  68              		.loc 1 20 5 is_stmt 1
  20:src/thread.cpp ****     {
  69              		.loc 1 20 11
  70 0048 63800402 		beqz	s1,.L3
  22:src/thread.cpp ****         Scheduler::put(pCur);
  71              		.loc 1 22 9
  22:src/thread.cpp ****         Scheduler::put(pCur);
  72              		.loc 1 22 21 is_stmt 0
  73 004c 93072000 		li	a5,2
GAS LISTING /tmp/ccLJwVXV.s 			page 5


  74 0050 23A0F400 		sw	a5,0(s1)
  23:src/thread.cpp **** 
  75              		.loc 1 23 9 is_stmt 1
  23:src/thread.cpp **** 
  76              		.loc 1 23 23 is_stmt 0
  77 0054 13850400 		mv	a0,s1
  78 0058 97000000 		call	_ZN9Scheduler3putEP7IThread@plt
  78      E7800000 
  79              	.LVL6:
  25:src/thread.cpp ****     }
  80              		.loc 1 25 9 is_stmt 1
  25:src/thread.cpp ****     }
  81              		.loc 1 25 14 is_stmt 0
  82 0060 83B40403 		ld	s1,48(s1)
  83              	.LVL7:
  20:src/thread.cpp ****     {
  84              		.loc 1 20 5
  85 0064 6FF05FFE 		j	.L5
  86              	.L3:
  27:src/thread.cpp **** 
  87              		.loc 1 27 1
  88 0068 83308101 		ld	ra,24(sp)
  89              		.cfi_restore 1
  90 006c 03340101 		ld	s0,16(sp)
  91              		.cfi_restore 8
  92              		.cfi_def_cfa 2, 32
  93 0070 83348100 		ld	s1,8(sp)
  94              		.cfi_restore 9
  95              	.LVL8:
  96 0074 13010102 		addi	sp,sp,32
  97              		.cfi_def_cfa_offset 0
  98 0078 67800000 		jr	ra
  99              		.cfi_endproc
 100              	.LFE14:
 102              		.align	2
 103              		.globl	_ZN7IThread11setPRunningEPS_
 105              	_ZN7IThread11setPRunningEPS_:
 106              	.LFB17:
  98:src/thread.cpp ****     pRunning = p;
 107              		.loc 1 98 1 is_stmt 1
 108              		.cfi_startproc
 109              	.LVL9:
 110 007c 130101FF 		addi	sp,sp,-16
 111              		.cfi_def_cfa_offset 16
 112 0080 23348100 		sd	s0,8(sp)
 113              		.cfi_offset 8, -8
 114 0084 13040101 		addi	s0,sp,16
 115              		.cfi_def_cfa 8, 0
  99:src/thread.cpp ****     pRunningSp = &(p->sp);
 116              		.loc 1 99 5
  99:src/thread.cpp ****     pRunningSp = &(p->sp);
 117              		.loc 1 99 14 is_stmt 0
 118 0088 97070000 		lla	a5,.LANCHOR0
 118      93870700 
 119 0090 23B0A700 		sd	a0,0(a5)
 100:src/thread.cpp **** }
 120              		.loc 1 100 5 is_stmt 1
GAS LISTING /tmp/ccLJwVXV.s 			page 6


 100:src/thread.cpp **** }
 121              		.loc 1 100 18 is_stmt 0
 122 0094 13058504 		addi	a0,a0,72
 123              	.LVL10:
 100:src/thread.cpp **** }
 124              		.loc 1 100 16
 125 0098 23B4A700 		sd	a0,8(a5)
 101:src/thread.cpp **** 
 126              		.loc 1 101 1
 127 009c 03348100 		ld	s0,8(sp)
 128              		.cfi_restore 8
 129              		.cfi_def_cfa 2, 16
 130 00a0 13010101 		addi	sp,sp,16
 131              		.cfi_def_cfa_offset 0
 132 00a4 67800000 		jr	ra
 133              		.cfi_endproc
 134              	.LFE17:
 136              		.align	2
 137              		.globl	_ZN7IThread11getPRunningEv
 139              	_ZN7IThread11getPRunningEv:
 140              	.LFB19:
 123:src/thread.cpp ****     __asm__ volatile("mv x10, x10"); // to avoid inline
 141              		.loc 1 123 1 is_stmt 1
 142              		.cfi_startproc
 143 00a8 130101FF 		addi	sp,sp,-16
 144              		.cfi_def_cfa_offset 16
 145 00ac 23348100 		sd	s0,8(sp)
 146              		.cfi_offset 8, -8
 147 00b0 13040101 		addi	s0,sp,16
 148              		.cfi_def_cfa 8, 0
 124:src/thread.cpp ****     return pRunning;
 149              		.loc 1 124 5
 124:src/thread.cpp ****     return pRunning;
 150              		.loc 1 124 36 is_stmt 0
 151              	#APP
 152              	# 124 "src/thread.cpp" 1
 125:src/thread.cpp **** }
 153              		mv x10, x10
 154              	# 0 "" 2
 155              		.loc 1 125 5 is_stmt 1
 126:src/thread.cpp **** 
 156              		.loc 1 126 1 is_stmt 0
 157              	#NO_APP
 158 00b8 17050000 		ld	a0,.LANCHOR0
 158      03350500 
 159 00c0 03348100 		ld	s0,8(sp)
 160              		.cfi_restore 8
 161              		.cfi_def_cfa 2, 16
 162 00c4 13010101 		addi	sp,sp,16
 163              		.cfi_def_cfa_offset 0
 164 00c8 67800000 		jr	ra
 165              		.cfi_endproc
 166              	.LFE19:
 168              		.section	.rodata.str1.8,"aMS",@progbits,1
 169              		.align	3
 170              	.LC0:
 171 0000 3D3D3D3D 		.string	"===================== ASSERT file: "
GAS LISTING /tmp/ccLJwVXV.s 			page 7


 171      3D3D3D3D 
 171      3D3D3D3D 
 171      3D3D3D3D 
 171      3D3D3D3D 
 172 0024 00000000 		.align	3
 173              	.LC1:
 174 0028 7372632F 		.string	"src/thread.cpp"
 174      74687265 
 174      61642E63 
 174      707000
 175 0037 00       		.align	3
 176              	.LC2:
 177 0038 20202020 		.string	"    line: "
 177      6C696E65 
 177      3A2000
 178 0043 00000000 		.align	3
 178      00
 179              	.LC3:
 180 0048 2020203D 		.string	"   ==========================="
 180      3D3D3D3D 
 180      3D3D3D3D 
 180      3D3D3D3D 
 180      3D3D3D3D 
 181              		.text
 182              		.align	2
 183              		.globl	_ZN7IThread4joinEm
 185              	_ZN7IThread4joinEm:
 186              	.LFB15:
  30:src/thread.cpp ****     IThread* oldRunning = IThread::getPRunning();
 187              		.loc 1 30 1 is_stmt 1
 188              		.cfi_startproc
 189              	.LVL11:
 190 00cc 130101FE 		addi	sp,sp,-32
 191              		.cfi_def_cfa_offset 32
 192 00d0 233C1100 		sd	ra,24(sp)
 193 00d4 23388100 		sd	s0,16(sp)
 194 00d8 23349100 		sd	s1,8(sp)
 195              		.cfi_offset 1, -8
 196              		.cfi_offset 8, -16
 197              		.cfi_offset 9, -24
 198 00dc 13040102 		addi	s0,sp,32
 199              		.cfi_def_cfa 8, 0
 200 00e0 93040500 		mv	s1,a0
  31:src/thread.cpp **** 
 201              		.loc 1 31 5
  31:src/thread.cpp **** 
 202              		.loc 1 31 47 is_stmt 0
 203 00e4 97000000 		call	_ZN7IThread11getPRunningEv
 203      E7800000 
 204              	.LVL12:
  33:src/thread.cpp **** 
 205              		.loc 1 33 5 is_stmt 1
  33:src/thread.cpp **** 
 206              		.loc 1 33 14 is_stmt 0
 207 00ec 93943400 		slli	s1,s1,3
 208              	.LVL13:
 209 00f0 97070000 		lla	a5,.LANCHOR0
GAS LISTING /tmp/ccLJwVXV.s 			page 8


 209      93870700 
 210 00f8 B3849700 		add	s1,a5,s1
 211 00fc 03B70401 		ld	a4,16(s1)
 212              	.LVL14:
  35:src/thread.cpp ****     assert(oldRunning != &kernelThread); // you're only supposed to open user threads with system c
 213              		.loc 1 35 5 is_stmt 1
  36:src/thread.cpp **** 
 214              		.loc 1 36 5
 215 0100 97070000 		la	a5,kernelThread
 215      83B70700 
 216              	.LVL15:
 217              	.LBB21:
 218              	.LBB22:
 219              		.file 2 "src/../h/../h/my_console.h"
   1:src/../h/../h/my_console.h **** #pragma once
   2:src/../h/../h/my_console.h **** 
   3:src/../h/../h/my_console.h **** #include "../h/risc.h"
   4:src/../h/../h/my_console.h **** 
   5:src/../h/../h/my_console.h **** #include "../lib/hw.h"
   6:src/../h/../h/my_console.h **** 
   7:src/../h/../h/my_console.h **** #define __DEBUG_MODE
   8:src/../h/../h/my_console.h **** 
   9:src/../h/../h/my_console.h **** 
  10:src/../h/../h/my_console.h **** void putString(const char* s);
  11:src/../h/../h/my_console.h **** void putInt(int n);
  12:src/../h/../h/my_console.h **** void putNewline();
  13:src/../h/../h/my_console.h **** void putU64(uint64 n);
  14:src/../h/../h/my_console.h **** void putBinary(uint64 n);
  15:src/../h/../h/my_console.h **** 
  16:src/../h/../h/my_console.h **** [[noreturn]] void stopKernel();
  17:src/../h/../h/my_console.h **** 
  18:src/../h/../h/my_console.h **** inline void _assert(bool valid, const char* file, int line) // MUST be inline
  19:src/../h/../h/my_console.h **** {
  20:src/../h/../h/my_console.h ****     if(valid)
 220              		.loc 2 20 5
 221 0108 6306F504 		beq	a0,a5,.L17
  21:src/../h/../h/my_console.h ****         return;
 222              		.loc 2 21 9
 223              	.LVL16:
 224              	.LBE22:
 225              	.LBE21:
  40:src/thread.cpp ****         return;
 226              		.loc 1 40 5
  40:src/thread.cpp ****         return;
 227              		.loc 1 40 11 is_stmt 0
 228 010c 83470704 		lbu	a5,64(a4)
  40:src/thread.cpp ****         return;
 229              		.loc 1 40 5
 230 0110 63980702 		bnez	a5,.L11
  43:src/thread.cpp ****     {
 231              		.loc 1 43 5 is_stmt 1
 232              	.LBB24:
  43:src/thread.cpp ****     {
 233              		.loc 1 43 11 is_stmt 0
 234 0114 83378703 		ld	a5,56(a4)
  43:src/thread.cpp ****     {
 235              		.loc 1 43 5
GAS LISTING /tmp/ccLJwVXV.s 			page 9


 236 0118 638C0708 		beqz	a5,.L18
 237              	.LVL17:
 238              	.L14:
 239              	.LBB25:
  50:src/thread.cpp ****         {
 240              		.loc 1 50 9 is_stmt 1
  50:src/thread.cpp ****         {
 241              		.loc 1 50 21
 242 011c 13870700 		mv	a4,a5
 243 0120 83B70703 		ld	a5,48(a5)
 244              	.LVL18:
 245 0124 E39C07FE 		bnez	a5,.L14
  55:src/thread.cpp ****     }
 246              		.loc 1 55 9
  55:src/thread.cpp ****     }
 247              		.loc 1 55 21 is_stmt 0
 248 0128 2338A702 		sd	a0,48(a4)
 249              	.LVL19:
 250              	.L15:
 251              	.LBE25:
 252              	.LBE24:
  58:src/thread.cpp ****     oldRunning->state = SUSPENDED;
 253              		.loc 1 58 5 is_stmt 1
  58:src/thread.cpp ****     oldRunning->state = SUSPENDED;
 254              		.loc 1 58 23 is_stmt 0
 255 012c 23380502 		sd	zero,48(a0)
  59:src/thread.cpp **** 
 256              		.loc 1 59 5 is_stmt 1
  59:src/thread.cpp **** 
 257              		.loc 1 59 23 is_stmt 0
 258 0130 93071000 		li	a5,1
 259 0134 2320F500 		sw	a5,0(a0)
  61:src/thread.cpp **** }
 260              		.loc 1 61 5 is_stmt 1
  61:src/thread.cpp **** }
 261              		.loc 1 61 30 is_stmt 0
 262 0138 97000000 		call	_ZN9Scheduler14dispatchToNextEv@plt
 262      E7800000 
 263              	.LVL20:
 264              	.L11:
  62:src/thread.cpp **** 
 265              		.loc 1 62 1
 266 0140 83308101 		ld	ra,24(sp)
 267              		.cfi_remember_state
 268              		.cfi_restore 1
 269 0144 03340101 		ld	s0,16(sp)
 270              		.cfi_restore 8
 271              		.cfi_def_cfa 2, 32
 272 0148 83348100 		ld	s1,8(sp)
 273              		.cfi_restore 9
 274 014c 13010102 		addi	sp,sp,32
 275              		.cfi_def_cfa_offset 0
 276 0150 67800000 		jr	ra
 277              	.LVL21:
 278              	.L17:
 279              		.cfi_restore_state
 280              	.LBB26:
GAS LISTING /tmp/ccLJwVXV.s 			page 10


 281              	.LBB23:
  22:src/../h/../h/my_console.h **** 
  23:src/../h/../h/my_console.h ****     putString("===================== ASSERT file: ");
 282              		.loc 2 23 5 is_stmt 1
 283              		.loc 2 23 14 is_stmt 0
 284 0154 17050000 		lla	a0,.LC0
 284      13050500 
 285              	.LVL22:
 286 015c 97000000 		call	_Z9putStringPKc@plt
 286      E7800000 
 287              	.LVL23:
  24:src/../h/../h/my_console.h ****     putString(file);
 288              		.loc 2 24 5 is_stmt 1
 289              		.loc 2 24 14 is_stmt 0
 290 0164 17050000 		lla	a0,.LC1
 290      13050500 
 291 016c 97000000 		call	_Z9putStringPKc@plt
 291      E7800000 
 292              	.LVL24:
  25:src/../h/../h/my_console.h ****     putString("    line: ");
 293              		.loc 2 25 5 is_stmt 1
 294              		.loc 2 25 14 is_stmt 0
 295 0174 17050000 		lla	a0,.LC2
 295      13050500 
 296 017c 97000000 		call	_Z9putStringPKc@plt
 296      E7800000 
 297              	.LVL25:
  26:src/../h/../h/my_console.h ****     putInt(line);
 298              		.loc 2 26 5 is_stmt 1
 299              		.loc 2 26 11 is_stmt 0
 300 0184 13054002 		li	a0,36
 301 0188 97000000 		call	_Z6putInti@plt
 301      E7800000 
 302              	.LVL26:
  27:src/../h/../h/my_console.h ****     putString("   ===========================");
 303              		.loc 2 27 5 is_stmt 1
 304              		.loc 2 27 14 is_stmt 0
 305 0190 17050000 		lla	a0,.LC3
 305      13050500 
 306 0198 97000000 		call	_Z9putStringPKc@plt
 306      E7800000 
 307              	.LVL27:
  28:src/../h/../h/my_console.h ****     putNewline();
 308              		.loc 2 28 5 is_stmt 1
 309              		.loc 2 28 15 is_stmt 0
 310 01a0 97000000 		call	_Z10putNewlinev@plt
 310      E7800000 
 311              	.LVL28:
  29:src/../h/../h/my_console.h **** 
  30:src/../h/../h/my_console.h ****     stopKernel();
 312              		.loc 2 30 5 is_stmt 1
 313              		.loc 2 30 15 is_stmt 0
 314 01a8 97000000 		call	_Z10stopKernelv@plt
 314      E7800000 
 315              	.LVL29:
 316              	.L18:
 317              	.LBE23:
GAS LISTING /tmp/ccLJwVXV.s 			page 11


 318              	.LBE26:
 319              	.LBB27:
  45:src/thread.cpp ****     }
 320              		.loc 1 45 9 is_stmt 1
  45:src/thread.cpp ****     }
 321              		.loc 1 45 25 is_stmt 0
 322 01b0 233CA702 		sd	a0,56(a4)
 323 01b4 6FF09FF7 		j	.L15
 324              	.LBE27:
 325              		.cfi_endproc
 326              	.LFE15:
 328              		.align	2
 329              		.globl	_ZN7IThread12switchToUserEv
 331              	_ZN7IThread12switchToUserEv:
 332              	.LFB16:
  65:src/thread.cpp ****     uint64 scause;
 333              		.loc 1 65 1 is_stmt 1
 334              		.cfi_startproc
 335 01b8 130101FF 		addi	sp,sp,-16
 336              		.cfi_def_cfa_offset 16
 337 01bc 23341100 		sd	ra,8(sp)
 338 01c0 23308100 		sd	s0,0(sp)
 339              		.cfi_offset 1, -8
 340              		.cfi_offset 8, -16
 341 01c4 13040101 		addi	s0,sp,16
 342              		.cfi_def_cfa 8, 0
  66:src/thread.cpp ****     __asm__ volatile ("csrr %[name], scause" : [name] "=r"(scause));
 343              		.loc 1 66 5
  67:src/thread.cpp ****     bool cameFromKernelMode = ((scause & (1 << 8)) == 0);
 344              		.loc 1 67 5
  67:src/thread.cpp ****     bool cameFromKernelMode = ((scause & (1 << 8)) == 0);
 345              		.loc 1 67 68 is_stmt 0
 346              	#APP
 347              	# 67 "src/thread.cpp" 1
 348              		csrr a5, scause
 349              	# 0 "" 2
 350              	.LVL30:
  68:src/thread.cpp **** 
 351              		.loc 1 68 5 is_stmt 1
  68:src/thread.cpp **** 
 352              		.loc 1 68 40 is_stmt 0
 353              	#NO_APP
 354 01cc 93F70710 		andi	a5,a5,256
 355              	.LVL31:
  70:src/thread.cpp ****     {
 356              		.loc 1 70 5 is_stmt 1
 357 01d0 63900706 		bnez	a5,.L25
  77:src/thread.cpp **** 
 358              		.loc 1 77 5
 359 01d4 97070000 		ld	a5,.LANCHOR0
 359      83B70700 
 360              	.LVL32:
 361 01dc 83B78702 		ld	a5,40(a5)
 362              	.LVL33:
 363              	.LBB43:
 364              	.LBB44:
  20:src/../h/../h/my_console.h ****         return;
GAS LISTING /tmp/ccLJwVXV.s 			page 12


 365              		.loc 2 20 5
 366 01e0 6396070A 		bnez	a5,.L26
  21:src/../h/../h/my_console.h **** 
 367              		.loc 2 21 9
 368              	.LVL34:
 369              	.LBE44:
 370              	.LBE43:
  79:src/thread.cpp ****     assert(s); // temp
 371              		.loc 1 79 5
 372              	.LBB46:
 373              	.LBB47:
 374              		.file 3 "src/../h/scheduler.h"
   1:src/../h/scheduler.h **** #pragma once
   2:src/../h/scheduler.h **** 
   3:src/../h/scheduler.h **** #include "../h/thread.h"
   4:src/../h/scheduler.h **** 
   5:src/../h/scheduler.h **** class Scheduler // singleton
   6:src/../h/scheduler.h **** {
   7:src/../h/scheduler.h **** public:
   8:src/../h/scheduler.h ****     static Scheduler* get()
   9:src/../h/scheduler.h ****     {
  10:src/../h/scheduler.h ****         static Scheduler instance;
 375              		.loc 3 10 9
 376              		.loc 3 10 26 is_stmt 0
 377 01e4 97070000 		lbu	a5,_ZGVZN9Scheduler3getEvE8instance
 377      83C70700 
 378 01ec 639C0700 		bnez	a5,.L22
 379              	.LVL35:
 380              	.LBB48:
 381              	.LBB49:
 382              	.LBB50:
  11:src/../h/scheduler.h ****         return &instance;
  12:src/../h/scheduler.h ****     }
  13:src/../h/scheduler.h **** 
  14:src/../h/scheduler.h ****     static void dispatchToNext(); // WARNING: different than sys. call dispatch()
  15:src/../h/scheduler.h ****     static void dispatchUserVersion();
  16:src/../h/scheduler.h ****     static IThread* getNext();
  17:src/../h/scheduler.h ****     static void put(IThread*);
  18:src/../h/scheduler.h ****     static void printState();
  19:src/../h/scheduler.h **** 
  20:src/../h/scheduler.h ****     IThread* pHead; // points to the one that is the next to be run
  21:src/../h/scheduler.h **** 
  22:src/../h/scheduler.h **** private:
  23:src/../h/scheduler.h ****     Scheduler()
  24:src/../h/scheduler.h ****         : pHead(nullptr)
 383              		.loc 3 24 24
 384 01f0 97070000 		sd	zero,_ZZN9Scheduler3getEvE8instance,a5
 384      23B00700 
 385              	.LVL36:
 386              	.LBE50:
 387              	.LBE49:
 388              	.LBE48:
  10:src/../h/scheduler.h ****         return &instance;
 389              		.loc 3 10 26
 390 01f8 93071000 		li	a5,1
 391 01fc 17070000 		sb	a5,_ZGVZN9Scheduler3getEvE8instance,a4
 391      2300F700 
GAS LISTING /tmp/ccLJwVXV.s 			page 13


 392              	.L22:
  11:src/../h/scheduler.h ****         return &instance;
 393              		.loc 3 11 9 is_stmt 1
 394              	.LVL37:
 395              	.LBE47:
 396              	.LBE46:
  80:src/thread.cpp **** 
 397              		.loc 1 80 5
  20:src/../h/../h/my_console.h ****         return;
 398              		.loc 2 20 5
  21:src/../h/../h/my_console.h **** 
 399              		.loc 2 21 9
  82:src/thread.cpp **** 
 400              		.loc 1 82 5
  82:src/thread.cpp **** 
 401              		.loc 1 82 30 is_stmt 0
 402 0204 97000000 		call	_ZN9Scheduler14dispatchToNextEv@plt
 402      E7800000 
 403              	.LVL38:
  84:src/thread.cpp **** 
 404              		.loc 1 84 5 is_stmt 1
 405 020c 97000000 		call	_ZN7IThread11getPRunningEv
 405      E7800000 
 406              	.LVL39:
 407 0214 83378502 		ld	a5,40(a0)
 408 0218 9387F7FF 		addi	a5,a5,-1
 409              	.LVL40:
 410              	.LBB51:
 411              	.LBB52:
  20:src/../h/../h/my_console.h ****         return;
 412              		.loc 2 20 5
 413 021c 6396070C 		bnez	a5,.L27
 414              	.LBE52:
 415              	.LBE51:
  95:src/thread.cpp **** 
 416              		.loc 1 95 1 is_stmt 0
 417 0220 83308100 		ld	ra,8(sp)
 418              		.cfi_remember_state
 419              		.cfi_restore 1
 420 0224 03340100 		ld	s0,0(sp)
 421              		.cfi_restore 8
 422              		.cfi_def_cfa 2, 16
 423 0228 13010101 		addi	sp,sp,16
 424              		.cfi_def_cfa_offset 0
 425 022c 67800000 		jr	ra
 426              	.LVL41:
 427              	.L25:
 428              		.cfi_restore_state
  72:src/thread.cpp ****         assert(IThread::pRunning->id != 0);
 429              		.loc 1 72 9 is_stmt 1
 430              	.LBB54:
 431              	.LBB55:
  20:src/../h/../h/my_console.h ****         return;
 432              		.loc 2 20 5
  23:src/../h/../h/my_console.h ****     putString(file);
 433              		.loc 2 23 5
  23:src/../h/../h/my_console.h ****     putString(file);
GAS LISTING /tmp/ccLJwVXV.s 			page 14


 434              		.loc 2 23 14 is_stmt 0
 435 0230 17050000 		lla	a0,.LC0
 435      13050500 
 436 0238 97000000 		call	_Z9putStringPKc@plt
 436      E7800000 
 437              	.LVL42:
  24:src/../h/../h/my_console.h ****     putString("    line: ");
 438              		.loc 2 24 5 is_stmt 1
  24:src/../h/../h/my_console.h ****     putString("    line: ");
 439              		.loc 2 24 14 is_stmt 0
 440 0240 17050000 		lla	a0,.LC1
 440      13050500 
 441 0248 97000000 		call	_Z9putStringPKc@plt
 441      E7800000 
 442              	.LVL43:
  25:src/../h/../h/my_console.h ****     putInt(line);
 443              		.loc 2 25 5 is_stmt 1
  25:src/../h/../h/my_console.h ****     putInt(line);
 444              		.loc 2 25 14 is_stmt 0
 445 0250 17050000 		lla	a0,.LC2
 445      13050500 
 446 0258 97000000 		call	_Z9putStringPKc@plt
 446      E7800000 
 447              	.LVL44:
  26:src/../h/../h/my_console.h ****     putString("   ===========================");
 448              		.loc 2 26 5 is_stmt 1
  26:src/../h/../h/my_console.h ****     putString("   ===========================");
 449              		.loc 2 26 11 is_stmt 0
 450 0260 13058004 		li	a0,72
 451 0264 97000000 		call	_Z6putInti@plt
 451      E7800000 
 452              	.LVL45:
  27:src/../h/../h/my_console.h ****     putNewline();
 453              		.loc 2 27 5 is_stmt 1
  27:src/../h/../h/my_console.h ****     putNewline();
 454              		.loc 2 27 14 is_stmt 0
 455 026c 17050000 		lla	a0,.LC3
 455      13050500 
 456 0274 97000000 		call	_Z9putStringPKc@plt
 456      E7800000 
 457              	.LVL46:
  28:src/../h/../h/my_console.h **** 
 458              		.loc 2 28 5 is_stmt 1
  28:src/../h/../h/my_console.h **** 
 459              		.loc 2 28 15 is_stmt 0
 460 027c 97000000 		call	_Z10putNewlinev@plt
 460      E7800000 
 461              	.LVL47:
 462              		.loc 2 30 5 is_stmt 1
 463              		.loc 2 30 15 is_stmt 0
 464 0284 97000000 		call	_Z10stopKernelv@plt
 464      E7800000 
 465              	.LVL48:
 466              	.L26:
 467              	.LBE55:
 468              	.LBE54:
 469              	.LBB56:
GAS LISTING /tmp/ccLJwVXV.s 			page 15


 470              	.LBB45:
  23:src/../h/../h/my_console.h ****     putString(file);
 471              		.loc 2 23 5 is_stmt 1
  23:src/../h/../h/my_console.h ****     putString(file);
 472              		.loc 2 23 14 is_stmt 0
 473 028c 17050000 		lla	a0,.LC0
 473      13050500 
 474 0294 97000000 		call	_Z9putStringPKc@plt
 474      E7800000 
 475              	.LVL49:
  24:src/../h/../h/my_console.h ****     putString("    line: ");
 476              		.loc 2 24 5 is_stmt 1
  24:src/../h/../h/my_console.h ****     putString("    line: ");
 477              		.loc 2 24 14 is_stmt 0
 478 029c 17050000 		lla	a0,.LC1
 478      13050500 
 479 02a4 97000000 		call	_Z9putStringPKc@plt
 479      E7800000 
 480              	.LVL50:
  25:src/../h/../h/my_console.h ****     putInt(line);
 481              		.loc 2 25 5 is_stmt 1
  25:src/../h/../h/my_console.h ****     putInt(line);
 482              		.loc 2 25 14 is_stmt 0
 483 02ac 17050000 		lla	a0,.LC2
 483      13050500 
 484 02b4 97000000 		call	_Z9putStringPKc@plt
 484      E7800000 
 485              	.LVL51:
  26:src/../h/../h/my_console.h ****     putString("   ===========================");
 486              		.loc 2 26 5 is_stmt 1
  26:src/../h/../h/my_console.h ****     putString("   ===========================");
 487              		.loc 2 26 11 is_stmt 0
 488 02bc 1305D004 		li	a0,77
 489 02c0 97000000 		call	_Z6putInti@plt
 489      E7800000 
 490              	.LVL52:
  27:src/../h/../h/my_console.h ****     putNewline();
 491              		.loc 2 27 5 is_stmt 1
  27:src/../h/../h/my_console.h ****     putNewline();
 492              		.loc 2 27 14 is_stmt 0
 493 02c8 17050000 		lla	a0,.LC3
 493      13050500 
 494 02d0 97000000 		call	_Z9putStringPKc@plt
 494      E7800000 
 495              	.LVL53:
  28:src/../h/../h/my_console.h **** 
 496              		.loc 2 28 5 is_stmt 1
  28:src/../h/../h/my_console.h **** 
 497              		.loc 2 28 15 is_stmt 0
 498 02d8 97000000 		call	_Z10putNewlinev@plt
 498      E7800000 
 499              	.LVL54:
 500              		.loc 2 30 5 is_stmt 1
 501              		.loc 2 30 15 is_stmt 0
 502 02e0 97000000 		call	_Z10stopKernelv@plt
 502      E7800000 
 503              	.LVL55:
GAS LISTING /tmp/ccLJwVXV.s 			page 16


 504              	.L27:
 505              	.LBE45:
 506              	.LBE56:
 507              	.LBB57:
 508              	.LBB53:
  23:src/../h/../h/my_console.h ****     putString(file);
 509              		.loc 2 23 5 is_stmt 1
  23:src/../h/../h/my_console.h ****     putString(file);
 510              		.loc 2 23 14 is_stmt 0
 511 02e8 17050000 		lla	a0,.LC0
 511      13050500 
 512 02f0 97000000 		call	_Z9putStringPKc@plt
 512      E7800000 
 513              	.LVL56:
  24:src/../h/../h/my_console.h ****     putString("    line: ");
 514              		.loc 2 24 5 is_stmt 1
  24:src/../h/../h/my_console.h ****     putString("    line: ");
 515              		.loc 2 24 14 is_stmt 0
 516 02f8 17050000 		lla	a0,.LC1
 516      13050500 
 517 0300 97000000 		call	_Z9putStringPKc@plt
 517      E7800000 
 518              	.LVL57:
  25:src/../h/../h/my_console.h ****     putInt(line);
 519              		.loc 2 25 5 is_stmt 1
  25:src/../h/../h/my_console.h ****     putInt(line);
 520              		.loc 2 25 14 is_stmt 0
 521 0308 17050000 		lla	a0,.LC2
 521      13050500 
 522 0310 97000000 		call	_Z9putStringPKc@plt
 522      E7800000 
 523              	.LVL58:
  26:src/../h/../h/my_console.h ****     putString("   ===========================");
 524              		.loc 2 26 5 is_stmt 1
  26:src/../h/../h/my_console.h ****     putString("   ===========================");
 525              		.loc 2 26 11 is_stmt 0
 526 0318 13054005 		li	a0,84
 527 031c 97000000 		call	_Z6putInti@plt
 527      E7800000 
 528              	.LVL59:
  27:src/../h/../h/my_console.h ****     putNewline();
 529              		.loc 2 27 5 is_stmt 1
  27:src/../h/../h/my_console.h ****     putNewline();
 530              		.loc 2 27 14 is_stmt 0
 531 0324 17050000 		lla	a0,.LC3
 531      13050500 
 532 032c 97000000 		call	_Z9putStringPKc@plt
 532      E7800000 
 533              	.LVL60:
  28:src/../h/../h/my_console.h **** 
 534              		.loc 2 28 5 is_stmt 1
  28:src/../h/../h/my_console.h **** 
 535              		.loc 2 28 15 is_stmt 0
 536 0334 97000000 		call	_Z10putNewlinev@plt
 536      E7800000 
 537              	.LVL61:
 538              		.loc 2 30 5 is_stmt 1
GAS LISTING /tmp/ccLJwVXV.s 			page 17


 539              		.loc 2 30 15 is_stmt 0
 540 033c 97000000 		call	_Z10stopKernelv@plt
 540      E7800000 
 541              	.LVL62:
 542              	.LBE53:
 543              	.LBE57:
 544              		.cfi_endproc
 545              	.LFE16:
 547              		.align	2
 548              		.globl	_ZN7IThread10allocStackEv
 550              	_ZN7IThread10allocStackEv:
 551              	.LFB20:
 129:src/thread.cpp ****     assert(pStackStart == nullptr); // error: this threads stack may have already been allocated
 552              		.loc 1 129 1 is_stmt 1
 553              		.cfi_startproc
 554              	.LVL63:
 555 0344 130101FE 		addi	sp,sp,-32
 556              		.cfi_def_cfa_offset 32
 557 0348 233C1100 		sd	ra,24(sp)
 558 034c 23388100 		sd	s0,16(sp)
 559 0350 23349100 		sd	s1,8(sp)
 560 0354 23302101 		sd	s2,0(sp)
 561              		.cfi_offset 1, -8
 562              		.cfi_offset 8, -16
 563              		.cfi_offset 9, -24
 564              		.cfi_offset 18, -32
 565 0358 13040102 		addi	s0,sp,32
 566              		.cfi_def_cfa 8, 0
 130:src/thread.cpp **** 
 567              		.loc 1 130 5
 568 035c 83378501 		ld	a5,24(a0)
 569              	.LVL64:
 570              	.LBB60:
 571              	.LBB61:
  20:src/../h/../h/my_console.h ****         return;
 572              		.loc 2 20 5
 573 0360 639A0704 		bnez	a5,.L32
 574 0364 13090500 		mv	s2,a0
  21:src/../h/../h/my_console.h **** 
 575              		.loc 2 21 9
 576              	.LVL65:
 577              	.LBE61:
 578              	.LBE60:
 132:src/thread.cpp ****     uint64 stack =  (uint64)pStackStart + ACTUAL_STACK_SIZE;
 579              		.loc 1 132 5
 132:src/thread.cpp ****     uint64 stack =  (uint64)pStackStart + ACTUAL_STACK_SIZE;
 580              		.loc 1 132 44 is_stmt 0
 581 0368 97000000 		call	_ZN8MemAlloc3getEv@plt
 581      E7800000 
 582              	.LVL66:
 583 0370 B7B40000 		li	s1,45056
 584 0374 938504AA 		addi	a1,s1,-1376
 585 0378 97000000 		call	_ZN8MemAlloc8allocMemEm@plt
 585      E7800000 
 586              	.LVL67:
 132:src/thread.cpp ****     uint64 stack =  (uint64)pStackStart + ACTUAL_STACK_SIZE;
 587              		.loc 1 132 17
GAS LISTING /tmp/ccLJwVXV.s 			page 18


 588 0380 233CA900 		sd	a0,24(s2)
 133:src/thread.cpp **** 
 589              		.loc 1 133 5 is_stmt 1
 133:src/thread.cpp **** 
 590              		.loc 1 133 12 is_stmt 0
 591 0384 938404AA 		addi	s1,s1,-1376
 592 0388 B3049500 		add	s1,a0,s1
 593              	.LVL68:
 135:src/thread.cpp ****     {
 594              		.loc 1 135 5 is_stmt 1
 135:src/thread.cpp ****     {
 595              		.loc 1 135 14 is_stmt 0
 596 038c 1375F500 		andi	a0,a0,15
 135:src/thread.cpp ****     {
 597              		.loc 1 135 5
 598 0390 63040500 		beqz	a0,.L30
 137:src/thread.cpp ****     }
 599              		.loc 1 137 9 is_stmt 1
 137:src/thread.cpp ****     }
 600              		.loc 1 137 15 is_stmt 0
 601 0394 93F404FF 		andi	s1,s1,-16
 602              	.LVL69:
 603              	.L30:
 140:src/thread.cpp **** 
 604              		.loc 1 140 5 is_stmt 1
 142:src/thread.cpp **** 
 605              		.loc 1 142 5
 144:src/thread.cpp **** 
 606              		.loc 1 144 1 is_stmt 0
 607 0398 138504EF 		addi	a0,s1,-272
 608              	.LVL70:
 609 039c 83308101 		ld	ra,24(sp)
 610              		.cfi_remember_state
 611              		.cfi_restore 1
 612 03a0 03340101 		ld	s0,16(sp)
 613              		.cfi_restore 8
 614              		.cfi_def_cfa 2, 32
 615 03a4 83348100 		ld	s1,8(sp)
 616              		.cfi_restore 9
 617 03a8 03390100 		ld	s2,0(sp)
 618              		.cfi_restore 18
 619              	.LVL71:
 620 03ac 13010102 		addi	sp,sp,32
 621              		.cfi_def_cfa_offset 0
 622 03b0 67800000 		jr	ra
 623              	.LVL72:
 624              	.L32:
 625              		.cfi_restore_state
 626              	.LBB63:
 627              	.LBB62:
  23:src/../h/../h/my_console.h ****     putString(file);
 628              		.loc 2 23 5 is_stmt 1
  23:src/../h/../h/my_console.h ****     putString(file);
 629              		.loc 2 23 14 is_stmt 0
 630 03b4 17050000 		lla	a0,.LC0
 630      13050500 
 631              	.LVL73:
GAS LISTING /tmp/ccLJwVXV.s 			page 19


 632 03bc 97000000 		call	_Z9putStringPKc@plt
 632      E7800000 
 633              	.LVL74:
  24:src/../h/../h/my_console.h ****     putString("    line: ");
 634              		.loc 2 24 5 is_stmt 1
  24:src/../h/../h/my_console.h ****     putString("    line: ");
 635              		.loc 2 24 14 is_stmt 0
 636 03c4 17050000 		lla	a0,.LC1
 636      13050500 
 637 03cc 97000000 		call	_Z9putStringPKc@plt
 637      E7800000 
 638              	.LVL75:
  25:src/../h/../h/my_console.h ****     putInt(line);
 639              		.loc 2 25 5 is_stmt 1
  25:src/../h/../h/my_console.h ****     putInt(line);
 640              		.loc 2 25 14 is_stmt 0
 641 03d4 17050000 		lla	a0,.LC2
 641      13050500 
 642 03dc 97000000 		call	_Z9putStringPKc@plt
 642      E7800000 
 643              	.LVL76:
  26:src/../h/../h/my_console.h ****     putString("   ===========================");
 644              		.loc 2 26 5 is_stmt 1
  26:src/../h/../h/my_console.h ****     putString("   ===========================");
 645              		.loc 2 26 11 is_stmt 0
 646 03e4 13052008 		li	a0,130
 647 03e8 97000000 		call	_Z6putInti@plt
 647      E7800000 
 648              	.LVL77:
  27:src/../h/../h/my_console.h ****     putNewline();
 649              		.loc 2 27 5 is_stmt 1
  27:src/../h/../h/my_console.h ****     putNewline();
 650              		.loc 2 27 14 is_stmt 0
 651 03f0 17050000 		lla	a0,.LC3
 651      13050500 
 652 03f8 97000000 		call	_Z9putStringPKc@plt
 652      E7800000 
 653              	.LVL78:
  28:src/../h/../h/my_console.h **** 
 654              		.loc 2 28 5 is_stmt 1
  28:src/../h/../h/my_console.h **** 
 655              		.loc 2 28 15 is_stmt 0
 656 0400 97000000 		call	_Z10putNewlinev@plt
 656      E7800000 
 657              	.LVL79:
 658              		.loc 2 30 5 is_stmt 1
 659              		.loc 2 30 15 is_stmt 0
 660 0408 97000000 		call	_Z10stopKernelv@plt
 660      E7800000 
 661              	.LVL80:
 662              	.LBE62:
 663              	.LBE63:
 664              		.cfi_endproc
 665              	.LFE20:
 667              		.align	2
 668              		.globl	_ZN7IThread4initEPFvPvES0_S0_
 670              	_ZN7IThread4initEPFvPvES0_S0_:
GAS LISTING /tmp/ccLJwVXV.s 			page 20


 671              	.LFB22:
 151:src/thread.cpp **** 
 152:src/thread.cpp **** void IThread::init(Body body, void* arg, void* pLogicalStack) // this is used as a "constructor", e
 153:src/thread.cpp **** {
 672              		.loc 1 153 1 is_stmt 1
 673              		.cfi_startproc
 674              	.LVL81:
 675 0410 130101FF 		addi	sp,sp,-16
 676              		.cfi_def_cfa_offset 16
 677 0414 23341100 		sd	ra,8(sp)
 678 0418 23308100 		sd	s0,0(sp)
 679              		.cfi_offset 1, -8
 680              		.cfi_offset 8, -16
 681 041c 13040101 		addi	s0,sp,16
 682              		.cfi_def_cfa 8, 0
 154:src/thread.cpp ****     assert(nrTotalThreads < MAX_NR_TOTAL_THREADS);
 683              		.loc 1 154 5
 684 0420 97070000 		ld	a5,.LANCHOR1
 684      83B70700 
 685 0428 93B74706 		sltiu	a5,a5,100
 686              	.LVL82:
 687              	.LBB69:
 688              	.LBB70:
  20:src/../h/../h/my_console.h ****         return;
 689              		.loc 2 20 5
 690 042c 638E0704 		beqz	a5,.L39
  21:src/../h/../h/my_console.h **** 
 691              		.loc 2 21 9
 692              	.LVL83:
 693              	.LBE70:
 694              	.LBE69:
 155:src/thread.cpp ****     id = nrTotalThreads;
 695              		.loc 1 155 5
 696              		.loc 1 155 8 is_stmt 0
 697 0430 17070000 		lla	a4,.LANCHOR1
 697      13070700 
 698 0438 83370700 		ld	a5,0(a4)
 699 043c 2334F502 		sd	a5,40(a0)
 156:src/thread.cpp ****     nrTotalThreads++;
 700              		.loc 1 156 5 is_stmt 1
 701              		.loc 1 156 19 is_stmt 0
 702 0440 93871700 		addi	a5,a5,1
 703 0444 2330F700 		sd	a5,0(a4)
 157:src/thread.cpp **** 
 158:src/thread.cpp ****     assert((uint64)pLogicalStack % 16 == 0);
 704              		.loc 1 158 5 is_stmt 1
 705 0448 93F7F600 		andi	a5,a3,15
 706              	.LVL84:
 707              	.LBB72:
 708              	.LBB73:
  20:src/../h/../h/my_console.h ****         return;
 709              		.loc 2 20 5
 710 044c 639C0708 		bnez	a5,.L40
  21:src/../h/../h/my_console.h **** 
 711              		.loc 2 21 9
 712              	.LVL85:
 713              	.LBE73:
GAS LISTING /tmp/ccLJwVXV.s 			page 21


 714              	.LBE72:
 159:src/thread.cpp **** 
 160:src/thread.cpp ****     state = INITIALIZING;
 715              		.loc 1 160 5
 161:src/thread.cpp ****     timeSlice = DEFAULT_TIME_SLICE;
 716              		.loc 1 161 5
 717              		.loc 1 161 15 is_stmt 0
 718 0450 93072000 		li	a5,2
 719 0454 2330F502 		sd	a5,32(a0)
 162:src/thread.cpp ****     pNext = nullptr;
 720              		.loc 1 162 5 is_stmt 1
 721              		.loc 1 162 11 is_stmt 0
 722 0458 23380502 		sd	zero,48(a0)
 163:src/thread.cpp ****     pWaitingHead = nullptr;
 723              		.loc 1 163 5 is_stmt 1
 724              		.loc 1 163 18 is_stmt 0
 725 045c 233C0502 		sd	zero,56(a0)
 164:src/thread.cpp ****     done = false;
 726              		.loc 1 164 5 is_stmt 1
 727              		.loc 1 164 10 is_stmt 0
 728 0460 23000504 		sb	zero,64(a0)
 165:src/thread.cpp **** 
 166:src/thread.cpp ****     // sets context
 167:src/thread.cpp ****     sp = (uint64*)pLogicalStack; // sp field
 729              		.loc 1 167 5 is_stmt 1
 730              		.loc 1 167 8 is_stmt 0
 731 0464 2334D504 		sd	a3,72(a0)
 168:src/thread.cpp **** 
 169:src/thread.cpp ****     // skipping a0 to pass arguments as it is will be not be restored in the context switch because
 170:src/thread.cpp **** 
 171:src/thread.cpp ****     for(int i=0; i<32; i++) // temp
 732              		.loc 1 171 5 is_stmt 1
 733              	.LVL86:
 734              	.LBB75:
 735              		.loc 1 171 13 is_stmt 0
 736 0468 93070000 		li	a5,0
 737              	.LVL87:
 738              	.L37:
 739              		.loc 1 171 19 is_stmt 1 discriminator 3
 740 046c 1307F001 		li	a4,31
 741 0470 6348F70C 		bgt	a5,a4,.L36
 172:src/thread.cpp ****     {
 173:src/thread.cpp ****         *((uint64*)pLogicalStack + i) = i;
 742              		.loc 1 173 9 discriminator 2
 743              		.loc 1 173 34 is_stmt 0 discriminator 2
 744 0474 13973700 		slli	a4,a5,3
 745 0478 3387E600 		add	a4,a3,a4
 746              		.loc 1 173 39 discriminator 2
 747 047c 2330F700 		sd	a5,0(a4)
 171:src/thread.cpp ****     {
 748              		.loc 1 171 5 is_stmt 1 discriminator 2
 749 0480 9B871700 		addiw	a5,a5,1
 750              	.LVL88:
 751 0484 6FF09FFE 		j	.L37
 752              	.LVL89:
 753              	.L39:
 754              	.LBE75:
GAS LISTING /tmp/ccLJwVXV.s 			page 22


 755              	.LBB76:
 756              	.LBB71:
  23:src/../h/../h/my_console.h ****     putString(file);
 757              		.loc 2 23 5
  23:src/../h/../h/my_console.h ****     putString(file);
 758              		.loc 2 23 14 is_stmt 0
 759 0488 17050000 		lla	a0,.LC0
 759      13050500 
 760              	.LVL90:
 761 0490 97000000 		call	_Z9putStringPKc@plt
 761      E7800000 
 762              	.LVL91:
  24:src/../h/../h/my_console.h ****     putString("    line: ");
 763              		.loc 2 24 5 is_stmt 1
  24:src/../h/../h/my_console.h ****     putString("    line: ");
 764              		.loc 2 24 14 is_stmt 0
 765 0498 17050000 		lla	a0,.LC1
 765      13050500 
 766 04a0 97000000 		call	_Z9putStringPKc@plt
 766      E7800000 
 767              	.LVL92:
  25:src/../h/../h/my_console.h ****     putInt(line);
 768              		.loc 2 25 5 is_stmt 1
  25:src/../h/../h/my_console.h ****     putInt(line);
 769              		.loc 2 25 14 is_stmt 0
 770 04a8 17050000 		lla	a0,.LC2
 770      13050500 
 771 04b0 97000000 		call	_Z9putStringPKc@plt
 771      E7800000 
 772              	.LVL93:
  26:src/../h/../h/my_console.h ****     putString("   ===========================");
 773              		.loc 2 26 5 is_stmt 1
  26:src/../h/../h/my_console.h ****     putString("   ===========================");
 774              		.loc 2 26 11 is_stmt 0
 775 04b8 1305A009 		li	a0,154
 776 04bc 97000000 		call	_Z6putInti@plt
 776      E7800000 
 777              	.LVL94:
  27:src/../h/../h/my_console.h ****     putNewline();
 778              		.loc 2 27 5 is_stmt 1
  27:src/../h/../h/my_console.h ****     putNewline();
 779              		.loc 2 27 14 is_stmt 0
 780 04c4 17050000 		lla	a0,.LC3
 780      13050500 
 781 04cc 97000000 		call	_Z9putStringPKc@plt
 781      E7800000 
 782              	.LVL95:
  28:src/../h/../h/my_console.h **** 
 783              		.loc 2 28 5 is_stmt 1
  28:src/../h/../h/my_console.h **** 
 784              		.loc 2 28 15 is_stmt 0
 785 04d4 97000000 		call	_Z10putNewlinev@plt
 785      E7800000 
 786              	.LVL96:
 787              		.loc 2 30 5 is_stmt 1
 788              		.loc 2 30 15 is_stmt 0
 789 04dc 97000000 		call	_Z10stopKernelv@plt
GAS LISTING /tmp/ccLJwVXV.s 			page 23


 789      E7800000 
 790              	.LVL97:
 791              	.L40:
 792              	.LBE71:
 793              	.LBE76:
 794              	.LBB77:
 795              	.LBB74:
  23:src/../h/../h/my_console.h ****     putString(file);
 796              		.loc 2 23 5 is_stmt 1
  23:src/../h/../h/my_console.h ****     putString(file);
 797              		.loc 2 23 14 is_stmt 0
 798 04e4 17050000 		lla	a0,.LC0
 798      13050500 
 799              	.LVL98:
 800 04ec 97000000 		call	_Z9putStringPKc@plt
 800      E7800000 
 801              	.LVL99:
  24:src/../h/../h/my_console.h ****     putString("    line: ");
 802              		.loc 2 24 5 is_stmt 1
  24:src/../h/../h/my_console.h ****     putString("    line: ");
 803              		.loc 2 24 14 is_stmt 0
 804 04f4 17050000 		lla	a0,.LC1
 804      13050500 
 805 04fc 97000000 		call	_Z9putStringPKc@plt
 805      E7800000 
 806              	.LVL100:
  25:src/../h/../h/my_console.h ****     putInt(line);
 807              		.loc 2 25 5 is_stmt 1
  25:src/../h/../h/my_console.h ****     putInt(line);
 808              		.loc 2 25 14 is_stmt 0
 809 0504 17050000 		lla	a0,.LC2
 809      13050500 
 810 050c 97000000 		call	_Z9putStringPKc@plt
 810      E7800000 
 811              	.LVL101:
  26:src/../h/../h/my_console.h ****     putString("   ===========================");
 812              		.loc 2 26 5 is_stmt 1
  26:src/../h/../h/my_console.h ****     putString("   ===========================");
 813              		.loc 2 26 11 is_stmt 0
 814 0514 1305E009 		li	a0,158
 815 0518 97000000 		call	_Z6putInti@plt
 815      E7800000 
 816              	.LVL102:
  27:src/../h/../h/my_console.h ****     putNewline();
 817              		.loc 2 27 5 is_stmt 1
  27:src/../h/../h/my_console.h ****     putNewline();
 818              		.loc 2 27 14 is_stmt 0
 819 0520 17050000 		lla	a0,.LC3
 819      13050500 
 820 0528 97000000 		call	_Z9putStringPKc@plt
 820      E7800000 
 821              	.LVL103:
  28:src/../h/../h/my_console.h **** 
 822              		.loc 2 28 5 is_stmt 1
  28:src/../h/../h/my_console.h **** 
 823              		.loc 2 28 15 is_stmt 0
 824 0530 97000000 		call	_Z10putNewlinev@plt
GAS LISTING /tmp/ccLJwVXV.s 			page 24


 824      E7800000 
 825              	.LVL104:
 826              		.loc 2 30 5 is_stmt 1
 827              		.loc 2 30 15 is_stmt 0
 828 0538 97000000 		call	_Z10stopKernelv@plt
 828      E7800000 
 829              	.LVL105:
 830              	.L36:
 831              	.LBE74:
 832              	.LBE77:
 174:src/thread.cpp ****     }
 175:src/thread.cpp **** 
 176:src/thread.cpp ****     *((uint64*)pLogicalStack + 11) = (uint64)body;
 833              		.loc 1 176 5 is_stmt 1
 834              		.loc 1 176 36 is_stmt 0
 835 0540 23BCB604 		sd	a1,88(a3)
 177:src/thread.cpp ****     *((uint64*)pLogicalStack + 12) = *((uint64*)&arg);
 836              		.loc 1 177 5 is_stmt 1
 837              		.loc 1 177 36 is_stmt 0
 838 0544 23B0C606 		sd	a2,96(a3)
 178:src/thread.cpp ****     *((uint64*)pLogicalStack + 32) = (uint64)&wrapper;
 839              		.loc 1 178 5 is_stmt 1
 840              		.loc 1 178 36 is_stmt 0
 841 0548 97070000 		lla	a5,_Z7wrappermPFvPvES_
 841      93870700 
 842              	.LVL106:
 843 0550 23B0F610 		sd	a5,256(a3)
 179:src/thread.cpp **** 
 180:src/thread.cpp ****     state = READY;
 844              		.loc 1 180 5 is_stmt 1
 845              		.loc 1 180 11 is_stmt 0
 846 0554 93072000 		li	a5,2
 847 0558 2320F500 		sw	a5,0(a0)
 181:src/thread.cpp **** }
 848              		.loc 1 181 1
 849 055c 83308100 		ld	ra,8(sp)
 850              		.cfi_restore 1
 851 0560 03340100 		ld	s0,0(sp)
 852              		.cfi_restore 8
 853              		.cfi_def_cfa 2, 16
 854 0564 13010101 		addi	sp,sp,16
 855              		.cfi_def_cfa_offset 0
 856 0568 67800000 		jr	ra
 857              		.cfi_endproc
 858              	.LFE22:
 860              		.align	2
 861              		.globl	_ZN7IThread12createThreadEPmPFvPvES1_
 863              	_ZN7IThread12createThreadEPmPFvPvES1_:
 864              	.LFB18:
 104:src/thread.cpp ****     assert(nrTotalThreads < MAX_NR_TOTAL_THREADS);
 865              		.loc 1 104 1 is_stmt 1
 866              		.cfi_startproc
 867              	.LVL107:
 868 056c 130101FD 		addi	sp,sp,-48
 869              		.cfi_def_cfa_offset 48
 870 0570 23341102 		sd	ra,40(sp)
 871 0574 23308102 		sd	s0,32(sp)
GAS LISTING /tmp/ccLJwVXV.s 			page 25


 872 0578 233C9100 		sd	s1,24(sp)
 873 057c 23382101 		sd	s2,16(sp)
 874 0580 23343101 		sd	s3,8(sp)
 875 0584 23304101 		sd	s4,0(sp)
 876              		.cfi_offset 1, -8
 877              		.cfi_offset 8, -16
 878              		.cfi_offset 9, -24
 879              		.cfi_offset 18, -32
 880              		.cfi_offset 19, -40
 881              		.cfi_offset 20, -48
 882 0588 13040103 		addi	s0,sp,48
 883              		.cfi_def_cfa 8, 0
 105:src/thread.cpp **** 
 884              		.loc 1 105 5
 885 058c 97070000 		ld	a5,.LANCHOR1
 885      83B70700 
 886 0594 93B74706 		sltiu	a5,a5,100
 887              	.LVL108:
 888              	.LBB80:
 889              	.LBB81:
  20:src/../h/../h/my_console.h ****         return;
 890              		.loc 2 20 5
 891 0598 6380070A 		beqz	a5,.L44
 892 059c 13090500 		mv	s2,a0
 893 05a0 93890500 		mv	s3,a1
 894 05a4 130A0600 		mv	s4,a2
  21:src/../h/../h/my_console.h **** 
 895              		.loc 2 21 9
 896              	.LVL109:
 897              	.LBE81:
 898              	.LBE80:
 107:src/thread.cpp ****     pAllThreads[nrTotalThreads] = t;
 899              		.loc 1 107 5
 107:src/thread.cpp ****     pAllThreads[nrTotalThreads] = t;
 900              		.loc 1 107 53 is_stmt 0
 901 05a8 97000000 		call	_ZN8MemAlloc3getEv@plt
 901      E7800000 
 902              	.LVL110:
 903 05b0 93050005 		li	a1,80
 904 05b4 97000000 		call	_ZN8MemAlloc8allocMemEm@plt
 904      E7800000 
 905              	.LVL111:
 906 05bc 93040500 		mv	s1,a0
 907              	.LVL112:
 108:src/thread.cpp **** 
 908              		.loc 1 108 5 is_stmt 1
 108:src/thread.cpp **** 
 909              		.loc 1 108 33 is_stmt 0
 910 05c0 97070000 		ld	a5,.LANCHOR1
 910      83B70700 
 911 05c8 13973700 		slli	a4,a5,3
 912 05cc 97070000 		lla	a5,.LANCHOR0
 912      93870700 
 913 05d4 B387E700 		add	a5,a5,a4
 914 05d8 23B8A700 		sd	a0,16(a5)
 110:src/thread.cpp ****     void* pLogicalStack = t->allocStack();
 915              		.loc 1 110 5 is_stmt 1
GAS LISTING /tmp/ccLJwVXV.s 			page 26


 110:src/thread.cpp ****     void* pLogicalStack = t->allocStack();
 916              		.loc 1 110 20 is_stmt 0
 917 05dc 233C0500 		sd	zero,24(a0)
 111:src/thread.cpp **** 
 918              		.loc 1 111 5 is_stmt 1
 111:src/thread.cpp **** 
 919              		.loc 1 111 40 is_stmt 0
 920 05e0 97000000 		call	_ZN7IThread10allocStackEv
 920      E7800000 
 921              	.LVL113:
 922 05e8 93060500 		mv	a3,a0
 923              	.LVL114:
 113:src/thread.cpp **** 
 924              		.loc 1 113 5 is_stmt 1
 113:src/thread.cpp **** 
 925              		.loc 1 113 12 is_stmt 0
 926 05ec 13060A00 		mv	a2,s4
 927 05f0 93850900 		mv	a1,s3
 928 05f4 13850400 		mv	a0,s1
 929              	.LVL115:
 930 05f8 97000000 		call	_ZN7IThread4initEPFvPvES0_S0_
 930      E7800000 
 931              	.LVL116:
 115:src/thread.cpp **** 
 932              		.loc 1 115 5 is_stmt 1
 115:src/thread.cpp **** 
 933              		.loc 1 115 14 is_stmt 0
 934 0600 83B78402 		ld	a5,40(s1)
 115:src/thread.cpp **** 
 935              		.loc 1 115 9
 936 0604 2330F900 		sd	a5,0(s2)
 117:src/thread.cpp **** 
 937              		.loc 1 117 5 is_stmt 1
 117:src/thread.cpp **** 
 938              		.loc 1 117 19 is_stmt 0
 939 0608 13850400 		mv	a0,s1
 940 060c 97000000 		call	_ZN9Scheduler3putEP7IThread@plt
 940      E7800000 
 941              	.LVL117:
 119:src/thread.cpp **** }
 942              		.loc 1 119 5 is_stmt 1
 120:src/thread.cpp **** 
 943              		.loc 1 120 1 is_stmt 0
 944 0614 13050000 		li	a0,0
 945 0618 83308102 		ld	ra,40(sp)
 946              		.cfi_remember_state
 947              		.cfi_restore 1
 948 061c 03340102 		ld	s0,32(sp)
 949              		.cfi_restore 8
 950              		.cfi_def_cfa 2, 48
 951 0620 83348101 		ld	s1,24(sp)
 952              		.cfi_restore 9
 953              	.LVL118:
 954 0624 03390101 		ld	s2,16(sp)
 955              		.cfi_restore 18
 956              	.LVL119:
 957 0628 83398100 		ld	s3,8(sp)
GAS LISTING /tmp/ccLJwVXV.s 			page 27


 958              		.cfi_restore 19
 959              	.LVL120:
 960 062c 033A0100 		ld	s4,0(sp)
 961              		.cfi_restore 20
 962              	.LVL121:
 963 0630 13010103 		addi	sp,sp,48
 964              		.cfi_def_cfa_offset 0
 965 0634 67800000 		jr	ra
 966              	.LVL122:
 967              	.L44:
 968              		.cfi_restore_state
 969              	.LBB83:
 970              	.LBB82:
  23:src/../h/../h/my_console.h ****     putString(file);
 971              		.loc 2 23 5 is_stmt 1
  23:src/../h/../h/my_console.h ****     putString(file);
 972              		.loc 2 23 14 is_stmt 0
 973 0638 17050000 		lla	a0,.LC0
 973      13050500 
 974              	.LVL123:
 975 0640 97000000 		call	_Z9putStringPKc@plt
 975      E7800000 
 976              	.LVL124:
  24:src/../h/../h/my_console.h ****     putString("    line: ");
 977              		.loc 2 24 5 is_stmt 1
  24:src/../h/../h/my_console.h ****     putString("    line: ");
 978              		.loc 2 24 14 is_stmt 0
 979 0648 17050000 		lla	a0,.LC1
 979      13050500 
 980 0650 97000000 		call	_Z9putStringPKc@plt
 980      E7800000 
 981              	.LVL125:
  25:src/../h/../h/my_console.h ****     putInt(line);
 982              		.loc 2 25 5 is_stmt 1
  25:src/../h/../h/my_console.h ****     putInt(line);
 983              		.loc 2 25 14 is_stmt 0
 984 0658 17050000 		lla	a0,.LC2
 984      13050500 
 985 0660 97000000 		call	_Z9putStringPKc@plt
 985      E7800000 
 986              	.LVL126:
  26:src/../h/../h/my_console.h ****     putString("   ===========================");
 987              		.loc 2 26 5 is_stmt 1
  26:src/../h/../h/my_console.h ****     putString("   ===========================");
 988              		.loc 2 26 11 is_stmt 0
 989 0668 13059006 		li	a0,105
 990 066c 97000000 		call	_Z6putInti@plt
 990      E7800000 
 991              	.LVL127:
  27:src/../h/../h/my_console.h ****     putNewline();
 992              		.loc 2 27 5 is_stmt 1
  27:src/../h/../h/my_console.h ****     putNewline();
 993              		.loc 2 27 14 is_stmt 0
 994 0674 17050000 		lla	a0,.LC3
 994      13050500 
 995 067c 97000000 		call	_Z9putStringPKc@plt
 995      E7800000 
GAS LISTING /tmp/ccLJwVXV.s 			page 28


 996              	.LVL128:
  28:src/../h/../h/my_console.h **** 
 997              		.loc 2 28 5 is_stmt 1
  28:src/../h/../h/my_console.h **** 
 998              		.loc 2 28 15 is_stmt 0
 999 0684 97000000 		call	_Z10putNewlinev@plt
 999      E7800000 
 1000              	.LVL129:
 1001              		.loc 2 30 5 is_stmt 1
 1002              		.loc 2 30 15 is_stmt 0
 1003 068c 97000000 		call	_Z10stopKernelv@plt
 1003      E7800000 
 1004              	.LVL130:
 1005              	.LBE82:
 1006              	.LBE83:
 1007              		.cfi_endproc
 1008              	.LFE18:
 1010              		.section	.rodata.str1.8
 1011 0067 00       		.align	3
 1012              	.LC4:
 1013 0068 3D3D3D20 		.string	"=== NO MORE THREADS EXIST. RETURNING TO KERNEL THREAD"
 1013      4E4F204D 
 1013      4F524520 
 1013      54485245 
 1013      41445320 
 1014              		.text
 1015              		.align	2
 1016              		.globl	_ZN7IThread4exitEv
 1018              	_ZN7IThread4exitEv:
 1019              	.LFB23:
 182:src/thread.cpp **** 
 183:src/thread.cpp **** int IThread::exit()
 184:src/thread.cpp **** {
 1020              		.loc 1 184 1 is_stmt 1
 1021              		.cfi_startproc
 1022 0694 130101FE 		addi	sp,sp,-32
 1023              		.cfi_def_cfa_offset 32
 1024 0698 233C1100 		sd	ra,24(sp)
 1025 069c 23388100 		sd	s0,16(sp)
 1026 06a0 23349100 		sd	s1,8(sp)
 1027              		.cfi_offset 1, -8
 1028              		.cfi_offset 8, -16
 1029              		.cfi_offset 9, -24
 1030 06a4 13040102 		addi	s0,sp,32
 1031              		.cfi_def_cfa 8, 0
 185:src/thread.cpp ****     IThread* t = IThread::getPRunning();
 1032              		.loc 1 185 5
 1033              		.loc 1 185 38 is_stmt 0
 1034 06a8 97000000 		call	_ZN7IThread11getPRunningEv
 1034      E7800000 
 1035              	.LVL131:
 186:src/thread.cpp ****     assert(t->state == RUNNING);
 1036              		.loc 1 186 5 is_stmt 1
 1037 06b0 83270500 		lw	a5,0(a0)
 1038              	.LVL132:
 1039              	.LBB97:
 1040              	.LBB98:
GAS LISTING /tmp/ccLJwVXV.s 			page 29


  20:src/../h/../h/my_console.h ****         return;
 1041              		.loc 2 20 5
 1042 06b4 63940708 		bnez	a5,.L52
 1043 06b8 93040500 		mv	s1,a0
  21:src/../h/../h/my_console.h **** 
 1044              		.loc 2 21 9
 1045              	.LVL133:
 1046              	.LBE98:
 1047              	.LBE97:
 187:src/thread.cpp ****     assert(t->done == false);
 1048              		.loc 1 187 5
 1049 06bc 83470504 		lbu	a5,64(a0)
 1050 06c0 93C71700 		xori	a5,a5,1
 1051              	.LVL134:
 1052              	.LBB100:
 1053              	.LBB101:
  20:src/../h/../h/my_console.h ****         return;
 1054              		.loc 2 20 5
 1055 06c4 638A070C 		beqz	a5,.L53
  21:src/../h/../h/my_console.h **** 
 1056              		.loc 2 21 9
 1057              	.LVL135:
 1058              	.LBE101:
 1059              	.LBE100:
 188:src/thread.cpp ****     t->done = true;
 1060              		.loc 1 188 5
 1061              		.loc 1 188 13 is_stmt 0
 1062 06c8 93071000 		li	a5,1
 1063 06cc 2300F504 		sb	a5,64(a0)
 189:src/thread.cpp **** 
 190:src/thread.cpp ****     MemAlloc::get()->freeMem(t->pStackStart);
 1064              		.loc 1 190 5 is_stmt 1
 1065              		.loc 1 190 29 is_stmt 0
 1066 06d0 97000000 		call	_ZN8MemAlloc3getEv@plt
 1066      E7800000 
 1067              	.LVL136:
 1068 06d8 83B58401 		ld	a1,24(s1)
 1069 06dc 97000000 		call	_ZN8MemAlloc7freeMemEPv@plt
 1069      E7800000 
 1070              	.LVL137:
 191:src/thread.cpp **** 
 192:src/thread.cpp ****     t->signalDone(); // WARNING: must be in this order
 1071              		.loc 1 192 5 is_stmt 1
 1072              		.loc 1 192 18 is_stmt 0
 1073 06e4 13850400 		mv	a0,s1
 1074 06e8 97000000 		call	_ZN7IThread10signalDoneEv
 1074      E7800000 
 1075              	.LVL138:
 193:src/thread.cpp **** 
 194:src/thread.cpp ****     bool existReadyThread = !(Scheduler::get()->pHead == nullptr); // WARNING: must be after signal
 1076              		.loc 1 194 5 is_stmt 1
 1077              	.LBB103:
 1078              	.LBB104:
  10:src/../h/scheduler.h ****         return &instance;
 1079              		.loc 3 10 9
  10:src/../h/scheduler.h ****         return &instance;
 1080              		.loc 3 10 26 is_stmt 0
GAS LISTING /tmp/ccLJwVXV.s 			page 30


 1081 06f0 97070000 		lbu	a5,_ZGVZN9Scheduler3getEvE8instance
 1081      83C70700 
 1082 06f8 639C0700 		bnez	a5,.L48
 1083              	.LVL139:
 1084              	.LBB105:
 1085              	.LBB106:
 1086              	.LBB107:
 1087              		.loc 3 24 24
 1088 06fc 97070000 		sd	zero,_ZZN9Scheduler3getEvE8instance,a5
 1088      23B00700 
 1089              	.LVL140:
 1090              	.LBE107:
 1091              	.LBE106:
 1092              	.LBE105:
  10:src/../h/scheduler.h ****         return &instance;
 1093              		.loc 3 10 26
 1094 0704 93071000 		li	a5,1
 1095 0708 17070000 		sb	a5,_ZGVZN9Scheduler3getEvE8instance,a4
 1095      2300F700 
 1096              	.L48:
  11:src/../h/scheduler.h ****     }
 1097              		.loc 3 11 9 is_stmt 1
 1098              	.LBE104:
 1099              	.LBE103:
 1100              		.loc 1 194 49 is_stmt 0
 1101 0710 97070000 		ld	a5,_ZZN9Scheduler3getEvE8instance
 1101      83B70700 
 1102              	.LVL141:
 195:src/thread.cpp ****     if(!existReadyThread) // TODO: add (... && !existSleepedThread && !waitingForConsoleThread), vr
 1103              		.loc 1 195 5 is_stmt 1
 1104              	.LBB108:
 1105 0718 638E070C 		beqz	a5,.L54
 1106              	.LVL142:
 1107              	.L49:
 1108              	.LBE108:
 196:src/thread.cpp ****     {
 197:src/thread.cpp ****         putString("=== NO MORE THREADS EXIST. RETURNING TO KERNEL THREAD");
 198:src/thread.cpp ****         putNewline();
 199:src/thread.cpp **** 
 200:src/thread.cpp ****         extern IThread kernelThread;
 201:src/thread.cpp ****         assert(pAllThreads[0] == &kernelThread);
 202:src/thread.cpp ****         pAllThreads[0]->state = READY;
 203:src/thread.cpp ****         Scheduler::put(IThread::pAllThreads[0]);
 204:src/thread.cpp **** 
 205:src/thread.cpp ****         // ovo je nesto pogresno
 206:src/thread.cpp **** //        __asm__ volatile ("csrc sstatus, 0x6"); // set spie bit to 1. spie signifies that we dont
 207:src/thread.cpp **** //        __asm__ volatile ("csrc sstatus, 0x9"); // clear spp bit, so we change to user mode after
 208:src/thread.cpp ****     }
 209:src/thread.cpp **** 
 210:src/thread.cpp ****     Scheduler::dispatchToNext();
 1109              		.loc 1 210 5
 1110              		.loc 1 210 30 is_stmt 0
 1111 071c 97000000 		call	_ZN9Scheduler14dispatchToNextEv@plt
 1111      E7800000 
 1112              	.LVL143:
 211:src/thread.cpp **** 
 212:src/thread.cpp ****     return 0;
GAS LISTING /tmp/ccLJwVXV.s 			page 31


 1113              		.loc 1 212 5 is_stmt 1
 213:src/thread.cpp **** }
 1114              		.loc 1 213 1 is_stmt 0
 1115 0724 13050000 		li	a0,0
 1116 0728 83308101 		ld	ra,24(sp)
 1117              		.cfi_remember_state
 1118              		.cfi_restore 1
 1119 072c 03340101 		ld	s0,16(sp)
 1120              		.cfi_restore 8
 1121              		.cfi_def_cfa 2, 32
 1122 0730 83348100 		ld	s1,8(sp)
 1123              		.cfi_restore 9
 1124              	.LVL144:
 1125 0734 13010102 		addi	sp,sp,32
 1126              		.cfi_def_cfa_offset 0
 1127 0738 67800000 		jr	ra
 1128              	.LVL145:
 1129              	.L52:
 1130              		.cfi_restore_state
 1131              	.LBB115:
 1132              	.LBB99:
  23:src/../h/../h/my_console.h ****     putString(file);
 1133              		.loc 2 23 5 is_stmt 1
  23:src/../h/../h/my_console.h ****     putString(file);
 1134              		.loc 2 23 14 is_stmt 0
 1135 073c 17050000 		lla	a0,.LC0
 1135      13050500 
 1136              	.LVL146:
 1137 0744 97000000 		call	_Z9putStringPKc@plt
 1137      E7800000 
 1138              	.LVL147:
  24:src/../h/../h/my_console.h ****     putString("    line: ");
 1139              		.loc 2 24 5 is_stmt 1
  24:src/../h/../h/my_console.h ****     putString("    line: ");
 1140              		.loc 2 24 14 is_stmt 0
 1141 074c 17050000 		lla	a0,.LC1
 1141      13050500 
 1142 0754 97000000 		call	_Z9putStringPKc@plt
 1142      E7800000 
 1143              	.LVL148:
  25:src/../h/../h/my_console.h ****     putInt(line);
 1144              		.loc 2 25 5 is_stmt 1
  25:src/../h/../h/my_console.h ****     putInt(line);
 1145              		.loc 2 25 14 is_stmt 0
 1146 075c 17050000 		lla	a0,.LC2
 1146      13050500 
 1147 0764 97000000 		call	_Z9putStringPKc@plt
 1147      E7800000 
 1148              	.LVL149:
  26:src/../h/../h/my_console.h ****     putString("   ===========================");
 1149              		.loc 2 26 5 is_stmt 1
  26:src/../h/../h/my_console.h ****     putString("   ===========================");
 1150              		.loc 2 26 11 is_stmt 0
 1151 076c 1305A00B 		li	a0,186
 1152 0770 97000000 		call	_Z6putInti@plt
 1152      E7800000 
 1153              	.LVL150:
GAS LISTING /tmp/ccLJwVXV.s 			page 32


  27:src/../h/../h/my_console.h ****     putNewline();
 1154              		.loc 2 27 5 is_stmt 1
  27:src/../h/../h/my_console.h ****     putNewline();
 1155              		.loc 2 27 14 is_stmt 0
 1156 0778 17050000 		lla	a0,.LC3
 1156      13050500 
 1157 0780 97000000 		call	_Z9putStringPKc@plt
 1157      E7800000 
 1158              	.LVL151:
  28:src/../h/../h/my_console.h **** 
 1159              		.loc 2 28 5 is_stmt 1
  28:src/../h/../h/my_console.h **** 
 1160              		.loc 2 28 15 is_stmt 0
 1161 0788 97000000 		call	_Z10putNewlinev@plt
 1161      E7800000 
 1162              	.LVL152:
 1163              		.loc 2 30 5 is_stmt 1
 1164              		.loc 2 30 15 is_stmt 0
 1165 0790 97000000 		call	_Z10stopKernelv@plt
 1165      E7800000 
 1166              	.LVL153:
 1167              	.L53:
 1168              	.LBE99:
 1169              	.LBE115:
 1170              	.LBB116:
 1171              	.LBB102:
  23:src/../h/../h/my_console.h ****     putString(file);
 1172              		.loc 2 23 5 is_stmt 1
  23:src/../h/../h/my_console.h ****     putString(file);
 1173              		.loc 2 23 14 is_stmt 0
 1174 0798 17050000 		lla	a0,.LC0
 1174      13050500 
 1175 07a0 97000000 		call	_Z9putStringPKc@plt
 1175      E7800000 
 1176              	.LVL154:
  24:src/../h/../h/my_console.h ****     putString("    line: ");
 1177              		.loc 2 24 5 is_stmt 1
  24:src/../h/../h/my_console.h ****     putString("    line: ");
 1178              		.loc 2 24 14 is_stmt 0
 1179 07a8 17050000 		lla	a0,.LC1
 1179      13050500 
 1180 07b0 97000000 		call	_Z9putStringPKc@plt
 1180      E7800000 
 1181              	.LVL155:
  25:src/../h/../h/my_console.h ****     putInt(line);
 1182              		.loc 2 25 5 is_stmt 1
  25:src/../h/../h/my_console.h ****     putInt(line);
 1183              		.loc 2 25 14 is_stmt 0
 1184 07b8 17050000 		lla	a0,.LC2
 1184      13050500 
 1185 07c0 97000000 		call	_Z9putStringPKc@plt
 1185      E7800000 
 1186              	.LVL156:
  26:src/../h/../h/my_console.h ****     putString("   ===========================");
 1187              		.loc 2 26 5 is_stmt 1
  26:src/../h/../h/my_console.h ****     putString("   ===========================");
 1188              		.loc 2 26 11 is_stmt 0
GAS LISTING /tmp/ccLJwVXV.s 			page 33


 1189 07c8 1305B00B 		li	a0,187
 1190 07cc 97000000 		call	_Z6putInti@plt
 1190      E7800000 
 1191              	.LVL157:
  27:src/../h/../h/my_console.h ****     putNewline();
 1192              		.loc 2 27 5 is_stmt 1
  27:src/../h/../h/my_console.h ****     putNewline();
 1193              		.loc 2 27 14 is_stmt 0
 1194 07d4 17050000 		lla	a0,.LC3
 1194      13050500 
 1195 07dc 97000000 		call	_Z9putStringPKc@plt
 1195      E7800000 
 1196              	.LVL158:
  28:src/../h/../h/my_console.h **** 
 1197              		.loc 2 28 5 is_stmt 1
  28:src/../h/../h/my_console.h **** 
 1198              		.loc 2 28 15 is_stmt 0
 1199 07e4 97000000 		call	_Z10putNewlinev@plt
 1199      E7800000 
 1200              	.LVL159:
 1201              		.loc 2 30 5 is_stmt 1
 1202              		.loc 2 30 15 is_stmt 0
 1203 07ec 97000000 		call	_Z10stopKernelv@plt
 1203      E7800000 
 1204              	.LVL160:
 1205              	.L54:
 1206              	.LBE102:
 1207              	.LBE116:
 1208              	.LBB117:
 1209              	.LBB109:
 197:src/thread.cpp ****         putNewline();
 1210              		.loc 1 197 9 is_stmt 1
 197:src/thread.cpp ****         putNewline();
 1211              		.loc 1 197 18 is_stmt 0
 1212 07f4 17050000 		lla	a0,.LC4
 1212      13050500 
 1213 07fc 97000000 		call	_Z9putStringPKc@plt
 1213      E7800000 
 1214              	.LVL161:
 198:src/thread.cpp **** 
 1215              		.loc 1 198 9 is_stmt 1
 198:src/thread.cpp **** 
 1216              		.loc 1 198 19 is_stmt 0
 1217 0804 97000000 		call	_Z10putNewlinev@plt
 1217      E7800000 
 1218              	.LVL162:
 200:src/thread.cpp ****         assert(pAllThreads[0] == &kernelThread);
 1219              		.loc 1 200 9 is_stmt 1
 201:src/thread.cpp ****         pAllThreads[0]->state = READY;
 1220              		.loc 1 201 9
 1221 080c 17070000 		ld	a4,.LANCHOR0+16
 1221      03370700 
 1222 0814 97070000 		la	a5,kernelThread
 1222      83B70700 
 1223              	.LVL163:
 1224              	.LBB110:
 1225              	.LBB111:
GAS LISTING /tmp/ccLJwVXV.s 			page 34


  20:src/../h/../h/my_console.h ****         return;
 1226              		.loc 2 20 5
 1227 081c 6314F702 		bne	a4,a5,.L55
  21:src/../h/../h/my_console.h **** 
 1228              		.loc 2 21 9
 1229              	.LVL164:
 1230              	.LBE111:
 1231              	.LBE110:
 202:src/thread.cpp ****         Scheduler::put(IThread::pAllThreads[0]);
 1232              		.loc 1 202 9
 202:src/thread.cpp ****         Scheduler::put(IThread::pAllThreads[0]);
 1233              		.loc 1 202 22 is_stmt 0
 1234 0820 97070000 		lla	a5,.LANCHOR0
 1234      93870700 
 1235 0828 03B70701 		ld	a4,16(a5)
 202:src/thread.cpp ****         Scheduler::put(IThread::pAllThreads[0]);
 1236              		.loc 1 202 31
 1237 082c 93062000 		li	a3,2
 1238 0830 2320D700 		sw	a3,0(a4)
 203:src/thread.cpp **** 
 1239              		.loc 1 203 9 is_stmt 1
 203:src/thread.cpp **** 
 1240              		.loc 1 203 23 is_stmt 0
 1241 0834 03B50701 		ld	a0,16(a5)
 1242 0838 97000000 		call	_ZN9Scheduler3putEP7IThread@plt
 1242      E7800000 
 1243              	.LVL165:
 1244              	.LBE109:
 1245 0840 6FF0DFED 		j	.L49
 1246              	.LVL166:
 1247              	.L55:
 1248              	.LBB114:
 1249              	.LBB113:
 1250              	.LBB112:
  23:src/../h/../h/my_console.h ****     putString(file);
 1251              		.loc 2 23 5 is_stmt 1
  23:src/../h/../h/my_console.h ****     putString(file);
 1252              		.loc 2 23 14 is_stmt 0
 1253 0844 17050000 		lla	a0,.LC0
 1253      13050500 
 1254 084c 97000000 		call	_Z9putStringPKc@plt
 1254      E7800000 
 1255              	.LVL167:
  24:src/../h/../h/my_console.h ****     putString("    line: ");
 1256              		.loc 2 24 5 is_stmt 1
  24:src/../h/../h/my_console.h ****     putString("    line: ");
 1257              		.loc 2 24 14 is_stmt 0
 1258 0854 17050000 		lla	a0,.LC1
 1258      13050500 
 1259 085c 97000000 		call	_Z9putStringPKc@plt
 1259      E7800000 
 1260              	.LVL168:
  25:src/../h/../h/my_console.h ****     putInt(line);
 1261              		.loc 2 25 5 is_stmt 1
  25:src/../h/../h/my_console.h ****     putInt(line);
 1262              		.loc 2 25 14 is_stmt 0
 1263 0864 17050000 		lla	a0,.LC2
GAS LISTING /tmp/ccLJwVXV.s 			page 35


 1263      13050500 
 1264 086c 97000000 		call	_Z9putStringPKc@plt
 1264      E7800000 
 1265              	.LVL169:
  26:src/../h/../h/my_console.h ****     putString("   ===========================");
 1266              		.loc 2 26 5 is_stmt 1
  26:src/../h/../h/my_console.h ****     putString("   ===========================");
 1267              		.loc 2 26 11 is_stmt 0
 1268 0874 1305900C 		li	a0,201
 1269 0878 97000000 		call	_Z6putInti@plt
 1269      E7800000 
 1270              	.LVL170:
  27:src/../h/../h/my_console.h ****     putNewline();
 1271              		.loc 2 27 5 is_stmt 1
  27:src/../h/../h/my_console.h ****     putNewline();
 1272              		.loc 2 27 14 is_stmt 0
 1273 0880 17050000 		lla	a0,.LC3
 1273      13050500 
 1274 0888 97000000 		call	_Z9putStringPKc@plt
 1274      E7800000 
 1275              	.LVL171:
  28:src/../h/../h/my_console.h **** 
 1276              		.loc 2 28 5 is_stmt 1
  28:src/../h/../h/my_console.h **** 
 1277              		.loc 2 28 15 is_stmt 0
 1278 0890 97000000 		call	_Z10putNewlinev@plt
 1278      E7800000 
 1279              	.LVL172:
 1280              		.loc 2 30 5 is_stmt 1
 1281              		.loc 2 30 15 is_stmt 0
 1282 0898 97000000 		call	_Z10stopKernelv@plt
 1282      E7800000 
 1283              	.LVL173:
 1284              	.LBE112:
 1285              	.LBE113:
 1286              	.LBE114:
 1287              	.LBE117:
 1288              		.cfi_endproc
 1289              	.LFE23:
 1291              		.globl	_ZN7IThread20switchedToUserThreadE
 1292              		.globl	_ZN7IThread22initialUserMemoryUsageE
 1293              		.globl	_ZN7IThread11pAllThreadsE
 1294              		.globl	_ZN7IThread14nrTotalThreadsE
 1295              		.globl	_ZN7IThread10pRunningSpE
 1296              		.globl	_ZN7IThread8pRunningE
 1297              		.globl	_ZN7IThread16timeSliceCounterE
 1298              		.globl	_ZN7IThread10pSleepHeadE
 1299              		.weak	_ZGVZN9Scheduler3getEvE8instance
 1300              		.section	.bss._ZGVZN9Scheduler3getEvE8instance,"awG",@nobits,_ZGVZN9Scheduler3getEvE8instance,comd
 1301              		.align	3
 1304              	_ZGVZN9Scheduler3getEvE8instance:
 1305 0000 00000000 		.zero	8
 1305      00000000 
 1306              		.weak	_ZZN9Scheduler3getEvE8instance
 1307              		.section	.bss._ZZN9Scheduler3getEvE8instance,"awG",@nobits,_ZZN9Scheduler3getEvE8instance,comdat
 1308              		.align	3
 1311              	_ZZN9Scheduler3getEvE8instance:
GAS LISTING /tmp/ccLJwVXV.s 			page 36


 1312 0000 00000000 		.zero	8
 1312      00000000 
 1313              		.data
 1314              		.align	3
 1315              		.set	.LANCHOR1,. + 0
 1318              	_ZN7IThread14nrTotalThreadsE:
 1319 0000 01000000 		.dword	1
 1319      00000000 
 1320              		.bss
 1321              		.align	3
 1322              		.set	.LANCHOR0,. + 0
 1325              	_ZN7IThread8pRunningE:
 1326 0000 00000000 		.zero	8
 1326      00000000 
 1329              	_ZN7IThread10pRunningSpE:
 1330 0008 00000000 		.zero	8
 1330      00000000 
 1333              	_ZN7IThread11pAllThreadsE:
 1334 0010 00000000 		.zero	800
 1334      00000000 
 1334      00000000 
 1334      00000000 
 1334      00000000 
 1337              	_ZN7IThread20switchedToUserThreadE:
 1338 0330 00       		.zero	1
 1339 0331 00000000 		.zero	7
 1339      000000
 1342              	_ZN7IThread22initialUserMemoryUsageE:
 1343 0338 00000000 		.zero	8
 1343      00000000 
 1346              	_ZN7IThread16timeSliceCounterE:
 1347 0340 00000000 		.zero	8
 1347      00000000 
 1350              	_ZN7IThread10pSleepHeadE:
 1351 0348 00000000 		.zero	8
 1351      00000000 
 1352              		.text
 1353              	.Letext0:
 1354              		.file 4 "src/../h/../lib/hw.h"
 1355              		.file 5 "src/../h/thread.h"
 1356              		.file 6 "src/../h/alloc.h"
 1357              		.file 7 "src/../h/../h/syscall_c.hpp"
GAS LISTING /tmp/ccLJwVXV.s 			page 37


DEFINED SYMBOLS
                            *ABS*:0000000000000000 thread.cpp
     /tmp/ccLJwVXV.s:9      .text:0000000000000000 _Z7wrappermPFvPvES_
     /tmp/ccLJwVXV.s:13     .text:0000000000000000 .L0 
     /tmp/ccLJwVXV.s:15     .text:0000000000000000 .L0 
     /tmp/ccLJwVXV.s:16     .text:0000000000000004 .L0 
     /tmp/ccLJwVXV.s:19     .text:000000000000000c .L0 
     /tmp/ccLJwVXV.s:20     .text:000000000000000c .L0 
     /tmp/ccLJwVXV.s:22     .text:0000000000000010 .L0 
     /tmp/ccLJwVXV.s:24     .text:0000000000000010 .L0 
     /tmp/ccLJwVXV.s:25     .text:0000000000000010 .L0 
     /tmp/ccLJwVXV.s:30     .text:0000000000000018 .L0 
     /tmp/ccLJwVXV.s:31     .text:0000000000000018 .L0 
     /tmp/ccLJwVXV.s:34     .text:0000000000000020 .L0 
     /tmp/ccLJwVXV.s:35     .text:0000000000000024 .L0 
     /tmp/ccLJwVXV.s:37     .text:0000000000000028 .L0 
     /tmp/ccLJwVXV.s:38     .text:0000000000000028 .L0 
     /tmp/ccLJwVXV.s:40     .text:000000000000002c .L0 
     /tmp/ccLJwVXV.s:42     .text:0000000000000030 .L0 
     /tmp/ccLJwVXV.s:48     .text:0000000000000030 _ZN7IThread10signalDoneEv
     /tmp/ccLJwVXV.s:51     .text:0000000000000030 .L0 
     /tmp/ccLJwVXV.s:53     .text:0000000000000030 .L0 
     /tmp/ccLJwVXV.s:54     .text:0000000000000034 .L0 
     /tmp/ccLJwVXV.s:58     .text:0000000000000040 .L0 
     /tmp/ccLJwVXV.s:59     .text:0000000000000040 .L0 
     /tmp/ccLJwVXV.s:60     .text:0000000000000040 .L0 
     /tmp/ccLJwVXV.s:62     .text:0000000000000044 .L0 
     /tmp/ccLJwVXV.s:64     .text:0000000000000044 .L0 
     /tmp/ccLJwVXV.s:65     .text:0000000000000044 .L0 
     /tmp/ccLJwVXV.s:69     .text:0000000000000048 .L0 
     /tmp/ccLJwVXV.s:70     .text:0000000000000048 .L0 
     /tmp/ccLJwVXV.s:72     .text:000000000000004c .L0 
     /tmp/ccLJwVXV.s:73     .text:000000000000004c .L0 
     /tmp/ccLJwVXV.s:76     .text:0000000000000054 .L0 
     /tmp/ccLJwVXV.s:77     .text:0000000000000054 .L0 
     /tmp/ccLJwVXV.s:81     .text:0000000000000060 .L0 
     /tmp/ccLJwVXV.s:82     .text:0000000000000060 .L0 
     /tmp/ccLJwVXV.s:85     .text:0000000000000064 .L0 
     /tmp/ccLJwVXV.s:88     .text:0000000000000068 .L0 
     /tmp/ccLJwVXV.s:89     .text:000000000000006c .L0 
     /tmp/ccLJwVXV.s:91     .text:0000000000000070 .L0 
     /tmp/ccLJwVXV.s:92     .text:0000000000000070 .L0 
     /tmp/ccLJwVXV.s:94     .text:0000000000000074 .L0 
     /tmp/ccLJwVXV.s:97     .text:0000000000000078 .L0 
     /tmp/ccLJwVXV.s:99     .text:000000000000007c .L0 
     /tmp/ccLJwVXV.s:105    .text:000000000000007c _ZN7IThread11setPRunningEPS_
     /tmp/ccLJwVXV.s:108    .text:000000000000007c .L0 
     /tmp/ccLJwVXV.s:110    .text:000000000000007c .L0 
     /tmp/ccLJwVXV.s:111    .text:0000000000000080 .L0 
     /tmp/ccLJwVXV.s:113    .text:0000000000000084 .L0 
     /tmp/ccLJwVXV.s:115    .text:0000000000000088 .L0 
     /tmp/ccLJwVXV.s:117    .text:0000000000000088 .L0 
     /tmp/ccLJwVXV.s:118    .text:0000000000000088 .L0 
     /tmp/ccLJwVXV.s:121    .text:0000000000000094 .L0 
     /tmp/ccLJwVXV.s:122    .text:0000000000000094 .L0 
     /tmp/ccLJwVXV.s:125    .text:0000000000000098 .L0 
     /tmp/ccLJwVXV.s:127    .text:000000000000009c .L0 
GAS LISTING /tmp/ccLJwVXV.s 			page 38


     /tmp/ccLJwVXV.s:128    .text:00000000000000a0 .L0 
     /tmp/ccLJwVXV.s:129    .text:00000000000000a0 .L0 
     /tmp/ccLJwVXV.s:131    .text:00000000000000a4 .L0 
     /tmp/ccLJwVXV.s:133    .text:00000000000000a8 .L0 
     /tmp/ccLJwVXV.s:139    .text:00000000000000a8 _ZN7IThread11getPRunningEv
     /tmp/ccLJwVXV.s:142    .text:00000000000000a8 .L0 
     /tmp/ccLJwVXV.s:143    .text:00000000000000a8 .L0 
     /tmp/ccLJwVXV.s:144    .text:00000000000000ac .L0 
     /tmp/ccLJwVXV.s:146    .text:00000000000000b0 .L0 
     /tmp/ccLJwVXV.s:148    .text:00000000000000b4 .L0 
     /tmp/ccLJwVXV.s:150    .text:00000000000000b4 .L0 
      src/thread.cpp:124    .text:00000000000000b4 .L0 
     /tmp/ccLJwVXV.s:156    .text:00000000000000b8 .L0 
     /tmp/ccLJwVXV.s:158    .text:00000000000000b8 .L0 
     /tmp/ccLJwVXV.s:160    .text:00000000000000c4 .L0 
     /tmp/ccLJwVXV.s:161    .text:00000000000000c4 .L0 
     /tmp/ccLJwVXV.s:163    .text:00000000000000c8 .L0 
     /tmp/ccLJwVXV.s:165    .text:00000000000000cc .L0 
     /tmp/ccLJwVXV.s:185    .text:00000000000000cc _ZN7IThread4joinEm
     /tmp/ccLJwVXV.s:188    .text:00000000000000cc .L0 
     /tmp/ccLJwVXV.s:190    .text:00000000000000cc .L0 
     /tmp/ccLJwVXV.s:191    .text:00000000000000d0 .L0 
     /tmp/ccLJwVXV.s:195    .text:00000000000000dc .L0 
     /tmp/ccLJwVXV.s:196    .text:00000000000000dc .L0 
     /tmp/ccLJwVXV.s:197    .text:00000000000000dc .L0 
     /tmp/ccLJwVXV.s:199    .text:00000000000000e0 .L0 
     /tmp/ccLJwVXV.s:202    .text:00000000000000e4 .L0 
     /tmp/ccLJwVXV.s:203    .text:00000000000000e4 .L0 
     /tmp/ccLJwVXV.s:206    .text:00000000000000ec .L0 
     /tmp/ccLJwVXV.s:207    .text:00000000000000ec .L0 
     /tmp/ccLJwVXV.s:214    .text:0000000000000100 .L0 
     /tmp/ccLJwVXV.s:215    .text:0000000000000100 .L0 
     /tmp/ccLJwVXV.s:221    .text:0000000000000108 .L0 
     /tmp/ccLJwVXV.s:226    .text:000000000000010c .L0 
     /tmp/ccLJwVXV.s:227    .text:000000000000010c .L0 
     /tmp/ccLJwVXV.s:228    .text:000000000000010c .L0 
     /tmp/ccLJwVXV.s:230    .text:0000000000000110 .L0 
     /tmp/ccLJwVXV.s:233    .text:0000000000000114 .L0 
     /tmp/ccLJwVXV.s:234    .text:0000000000000114 .L0 
     /tmp/ccLJwVXV.s:236    .text:0000000000000118 .L0 
     /tmp/ccLJwVXV.s:241    .text:000000000000011c .L0 
     /tmp/ccLJwVXV.s:242    .text:000000000000011c .L0 
     /tmp/ccLJwVXV.s:247    .text:0000000000000128 .L0 
     /tmp/ccLJwVXV.s:248    .text:0000000000000128 .L0 
     /tmp/ccLJwVXV.s:254    .text:000000000000012c .L0 
     /tmp/ccLJwVXV.s:255    .text:000000000000012c .L0 
     /tmp/ccLJwVXV.s:257    .text:0000000000000130 .L0 
     /tmp/ccLJwVXV.s:258    .text:0000000000000130 .L0 
     /tmp/ccLJwVXV.s:261    .text:0000000000000138 .L0 
     /tmp/ccLJwVXV.s:262    .text:0000000000000138 .L0 
     /tmp/ccLJwVXV.s:266    .text:0000000000000140 .L0 
     /tmp/ccLJwVXV.s:267    .text:0000000000000144 .L0 
     /tmp/ccLJwVXV.s:268    .text:0000000000000144 .L0 
     /tmp/ccLJwVXV.s:270    .text:0000000000000148 .L0 
     /tmp/ccLJwVXV.s:271    .text:0000000000000148 .L0 
     /tmp/ccLJwVXV.s:273    .text:000000000000014c .L0 
     /tmp/ccLJwVXV.s:275    .text:0000000000000150 .L0 
GAS LISTING /tmp/ccLJwVXV.s 			page 39


     /tmp/ccLJwVXV.s:279    .text:0000000000000154 .L0 
     /tmp/ccLJwVXV.s:283    .text:0000000000000154 .L0 
     /tmp/ccLJwVXV.s:284    .text:0000000000000154 .L0 
     /tmp/ccLJwVXV.s:289    .text:0000000000000164 .L0 
     /tmp/ccLJwVXV.s:290    .text:0000000000000164 .L0 
     /tmp/ccLJwVXV.s:294    .text:0000000000000174 .L0 
     /tmp/ccLJwVXV.s:295    .text:0000000000000174 .L0 
     /tmp/ccLJwVXV.s:299    .text:0000000000000184 .L0 
     /tmp/ccLJwVXV.s:300    .text:0000000000000184 .L0 
     /tmp/ccLJwVXV.s:304    .text:0000000000000190 .L0 
     /tmp/ccLJwVXV.s:305    .text:0000000000000190 .L0 
     /tmp/ccLJwVXV.s:309    .text:00000000000001a0 .L0 
     /tmp/ccLJwVXV.s:310    .text:00000000000001a0 .L0 
     /tmp/ccLJwVXV.s:313    .text:00000000000001a8 .L0 
     /tmp/ccLJwVXV.s:314    .text:00000000000001a8 .L0 
     /tmp/ccLJwVXV.s:321    .text:00000000000001b0 .L0 
     /tmp/ccLJwVXV.s:322    .text:00000000000001b0 .L0 
     /tmp/ccLJwVXV.s:325    .text:00000000000001b8 .L0 
     /tmp/ccLJwVXV.s:331    .text:00000000000001b8 _ZN7IThread12switchToUserEv
     /tmp/ccLJwVXV.s:334    .text:00000000000001b8 .L0 
     /tmp/ccLJwVXV.s:335    .text:00000000000001b8 .L0 
     /tmp/ccLJwVXV.s:336    .text:00000000000001bc .L0 
     /tmp/ccLJwVXV.s:339    .text:00000000000001c4 .L0 
     /tmp/ccLJwVXV.s:340    .text:00000000000001c4 .L0 
     /tmp/ccLJwVXV.s:342    .text:00000000000001c8 .L0 
     /tmp/ccLJwVXV.s:344    .text:00000000000001c8 .L0 
     /tmp/ccLJwVXV.s:345    .text:00000000000001c8 .L0 
      src/thread.cpp:67     .text:00000000000001c8 .L0 
     /tmp/ccLJwVXV.s:352    .text:00000000000001cc .L0 
     /tmp/ccLJwVXV.s:354    .text:00000000000001cc .L0 
     /tmp/ccLJwVXV.s:357    .text:00000000000001d0 .L0 
     /tmp/ccLJwVXV.s:359    .text:00000000000001d4 .L0 
     /tmp/ccLJwVXV.s:366    .text:00000000000001e0 .L0 
     /tmp/ccLJwVXV.s:371    .text:00000000000001e4 .L0 
     /tmp/ccLJwVXV.s:375    .text:00000000000001e4 .L0 
     /tmp/ccLJwVXV.s:376    .text:00000000000001e4 .L0 
     /tmp/ccLJwVXV.s:1304   .bss._ZGVZN9Scheduler3getEvE8instance:0000000000000000 _ZGVZN9Scheduler3getEvE8instance
     /tmp/ccLJwVXV.s:377    .text:00000000000001e4 .L0 
     /tmp/ccLJwVXV.s:1311   .bss._ZZN9Scheduler3getEvE8instance:0000000000000000 _ZZN9Scheduler3getEvE8instance
     /tmp/ccLJwVXV.s:384    .text:00000000000001f0 .L0 
     /tmp/ccLJwVXV.s:390    .text:00000000000001f8 .L0 
     /tmp/ccLJwVXV.s:397    .text:0000000000000204 .L0 
     /tmp/ccLJwVXV.s:398    .text:0000000000000204 .L0 
     /tmp/ccLJwVXV.s:399    .text:0000000000000204 .L0 
     /tmp/ccLJwVXV.s:400    .text:0000000000000204 .L0 
     /tmp/ccLJwVXV.s:401    .text:0000000000000204 .L0 
     /tmp/ccLJwVXV.s:402    .text:0000000000000204 .L0 
     /tmp/ccLJwVXV.s:405    .text:000000000000020c .L0 
     /tmp/ccLJwVXV.s:413    .text:000000000000021c .L0 
     /tmp/ccLJwVXV.s:417    .text:0000000000000220 .L0 
     /tmp/ccLJwVXV.s:418    .text:0000000000000224 .L0 
     /tmp/ccLJwVXV.s:419    .text:0000000000000224 .L0 
     /tmp/ccLJwVXV.s:421    .text:0000000000000228 .L0 
     /tmp/ccLJwVXV.s:422    .text:0000000000000228 .L0 
     /tmp/ccLJwVXV.s:424    .text:000000000000022c .L0 
     /tmp/ccLJwVXV.s:428    .text:0000000000000230 .L0 
     /tmp/ccLJwVXV.s:432    .text:0000000000000230 .L0 
GAS LISTING /tmp/ccLJwVXV.s 			page 40


     /tmp/ccLJwVXV.s:433    .text:0000000000000230 .L0 
     /tmp/ccLJwVXV.s:434    .text:0000000000000230 .L0 
     /tmp/ccLJwVXV.s:435    .text:0000000000000230 .L0 
     /tmp/ccLJwVXV.s:439    .text:0000000000000240 .L0 
     /tmp/ccLJwVXV.s:440    .text:0000000000000240 .L0 
     /tmp/ccLJwVXV.s:444    .text:0000000000000250 .L0 
     /tmp/ccLJwVXV.s:445    .text:0000000000000250 .L0 
     /tmp/ccLJwVXV.s:449    .text:0000000000000260 .L0 
     /tmp/ccLJwVXV.s:450    .text:0000000000000260 .L0 
     /tmp/ccLJwVXV.s:454    .text:000000000000026c .L0 
     /tmp/ccLJwVXV.s:455    .text:000000000000026c .L0 
     /tmp/ccLJwVXV.s:459    .text:000000000000027c .L0 
     /tmp/ccLJwVXV.s:460    .text:000000000000027c .L0 
     /tmp/ccLJwVXV.s:463    .text:0000000000000284 .L0 
     /tmp/ccLJwVXV.s:464    .text:0000000000000284 .L0 
     /tmp/ccLJwVXV.s:472    .text:000000000000028c .L0 
     /tmp/ccLJwVXV.s:473    .text:000000000000028c .L0 
     /tmp/ccLJwVXV.s:477    .text:000000000000029c .L0 
     /tmp/ccLJwVXV.s:478    .text:000000000000029c .L0 
     /tmp/ccLJwVXV.s:482    .text:00000000000002ac .L0 
     /tmp/ccLJwVXV.s:483    .text:00000000000002ac .L0 
     /tmp/ccLJwVXV.s:487    .text:00000000000002bc .L0 
     /tmp/ccLJwVXV.s:488    .text:00000000000002bc .L0 
     /tmp/ccLJwVXV.s:492    .text:00000000000002c8 .L0 
     /tmp/ccLJwVXV.s:493    .text:00000000000002c8 .L0 
     /tmp/ccLJwVXV.s:497    .text:00000000000002d8 .L0 
     /tmp/ccLJwVXV.s:498    .text:00000000000002d8 .L0 
     /tmp/ccLJwVXV.s:501    .text:00000000000002e0 .L0 
     /tmp/ccLJwVXV.s:502    .text:00000000000002e0 .L0 
     /tmp/ccLJwVXV.s:510    .text:00000000000002e8 .L0 
     /tmp/ccLJwVXV.s:511    .text:00000000000002e8 .L0 
     /tmp/ccLJwVXV.s:515    .text:00000000000002f8 .L0 
     /tmp/ccLJwVXV.s:516    .text:00000000000002f8 .L0 
     /tmp/ccLJwVXV.s:520    .text:0000000000000308 .L0 
     /tmp/ccLJwVXV.s:521    .text:0000000000000308 .L0 
     /tmp/ccLJwVXV.s:525    .text:0000000000000318 .L0 
     /tmp/ccLJwVXV.s:526    .text:0000000000000318 .L0 
     /tmp/ccLJwVXV.s:530    .text:0000000000000324 .L0 
     /tmp/ccLJwVXV.s:531    .text:0000000000000324 .L0 
     /tmp/ccLJwVXV.s:535    .text:0000000000000334 .L0 
     /tmp/ccLJwVXV.s:536    .text:0000000000000334 .L0 
     /tmp/ccLJwVXV.s:539    .text:000000000000033c .L0 
     /tmp/ccLJwVXV.s:540    .text:000000000000033c .L0 
     /tmp/ccLJwVXV.s:544    .text:0000000000000344 .L0 
     /tmp/ccLJwVXV.s:550    .text:0000000000000344 _ZN7IThread10allocStackEv
     /tmp/ccLJwVXV.s:553    .text:0000000000000344 .L0 
     /tmp/ccLJwVXV.s:555    .text:0000000000000344 .L0 
     /tmp/ccLJwVXV.s:556    .text:0000000000000348 .L0 
     /tmp/ccLJwVXV.s:561    .text:0000000000000358 .L0 
     /tmp/ccLJwVXV.s:562    .text:0000000000000358 .L0 
     /tmp/ccLJwVXV.s:563    .text:0000000000000358 .L0 
     /tmp/ccLJwVXV.s:564    .text:0000000000000358 .L0 
     /tmp/ccLJwVXV.s:566    .text:000000000000035c .L0 
     /tmp/ccLJwVXV.s:568    .text:000000000000035c .L0 
     /tmp/ccLJwVXV.s:573    .text:0000000000000360 .L0 
     /tmp/ccLJwVXV.s:579    .text:0000000000000368 .L0 
     /tmp/ccLJwVXV.s:580    .text:0000000000000368 .L0 
GAS LISTING /tmp/ccLJwVXV.s 			page 41


     /tmp/ccLJwVXV.s:581    .text:0000000000000368 .L0 
     /tmp/ccLJwVXV.s:588    .text:0000000000000380 .L0 
     /tmp/ccLJwVXV.s:590    .text:0000000000000384 .L0 
     /tmp/ccLJwVXV.s:591    .text:0000000000000384 .L0 
     /tmp/ccLJwVXV.s:595    .text:000000000000038c .L0 
     /tmp/ccLJwVXV.s:596    .text:000000000000038c .L0 
     /tmp/ccLJwVXV.s:598    .text:0000000000000390 .L0 
     /tmp/ccLJwVXV.s:600    .text:0000000000000394 .L0 
     /tmp/ccLJwVXV.s:601    .text:0000000000000394 .L0 
     /tmp/ccLJwVXV.s:605    .text:0000000000000398 .L0 
     /tmp/ccLJwVXV.s:606    .text:0000000000000398 .L0 
     /tmp/ccLJwVXV.s:607    .text:0000000000000398 .L0 
     /tmp/ccLJwVXV.s:610    .text:00000000000003a0 .L0 
     /tmp/ccLJwVXV.s:611    .text:00000000000003a0 .L0 
     /tmp/ccLJwVXV.s:613    .text:00000000000003a4 .L0 
     /tmp/ccLJwVXV.s:614    .text:00000000000003a4 .L0 
     /tmp/ccLJwVXV.s:616    .text:00000000000003a8 .L0 
     /tmp/ccLJwVXV.s:618    .text:00000000000003ac .L0 
     /tmp/ccLJwVXV.s:621    .text:00000000000003b0 .L0 
     /tmp/ccLJwVXV.s:625    .text:00000000000003b4 .L0 
     /tmp/ccLJwVXV.s:629    .text:00000000000003b4 .L0 
     /tmp/ccLJwVXV.s:630    .text:00000000000003b4 .L0 
     /tmp/ccLJwVXV.s:635    .text:00000000000003c4 .L0 
     /tmp/ccLJwVXV.s:636    .text:00000000000003c4 .L0 
     /tmp/ccLJwVXV.s:640    .text:00000000000003d4 .L0 
     /tmp/ccLJwVXV.s:641    .text:00000000000003d4 .L0 
     /tmp/ccLJwVXV.s:645    .text:00000000000003e4 .L0 
     /tmp/ccLJwVXV.s:646    .text:00000000000003e4 .L0 
     /tmp/ccLJwVXV.s:650    .text:00000000000003f0 .L0 
     /tmp/ccLJwVXV.s:651    .text:00000000000003f0 .L0 
     /tmp/ccLJwVXV.s:655    .text:0000000000000400 .L0 
     /tmp/ccLJwVXV.s:656    .text:0000000000000400 .L0 
     /tmp/ccLJwVXV.s:659    .text:0000000000000408 .L0 
     /tmp/ccLJwVXV.s:660    .text:0000000000000408 .L0 
     /tmp/ccLJwVXV.s:664    .text:0000000000000410 .L0 
     /tmp/ccLJwVXV.s:670    .text:0000000000000410 _ZN7IThread4initEPFvPvES0_S0_
     /tmp/ccLJwVXV.s:673    .text:0000000000000410 .L0 
     /tmp/ccLJwVXV.s:675    .text:0000000000000410 .L0 
     /tmp/ccLJwVXV.s:676    .text:0000000000000414 .L0 
     /tmp/ccLJwVXV.s:679    .text:000000000000041c .L0 
     /tmp/ccLJwVXV.s:680    .text:000000000000041c .L0 
     /tmp/ccLJwVXV.s:682    .text:0000000000000420 .L0 
     /tmp/ccLJwVXV.s:684    .text:0000000000000420 .L0 
     /tmp/ccLJwVXV.s:690    .text:000000000000042c .L0 
     /tmp/ccLJwVXV.s:695    .text:0000000000000430 .L0 
     /tmp/ccLJwVXV.s:696    .text:0000000000000430 .L0 
     /tmp/ccLJwVXV.s:697    .text:0000000000000430 .L0 
     /tmp/ccLJwVXV.s:701    .text:0000000000000440 .L0 
     /tmp/ccLJwVXV.s:702    .text:0000000000000440 .L0 
     /tmp/ccLJwVXV.s:705    .text:0000000000000448 .L0 
     /tmp/ccLJwVXV.s:710    .text:000000000000044c .L0 
     /tmp/ccLJwVXV.s:715    .text:0000000000000450 .L0 
     /tmp/ccLJwVXV.s:716    .text:0000000000000450 .L0 
     /tmp/ccLJwVXV.s:717    .text:0000000000000450 .L0 
     /tmp/ccLJwVXV.s:718    .text:0000000000000450 .L0 
     /tmp/ccLJwVXV.s:721    .text:0000000000000458 .L0 
     /tmp/ccLJwVXV.s:722    .text:0000000000000458 .L0 
GAS LISTING /tmp/ccLJwVXV.s 			page 42


     /tmp/ccLJwVXV.s:724    .text:000000000000045c .L0 
     /tmp/ccLJwVXV.s:725    .text:000000000000045c .L0 
     /tmp/ccLJwVXV.s:727    .text:0000000000000460 .L0 
     /tmp/ccLJwVXV.s:728    .text:0000000000000460 .L0 
     /tmp/ccLJwVXV.s:730    .text:0000000000000464 .L0 
     /tmp/ccLJwVXV.s:731    .text:0000000000000464 .L0 
     /tmp/ccLJwVXV.s:735    .text:0000000000000468 .L0 
     /tmp/ccLJwVXV.s:736    .text:0000000000000468 .L0 
     /tmp/ccLJwVXV.s:740    .text:000000000000046c .L0 
     /tmp/ccLJwVXV.s:743    .text:0000000000000474 .L0 
     /tmp/ccLJwVXV.s:744    .text:0000000000000474 .L0 
     /tmp/ccLJwVXV.s:747    .text:000000000000047c .L0 
     /tmp/ccLJwVXV.s:749    .text:0000000000000480 .L0 
     /tmp/ccLJwVXV.s:758    .text:0000000000000488 .L0 
     /tmp/ccLJwVXV.s:759    .text:0000000000000488 .L0 
     /tmp/ccLJwVXV.s:764    .text:0000000000000498 .L0 
     /tmp/ccLJwVXV.s:765    .text:0000000000000498 .L0 
     /tmp/ccLJwVXV.s:769    .text:00000000000004a8 .L0 
     /tmp/ccLJwVXV.s:770    .text:00000000000004a8 .L0 
     /tmp/ccLJwVXV.s:774    .text:00000000000004b8 .L0 
     /tmp/ccLJwVXV.s:775    .text:00000000000004b8 .L0 
     /tmp/ccLJwVXV.s:779    .text:00000000000004c4 .L0 
     /tmp/ccLJwVXV.s:780    .text:00000000000004c4 .L0 
     /tmp/ccLJwVXV.s:784    .text:00000000000004d4 .L0 
     /tmp/ccLJwVXV.s:785    .text:00000000000004d4 .L0 
     /tmp/ccLJwVXV.s:788    .text:00000000000004dc .L0 
     /tmp/ccLJwVXV.s:789    .text:00000000000004dc .L0 
     /tmp/ccLJwVXV.s:797    .text:00000000000004e4 .L0 
     /tmp/ccLJwVXV.s:798    .text:00000000000004e4 .L0 
     /tmp/ccLJwVXV.s:803    .text:00000000000004f4 .L0 
     /tmp/ccLJwVXV.s:804    .text:00000000000004f4 .L0 
     /tmp/ccLJwVXV.s:808    .text:0000000000000504 .L0 
     /tmp/ccLJwVXV.s:809    .text:0000000000000504 .L0 
     /tmp/ccLJwVXV.s:813    .text:0000000000000514 .L0 
     /tmp/ccLJwVXV.s:814    .text:0000000000000514 .L0 
     /tmp/ccLJwVXV.s:818    .text:0000000000000520 .L0 
     /tmp/ccLJwVXV.s:819    .text:0000000000000520 .L0 
     /tmp/ccLJwVXV.s:823    .text:0000000000000530 .L0 
     /tmp/ccLJwVXV.s:824    .text:0000000000000530 .L0 
     /tmp/ccLJwVXV.s:827    .text:0000000000000538 .L0 
     /tmp/ccLJwVXV.s:828    .text:0000000000000538 .L0 
     /tmp/ccLJwVXV.s:834    .text:0000000000000540 .L0 
     /tmp/ccLJwVXV.s:835    .text:0000000000000540 .L0 
     /tmp/ccLJwVXV.s:837    .text:0000000000000544 .L0 
     /tmp/ccLJwVXV.s:838    .text:0000000000000544 .L0 
     /tmp/ccLJwVXV.s:840    .text:0000000000000548 .L0 
     /tmp/ccLJwVXV.s:841    .text:0000000000000548 .L0 
     /tmp/ccLJwVXV.s:845    .text:0000000000000554 .L0 
     /tmp/ccLJwVXV.s:846    .text:0000000000000554 .L0 
     /tmp/ccLJwVXV.s:849    .text:000000000000055c .L0 
     /tmp/ccLJwVXV.s:850    .text:0000000000000560 .L0 
     /tmp/ccLJwVXV.s:852    .text:0000000000000564 .L0 
     /tmp/ccLJwVXV.s:853    .text:0000000000000564 .L0 
     /tmp/ccLJwVXV.s:855    .text:0000000000000568 .L0 
     /tmp/ccLJwVXV.s:857    .text:000000000000056c .L0 
     /tmp/ccLJwVXV.s:863    .text:000000000000056c _ZN7IThread12createThreadEPmPFvPvES1_
     /tmp/ccLJwVXV.s:866    .text:000000000000056c .L0 
GAS LISTING /tmp/ccLJwVXV.s 			page 43


     /tmp/ccLJwVXV.s:868    .text:000000000000056c .L0 
     /tmp/ccLJwVXV.s:869    .text:0000000000000570 .L0 
     /tmp/ccLJwVXV.s:876    .text:0000000000000588 .L0 
     /tmp/ccLJwVXV.s:877    .text:0000000000000588 .L0 
     /tmp/ccLJwVXV.s:878    .text:0000000000000588 .L0 
     /tmp/ccLJwVXV.s:879    .text:0000000000000588 .L0 
     /tmp/ccLJwVXV.s:880    .text:0000000000000588 .L0 
     /tmp/ccLJwVXV.s:881    .text:0000000000000588 .L0 
     /tmp/ccLJwVXV.s:883    .text:000000000000058c .L0 
     /tmp/ccLJwVXV.s:885    .text:000000000000058c .L0 
     /tmp/ccLJwVXV.s:891    .text:0000000000000598 .L0 
     /tmp/ccLJwVXV.s:899    .text:00000000000005a8 .L0 
     /tmp/ccLJwVXV.s:900    .text:00000000000005a8 .L0 
     /tmp/ccLJwVXV.s:901    .text:00000000000005a8 .L0 
     /tmp/ccLJwVXV.s:909    .text:00000000000005c0 .L0 
     /tmp/ccLJwVXV.s:910    .text:00000000000005c0 .L0 
     /tmp/ccLJwVXV.s:916    .text:00000000000005dc .L0 
     /tmp/ccLJwVXV.s:917    .text:00000000000005dc .L0 
     /tmp/ccLJwVXV.s:919    .text:00000000000005e0 .L0 
     /tmp/ccLJwVXV.s:920    .text:00000000000005e0 .L0 
     /tmp/ccLJwVXV.s:925    .text:00000000000005ec .L0 
     /tmp/ccLJwVXV.s:926    .text:00000000000005ec .L0 
     /tmp/ccLJwVXV.s:933    .text:0000000000000600 .L0 
     /tmp/ccLJwVXV.s:934    .text:0000000000000600 .L0 
     /tmp/ccLJwVXV.s:936    .text:0000000000000604 .L0 
     /tmp/ccLJwVXV.s:938    .text:0000000000000608 .L0 
     /tmp/ccLJwVXV.s:939    .text:0000000000000608 .L0 
     /tmp/ccLJwVXV.s:943    .text:0000000000000614 .L0 
     /tmp/ccLJwVXV.s:944    .text:0000000000000614 .L0 
     /tmp/ccLJwVXV.s:946    .text:000000000000061c .L0 
     /tmp/ccLJwVXV.s:947    .text:000000000000061c .L0 
     /tmp/ccLJwVXV.s:949    .text:0000000000000620 .L0 
     /tmp/ccLJwVXV.s:950    .text:0000000000000620 .L0 
     /tmp/ccLJwVXV.s:952    .text:0000000000000624 .L0 
     /tmp/ccLJwVXV.s:955    .text:0000000000000628 .L0 
     /tmp/ccLJwVXV.s:958    .text:000000000000062c .L0 
     /tmp/ccLJwVXV.s:961    .text:0000000000000630 .L0 
     /tmp/ccLJwVXV.s:964    .text:0000000000000634 .L0 
     /tmp/ccLJwVXV.s:968    .text:0000000000000638 .L0 
     /tmp/ccLJwVXV.s:972    .text:0000000000000638 .L0 
     /tmp/ccLJwVXV.s:973    .text:0000000000000638 .L0 
     /tmp/ccLJwVXV.s:978    .text:0000000000000648 .L0 
     /tmp/ccLJwVXV.s:979    .text:0000000000000648 .L0 
     /tmp/ccLJwVXV.s:983    .text:0000000000000658 .L0 
     /tmp/ccLJwVXV.s:984    .text:0000000000000658 .L0 
     /tmp/ccLJwVXV.s:988    .text:0000000000000668 .L0 
     /tmp/ccLJwVXV.s:989    .text:0000000000000668 .L0 
     /tmp/ccLJwVXV.s:993    .text:0000000000000674 .L0 
     /tmp/ccLJwVXV.s:994    .text:0000000000000674 .L0 
     /tmp/ccLJwVXV.s:998    .text:0000000000000684 .L0 
     /tmp/ccLJwVXV.s:999    .text:0000000000000684 .L0 
     /tmp/ccLJwVXV.s:1002   .text:000000000000068c .L0 
     /tmp/ccLJwVXV.s:1003   .text:000000000000068c .L0 
     /tmp/ccLJwVXV.s:1007   .text:0000000000000694 .L0 
     /tmp/ccLJwVXV.s:1018   .text:0000000000000694 _ZN7IThread4exitEv
     /tmp/ccLJwVXV.s:1021   .text:0000000000000694 .L0 
     /tmp/ccLJwVXV.s:1022   .text:0000000000000694 .L0 
GAS LISTING /tmp/ccLJwVXV.s 			page 44


     /tmp/ccLJwVXV.s:1023   .text:0000000000000698 .L0 
     /tmp/ccLJwVXV.s:1027   .text:00000000000006a4 .L0 
     /tmp/ccLJwVXV.s:1028   .text:00000000000006a4 .L0 
     /tmp/ccLJwVXV.s:1029   .text:00000000000006a4 .L0 
     /tmp/ccLJwVXV.s:1031   .text:00000000000006a8 .L0 
     /tmp/ccLJwVXV.s:1033   .text:00000000000006a8 .L0 
     /tmp/ccLJwVXV.s:1034   .text:00000000000006a8 .L0 
     /tmp/ccLJwVXV.s:1037   .text:00000000000006b0 .L0 
     /tmp/ccLJwVXV.s:1042   .text:00000000000006b4 .L0 
     /tmp/ccLJwVXV.s:1048   .text:00000000000006bc .L0 
     /tmp/ccLJwVXV.s:1049   .text:00000000000006bc .L0 
     /tmp/ccLJwVXV.s:1055   .text:00000000000006c4 .L0 
     /tmp/ccLJwVXV.s:1060   .text:00000000000006c8 .L0 
     /tmp/ccLJwVXV.s:1061   .text:00000000000006c8 .L0 
     /tmp/ccLJwVXV.s:1062   .text:00000000000006c8 .L0 
     /tmp/ccLJwVXV.s:1065   .text:00000000000006d0 .L0 
     /tmp/ccLJwVXV.s:1066   .text:00000000000006d0 .L0 
     /tmp/ccLJwVXV.s:1072   .text:00000000000006e4 .L0 
     /tmp/ccLJwVXV.s:1073   .text:00000000000006e4 .L0 
     /tmp/ccLJwVXV.s:1079   .text:00000000000006f0 .L0 
     /tmp/ccLJwVXV.s:1080   .text:00000000000006f0 .L0 
     /tmp/ccLJwVXV.s:1081   .text:00000000000006f0 .L0 
     /tmp/ccLJwVXV.s:1088   .text:00000000000006fc .L0 
     /tmp/ccLJwVXV.s:1094   .text:0000000000000704 .L0 
     /tmp/ccLJwVXV.s:1100   .text:0000000000000710 .L0 
     /tmp/ccLJwVXV.s:1101   .text:0000000000000710 .L0 
     /tmp/ccLJwVXV.s:1105   .text:0000000000000718 .L0 
     /tmp/ccLJwVXV.s:1110   .text:000000000000071c .L0 
     /tmp/ccLJwVXV.s:1111   .text:000000000000071c .L0 
     /tmp/ccLJwVXV.s:1114   .text:0000000000000724 .L0 
     /tmp/ccLJwVXV.s:1115   .text:0000000000000724 .L0 
     /tmp/ccLJwVXV.s:1117   .text:000000000000072c .L0 
     /tmp/ccLJwVXV.s:1118   .text:000000000000072c .L0 
     /tmp/ccLJwVXV.s:1120   .text:0000000000000730 .L0 
     /tmp/ccLJwVXV.s:1121   .text:0000000000000730 .L0 
     /tmp/ccLJwVXV.s:1123   .text:0000000000000734 .L0 
     /tmp/ccLJwVXV.s:1126   .text:0000000000000738 .L0 
     /tmp/ccLJwVXV.s:1130   .text:000000000000073c .L0 
     /tmp/ccLJwVXV.s:1134   .text:000000000000073c .L0 
     /tmp/ccLJwVXV.s:1135   .text:000000000000073c .L0 
     /tmp/ccLJwVXV.s:1140   .text:000000000000074c .L0 
     /tmp/ccLJwVXV.s:1141   .text:000000000000074c .L0 
     /tmp/ccLJwVXV.s:1145   .text:000000000000075c .L0 
     /tmp/ccLJwVXV.s:1146   .text:000000000000075c .L0 
     /tmp/ccLJwVXV.s:1150   .text:000000000000076c .L0 
     /tmp/ccLJwVXV.s:1151   .text:000000000000076c .L0 
     /tmp/ccLJwVXV.s:1155   .text:0000000000000778 .L0 
     /tmp/ccLJwVXV.s:1156   .text:0000000000000778 .L0 
     /tmp/ccLJwVXV.s:1160   .text:0000000000000788 .L0 
     /tmp/ccLJwVXV.s:1161   .text:0000000000000788 .L0 
     /tmp/ccLJwVXV.s:1164   .text:0000000000000790 .L0 
     /tmp/ccLJwVXV.s:1165   .text:0000000000000790 .L0 
     /tmp/ccLJwVXV.s:1173   .text:0000000000000798 .L0 
     /tmp/ccLJwVXV.s:1174   .text:0000000000000798 .L0 
     /tmp/ccLJwVXV.s:1178   .text:00000000000007a8 .L0 
     /tmp/ccLJwVXV.s:1179   .text:00000000000007a8 .L0 
     /tmp/ccLJwVXV.s:1183   .text:00000000000007b8 .L0 
GAS LISTING /tmp/ccLJwVXV.s 			page 45


     /tmp/ccLJwVXV.s:1184   .text:00000000000007b8 .L0 
     /tmp/ccLJwVXV.s:1188   .text:00000000000007c8 .L0 
     /tmp/ccLJwVXV.s:1189   .text:00000000000007c8 .L0 
     /tmp/ccLJwVXV.s:1193   .text:00000000000007d4 .L0 
     /tmp/ccLJwVXV.s:1194   .text:00000000000007d4 .L0 
     /tmp/ccLJwVXV.s:1198   .text:00000000000007e4 .L0 
     /tmp/ccLJwVXV.s:1199   .text:00000000000007e4 .L0 
     /tmp/ccLJwVXV.s:1202   .text:00000000000007ec .L0 
     /tmp/ccLJwVXV.s:1203   .text:00000000000007ec .L0 
     /tmp/ccLJwVXV.s:1211   .text:00000000000007f4 .L0 
     /tmp/ccLJwVXV.s:1212   .text:00000000000007f4 .L0 
     /tmp/ccLJwVXV.s:1216   .text:0000000000000804 .L0 
     /tmp/ccLJwVXV.s:1217   .text:0000000000000804 .L0 
     /tmp/ccLJwVXV.s:1220   .text:000000000000080c .L0 
     /tmp/ccLJwVXV.s:1221   .text:000000000000080c .L0 
     /tmp/ccLJwVXV.s:1227   .text:000000000000081c .L0 
     /tmp/ccLJwVXV.s:1232   .text:0000000000000820 .L0 
     /tmp/ccLJwVXV.s:1233   .text:0000000000000820 .L0 
     /tmp/ccLJwVXV.s:1234   .text:0000000000000820 .L0 
     /tmp/ccLJwVXV.s:1237   .text:000000000000082c .L0 
     /tmp/ccLJwVXV.s:1240   .text:0000000000000834 .L0 
     /tmp/ccLJwVXV.s:1241   .text:0000000000000834 .L0 
     /tmp/ccLJwVXV.s:1252   .text:0000000000000844 .L0 
     /tmp/ccLJwVXV.s:1253   .text:0000000000000844 .L0 
     /tmp/ccLJwVXV.s:1257   .text:0000000000000854 .L0 
     /tmp/ccLJwVXV.s:1258   .text:0000000000000854 .L0 
     /tmp/ccLJwVXV.s:1262   .text:0000000000000864 .L0 
     /tmp/ccLJwVXV.s:1263   .text:0000000000000864 .L0 
     /tmp/ccLJwVXV.s:1267   .text:0000000000000874 .L0 
     /tmp/ccLJwVXV.s:1268   .text:0000000000000874 .L0 
     /tmp/ccLJwVXV.s:1272   .text:0000000000000880 .L0 
     /tmp/ccLJwVXV.s:1273   .text:0000000000000880 .L0 
     /tmp/ccLJwVXV.s:1277   .text:0000000000000890 .L0 
     /tmp/ccLJwVXV.s:1278   .text:0000000000000890 .L0 
     /tmp/ccLJwVXV.s:1281   .text:0000000000000898 .L0 
     /tmp/ccLJwVXV.s:1282   .text:0000000000000898 .L0 
     /tmp/ccLJwVXV.s:1288   .text:00000000000008a0 .L0 
     /tmp/ccLJwVXV.s:1337   .bss:0000000000000330 _ZN7IThread20switchedToUserThreadE
     /tmp/ccLJwVXV.s:1342   .bss:0000000000000338 _ZN7IThread22initialUserMemoryUsageE
     /tmp/ccLJwVXV.s:1333   .bss:0000000000000010 _ZN7IThread11pAllThreadsE
     /tmp/ccLJwVXV.s:1318   .data:0000000000000000 _ZN7IThread14nrTotalThreadsE
     /tmp/ccLJwVXV.s:1329   .bss:0000000000000008 _ZN7IThread10pRunningSpE
     /tmp/ccLJwVXV.s:1325   .bss:0000000000000000 _ZN7IThread8pRunningE
     /tmp/ccLJwVXV.s:1346   .bss:0000000000000340 _ZN7IThread16timeSliceCounterE
     /tmp/ccLJwVXV.s:1350   .bss:0000000000000348 _ZN7IThread10pSleepHeadE
     /tmp/ccLJwVXV.s:1315   .data:0000000000000000 .LANCHOR1
     /tmp/ccLJwVXV.s:1322   .bss:0000000000000000 .LANCHOR0
     /tmp/ccLJwVXV.s:1358   .text:00000000000008a0 .L0 
     /tmp/ccLJwVXV.s:118    .text:0000000000000088 .L0 
     /tmp/ccLJwVXV.s:158    .text:00000000000000b8 .L0 
     /tmp/ccLJwVXV.s:209    .text:00000000000000f0 .L0 
     /tmp/ccLJwVXV.s:215    .text:0000000000000100 .L0 
     /tmp/ccLJwVXV.s:170    .rodata.str1.8:0000000000000000 .LC0
     /tmp/ccLJwVXV.s:284    .text:0000000000000154 .L0 
     /tmp/ccLJwVXV.s:173    .rodata.str1.8:0000000000000028 .LC1
     /tmp/ccLJwVXV.s:290    .text:0000000000000164 .L0 
     /tmp/ccLJwVXV.s:176    .rodata.str1.8:0000000000000038 .LC2
GAS LISTING /tmp/ccLJwVXV.s 			page 46


     /tmp/ccLJwVXV.s:295    .text:0000000000000174 .L0 
     /tmp/ccLJwVXV.s:179    .rodata.str1.8:0000000000000048 .LC3
     /tmp/ccLJwVXV.s:305    .text:0000000000000190 .L0 
     /tmp/ccLJwVXV.s:359    .text:00000000000001d4 .L0 
     /tmp/ccLJwVXV.s:377    .text:00000000000001e4 .L0 
     /tmp/ccLJwVXV.s:384    .text:00000000000001f0 .L0 
     /tmp/ccLJwVXV.s:391    .text:00000000000001fc .L0 
     /tmp/ccLJwVXV.s:435    .text:0000000000000230 .L0 
     /tmp/ccLJwVXV.s:440    .text:0000000000000240 .L0 
     /tmp/ccLJwVXV.s:445    .text:0000000000000250 .L0 
     /tmp/ccLJwVXV.s:455    .text:000000000000026c .L0 
     /tmp/ccLJwVXV.s:473    .text:000000000000028c .L0 
     /tmp/ccLJwVXV.s:478    .text:000000000000029c .L0 
     /tmp/ccLJwVXV.s:483    .text:00000000000002ac .L0 
     /tmp/ccLJwVXV.s:493    .text:00000000000002c8 .L0 
     /tmp/ccLJwVXV.s:511    .text:00000000000002e8 .L0 
     /tmp/ccLJwVXV.s:516    .text:00000000000002f8 .L0 
     /tmp/ccLJwVXV.s:521    .text:0000000000000308 .L0 
     /tmp/ccLJwVXV.s:531    .text:0000000000000324 .L0 
     /tmp/ccLJwVXV.s:630    .text:00000000000003b4 .L0 
     /tmp/ccLJwVXV.s:636    .text:00000000000003c4 .L0 
     /tmp/ccLJwVXV.s:641    .text:00000000000003d4 .L0 
     /tmp/ccLJwVXV.s:651    .text:00000000000003f0 .L0 
     /tmp/ccLJwVXV.s:684    .text:0000000000000420 .L0 
     /tmp/ccLJwVXV.s:697    .text:0000000000000430 .L0 
     /tmp/ccLJwVXV.s:759    .text:0000000000000488 .L0 
     /tmp/ccLJwVXV.s:765    .text:0000000000000498 .L0 
     /tmp/ccLJwVXV.s:770    .text:00000000000004a8 .L0 
     /tmp/ccLJwVXV.s:780    .text:00000000000004c4 .L0 
     /tmp/ccLJwVXV.s:798    .text:00000000000004e4 .L0 
     /tmp/ccLJwVXV.s:804    .text:00000000000004f4 .L0 
     /tmp/ccLJwVXV.s:809    .text:0000000000000504 .L0 
     /tmp/ccLJwVXV.s:819    .text:0000000000000520 .L0 
     /tmp/ccLJwVXV.s:841    .text:0000000000000548 .L0 
     /tmp/ccLJwVXV.s:885    .text:000000000000058c .L0 
     /tmp/ccLJwVXV.s:910    .text:00000000000005c0 .L0 
     /tmp/ccLJwVXV.s:912    .text:00000000000005cc .L0 
     /tmp/ccLJwVXV.s:973    .text:0000000000000638 .L0 
     /tmp/ccLJwVXV.s:979    .text:0000000000000648 .L0 
     /tmp/ccLJwVXV.s:984    .text:0000000000000658 .L0 
     /tmp/ccLJwVXV.s:994    .text:0000000000000674 .L0 
     /tmp/ccLJwVXV.s:1081   .text:00000000000006f0 .L0 
     /tmp/ccLJwVXV.s:1088   .text:00000000000006fc .L0 
     /tmp/ccLJwVXV.s:1095   .text:0000000000000708 .L0 
     /tmp/ccLJwVXV.s:1101   .text:0000000000000710 .L0 
     /tmp/ccLJwVXV.s:1135   .text:000000000000073c .L0 
     /tmp/ccLJwVXV.s:1141   .text:000000000000074c .L0 
     /tmp/ccLJwVXV.s:1146   .text:000000000000075c .L0 
     /tmp/ccLJwVXV.s:1156   .text:0000000000000778 .L0 
     /tmp/ccLJwVXV.s:1174   .text:0000000000000798 .L0 
     /tmp/ccLJwVXV.s:1179   .text:00000000000007a8 .L0 
     /tmp/ccLJwVXV.s:1184   .text:00000000000007b8 .L0 
     /tmp/ccLJwVXV.s:1194   .text:00000000000007d4 .L0 
     /tmp/ccLJwVXV.s:1012   .rodata.str1.8:0000000000000068 .LC4
     /tmp/ccLJwVXV.s:1212   .text:00000000000007f4 .L0 
     /tmp/ccLJwVXV.s:1221   .text:000000000000080c .L0 
     /tmp/ccLJwVXV.s:1222   .text:0000000000000814 .L0 
GAS LISTING /tmp/ccLJwVXV.s 			page 47


     /tmp/ccLJwVXV.s:1234   .text:0000000000000820 .L0 
     /tmp/ccLJwVXV.s:1253   .text:0000000000000844 .L0 
     /tmp/ccLJwVXV.s:1258   .text:0000000000000854 .L0 
     /tmp/ccLJwVXV.s:1263   .text:0000000000000864 .L0 
     /tmp/ccLJwVXV.s:1273   .text:0000000000000880 .L0 
     /tmp/ccLJwVXV.s:86     .text:0000000000000068 .L3
     /tmp/ccLJwVXV.s:67     .text:0000000000000048 .L5
     /tmp/ccLJwVXV.s:278    .text:0000000000000154 .L17
     /tmp/ccLJwVXV.s:264    .text:0000000000000140 .L11
     /tmp/ccLJwVXV.s:316    .text:00000000000001b0 .L18
     /tmp/ccLJwVXV.s:238    .text:000000000000011c .L14
     /tmp/ccLJwVXV.s:250    .text:000000000000012c .L15
     /tmp/ccLJwVXV.s:427    .text:0000000000000230 .L25
     /tmp/ccLJwVXV.s:466    .text:000000000000028c .L26
     /tmp/ccLJwVXV.s:392    .text:0000000000000204 .L22
     /tmp/ccLJwVXV.s:504    .text:00000000000002e8 .L27
     /tmp/ccLJwVXV.s:624    .text:00000000000003b4 .L32
     /tmp/ccLJwVXV.s:603    .text:0000000000000398 .L30
     /tmp/ccLJwVXV.s:753    .text:0000000000000488 .L39
     /tmp/ccLJwVXV.s:791    .text:00000000000004e4 .L40
     /tmp/ccLJwVXV.s:830    .text:0000000000000540 .L36
     /tmp/ccLJwVXV.s:738    .text:000000000000046c .L37
     /tmp/ccLJwVXV.s:967    .text:0000000000000638 .L44
     /tmp/ccLJwVXV.s:1129   .text:000000000000073c .L52
     /tmp/ccLJwVXV.s:1167   .text:0000000000000798 .L53
     /tmp/ccLJwVXV.s:1096   .text:0000000000000710 .L48
     /tmp/ccLJwVXV.s:1205   .text:00000000000007f4 .L54
     /tmp/ccLJwVXV.s:1247   .text:0000000000000844 .L55
     /tmp/ccLJwVXV.s:1107   .text:000000000000071c .L49
     /tmp/ccLJwVXV.s:3683   .debug_abbrev:0000000000000000 .Ldebug_abbrev0
     /tmp/ccLJwVXV.s:6179   .debug_str:0000000000000721 .LASF130
     /tmp/ccLJwVXV.s:5979   .debug_str:0000000000000119 .LASF131
     /tmp/ccLJwVXV.s:6135   .debug_str:00000000000005f2 .LASF132
     /tmp/ccLJwVXV.s:5      .text:0000000000000000 .Ltext0
     /tmp/ccLJwVXV.s:1353   .text:00000000000008a0 .Letext0
     /tmp/ccLJwVXV.s:5945   .debug_line:0000000000000000 .Ldebug_line0
     /tmp/ccLJwVXV.s:6089   .debug_str:000000000000049d .LASF0
     /tmp/ccLJwVXV.s:6107   .debug_str:0000000000000537 .LASF1
     /tmp/ccLJwVXV.s:6071   .debug_str:0000000000000414 .LASF2
     /tmp/ccLJwVXV.s:6045   .debug_str:0000000000000378 .LASF4
     /tmp/ccLJwVXV.s:6159   .debug_str:00000000000006a0 .LASF3
     /tmp/ccLJwVXV.s:5969   .debug_str:00000000000000c7 .LASF5
     /tmp/ccLJwVXV.s:6111   .debug_str:000000000000054f .LASF6
     /tmp/ccLJwVXV.s:6087   .debug_str:000000000000048a .LASF7
     /tmp/ccLJwVXV.s:6193   .debug_str:0000000000000859 .LASF8
     /tmp/ccLJwVXV.s:6029   .debug_str:0000000000000308 .LASF9
     /tmp/ccLJwVXV.s:6129   .debug_str:00000000000005cd .LASF10
     /tmp/ccLJwVXV.s:6181   .debug_str:00000000000007e5 .LASF11
     /tmp/ccLJwVXV.s:5971   .debug_str:00000000000000ce .LASF12
     /tmp/ccLJwVXV.s:5955   .debug_str:000000000000005b .LASF13
     /tmp/ccLJwVXV.s:5987   .debug_str:0000000000000168 .LASF14
     /tmp/ccLJwVXV.s:6151   .debug_str:000000000000064f .LASF15
     /tmp/ccLJwVXV.s:5999   .debug_str:00000000000001b7 .LASF16
     /tmp/ccLJwVXV.s:5991   .debug_str:0000000000000194 .LASF47
     /tmp/ccLJwVXV.s:6033   .debug_str:000000000000031c .LASF133
     /tmp/ccLJwVXV.s:6119   .debug_str:0000000000000599 .LASF17
     /tmp/ccLJwVXV.s:6081   .debug_str:0000000000000451 .LASF18
GAS LISTING /tmp/ccLJwVXV.s 			page 48


     /tmp/ccLJwVXV.s:6127   .debug_str:00000000000005c7 .LASF19
     /tmp/ccLJwVXV.s:6079   .debug_str:0000000000000444 .LASF20
     /tmp/ccLJwVXV.s:6063   .debug_str:00000000000003d3 .LASF21
     /tmp/ccLJwVXV.s:6117   .debug_str:000000000000058d .LASF22
     /tmp/ccLJwVXV.s:6215   .debug_str:00000000000008f9 .LASF23
     /tmp/ccLJwVXV.s:6161   .debug_str:00000000000006b2 .LASF24
     /tmp/ccLJwVXV.s:6103   .debug_str:0000000000000511 .LASF25
     /tmp/ccLJwVXV.s:6175   .debug_str:000000000000070a .LASF26
     /tmp/ccLJwVXV.s:6043   .debug_str:000000000000036c .LASF27
     /tmp/ccLJwVXV.s:6015   .debug_str:000000000000026c .LASF28
     /tmp/ccLJwVXV.s:5949   .debug_str:0000000000000006 .LASF29
     /tmp/ccLJwVXV.s:6177   .debug_str:0000000000000715 .LASF30
     /tmp/ccLJwVXV.s:6095   .debug_str:00000000000004cb .LASF32
     /tmp/ccLJwVXV.s:6125   .debug_str:00000000000005bb .LASF34
     /tmp/ccLJwVXV.s:6021   .debug_str:000000000000029c .LASF36
     /tmp/ccLJwVXV.s:6055   .debug_str:000000000000039f .LASF46
     /tmp/ccLJwVXV.s:6115   .debug_str:0000000000000567 .LASF48
     /tmp/ccLJwVXV.s:6145   .debug_str:000000000000063d .LASF134
     /tmp/ccLJwVXV.s:6065   .debug_str:00000000000003df .LASF31
     /tmp/ccLJwVXV.s:5961   .debug_str:0000000000000089 .LASF33
     /tmp/ccLJwVXV.s:6223   .debug_str:0000000000000920 .LASF83
     /tmp/ccLJwVXV.s:6101   .debug_str:00000000000004f5 .LASF85
     /tmp/ccLJwVXV.s:6163   .debug_str:00000000000006c3 .LASF35
     /tmp/ccLJwVXV.s:5959   .debug_str:0000000000000076 .LASF37
     /tmp/ccLJwVXV.s:5965   .debug_str:00000000000000b6 .LASF38
     /tmp/ccLJwVXV.s:6049   .debug_str:000000000000038a .LASF39
     /tmp/ccLJwVXV.s:6097   .debug_str:00000000000004e6 .LASF40
     /tmp/ccLJwVXV.s:6219   .debug_str:000000000000090f .LASF41
     /tmp/ccLJwVXV.s:6099   .debug_str:00000000000004eb .LASF42
     /tmp/ccLJwVXV.s:6031   .debug_str:0000000000000316 .LASF43
     /tmp/ccLJwVXV.s:6199   .debug_str:000000000000087e .LASF44
     /tmp/ccLJwVXV.s:6075   .debug_str:000000000000042b .LASF45
     /tmp/ccLJwVXV.s:6091   .debug_str:00000000000004aa .LASF49
     /tmp/ccLJwVXV.s:6121   .debug_str:00000000000005a1 .LASF50
     /tmp/ccLJwVXV.s:6221   .debug_str:000000000000091b .LASF51
     /tmp/ccLJwVXV.s:6201   .debug_str:000000000000088b .LASF52
     /tmp/ccLJwVXV.s:5957   .debug_str:000000000000006b .LASF67
     /tmp/ccLJwVXV.s:6153   .debug_str:0000000000000665 .LASF69
     /tmp/ccLJwVXV.s:6007   .debug_str:0000000000000229 .LASF53
     /tmp/ccLJwVXV.s:6005   .debug_str:000000000000020f .LASF54
     /tmp/ccLJwVXV.s:5973   .debug_str:00000000000000de .LASF55
     /tmp/ccLJwVXV.s:6133   .debug_str:00000000000005e9 .LASF56
     /tmp/ccLJwVXV.s:6017   .debug_str:000000000000027b .LASF57
     /tmp/ccLJwVXV.s:6073   .debug_str:0000000000000422 .LASF58
     /tmp/ccLJwVXV.s:6027   .debug_str:00000000000002f5 .LASF81
     /tmp/ccLJwVXV.s:6167   .debug_str:00000000000006d8 .LASF62
     /tmp/ccLJwVXV.s:6173   .debug_str:0000000000000705 .LASF59
     /tmp/ccLJwVXV.s:6205   .debug_str:00000000000008b2 .LASF60
     /tmp/ccLJwVXV.s:5951   .debug_str:000000000000001d .LASF64
     /tmp/ccLJwVXV.s:6085   .debug_str:0000000000000480 .LASF61
     /tmp/ccLJwVXV.s:6041   .debug_str:0000000000000362 .LASF63
     /tmp/ccLJwVXV.s:6067   .debug_str:00000000000003e4 .LASF65
     /tmp/ccLJwVXV.s:6195   .debug_str:0000000000000869 .LASF66
     /tmp/ccLJwVXV.s:6203   .debug_str:00000000000008a9 .LASF68
     /tmp/ccLJwVXV.s:5983   .debug_str:0000000000000138 .LASF70
     /tmp/ccLJwVXV.s:6053   .debug_str:0000000000000397 .LASF71
     /tmp/ccLJwVXV.s:6035   .debug_str:0000000000000322 .LASF72
GAS LISTING /tmp/ccLJwVXV.s 			page 49


     /tmp/ccLJwVXV.s:6187   .debug_str:0000000000000826 .LASF73
     /tmp/ccLJwVXV.s:5953   .debug_str:000000000000003a .LASF74
     /tmp/ccLJwVXV.s:6209   .debug_str:00000000000008bc .LASF75
     /tmp/ccLJwVXV.s:6211   .debug_str:00000000000008cf .LASF76
     /tmp/ccLJwVXV.s:6061   .debug_str:00000000000003c5 .LASF77
     /tmp/ccLJwVXV.s:6105   .debug_str:0000000000000526 .LASF78
     /tmp/ccLJwVXV.s:6113   .debug_str:0000000000000562 .LASF79
     /tmp/ccLJwVXV.s:6123   .debug_str:00000000000005b1 .LASF80
     /tmp/ccLJwVXV.s:6037   .debug_str:000000000000033a .LASF82
     /tmp/ccLJwVXV.s:6137   .debug_str:0000000000000606 .LASF84
     /tmp/ccLJwVXV.s:5989   .debug_str:0000000000000174 .LASF86
     /tmp/ccLJwVXV.s:6077   .debug_str:0000000000000430 .LASF87
     /tmp/ccLJwVXV.s:6001   .debug_str:00000000000001cd .LASF88
     /tmp/ccLJwVXV.s:6051   .debug_str:000000000000038f .LASF89
     /tmp/ccLJwVXV.s:5985   .debug_str:0000000000000150 .LASF90
     /tmp/ccLJwVXV.s:6019   .debug_str:0000000000000280 .LASF135
     /tmp/ccLJwVXV.s:5967   .debug_str:00000000000000bc .LASF91
     /tmp/ccLJwVXV.s:6169   .debug_str:00000000000006e1 .LASF92
     /tmp/ccLJwVXV.s:6139   .debug_str:0000000000000615 .LASF93
     /tmp/ccLJwVXV.s:6069   .debug_str:0000000000000402 .LASF94
     /tmp/ccLJwVXV.s:5977   .debug_str:0000000000000100 .LASF95
     /tmp/ccLJwVXV.s:6183   .debug_str:00000000000007f4 .LASF96
     /tmp/ccLJwVXV.s:6155   .debug_str:000000000000067f .LASF97
     /tmp/ccLJwVXV.s:6023   .debug_str:00000000000002b9 .LASF98
     /tmp/ccLJwVXV.s:6003   .debug_str:00000000000001f2 .LASF99
     /tmp/ccLJwVXV.s:5963   .debug_str:000000000000009c .LASF100
     /tmp/ccLJwVXV.s:6083   .debug_str:000000000000045b .LASF101
     /tmp/ccLJwVXV.s:6025   .debug_str:00000000000002d2 .LASF102
     /tmp/ccLJwVXV.s:1019   .text:0000000000000694 .LFB23
     /tmp/ccLJwVXV.s:1289   .text:00000000000008a0 .LFE23
     /tmp/ccLJwVXV.s:4798   .debug_loc:0000000000000000 .LLST50
     /tmp/ccLJwVXV.s:6189   .debug_str:0000000000000837 .LASF103
     /tmp/ccLJwVXV.s:4817   .debug_loc:000000000000005c .LLST51
     /tmp/ccLJwVXV.s:5877   .debug_ranges:0000000000000000 .Ldebug_ranges0
     /tmp/ccLJwVXV.s:6011   .debug_str:0000000000000253 .LASF104
     /tmp/ccLJwVXV.s:1224   .text:000000000000081c .LBB110
     /tmp/ccLJwVXV.s:4836   .debug_loc:000000000000009a .LLST59
     /tmp/ccLJwVXV.s:4851   .debug_loc:00000000000000d4 .LLST60
     /tmp/ccLJwVXV.s:4866   .debug_loc:000000000000011c .LLST61
     /tmp/ccLJwVXV.s:1255   .text:0000000000000854 .LVL167
     /tmp/ccLJwVXV.s:1260   .text:0000000000000864 .LVL168
     /tmp/ccLJwVXV.s:1265   .text:0000000000000874 .LVL169
     /tmp/ccLJwVXV.s:1270   .text:0000000000000880 .LVL170
     /tmp/ccLJwVXV.s:1275   .text:0000000000000890 .LVL171
     /tmp/ccLJwVXV.s:1279   .text:0000000000000898 .LVL172
     /tmp/ccLJwVXV.s:1283   .text:00000000000008a0 .LVL173
     /tmp/ccLJwVXV.s:1214   .text:0000000000000804 .LVL161
     /tmp/ccLJwVXV.s:1218   .text:000000000000080c .LVL162
     /tmp/ccLJwVXV.s:1243   .text:0000000000000840 .LVL165
     /tmp/ccLJwVXV.s:1039   .text:00000000000006b4 .LBB97
     /tmp/ccLJwVXV.s:4891   .debug_loc:0000000000000160 .LLST52
     /tmp/ccLJwVXV.s:4906   .debug_loc:000000000000019a .LLST53
     /tmp/ccLJwVXV.s:4921   .debug_loc:00000000000001e2 .LLST54
     /tmp/ccLJwVXV.s:1138   .text:000000000000074c .LVL147
     /tmp/ccLJwVXV.s:1143   .text:000000000000075c .LVL148
     /tmp/ccLJwVXV.s:1148   .text:000000000000076c .LVL149
     /tmp/ccLJwVXV.s:1153   .text:0000000000000778 .LVL150
GAS LISTING /tmp/ccLJwVXV.s 			page 50


     /tmp/ccLJwVXV.s:1158   .text:0000000000000788 .LVL151
     /tmp/ccLJwVXV.s:1162   .text:0000000000000790 .LVL152
     /tmp/ccLJwVXV.s:1166   .text:0000000000000798 .LVL153
     /tmp/ccLJwVXV.s:1052   .text:00000000000006c4 .LBB100
     /tmp/ccLJwVXV.s:4940   .debug_loc:0000000000000220 .LLST55
     /tmp/ccLJwVXV.s:4955   .debug_loc:000000000000025a .LLST56
     /tmp/ccLJwVXV.s:4970   .debug_loc:00000000000002a2 .LLST57
     /tmp/ccLJwVXV.s:1176   .text:00000000000007a8 .LVL154
     /tmp/ccLJwVXV.s:1181   .text:00000000000007b8 .LVL155
     /tmp/ccLJwVXV.s:1186   .text:00000000000007c8 .LVL156
     /tmp/ccLJwVXV.s:1191   .text:00000000000007d4 .LVL157
     /tmp/ccLJwVXV.s:1196   .text:00000000000007e4 .LVL158
     /tmp/ccLJwVXV.s:1200   .text:00000000000007ec .LVL159
     /tmp/ccLJwVXV.s:1204   .text:00000000000007f4 .LVL160
     /tmp/ccLJwVXV.s:1077   .text:00000000000006f0 .LBB103
     /tmp/ccLJwVXV.s:1099   .text:0000000000000710 .LBE103
     /tmp/ccLJwVXV.s:1084   .text:00000000000006fc .LBB105
     /tmp/ccLJwVXV.s:1092   .text:0000000000000704 .LBE105
     /tmp/ccLJwVXV.s:4981   .debug_loc:00000000000002d8 .LLST58
     /tmp/ccLJwVXV.s:1035   .text:00000000000006b0 .LVL131
     /tmp/ccLJwVXV.s:1067   .text:00000000000006d8 .LVL136
     /tmp/ccLJwVXV.s:1070   .text:00000000000006e4 .LVL137
     /tmp/ccLJwVXV.s:1075   .text:00000000000006f0 .LVL138
     /tmp/ccLJwVXV.s:1112   .text:0000000000000724 .LVL143
     /tmp/ccLJwVXV.s:671    .text:0000000000000410 .LFB22
     /tmp/ccLJwVXV.s:858    .text:000000000000056c .LFE22
     /tmp/ccLJwVXV.s:6207   .debug_str:00000000000008b7 .LASF109
     /tmp/ccLJwVXV.s:4990   .debug_loc:0000000000000304 .LLST31
     /tmp/ccLJwVXV.s:5019   .debug_loc:0000000000000379 .LLST32
     /tmp/ccLJwVXV.s:5048   .debug_loc:00000000000003ee .LLST33
     /tmp/ccLJwVXV.s:6057   .debug_str:00000000000003ac .LASF105
     /tmp/ccLJwVXV.s:5077   .debug_loc:0000000000000463 .LLST34
     /tmp/ccLJwVXV.s:734    .text:0000000000000468 .LBB75
     /tmp/ccLJwVXV.s:754    .text:0000000000000488 .LBE75
     /tmp/ccLJwVXV.s:5106   .debug_loc:00000000000004d8 .LLST41
     /tmp/ccLJwVXV.s:687    .text:000000000000042c .LBB69
     /tmp/ccLJwVXV.s:5122   .debug_loc:0000000000000522 .LLST35
     /tmp/ccLJwVXV.s:5137   .debug_loc:000000000000055c .LLST36
     /tmp/ccLJwVXV.s:5152   .debug_loc:00000000000005a4 .LLST37
     /tmp/ccLJwVXV.s:762    .text:0000000000000498 .LVL91
     /tmp/ccLJwVXV.s:767    .text:00000000000004a8 .LVL92
     /tmp/ccLJwVXV.s:772    .text:00000000000004b8 .LVL93
     /tmp/ccLJwVXV.s:777    .text:00000000000004c4 .LVL94
     /tmp/ccLJwVXV.s:782    .text:00000000000004d4 .LVL95
     /tmp/ccLJwVXV.s:786    .text:00000000000004dc .LVL96
     /tmp/ccLJwVXV.s:790    .text:00000000000004e4 .LVL97
     /tmp/ccLJwVXV.s:707    .text:000000000000044c .LBB72
     /tmp/ccLJwVXV.s:5179   .debug_loc:000000000000061c .LLST38
     /tmp/ccLJwVXV.s:5194   .debug_loc:0000000000000656 .LLST39
     /tmp/ccLJwVXV.s:5209   .debug_loc:000000000000069e .LLST40
     /tmp/ccLJwVXV.s:801    .text:00000000000004f4 .LVL99
     /tmp/ccLJwVXV.s:806    .text:0000000000000504 .LVL100
     /tmp/ccLJwVXV.s:811    .text:0000000000000514 .LVL101
     /tmp/ccLJwVXV.s:816    .text:0000000000000520 .LVL102
     /tmp/ccLJwVXV.s:821    .text:0000000000000530 .LVL103
     /tmp/ccLJwVXV.s:825    .text:0000000000000538 .LVL104
     /tmp/ccLJwVXV.s:829    .text:0000000000000540 .LVL105
GAS LISTING /tmp/ccLJwVXV.s 			page 51


     /tmp/ccLJwVXV.s:6171   .debug_str:00000000000006fd .LASF106
     /tmp/ccLJwVXV.s:6039   .debug_str:000000000000034e .LASF107
     /tmp/ccLJwVXV.s:10     .text:0000000000000000 .LFB21
     /tmp/ccLJwVXV.s:43     .text:0000000000000030 .LFE21
     /tmp/ccLJwVXV.s:6131   .debug_str:00000000000005dc .LASF108
     /tmp/ccLJwVXV.s:5239   .debug_loc:00000000000006f6 .LLST0
     /tmp/ccLJwVXV.s:5253   .debug_loc:000000000000072f .LLST1
     /tmp/ccLJwVXV.s:5267   .debug_loc:0000000000000768 .LLST2
     /tmp/ccLJwVXV.s:28     .text:0000000000000018 .LVL2
     /tmp/ccLJwVXV.s:32     .text:0000000000000020 .LVL3
     /tmp/ccLJwVXV.s:551    .text:0000000000000344 .LFB20
     /tmp/ccLJwVXV.s:665    .text:0000000000000410 .LFE20
     /tmp/ccLJwVXV.s:5281   .debug_loc:00000000000007a1 .LLST26
     /tmp/ccLJwVXV.s:5993   .debug_str:000000000000019c .LASF110
     /tmp/ccLJwVXV.s:5310   .debug_loc:0000000000000816 .LLST27
     /tmp/ccLJwVXV.s:570    .text:0000000000000360 .LBB60
     /tmp/ccLJwVXV.s:5327   .debug_loc:0000000000000862 .LLST28
     /tmp/ccLJwVXV.s:5342   .debug_loc:000000000000089c .LLST29
     /tmp/ccLJwVXV.s:5357   .debug_loc:00000000000008e4 .LLST30
     /tmp/ccLJwVXV.s:633    .text:00000000000003c4 .LVL74
     /tmp/ccLJwVXV.s:638    .text:00000000000003d4 .LVL75
     /tmp/ccLJwVXV.s:643    .text:00000000000003e4 .LVL76
     /tmp/ccLJwVXV.s:648    .text:00000000000003f0 .LVL77
     /tmp/ccLJwVXV.s:653    .text:0000000000000400 .LVL78
     /tmp/ccLJwVXV.s:657    .text:0000000000000408 .LVL79
     /tmp/ccLJwVXV.s:661    .text:0000000000000410 .LVL80
     /tmp/ccLJwVXV.s:582    .text:0000000000000370 .LVL66
     /tmp/ccLJwVXV.s:586    .text:0000000000000380 .LVL67
     /tmp/ccLJwVXV.s:140    .text:00000000000000a8 .LFB19
     /tmp/ccLJwVXV.s:166    .text:00000000000000cc .LFE19
     /tmp/ccLJwVXV.s:864    .text:000000000000056c .LFB18
     /tmp/ccLJwVXV.s:1008   .text:0000000000000694 .LFE18
     /tmp/ccLJwVXV.s:5376   .debug_loc:0000000000000922 .LLST42
     /tmp/ccLJwVXV.s:5405   .debug_loc:0000000000000997 .LLST43
     /tmp/ccLJwVXV.s:5434   .debug_loc:0000000000000a0c .LLST44
     /tmp/ccLJwVXV.s:5463   .debug_loc:0000000000000a81 .LLST45
     /tmp/ccLJwVXV.s:5470   .debug_loc:0000000000000aa4 .LLST46
     /tmp/ccLJwVXV.s:888    .text:0000000000000598 .LBB80
     /tmp/ccLJwVXV.s:5481   .debug_loc:0000000000000ada .LLST47
     /tmp/ccLJwVXV.s:5496   .debug_loc:0000000000000b14 .LLST48
     /tmp/ccLJwVXV.s:5511   .debug_loc:0000000000000b5c .LLST49
     /tmp/ccLJwVXV.s:976    .text:0000000000000648 .LVL124
     /tmp/ccLJwVXV.s:981    .text:0000000000000658 .LVL125
     /tmp/ccLJwVXV.s:986    .text:0000000000000668 .LVL126
     /tmp/ccLJwVXV.s:991    .text:0000000000000674 .LVL127
     /tmp/ccLJwVXV.s:996    .text:0000000000000684 .LVL128
     /tmp/ccLJwVXV.s:1000   .text:000000000000068c .LVL129
     /tmp/ccLJwVXV.s:1004   .text:0000000000000694 .LVL130
     /tmp/ccLJwVXV.s:902    .text:00000000000005b0 .LVL110
     /tmp/ccLJwVXV.s:905    .text:00000000000005bc .LVL111
     /tmp/ccLJwVXV.s:921    .text:00000000000005e8 .LVL113
     /tmp/ccLJwVXV.s:931    .text:0000000000000600 .LVL116
     /tmp/ccLJwVXV.s:941    .text:0000000000000614 .LVL117
     /tmp/ccLJwVXV.s:106    .text:000000000000007c .LFB17
     /tmp/ccLJwVXV.s:134    .text:00000000000000a8 .LFE17
     /tmp/ccLJwVXV.s:5538   .debug_loc:0000000000000bd4 .LLST5
     /tmp/ccLJwVXV.s:332    .text:00000000000001b8 .LFB16
GAS LISTING /tmp/ccLJwVXV.s 			page 52


     /tmp/ccLJwVXV.s:545    .text:0000000000000344 .LFE16
     /tmp/ccLJwVXV.s:5975   .debug_str:00000000000000f9 .LASF111
     /tmp/ccLJwVXV.s:5550   .debug_loc:0000000000000c12 .LLST13
     /tmp/ccLJwVXV.s:6185   .debug_str:0000000000000813 .LASF112
     /tmp/ccLJwVXV.s:5557   .debug_loc:0000000000000c35 .LLST14
     /tmp/ccLJwVXV.s:5576   .debug_loc:0000000000000c73 .LLST15
     /tmp/ccLJwVXV.s:363    .text:00000000000001e0 .LBB43
     /tmp/ccLJwVXV.s:5591   .debug_loc:0000000000000cbb .LLST16
     /tmp/ccLJwVXV.s:5606   .debug_loc:0000000000000cf5 .LLST17
     /tmp/ccLJwVXV.s:5621   .debug_loc:0000000000000d3d .LLST18
     /tmp/ccLJwVXV.s:475    .text:000000000000029c .LVL49
     /tmp/ccLJwVXV.s:480    .text:00000000000002ac .LVL50
     /tmp/ccLJwVXV.s:485    .text:00000000000002bc .LVL51
     /tmp/ccLJwVXV.s:490    .text:00000000000002c8 .LVL52
     /tmp/ccLJwVXV.s:495    .text:00000000000002d8 .LVL53
     /tmp/ccLJwVXV.s:499    .text:00000000000002e0 .LVL54
     /tmp/ccLJwVXV.s:503    .text:00000000000002e8 .LVL55
     /tmp/ccLJwVXV.s:372    .text:00000000000001e4 .LBB46
     /tmp/ccLJwVXV.s:396    .text:0000000000000204 .LBE46
     /tmp/ccLJwVXV.s:380    .text:00000000000001f0 .LBB48
     /tmp/ccLJwVXV.s:388    .text:00000000000001f8 .LBE48
     /tmp/ccLJwVXV.s:5640   .debug_loc:0000000000000d7b .LLST19
     /tmp/ccLJwVXV.s:410    .text:000000000000021c .LBB51
     /tmp/ccLJwVXV.s:5649   .debug_loc:0000000000000da7 .LLST20
     /tmp/ccLJwVXV.s:5664   .debug_loc:0000000000000de1 .LLST21
     /tmp/ccLJwVXV.s:5679   .debug_loc:0000000000000e29 .LLST22
     /tmp/ccLJwVXV.s:513    .text:00000000000002f8 .LVL56
     /tmp/ccLJwVXV.s:518    .text:0000000000000308 .LVL57
     /tmp/ccLJwVXV.s:523    .text:0000000000000318 .LVL58
     /tmp/ccLJwVXV.s:528    .text:0000000000000324 .LVL59
     /tmp/ccLJwVXV.s:533    .text:0000000000000334 .LVL60
     /tmp/ccLJwVXV.s:537    .text:000000000000033c .LVL61
     /tmp/ccLJwVXV.s:541    .text:0000000000000344 .LVL62
     /tmp/ccLJwVXV.s:430    .text:0000000000000230 .LBB54
     /tmp/ccLJwVXV.s:468    .text:000000000000028c .LBE54
     /tmp/ccLJwVXV.s:5698   .debug_loc:0000000000000e67 .LLST23
     /tmp/ccLJwVXV.s:5707   .debug_loc:0000000000000e8c .LLST24
     /tmp/ccLJwVXV.s:5716   .debug_loc:0000000000000eb8 .LLST25
     /tmp/ccLJwVXV.s:437    .text:0000000000000240 .LVL42
     /tmp/ccLJwVXV.s:442    .text:0000000000000250 .LVL43
     /tmp/ccLJwVXV.s:447    .text:0000000000000260 .LVL44
     /tmp/ccLJwVXV.s:452    .text:000000000000026c .LVL45
     /tmp/ccLJwVXV.s:457    .text:000000000000027c .LVL46
     /tmp/ccLJwVXV.s:461    .text:0000000000000284 .LVL47
     /tmp/ccLJwVXV.s:465    .text:000000000000028c .LVL48
     /tmp/ccLJwVXV.s:403    .text:000000000000020c .LVL38
     /tmp/ccLJwVXV.s:406    .text:0000000000000214 .LVL39
     /tmp/ccLJwVXV.s:186    .text:00000000000000cc .LFB15
     /tmp/ccLJwVXV.s:326    .text:00000000000001b8 .LFE15
     /tmp/ccLJwVXV.s:5724   .debug_loc:0000000000000edc .LLST6
     /tmp/ccLJwVXV.s:6217   .debug_str:0000000000000904 .LASF113
     /tmp/ccLJwVXV.s:5742   .debug_loc:0000000000000f28 .LLST7
     /tmp/ccLJwVXV.s:5757   .debug_loc:0000000000000f71 .LLST8
     /tmp/ccLJwVXV.s:239    .text:000000000000011c .LBB25
     /tmp/ccLJwVXV.s:251    .text:000000000000012c .LBE25
     /tmp/ccLJwVXV.s:6109   .debug_str:000000000000054a .LASF114
     /tmp/ccLJwVXV.s:5777   .debug_loc:0000000000000fce .LLST12
GAS LISTING /tmp/ccLJwVXV.s 			page 53


     /tmp/ccLJwVXV.s:217    .text:0000000000000108 .LBB21
     /tmp/ccLJwVXV.s:5788   .debug_loc:0000000000001004 .LLST9
     /tmp/ccLJwVXV.s:5803   .debug_loc:000000000000103e .LLST10
     /tmp/ccLJwVXV.s:5818   .debug_loc:0000000000001086 .LLST11
     /tmp/ccLJwVXV.s:287    .text:0000000000000164 .LVL23
     /tmp/ccLJwVXV.s:292    .text:0000000000000174 .LVL24
     /tmp/ccLJwVXV.s:297    .text:0000000000000184 .LVL25
     /tmp/ccLJwVXV.s:302    .text:0000000000000190 .LVL26
     /tmp/ccLJwVXV.s:307    .text:00000000000001a0 .LVL27
     /tmp/ccLJwVXV.s:311    .text:00000000000001a8 .LVL28
     /tmp/ccLJwVXV.s:315    .text:00000000000001b0 .LVL29
     /tmp/ccLJwVXV.s:204    .text:00000000000000ec .LVL12
     /tmp/ccLJwVXV.s:263    .text:0000000000000140 .LVL20
     /tmp/ccLJwVXV.s:49     .text:0000000000000030 .LFB14
     /tmp/ccLJwVXV.s:100    .text:000000000000007c .LFE14
     /tmp/ccLJwVXV.s:5843   .debug_loc:00000000000010ca .LLST3
     /tmp/ccLJwVXV.s:5857   .debug_loc:0000000000001103 .LLST4
     /tmp/ccLJwVXV.s:79     .text:0000000000000060 .LVL6
     /tmp/ccLJwVXV.s:6143   .debug_str:000000000000062b .LASF136
     /tmp/ccLJwVXV.s:6093   .debug_str:00000000000004c2 .LASF137
     /tmp/ccLJwVXV.s:6009   .debug_str:0000000000000234 .LASF138
     /tmp/ccLJwVXV.s:6149   .debug_str:0000000000000647 .LASF115
     /tmp/ccLJwVXV.s:5997   .debug_str:00000000000001a7 .LASF116
     /tmp/ccLJwVXV.s:5947   .debug_str:0000000000000000 .LASF117
     /tmp/ccLJwVXV.s:5995   .debug_str:00000000000001a2 .LASF118
     /tmp/ccLJwVXV.s:6147   .debug_str:0000000000000642 .LASF119
     /tmp/ccLJwVXV.s:5981   .debug_str:0000000000000128 .LASF120
     /tmp/ccLJwVXV.s:6197   .debug_str:0000000000000874 .LASF122
     /tmp/ccLJwVXV.s:6047   .debug_str:000000000000037f .LASF121
     /tmp/ccLJwVXV.s:6213   .debug_str:00000000000008f2 .LASF123
     /tmp/ccLJwVXV.s:6165   .debug_str:00000000000006c8 .LASF124
     /tmp/ccLJwVXV.s:6157   .debug_str:0000000000000695 .LASF125
     /tmp/ccLJwVXV.s:6141   .debug_str:000000000000061b .LASF126
     /tmp/ccLJwVXV.s:6059   .debug_str:00000000000003ba .LASF127
     /tmp/ccLJwVXV.s:6191   .debug_str:0000000000000848 .LASF128
     /tmp/ccLJwVXV.s:6013   .debug_str:0000000000000260 .LASF129
     /tmp/ccLJwVXV.s:1124   .text:0000000000000734 .LVL144
     /tmp/ccLJwVXV.s:1128   .text:000000000000073c .LVL145
     /tmp/ccLJwVXV.s:1136   .text:0000000000000744 .LVL146
     /tmp/ccLJwVXV.s:1102   .text:0000000000000718 .LVL141
     /tmp/ccLJwVXV.s:1106   .text:000000000000071c .LVL142
     /tmp/ccLJwVXV.s:1223   .text:000000000000081c .LVL163
     /tmp/ccLJwVXV.s:1229   .text:0000000000000820 .LVL164
     /tmp/ccLJwVXV.s:1246   .text:0000000000000844 .LVL166
     /tmp/ccLJwVXV.s:1038   .text:00000000000006b4 .LVL132
     /tmp/ccLJwVXV.s:1045   .text:00000000000006bc .LVL133
     /tmp/ccLJwVXV.s:1051   .text:00000000000006c4 .LVL134
     /tmp/ccLJwVXV.s:1057   .text:00000000000006c8 .LVL135
     /tmp/ccLJwVXV.s:1083   .text:00000000000006fc .LVL139
     /tmp/ccLJwVXV.s:1089   .text:0000000000000704 .LVL140
     /tmp/ccLJwVXV.s:674    .text:0000000000000410 .LVL81
     /tmp/ccLJwVXV.s:760    .text:0000000000000490 .LVL90
     /tmp/ccLJwVXV.s:799    .text:00000000000004ec .LVL98
     /tmp/ccLJwVXV.s:733    .text:0000000000000468 .LVL86
     /tmp/ccLJwVXV.s:737    .text:000000000000046c .LVL87
     /tmp/ccLJwVXV.s:750    .text:0000000000000484 .LVL88
     /tmp/ccLJwVXV.s:842    .text:0000000000000550 .LVL106
GAS LISTING /tmp/ccLJwVXV.s 			page 54


     /tmp/ccLJwVXV.s:686    .text:000000000000042c .LVL82
     /tmp/ccLJwVXV.s:692    .text:0000000000000430 .LVL83
     /tmp/ccLJwVXV.s:752    .text:0000000000000488 .LVL89
     /tmp/ccLJwVXV.s:706    .text:000000000000044c .LVL84
     /tmp/ccLJwVXV.s:712    .text:0000000000000450 .LVL85
     /tmp/ccLJwVXV.s:14     .text:0000000000000000 .LVL0
     /tmp/ccLJwVXV.s:26     .text:0000000000000014 .LVL1
     /tmp/ccLJwVXV.s:554    .text:0000000000000344 .LVL63
     /tmp/ccLJwVXV.s:619    .text:00000000000003ac .LVL71
     /tmp/ccLJwVXV.s:623    .text:00000000000003b4 .LVL72
     /tmp/ccLJwVXV.s:631    .text:00000000000003bc .LVL73
     /tmp/ccLJwVXV.s:593    .text:000000000000038c .LVL68
     /tmp/ccLJwVXV.s:602    .text:0000000000000398 .LVL69
     /tmp/ccLJwVXV.s:608    .text:000000000000039c .LVL70
     /tmp/ccLJwVXV.s:569    .text:0000000000000360 .LVL64
     /tmp/ccLJwVXV.s:576    .text:0000000000000368 .LVL65
     /tmp/ccLJwVXV.s:867    .text:000000000000056c .LVL107
     /tmp/ccLJwVXV.s:956    .text:0000000000000628 .LVL119
     /tmp/ccLJwVXV.s:966    .text:0000000000000638 .LVL122
     /tmp/ccLJwVXV.s:974    .text:0000000000000640 .LVL123
     /tmp/ccLJwVXV.s:959    .text:000000000000062c .LVL120
     /tmp/ccLJwVXV.s:962    .text:0000000000000630 .LVL121
     /tmp/ccLJwVXV.s:907    .text:00000000000005c0 .LVL112
     /tmp/ccLJwVXV.s:953    .text:0000000000000624 .LVL118
     /tmp/ccLJwVXV.s:923    .text:00000000000005ec .LVL114
     /tmp/ccLJwVXV.s:929    .text:00000000000005f8 .LVL115
     /tmp/ccLJwVXV.s:887    .text:0000000000000598 .LVL108
     /tmp/ccLJwVXV.s:896    .text:00000000000005a8 .LVL109
     /tmp/ccLJwVXV.s:109    .text:000000000000007c .LVL9
     /tmp/ccLJwVXV.s:123    .text:0000000000000098 .LVL10
     /tmp/ccLJwVXV.s:350    .text:00000000000001cc .LVL30
     /tmp/ccLJwVXV.s:355    .text:00000000000001d0 .LVL31
     /tmp/ccLJwVXV.s:360    .text:00000000000001dc .LVL32
     /tmp/ccLJwVXV.s:426    .text:0000000000000230 .LVL41
     /tmp/ccLJwVXV.s:394    .text:0000000000000204 .LVL37
     /tmp/ccLJwVXV.s:362    .text:00000000000001e0 .LVL33
     /tmp/ccLJwVXV.s:368    .text:00000000000001e4 .LVL34
     /tmp/ccLJwVXV.s:379    .text:00000000000001f0 .LVL35
     /tmp/ccLJwVXV.s:385    .text:00000000000001f8 .LVL36
     /tmp/ccLJwVXV.s:409    .text:000000000000021c .LVL40
     /tmp/ccLJwVXV.s:189    .text:00000000000000cc .LVL11
     /tmp/ccLJwVXV.s:208    .text:00000000000000f0 .LVL13
     /tmp/ccLJwVXV.s:277    .text:0000000000000154 .LVL21
     /tmp/ccLJwVXV.s:285    .text:000000000000015c .LVL22
     /tmp/ccLJwVXV.s:212    .text:0000000000000100 .LVL14
     /tmp/ccLJwVXV.s:237    .text:000000000000011c .LVL17
     /tmp/ccLJwVXV.s:249    .text:000000000000012c .LVL19
     /tmp/ccLJwVXV.s:244    .text:0000000000000124 .LVL18
     /tmp/ccLJwVXV.s:216    .text:0000000000000108 .LVL15
     /tmp/ccLJwVXV.s:223    .text:000000000000010c .LVL16
     /tmp/ccLJwVXV.s:52     .text:0000000000000030 .LVL4
     /tmp/ccLJwVXV.s:66     .text:0000000000000048 .LVL5
     /tmp/ccLJwVXV.s:95     .text:0000000000000074 .LVL8
     /tmp/ccLJwVXV.s:1359   .debug_info:0000000000000000 .Ldebug_info0
     /tmp/ccLJwVXV.s:225    .text:000000000000010c .LBE21
     /tmp/ccLJwVXV.s:280    .text:0000000000000154 .LBB26
     /tmp/ccLJwVXV.s:318    .text:00000000000001b0 .LBE26
GAS LISTING /tmp/ccLJwVXV.s 			page 55


     /tmp/ccLJwVXV.s:370    .text:00000000000001e4 .LBE43
     /tmp/ccLJwVXV.s:469    .text:000000000000028c .LBB56
     /tmp/ccLJwVXV.s:506    .text:00000000000002e8 .LBE56
     /tmp/ccLJwVXV.s:415    .text:0000000000000220 .LBE51
     /tmp/ccLJwVXV.s:507    .text:00000000000002e8 .LBB57
     /tmp/ccLJwVXV.s:543    .text:0000000000000344 .LBE57
     /tmp/ccLJwVXV.s:578    .text:0000000000000368 .LBE60
     /tmp/ccLJwVXV.s:626    .text:00000000000003b4 .LBB63
     /tmp/ccLJwVXV.s:663    .text:0000000000000410 .LBE63
     /tmp/ccLJwVXV.s:694    .text:0000000000000430 .LBE69
     /tmp/ccLJwVXV.s:755    .text:0000000000000488 .LBB76
     /tmp/ccLJwVXV.s:793    .text:00000000000004e4 .LBE76
     /tmp/ccLJwVXV.s:714    .text:0000000000000450 .LBE72
     /tmp/ccLJwVXV.s:794    .text:00000000000004e4 .LBB77
     /tmp/ccLJwVXV.s:832    .text:0000000000000540 .LBE77
     /tmp/ccLJwVXV.s:898    .text:00000000000005a8 .LBE80
     /tmp/ccLJwVXV.s:969    .text:0000000000000638 .LBB83
     /tmp/ccLJwVXV.s:1006   .text:0000000000000694 .LBE83
     /tmp/ccLJwVXV.s:1047   .text:00000000000006bc .LBE97
     /tmp/ccLJwVXV.s:1131   .text:000000000000073c .LBB115
     /tmp/ccLJwVXV.s:1169   .text:0000000000000798 .LBE115
     /tmp/ccLJwVXV.s:1059   .text:00000000000006c8 .LBE100
     /tmp/ccLJwVXV.s:1170   .text:0000000000000798 .LBB116
     /tmp/ccLJwVXV.s:1207   .text:00000000000007f4 .LBE116
     /tmp/ccLJwVXV.s:1209   .text:00000000000007f4 .LBB109
     /tmp/ccLJwVXV.s:1244   .text:0000000000000840 .LBE109
     /tmp/ccLJwVXV.s:1248   .text:0000000000000844 .LBB114
     /tmp/ccLJwVXV.s:1286   .text:00000000000008a0 .LBE114
     /tmp/ccLJwVXV.s:1231   .text:0000000000000820 .LBE110
     /tmp/ccLJwVXV.s:1249   .text:0000000000000844 .LBB113
     /tmp/ccLJwVXV.s:1285   .text:00000000000008a0 .LBE113

UNDEFINED SYMBOLS
_Z11thread_exitv
_ZN9Scheduler3putEP7IThread
kernelThread
_ZN9Scheduler14dispatchToNextEv
_Z9putStringPKc
_Z6putInti
_Z10putNewlinev
_Z10stopKernelv
_ZN8MemAlloc3getEv
_ZN8MemAlloc8allocMemEm
_ZN8MemAlloc7freeMemEPv
