GAS LISTING /tmp/ccClqpSj.s 			page 1


   1              		.file	"thread.cpp"
   2              		.option pic
   3              		.option norelax
   4              		.text
   5              	.Ltext0:
   6              		.align	2
   7              		.globl	_Z7wrappermPFvPvES_
   9              	_Z7wrappermPFvPvES_:
  10              	.LFB21:
  11              		.file 1 "src/thread.cpp"
   1:src/thread.cpp **** #include "../h/thread.h"
   2:src/thread.cpp **** #include "../h/alloc.h"
   3:src/thread.cpp **** #include "../h/scheduler.h"
   4:src/thread.cpp **** 
   5:src/thread.cpp **** Thread* Thread::pRunning = nullptr;
   6:src/thread.cpp **** //uint64* Thread::runningSp = nullptr;
   7:src/thread.cpp **** uint64** Thread::pRunningSp = nullptr;
   8:src/thread.cpp **** uint64 Thread::timeSliceCounter = 0;
   9:src/thread.cpp **** bool Thread::switchedToUserThread = 0;
  10:src/thread.cpp **** uint64 Thread::nrTotalThreads = 1;
  11:src/thread.cpp **** Thread* Thread::pAllThreads[MAX_NR_TOTAL_THREADS];
  12:src/thread.cpp **** uint64 Thread::initialUserMemoryUsage;
  13:src/thread.cpp **** 
  14:src/thread.cpp **** void Thread::signalDone()
  15:src/thread.cpp **** {
  16:src/thread.cpp ****     Thread* pCur = pWaitingHead;
  17:src/thread.cpp **** 
  18:src/thread.cpp ****     while(pCur)
  19:src/thread.cpp ****     {
  20:src/thread.cpp ****         pCur->state = READY;
  21:src/thread.cpp ****         Scheduler::put(pCur);
  22:src/thread.cpp **** 
  23:src/thread.cpp ****         pCur = pCur->pNext;
  24:src/thread.cpp ****     }
  25:src/thread.cpp **** }
  26:src/thread.cpp **** 
  27:src/thread.cpp **** void Thread::join(uint64 id)
  28:src/thread.cpp **** {
  29:src/thread.cpp ****     Thread* oldRunning = Thread::getPRunning();
  30:src/thread.cpp **** 
  31:src/thread.cpp ****     Thread* t = pAllThreads[id];
  32:src/thread.cpp **** 
  33:src/thread.cpp ****     extern Thread kernelThread;
  34:src/thread.cpp ****     assert(oldRunning != &kernelThread); // you're only supposed to open user threads with system c
  35:src/thread.cpp **** 
  36:src/thread.cpp **** //    putU64(id);
  37:src/thread.cpp **** 
  38:src/thread.cpp ****     if(t->done == true)
  39:src/thread.cpp ****         return;
  40:src/thread.cpp **** 
  41:src/thread.cpp ****     if(t->pWaitingHead == nullptr)
  42:src/thread.cpp ****     {
  43:src/thread.cpp ****         t->pWaitingHead = oldRunning;
  44:src/thread.cpp ****     }
  45:src/thread.cpp ****     else
  46:src/thread.cpp ****     {
  47:src/thread.cpp ****         Thread* pCur = t->pWaitingHead;
GAS LISTING /tmp/ccClqpSj.s 			page 2


  48:src/thread.cpp ****         while(pCur->pNext)
  49:src/thread.cpp ****         {
  50:src/thread.cpp ****             pCur = pCur->pNext;
  51:src/thread.cpp ****         }
  52:src/thread.cpp **** 
  53:src/thread.cpp ****         pCur->pNext = oldRunning;
  54:src/thread.cpp ****     }
  55:src/thread.cpp **** 
  56:src/thread.cpp ****     oldRunning->pNext = nullptr;
  57:src/thread.cpp ****     oldRunning->state = SUSPENDED;
  58:src/thread.cpp **** 
  59:src/thread.cpp ****     Scheduler::dispatchToNext();
  60:src/thread.cpp **** }
  61:src/thread.cpp **** 
  62:src/thread.cpp **** void Thread::switchToUser()
  63:src/thread.cpp **** {
  64:src/thread.cpp ****     uint64 scause;
  65:src/thread.cpp ****     __asm__ volatile ("csrr %[name], scause" : [name] "=r"(scause));
  66:src/thread.cpp ****     bool cameFromKernelMode = ((scause & (1 << 8)) == 0);
  67:src/thread.cpp **** 
  68:src/thread.cpp ****     if(!cameFromKernelMode) // if user thread calls this it does nothing
  69:src/thread.cpp ****     {
  70:src/thread.cpp ****         assert(false); // temp
  71:src/thread.cpp ****         assert(Thread::pRunning->id != 0);
  72:src/thread.cpp ****         return;
  73:src/thread.cpp ****     }
  74:src/thread.cpp **** 
  75:src/thread.cpp ****     assert(Thread::pRunning->id == 0);
  76:src/thread.cpp **** 
  77:src/thread.cpp ****     Scheduler::dispatchToNext();
  78:src/thread.cpp **** 
  79:src/thread.cpp ****     assert(Thread::getPRunning()->id == 1);
  80:src/thread.cpp **** 
  81:src/thread.cpp **** //    __asm__ volatile ("csrs sstatus, 0x6"); // TODO: probably should be removed when i add permis
  82:src/thread.cpp **** //    __asm__ volatile ("mv x10, x10");
  83:src/thread.cpp **** //    __asm__ volatile ("mv x10, x10");
  84:src/thread.cpp **** //    __asm__ volatile ("mv x10, x10");
  85:src/thread.cpp **** //    putString("KITA PENIS");
  86:src/thread.cpp **** 
  87:src/thread.cpp **** //    __asm__ volatile ("csrc sstatus, 0x9");
  88:src/thread.cpp **** //    __asm__ volatile ("csrc sstatus, 0x8");
  89:src/thread.cpp **** //    __asm__ volatile ("csrw sstatus, 0"); // TODO: radi preko csrc jer ovako menjam sve
  90:src/thread.cpp **** }
  91:src/thread.cpp **** 
  92:src/thread.cpp **** void Thread::setPRunning(Thread* p)
  93:src/thread.cpp **** {
  94:src/thread.cpp ****     pRunning = p;
  95:src/thread.cpp ****     pRunningSp = &(p->sp);
  96:src/thread.cpp **** }
  97:src/thread.cpp **** 
  98:src/thread.cpp **** int Thread::createThread(uint64* id, Body body, void* arg)
  99:src/thread.cpp **** {
 100:src/thread.cpp ****     assert(nrTotalThreads < MAX_NR_TOTAL_THREADS);
 101:src/thread.cpp **** 
 102:src/thread.cpp ****     Thread* t = (Thread*)MemAlloc::get()->allocMem(sizeof(Thread));
 103:src/thread.cpp ****     pAllThreads[nrTotalThreads] = t;
 104:src/thread.cpp **** 
GAS LISTING /tmp/ccClqpSj.s 			page 3


 105:src/thread.cpp ****     t->pStackStart = nullptr;
 106:src/thread.cpp ****     void* pLogicalStack = t->allocStack();
 107:src/thread.cpp **** 
 108:src/thread.cpp ****     t->init(body, arg, pLogicalStack);
 109:src/thread.cpp **** 
 110:src/thread.cpp ****     *id = t->id;
 111:src/thread.cpp **** 
 112:src/thread.cpp ****     Scheduler::put(t);
 113:src/thread.cpp **** 
 114:src/thread.cpp ****     return 0;
 115:src/thread.cpp **** }
 116:src/thread.cpp **** 
 117:src/thread.cpp **** Thread* Thread::getPRunning()
 118:src/thread.cpp **** {
 119:src/thread.cpp ****     __asm__ volatile("mv x10, x10"); // to avoid inline
 120:src/thread.cpp ****     return pRunning;
 121:src/thread.cpp **** }
 122:src/thread.cpp **** 
 123:src/thread.cpp **** void* Thread::allocStack()
 124:src/thread.cpp **** {
 125:src/thread.cpp ****     assert(pStackStart == nullptr); // error: this threads stack may have already been allocated
 126:src/thread.cpp **** 
 127:src/thread.cpp ****     pStackStart = MemAlloc::get()->allocMem(ACTUAL_STACK_SIZE);
 128:src/thread.cpp ****     uint64 stack =  (uint64)pStackStart + ACTUAL_STACK_SIZE;
 129:src/thread.cpp **** 
 130:src/thread.cpp ****     if(stack % 16 != 0)
 131:src/thread.cpp ****     {
 132:src/thread.cpp ****         stack -= stack % 16;
 133:src/thread.cpp ****     }
 134:src/thread.cpp **** 
 135:src/thread.cpp ****     stack -= 34*8; // for the initial context (necessary to avoid exceptions from reading from unal
 136:src/thread.cpp **** 
 137:src/thread.cpp ****     return (void*)stack;
 138:src/thread.cpp **** 
 139:src/thread.cpp **** }
 140:src/thread.cpp **** 
 141:src/thread.cpp **** void wrapper(uint64 __DO_NOT_USE, Thread::Body body, void* arg) // this entire function can be run 
 142:src/thread.cpp **** {
  12              		.loc 1 142 1
  13              		.cfi_startproc
  14              	.LVL0:
  15 0000 130101FF 		addi	sp,sp,-16
  16              		.cfi_def_cfa_offset 16
  17 0004 23341100 		sd	ra,8(sp)
  18 0008 23308100 		sd	s0,0(sp)
  19              		.cfi_offset 1, -8
  20              		.cfi_offset 8, -16
  21 000c 13040101 		addi	s0,sp,16
  22              		.cfi_def_cfa 8, 0
 143:src/thread.cpp ****     (*body)(arg);
  23              		.loc 1 143 5
  24              		.loc 1 143 12 is_stmt 0
  25 0010 13050600 		mv	a0,a2
  26              	.LVL1:
  27 0014 E7800500 		jalr	a1
  28              	.LVL2:
 144:src/thread.cpp ****     thread_exit();
GAS LISTING /tmp/ccClqpSj.s 			page 4


  29              		.loc 1 144 5 is_stmt 1
  30              		.loc 1 144 16 is_stmt 0
  31 0018 97000000 		call	_Z11thread_exitv@plt
  31      E7800000 
  32              	.LVL3:
 145:src/thread.cpp **** }
  33              		.loc 1 145 1
  34 0020 83308100 		ld	ra,8(sp)
  35              		.cfi_restore 1
  36 0024 03340100 		ld	s0,0(sp)
  37              		.cfi_restore 8
  38              		.cfi_def_cfa 2, 16
  39 0028 13010101 		addi	sp,sp,16
  40              		.cfi_def_cfa_offset 0
  41 002c 67800000 		jr	ra
  42              		.cfi_endproc
  43              	.LFE21:
  45              		.align	2
  46              		.globl	_ZN6Thread10signalDoneEv
  48              	_ZN6Thread10signalDoneEv:
  49              	.LFB14:
  15:src/thread.cpp ****     Thread* pCur = pWaitingHead;
  50              		.loc 1 15 1 is_stmt 1
  51              		.cfi_startproc
  52              	.LVL4:
  53 0030 130101FE 		addi	sp,sp,-32
  54              		.cfi_def_cfa_offset 32
  55 0034 233C1100 		sd	ra,24(sp)
  56 0038 23388100 		sd	s0,16(sp)
  57 003c 23349100 		sd	s1,8(sp)
  58              		.cfi_offset 1, -8
  59              		.cfi_offset 8, -16
  60              		.cfi_offset 9, -24
  61 0040 13040102 		addi	s0,sp,32
  62              		.cfi_def_cfa 8, 0
  16:src/thread.cpp **** 
  63              		.loc 1 16 5
  16:src/thread.cpp **** 
  64              		.loc 1 16 13 is_stmt 0
  65 0044 83348503 		ld	s1,56(a0)
  66              	.LVL5:
  67              	.L5:
  18:src/thread.cpp ****     {
  68              		.loc 1 18 5 is_stmt 1
  18:src/thread.cpp ****     {
  69              		.loc 1 18 11
  70 0048 63800402 		beqz	s1,.L3
  20:src/thread.cpp ****         Scheduler::put(pCur);
  71              		.loc 1 20 9
  20:src/thread.cpp ****         Scheduler::put(pCur);
  72              		.loc 1 20 21 is_stmt 0
  73 004c 93072000 		li	a5,2
  74 0050 23A0F400 		sw	a5,0(s1)
  21:src/thread.cpp **** 
  75              		.loc 1 21 9 is_stmt 1
  21:src/thread.cpp **** 
  76              		.loc 1 21 23 is_stmt 0
GAS LISTING /tmp/ccClqpSj.s 			page 5


  77 0054 13850400 		mv	a0,s1
  78 0058 97000000 		call	_ZN9Scheduler3putEP6Thread@plt
  78      E7800000 
  79              	.LVL6:
  23:src/thread.cpp ****     }
  80              		.loc 1 23 9 is_stmt 1
  23:src/thread.cpp ****     }
  81              		.loc 1 23 14 is_stmt 0
  82 0060 83B40403 		ld	s1,48(s1)
  83              	.LVL7:
  18:src/thread.cpp ****     {
  84              		.loc 1 18 5
  85 0064 6FF05FFE 		j	.L5
  86              	.L3:
  25:src/thread.cpp **** 
  87              		.loc 1 25 1
  88 0068 83308101 		ld	ra,24(sp)
  89              		.cfi_restore 1
  90 006c 03340101 		ld	s0,16(sp)
  91              		.cfi_restore 8
  92              		.cfi_def_cfa 2, 32
  93 0070 83348100 		ld	s1,8(sp)
  94              		.cfi_restore 9
  95              	.LVL8:
  96 0074 13010102 		addi	sp,sp,32
  97              		.cfi_def_cfa_offset 0
  98 0078 67800000 		jr	ra
  99              		.cfi_endproc
 100              	.LFE14:
 102              		.align	2
 103              		.globl	_ZN6Thread11setPRunningEPS_
 105              	_ZN6Thread11setPRunningEPS_:
 106              	.LFB17:
  93:src/thread.cpp ****     pRunning = p;
 107              		.loc 1 93 1 is_stmt 1
 108              		.cfi_startproc
 109              	.LVL9:
 110 007c 130101FF 		addi	sp,sp,-16
 111              		.cfi_def_cfa_offset 16
 112 0080 23348100 		sd	s0,8(sp)
 113              		.cfi_offset 8, -8
 114 0084 13040101 		addi	s0,sp,16
 115              		.cfi_def_cfa 8, 0
  94:src/thread.cpp ****     pRunningSp = &(p->sp);
 116              		.loc 1 94 5
  94:src/thread.cpp ****     pRunningSp = &(p->sp);
 117              		.loc 1 94 14 is_stmt 0
 118 0088 97070000 		lla	a5,.LANCHOR0
 118      93870700 
 119 0090 23B0A700 		sd	a0,0(a5)
  95:src/thread.cpp **** }
 120              		.loc 1 95 5 is_stmt 1
  95:src/thread.cpp **** }
 121              		.loc 1 95 18 is_stmt 0
 122 0094 13058504 		addi	a0,a0,72
 123              	.LVL10:
  95:src/thread.cpp **** }
GAS LISTING /tmp/ccClqpSj.s 			page 6


 124              		.loc 1 95 16
 125 0098 23B4A700 		sd	a0,8(a5)
  96:src/thread.cpp **** 
 126              		.loc 1 96 1
 127 009c 03348100 		ld	s0,8(sp)
 128              		.cfi_restore 8
 129              		.cfi_def_cfa 2, 16
 130 00a0 13010101 		addi	sp,sp,16
 131              		.cfi_def_cfa_offset 0
 132 00a4 67800000 		jr	ra
 133              		.cfi_endproc
 134              	.LFE17:
 136              		.align	2
 137              		.globl	_ZN6Thread11getPRunningEv
 139              	_ZN6Thread11getPRunningEv:
 140              	.LFB19:
 118:src/thread.cpp ****     __asm__ volatile("mv x10, x10"); // to avoid inline
 141              		.loc 1 118 1 is_stmt 1
 142              		.cfi_startproc
 143 00a8 130101FF 		addi	sp,sp,-16
 144              		.cfi_def_cfa_offset 16
 145 00ac 23348100 		sd	s0,8(sp)
 146              		.cfi_offset 8, -8
 147 00b0 13040101 		addi	s0,sp,16
 148              		.cfi_def_cfa 8, 0
 119:src/thread.cpp ****     return pRunning;
 149              		.loc 1 119 5
 119:src/thread.cpp ****     return pRunning;
 150              		.loc 1 119 36 is_stmt 0
 151              	#APP
 152              	# 119 "src/thread.cpp" 1
 120:src/thread.cpp **** }
 153              		mv x10, x10
 154              	# 0 "" 2
 155              		.loc 1 120 5 is_stmt 1
 121:src/thread.cpp **** 
 156              		.loc 1 121 1 is_stmt 0
 157              	#NO_APP
 158 00b8 17050000 		ld	a0,.LANCHOR0
 158      03350500 
 159 00c0 03348100 		ld	s0,8(sp)
 160              		.cfi_restore 8
 161              		.cfi_def_cfa 2, 16
 162 00c4 13010101 		addi	sp,sp,16
 163              		.cfi_def_cfa_offset 0
 164 00c8 67800000 		jr	ra
 165              		.cfi_endproc
 166              	.LFE19:
 168              		.section	.rodata.str1.8,"aMS",@progbits,1
 169              		.align	3
 170              	.LC0:
 171 0000 3D3D3D3D 		.string	"===================== ASSERT file: "
 171      3D3D3D3D 
 171      3D3D3D3D 
 171      3D3D3D3D 
 171      3D3D3D3D 
 172 0024 00000000 		.align	3
GAS LISTING /tmp/ccClqpSj.s 			page 7


 173              	.LC1:
 174 0028 7372632F 		.string	"src/thread.cpp"
 174      74687265 
 174      61642E63 
 174      707000
 175 0037 00       		.align	3
 176              	.LC2:
 177 0038 20202020 		.string	"    line: "
 177      6C696E65 
 177      3A2000
 178 0043 00000000 		.align	3
 178      00
 179              	.LC3:
 180 0048 2020203D 		.string	"   ==========================="
 180      3D3D3D3D 
 180      3D3D3D3D 
 180      3D3D3D3D 
 180      3D3D3D3D 
 181              		.text
 182              		.align	2
 183              		.globl	_ZN6Thread4joinEm
 185              	_ZN6Thread4joinEm:
 186              	.LFB15:
  28:src/thread.cpp ****     Thread* oldRunning = Thread::getPRunning();
 187              		.loc 1 28 1 is_stmt 1
 188              		.cfi_startproc
 189              	.LVL11:
 190 00cc 130101FE 		addi	sp,sp,-32
 191              		.cfi_def_cfa_offset 32
 192 00d0 233C1100 		sd	ra,24(sp)
 193 00d4 23388100 		sd	s0,16(sp)
 194 00d8 23349100 		sd	s1,8(sp)
 195              		.cfi_offset 1, -8
 196              		.cfi_offset 8, -16
 197              		.cfi_offset 9, -24
 198 00dc 13040102 		addi	s0,sp,32
 199              		.cfi_def_cfa 8, 0
 200 00e0 93040500 		mv	s1,a0
  29:src/thread.cpp **** 
 201              		.loc 1 29 5
  29:src/thread.cpp **** 
 202              		.loc 1 29 45 is_stmt 0
 203 00e4 97000000 		call	_ZN6Thread11getPRunningEv
 203      E7800000 
 204              	.LVL12:
  31:src/thread.cpp **** 
 205              		.loc 1 31 5 is_stmt 1
  31:src/thread.cpp **** 
 206              		.loc 1 31 13 is_stmt 0
 207 00ec 93943400 		slli	s1,s1,3
 208              	.LVL13:
 209 00f0 97070000 		lla	a5,.LANCHOR0
 209      93870700 
 210 00f8 B3849700 		add	s1,a5,s1
 211 00fc 03B70401 		ld	a4,16(s1)
 212              	.LVL14:
  33:src/thread.cpp ****     assert(oldRunning != &kernelThread); // you're only supposed to open user threads with system c
GAS LISTING /tmp/ccClqpSj.s 			page 8


 213              		.loc 1 33 5 is_stmt 1
  34:src/thread.cpp **** 
 214              		.loc 1 34 5
 215 0100 97070000 		la	a5,kernelThread
 215      83B70700 
 216              	.LVL15:
 217              	.LBB16:
 218              	.LBB17:
 219              		.file 2 "src/../h/../h/my_console.h"
   1:src/../h/../h/my_console.h **** #pragma once
   2:src/../h/../h/my_console.h **** 
   3:src/../h/../h/my_console.h **** #include "../h/risc.h"
   4:src/../h/../h/my_console.h **** 
   5:src/../h/../h/my_console.h **** #include "../lib/hw.h"
   6:src/../h/../h/my_console.h **** 
   7:src/../h/../h/my_console.h **** #define __DEBUG_MODE
   8:src/../h/../h/my_console.h **** 
   9:src/../h/../h/my_console.h **** 
  10:src/../h/../h/my_console.h **** void putString(const char* s);
  11:src/../h/../h/my_console.h **** void putInt(int n);
  12:src/../h/../h/my_console.h **** void putNewline();
  13:src/../h/../h/my_console.h **** void putU64(uint64 n);
  14:src/../h/../h/my_console.h **** void putBinary(uint64 n);
  15:src/../h/../h/my_console.h **** 
  16:src/../h/../h/my_console.h **** [[noreturn]] void stopKernel();
  17:src/../h/../h/my_console.h **** 
  18:src/../h/../h/my_console.h **** inline void _assert(bool valid, const char* file, int line) // MUST be inline
  19:src/../h/../h/my_console.h **** {
  20:src/../h/../h/my_console.h ****     if(valid)
 220              		.loc 2 20 5
 221 0108 6306F504 		beq	a0,a5,.L17
  21:src/../h/../h/my_console.h ****         return;
 222              		.loc 2 21 9
 223              	.LVL16:
 224              	.LBE17:
 225              	.LBE16:
  38:src/thread.cpp ****         return;
 226              		.loc 1 38 5
  38:src/thread.cpp ****         return;
 227              		.loc 1 38 11 is_stmt 0
 228 010c 83470704 		lbu	a5,64(a4)
  38:src/thread.cpp ****         return;
 229              		.loc 1 38 5
 230 0110 63980702 		bnez	a5,.L11
  41:src/thread.cpp ****     {
 231              		.loc 1 41 5 is_stmt 1
 232              	.LBB19:
  41:src/thread.cpp ****     {
 233              		.loc 1 41 11 is_stmt 0
 234 0114 83378703 		ld	a5,56(a4)
  41:src/thread.cpp ****     {
 235              		.loc 1 41 5
 236 0118 638C0708 		beqz	a5,.L18
 237              	.LVL17:
 238              	.L14:
 239              	.LBB20:
  48:src/thread.cpp ****         {
GAS LISTING /tmp/ccClqpSj.s 			page 9


 240              		.loc 1 48 9 is_stmt 1
  48:src/thread.cpp ****         {
 241              		.loc 1 48 21
 242 011c 13870700 		mv	a4,a5
 243 0120 83B70703 		ld	a5,48(a5)
 244              	.LVL18:
 245 0124 E39C07FE 		bnez	a5,.L14
  53:src/thread.cpp ****     }
 246              		.loc 1 53 9
  53:src/thread.cpp ****     }
 247              		.loc 1 53 21 is_stmt 0
 248 0128 2338A702 		sd	a0,48(a4)
 249              	.LVL19:
 250              	.L15:
 251              	.LBE20:
 252              	.LBE19:
  56:src/thread.cpp ****     oldRunning->state = SUSPENDED;
 253              		.loc 1 56 5 is_stmt 1
  56:src/thread.cpp ****     oldRunning->state = SUSPENDED;
 254              		.loc 1 56 23 is_stmt 0
 255 012c 23380502 		sd	zero,48(a0)
  57:src/thread.cpp **** 
 256              		.loc 1 57 5 is_stmt 1
  57:src/thread.cpp **** 
 257              		.loc 1 57 23 is_stmt 0
 258 0130 93071000 		li	a5,1
 259 0134 2320F500 		sw	a5,0(a0)
  59:src/thread.cpp **** }
 260              		.loc 1 59 5 is_stmt 1
  59:src/thread.cpp **** }
 261              		.loc 1 59 30 is_stmt 0
 262 0138 97000000 		call	_ZN9Scheduler14dispatchToNextEv@plt
 262      E7800000 
 263              	.LVL20:
 264              	.L11:
  60:src/thread.cpp **** 
 265              		.loc 1 60 1
 266 0140 83308101 		ld	ra,24(sp)
 267              		.cfi_remember_state
 268              		.cfi_restore 1
 269 0144 03340101 		ld	s0,16(sp)
 270              		.cfi_restore 8
 271              		.cfi_def_cfa 2, 32
 272 0148 83348100 		ld	s1,8(sp)
 273              		.cfi_restore 9
 274 014c 13010102 		addi	sp,sp,32
 275              		.cfi_def_cfa_offset 0
 276 0150 67800000 		jr	ra
 277              	.LVL21:
 278              	.L17:
 279              		.cfi_restore_state
 280              	.LBB21:
 281              	.LBB18:
  22:src/../h/../h/my_console.h **** 
  23:src/../h/../h/my_console.h ****     putString("===================== ASSERT file: ");
 282              		.loc 2 23 5 is_stmt 1
 283              		.loc 2 23 14 is_stmt 0
GAS LISTING /tmp/ccClqpSj.s 			page 10


 284 0154 17050000 		lla	a0,.LC0
 284      13050500 
 285              	.LVL22:
 286 015c 97000000 		call	_Z9putStringPKc@plt
 286      E7800000 
 287              	.LVL23:
  24:src/../h/../h/my_console.h ****     putString(file);
 288              		.loc 2 24 5 is_stmt 1
 289              		.loc 2 24 14 is_stmt 0
 290 0164 17050000 		lla	a0,.LC1
 290      13050500 
 291 016c 97000000 		call	_Z9putStringPKc@plt
 291      E7800000 
 292              	.LVL24:
  25:src/../h/../h/my_console.h ****     putString("    line: ");
 293              		.loc 2 25 5 is_stmt 1
 294              		.loc 2 25 14 is_stmt 0
 295 0174 17050000 		lla	a0,.LC2
 295      13050500 
 296 017c 97000000 		call	_Z9putStringPKc@plt
 296      E7800000 
 297              	.LVL25:
  26:src/../h/../h/my_console.h ****     putInt(line);
 298              		.loc 2 26 5 is_stmt 1
 299              		.loc 2 26 11 is_stmt 0
 300 0184 13052002 		li	a0,34
 301 0188 97000000 		call	_Z6putInti@plt
 301      E7800000 
 302              	.LVL26:
  27:src/../h/../h/my_console.h ****     putString("   ===========================");
 303              		.loc 2 27 5 is_stmt 1
 304              		.loc 2 27 14 is_stmt 0
 305 0190 17050000 		lla	a0,.LC3
 305      13050500 
 306 0198 97000000 		call	_Z9putStringPKc@plt
 306      E7800000 
 307              	.LVL27:
  28:src/../h/../h/my_console.h ****     putNewline();
 308              		.loc 2 28 5 is_stmt 1
 309              		.loc 2 28 15 is_stmt 0
 310 01a0 97000000 		call	_Z10putNewlinev@plt
 310      E7800000 
 311              	.LVL28:
  29:src/../h/../h/my_console.h **** 
  30:src/../h/../h/my_console.h ****     stopKernel();
 312              		.loc 2 30 5 is_stmt 1
 313              		.loc 2 30 15 is_stmt 0
 314 01a8 97000000 		call	_Z10stopKernelv@plt
 314      E7800000 
 315              	.LVL29:
 316              	.L18:
 317              	.LBE18:
 318              	.LBE21:
 319              	.LBB22:
  43:src/thread.cpp ****     }
 320              		.loc 1 43 9 is_stmt 1
  43:src/thread.cpp ****     }
GAS LISTING /tmp/ccClqpSj.s 			page 11


 321              		.loc 1 43 25 is_stmt 0
 322 01b0 233CA702 		sd	a0,56(a4)
 323 01b4 6FF09FF7 		j	.L15
 324              	.LBE22:
 325              		.cfi_endproc
 326              	.LFE15:
 328              		.align	2
 329              		.globl	_ZN6Thread12switchToUserEv
 331              	_ZN6Thread12switchToUserEv:
 332              	.LFB16:
  63:src/thread.cpp ****     uint64 scause;
 333              		.loc 1 63 1 is_stmt 1
 334              		.cfi_startproc
 335 01b8 130101FF 		addi	sp,sp,-16
 336              		.cfi_def_cfa_offset 16
 337 01bc 23341100 		sd	ra,8(sp)
 338 01c0 23308100 		sd	s0,0(sp)
 339              		.cfi_offset 1, -8
 340              		.cfi_offset 8, -16
 341 01c4 13040101 		addi	s0,sp,16
 342              		.cfi_def_cfa 8, 0
  64:src/thread.cpp ****     __asm__ volatile ("csrr %[name], scause" : [name] "=r"(scause));
 343              		.loc 1 64 5
  65:src/thread.cpp ****     bool cameFromKernelMode = ((scause & (1 << 8)) == 0);
 344              		.loc 1 65 5
  65:src/thread.cpp ****     bool cameFromKernelMode = ((scause & (1 << 8)) == 0);
 345              		.loc 1 65 68 is_stmt 0
 346              	#APP
 347              	# 65 "src/thread.cpp" 1
 348              		csrr a5, scause
 349              	# 0 "" 2
 350              	.LVL30:
  66:src/thread.cpp **** 
 351              		.loc 1 66 5 is_stmt 1
  66:src/thread.cpp **** 
 352              		.loc 1 66 40 is_stmt 0
 353              	#NO_APP
 354 01cc 93F70710 		andi	a5,a5,256
 355              	.LVL31:
  68:src/thread.cpp ****     {
 356              		.loc 1 68 5 is_stmt 1
 357 01d0 63900704 		bnez	a5,.L24
  75:src/thread.cpp **** 
 358              		.loc 1 75 5
 359 01d4 97070000 		ld	a5,.LANCHOR0
 359      83B70700 
 360              	.LVL32:
 361 01dc 83B78702 		ld	a5,40(a5)
 362              	.LVL33:
 363              	.LBB31:
 364              	.LBB32:
  20:src/../h/../h/my_console.h ****         return;
 365              		.loc 2 20 5
 366 01e0 63960708 		bnez	a5,.L25
  21:src/../h/../h/my_console.h **** 
 367              		.loc 2 21 9
 368              	.LVL34:
GAS LISTING /tmp/ccClqpSj.s 			page 12


 369              	.LBE32:
 370              	.LBE31:
  77:src/thread.cpp **** 
 371              		.loc 1 77 5
  77:src/thread.cpp **** 
 372              		.loc 1 77 30 is_stmt 0
 373 01e4 97000000 		call	_ZN9Scheduler14dispatchToNextEv@plt
 373      E7800000 
 374              	.LVL35:
  79:src/thread.cpp **** 
 375              		.loc 1 79 5 is_stmt 1
 376 01ec 97000000 		call	_ZN6Thread11getPRunningEv
 376      E7800000 
 377              	.LVL36:
 378 01f4 83378502 		ld	a5,40(a0)
 379 01f8 9387F7FF 		addi	a5,a5,-1
 380              	.LVL37:
 381              	.LBB34:
 382              	.LBB35:
  20:src/../h/../h/my_console.h ****         return;
 383              		.loc 2 20 5
 384 01fc 6396070C 		bnez	a5,.L26
 385              	.LBE35:
 386              	.LBE34:
  90:src/thread.cpp **** 
 387              		.loc 1 90 1 is_stmt 0
 388 0200 83308100 		ld	ra,8(sp)
 389              		.cfi_remember_state
 390              		.cfi_restore 1
 391 0204 03340100 		ld	s0,0(sp)
 392              		.cfi_restore 8
 393              		.cfi_def_cfa 2, 16
 394 0208 13010101 		addi	sp,sp,16
 395              		.cfi_def_cfa_offset 0
 396 020c 67800000 		jr	ra
 397              	.LVL38:
 398              	.L24:
 399              		.cfi_restore_state
  70:src/thread.cpp ****         assert(Thread::pRunning->id != 0);
 400              		.loc 1 70 9 is_stmt 1
 401              	.LBB37:
 402              	.LBB38:
  20:src/../h/../h/my_console.h ****         return;
 403              		.loc 2 20 5
  23:src/../h/../h/my_console.h ****     putString(file);
 404              		.loc 2 23 5
  23:src/../h/../h/my_console.h ****     putString(file);
 405              		.loc 2 23 14 is_stmt 0
 406 0210 17050000 		lla	a0,.LC0
 406      13050500 
 407 0218 97000000 		call	_Z9putStringPKc@plt
 407      E7800000 
 408              	.LVL39:
  24:src/../h/../h/my_console.h ****     putString("    line: ");
 409              		.loc 2 24 5 is_stmt 1
  24:src/../h/../h/my_console.h ****     putString("    line: ");
 410              		.loc 2 24 14 is_stmt 0
GAS LISTING /tmp/ccClqpSj.s 			page 13


 411 0220 17050000 		lla	a0,.LC1
 411      13050500 
 412 0228 97000000 		call	_Z9putStringPKc@plt
 412      E7800000 
 413              	.LVL40:
  25:src/../h/../h/my_console.h ****     putInt(line);
 414              		.loc 2 25 5 is_stmt 1
  25:src/../h/../h/my_console.h ****     putInt(line);
 415              		.loc 2 25 14 is_stmt 0
 416 0230 17050000 		lla	a0,.LC2
 416      13050500 
 417 0238 97000000 		call	_Z9putStringPKc@plt
 417      E7800000 
 418              	.LVL41:
  26:src/../h/../h/my_console.h ****     putString("   ===========================");
 419              		.loc 2 26 5 is_stmt 1
  26:src/../h/../h/my_console.h ****     putString("   ===========================");
 420              		.loc 2 26 11 is_stmt 0
 421 0240 13056004 		li	a0,70
 422 0244 97000000 		call	_Z6putInti@plt
 422      E7800000 
 423              	.LVL42:
  27:src/../h/../h/my_console.h ****     putNewline();
 424              		.loc 2 27 5 is_stmt 1
  27:src/../h/../h/my_console.h ****     putNewline();
 425              		.loc 2 27 14 is_stmt 0
 426 024c 17050000 		lla	a0,.LC3
 426      13050500 
 427 0254 97000000 		call	_Z9putStringPKc@plt
 427      E7800000 
 428              	.LVL43:
  28:src/../h/../h/my_console.h **** 
 429              		.loc 2 28 5 is_stmt 1
  28:src/../h/../h/my_console.h **** 
 430              		.loc 2 28 15 is_stmt 0
 431 025c 97000000 		call	_Z10putNewlinev@plt
 431      E7800000 
 432              	.LVL44:
 433              		.loc 2 30 5 is_stmt 1
 434              		.loc 2 30 15 is_stmt 0
 435 0264 97000000 		call	_Z10stopKernelv@plt
 435      E7800000 
 436              	.LVL45:
 437              	.L25:
 438              	.LBE38:
 439              	.LBE37:
 440              	.LBB39:
 441              	.LBB33:
  23:src/../h/../h/my_console.h ****     putString(file);
 442              		.loc 2 23 5 is_stmt 1
  23:src/../h/../h/my_console.h ****     putString(file);
 443              		.loc 2 23 14 is_stmt 0
 444 026c 17050000 		lla	a0,.LC0
 444      13050500 
 445 0274 97000000 		call	_Z9putStringPKc@plt
 445      E7800000 
 446              	.LVL46:
GAS LISTING /tmp/ccClqpSj.s 			page 14


  24:src/../h/../h/my_console.h ****     putString("    line: ");
 447              		.loc 2 24 5 is_stmt 1
  24:src/../h/../h/my_console.h ****     putString("    line: ");
 448              		.loc 2 24 14 is_stmt 0
 449 027c 17050000 		lla	a0,.LC1
 449      13050500 
 450 0284 97000000 		call	_Z9putStringPKc@plt
 450      E7800000 
 451              	.LVL47:
  25:src/../h/../h/my_console.h ****     putInt(line);
 452              		.loc 2 25 5 is_stmt 1
  25:src/../h/../h/my_console.h ****     putInt(line);
 453              		.loc 2 25 14 is_stmt 0
 454 028c 17050000 		lla	a0,.LC2
 454      13050500 
 455 0294 97000000 		call	_Z9putStringPKc@plt
 455      E7800000 
 456              	.LVL48:
  26:src/../h/../h/my_console.h ****     putString("   ===========================");
 457              		.loc 2 26 5 is_stmt 1
  26:src/../h/../h/my_console.h ****     putString("   ===========================");
 458              		.loc 2 26 11 is_stmt 0
 459 029c 1305B004 		li	a0,75
 460 02a0 97000000 		call	_Z6putInti@plt
 460      E7800000 
 461              	.LVL49:
  27:src/../h/../h/my_console.h ****     putNewline();
 462              		.loc 2 27 5 is_stmt 1
  27:src/../h/../h/my_console.h ****     putNewline();
 463              		.loc 2 27 14 is_stmt 0
 464 02a8 17050000 		lla	a0,.LC3
 464      13050500 
 465 02b0 97000000 		call	_Z9putStringPKc@plt
 465      E7800000 
 466              	.LVL50:
  28:src/../h/../h/my_console.h **** 
 467              		.loc 2 28 5 is_stmt 1
  28:src/../h/../h/my_console.h **** 
 468              		.loc 2 28 15 is_stmt 0
 469 02b8 97000000 		call	_Z10putNewlinev@plt
 469      E7800000 
 470              	.LVL51:
 471              		.loc 2 30 5 is_stmt 1
 472              		.loc 2 30 15 is_stmt 0
 473 02c0 97000000 		call	_Z10stopKernelv@plt
 473      E7800000 
 474              	.LVL52:
 475              	.L26:
 476              	.LBE33:
 477              	.LBE39:
 478              	.LBB40:
 479              	.LBB36:
  23:src/../h/../h/my_console.h ****     putString(file);
 480              		.loc 2 23 5 is_stmt 1
  23:src/../h/../h/my_console.h ****     putString(file);
 481              		.loc 2 23 14 is_stmt 0
 482 02c8 17050000 		lla	a0,.LC0
GAS LISTING /tmp/ccClqpSj.s 			page 15


 482      13050500 
 483 02d0 97000000 		call	_Z9putStringPKc@plt
 483      E7800000 
 484              	.LVL53:
  24:src/../h/../h/my_console.h ****     putString("    line: ");
 485              		.loc 2 24 5 is_stmt 1
  24:src/../h/../h/my_console.h ****     putString("    line: ");
 486              		.loc 2 24 14 is_stmt 0
 487 02d8 17050000 		lla	a0,.LC1
 487      13050500 
 488 02e0 97000000 		call	_Z9putStringPKc@plt
 488      E7800000 
 489              	.LVL54:
  25:src/../h/../h/my_console.h ****     putInt(line);
 490              		.loc 2 25 5 is_stmt 1
  25:src/../h/../h/my_console.h ****     putInt(line);
 491              		.loc 2 25 14 is_stmt 0
 492 02e8 17050000 		lla	a0,.LC2
 492      13050500 
 493 02f0 97000000 		call	_Z9putStringPKc@plt
 493      E7800000 
 494              	.LVL55:
  26:src/../h/../h/my_console.h ****     putString("   ===========================");
 495              		.loc 2 26 5 is_stmt 1
  26:src/../h/../h/my_console.h ****     putString("   ===========================");
 496              		.loc 2 26 11 is_stmt 0
 497 02f8 1305F004 		li	a0,79
 498 02fc 97000000 		call	_Z6putInti@plt
 498      E7800000 
 499              	.LVL56:
  27:src/../h/../h/my_console.h ****     putNewline();
 500              		.loc 2 27 5 is_stmt 1
  27:src/../h/../h/my_console.h ****     putNewline();
 501              		.loc 2 27 14 is_stmt 0
 502 0304 17050000 		lla	a0,.LC3
 502      13050500 
 503 030c 97000000 		call	_Z9putStringPKc@plt
 503      E7800000 
 504              	.LVL57:
  28:src/../h/../h/my_console.h **** 
 505              		.loc 2 28 5 is_stmt 1
  28:src/../h/../h/my_console.h **** 
 506              		.loc 2 28 15 is_stmt 0
 507 0314 97000000 		call	_Z10putNewlinev@plt
 507      E7800000 
 508              	.LVL58:
 509              		.loc 2 30 5 is_stmt 1
 510              		.loc 2 30 15 is_stmt 0
 511 031c 97000000 		call	_Z10stopKernelv@plt
 511      E7800000 
 512              	.LVL59:
 513              	.LBE36:
 514              	.LBE40:
 515              		.cfi_endproc
 516              	.LFE16:
 518              		.align	2
 519              		.globl	_ZN6Thread10allocStackEv
GAS LISTING /tmp/ccClqpSj.s 			page 16


 521              	_ZN6Thread10allocStackEv:
 522              	.LFB20:
 124:src/thread.cpp ****     assert(pStackStart == nullptr); // error: this threads stack may have already been allocated
 523              		.loc 1 124 1 is_stmt 1
 524              		.cfi_startproc
 525              	.LVL60:
 526 0324 130101FE 		addi	sp,sp,-32
 527              		.cfi_def_cfa_offset 32
 528 0328 233C1100 		sd	ra,24(sp)
 529 032c 23388100 		sd	s0,16(sp)
 530 0330 23349100 		sd	s1,8(sp)
 531 0334 23302101 		sd	s2,0(sp)
 532              		.cfi_offset 1, -8
 533              		.cfi_offset 8, -16
 534              		.cfi_offset 9, -24
 535              		.cfi_offset 18, -32
 536 0338 13040102 		addi	s0,sp,32
 537              		.cfi_def_cfa 8, 0
 125:src/thread.cpp **** 
 538              		.loc 1 125 5
 539 033c 83378501 		ld	a5,24(a0)
 540              	.LVL61:
 541              	.LBB43:
 542              	.LBB44:
  20:src/../h/../h/my_console.h ****         return;
 543              		.loc 2 20 5
 544 0340 639A0704 		bnez	a5,.L31
 545 0344 13090500 		mv	s2,a0
  21:src/../h/../h/my_console.h **** 
 546              		.loc 2 21 9
 547              	.LVL62:
 548              	.LBE44:
 549              	.LBE43:
 127:src/thread.cpp ****     uint64 stack =  (uint64)pStackStart + ACTUAL_STACK_SIZE;
 550              		.loc 1 127 5
 127:src/thread.cpp ****     uint64 stack =  (uint64)pStackStart + ACTUAL_STACK_SIZE;
 551              		.loc 1 127 44 is_stmt 0
 552 0348 97000000 		call	_ZN8MemAlloc3getEv@plt
 552      E7800000 
 553              	.LVL63:
 554 0350 B7B40000 		li	s1,45056
 555 0354 938504AA 		addi	a1,s1,-1376
 556 0358 97000000 		call	_ZN8MemAlloc8allocMemEm@plt
 556      E7800000 
 557              	.LVL64:
 127:src/thread.cpp ****     uint64 stack =  (uint64)pStackStart + ACTUAL_STACK_SIZE;
 558              		.loc 1 127 17
 559 0360 233CA900 		sd	a0,24(s2)
 128:src/thread.cpp **** 
 560              		.loc 1 128 5 is_stmt 1
 128:src/thread.cpp **** 
 561              		.loc 1 128 12 is_stmt 0
 562 0364 938404AA 		addi	s1,s1,-1376
 563 0368 B3049500 		add	s1,a0,s1
 564              	.LVL65:
 130:src/thread.cpp ****     {
 565              		.loc 1 130 5 is_stmt 1
GAS LISTING /tmp/ccClqpSj.s 			page 17


 130:src/thread.cpp ****     {
 566              		.loc 1 130 14 is_stmt 0
 567 036c 1375F500 		andi	a0,a0,15
 130:src/thread.cpp ****     {
 568              		.loc 1 130 5
 569 0370 63040500 		beqz	a0,.L29
 132:src/thread.cpp ****     }
 570              		.loc 1 132 9 is_stmt 1
 132:src/thread.cpp ****     }
 571              		.loc 1 132 15 is_stmt 0
 572 0374 93F404FF 		andi	s1,s1,-16
 573              	.LVL66:
 574              	.L29:
 135:src/thread.cpp **** 
 575              		.loc 1 135 5 is_stmt 1
 137:src/thread.cpp **** 
 576              		.loc 1 137 5
 139:src/thread.cpp **** 
 577              		.loc 1 139 1 is_stmt 0
 578 0378 138504EF 		addi	a0,s1,-272
 579              	.LVL67:
 580 037c 83308101 		ld	ra,24(sp)
 581              		.cfi_remember_state
 582              		.cfi_restore 1
 583 0380 03340101 		ld	s0,16(sp)
 584              		.cfi_restore 8
 585              		.cfi_def_cfa 2, 32
 586 0384 83348100 		ld	s1,8(sp)
 587              		.cfi_restore 9
 588 0388 03390100 		ld	s2,0(sp)
 589              		.cfi_restore 18
 590              	.LVL68:
 591 038c 13010102 		addi	sp,sp,32
 592              		.cfi_def_cfa_offset 0
 593 0390 67800000 		jr	ra
 594              	.LVL69:
 595              	.L31:
 596              		.cfi_restore_state
 597              	.LBB46:
 598              	.LBB45:
  23:src/../h/../h/my_console.h ****     putString(file);
 599              		.loc 2 23 5 is_stmt 1
  23:src/../h/../h/my_console.h ****     putString(file);
 600              		.loc 2 23 14 is_stmt 0
 601 0394 17050000 		lla	a0,.LC0
 601      13050500 
 602              	.LVL70:
 603 039c 97000000 		call	_Z9putStringPKc@plt
 603      E7800000 
 604              	.LVL71:
  24:src/../h/../h/my_console.h ****     putString("    line: ");
 605              		.loc 2 24 5 is_stmt 1
  24:src/../h/../h/my_console.h ****     putString("    line: ");
 606              		.loc 2 24 14 is_stmt 0
 607 03a4 17050000 		lla	a0,.LC1
 607      13050500 
 608 03ac 97000000 		call	_Z9putStringPKc@plt
GAS LISTING /tmp/ccClqpSj.s 			page 18


 608      E7800000 
 609              	.LVL72:
  25:src/../h/../h/my_console.h ****     putInt(line);
 610              		.loc 2 25 5 is_stmt 1
  25:src/../h/../h/my_console.h ****     putInt(line);
 611              		.loc 2 25 14 is_stmt 0
 612 03b4 17050000 		lla	a0,.LC2
 612      13050500 
 613 03bc 97000000 		call	_Z9putStringPKc@plt
 613      E7800000 
 614              	.LVL73:
  26:src/../h/../h/my_console.h ****     putString("   ===========================");
 615              		.loc 2 26 5 is_stmt 1
  26:src/../h/../h/my_console.h ****     putString("   ===========================");
 616              		.loc 2 26 11 is_stmt 0
 617 03c4 1305D007 		li	a0,125
 618 03c8 97000000 		call	_Z6putInti@plt
 618      E7800000 
 619              	.LVL74:
  27:src/../h/../h/my_console.h ****     putNewline();
 620              		.loc 2 27 5 is_stmt 1
  27:src/../h/../h/my_console.h ****     putNewline();
 621              		.loc 2 27 14 is_stmt 0
 622 03d0 17050000 		lla	a0,.LC3
 622      13050500 
 623 03d8 97000000 		call	_Z9putStringPKc@plt
 623      E7800000 
 624              	.LVL75:
  28:src/../h/../h/my_console.h **** 
 625              		.loc 2 28 5 is_stmt 1
  28:src/../h/../h/my_console.h **** 
 626              		.loc 2 28 15 is_stmt 0
 627 03e0 97000000 		call	_Z10putNewlinev@plt
 627      E7800000 
 628              	.LVL76:
 629              		.loc 2 30 5 is_stmt 1
 630              		.loc 2 30 15 is_stmt 0
 631 03e8 97000000 		call	_Z10stopKernelv@plt
 631      E7800000 
 632              	.LVL77:
 633              	.LBE45:
 634              	.LBE46:
 635              		.cfi_endproc
 636              	.LFE20:
 638              		.align	2
 639              		.globl	_ZN6Thread4initEPFvPvES0_S0_
 641              	_ZN6Thread4initEPFvPvES0_S0_:
 642              	.LFB22:
 146:src/thread.cpp **** 
 147:src/thread.cpp **** void Thread::init(Body body, void* arg, void* pLogicalStack) // this is used as a "constructor", ex
 148:src/thread.cpp **** {
 643              		.loc 1 148 1 is_stmt 1
 644              		.cfi_startproc
 645              	.LVL78:
 646 03f0 130101FF 		addi	sp,sp,-16
 647              		.cfi_def_cfa_offset 16
 648 03f4 23341100 		sd	ra,8(sp)
GAS LISTING /tmp/ccClqpSj.s 			page 19


 649 03f8 23308100 		sd	s0,0(sp)
 650              		.cfi_offset 1, -8
 651              		.cfi_offset 8, -16
 652 03fc 13040101 		addi	s0,sp,16
 653              		.cfi_def_cfa 8, 0
 149:src/thread.cpp ****     assert(nrTotalThreads < MAX_NR_TOTAL_THREADS);
 654              		.loc 1 149 5
 655 0400 97070000 		ld	a5,.LANCHOR1
 655      83B70700 
 656 0408 93B74706 		sltiu	a5,a5,100
 657              	.LVL79:
 658              	.LBB51:
 659              	.LBB52:
  20:src/../h/../h/my_console.h ****         return;
 660              		.loc 2 20 5
 661 040c 63820706 		beqz	a5,.L36
  21:src/../h/../h/my_console.h **** 
 662              		.loc 2 21 9
 663              	.LVL80:
 664              	.LBE52:
 665              	.LBE51:
 150:src/thread.cpp ****     id = nrTotalThreads;
 666              		.loc 1 150 5
 667              		.loc 1 150 8 is_stmt 0
 668 0410 17070000 		lla	a4,.LANCHOR1
 668      13070700 
 669 0418 83370700 		ld	a5,0(a4)
 670 041c 2334F502 		sd	a5,40(a0)
 151:src/thread.cpp ****     nrTotalThreads++;
 671              		.loc 1 151 5 is_stmt 1
 672              		.loc 1 151 19 is_stmt 0
 673 0420 93871700 		addi	a5,a5,1
 674 0424 2330F700 		sd	a5,0(a4)
 152:src/thread.cpp **** 
 153:src/thread.cpp ****     assert((uint64)pLogicalStack % 16 == 0);
 675              		.loc 1 153 5 is_stmt 1
 676 0428 93F7F600 		andi	a5,a3,15
 677              	.LVL81:
 678              	.LBB54:
 679              	.LBB55:
  20:src/../h/../h/my_console.h ****         return;
 680              		.loc 2 20 5
 681 042c 6390070A 		bnez	a5,.L37
  21:src/../h/../h/my_console.h **** 
 682              		.loc 2 21 9
 683              	.LVL82:
 684              	.LBE55:
 685              	.LBE54:
 154:src/thread.cpp **** 
 155:src/thread.cpp ****     state = INITIALIZING;
 686              		.loc 1 155 5
 156:src/thread.cpp ****     timeSlice = DEFAULT_TIME_SLICE;
 687              		.loc 1 156 5
 688              		.loc 1 156 15 is_stmt 0
 689 0430 93072000 		li	a5,2
 690 0434 2330F502 		sd	a5,32(a0)
 157:src/thread.cpp ****     pNext = nullptr;
GAS LISTING /tmp/ccClqpSj.s 			page 20


 691              		.loc 1 157 5 is_stmt 1
 692              		.loc 1 157 11 is_stmt 0
 693 0438 23380502 		sd	zero,48(a0)
 158:src/thread.cpp ****     pWaitingHead = nullptr;
 694              		.loc 1 158 5 is_stmt 1
 695              		.loc 1 158 18 is_stmt 0
 696 043c 233C0502 		sd	zero,56(a0)
 159:src/thread.cpp ****     done = false;
 697              		.loc 1 159 5 is_stmt 1
 698              		.loc 1 159 10 is_stmt 0
 699 0440 23000504 		sb	zero,64(a0)
 160:src/thread.cpp **** 
 161:src/thread.cpp ****     // sets context
 162:src/thread.cpp ****     sp = (uint64*)pLogicalStack; // sp field
 700              		.loc 1 162 5 is_stmt 1
 701              		.loc 1 162 8 is_stmt 0
 702 0444 2334D504 		sd	a3,72(a0)
 163:src/thread.cpp **** 
 164:src/thread.cpp ****     // skipping a0 to pass arguments as it is will be not be restored in the context switch because
 165:src/thread.cpp **** 
 166:src/thread.cpp ****     *((uint64*)pLogicalStack + 11) = (uint64)body;
 703              		.loc 1 166 5 is_stmt 1
 704              		.loc 1 166 36 is_stmt 0
 705 0448 23BCB604 		sd	a1,88(a3)
 167:src/thread.cpp ****     *((uint64*)pLogicalStack + 12) = (uint64)arg;
 706              		.loc 1 167 5 is_stmt 1
 707              		.loc 1 167 36 is_stmt 0
 708 044c 23B0C606 		sd	a2,96(a3)
 168:src/thread.cpp ****     *((uint64*)pLogicalStack + 32) = (uint64)&wrapper;
 709              		.loc 1 168 5 is_stmt 1
 710              		.loc 1 168 36 is_stmt 0
 711 0450 17070000 		lla	a4,_Z7wrappermPFvPvES_
 711      13070700 
 712 0458 23B0E610 		sd	a4,256(a3)
 169:src/thread.cpp **** 
 170:src/thread.cpp ****     state = READY;
 713              		.loc 1 170 5 is_stmt 1
 714              		.loc 1 170 11 is_stmt 0
 715 045c 2320F500 		sw	a5,0(a0)
 171:src/thread.cpp **** }
 716              		.loc 1 171 1
 717 0460 83308100 		ld	ra,8(sp)
 718              		.cfi_remember_state
 719              		.cfi_restore 1
 720 0464 03340100 		ld	s0,0(sp)
 721              		.cfi_restore 8
 722              		.cfi_def_cfa 2, 16
 723 0468 13010101 		addi	sp,sp,16
 724              		.cfi_def_cfa_offset 0
 725 046c 67800000 		jr	ra
 726              	.LVL83:
 727              	.L36:
 728              		.cfi_restore_state
 729              	.LBB57:
 730              	.LBB53:
  23:src/../h/../h/my_console.h ****     putString(file);
 731              		.loc 2 23 5 is_stmt 1
GAS LISTING /tmp/ccClqpSj.s 			page 21


  23:src/../h/../h/my_console.h ****     putString(file);
 732              		.loc 2 23 14 is_stmt 0
 733 0470 17050000 		lla	a0,.LC0
 733      13050500 
 734              	.LVL84:
 735 0478 97000000 		call	_Z9putStringPKc@plt
 735      E7800000 
 736              	.LVL85:
  24:src/../h/../h/my_console.h ****     putString("    line: ");
 737              		.loc 2 24 5 is_stmt 1
  24:src/../h/../h/my_console.h ****     putString("    line: ");
 738              		.loc 2 24 14 is_stmt 0
 739 0480 17050000 		lla	a0,.LC1
 739      13050500 
 740 0488 97000000 		call	_Z9putStringPKc@plt
 740      E7800000 
 741              	.LVL86:
  25:src/../h/../h/my_console.h ****     putInt(line);
 742              		.loc 2 25 5 is_stmt 1
  25:src/../h/../h/my_console.h ****     putInt(line);
 743              		.loc 2 25 14 is_stmt 0
 744 0490 17050000 		lla	a0,.LC2
 744      13050500 
 745 0498 97000000 		call	_Z9putStringPKc@plt
 745      E7800000 
 746              	.LVL87:
  26:src/../h/../h/my_console.h ****     putString("   ===========================");
 747              		.loc 2 26 5 is_stmt 1
  26:src/../h/../h/my_console.h ****     putString("   ===========================");
 748              		.loc 2 26 11 is_stmt 0
 749 04a0 13055009 		li	a0,149
 750 04a4 97000000 		call	_Z6putInti@plt
 750      E7800000 
 751              	.LVL88:
  27:src/../h/../h/my_console.h ****     putNewline();
 752              		.loc 2 27 5 is_stmt 1
  27:src/../h/../h/my_console.h ****     putNewline();
 753              		.loc 2 27 14 is_stmt 0
 754 04ac 17050000 		lla	a0,.LC3
 754      13050500 
 755 04b4 97000000 		call	_Z9putStringPKc@plt
 755      E7800000 
 756              	.LVL89:
  28:src/../h/../h/my_console.h **** 
 757              		.loc 2 28 5 is_stmt 1
  28:src/../h/../h/my_console.h **** 
 758              		.loc 2 28 15 is_stmt 0
 759 04bc 97000000 		call	_Z10putNewlinev@plt
 759      E7800000 
 760              	.LVL90:
 761              		.loc 2 30 5 is_stmt 1
 762              		.loc 2 30 15 is_stmt 0
 763 04c4 97000000 		call	_Z10stopKernelv@plt
 763      E7800000 
 764              	.LVL91:
 765              	.L37:
 766              	.LBE53:
GAS LISTING /tmp/ccClqpSj.s 			page 22


 767              	.LBE57:
 768              	.LBB58:
 769              	.LBB56:
  23:src/../h/../h/my_console.h ****     putString(file);
 770              		.loc 2 23 5 is_stmt 1
  23:src/../h/../h/my_console.h ****     putString(file);
 771              		.loc 2 23 14 is_stmt 0
 772 04cc 17050000 		lla	a0,.LC0
 772      13050500 
 773              	.LVL92:
 774 04d4 97000000 		call	_Z9putStringPKc@plt
 774      E7800000 
 775              	.LVL93:
  24:src/../h/../h/my_console.h ****     putString("    line: ");
 776              		.loc 2 24 5 is_stmt 1
  24:src/../h/../h/my_console.h ****     putString("    line: ");
 777              		.loc 2 24 14 is_stmt 0
 778 04dc 17050000 		lla	a0,.LC1
 778      13050500 
 779 04e4 97000000 		call	_Z9putStringPKc@plt
 779      E7800000 
 780              	.LVL94:
  25:src/../h/../h/my_console.h ****     putInt(line);
 781              		.loc 2 25 5 is_stmt 1
  25:src/../h/../h/my_console.h ****     putInt(line);
 782              		.loc 2 25 14 is_stmt 0
 783 04ec 17050000 		lla	a0,.LC2
 783      13050500 
 784 04f4 97000000 		call	_Z9putStringPKc@plt
 784      E7800000 
 785              	.LVL95:
  26:src/../h/../h/my_console.h ****     putString("   ===========================");
 786              		.loc 2 26 5 is_stmt 1
  26:src/../h/../h/my_console.h ****     putString("   ===========================");
 787              		.loc 2 26 11 is_stmt 0
 788 04fc 13059009 		li	a0,153
 789 0500 97000000 		call	_Z6putInti@plt
 789      E7800000 
 790              	.LVL96:
  27:src/../h/../h/my_console.h ****     putNewline();
 791              		.loc 2 27 5 is_stmt 1
  27:src/../h/../h/my_console.h ****     putNewline();
 792              		.loc 2 27 14 is_stmt 0
 793 0508 17050000 		lla	a0,.LC3
 793      13050500 
 794 0510 97000000 		call	_Z9putStringPKc@plt
 794      E7800000 
 795              	.LVL97:
  28:src/../h/../h/my_console.h **** 
 796              		.loc 2 28 5 is_stmt 1
  28:src/../h/../h/my_console.h **** 
 797              		.loc 2 28 15 is_stmt 0
 798 0518 97000000 		call	_Z10putNewlinev@plt
 798      E7800000 
 799              	.LVL98:
 800              		.loc 2 30 5 is_stmt 1
 801              		.loc 2 30 15 is_stmt 0
GAS LISTING /tmp/ccClqpSj.s 			page 23


 802 0520 97000000 		call	_Z10stopKernelv@plt
 802      E7800000 
 803              	.LVL99:
 804              	.LBE56:
 805              	.LBE58:
 806              		.cfi_endproc
 807              	.LFE22:
 809              		.align	2
 810              		.globl	_ZN6Thread12createThreadEPmPFvPvES1_
 812              	_ZN6Thread12createThreadEPmPFvPvES1_:
 813              	.LFB18:
  99:src/thread.cpp ****     assert(nrTotalThreads < MAX_NR_TOTAL_THREADS);
 814              		.loc 1 99 1 is_stmt 1
 815              		.cfi_startproc
 816              	.LVL100:
 817 0528 130101FD 		addi	sp,sp,-48
 818              		.cfi_def_cfa_offset 48
 819 052c 23341102 		sd	ra,40(sp)
 820 0530 23308102 		sd	s0,32(sp)
 821 0534 233C9100 		sd	s1,24(sp)
 822 0538 23382101 		sd	s2,16(sp)
 823 053c 23343101 		sd	s3,8(sp)
 824 0540 23304101 		sd	s4,0(sp)
 825              		.cfi_offset 1, -8
 826              		.cfi_offset 8, -16
 827              		.cfi_offset 9, -24
 828              		.cfi_offset 18, -32
 829              		.cfi_offset 19, -40
 830              		.cfi_offset 20, -48
 831 0544 13040103 		addi	s0,sp,48
 832              		.cfi_def_cfa 8, 0
 100:src/thread.cpp **** 
 833              		.loc 1 100 5
 834 0548 97070000 		ld	a5,.LANCHOR1
 834      83B70700 
 835 0550 93B74706 		sltiu	a5,a5,100
 836              	.LVL101:
 837              	.LBB61:
 838              	.LBB62:
  20:src/../h/../h/my_console.h ****         return;
 839              		.loc 2 20 5
 840 0554 6380070A 		beqz	a5,.L41
 841 0558 13090500 		mv	s2,a0
 842 055c 93890500 		mv	s3,a1
 843 0560 130A0600 		mv	s4,a2
  21:src/../h/../h/my_console.h **** 
 844              		.loc 2 21 9
 845              	.LVL102:
 846              	.LBE62:
 847              	.LBE61:
 102:src/thread.cpp ****     pAllThreads[nrTotalThreads] = t;
 848              		.loc 1 102 5
 102:src/thread.cpp ****     pAllThreads[nrTotalThreads] = t;
 849              		.loc 1 102 51 is_stmt 0
 850 0564 97000000 		call	_ZN8MemAlloc3getEv@plt
 850      E7800000 
 851              	.LVL103:
GAS LISTING /tmp/ccClqpSj.s 			page 24


 852 056c 93050005 		li	a1,80
 853 0570 97000000 		call	_ZN8MemAlloc8allocMemEm@plt
 853      E7800000 
 854              	.LVL104:
 855 0578 93040500 		mv	s1,a0
 856              	.LVL105:
 103:src/thread.cpp **** 
 857              		.loc 1 103 5 is_stmt 1
 103:src/thread.cpp **** 
 858              		.loc 1 103 33 is_stmt 0
 859 057c 97070000 		ld	a5,.LANCHOR1
 859      83B70700 
 860 0584 13973700 		slli	a4,a5,3
 861 0588 97070000 		lla	a5,.LANCHOR0
 861      93870700 
 862 0590 B387E700 		add	a5,a5,a4
 863 0594 23B8A700 		sd	a0,16(a5)
 105:src/thread.cpp ****     void* pLogicalStack = t->allocStack();
 864              		.loc 1 105 5 is_stmt 1
 105:src/thread.cpp ****     void* pLogicalStack = t->allocStack();
 865              		.loc 1 105 20 is_stmt 0
 866 0598 233C0500 		sd	zero,24(a0)
 106:src/thread.cpp **** 
 867              		.loc 1 106 5 is_stmt 1
 106:src/thread.cpp **** 
 868              		.loc 1 106 40 is_stmt 0
 869 059c 97000000 		call	_ZN6Thread10allocStackEv
 869      E7800000 
 870              	.LVL106:
 871 05a4 93060500 		mv	a3,a0
 872              	.LVL107:
 108:src/thread.cpp **** 
 873              		.loc 1 108 5 is_stmt 1
 108:src/thread.cpp **** 
 874              		.loc 1 108 12 is_stmt 0
 875 05a8 13060A00 		mv	a2,s4
 876 05ac 93850900 		mv	a1,s3
 877 05b0 13850400 		mv	a0,s1
 878              	.LVL108:
 879 05b4 97000000 		call	_ZN6Thread4initEPFvPvES0_S0_
 879      E7800000 
 880              	.LVL109:
 110:src/thread.cpp **** 
 881              		.loc 1 110 5 is_stmt 1
 110:src/thread.cpp **** 
 882              		.loc 1 110 14 is_stmt 0
 883 05bc 83B78402 		ld	a5,40(s1)
 110:src/thread.cpp **** 
 884              		.loc 1 110 9
 885 05c0 2330F900 		sd	a5,0(s2)
 112:src/thread.cpp **** 
 886              		.loc 1 112 5 is_stmt 1
 112:src/thread.cpp **** 
 887              		.loc 1 112 19 is_stmt 0
 888 05c4 13850400 		mv	a0,s1
 889 05c8 97000000 		call	_ZN9Scheduler3putEP6Thread@plt
 889      E7800000 
GAS LISTING /tmp/ccClqpSj.s 			page 25


 890              	.LVL110:
 114:src/thread.cpp **** }
 891              		.loc 1 114 5 is_stmt 1
 115:src/thread.cpp **** 
 892              		.loc 1 115 1 is_stmt 0
 893 05d0 13050000 		li	a0,0
 894 05d4 83308102 		ld	ra,40(sp)
 895              		.cfi_remember_state
 896              		.cfi_restore 1
 897 05d8 03340102 		ld	s0,32(sp)
 898              		.cfi_restore 8
 899              		.cfi_def_cfa 2, 48
 900 05dc 83348101 		ld	s1,24(sp)
 901              		.cfi_restore 9
 902              	.LVL111:
 903 05e0 03390101 		ld	s2,16(sp)
 904              		.cfi_restore 18
 905              	.LVL112:
 906 05e4 83398100 		ld	s3,8(sp)
 907              		.cfi_restore 19
 908              	.LVL113:
 909 05e8 033A0100 		ld	s4,0(sp)
 910              		.cfi_restore 20
 911              	.LVL114:
 912 05ec 13010103 		addi	sp,sp,48
 913              		.cfi_def_cfa_offset 0
 914 05f0 67800000 		jr	ra
 915              	.LVL115:
 916              	.L41:
 917              		.cfi_restore_state
 918              	.LBB64:
 919              	.LBB63:
  23:src/../h/../h/my_console.h ****     putString(file);
 920              		.loc 2 23 5 is_stmt 1
  23:src/../h/../h/my_console.h ****     putString(file);
 921              		.loc 2 23 14 is_stmt 0
 922 05f4 17050000 		lla	a0,.LC0
 922      13050500 
 923              	.LVL116:
 924 05fc 97000000 		call	_Z9putStringPKc@plt
 924      E7800000 
 925              	.LVL117:
  24:src/../h/../h/my_console.h ****     putString("    line: ");
 926              		.loc 2 24 5 is_stmt 1
  24:src/../h/../h/my_console.h ****     putString("    line: ");
 927              		.loc 2 24 14 is_stmt 0
 928 0604 17050000 		lla	a0,.LC1
 928      13050500 
 929 060c 97000000 		call	_Z9putStringPKc@plt
 929      E7800000 
 930              	.LVL118:
  25:src/../h/../h/my_console.h ****     putInt(line);
 931              		.loc 2 25 5 is_stmt 1
  25:src/../h/../h/my_console.h ****     putInt(line);
 932              		.loc 2 25 14 is_stmt 0
 933 0614 17050000 		lla	a0,.LC2
 933      13050500 
GAS LISTING /tmp/ccClqpSj.s 			page 26


 934 061c 97000000 		call	_Z9putStringPKc@plt
 934      E7800000 
 935              	.LVL119:
  26:src/../h/../h/my_console.h ****     putString("   ===========================");
 936              		.loc 2 26 5 is_stmt 1
  26:src/../h/../h/my_console.h ****     putString("   ===========================");
 937              		.loc 2 26 11 is_stmt 0
 938 0624 13054006 		li	a0,100
 939 0628 97000000 		call	_Z6putInti@plt
 939      E7800000 
 940              	.LVL120:
  27:src/../h/../h/my_console.h ****     putNewline();
 941              		.loc 2 27 5 is_stmt 1
  27:src/../h/../h/my_console.h ****     putNewline();
 942              		.loc 2 27 14 is_stmt 0
 943 0630 17050000 		lla	a0,.LC3
 943      13050500 
 944 0638 97000000 		call	_Z9putStringPKc@plt
 944      E7800000 
 945              	.LVL121:
  28:src/../h/../h/my_console.h **** 
 946              		.loc 2 28 5 is_stmt 1
  28:src/../h/../h/my_console.h **** 
 947              		.loc 2 28 15 is_stmt 0
 948 0640 97000000 		call	_Z10putNewlinev@plt
 948      E7800000 
 949              	.LVL122:
 950              		.loc 2 30 5 is_stmt 1
 951              		.loc 2 30 15 is_stmt 0
 952 0648 97000000 		call	_Z10stopKernelv@plt
 952      E7800000 
 953              	.LVL123:
 954              	.LBE63:
 955              	.LBE64:
 956              		.cfi_endproc
 957              	.LFE18:
 959              		.section	.rodata.str1.8
 960 0067 00       		.align	3
 961              	.LC4:
 962 0068 3D3D3D20 		.string	"=== NO MORE THREADS EXIST. RETURNING TO KERNEL THREAD"
 962      4E4F204D 
 962      4F524520 
 962      54485245 
 962      41445320 
 963              		.text
 964              		.align	2
 965              		.globl	_ZN6Thread4exitEv
 967              	_ZN6Thread4exitEv:
 968              	.LFB23:
 172:src/thread.cpp **** 
 173:src/thread.cpp **** int Thread::exit()
 174:src/thread.cpp **** {
 969              		.loc 1 174 1 is_stmt 1
 970              		.cfi_startproc
 971 0650 130101FE 		addi	sp,sp,-32
 972              		.cfi_def_cfa_offset 32
 973 0654 233C1100 		sd	ra,24(sp)
GAS LISTING /tmp/ccClqpSj.s 			page 27


 974 0658 23388100 		sd	s0,16(sp)
 975 065c 23349100 		sd	s1,8(sp)
 976              		.cfi_offset 1, -8
 977              		.cfi_offset 8, -16
 978              		.cfi_offset 9, -24
 979 0660 13040102 		addi	s0,sp,32
 980              		.cfi_def_cfa 8, 0
 175:src/thread.cpp ****     Thread* t = Thread::getPRunning();
 981              		.loc 1 175 5
 982              		.loc 1 175 36 is_stmt 0
 983 0664 97000000 		call	_ZN6Thread11getPRunningEv
 983      E7800000 
 984              	.LVL124:
 176:src/thread.cpp ****     assert(t->state == RUNNING);
 985              		.loc 1 176 5 is_stmt 1
 986 066c 83270500 		lw	a5,0(a0)
 987              	.LVL125:
 988              	.LBB78:
 989              	.LBB79:
  20:src/../h/../h/my_console.h ****         return;
 990              		.loc 2 20 5
 991 0670 63940708 		bnez	a5,.L49
 992 0674 93040500 		mv	s1,a0
  21:src/../h/../h/my_console.h **** 
 993              		.loc 2 21 9
 994              	.LVL126:
 995              	.LBE79:
 996              	.LBE78:
 177:src/thread.cpp ****     assert(t->done == false);
 997              		.loc 1 177 5
 998 0678 83470504 		lbu	a5,64(a0)
 999 067c 93C71700 		xori	a5,a5,1
 1000              	.LVL127:
 1001              	.LBB81:
 1002              	.LBB82:
  20:src/../h/../h/my_console.h ****         return;
 1003              		.loc 2 20 5
 1004 0680 638A070C 		beqz	a5,.L50
  21:src/../h/../h/my_console.h **** 
 1005              		.loc 2 21 9
 1006              	.LVL128:
 1007              	.LBE82:
 1008              	.LBE81:
 178:src/thread.cpp ****     t->done = true;
 1009              		.loc 1 178 5
 1010              		.loc 1 178 13 is_stmt 0
 1011 0684 93071000 		li	a5,1
 1012 0688 2300F504 		sb	a5,64(a0)
 179:src/thread.cpp **** 
 180:src/thread.cpp ****     MemAlloc::get()->freeMem(t->pStackStart);
 1013              		.loc 1 180 5 is_stmt 1
 1014              		.loc 1 180 29 is_stmt 0
 1015 068c 97000000 		call	_ZN8MemAlloc3getEv@plt
 1015      E7800000 
 1016              	.LVL129:
 1017 0694 83B58401 		ld	a1,24(s1)
 1018 0698 97000000 		call	_ZN8MemAlloc7freeMemEPv@plt
GAS LISTING /tmp/ccClqpSj.s 			page 28


 1018      E7800000 
 1019              	.LVL130:
 181:src/thread.cpp **** 
 182:src/thread.cpp ****     t->signalDone(); // WARNING: must be in this order
 1020              		.loc 1 182 5 is_stmt 1
 1021              		.loc 1 182 18 is_stmt 0
 1022 06a0 13850400 		mv	a0,s1
 1023 06a4 97000000 		call	_ZN6Thread10signalDoneEv
 1023      E7800000 
 1024              	.LVL131:
 183:src/thread.cpp **** 
 184:src/thread.cpp ****     bool existReadyThread = !(Scheduler::get()->pHead == nullptr); // WARNING: must be after signal
 1025              		.loc 1 184 5 is_stmt 1
 1026              	.LBB84:
 1027              	.LBB85:
 1028              		.file 3 "src/../h/scheduler.h"
   1:src/../h/scheduler.h **** #pragma once
   2:src/../h/scheduler.h **** 
   3:src/../h/scheduler.h **** #include "../h/thread.h"
   4:src/../h/scheduler.h **** 
   5:src/../h/scheduler.h **** class Scheduler // singleton
   6:src/../h/scheduler.h **** {
   7:src/../h/scheduler.h **** public:
   8:src/../h/scheduler.h ****     static Scheduler* get()
   9:src/../h/scheduler.h ****     {
  10:src/../h/scheduler.h ****         static Scheduler instance;
 1029              		.loc 3 10 9
 1030              		.loc 3 10 26 is_stmt 0
 1031 06ac 97070000 		lbu	a5,_ZGVZN9Scheduler3getEvE8instance
 1031      83C70700 
 1032 06b4 639C0700 		bnez	a5,.L45
 1033              	.LVL132:
 1034              	.LBB86:
 1035              	.LBB87:
 1036              	.LBB88:
  11:src/../h/scheduler.h ****         return &instance;
  12:src/../h/scheduler.h ****     }
  13:src/../h/scheduler.h **** 
  14:src/../h/scheduler.h ****     static void dispatchToNext(); // WARNING: different than sys. call dispatch()
  15:src/../h/scheduler.h ****     static Thread* getNext();
  16:src/../h/scheduler.h ****     static void put(Thread*);
  17:src/../h/scheduler.h ****     static void printState();
  18:src/../h/scheduler.h **** 
  19:src/../h/scheduler.h ****     Thread* pHead; // points to the one that is the next to be run
  20:src/../h/scheduler.h **** 
  21:src/../h/scheduler.h **** private:
  22:src/../h/scheduler.h ****     Scheduler()
  23:src/../h/scheduler.h ****         : pHead(nullptr)
 1037              		.loc 3 23 24
 1038 06b8 97070000 		sd	zero,_ZZN9Scheduler3getEvE8instance,a5
 1038      23B00700 
 1039              	.LVL133:
 1040              	.LBE88:
 1041              	.LBE87:
 1042              	.LBE86:
  10:src/../h/scheduler.h ****         return &instance;
 1043              		.loc 3 10 26
GAS LISTING /tmp/ccClqpSj.s 			page 29


 1044 06c0 93071000 		li	a5,1
 1045 06c4 17070000 		sb	a5,_ZGVZN9Scheduler3getEvE8instance,a4
 1045      2300F700 
 1046              	.L45:
  11:src/../h/scheduler.h ****         return &instance;
 1047              		.loc 3 11 9 is_stmt 1
 1048              	.LBE85:
 1049              	.LBE84:
 1050              		.loc 1 184 49 is_stmt 0
 1051 06cc 97070000 		ld	a5,_ZZN9Scheduler3getEvE8instance
 1051      83B70700 
 1052              	.LVL134:
 185:src/thread.cpp ****     if(!existReadyThread) // TODO: add (... && !existSleepedThread && !waitingForConsoleThread), vr
 1053              		.loc 1 185 5 is_stmt 1
 1054              	.LBB89:
 1055 06d4 638E070C 		beqz	a5,.L51
 1056              	.LVL135:
 1057              	.L46:
 1058              	.LBE89:
 186:src/thread.cpp ****     {
 187:src/thread.cpp ****         putString("=== NO MORE THREADS EXIST. RETURNING TO KERNEL THREAD");
 188:src/thread.cpp ****         putNewline();
 189:src/thread.cpp **** 
 190:src/thread.cpp ****         extern Thread kernelThread;
 191:src/thread.cpp ****         assert(pAllThreads[0] == &kernelThread);
 192:src/thread.cpp ****         pAllThreads[0]->state = READY;
 193:src/thread.cpp ****         Scheduler::put(Thread::pAllThreads[0]);
 194:src/thread.cpp **** 
 195:src/thread.cpp ****         // ovo je nesto pogresno
 196:src/thread.cpp **** //        __asm__ volatile ("csrc sstatus, 0x6"); // set spie bit to 1. spie signifies that we dont
 197:src/thread.cpp **** //        __asm__ volatile ("csrc sstatus, 0x9"); // clear spp bit, so we change to user mode after
 198:src/thread.cpp ****     }
 199:src/thread.cpp **** 
 200:src/thread.cpp ****     Scheduler::dispatchToNext();
 1059              		.loc 1 200 5
 1060              		.loc 1 200 30 is_stmt 0
 1061 06d8 97000000 		call	_ZN9Scheduler14dispatchToNextEv@plt
 1061      E7800000 
 1062              	.LVL136:
 201:src/thread.cpp **** 
 202:src/thread.cpp ****     return 0;
 1063              		.loc 1 202 5 is_stmt 1
 203:src/thread.cpp **** }
 1064              		.loc 1 203 1 is_stmt 0
 1065 06e0 13050000 		li	a0,0
 1066 06e4 83308101 		ld	ra,24(sp)
 1067              		.cfi_remember_state
 1068              		.cfi_restore 1
 1069 06e8 03340101 		ld	s0,16(sp)
 1070              		.cfi_restore 8
 1071              		.cfi_def_cfa 2, 32
 1072 06ec 83348100 		ld	s1,8(sp)
 1073              		.cfi_restore 9
 1074              	.LVL137:
 1075 06f0 13010102 		addi	sp,sp,32
 1076              		.cfi_def_cfa_offset 0
 1077 06f4 67800000 		jr	ra
GAS LISTING /tmp/ccClqpSj.s 			page 30


 1078              	.LVL138:
 1079              	.L49:
 1080              		.cfi_restore_state
 1081              	.LBB96:
 1082              	.LBB80:
  23:src/../h/../h/my_console.h ****     putString(file);
 1083              		.loc 2 23 5 is_stmt 1
  23:src/../h/../h/my_console.h ****     putString(file);
 1084              		.loc 2 23 14 is_stmt 0
 1085 06f8 17050000 		lla	a0,.LC0
 1085      13050500 
 1086              	.LVL139:
 1087 0700 97000000 		call	_Z9putStringPKc@plt
 1087      E7800000 
 1088              	.LVL140:
  24:src/../h/../h/my_console.h ****     putString("    line: ");
 1089              		.loc 2 24 5 is_stmt 1
  24:src/../h/../h/my_console.h ****     putString("    line: ");
 1090              		.loc 2 24 14 is_stmt 0
 1091 0708 17050000 		lla	a0,.LC1
 1091      13050500 
 1092 0710 97000000 		call	_Z9putStringPKc@plt
 1092      E7800000 
 1093              	.LVL141:
  25:src/../h/../h/my_console.h ****     putInt(line);
 1094              		.loc 2 25 5 is_stmt 1
  25:src/../h/../h/my_console.h ****     putInt(line);
 1095              		.loc 2 25 14 is_stmt 0
 1096 0718 17050000 		lla	a0,.LC2
 1096      13050500 
 1097 0720 97000000 		call	_Z9putStringPKc@plt
 1097      E7800000 
 1098              	.LVL142:
  26:src/../h/../h/my_console.h ****     putString("   ===========================");
 1099              		.loc 2 26 5 is_stmt 1
  26:src/../h/../h/my_console.h ****     putString("   ===========================");
 1100              		.loc 2 26 11 is_stmt 0
 1101 0728 1305000B 		li	a0,176
 1102 072c 97000000 		call	_Z6putInti@plt
 1102      E7800000 
 1103              	.LVL143:
  27:src/../h/../h/my_console.h ****     putNewline();
 1104              		.loc 2 27 5 is_stmt 1
  27:src/../h/../h/my_console.h ****     putNewline();
 1105              		.loc 2 27 14 is_stmt 0
 1106 0734 17050000 		lla	a0,.LC3
 1106      13050500 
 1107 073c 97000000 		call	_Z9putStringPKc@plt
 1107      E7800000 
 1108              	.LVL144:
  28:src/../h/../h/my_console.h **** 
 1109              		.loc 2 28 5 is_stmt 1
  28:src/../h/../h/my_console.h **** 
 1110              		.loc 2 28 15 is_stmt 0
 1111 0744 97000000 		call	_Z10putNewlinev@plt
 1111      E7800000 
 1112              	.LVL145:
GAS LISTING /tmp/ccClqpSj.s 			page 31


 1113              		.loc 2 30 5 is_stmt 1
 1114              		.loc 2 30 15 is_stmt 0
 1115 074c 97000000 		call	_Z10stopKernelv@plt
 1115      E7800000 
 1116              	.LVL146:
 1117              	.L50:
 1118              	.LBE80:
 1119              	.LBE96:
 1120              	.LBB97:
 1121              	.LBB83:
  23:src/../h/../h/my_console.h ****     putString(file);
 1122              		.loc 2 23 5 is_stmt 1
  23:src/../h/../h/my_console.h ****     putString(file);
 1123              		.loc 2 23 14 is_stmt 0
 1124 0754 17050000 		lla	a0,.LC0
 1124      13050500 
 1125 075c 97000000 		call	_Z9putStringPKc@plt
 1125      E7800000 
 1126              	.LVL147:
  24:src/../h/../h/my_console.h ****     putString("    line: ");
 1127              		.loc 2 24 5 is_stmt 1
  24:src/../h/../h/my_console.h ****     putString("    line: ");
 1128              		.loc 2 24 14 is_stmt 0
 1129 0764 17050000 		lla	a0,.LC1
 1129      13050500 
 1130 076c 97000000 		call	_Z9putStringPKc@plt
 1130      E7800000 
 1131              	.LVL148:
  25:src/../h/../h/my_console.h ****     putInt(line);
 1132              		.loc 2 25 5 is_stmt 1
  25:src/../h/../h/my_console.h ****     putInt(line);
 1133              		.loc 2 25 14 is_stmt 0
 1134 0774 17050000 		lla	a0,.LC2
 1134      13050500 
 1135 077c 97000000 		call	_Z9putStringPKc@plt
 1135      E7800000 
 1136              	.LVL149:
  26:src/../h/../h/my_console.h ****     putString("   ===========================");
 1137              		.loc 2 26 5 is_stmt 1
  26:src/../h/../h/my_console.h ****     putString("   ===========================");
 1138              		.loc 2 26 11 is_stmt 0
 1139 0784 1305100B 		li	a0,177
 1140 0788 97000000 		call	_Z6putInti@plt
 1140      E7800000 
 1141              	.LVL150:
  27:src/../h/../h/my_console.h ****     putNewline();
 1142              		.loc 2 27 5 is_stmt 1
  27:src/../h/../h/my_console.h ****     putNewline();
 1143              		.loc 2 27 14 is_stmt 0
 1144 0790 17050000 		lla	a0,.LC3
 1144      13050500 
 1145 0798 97000000 		call	_Z9putStringPKc@plt
 1145      E7800000 
 1146              	.LVL151:
  28:src/../h/../h/my_console.h **** 
 1147              		.loc 2 28 5 is_stmt 1
  28:src/../h/../h/my_console.h **** 
GAS LISTING /tmp/ccClqpSj.s 			page 32


 1148              		.loc 2 28 15 is_stmt 0
 1149 07a0 97000000 		call	_Z10putNewlinev@plt
 1149      E7800000 
 1150              	.LVL152:
 1151              		.loc 2 30 5 is_stmt 1
 1152              		.loc 2 30 15 is_stmt 0
 1153 07a8 97000000 		call	_Z10stopKernelv@plt
 1153      E7800000 
 1154              	.LVL153:
 1155              	.L51:
 1156              	.LBE83:
 1157              	.LBE97:
 1158              	.LBB98:
 1159              	.LBB90:
 187:src/thread.cpp ****         putNewline();
 1160              		.loc 1 187 9 is_stmt 1
 187:src/thread.cpp ****         putNewline();
 1161              		.loc 1 187 18 is_stmt 0
 1162 07b0 17050000 		lla	a0,.LC4
 1162      13050500 
 1163 07b8 97000000 		call	_Z9putStringPKc@plt
 1163      E7800000 
 1164              	.LVL154:
 188:src/thread.cpp **** 
 1165              		.loc 1 188 9 is_stmt 1
 188:src/thread.cpp **** 
 1166              		.loc 1 188 19 is_stmt 0
 1167 07c0 97000000 		call	_Z10putNewlinev@plt
 1167      E7800000 
 1168              	.LVL155:
 190:src/thread.cpp ****         assert(pAllThreads[0] == &kernelThread);
 1169              		.loc 1 190 9 is_stmt 1
 191:src/thread.cpp ****         pAllThreads[0]->state = READY;
 1170              		.loc 1 191 9
 1171 07c8 17070000 		ld	a4,.LANCHOR0+16
 1171      03370700 
 1172 07d0 97070000 		la	a5,kernelThread
 1172      83B70700 
 1173              	.LVL156:
 1174              	.LBB91:
 1175              	.LBB92:
  20:src/../h/../h/my_console.h ****         return;
 1176              		.loc 2 20 5
 1177 07d8 6314F702 		bne	a4,a5,.L52
  21:src/../h/../h/my_console.h **** 
 1178              		.loc 2 21 9
 1179              	.LVL157:
 1180              	.LBE92:
 1181              	.LBE91:
 192:src/thread.cpp ****         Scheduler::put(Thread::pAllThreads[0]);
 1182              		.loc 1 192 9
 192:src/thread.cpp ****         Scheduler::put(Thread::pAllThreads[0]);
 1183              		.loc 1 192 22 is_stmt 0
 1184 07dc 97070000 		lla	a5,.LANCHOR0
 1184      93870700 
 1185 07e4 03B70701 		ld	a4,16(a5)
 192:src/thread.cpp ****         Scheduler::put(Thread::pAllThreads[0]);
GAS LISTING /tmp/ccClqpSj.s 			page 33


 1186              		.loc 1 192 31
 1187 07e8 93062000 		li	a3,2
 1188 07ec 2320D700 		sw	a3,0(a4)
 193:src/thread.cpp **** 
 1189              		.loc 1 193 9 is_stmt 1
 193:src/thread.cpp **** 
 1190              		.loc 1 193 23 is_stmt 0
 1191 07f0 03B50701 		ld	a0,16(a5)
 1192 07f4 97000000 		call	_ZN9Scheduler3putEP6Thread@plt
 1192      E7800000 
 1193              	.LVL158:
 1194              	.LBE90:
 1195 07fc 6FF0DFED 		j	.L46
 1196              	.LVL159:
 1197              	.L52:
 1198              	.LBB95:
 1199              	.LBB94:
 1200              	.LBB93:
  23:src/../h/../h/my_console.h ****     putString(file);
 1201              		.loc 2 23 5 is_stmt 1
  23:src/../h/../h/my_console.h ****     putString(file);
 1202              		.loc 2 23 14 is_stmt 0
 1203 0800 17050000 		lla	a0,.LC0
 1203      13050500 
 1204 0808 97000000 		call	_Z9putStringPKc@plt
 1204      E7800000 
 1205              	.LVL160:
  24:src/../h/../h/my_console.h ****     putString("    line: ");
 1206              		.loc 2 24 5 is_stmt 1
  24:src/../h/../h/my_console.h ****     putString("    line: ");
 1207              		.loc 2 24 14 is_stmt 0
 1208 0810 17050000 		lla	a0,.LC1
 1208      13050500 
 1209 0818 97000000 		call	_Z9putStringPKc@plt
 1209      E7800000 
 1210              	.LVL161:
  25:src/../h/../h/my_console.h ****     putInt(line);
 1211              		.loc 2 25 5 is_stmt 1
  25:src/../h/../h/my_console.h ****     putInt(line);
 1212              		.loc 2 25 14 is_stmt 0
 1213 0820 17050000 		lla	a0,.LC2
 1213      13050500 
 1214 0828 97000000 		call	_Z9putStringPKc@plt
 1214      E7800000 
 1215              	.LVL162:
  26:src/../h/../h/my_console.h ****     putString("   ===========================");
 1216              		.loc 2 26 5 is_stmt 1
  26:src/../h/../h/my_console.h ****     putString("   ===========================");
 1217              		.loc 2 26 11 is_stmt 0
 1218 0830 1305F00B 		li	a0,191
 1219 0834 97000000 		call	_Z6putInti@plt
 1219      E7800000 
 1220              	.LVL163:
  27:src/../h/../h/my_console.h ****     putNewline();
 1221              		.loc 2 27 5 is_stmt 1
  27:src/../h/../h/my_console.h ****     putNewline();
 1222              		.loc 2 27 14 is_stmt 0
GAS LISTING /tmp/ccClqpSj.s 			page 34


 1223 083c 17050000 		lla	a0,.LC3
 1223      13050500 
 1224 0844 97000000 		call	_Z9putStringPKc@plt
 1224      E7800000 
 1225              	.LVL164:
  28:src/../h/../h/my_console.h **** 
 1226              		.loc 2 28 5 is_stmt 1
  28:src/../h/../h/my_console.h **** 
 1227              		.loc 2 28 15 is_stmt 0
 1228 084c 97000000 		call	_Z10putNewlinev@plt
 1228      E7800000 
 1229              	.LVL165:
 1230              		.loc 2 30 5 is_stmt 1
 1231              		.loc 2 30 15 is_stmt 0
 1232 0854 97000000 		call	_Z10stopKernelv@plt
 1232      E7800000 
 1233              	.LVL166:
 1234              	.LBE93:
 1235              	.LBE94:
 1236              	.LBE95:
 1237              	.LBE98:
 1238              		.cfi_endproc
 1239              	.LFE23:
 1241              		.globl	_ZN6Thread22initialUserMemoryUsageE
 1242              		.globl	_ZN6Thread11pAllThreadsE
 1243              		.globl	_ZN6Thread14nrTotalThreadsE
 1244              		.globl	_ZN6Thread20switchedToUserThreadE
 1245              		.globl	_ZN6Thread16timeSliceCounterE
 1246              		.globl	_ZN6Thread10pRunningSpE
 1247              		.globl	_ZN6Thread8pRunningE
 1248              		.weak	_ZGVZN9Scheduler3getEvE8instance
 1249              		.section	.bss._ZGVZN9Scheduler3getEvE8instance,"awG",@nobits,_ZGVZN9Scheduler3getEvE8instance,comd
 1250              		.align	3
 1253              	_ZGVZN9Scheduler3getEvE8instance:
 1254 0000 00000000 		.zero	8
 1254      00000000 
 1255              		.weak	_ZZN9Scheduler3getEvE8instance
 1256              		.section	.bss._ZZN9Scheduler3getEvE8instance,"awG",@nobits,_ZZN9Scheduler3getEvE8instance,comdat
 1257              		.align	3
 1260              	_ZZN9Scheduler3getEvE8instance:
 1261 0000 00000000 		.zero	8
 1261      00000000 
 1262              		.data
 1263              		.align	3
 1264              		.set	.LANCHOR1,. + 0
 1267              	_ZN6Thread14nrTotalThreadsE:
 1268 0000 01000000 		.dword	1
 1268      00000000 
 1269              		.bss
 1270              		.align	3
 1271              		.set	.LANCHOR0,. + 0
 1274              	_ZN6Thread8pRunningE:
 1275 0000 00000000 		.zero	8
 1275      00000000 
 1278              	_ZN6Thread10pRunningSpE:
 1279 0008 00000000 		.zero	8
 1279      00000000 
GAS LISTING /tmp/ccClqpSj.s 			page 35


 1282              	_ZN6Thread11pAllThreadsE:
 1283 0010 00000000 		.zero	800
 1283      00000000 
 1283      00000000 
 1283      00000000 
 1283      00000000 
 1286              	_ZN6Thread22initialUserMemoryUsageE:
 1287 0330 00000000 		.zero	8
 1287      00000000 
 1290              	_ZN6Thread20switchedToUserThreadE:
 1291 0338 00       		.zero	1
 1292 0339 00000000 		.zero	7
 1292      000000
 1295              	_ZN6Thread16timeSliceCounterE:
 1296 0340 00000000 		.zero	8
 1296      00000000 
 1297              		.text
 1298              	.Letext0:
 1299              		.file 4 "src/../h/../lib/hw.h"
 1300              		.file 5 "src/../h/thread.h"
 1301              		.file 6 "src/../h/alloc.h"
 1302              		.file 7 "src/../h/../h/c_api.h"
GAS LISTING /tmp/ccClqpSj.s 			page 36


DEFINED SYMBOLS
                            *ABS*:0000000000000000 thread.cpp
     /tmp/ccClqpSj.s:9      .text:0000000000000000 _Z7wrappermPFvPvES_
     /tmp/ccClqpSj.s:13     .text:0000000000000000 .L0 
     /tmp/ccClqpSj.s:15     .text:0000000000000000 .L0 
     /tmp/ccClqpSj.s:16     .text:0000000000000004 .L0 
     /tmp/ccClqpSj.s:19     .text:000000000000000c .L0 
     /tmp/ccClqpSj.s:20     .text:000000000000000c .L0 
     /tmp/ccClqpSj.s:22     .text:0000000000000010 .L0 
     /tmp/ccClqpSj.s:24     .text:0000000000000010 .L0 
     /tmp/ccClqpSj.s:25     .text:0000000000000010 .L0 
     /tmp/ccClqpSj.s:30     .text:0000000000000018 .L0 
     /tmp/ccClqpSj.s:31     .text:0000000000000018 .L0 
     /tmp/ccClqpSj.s:34     .text:0000000000000020 .L0 
     /tmp/ccClqpSj.s:35     .text:0000000000000024 .L0 
     /tmp/ccClqpSj.s:37     .text:0000000000000028 .L0 
     /tmp/ccClqpSj.s:38     .text:0000000000000028 .L0 
     /tmp/ccClqpSj.s:40     .text:000000000000002c .L0 
     /tmp/ccClqpSj.s:42     .text:0000000000000030 .L0 
     /tmp/ccClqpSj.s:48     .text:0000000000000030 _ZN6Thread10signalDoneEv
     /tmp/ccClqpSj.s:51     .text:0000000000000030 .L0 
     /tmp/ccClqpSj.s:53     .text:0000000000000030 .L0 
     /tmp/ccClqpSj.s:54     .text:0000000000000034 .L0 
     /tmp/ccClqpSj.s:58     .text:0000000000000040 .L0 
     /tmp/ccClqpSj.s:59     .text:0000000000000040 .L0 
     /tmp/ccClqpSj.s:60     .text:0000000000000040 .L0 
     /tmp/ccClqpSj.s:62     .text:0000000000000044 .L0 
     /tmp/ccClqpSj.s:64     .text:0000000000000044 .L0 
     /tmp/ccClqpSj.s:65     .text:0000000000000044 .L0 
     /tmp/ccClqpSj.s:69     .text:0000000000000048 .L0 
     /tmp/ccClqpSj.s:70     .text:0000000000000048 .L0 
     /tmp/ccClqpSj.s:72     .text:000000000000004c .L0 
     /tmp/ccClqpSj.s:73     .text:000000000000004c .L0 
     /tmp/ccClqpSj.s:76     .text:0000000000000054 .L0 
     /tmp/ccClqpSj.s:77     .text:0000000000000054 .L0 
     /tmp/ccClqpSj.s:81     .text:0000000000000060 .L0 
     /tmp/ccClqpSj.s:82     .text:0000000000000060 .L0 
     /tmp/ccClqpSj.s:85     .text:0000000000000064 .L0 
     /tmp/ccClqpSj.s:88     .text:0000000000000068 .L0 
     /tmp/ccClqpSj.s:89     .text:000000000000006c .L0 
     /tmp/ccClqpSj.s:91     .text:0000000000000070 .L0 
     /tmp/ccClqpSj.s:92     .text:0000000000000070 .L0 
     /tmp/ccClqpSj.s:94     .text:0000000000000074 .L0 
     /tmp/ccClqpSj.s:97     .text:0000000000000078 .L0 
     /tmp/ccClqpSj.s:99     .text:000000000000007c .L0 
     /tmp/ccClqpSj.s:105    .text:000000000000007c _ZN6Thread11setPRunningEPS_
     /tmp/ccClqpSj.s:108    .text:000000000000007c .L0 
     /tmp/ccClqpSj.s:110    .text:000000000000007c .L0 
     /tmp/ccClqpSj.s:111    .text:0000000000000080 .L0 
     /tmp/ccClqpSj.s:113    .text:0000000000000084 .L0 
     /tmp/ccClqpSj.s:115    .text:0000000000000088 .L0 
     /tmp/ccClqpSj.s:117    .text:0000000000000088 .L0 
     /tmp/ccClqpSj.s:118    .text:0000000000000088 .L0 
     /tmp/ccClqpSj.s:121    .text:0000000000000094 .L0 
     /tmp/ccClqpSj.s:122    .text:0000000000000094 .L0 
     /tmp/ccClqpSj.s:125    .text:0000000000000098 .L0 
     /tmp/ccClqpSj.s:127    .text:000000000000009c .L0 
GAS LISTING /tmp/ccClqpSj.s 			page 37


     /tmp/ccClqpSj.s:128    .text:00000000000000a0 .L0 
     /tmp/ccClqpSj.s:129    .text:00000000000000a0 .L0 
     /tmp/ccClqpSj.s:131    .text:00000000000000a4 .L0 
     /tmp/ccClqpSj.s:133    .text:00000000000000a8 .L0 
     /tmp/ccClqpSj.s:139    .text:00000000000000a8 _ZN6Thread11getPRunningEv
     /tmp/ccClqpSj.s:142    .text:00000000000000a8 .L0 
     /tmp/ccClqpSj.s:143    .text:00000000000000a8 .L0 
     /tmp/ccClqpSj.s:144    .text:00000000000000ac .L0 
     /tmp/ccClqpSj.s:146    .text:00000000000000b0 .L0 
     /tmp/ccClqpSj.s:148    .text:00000000000000b4 .L0 
     /tmp/ccClqpSj.s:150    .text:00000000000000b4 .L0 
      src/thread.cpp:119    .text:00000000000000b4 .L0 
     /tmp/ccClqpSj.s:156    .text:00000000000000b8 .L0 
     /tmp/ccClqpSj.s:158    .text:00000000000000b8 .L0 
     /tmp/ccClqpSj.s:160    .text:00000000000000c4 .L0 
     /tmp/ccClqpSj.s:161    .text:00000000000000c4 .L0 
     /tmp/ccClqpSj.s:163    .text:00000000000000c8 .L0 
     /tmp/ccClqpSj.s:165    .text:00000000000000cc .L0 
     /tmp/ccClqpSj.s:185    .text:00000000000000cc _ZN6Thread4joinEm
     /tmp/ccClqpSj.s:188    .text:00000000000000cc .L0 
     /tmp/ccClqpSj.s:190    .text:00000000000000cc .L0 
     /tmp/ccClqpSj.s:191    .text:00000000000000d0 .L0 
     /tmp/ccClqpSj.s:195    .text:00000000000000dc .L0 
     /tmp/ccClqpSj.s:196    .text:00000000000000dc .L0 
     /tmp/ccClqpSj.s:197    .text:00000000000000dc .L0 
     /tmp/ccClqpSj.s:199    .text:00000000000000e0 .L0 
     /tmp/ccClqpSj.s:202    .text:00000000000000e4 .L0 
     /tmp/ccClqpSj.s:203    .text:00000000000000e4 .L0 
     /tmp/ccClqpSj.s:206    .text:00000000000000ec .L0 
     /tmp/ccClqpSj.s:207    .text:00000000000000ec .L0 
     /tmp/ccClqpSj.s:214    .text:0000000000000100 .L0 
     /tmp/ccClqpSj.s:215    .text:0000000000000100 .L0 
     /tmp/ccClqpSj.s:221    .text:0000000000000108 .L0 
     /tmp/ccClqpSj.s:226    .text:000000000000010c .L0 
     /tmp/ccClqpSj.s:227    .text:000000000000010c .L0 
     /tmp/ccClqpSj.s:228    .text:000000000000010c .L0 
     /tmp/ccClqpSj.s:230    .text:0000000000000110 .L0 
     /tmp/ccClqpSj.s:233    .text:0000000000000114 .L0 
     /tmp/ccClqpSj.s:234    .text:0000000000000114 .L0 
     /tmp/ccClqpSj.s:236    .text:0000000000000118 .L0 
     /tmp/ccClqpSj.s:241    .text:000000000000011c .L0 
     /tmp/ccClqpSj.s:242    .text:000000000000011c .L0 
     /tmp/ccClqpSj.s:247    .text:0000000000000128 .L0 
     /tmp/ccClqpSj.s:248    .text:0000000000000128 .L0 
     /tmp/ccClqpSj.s:254    .text:000000000000012c .L0 
     /tmp/ccClqpSj.s:255    .text:000000000000012c .L0 
     /tmp/ccClqpSj.s:257    .text:0000000000000130 .L0 
     /tmp/ccClqpSj.s:258    .text:0000000000000130 .L0 
     /tmp/ccClqpSj.s:261    .text:0000000000000138 .L0 
     /tmp/ccClqpSj.s:262    .text:0000000000000138 .L0 
     /tmp/ccClqpSj.s:266    .text:0000000000000140 .L0 
     /tmp/ccClqpSj.s:267    .text:0000000000000144 .L0 
     /tmp/ccClqpSj.s:268    .text:0000000000000144 .L0 
     /tmp/ccClqpSj.s:270    .text:0000000000000148 .L0 
     /tmp/ccClqpSj.s:271    .text:0000000000000148 .L0 
     /tmp/ccClqpSj.s:273    .text:000000000000014c .L0 
     /tmp/ccClqpSj.s:275    .text:0000000000000150 .L0 
GAS LISTING /tmp/ccClqpSj.s 			page 38


     /tmp/ccClqpSj.s:279    .text:0000000000000154 .L0 
     /tmp/ccClqpSj.s:283    .text:0000000000000154 .L0 
     /tmp/ccClqpSj.s:284    .text:0000000000000154 .L0 
     /tmp/ccClqpSj.s:289    .text:0000000000000164 .L0 
     /tmp/ccClqpSj.s:290    .text:0000000000000164 .L0 
     /tmp/ccClqpSj.s:294    .text:0000000000000174 .L0 
     /tmp/ccClqpSj.s:295    .text:0000000000000174 .L0 
     /tmp/ccClqpSj.s:299    .text:0000000000000184 .L0 
     /tmp/ccClqpSj.s:300    .text:0000000000000184 .L0 
     /tmp/ccClqpSj.s:304    .text:0000000000000190 .L0 
     /tmp/ccClqpSj.s:305    .text:0000000000000190 .L0 
     /tmp/ccClqpSj.s:309    .text:00000000000001a0 .L0 
     /tmp/ccClqpSj.s:310    .text:00000000000001a0 .L0 
     /tmp/ccClqpSj.s:313    .text:00000000000001a8 .L0 
     /tmp/ccClqpSj.s:314    .text:00000000000001a8 .L0 
     /tmp/ccClqpSj.s:321    .text:00000000000001b0 .L0 
     /tmp/ccClqpSj.s:322    .text:00000000000001b0 .L0 
     /tmp/ccClqpSj.s:325    .text:00000000000001b8 .L0 
     /tmp/ccClqpSj.s:331    .text:00000000000001b8 _ZN6Thread12switchToUserEv
     /tmp/ccClqpSj.s:334    .text:00000000000001b8 .L0 
     /tmp/ccClqpSj.s:335    .text:00000000000001b8 .L0 
     /tmp/ccClqpSj.s:336    .text:00000000000001bc .L0 
     /tmp/ccClqpSj.s:339    .text:00000000000001c4 .L0 
     /tmp/ccClqpSj.s:340    .text:00000000000001c4 .L0 
     /tmp/ccClqpSj.s:342    .text:00000000000001c8 .L0 
     /tmp/ccClqpSj.s:344    .text:00000000000001c8 .L0 
     /tmp/ccClqpSj.s:345    .text:00000000000001c8 .L0 
      src/thread.cpp:65     .text:00000000000001c8 .L0 
     /tmp/ccClqpSj.s:352    .text:00000000000001cc .L0 
     /tmp/ccClqpSj.s:354    .text:00000000000001cc .L0 
     /tmp/ccClqpSj.s:357    .text:00000000000001d0 .L0 
     /tmp/ccClqpSj.s:359    .text:00000000000001d4 .L0 
     /tmp/ccClqpSj.s:366    .text:00000000000001e0 .L0 
     /tmp/ccClqpSj.s:371    .text:00000000000001e4 .L0 
     /tmp/ccClqpSj.s:372    .text:00000000000001e4 .L0 
     /tmp/ccClqpSj.s:373    .text:00000000000001e4 .L0 
     /tmp/ccClqpSj.s:376    .text:00000000000001ec .L0 
     /tmp/ccClqpSj.s:384    .text:00000000000001fc .L0 
     /tmp/ccClqpSj.s:388    .text:0000000000000200 .L0 
     /tmp/ccClqpSj.s:389    .text:0000000000000204 .L0 
     /tmp/ccClqpSj.s:390    .text:0000000000000204 .L0 
     /tmp/ccClqpSj.s:392    .text:0000000000000208 .L0 
     /tmp/ccClqpSj.s:393    .text:0000000000000208 .L0 
     /tmp/ccClqpSj.s:395    .text:000000000000020c .L0 
     /tmp/ccClqpSj.s:399    .text:0000000000000210 .L0 
     /tmp/ccClqpSj.s:403    .text:0000000000000210 .L0 
     /tmp/ccClqpSj.s:404    .text:0000000000000210 .L0 
     /tmp/ccClqpSj.s:405    .text:0000000000000210 .L0 
     /tmp/ccClqpSj.s:406    .text:0000000000000210 .L0 
     /tmp/ccClqpSj.s:410    .text:0000000000000220 .L0 
     /tmp/ccClqpSj.s:411    .text:0000000000000220 .L0 
     /tmp/ccClqpSj.s:415    .text:0000000000000230 .L0 
     /tmp/ccClqpSj.s:416    .text:0000000000000230 .L0 
     /tmp/ccClqpSj.s:420    .text:0000000000000240 .L0 
     /tmp/ccClqpSj.s:421    .text:0000000000000240 .L0 
     /tmp/ccClqpSj.s:425    .text:000000000000024c .L0 
     /tmp/ccClqpSj.s:426    .text:000000000000024c .L0 
GAS LISTING /tmp/ccClqpSj.s 			page 39


     /tmp/ccClqpSj.s:430    .text:000000000000025c .L0 
     /tmp/ccClqpSj.s:431    .text:000000000000025c .L0 
     /tmp/ccClqpSj.s:434    .text:0000000000000264 .L0 
     /tmp/ccClqpSj.s:435    .text:0000000000000264 .L0 
     /tmp/ccClqpSj.s:443    .text:000000000000026c .L0 
     /tmp/ccClqpSj.s:444    .text:000000000000026c .L0 
     /tmp/ccClqpSj.s:448    .text:000000000000027c .L0 
     /tmp/ccClqpSj.s:449    .text:000000000000027c .L0 
     /tmp/ccClqpSj.s:453    .text:000000000000028c .L0 
     /tmp/ccClqpSj.s:454    .text:000000000000028c .L0 
     /tmp/ccClqpSj.s:458    .text:000000000000029c .L0 
     /tmp/ccClqpSj.s:459    .text:000000000000029c .L0 
     /tmp/ccClqpSj.s:463    .text:00000000000002a8 .L0 
     /tmp/ccClqpSj.s:464    .text:00000000000002a8 .L0 
     /tmp/ccClqpSj.s:468    .text:00000000000002b8 .L0 
     /tmp/ccClqpSj.s:469    .text:00000000000002b8 .L0 
     /tmp/ccClqpSj.s:472    .text:00000000000002c0 .L0 
     /tmp/ccClqpSj.s:473    .text:00000000000002c0 .L0 
     /tmp/ccClqpSj.s:481    .text:00000000000002c8 .L0 
     /tmp/ccClqpSj.s:482    .text:00000000000002c8 .L0 
     /tmp/ccClqpSj.s:486    .text:00000000000002d8 .L0 
     /tmp/ccClqpSj.s:487    .text:00000000000002d8 .L0 
     /tmp/ccClqpSj.s:491    .text:00000000000002e8 .L0 
     /tmp/ccClqpSj.s:492    .text:00000000000002e8 .L0 
     /tmp/ccClqpSj.s:496    .text:00000000000002f8 .L0 
     /tmp/ccClqpSj.s:497    .text:00000000000002f8 .L0 
     /tmp/ccClqpSj.s:501    .text:0000000000000304 .L0 
     /tmp/ccClqpSj.s:502    .text:0000000000000304 .L0 
     /tmp/ccClqpSj.s:506    .text:0000000000000314 .L0 
     /tmp/ccClqpSj.s:507    .text:0000000000000314 .L0 
     /tmp/ccClqpSj.s:510    .text:000000000000031c .L0 
     /tmp/ccClqpSj.s:511    .text:000000000000031c .L0 
     /tmp/ccClqpSj.s:515    .text:0000000000000324 .L0 
     /tmp/ccClqpSj.s:521    .text:0000000000000324 _ZN6Thread10allocStackEv
     /tmp/ccClqpSj.s:524    .text:0000000000000324 .L0 
     /tmp/ccClqpSj.s:526    .text:0000000000000324 .L0 
     /tmp/ccClqpSj.s:527    .text:0000000000000328 .L0 
     /tmp/ccClqpSj.s:532    .text:0000000000000338 .L0 
     /tmp/ccClqpSj.s:533    .text:0000000000000338 .L0 
     /tmp/ccClqpSj.s:534    .text:0000000000000338 .L0 
     /tmp/ccClqpSj.s:535    .text:0000000000000338 .L0 
     /tmp/ccClqpSj.s:537    .text:000000000000033c .L0 
     /tmp/ccClqpSj.s:539    .text:000000000000033c .L0 
     /tmp/ccClqpSj.s:544    .text:0000000000000340 .L0 
     /tmp/ccClqpSj.s:550    .text:0000000000000348 .L0 
     /tmp/ccClqpSj.s:551    .text:0000000000000348 .L0 
     /tmp/ccClqpSj.s:552    .text:0000000000000348 .L0 
     /tmp/ccClqpSj.s:559    .text:0000000000000360 .L0 
     /tmp/ccClqpSj.s:561    .text:0000000000000364 .L0 
     /tmp/ccClqpSj.s:562    .text:0000000000000364 .L0 
     /tmp/ccClqpSj.s:566    .text:000000000000036c .L0 
     /tmp/ccClqpSj.s:567    .text:000000000000036c .L0 
     /tmp/ccClqpSj.s:569    .text:0000000000000370 .L0 
     /tmp/ccClqpSj.s:571    .text:0000000000000374 .L0 
     /tmp/ccClqpSj.s:572    .text:0000000000000374 .L0 
     /tmp/ccClqpSj.s:576    .text:0000000000000378 .L0 
     /tmp/ccClqpSj.s:577    .text:0000000000000378 .L0 
GAS LISTING /tmp/ccClqpSj.s 			page 40


     /tmp/ccClqpSj.s:578    .text:0000000000000378 .L0 
     /tmp/ccClqpSj.s:581    .text:0000000000000380 .L0 
     /tmp/ccClqpSj.s:582    .text:0000000000000380 .L0 
     /tmp/ccClqpSj.s:584    .text:0000000000000384 .L0 
     /tmp/ccClqpSj.s:585    .text:0000000000000384 .L0 
     /tmp/ccClqpSj.s:587    .text:0000000000000388 .L0 
     /tmp/ccClqpSj.s:589    .text:000000000000038c .L0 
     /tmp/ccClqpSj.s:592    .text:0000000000000390 .L0 
     /tmp/ccClqpSj.s:596    .text:0000000000000394 .L0 
     /tmp/ccClqpSj.s:600    .text:0000000000000394 .L0 
     /tmp/ccClqpSj.s:601    .text:0000000000000394 .L0 
     /tmp/ccClqpSj.s:606    .text:00000000000003a4 .L0 
     /tmp/ccClqpSj.s:607    .text:00000000000003a4 .L0 
     /tmp/ccClqpSj.s:611    .text:00000000000003b4 .L0 
     /tmp/ccClqpSj.s:612    .text:00000000000003b4 .L0 
     /tmp/ccClqpSj.s:616    .text:00000000000003c4 .L0 
     /tmp/ccClqpSj.s:617    .text:00000000000003c4 .L0 
     /tmp/ccClqpSj.s:621    .text:00000000000003d0 .L0 
     /tmp/ccClqpSj.s:622    .text:00000000000003d0 .L0 
     /tmp/ccClqpSj.s:626    .text:00000000000003e0 .L0 
     /tmp/ccClqpSj.s:627    .text:00000000000003e0 .L0 
     /tmp/ccClqpSj.s:630    .text:00000000000003e8 .L0 
     /tmp/ccClqpSj.s:631    .text:00000000000003e8 .L0 
     /tmp/ccClqpSj.s:635    .text:00000000000003f0 .L0 
     /tmp/ccClqpSj.s:641    .text:00000000000003f0 _ZN6Thread4initEPFvPvES0_S0_
     /tmp/ccClqpSj.s:644    .text:00000000000003f0 .L0 
     /tmp/ccClqpSj.s:646    .text:00000000000003f0 .L0 
     /tmp/ccClqpSj.s:647    .text:00000000000003f4 .L0 
     /tmp/ccClqpSj.s:650    .text:00000000000003fc .L0 
     /tmp/ccClqpSj.s:651    .text:00000000000003fc .L0 
     /tmp/ccClqpSj.s:653    .text:0000000000000400 .L0 
     /tmp/ccClqpSj.s:655    .text:0000000000000400 .L0 
     /tmp/ccClqpSj.s:661    .text:000000000000040c .L0 
     /tmp/ccClqpSj.s:666    .text:0000000000000410 .L0 
     /tmp/ccClqpSj.s:667    .text:0000000000000410 .L0 
     /tmp/ccClqpSj.s:668    .text:0000000000000410 .L0 
     /tmp/ccClqpSj.s:672    .text:0000000000000420 .L0 
     /tmp/ccClqpSj.s:673    .text:0000000000000420 .L0 
     /tmp/ccClqpSj.s:676    .text:0000000000000428 .L0 
     /tmp/ccClqpSj.s:681    .text:000000000000042c .L0 
     /tmp/ccClqpSj.s:686    .text:0000000000000430 .L0 
     /tmp/ccClqpSj.s:687    .text:0000000000000430 .L0 
     /tmp/ccClqpSj.s:688    .text:0000000000000430 .L0 
     /tmp/ccClqpSj.s:689    .text:0000000000000430 .L0 
     /tmp/ccClqpSj.s:692    .text:0000000000000438 .L0 
     /tmp/ccClqpSj.s:693    .text:0000000000000438 .L0 
     /tmp/ccClqpSj.s:695    .text:000000000000043c .L0 
     /tmp/ccClqpSj.s:696    .text:000000000000043c .L0 
     /tmp/ccClqpSj.s:698    .text:0000000000000440 .L0 
     /tmp/ccClqpSj.s:699    .text:0000000000000440 .L0 
     /tmp/ccClqpSj.s:701    .text:0000000000000444 .L0 
     /tmp/ccClqpSj.s:702    .text:0000000000000444 .L0 
     /tmp/ccClqpSj.s:704    .text:0000000000000448 .L0 
     /tmp/ccClqpSj.s:705    .text:0000000000000448 .L0 
     /tmp/ccClqpSj.s:707    .text:000000000000044c .L0 
     /tmp/ccClqpSj.s:708    .text:000000000000044c .L0 
     /tmp/ccClqpSj.s:710    .text:0000000000000450 .L0 
GAS LISTING /tmp/ccClqpSj.s 			page 41


     /tmp/ccClqpSj.s:711    .text:0000000000000450 .L0 
     /tmp/ccClqpSj.s:714    .text:000000000000045c .L0 
     /tmp/ccClqpSj.s:715    .text:000000000000045c .L0 
     /tmp/ccClqpSj.s:717    .text:0000000000000460 .L0 
     /tmp/ccClqpSj.s:718    .text:0000000000000464 .L0 
     /tmp/ccClqpSj.s:719    .text:0000000000000464 .L0 
     /tmp/ccClqpSj.s:721    .text:0000000000000468 .L0 
     /tmp/ccClqpSj.s:722    .text:0000000000000468 .L0 
     /tmp/ccClqpSj.s:724    .text:000000000000046c .L0 
     /tmp/ccClqpSj.s:728    .text:0000000000000470 .L0 
     /tmp/ccClqpSj.s:732    .text:0000000000000470 .L0 
     /tmp/ccClqpSj.s:733    .text:0000000000000470 .L0 
     /tmp/ccClqpSj.s:738    .text:0000000000000480 .L0 
     /tmp/ccClqpSj.s:739    .text:0000000000000480 .L0 
     /tmp/ccClqpSj.s:743    .text:0000000000000490 .L0 
     /tmp/ccClqpSj.s:744    .text:0000000000000490 .L0 
     /tmp/ccClqpSj.s:748    .text:00000000000004a0 .L0 
     /tmp/ccClqpSj.s:749    .text:00000000000004a0 .L0 
     /tmp/ccClqpSj.s:753    .text:00000000000004ac .L0 
     /tmp/ccClqpSj.s:754    .text:00000000000004ac .L0 
     /tmp/ccClqpSj.s:758    .text:00000000000004bc .L0 
     /tmp/ccClqpSj.s:759    .text:00000000000004bc .L0 
     /tmp/ccClqpSj.s:762    .text:00000000000004c4 .L0 
     /tmp/ccClqpSj.s:763    .text:00000000000004c4 .L0 
     /tmp/ccClqpSj.s:771    .text:00000000000004cc .L0 
     /tmp/ccClqpSj.s:772    .text:00000000000004cc .L0 
     /tmp/ccClqpSj.s:777    .text:00000000000004dc .L0 
     /tmp/ccClqpSj.s:778    .text:00000000000004dc .L0 
     /tmp/ccClqpSj.s:782    .text:00000000000004ec .L0 
     /tmp/ccClqpSj.s:783    .text:00000000000004ec .L0 
     /tmp/ccClqpSj.s:787    .text:00000000000004fc .L0 
     /tmp/ccClqpSj.s:788    .text:00000000000004fc .L0 
     /tmp/ccClqpSj.s:792    .text:0000000000000508 .L0 
     /tmp/ccClqpSj.s:793    .text:0000000000000508 .L0 
     /tmp/ccClqpSj.s:797    .text:0000000000000518 .L0 
     /tmp/ccClqpSj.s:798    .text:0000000000000518 .L0 
     /tmp/ccClqpSj.s:801    .text:0000000000000520 .L0 
     /tmp/ccClqpSj.s:802    .text:0000000000000520 .L0 
     /tmp/ccClqpSj.s:806    .text:0000000000000528 .L0 
     /tmp/ccClqpSj.s:812    .text:0000000000000528 _ZN6Thread12createThreadEPmPFvPvES1_
     /tmp/ccClqpSj.s:815    .text:0000000000000528 .L0 
     /tmp/ccClqpSj.s:817    .text:0000000000000528 .L0 
     /tmp/ccClqpSj.s:818    .text:000000000000052c .L0 
     /tmp/ccClqpSj.s:825    .text:0000000000000544 .L0 
     /tmp/ccClqpSj.s:826    .text:0000000000000544 .L0 
     /tmp/ccClqpSj.s:827    .text:0000000000000544 .L0 
     /tmp/ccClqpSj.s:828    .text:0000000000000544 .L0 
     /tmp/ccClqpSj.s:829    .text:0000000000000544 .L0 
     /tmp/ccClqpSj.s:830    .text:0000000000000544 .L0 
     /tmp/ccClqpSj.s:832    .text:0000000000000548 .L0 
     /tmp/ccClqpSj.s:834    .text:0000000000000548 .L0 
     /tmp/ccClqpSj.s:840    .text:0000000000000554 .L0 
     /tmp/ccClqpSj.s:848    .text:0000000000000564 .L0 
     /tmp/ccClqpSj.s:849    .text:0000000000000564 .L0 
     /tmp/ccClqpSj.s:850    .text:0000000000000564 .L0 
     /tmp/ccClqpSj.s:858    .text:000000000000057c .L0 
     /tmp/ccClqpSj.s:859    .text:000000000000057c .L0 
GAS LISTING /tmp/ccClqpSj.s 			page 42


     /tmp/ccClqpSj.s:865    .text:0000000000000598 .L0 
     /tmp/ccClqpSj.s:866    .text:0000000000000598 .L0 
     /tmp/ccClqpSj.s:868    .text:000000000000059c .L0 
     /tmp/ccClqpSj.s:869    .text:000000000000059c .L0 
     /tmp/ccClqpSj.s:874    .text:00000000000005a8 .L0 
     /tmp/ccClqpSj.s:875    .text:00000000000005a8 .L0 
     /tmp/ccClqpSj.s:882    .text:00000000000005bc .L0 
     /tmp/ccClqpSj.s:883    .text:00000000000005bc .L0 
     /tmp/ccClqpSj.s:885    .text:00000000000005c0 .L0 
     /tmp/ccClqpSj.s:887    .text:00000000000005c4 .L0 
     /tmp/ccClqpSj.s:888    .text:00000000000005c4 .L0 
     /tmp/ccClqpSj.s:892    .text:00000000000005d0 .L0 
     /tmp/ccClqpSj.s:893    .text:00000000000005d0 .L0 
     /tmp/ccClqpSj.s:895    .text:00000000000005d8 .L0 
     /tmp/ccClqpSj.s:896    .text:00000000000005d8 .L0 
     /tmp/ccClqpSj.s:898    .text:00000000000005dc .L0 
     /tmp/ccClqpSj.s:899    .text:00000000000005dc .L0 
     /tmp/ccClqpSj.s:901    .text:00000000000005e0 .L0 
     /tmp/ccClqpSj.s:904    .text:00000000000005e4 .L0 
     /tmp/ccClqpSj.s:907    .text:00000000000005e8 .L0 
     /tmp/ccClqpSj.s:910    .text:00000000000005ec .L0 
     /tmp/ccClqpSj.s:913    .text:00000000000005f0 .L0 
     /tmp/ccClqpSj.s:917    .text:00000000000005f4 .L0 
     /tmp/ccClqpSj.s:921    .text:00000000000005f4 .L0 
     /tmp/ccClqpSj.s:922    .text:00000000000005f4 .L0 
     /tmp/ccClqpSj.s:927    .text:0000000000000604 .L0 
     /tmp/ccClqpSj.s:928    .text:0000000000000604 .L0 
     /tmp/ccClqpSj.s:932    .text:0000000000000614 .L0 
     /tmp/ccClqpSj.s:933    .text:0000000000000614 .L0 
     /tmp/ccClqpSj.s:937    .text:0000000000000624 .L0 
     /tmp/ccClqpSj.s:938    .text:0000000000000624 .L0 
     /tmp/ccClqpSj.s:942    .text:0000000000000630 .L0 
     /tmp/ccClqpSj.s:943    .text:0000000000000630 .L0 
     /tmp/ccClqpSj.s:947    .text:0000000000000640 .L0 
     /tmp/ccClqpSj.s:948    .text:0000000000000640 .L0 
     /tmp/ccClqpSj.s:951    .text:0000000000000648 .L0 
     /tmp/ccClqpSj.s:952    .text:0000000000000648 .L0 
     /tmp/ccClqpSj.s:956    .text:0000000000000650 .L0 
     /tmp/ccClqpSj.s:967    .text:0000000000000650 _ZN6Thread4exitEv
     /tmp/ccClqpSj.s:970    .text:0000000000000650 .L0 
     /tmp/ccClqpSj.s:971    .text:0000000000000650 .L0 
     /tmp/ccClqpSj.s:972    .text:0000000000000654 .L0 
     /tmp/ccClqpSj.s:976    .text:0000000000000660 .L0 
     /tmp/ccClqpSj.s:977    .text:0000000000000660 .L0 
     /tmp/ccClqpSj.s:978    .text:0000000000000660 .L0 
     /tmp/ccClqpSj.s:980    .text:0000000000000664 .L0 
     /tmp/ccClqpSj.s:982    .text:0000000000000664 .L0 
     /tmp/ccClqpSj.s:983    .text:0000000000000664 .L0 
     /tmp/ccClqpSj.s:986    .text:000000000000066c .L0 
     /tmp/ccClqpSj.s:991    .text:0000000000000670 .L0 
     /tmp/ccClqpSj.s:997    .text:0000000000000678 .L0 
     /tmp/ccClqpSj.s:998    .text:0000000000000678 .L0 
     /tmp/ccClqpSj.s:1004   .text:0000000000000680 .L0 
     /tmp/ccClqpSj.s:1009   .text:0000000000000684 .L0 
     /tmp/ccClqpSj.s:1010   .text:0000000000000684 .L0 
     /tmp/ccClqpSj.s:1011   .text:0000000000000684 .L0 
     /tmp/ccClqpSj.s:1014   .text:000000000000068c .L0 
GAS LISTING /tmp/ccClqpSj.s 			page 43


     /tmp/ccClqpSj.s:1015   .text:000000000000068c .L0 
     /tmp/ccClqpSj.s:1021   .text:00000000000006a0 .L0 
     /tmp/ccClqpSj.s:1022   .text:00000000000006a0 .L0 
     /tmp/ccClqpSj.s:1029   .text:00000000000006ac .L0 
     /tmp/ccClqpSj.s:1030   .text:00000000000006ac .L0 
     /tmp/ccClqpSj.s:1253   .bss._ZGVZN9Scheduler3getEvE8instance:0000000000000000 _ZGVZN9Scheduler3getEvE8instance
     /tmp/ccClqpSj.s:1031   .text:00000000000006ac .L0 
     /tmp/ccClqpSj.s:1260   .bss._ZZN9Scheduler3getEvE8instance:0000000000000000 _ZZN9Scheduler3getEvE8instance
     /tmp/ccClqpSj.s:1038   .text:00000000000006b8 .L0 
     /tmp/ccClqpSj.s:1044   .text:00000000000006c0 .L0 
     /tmp/ccClqpSj.s:1050   .text:00000000000006cc .L0 
     /tmp/ccClqpSj.s:1051   .text:00000000000006cc .L0 
     /tmp/ccClqpSj.s:1055   .text:00000000000006d4 .L0 
     /tmp/ccClqpSj.s:1060   .text:00000000000006d8 .L0 
     /tmp/ccClqpSj.s:1061   .text:00000000000006d8 .L0 
     /tmp/ccClqpSj.s:1064   .text:00000000000006e0 .L0 
     /tmp/ccClqpSj.s:1065   .text:00000000000006e0 .L0 
     /tmp/ccClqpSj.s:1067   .text:00000000000006e8 .L0 
     /tmp/ccClqpSj.s:1068   .text:00000000000006e8 .L0 
     /tmp/ccClqpSj.s:1070   .text:00000000000006ec .L0 
     /tmp/ccClqpSj.s:1071   .text:00000000000006ec .L0 
     /tmp/ccClqpSj.s:1073   .text:00000000000006f0 .L0 
     /tmp/ccClqpSj.s:1076   .text:00000000000006f4 .L0 
     /tmp/ccClqpSj.s:1080   .text:00000000000006f8 .L0 
     /tmp/ccClqpSj.s:1084   .text:00000000000006f8 .L0 
     /tmp/ccClqpSj.s:1085   .text:00000000000006f8 .L0 
     /tmp/ccClqpSj.s:1090   .text:0000000000000708 .L0 
     /tmp/ccClqpSj.s:1091   .text:0000000000000708 .L0 
     /tmp/ccClqpSj.s:1095   .text:0000000000000718 .L0 
     /tmp/ccClqpSj.s:1096   .text:0000000000000718 .L0 
     /tmp/ccClqpSj.s:1100   .text:0000000000000728 .L0 
     /tmp/ccClqpSj.s:1101   .text:0000000000000728 .L0 
     /tmp/ccClqpSj.s:1105   .text:0000000000000734 .L0 
     /tmp/ccClqpSj.s:1106   .text:0000000000000734 .L0 
     /tmp/ccClqpSj.s:1110   .text:0000000000000744 .L0 
     /tmp/ccClqpSj.s:1111   .text:0000000000000744 .L0 
     /tmp/ccClqpSj.s:1114   .text:000000000000074c .L0 
     /tmp/ccClqpSj.s:1115   .text:000000000000074c .L0 
     /tmp/ccClqpSj.s:1123   .text:0000000000000754 .L0 
     /tmp/ccClqpSj.s:1124   .text:0000000000000754 .L0 
     /tmp/ccClqpSj.s:1128   .text:0000000000000764 .L0 
     /tmp/ccClqpSj.s:1129   .text:0000000000000764 .L0 
     /tmp/ccClqpSj.s:1133   .text:0000000000000774 .L0 
     /tmp/ccClqpSj.s:1134   .text:0000000000000774 .L0 
     /tmp/ccClqpSj.s:1138   .text:0000000000000784 .L0 
     /tmp/ccClqpSj.s:1139   .text:0000000000000784 .L0 
     /tmp/ccClqpSj.s:1143   .text:0000000000000790 .L0 
     /tmp/ccClqpSj.s:1144   .text:0000000000000790 .L0 
     /tmp/ccClqpSj.s:1148   .text:00000000000007a0 .L0 
     /tmp/ccClqpSj.s:1149   .text:00000000000007a0 .L0 
     /tmp/ccClqpSj.s:1152   .text:00000000000007a8 .L0 
     /tmp/ccClqpSj.s:1153   .text:00000000000007a8 .L0 
     /tmp/ccClqpSj.s:1161   .text:00000000000007b0 .L0 
     /tmp/ccClqpSj.s:1162   .text:00000000000007b0 .L0 
     /tmp/ccClqpSj.s:1166   .text:00000000000007c0 .L0 
     /tmp/ccClqpSj.s:1167   .text:00000000000007c0 .L0 
     /tmp/ccClqpSj.s:1170   .text:00000000000007c8 .L0 
GAS LISTING /tmp/ccClqpSj.s 			page 44


     /tmp/ccClqpSj.s:1171   .text:00000000000007c8 .L0 
     /tmp/ccClqpSj.s:1177   .text:00000000000007d8 .L0 
     /tmp/ccClqpSj.s:1182   .text:00000000000007dc .L0 
     /tmp/ccClqpSj.s:1183   .text:00000000000007dc .L0 
     /tmp/ccClqpSj.s:1184   .text:00000000000007dc .L0 
     /tmp/ccClqpSj.s:1187   .text:00000000000007e8 .L0 
     /tmp/ccClqpSj.s:1190   .text:00000000000007f0 .L0 
     /tmp/ccClqpSj.s:1191   .text:00000000000007f0 .L0 
     /tmp/ccClqpSj.s:1202   .text:0000000000000800 .L0 
     /tmp/ccClqpSj.s:1203   .text:0000000000000800 .L0 
     /tmp/ccClqpSj.s:1207   .text:0000000000000810 .L0 
     /tmp/ccClqpSj.s:1208   .text:0000000000000810 .L0 
     /tmp/ccClqpSj.s:1212   .text:0000000000000820 .L0 
     /tmp/ccClqpSj.s:1213   .text:0000000000000820 .L0 
     /tmp/ccClqpSj.s:1217   .text:0000000000000830 .L0 
     /tmp/ccClqpSj.s:1218   .text:0000000000000830 .L0 
     /tmp/ccClqpSj.s:1222   .text:000000000000083c .L0 
     /tmp/ccClqpSj.s:1223   .text:000000000000083c .L0 
     /tmp/ccClqpSj.s:1227   .text:000000000000084c .L0 
     /tmp/ccClqpSj.s:1228   .text:000000000000084c .L0 
     /tmp/ccClqpSj.s:1231   .text:0000000000000854 .L0 
     /tmp/ccClqpSj.s:1232   .text:0000000000000854 .L0 
     /tmp/ccClqpSj.s:1238   .text:000000000000085c .L0 
     /tmp/ccClqpSj.s:1286   .bss:0000000000000330 _ZN6Thread22initialUserMemoryUsageE
     /tmp/ccClqpSj.s:1282   .bss:0000000000000010 _ZN6Thread11pAllThreadsE
     /tmp/ccClqpSj.s:1267   .data:0000000000000000 _ZN6Thread14nrTotalThreadsE
     /tmp/ccClqpSj.s:1290   .bss:0000000000000338 _ZN6Thread20switchedToUserThreadE
     /tmp/ccClqpSj.s:1295   .bss:0000000000000340 _ZN6Thread16timeSliceCounterE
     /tmp/ccClqpSj.s:1278   .bss:0000000000000008 _ZN6Thread10pRunningSpE
     /tmp/ccClqpSj.s:1274   .bss:0000000000000000 _ZN6Thread8pRunningE
     /tmp/ccClqpSj.s:1264   .data:0000000000000000 .LANCHOR1
     /tmp/ccClqpSj.s:1271   .bss:0000000000000000 .LANCHOR0
     /tmp/ccClqpSj.s:1303   .text:000000000000085c .L0 
     /tmp/ccClqpSj.s:118    .text:0000000000000088 .L0 
     /tmp/ccClqpSj.s:158    .text:00000000000000b8 .L0 
     /tmp/ccClqpSj.s:209    .text:00000000000000f0 .L0 
     /tmp/ccClqpSj.s:215    .text:0000000000000100 .L0 
     /tmp/ccClqpSj.s:170    .rodata.str1.8:0000000000000000 .LC0
     /tmp/ccClqpSj.s:284    .text:0000000000000154 .L0 
     /tmp/ccClqpSj.s:173    .rodata.str1.8:0000000000000028 .LC1
     /tmp/ccClqpSj.s:290    .text:0000000000000164 .L0 
     /tmp/ccClqpSj.s:176    .rodata.str1.8:0000000000000038 .LC2
     /tmp/ccClqpSj.s:295    .text:0000000000000174 .L0 
     /tmp/ccClqpSj.s:179    .rodata.str1.8:0000000000000048 .LC3
     /tmp/ccClqpSj.s:305    .text:0000000000000190 .L0 
     /tmp/ccClqpSj.s:359    .text:00000000000001d4 .L0 
     /tmp/ccClqpSj.s:406    .text:0000000000000210 .L0 
     /tmp/ccClqpSj.s:411    .text:0000000000000220 .L0 
     /tmp/ccClqpSj.s:416    .text:0000000000000230 .L0 
     /tmp/ccClqpSj.s:426    .text:000000000000024c .L0 
     /tmp/ccClqpSj.s:444    .text:000000000000026c .L0 
     /tmp/ccClqpSj.s:449    .text:000000000000027c .L0 
     /tmp/ccClqpSj.s:454    .text:000000000000028c .L0 
     /tmp/ccClqpSj.s:464    .text:00000000000002a8 .L0 
     /tmp/ccClqpSj.s:482    .text:00000000000002c8 .L0 
     /tmp/ccClqpSj.s:487    .text:00000000000002d8 .L0 
     /tmp/ccClqpSj.s:492    .text:00000000000002e8 .L0 
GAS LISTING /tmp/ccClqpSj.s 			page 45


     /tmp/ccClqpSj.s:502    .text:0000000000000304 .L0 
     /tmp/ccClqpSj.s:601    .text:0000000000000394 .L0 
     /tmp/ccClqpSj.s:607    .text:00000000000003a4 .L0 
     /tmp/ccClqpSj.s:612    .text:00000000000003b4 .L0 
     /tmp/ccClqpSj.s:622    .text:00000000000003d0 .L0 
     /tmp/ccClqpSj.s:655    .text:0000000000000400 .L0 
     /tmp/ccClqpSj.s:668    .text:0000000000000410 .L0 
     /tmp/ccClqpSj.s:711    .text:0000000000000450 .L0 
     /tmp/ccClqpSj.s:733    .text:0000000000000470 .L0 
     /tmp/ccClqpSj.s:739    .text:0000000000000480 .L0 
     /tmp/ccClqpSj.s:744    .text:0000000000000490 .L0 
     /tmp/ccClqpSj.s:754    .text:00000000000004ac .L0 
     /tmp/ccClqpSj.s:772    .text:00000000000004cc .L0 
     /tmp/ccClqpSj.s:778    .text:00000000000004dc .L0 
     /tmp/ccClqpSj.s:783    .text:00000000000004ec .L0 
     /tmp/ccClqpSj.s:793    .text:0000000000000508 .L0 
     /tmp/ccClqpSj.s:834    .text:0000000000000548 .L0 
     /tmp/ccClqpSj.s:859    .text:000000000000057c .L0 
     /tmp/ccClqpSj.s:861    .text:0000000000000588 .L0 
     /tmp/ccClqpSj.s:922    .text:00000000000005f4 .L0 
     /tmp/ccClqpSj.s:928    .text:0000000000000604 .L0 
     /tmp/ccClqpSj.s:933    .text:0000000000000614 .L0 
     /tmp/ccClqpSj.s:943    .text:0000000000000630 .L0 
     /tmp/ccClqpSj.s:1031   .text:00000000000006ac .L0 
     /tmp/ccClqpSj.s:1038   .text:00000000000006b8 .L0 
     /tmp/ccClqpSj.s:1045   .text:00000000000006c4 .L0 
     /tmp/ccClqpSj.s:1051   .text:00000000000006cc .L0 
     /tmp/ccClqpSj.s:1085   .text:00000000000006f8 .L0 
     /tmp/ccClqpSj.s:1091   .text:0000000000000708 .L0 
     /tmp/ccClqpSj.s:1096   .text:0000000000000718 .L0 
     /tmp/ccClqpSj.s:1106   .text:0000000000000734 .L0 
     /tmp/ccClqpSj.s:1124   .text:0000000000000754 .L0 
     /tmp/ccClqpSj.s:1129   .text:0000000000000764 .L0 
     /tmp/ccClqpSj.s:1134   .text:0000000000000774 .L0 
     /tmp/ccClqpSj.s:1144   .text:0000000000000790 .L0 
     /tmp/ccClqpSj.s:961    .rodata.str1.8:0000000000000068 .LC4
     /tmp/ccClqpSj.s:1162   .text:00000000000007b0 .L0 
     /tmp/ccClqpSj.s:1171   .text:00000000000007c8 .L0 
     /tmp/ccClqpSj.s:1172   .text:00000000000007d0 .L0 
     /tmp/ccClqpSj.s:1184   .text:00000000000007dc .L0 
     /tmp/ccClqpSj.s:1203   .text:0000000000000800 .L0 
     /tmp/ccClqpSj.s:1208   .text:0000000000000810 .L0 
     /tmp/ccClqpSj.s:1213   .text:0000000000000820 .L0 
     /tmp/ccClqpSj.s:1223   .text:000000000000083c .L0 
     /tmp/ccClqpSj.s:86     .text:0000000000000068 .L3
     /tmp/ccClqpSj.s:67     .text:0000000000000048 .L5
     /tmp/ccClqpSj.s:278    .text:0000000000000154 .L17
     /tmp/ccClqpSj.s:264    .text:0000000000000140 .L11
     /tmp/ccClqpSj.s:316    .text:00000000000001b0 .L18
     /tmp/ccClqpSj.s:238    .text:000000000000011c .L14
     /tmp/ccClqpSj.s:250    .text:000000000000012c .L15
     /tmp/ccClqpSj.s:398    .text:0000000000000210 .L24
     /tmp/ccClqpSj.s:437    .text:000000000000026c .L25
     /tmp/ccClqpSj.s:475    .text:00000000000002c8 .L26
     /tmp/ccClqpSj.s:595    .text:0000000000000394 .L31
     /tmp/ccClqpSj.s:574    .text:0000000000000378 .L29
     /tmp/ccClqpSj.s:727    .text:0000000000000470 .L36
GAS LISTING /tmp/ccClqpSj.s 			page 46


     /tmp/ccClqpSj.s:765    .text:00000000000004cc .L37
     /tmp/ccClqpSj.s:916    .text:00000000000005f4 .L41
     /tmp/ccClqpSj.s:1079   .text:00000000000006f8 .L49
     /tmp/ccClqpSj.s:1117   .text:0000000000000754 .L50
     /tmp/ccClqpSj.s:1046   .text:00000000000006cc .L45
     /tmp/ccClqpSj.s:1155   .text:00000000000007b0 .L51
     /tmp/ccClqpSj.s:1197   .text:0000000000000800 .L52
     /tmp/ccClqpSj.s:1057   .text:00000000000006d8 .L46
     /tmp/ccClqpSj.s:3566   .debug_abbrev:0000000000000000 .Ldebug_abbrev0
     /tmp/ccClqpSj.s:5998   .debug_str:00000000000006a5 .LASF126
     /tmp/ccClqpSj.s:5802   .debug_str:00000000000000ee .LASF127
     /tmp/ccClqpSj.s:5950   .debug_str:0000000000000549 .LASF128
     /tmp/ccClqpSj.s:5      .text:0000000000000000 .Ltext0
     /tmp/ccClqpSj.s:1298   .text:000000000000085c .Letext0
     /tmp/ccClqpSj.s:5772   .debug_line:0000000000000000 .Ldebug_line0
     /tmp/ccClqpSj.s:5904   .debug_str:00000000000003f0 .LASF0
     /tmp/ccClqpSj.s:5922   .debug_str:0000000000000481 .LASF1
     /tmp/ccClqpSj.s:5886   .debug_str:0000000000000367 .LASF2
     /tmp/ccClqpSj.s:5858   .debug_str:00000000000002ae .LASF4
     /tmp/ccClqpSj.s:5974   .debug_str:00000000000005f1 .LASF3
     /tmp/ccClqpSj.s:5798   .debug_str:00000000000000d7 .LASF5
     /tmp/ccClqpSj.s:5926   .debug_str:0000000000000499 .LASF6
     /tmp/ccClqpSj.s:5902   .debug_str:00000000000003dd .LASF7
     /tmp/ccClqpSj.s:6012   .debug_str:00000000000007c5 .LASF8
     /tmp/ccClqpSj.s:5842   .debug_str:000000000000023e .LASF9
     /tmp/ccClqpSj.s:5944   .debug_str:00000000000004ff .LASF10
     /tmp/ccClqpSj.s:6000   .debug_str:0000000000000769 .LASF11
     /tmp/ccClqpSj.s:5800   .debug_str:00000000000000de .LASF12
     /tmp/ccClqpSj.s:5784   .debug_str:0000000000000080 .LASF13
     /tmp/ccClqpSj.s:5810   .debug_str:000000000000013d .LASF14
     /tmp/ccClqpSj.s:5968   .debug_str:00000000000005cb .LASF15
     /tmp/ccClqpSj.s:5822   .debug_str:000000000000018a .LASF16
     /tmp/ccClqpSj.s:6004   .debug_str:000000000000078b .LASF46
     /tmp/ccClqpSj.s:5846   .debug_str:0000000000000252 .LASF129
     /tmp/ccClqpSj.s:5936   .debug_str:00000000000004db .LASF17
     /tmp/ccClqpSj.s:5894   .debug_str:0000000000000390 .LASF18
     /tmp/ccClqpSj.s:5942   .debug_str:00000000000004f9 .LASF19
     /tmp/ccClqpSj.s:5892   .debug_str:0000000000000383 .LASF20
     /tmp/ccClqpSj.s:5878   .debug_str:0000000000000326 .LASF21
     /tmp/ccClqpSj.s:5934   .debug_str:00000000000004cf .LASF22
     /tmp/ccClqpSj.s:5918   .debug_str:000000000000045b .LASF23
     /tmp/ccClqpSj.s:5994   .debug_str:000000000000068e .LASF24
     /tmp/ccClqpSj.s:5976   .debug_str:0000000000000603 .LASF25
     /tmp/ccClqpSj.s:5856   .debug_str:00000000000002a2 .LASF26
     /tmp/ccClqpSj.s:5834   .debug_str:00000000000001fe .LASF27
     /tmp/ccClqpSj.s:5776   .debug_str:0000000000000006 .LASF28
     /tmp/ccClqpSj.s:5996   .debug_str:0000000000000699 .LASF29
     /tmp/ccClqpSj.s:5824   .debug_str:00000000000001a0 .LASF31
     /tmp/ccClqpSj.s:5940   .debug_str:00000000000004ed .LASF33
     /tmp/ccClqpSj.s:5962   .debug_str:0000000000000598 .LASF35
     /tmp/ccClqpSj.s:5868   .debug_str:00000000000002d5 .LASF45
     /tmp/ccClqpSj.s:5780   .debug_str:000000000000003a .LASF47
     /tmp/ccClqpSj.s:5960   .debug_str:0000000000000593 .LASF130
     /tmp/ccClqpSj.s:5880   .debug_str:0000000000000332 .LASF30
     /tmp/ccClqpSj.s:5796   .debug_str:00000000000000c5 .LASF32
     /tmp/ccClqpSj.s:6042   .debug_str:00000000000008ae .LASF82
     /tmp/ccClqpSj.s:5906   .debug_str:00000000000003fd .LASF84
GAS LISTING /tmp/ccClqpSj.s 			page 47


     /tmp/ccClqpSj.s:5978   .debug_str:0000000000000614 .LASF34
     /tmp/ccClqpSj.s:5790   .debug_str:00000000000000a2 .LASF36
     /tmp/ccClqpSj.s:5792   .debug_str:00000000000000b4 .LASF37
     /tmp/ccClqpSj.s:5862   .debug_str:00000000000002c0 .LASF38
     /tmp/ccClqpSj.s:5912   .debug_str:000000000000042a .LASF39
     /tmp/ccClqpSj.s:6040   .debug_str:00000000000008a2 .LASF40
     /tmp/ccClqpSj.s:5914   .debug_str:000000000000042f .LASF41
     /tmp/ccClqpSj.s:5844   .debug_str:000000000000024c .LASF42
     /tmp/ccClqpSj.s:6020   .debug_str:0000000000000814 .LASF43
     /tmp/ccClqpSj.s:5890   .debug_str:000000000000037e .LASF44
     /tmp/ccClqpSj.s:5948   .debug_str:0000000000000532 .LASF48
     /tmp/ccClqpSj.s:5964   .debug_str:00000000000005b4 .LASF49
     /tmp/ccClqpSj.s:5932   .debug_str:00000000000004ca .LASF50
     /tmp/ccClqpSj.s:5870   .debug_str:00000000000002e2 .LASF51
     /tmp/ccClqpSj.s:5786   .debug_str:0000000000000090 .LASF66
     /tmp/ccClqpSj.s:5838   .debug_str:0000000000000212 .LASF68
     /tmp/ccClqpSj.s:5828   .debug_str:00000000000001c7 .LASF52
     /tmp/ccClqpSj.s:5990   .debug_str:0000000000000670 .LASF53
     /tmp/ccClqpSj.s:5980   .debug_str:0000000000000619 .LASF54
     /tmp/ccClqpSj.s:5908   .debug_str:0000000000000418 .LASF55
     /tmp/ccClqpSj.s:5836   .debug_str:000000000000020d .LASF56
     /tmp/ccClqpSj.s:5888   .debug_str:0000000000000375 .LASF57
     /tmp/ccClqpSj.s:5840   .debug_str:000000000000022b .LASF80
     /tmp/ccClqpSj.s:5984   .debug_str:0000000000000643 .LASF61
     /tmp/ccClqpSj.s:5992   .debug_str:0000000000000689 .LASF58
     /tmp/ccClqpSj.s:6026   .debug_str:000000000000083f .LASF59
     /tmp/ccClqpSj.s:5778   .debug_str:000000000000001d .LASF63
     /tmp/ccClqpSj.s:5900   .debug_str:00000000000003d3 .LASF60
     /tmp/ccClqpSj.s:5854   .debug_str:0000000000000298 .LASF62
     /tmp/ccClqpSj.s:5882   .debug_str:0000000000000337 .LASF64
     /tmp/ccClqpSj.s:6014   .debug_str:00000000000007d5 .LASF65
     /tmp/ccClqpSj.s:6024   .debug_str:0000000000000836 .LASF67
     /tmp/ccClqpSj.s:5806   .debug_str:000000000000010d .LASF69
     /tmp/ccClqpSj.s:5866   .debug_str:00000000000002cd .LASF70
     /tmp/ccClqpSj.s:5848   .debug_str:0000000000000258 .LASF71
     /tmp/ccClqpSj.s:6006   .debug_str:0000000000000792 .LASF72
     /tmp/ccClqpSj.s:5782   .debug_str:000000000000005f .LASF73
     /tmp/ccClqpSj.s:6030   .debug_str:000000000000084e .LASF74
     /tmp/ccClqpSj.s:6032   .debug_str:0000000000000861 .LASF75
     /tmp/ccClqpSj.s:5876   .debug_str:0000000000000318 .LASF76
     /tmp/ccClqpSj.s:5920   .debug_str:0000000000000470 .LASF77
     /tmp/ccClqpSj.s:5930   .debug_str:00000000000004c5 .LASF78
     /tmp/ccClqpSj.s:5938   .debug_str:00000000000004e3 .LASF79
     /tmp/ccClqpSj.s:5850   .debug_str:0000000000000270 .LASF81
     /tmp/ccClqpSj.s:5952   .debug_str:000000000000055d .LASF83
     /tmp/ccClqpSj.s:5812   .debug_str:0000000000000149 .LASF85
     /tmp/ccClqpSj.s:5864   .debug_str:00000000000002c5 .LASF86
     /tmp/ccClqpSj.s:5808   .debug_str:0000000000000125 .LASF87
     /tmp/ccClqpSj.s:5898   .debug_str:00000000000003b8 .LASF131
     /tmp/ccClqpSj.s:5794   .debug_str:00000000000000ba .LASF88
     /tmp/ccClqpSj.s:5986   .debug_str:000000000000064c .LASF89
     /tmp/ccClqpSj.s:5814   .debug_str:0000000000000169 .LASF90
     /tmp/ccClqpSj.s:5884   .debug_str:0000000000000355 .LASF91
     /tmp/ccClqpSj.s:6022   .debug_str:0000000000000821 .LASF92
     /tmp/ccClqpSj.s:6018   .debug_str:00000000000007fc .LASF93
     /tmp/ccClqpSj.s:5896   .debug_str:000000000000039a .LASF94
     /tmp/ccClqpSj.s:5916   .debug_str:0000000000000439 .LASF95
GAS LISTING /tmp/ccClqpSj.s 			page 48


     /tmp/ccClqpSj.s:6016   .debug_str:00000000000007e0 .LASF96
     /tmp/ccClqpSj.s:5928   .debug_str:00000000000004ac .LASF97
     /tmp/ccClqpSj.s:5946   .debug_str:000000000000050e .LASF98
     /tmp/ccClqpSj.s:968    .text:0000000000000650 .LFB23
     /tmp/ccClqpSj.s:1239   .text:000000000000085c .LFE23
     /tmp/ccClqpSj.s:4681   .debug_loc:0000000000000000 .LLST47
     /tmp/ccClqpSj.s:6008   .debug_str:00000000000007a3 .LASF99
     /tmp/ccClqpSj.s:4700   .debug_loc:000000000000005c .LLST48
     /tmp/ccClqpSj.s:5704   .debug_ranges:0000000000000000 .Ldebug_ranges0
     /tmp/ccClqpSj.s:5832   .debug_str:00000000000001f1 .LASF100
     /tmp/ccClqpSj.s:1174   .text:00000000000007d8 .LBB91
     /tmp/ccClqpSj.s:4719   .debug_loc:000000000000009a .LLST56
     /tmp/ccClqpSj.s:4734   .debug_loc:00000000000000d4 .LLST57
     /tmp/ccClqpSj.s:4749   .debug_loc:000000000000011c .LLST58
     /tmp/ccClqpSj.s:1205   .text:0000000000000810 .LVL160
     /tmp/ccClqpSj.s:1210   .text:0000000000000820 .LVL161
     /tmp/ccClqpSj.s:1215   .text:0000000000000830 .LVL162
     /tmp/ccClqpSj.s:1220   .text:000000000000083c .LVL163
     /tmp/ccClqpSj.s:1225   .text:000000000000084c .LVL164
     /tmp/ccClqpSj.s:1229   .text:0000000000000854 .LVL165
     /tmp/ccClqpSj.s:1233   .text:000000000000085c .LVL166
     /tmp/ccClqpSj.s:1164   .text:00000000000007c0 .LVL154
     /tmp/ccClqpSj.s:1168   .text:00000000000007c8 .LVL155
     /tmp/ccClqpSj.s:1193   .text:00000000000007fc .LVL158
     /tmp/ccClqpSj.s:988    .text:0000000000000670 .LBB78
     /tmp/ccClqpSj.s:4774   .debug_loc:0000000000000160 .LLST49
     /tmp/ccClqpSj.s:4789   .debug_loc:000000000000019a .LLST50
     /tmp/ccClqpSj.s:4804   .debug_loc:00000000000001e2 .LLST51
     /tmp/ccClqpSj.s:1088   .text:0000000000000708 .LVL140
     /tmp/ccClqpSj.s:1093   .text:0000000000000718 .LVL141
     /tmp/ccClqpSj.s:1098   .text:0000000000000728 .LVL142
     /tmp/ccClqpSj.s:1103   .text:0000000000000734 .LVL143
     /tmp/ccClqpSj.s:1108   .text:0000000000000744 .LVL144
     /tmp/ccClqpSj.s:1112   .text:000000000000074c .LVL145
     /tmp/ccClqpSj.s:1116   .text:0000000000000754 .LVL146
     /tmp/ccClqpSj.s:1001   .text:0000000000000680 .LBB81
     /tmp/ccClqpSj.s:4823   .debug_loc:0000000000000220 .LLST52
     /tmp/ccClqpSj.s:4838   .debug_loc:000000000000025a .LLST53
     /tmp/ccClqpSj.s:4853   .debug_loc:00000000000002a2 .LLST54
     /tmp/ccClqpSj.s:1126   .text:0000000000000764 .LVL147
     /tmp/ccClqpSj.s:1131   .text:0000000000000774 .LVL148
     /tmp/ccClqpSj.s:1136   .text:0000000000000784 .LVL149
     /tmp/ccClqpSj.s:1141   .text:0000000000000790 .LVL150
     /tmp/ccClqpSj.s:1146   .text:00000000000007a0 .LVL151
     /tmp/ccClqpSj.s:1150   .text:00000000000007a8 .LVL152
     /tmp/ccClqpSj.s:1154   .text:00000000000007b0 .LVL153
     /tmp/ccClqpSj.s:1026   .text:00000000000006ac .LBB84
     /tmp/ccClqpSj.s:1049   .text:00000000000006cc .LBE84
     /tmp/ccClqpSj.s:1034   .text:00000000000006b8 .LBB86
     /tmp/ccClqpSj.s:1042   .text:00000000000006c0 .LBE86
     /tmp/ccClqpSj.s:4864   .debug_loc:00000000000002d8 .LLST55
     /tmp/ccClqpSj.s:984    .text:000000000000066c .LVL124
     /tmp/ccClqpSj.s:1016   .text:0000000000000694 .LVL129
     /tmp/ccClqpSj.s:1019   .text:00000000000006a0 .LVL130
     /tmp/ccClqpSj.s:1024   .text:00000000000006ac .LVL131
     /tmp/ccClqpSj.s:1062   .text:00000000000006e0 .LVL136
     /tmp/ccClqpSj.s:642    .text:00000000000003f0 .LFB22
GAS LISTING /tmp/ccClqpSj.s 			page 49


     /tmp/ccClqpSj.s:807    .text:0000000000000528 .LFE22
     /tmp/ccClqpSj.s:5954   .debug_str:000000000000056c .LASF105
     /tmp/ccClqpSj.s:4873   .debug_loc:0000000000000304 .LLST29
     /tmp/ccClqpSj.s:4898   .debug_loc:0000000000000366 .LLST30
     /tmp/ccClqpSj.s:4923   .debug_loc:00000000000003c8 .LLST31
     /tmp/ccClqpSj.s:5872   .debug_str:00000000000002ff .LASF101
     /tmp/ccClqpSj.s:4948   .debug_loc:000000000000042a .LLST32
     /tmp/ccClqpSj.s:658    .text:000000000000040c .LBB51
     /tmp/ccClqpSj.s:4973   .debug_loc:000000000000048c .LLST33
     /tmp/ccClqpSj.s:4988   .debug_loc:00000000000004c6 .LLST34
     /tmp/ccClqpSj.s:5003   .debug_loc:000000000000050e .LLST35
     /tmp/ccClqpSj.s:736    .text:0000000000000480 .LVL85
     /tmp/ccClqpSj.s:741    .text:0000000000000490 .LVL86
     /tmp/ccClqpSj.s:746    .text:00000000000004a0 .LVL87
     /tmp/ccClqpSj.s:751    .text:00000000000004ac .LVL88
     /tmp/ccClqpSj.s:756    .text:00000000000004bc .LVL89
     /tmp/ccClqpSj.s:760    .text:00000000000004c4 .LVL90
     /tmp/ccClqpSj.s:764    .text:00000000000004cc .LVL91
     /tmp/ccClqpSj.s:678    .text:000000000000042c .LBB54
     /tmp/ccClqpSj.s:5030   .debug_loc:0000000000000586 .LLST36
     /tmp/ccClqpSj.s:5045   .debug_loc:00000000000005c0 .LLST37
     /tmp/ccClqpSj.s:5060   .debug_loc:0000000000000608 .LLST38
     /tmp/ccClqpSj.s:775    .text:00000000000004dc .LVL93
     /tmp/ccClqpSj.s:780    .text:00000000000004ec .LVL94
     /tmp/ccClqpSj.s:785    .text:00000000000004fc .LVL95
     /tmp/ccClqpSj.s:790    .text:0000000000000508 .LVL96
     /tmp/ccClqpSj.s:795    .text:0000000000000518 .LVL97
     /tmp/ccClqpSj.s:799    .text:0000000000000520 .LVL98
     /tmp/ccClqpSj.s:803    .text:0000000000000528 .LVL99
     /tmp/ccClqpSj.s:5988   .debug_str:0000000000000668 .LASF102
     /tmp/ccClqpSj.s:5852   .debug_str:0000000000000284 .LASF103
     /tmp/ccClqpSj.s:10     .text:0000000000000000 .LFB21
     /tmp/ccClqpSj.s:43     .text:0000000000000030 .LFE21
     /tmp/ccClqpSj.s:5826   .debug_str:00000000000001ba .LASF104
     /tmp/ccClqpSj.s:5090   .debug_loc:0000000000000660 .LLST0
     /tmp/ccClqpSj.s:5104   .debug_loc:0000000000000699 .LLST1
     /tmp/ccClqpSj.s:5118   .debug_loc:00000000000006d2 .LLST2
     /tmp/ccClqpSj.s:28     .text:0000000000000018 .LVL2
     /tmp/ccClqpSj.s:32     .text:0000000000000020 .LVL3
     /tmp/ccClqpSj.s:522    .text:0000000000000324 .LFB20
     /tmp/ccClqpSj.s:636    .text:00000000000003f0 .LFE20
     /tmp/ccClqpSj.s:5132   .debug_loc:000000000000070b .LLST24
     /tmp/ccClqpSj.s:5816   .debug_str:000000000000016f .LASF106
     /tmp/ccClqpSj.s:5161   .debug_loc:0000000000000780 .LLST25
     /tmp/ccClqpSj.s:541    .text:0000000000000340 .LBB43
     /tmp/ccClqpSj.s:5178   .debug_loc:00000000000007cc .LLST26
     /tmp/ccClqpSj.s:5193   .debug_loc:0000000000000806 .LLST27
     /tmp/ccClqpSj.s:5208   .debug_loc:000000000000084e .LLST28
     /tmp/ccClqpSj.s:604    .text:00000000000003a4 .LVL71
     /tmp/ccClqpSj.s:609    .text:00000000000003b4 .LVL72
     /tmp/ccClqpSj.s:614    .text:00000000000003c4 .LVL73
     /tmp/ccClqpSj.s:619    .text:00000000000003d0 .LVL74
     /tmp/ccClqpSj.s:624    .text:00000000000003e0 .LVL75
     /tmp/ccClqpSj.s:628    .text:00000000000003e8 .LVL76
     /tmp/ccClqpSj.s:632    .text:00000000000003f0 .LVL77
     /tmp/ccClqpSj.s:553    .text:0000000000000350 .LVL63
     /tmp/ccClqpSj.s:557    .text:0000000000000360 .LVL64
GAS LISTING /tmp/ccClqpSj.s 			page 50


     /tmp/ccClqpSj.s:140    .text:00000000000000a8 .LFB19
     /tmp/ccClqpSj.s:166    .text:00000000000000cc .LFE19
     /tmp/ccClqpSj.s:813    .text:0000000000000528 .LFB18
     /tmp/ccClqpSj.s:957    .text:0000000000000650 .LFE18
     /tmp/ccClqpSj.s:5227   .debug_loc:000000000000088c .LLST39
     /tmp/ccClqpSj.s:5256   .debug_loc:0000000000000901 .LLST40
     /tmp/ccClqpSj.s:5285   .debug_loc:0000000000000976 .LLST41
     /tmp/ccClqpSj.s:5314   .debug_loc:00000000000009eb .LLST42
     /tmp/ccClqpSj.s:5321   .debug_loc:0000000000000a0e .LLST43
     /tmp/ccClqpSj.s:837    .text:0000000000000554 .LBB61
     /tmp/ccClqpSj.s:5332   .debug_loc:0000000000000a44 .LLST44
     /tmp/ccClqpSj.s:5347   .debug_loc:0000000000000a7e .LLST45
     /tmp/ccClqpSj.s:5362   .debug_loc:0000000000000ac6 .LLST46
     /tmp/ccClqpSj.s:925    .text:0000000000000604 .LVL117
     /tmp/ccClqpSj.s:930    .text:0000000000000614 .LVL118
     /tmp/ccClqpSj.s:935    .text:0000000000000624 .LVL119
     /tmp/ccClqpSj.s:940    .text:0000000000000630 .LVL120
     /tmp/ccClqpSj.s:945    .text:0000000000000640 .LVL121
     /tmp/ccClqpSj.s:949    .text:0000000000000648 .LVL122
     /tmp/ccClqpSj.s:953    .text:0000000000000650 .LVL123
     /tmp/ccClqpSj.s:851    .text:000000000000056c .LVL103
     /tmp/ccClqpSj.s:854    .text:0000000000000578 .LVL104
     /tmp/ccClqpSj.s:870    .text:00000000000005a4 .LVL106
     /tmp/ccClqpSj.s:880    .text:00000000000005bc .LVL109
     /tmp/ccClqpSj.s:890    .text:00000000000005d0 .LVL110
     /tmp/ccClqpSj.s:106    .text:000000000000007c .LFB17
     /tmp/ccClqpSj.s:134    .text:00000000000000a8 .LFE17
     /tmp/ccClqpSj.s:5389   .debug_loc:0000000000000b3e .LLST5
     /tmp/ccClqpSj.s:332    .text:00000000000001b8 .LFB16
     /tmp/ccClqpSj.s:516    .text:0000000000000324 .LFE16
     /tmp/ccClqpSj.s:5788   .debug_str:000000000000009b .LASF107
     /tmp/ccClqpSj.s:5401   .debug_loc:0000000000000b7c .LLST13
     /tmp/ccClqpSj.s:6002   .debug_str:0000000000000778 .LASF108
     /tmp/ccClqpSj.s:5408   .debug_loc:0000000000000b9f .LLST14
     /tmp/ccClqpSj.s:363    .text:00000000000001e0 .LBB31
     /tmp/ccClqpSj.s:5427   .debug_loc:0000000000000bdd .LLST15
     /tmp/ccClqpSj.s:5442   .debug_loc:0000000000000c17 .LLST16
     /tmp/ccClqpSj.s:5457   .debug_loc:0000000000000c5f .LLST17
     /tmp/ccClqpSj.s:446    .text:000000000000027c .LVL46
     /tmp/ccClqpSj.s:451    .text:000000000000028c .LVL47
     /tmp/ccClqpSj.s:456    .text:000000000000029c .LVL48
     /tmp/ccClqpSj.s:461    .text:00000000000002a8 .LVL49
     /tmp/ccClqpSj.s:466    .text:00000000000002b8 .LVL50
     /tmp/ccClqpSj.s:470    .text:00000000000002c0 .LVL51
     /tmp/ccClqpSj.s:474    .text:00000000000002c8 .LVL52
     /tmp/ccClqpSj.s:381    .text:00000000000001fc .LBB34
     /tmp/ccClqpSj.s:5476   .debug_loc:0000000000000c9d .LLST18
     /tmp/ccClqpSj.s:5491   .debug_loc:0000000000000cd7 .LLST19
     /tmp/ccClqpSj.s:5506   .debug_loc:0000000000000d1f .LLST20
     /tmp/ccClqpSj.s:484    .text:00000000000002d8 .LVL53
     /tmp/ccClqpSj.s:489    .text:00000000000002e8 .LVL54
     /tmp/ccClqpSj.s:494    .text:00000000000002f8 .LVL55
     /tmp/ccClqpSj.s:499    .text:0000000000000304 .LVL56
     /tmp/ccClqpSj.s:504    .text:0000000000000314 .LVL57
     /tmp/ccClqpSj.s:508    .text:000000000000031c .LVL58
     /tmp/ccClqpSj.s:512    .text:0000000000000324 .LVL59
     /tmp/ccClqpSj.s:401    .text:0000000000000210 .LBB37
GAS LISTING /tmp/ccClqpSj.s 			page 51


     /tmp/ccClqpSj.s:439    .text:000000000000026c .LBE37
     /tmp/ccClqpSj.s:5525   .debug_loc:0000000000000d5d .LLST21
     /tmp/ccClqpSj.s:5534   .debug_loc:0000000000000d82 .LLST22
     /tmp/ccClqpSj.s:5543   .debug_loc:0000000000000dae .LLST23
     /tmp/ccClqpSj.s:408    .text:0000000000000220 .LVL39
     /tmp/ccClqpSj.s:413    .text:0000000000000230 .LVL40
     /tmp/ccClqpSj.s:418    .text:0000000000000240 .LVL41
     /tmp/ccClqpSj.s:423    .text:000000000000024c .LVL42
     /tmp/ccClqpSj.s:428    .text:000000000000025c .LVL43
     /tmp/ccClqpSj.s:432    .text:0000000000000264 .LVL44
     /tmp/ccClqpSj.s:436    .text:000000000000026c .LVL45
     /tmp/ccClqpSj.s:374    .text:00000000000001ec .LVL35
     /tmp/ccClqpSj.s:377    .text:00000000000001f4 .LVL36
     /tmp/ccClqpSj.s:186    .text:00000000000000cc .LFB15
     /tmp/ccClqpSj.s:326    .text:00000000000001b8 .LFE15
     /tmp/ccClqpSj.s:5551   .debug_loc:0000000000000dd2 .LLST6
     /tmp/ccClqpSj.s:6038   .debug_str:0000000000000897 .LASF109
     /tmp/ccClqpSj.s:5569   .debug_loc:0000000000000e1e .LLST7
     /tmp/ccClqpSj.s:5584   .debug_loc:0000000000000e67 .LLST8
     /tmp/ccClqpSj.s:239    .text:000000000000011c .LBB20
     /tmp/ccClqpSj.s:251    .text:000000000000012c .LBE20
     /tmp/ccClqpSj.s:5924   .debug_str:0000000000000494 .LASF110
     /tmp/ccClqpSj.s:5604   .debug_loc:0000000000000ec4 .LLST12
     /tmp/ccClqpSj.s:217    .text:0000000000000108 .LBB16
     /tmp/ccClqpSj.s:5615   .debug_loc:0000000000000efa .LLST9
     /tmp/ccClqpSj.s:5630   .debug_loc:0000000000000f34 .LLST10
     /tmp/ccClqpSj.s:5645   .debug_loc:0000000000000f7c .LLST11
     /tmp/ccClqpSj.s:287    .text:0000000000000164 .LVL23
     /tmp/ccClqpSj.s:292    .text:0000000000000174 .LVL24
     /tmp/ccClqpSj.s:297    .text:0000000000000184 .LVL25
     /tmp/ccClqpSj.s:302    .text:0000000000000190 .LVL26
     /tmp/ccClqpSj.s:307    .text:00000000000001a0 .LVL27
     /tmp/ccClqpSj.s:311    .text:00000000000001a8 .LVL28
     /tmp/ccClqpSj.s:315    .text:00000000000001b0 .LVL29
     /tmp/ccClqpSj.s:204    .text:00000000000000ec .LVL12
     /tmp/ccClqpSj.s:263    .text:0000000000000140 .LVL20
     /tmp/ccClqpSj.s:49     .text:0000000000000030 .LFB14
     /tmp/ccClqpSj.s:100    .text:000000000000007c .LFE14
     /tmp/ccClqpSj.s:5670   .debug_loc:0000000000000fc0 .LLST3
     /tmp/ccClqpSj.s:5684   .debug_loc:0000000000000ff9 .LLST4
     /tmp/ccClqpSj.s:79     .text:0000000000000060 .LVL6
     /tmp/ccClqpSj.s:5958   .debug_str:0000000000000581 .LASF132
     /tmp/ccClqpSj.s:5910   .debug_str:0000000000000421 .LASF133
     /tmp/ccClqpSj.s:5830   .debug_str:00000000000001d2 .LASF134
     /tmp/ccClqpSj.s:5966   .debug_str:00000000000005c3 .LASF111
     /tmp/ccClqpSj.s:5820   .debug_str:000000000000017a .LASF112
     /tmp/ccClqpSj.s:5774   .debug_str:0000000000000000 .LASF113
     /tmp/ccClqpSj.s:5818   .debug_str:0000000000000175 .LASF114
     /tmp/ccClqpSj.s:5970   .debug_str:00000000000005e1 .LASF115
     /tmp/ccClqpSj.s:5804   .debug_str:00000000000000fd .LASF116
     /tmp/ccClqpSj.s:6028   .debug_str:0000000000000844 .LASF118
     /tmp/ccClqpSj.s:5860   .debug_str:00000000000002b5 .LASF117
     /tmp/ccClqpSj.s:6034   .debug_str:0000000000000884 .LASF119
     /tmp/ccClqpSj.s:5982   .debug_str:0000000000000633 .LASF120
     /tmp/ccClqpSj.s:5972   .debug_str:00000000000005e6 .LASF121
     /tmp/ccClqpSj.s:5956   .debug_str:0000000000000571 .LASF122
     /tmp/ccClqpSj.s:5874   .debug_str:000000000000030d .LASF123
GAS LISTING /tmp/ccClqpSj.s 			page 52


     /tmp/ccClqpSj.s:6010   .debug_str:00000000000007b4 .LASF124
     /tmp/ccClqpSj.s:6036   .debug_str:000000000000088b .LASF125
     /tmp/ccClqpSj.s:1074   .text:00000000000006f0 .LVL137
     /tmp/ccClqpSj.s:1078   .text:00000000000006f8 .LVL138
     /tmp/ccClqpSj.s:1086   .text:0000000000000700 .LVL139
     /tmp/ccClqpSj.s:1052   .text:00000000000006d4 .LVL134
     /tmp/ccClqpSj.s:1056   .text:00000000000006d8 .LVL135
     /tmp/ccClqpSj.s:1173   .text:00000000000007d8 .LVL156
     /tmp/ccClqpSj.s:1179   .text:00000000000007dc .LVL157
     /tmp/ccClqpSj.s:1196   .text:0000000000000800 .LVL159
     /tmp/ccClqpSj.s:987    .text:0000000000000670 .LVL125
     /tmp/ccClqpSj.s:994    .text:0000000000000678 .LVL126
     /tmp/ccClqpSj.s:1000   .text:0000000000000680 .LVL127
     /tmp/ccClqpSj.s:1006   .text:0000000000000684 .LVL128
     /tmp/ccClqpSj.s:1033   .text:00000000000006b8 .LVL132
     /tmp/ccClqpSj.s:1039   .text:00000000000006c0 .LVL133
     /tmp/ccClqpSj.s:645    .text:00000000000003f0 .LVL78
     /tmp/ccClqpSj.s:734    .text:0000000000000478 .LVL84
     /tmp/ccClqpSj.s:773    .text:00000000000004d4 .LVL92
     /tmp/ccClqpSj.s:657    .text:000000000000040c .LVL79
     /tmp/ccClqpSj.s:663    .text:0000000000000410 .LVL80
     /tmp/ccClqpSj.s:726    .text:0000000000000470 .LVL83
     /tmp/ccClqpSj.s:677    .text:000000000000042c .LVL81
     /tmp/ccClqpSj.s:683    .text:0000000000000430 .LVL82
     /tmp/ccClqpSj.s:14     .text:0000000000000000 .LVL0
     /tmp/ccClqpSj.s:26     .text:0000000000000014 .LVL1
     /tmp/ccClqpSj.s:525    .text:0000000000000324 .LVL60
     /tmp/ccClqpSj.s:590    .text:000000000000038c .LVL68
     /tmp/ccClqpSj.s:594    .text:0000000000000394 .LVL69
     /tmp/ccClqpSj.s:602    .text:000000000000039c .LVL70
     /tmp/ccClqpSj.s:564    .text:000000000000036c .LVL65
     /tmp/ccClqpSj.s:573    .text:0000000000000378 .LVL66
     /tmp/ccClqpSj.s:579    .text:000000000000037c .LVL67
     /tmp/ccClqpSj.s:540    .text:0000000000000340 .LVL61
     /tmp/ccClqpSj.s:547    .text:0000000000000348 .LVL62
     /tmp/ccClqpSj.s:816    .text:0000000000000528 .LVL100
     /tmp/ccClqpSj.s:905    .text:00000000000005e4 .LVL112
     /tmp/ccClqpSj.s:915    .text:00000000000005f4 .LVL115
     /tmp/ccClqpSj.s:923    .text:00000000000005fc .LVL116
     /tmp/ccClqpSj.s:908    .text:00000000000005e8 .LVL113
     /tmp/ccClqpSj.s:911    .text:00000000000005ec .LVL114
     /tmp/ccClqpSj.s:856    .text:000000000000057c .LVL105
     /tmp/ccClqpSj.s:902    .text:00000000000005e0 .LVL111
     /tmp/ccClqpSj.s:872    .text:00000000000005a8 .LVL107
     /tmp/ccClqpSj.s:878    .text:00000000000005b4 .LVL108
     /tmp/ccClqpSj.s:836    .text:0000000000000554 .LVL101
     /tmp/ccClqpSj.s:845    .text:0000000000000564 .LVL102
     /tmp/ccClqpSj.s:109    .text:000000000000007c .LVL9
     /tmp/ccClqpSj.s:123    .text:0000000000000098 .LVL10
     /tmp/ccClqpSj.s:350    .text:00000000000001cc .LVL30
     /tmp/ccClqpSj.s:355    .text:00000000000001d0 .LVL31
     /tmp/ccClqpSj.s:360    .text:00000000000001dc .LVL32
     /tmp/ccClqpSj.s:397    .text:0000000000000210 .LVL38
     /tmp/ccClqpSj.s:362    .text:00000000000001e0 .LVL33
     /tmp/ccClqpSj.s:368    .text:00000000000001e4 .LVL34
     /tmp/ccClqpSj.s:380    .text:00000000000001fc .LVL37
     /tmp/ccClqpSj.s:189    .text:00000000000000cc .LVL11
GAS LISTING /tmp/ccClqpSj.s 			page 53


     /tmp/ccClqpSj.s:208    .text:00000000000000f0 .LVL13
     /tmp/ccClqpSj.s:277    .text:0000000000000154 .LVL21
     /tmp/ccClqpSj.s:285    .text:000000000000015c .LVL22
     /tmp/ccClqpSj.s:212    .text:0000000000000100 .LVL14
     /tmp/ccClqpSj.s:237    .text:000000000000011c .LVL17
     /tmp/ccClqpSj.s:249    .text:000000000000012c .LVL19
     /tmp/ccClqpSj.s:244    .text:0000000000000124 .LVL18
     /tmp/ccClqpSj.s:216    .text:0000000000000108 .LVL15
     /tmp/ccClqpSj.s:223    .text:000000000000010c .LVL16
     /tmp/ccClqpSj.s:52     .text:0000000000000030 .LVL4
     /tmp/ccClqpSj.s:66     .text:0000000000000048 .LVL5
     /tmp/ccClqpSj.s:95     .text:0000000000000074 .LVL8
     /tmp/ccClqpSj.s:1304   .debug_info:0000000000000000 .Ldebug_info0
     /tmp/ccClqpSj.s:225    .text:000000000000010c .LBE16
     /tmp/ccClqpSj.s:280    .text:0000000000000154 .LBB21
     /tmp/ccClqpSj.s:318    .text:00000000000001b0 .LBE21
     /tmp/ccClqpSj.s:370    .text:00000000000001e4 .LBE31
     /tmp/ccClqpSj.s:440    .text:000000000000026c .LBB39
     /tmp/ccClqpSj.s:477    .text:00000000000002c8 .LBE39
     /tmp/ccClqpSj.s:386    .text:0000000000000200 .LBE34
     /tmp/ccClqpSj.s:478    .text:00000000000002c8 .LBB40
     /tmp/ccClqpSj.s:514    .text:0000000000000324 .LBE40
     /tmp/ccClqpSj.s:549    .text:0000000000000348 .LBE43
     /tmp/ccClqpSj.s:597    .text:0000000000000394 .LBB46
     /tmp/ccClqpSj.s:634    .text:00000000000003f0 .LBE46
     /tmp/ccClqpSj.s:665    .text:0000000000000410 .LBE51
     /tmp/ccClqpSj.s:729    .text:0000000000000470 .LBB57
     /tmp/ccClqpSj.s:767    .text:00000000000004cc .LBE57
     /tmp/ccClqpSj.s:685    .text:0000000000000430 .LBE54
     /tmp/ccClqpSj.s:768    .text:00000000000004cc .LBB58
     /tmp/ccClqpSj.s:805    .text:0000000000000528 .LBE58
     /tmp/ccClqpSj.s:847    .text:0000000000000564 .LBE61
     /tmp/ccClqpSj.s:918    .text:00000000000005f4 .LBB64
     /tmp/ccClqpSj.s:955    .text:0000000000000650 .LBE64
     /tmp/ccClqpSj.s:996    .text:0000000000000678 .LBE78
     /tmp/ccClqpSj.s:1081   .text:00000000000006f8 .LBB96
     /tmp/ccClqpSj.s:1119   .text:0000000000000754 .LBE96
     /tmp/ccClqpSj.s:1008   .text:0000000000000684 .LBE81
     /tmp/ccClqpSj.s:1120   .text:0000000000000754 .LBB97
     /tmp/ccClqpSj.s:1157   .text:00000000000007b0 .LBE97
     /tmp/ccClqpSj.s:1159   .text:00000000000007b0 .LBB90
     /tmp/ccClqpSj.s:1194   .text:00000000000007fc .LBE90
     /tmp/ccClqpSj.s:1198   .text:0000000000000800 .LBB95
     /tmp/ccClqpSj.s:1236   .text:000000000000085c .LBE95
     /tmp/ccClqpSj.s:1181   .text:00000000000007dc .LBE91
     /tmp/ccClqpSj.s:1199   .text:0000000000000800 .LBB94
     /tmp/ccClqpSj.s:1235   .text:000000000000085c .LBE94

UNDEFINED SYMBOLS
_Z11thread_exitv
_ZN9Scheduler3putEP6Thread
kernelThread
_ZN9Scheduler14dispatchToNextEv
_Z9putStringPKc
_Z6putInti
_Z10putNewlinev
_Z10stopKernelv
GAS LISTING /tmp/ccClqpSj.s 			page 54


_ZN8MemAlloc3getEv
_ZN8MemAlloc8allocMemEm
_ZN8MemAlloc7freeMemEPv
