GAS LISTING /tmp/ccjDSV49.s 			page 1


   1              		.file	"thread.cpp"
   2              		.option pic
   3              		.option norelax
   4              		.text
   5              	.Ltext0:
   6              		.align	2
   7              		.globl	_Z7wrappermPFvPvES_
   9              	_Z7wrappermPFvPvES_:
  10              	.LFB18:
  11              		.file 1 "src/thread.cpp"
   1:src/thread.cpp **** #include "../h/thread.h"
   2:src/thread.cpp **** #include "../h/alloc.h"
   3:src/thread.cpp **** #include "../h/scheduler.h"
   4:src/thread.cpp **** 
   5:src/thread.cpp **** Thread* Thread::pRunning = nullptr;
   6:src/thread.cpp **** uint64* Thread::pRunningContext = nullptr;
   7:src/thread.cpp **** uint64 Thread::timeSliceCounter = 0;
   8:src/thread.cpp **** bool Thread::switchedToUserThread = 0;
   9:src/thread.cpp **** uint64 Thread::nrTotalThreads = 1;
  10:src/thread.cpp **** Thread* Thread::pAllThreads[MAX_NR_TOTAL_THREADS];
  11:src/thread.cpp **** 
  12:src/thread.cpp **** void Thread::setPRunning(Thread* p)
  13:src/thread.cpp **** {
  14:src/thread.cpp ****     pRunning = p;
  15:src/thread.cpp ****     pRunningContext = &(p->context[0]);
  16:src/thread.cpp **** }
  17:src/thread.cpp **** 
  18:src/thread.cpp **** int Thread::createThread(uint64* id, Body body, void* arg)
  19:src/thread.cpp **** {
  20:src/thread.cpp ****     assert(nrTotalThreads < MAX_NR_TOTAL_THREADS);
  21:src/thread.cpp **** 
  22:src/thread.cpp ****     Thread* t = (Thread*)MemAlloc::get()->allocMem(sizeof(Thread));
  23:src/thread.cpp ****     pAllThreads[nrTotalThreads] = t;
  24:src/thread.cpp **** 
  25:src/thread.cpp ****     t->pStackStart = nullptr;
  26:src/thread.cpp ****     void* pLogicalStack = t->allocStack();
  27:src/thread.cpp **** 
  28:src/thread.cpp ****     t->init(body, arg, pLogicalStack);
  29:src/thread.cpp **** 
  30:src/thread.cpp ****     Scheduler::put(t);
  31:src/thread.cpp **** 
  32:src/thread.cpp ****     return 0;
  33:src/thread.cpp **** }
  34:src/thread.cpp **** 
  35:src/thread.cpp **** Thread* Thread::getPRunning()
  36:src/thread.cpp **** {
  37:src/thread.cpp ****     __asm__ volatile("mv x10, x10"); // to avoid inline
  38:src/thread.cpp ****     return pRunning;
  39:src/thread.cpp **** }
  40:src/thread.cpp **** 
  41:src/thread.cpp **** void* Thread::allocStack()
  42:src/thread.cpp **** {
  43:src/thread.cpp ****     assert(pStackStart == nullptr); // error: this threads stack may have already been allocated
  44:src/thread.cpp **** 
  45:src/thread.cpp ****     pStackStart = MemAlloc::get()->allocMem(ACTUAL_STACK_SIZE);
  46:src/thread.cpp ****     uint64 stack =  (uint64)pStackStart + ACTUAL_STACK_SIZE;
  47:src/thread.cpp **** 
GAS LISTING /tmp/ccjDSV49.s 			page 2


  48:src/thread.cpp ****     if(stack % 16 != 0)
  49:src/thread.cpp ****     {
  50:src/thread.cpp ****         stack -= stack % 16;
  51:src/thread.cpp ****     }
  52:src/thread.cpp **** 
  53:src/thread.cpp ****     stack -= 34*8; // for the initial context (necessary to avoid exceptions from reading from unal
  54:src/thread.cpp **** 
  55:src/thread.cpp ****     return (void*)stack;
  56:src/thread.cpp **** 
  57:src/thread.cpp **** }
  58:src/thread.cpp **** 
  59:src/thread.cpp **** void wrapper(uint64 __DO_NOT_USE, Thread::Body body, void* arg) // this entire function can be run 
  60:src/thread.cpp **** {
  12              		.loc 1 60 1
  13              		.cfi_startproc
  14              	.LVL0:
  15 0000 130101FF 		addi	sp,sp,-16
  16              		.cfi_def_cfa_offset 16
  17 0004 23341100 		sd	ra,8(sp)
  18 0008 23308100 		sd	s0,0(sp)
  19              		.cfi_offset 1, -8
  20              		.cfi_offset 8, -16
  21 000c 13040101 		addi	s0,sp,16
  22              		.cfi_def_cfa 8, 0
  61:src/thread.cpp ****     (*body)(arg);
  23              		.loc 1 61 5
  24              		.loc 1 61 12 is_stmt 0
  25 0010 13050600 		mv	a0,a2
  26              	.LVL1:
  27 0014 E7800500 		jalr	a1
  28              	.LVL2:
  62:src/thread.cpp ****     thread_exit();
  29              		.loc 1 62 5 is_stmt 1
  30              		.loc 1 62 16 is_stmt 0
  31 0018 97000000 		call	_Z11thread_exitv@plt
  31      E7800000 
  32              	.LVL3:
  63:src/thread.cpp **** }
  33              		.loc 1 63 1
  34 0020 83308100 		ld	ra,8(sp)
  35              		.cfi_restore 1
  36 0024 03340100 		ld	s0,0(sp)
  37              		.cfi_restore 8
  38              		.cfi_def_cfa 2, 16
  39 0028 13010101 		addi	sp,sp,16
  40              		.cfi_def_cfa_offset 0
  41 002c 67800000 		jr	ra
  42              		.cfi_endproc
  43              	.LFE18:
  45              		.align	2
  46              		.globl	_ZN6Thread11setPRunningEPS_
  48              	_ZN6Thread11setPRunningEPS_:
  49              	.LFB14:
  13:src/thread.cpp ****     pRunning = p;
  50              		.loc 1 13 1 is_stmt 1
  51              		.cfi_startproc
  52              	.LVL4:
GAS LISTING /tmp/ccjDSV49.s 			page 3


  53 0030 130101FF 		addi	sp,sp,-16
  54              		.cfi_def_cfa_offset 16
  55 0034 23348100 		sd	s0,8(sp)
  56              		.cfi_offset 8, -8
  57 0038 13040101 		addi	s0,sp,16
  58              		.cfi_def_cfa 8, 0
  14:src/thread.cpp ****     pRunningContext = &(p->context[0]);
  59              		.loc 1 14 5
  14:src/thread.cpp ****     pRunningContext = &(p->context[0]);
  60              		.loc 1 14 14 is_stmt 0
  61 003c 97070000 		lla	a5,.LANCHOR0
  61      93870700 
  62 0044 23B0A700 		sd	a0,0(a5)
  15:src/thread.cpp **** }
  63              		.loc 1 15 5 is_stmt 1
  15:src/thread.cpp **** }
  64              		.loc 1 15 23 is_stmt 0
  65 0048 13050501 		addi	a0,a0,16
  66              	.LVL5:
  15:src/thread.cpp **** }
  67              		.loc 1 15 21
  68 004c 23B4A700 		sd	a0,8(a5)
  16:src/thread.cpp **** 
  69              		.loc 1 16 1
  70 0050 03348100 		ld	s0,8(sp)
  71              		.cfi_restore 8
  72              		.cfi_def_cfa 2, 16
  73 0054 13010101 		addi	sp,sp,16
  74              		.cfi_def_cfa_offset 0
  75 0058 67800000 		jr	ra
  76              		.cfi_endproc
  77              	.LFE14:
  79              		.align	2
  80              		.globl	_ZN6Thread11getPRunningEv
  82              	_ZN6Thread11getPRunningEv:
  83              	.LFB16:
  36:src/thread.cpp ****     __asm__ volatile("mv x10, x10"); // to avoid inline
  84              		.loc 1 36 1 is_stmt 1
  85              		.cfi_startproc
  86 005c 130101FF 		addi	sp,sp,-16
  87              		.cfi_def_cfa_offset 16
  88 0060 23348100 		sd	s0,8(sp)
  89              		.cfi_offset 8, -8
  90 0064 13040101 		addi	s0,sp,16
  91              		.cfi_def_cfa 8, 0
  37:src/thread.cpp ****     return pRunning;
  92              		.loc 1 37 5
  37:src/thread.cpp ****     return pRunning;
  93              		.loc 1 37 36 is_stmt 0
  94              	#APP
  95              	# 37 "src/thread.cpp" 1
  38:src/thread.cpp **** }
  96              		mv x10, x10
  97              	# 0 "" 2
  98              		.loc 1 38 5 is_stmt 1
  39:src/thread.cpp **** 
  99              		.loc 1 39 1 is_stmt 0
GAS LISTING /tmp/ccjDSV49.s 			page 4


 100              	#NO_APP
 101 006c 17050000 		ld	a0,.LANCHOR0
 101      03350500 
 102 0074 03348100 		ld	s0,8(sp)
 103              		.cfi_restore 8
 104              		.cfi_def_cfa 2, 16
 105 0078 13010101 		addi	sp,sp,16
 106              		.cfi_def_cfa_offset 0
 107 007c 67800000 		jr	ra
 108              		.cfi_endproc
 109              	.LFE16:
 111              		.section	.rodata.str1.8,"aMS",@progbits,1
 112              		.align	3
 113              	.LC0:
 114 0000 3D3D3D3D 		.string	"===================== ASSERT file: "
 114      3D3D3D3D 
 114      3D3D3D3D 
 114      3D3D3D3D 
 114      3D3D3D3D 
 115 0024 00000000 		.align	3
 116              	.LC1:
 117 0028 7372632F 		.string	"src/thread.cpp"
 117      74687265 
 117      61642E63 
 117      707000
 118 0037 00       		.align	3
 119              	.LC2:
 120 0038 20202020 		.string	"    line: "
 120      6C696E65 
 120      3A2000
 121 0043 00000000 		.align	3
 121      00
 122              	.LC3:
 123 0048 2020203D 		.string	"   ==========================="
 123      3D3D3D3D 
 123      3D3D3D3D 
 123      3D3D3D3D 
 123      3D3D3D3D 
 124              		.text
 125              		.align	2
 126              		.globl	_ZN6Thread10allocStackEv
 128              	_ZN6Thread10allocStackEv:
 129              	.LFB17:
  42:src/thread.cpp ****     assert(pStackStart == nullptr); // error: this threads stack may have already been allocated
 130              		.loc 1 42 1 is_stmt 1
 131              		.cfi_startproc
 132              	.LVL6:
 133 0080 130101FE 		addi	sp,sp,-32
 134              		.cfi_def_cfa_offset 32
 135 0084 233C1100 		sd	ra,24(sp)
 136 0088 23388100 		sd	s0,16(sp)
 137 008c 23349100 		sd	s1,8(sp)
 138 0090 23302101 		sd	s2,0(sp)
 139              		.cfi_offset 1, -8
 140              		.cfi_offset 8, -16
 141              		.cfi_offset 9, -24
 142              		.cfi_offset 18, -32
GAS LISTING /tmp/ccjDSV49.s 			page 5


 143 0094 13040102 		addi	s0,sp,32
 144              		.cfi_def_cfa 8, 0
  43:src/thread.cpp **** 
 145              		.loc 1 43 5
 146 0098 8337851A 		ld	a5,424(a0)
 147              	.LVL7:
 148              	.LBB4:
 149              	.LBB5:
 150              		.file 2 "src/../h/../h/my_console.h"
   1:src/../h/../h/my_console.h **** #pragma once
   2:src/../h/../h/my_console.h **** 
   3:src/../h/../h/my_console.h **** #include "../h/risc.h"
   4:src/../h/../h/my_console.h **** 
   5:src/../h/../h/my_console.h **** #include "../lib/console.h"
   6:src/../h/../h/my_console.h **** #include "../lib/hw.h"
   7:src/../h/../h/my_console.h **** 
   8:src/../h/../h/my_console.h **** #define __DEBUG_MODE
   9:src/../h/../h/my_console.h **** 
  10:src/../h/../h/my_console.h **** 
  11:src/../h/../h/my_console.h **** void putString(const char* s);
  12:src/../h/../h/my_console.h **** void putInt(int n);
  13:src/../h/../h/my_console.h **** void putNewline();
  14:src/../h/../h/my_console.h **** void putU64(uint64 n);
  15:src/../h/../h/my_console.h **** void putBinary(uint64 n);
  16:src/../h/../h/my_console.h **** 
  17:src/../h/../h/my_console.h **** [[noreturn]] void stopKernel();
  18:src/../h/../h/my_console.h **** 
  19:src/../h/../h/my_console.h **** inline void _assert(bool valid, const char* file, int line) // MUST be inline
  20:src/../h/../h/my_console.h **** {
  21:src/../h/../h/my_console.h ****     if(valid)
 151              		.loc 2 21 5
 152 009c 639A0704 		bnez	a5,.L11
 153 00a0 13090500 		mv	s2,a0
  22:src/../h/../h/my_console.h ****         return;
 154              		.loc 2 22 9
 155              	.LVL8:
 156              	.LBE5:
 157              	.LBE4:
  45:src/thread.cpp ****     uint64 stack =  (uint64)pStackStart + ACTUAL_STACK_SIZE;
 158              		.loc 1 45 5
  45:src/thread.cpp ****     uint64 stack =  (uint64)pStackStart + ACTUAL_STACK_SIZE;
 159              		.loc 1 45 44 is_stmt 0
 160 00a4 97000000 		call	_ZN8MemAlloc3getEv@plt
 160      E7800000 
 161              	.LVL9:
 162 00ac B7B40000 		li	s1,45056
 163 00b0 938504AA 		addi	a1,s1,-1376
 164 00b4 97000000 		call	_ZN8MemAlloc8allocMemEm@plt
 164      E7800000 
 165              	.LVL10:
  45:src/thread.cpp ****     uint64 stack =  (uint64)pStackStart + ACTUAL_STACK_SIZE;
 166              		.loc 1 45 17
 167 00bc 2334A91A 		sd	a0,424(s2)
  46:src/thread.cpp **** 
 168              		.loc 1 46 5 is_stmt 1
  46:src/thread.cpp **** 
 169              		.loc 1 46 12 is_stmt 0
GAS LISTING /tmp/ccjDSV49.s 			page 6


 170 00c0 938404AA 		addi	s1,s1,-1376
 171 00c4 B3049500 		add	s1,a0,s1
 172              	.LVL11:
  48:src/thread.cpp ****     {
 173              		.loc 1 48 5 is_stmt 1
  48:src/thread.cpp ****     {
 174              		.loc 1 48 14 is_stmt 0
 175 00c8 1375F500 		andi	a0,a0,15
  48:src/thread.cpp ****     {
 176              		.loc 1 48 5
 177 00cc 63040500 		beqz	a0,.L9
  50:src/thread.cpp ****     }
 178              		.loc 1 50 9 is_stmt 1
  50:src/thread.cpp ****     }
 179              		.loc 1 50 15 is_stmt 0
 180 00d0 93F404FF 		andi	s1,s1,-16
 181              	.LVL12:
 182              	.L9:
  53:src/thread.cpp **** 
 183              		.loc 1 53 5 is_stmt 1
  55:src/thread.cpp **** 
 184              		.loc 1 55 5
  57:src/thread.cpp **** 
 185              		.loc 1 57 1 is_stmt 0
 186 00d4 138504EF 		addi	a0,s1,-272
 187              	.LVL13:
 188 00d8 83308101 		ld	ra,24(sp)
 189              		.cfi_remember_state
 190              		.cfi_restore 1
 191 00dc 03340101 		ld	s0,16(sp)
 192              		.cfi_restore 8
 193              		.cfi_def_cfa 2, 32
 194 00e0 83348100 		ld	s1,8(sp)
 195              		.cfi_restore 9
 196 00e4 03390100 		ld	s2,0(sp)
 197              		.cfi_restore 18
 198              	.LVL14:
 199 00e8 13010102 		addi	sp,sp,32
 200              		.cfi_def_cfa_offset 0
 201 00ec 67800000 		jr	ra
 202              	.LVL15:
 203              	.L11:
 204              		.cfi_restore_state
 205              	.LBB7:
 206              	.LBB6:
  23:src/../h/../h/my_console.h **** 
  24:src/../h/../h/my_console.h ****     putString("===================== ASSERT file: ");
 207              		.loc 2 24 5 is_stmt 1
 208              		.loc 2 24 14 is_stmt 0
 209 00f0 17050000 		lla	a0,.LC0
 209      13050500 
 210              	.LVL16:
 211 00f8 97000000 		call	_Z9putStringPKc@plt
 211      E7800000 
 212              	.LVL17:
  25:src/../h/../h/my_console.h ****     putString(file);
 213              		.loc 2 25 5 is_stmt 1
GAS LISTING /tmp/ccjDSV49.s 			page 7


 214              		.loc 2 25 14 is_stmt 0
 215 0100 17050000 		lla	a0,.LC1
 215      13050500 
 216 0108 97000000 		call	_Z9putStringPKc@plt
 216      E7800000 
 217              	.LVL18:
  26:src/../h/../h/my_console.h ****     putString("    line: ");
 218              		.loc 2 26 5 is_stmt 1
 219              		.loc 2 26 14 is_stmt 0
 220 0110 17050000 		lla	a0,.LC2
 220      13050500 
 221 0118 97000000 		call	_Z9putStringPKc@plt
 221      E7800000 
 222              	.LVL19:
  27:src/../h/../h/my_console.h ****     putInt(line);
 223              		.loc 2 27 5 is_stmt 1
 224              		.loc 2 27 11 is_stmt 0
 225 0120 1305B002 		li	a0,43
 226 0124 97000000 		call	_Z6putInti@plt
 226      E7800000 
 227              	.LVL20:
  28:src/../h/../h/my_console.h ****     putString("   ===========================");
 228              		.loc 2 28 5 is_stmt 1
 229              		.loc 2 28 14 is_stmt 0
 230 012c 17050000 		lla	a0,.LC3
 230      13050500 
 231 0134 97000000 		call	_Z9putStringPKc@plt
 231      E7800000 
 232              	.LVL21:
  29:src/../h/../h/my_console.h ****     putNewline();
 233              		.loc 2 29 5 is_stmt 1
 234              		.loc 2 29 15 is_stmt 0
 235 013c 97000000 		call	_Z10putNewlinev@plt
 235      E7800000 
 236              	.LVL22:
  30:src/../h/../h/my_console.h **** 
  31:src/../h/../h/my_console.h ****     stopKernel();
 237              		.loc 2 31 5 is_stmt 1
 238              		.loc 2 31 15 is_stmt 0
 239 0144 97000000 		call	_Z10stopKernelv@plt
 239      E7800000 
 240              	.LVL23:
 241              	.LBE6:
 242              	.LBE7:
 243              		.cfi_endproc
 244              	.LFE17:
 246              		.align	2
 247              		.globl	_ZN6Thread4initEPFvPvES0_S0_
 249              	_ZN6Thread4initEPFvPvES0_S0_:
 250              	.LFB19:
  64:src/thread.cpp **** 
  65:src/thread.cpp **** void Thread::init(Body body, void* arg, void* pLogicalStack) // this is used as a "constructor"
  66:src/thread.cpp **** {
 251              		.loc 1 66 1 is_stmt 1
 252              		.cfi_startproc
 253              	.LVL24:
 254 014c 130101FF 		addi	sp,sp,-16
GAS LISTING /tmp/ccjDSV49.s 			page 8


 255              		.cfi_def_cfa_offset 16
 256 0150 23341100 		sd	ra,8(sp)
 257 0154 23308100 		sd	s0,0(sp)
 258              		.cfi_offset 1, -8
 259              		.cfi_offset 8, -16
 260 0158 13040101 		addi	s0,sp,16
 261              		.cfi_def_cfa 8, 0
  67:src/thread.cpp ****     assert(nrTotalThreads < MAX_NR_TOTAL_THREADS);
 262              		.loc 1 67 5
 263 015c 97070000 		ld	a5,.LANCHOR1
 263      83B70700 
 264 0164 93B74706 		sltiu	a5,a5,100
 265              	.LVL25:
 266              	.LBB12:
 267              	.LBB13:
  21:src/../h/../h/my_console.h ****         return;
 268              		.loc 2 21 5
 269 0168 638E0704 		beqz	a5,.L16
  22:src/../h/../h/my_console.h **** 
 270              		.loc 2 22 9
 271              	.LVL26:
 272              	.LBE13:
 273              	.LBE12:
  68:src/thread.cpp ****     id = nrTotalThreads;
 274              		.loc 1 68 5
 275              		.loc 1 68 8 is_stmt 0
 276 016c 17070000 		lla	a4,.LANCHOR1
 276      13070700 
 277 0174 83370700 		ld	a5,0(a4)
 278 0178 233CF51A 		sd	a5,440(a0)
  69:src/thread.cpp ****     nrTotalThreads++;
 279              		.loc 1 69 5 is_stmt 1
 280              		.loc 1 69 19 is_stmt 0
 281 017c 93871700 		addi	a5,a5,1
 282 0180 2330F700 		sd	a5,0(a4)
  70:src/thread.cpp **** 
  71:src/thread.cpp ****     assert((uint64)pLogicalStack % 16 == 0);
 283              		.loc 1 71 5 is_stmt 1
 284 0184 93F7F600 		andi	a5,a3,15
 285              	.LVL27:
 286              	.LBB15:
 287              	.LBB16:
  21:src/../h/../h/my_console.h ****         return;
 288              		.loc 2 21 5
 289 0188 639C0708 		bnez	a5,.L17
  22:src/../h/../h/my_console.h **** 
 290              		.loc 2 22 9
 291              	.LVL28:
 292              	.LBE16:
 293              	.LBE15:
  72:src/thread.cpp **** 
  73:src/thread.cpp ****     state = INITIALIZING;
 294              		.loc 1 73 5
  74:src/thread.cpp ****     timeSlice = DEFAULT_TIME_SLICE;
 295              		.loc 1 74 5
 296              		.loc 1 74 15 is_stmt 0
 297 018c 93072000 		li	a5,2
GAS LISTING /tmp/ccjDSV49.s 			page 9


 298 0190 2338F51A 		sd	a5,432(a0)
  75:src/thread.cpp ****     pNext = nullptr;
 299              		.loc 1 75 5 is_stmt 1
 300              		.loc 1 75 11 is_stmt 0
 301 0194 2330051C 		sd	zero,448(a0)
  76:src/thread.cpp **** 
  77:src/thread.cpp ****     // sets context
  78:src/thread.cpp ****     context[2] = (uint64)pLogicalStack; // sp field
 302              		.loc 1 78 5 is_stmt 1
 303              		.loc 1 78 16 is_stmt 0
 304 0198 2330D502 		sd	a3,32(a0)
  79:src/thread.cpp **** 
  80:src/thread.cpp ****     // skipping a0 to pass arguments as it is will be not be restored in the context switch because
  81:src/thread.cpp **** 
  82:src/thread.cpp ****     *((uint64*)pLogicalStack + 11) = (uint64)body;
 305              		.loc 1 82 5 is_stmt 1
 306              		.loc 1 82 36 is_stmt 0
 307 019c 23BCB604 		sd	a1,88(a3)
  83:src/thread.cpp ****     *((uint64*)pLogicalStack + 12) = (uint64)arg;
 308              		.loc 1 83 5 is_stmt 1
 309              		.loc 1 83 36 is_stmt 0
 310 01a0 23B0C606 		sd	a2,96(a3)
  84:src/thread.cpp ****     *((uint64*)pLogicalStack + 32) = (uint64)&wrapper;
 311              		.loc 1 84 5 is_stmt 1
 312              		.loc 1 84 36 is_stmt 0
 313 01a4 17070000 		lla	a4,_Z7wrappermPFvPvES_
 313      13070700 
 314 01ac 23B0E610 		sd	a4,256(a3)
  85:src/thread.cpp **** 
  86:src/thread.cpp ****     state = READY;
 315              		.loc 1 86 5 is_stmt 1
 316              		.loc 1 86 11 is_stmt 0
 317 01b0 2320F500 		sw	a5,0(a0)
  87:src/thread.cpp **** }
 318              		.loc 1 87 1
 319 01b4 83308100 		ld	ra,8(sp)
 320              		.cfi_remember_state
 321              		.cfi_restore 1
 322 01b8 03340100 		ld	s0,0(sp)
 323              		.cfi_restore 8
 324              		.cfi_def_cfa 2, 16
 325 01bc 13010101 		addi	sp,sp,16
 326              		.cfi_def_cfa_offset 0
 327 01c0 67800000 		jr	ra
 328              	.LVL29:
 329              	.L16:
 330              		.cfi_restore_state
 331              	.LBB18:
 332              	.LBB14:
  24:src/../h/../h/my_console.h ****     putString(file);
 333              		.loc 2 24 5 is_stmt 1
  24:src/../h/../h/my_console.h ****     putString(file);
 334              		.loc 2 24 14 is_stmt 0
 335 01c4 17050000 		lla	a0,.LC0
 335      13050500 
 336              	.LVL30:
 337 01cc 97000000 		call	_Z9putStringPKc@plt
GAS LISTING /tmp/ccjDSV49.s 			page 10


 337      E7800000 
 338              	.LVL31:
  25:src/../h/../h/my_console.h ****     putString("    line: ");
 339              		.loc 2 25 5 is_stmt 1
  25:src/../h/../h/my_console.h ****     putString("    line: ");
 340              		.loc 2 25 14 is_stmt 0
 341 01d4 17050000 		lla	a0,.LC1
 341      13050500 
 342 01dc 97000000 		call	_Z9putStringPKc@plt
 342      E7800000 
 343              	.LVL32:
  26:src/../h/../h/my_console.h ****     putInt(line);
 344              		.loc 2 26 5 is_stmt 1
  26:src/../h/../h/my_console.h ****     putInt(line);
 345              		.loc 2 26 14 is_stmt 0
 346 01e4 17050000 		lla	a0,.LC2
 346      13050500 
 347 01ec 97000000 		call	_Z9putStringPKc@plt
 347      E7800000 
 348              	.LVL33:
  27:src/../h/../h/my_console.h ****     putString("   ===========================");
 349              		.loc 2 27 5 is_stmt 1
  27:src/../h/../h/my_console.h ****     putString("   ===========================");
 350              		.loc 2 27 11 is_stmt 0
 351 01f4 13053004 		li	a0,67
 352 01f8 97000000 		call	_Z6putInti@plt
 352      E7800000 
 353              	.LVL34:
  28:src/../h/../h/my_console.h ****     putNewline();
 354              		.loc 2 28 5 is_stmt 1
  28:src/../h/../h/my_console.h ****     putNewline();
 355              		.loc 2 28 14 is_stmt 0
 356 0200 17050000 		lla	a0,.LC3
 356      13050500 
 357 0208 97000000 		call	_Z9putStringPKc@plt
 357      E7800000 
 358              	.LVL35:
  29:src/../h/../h/my_console.h **** 
 359              		.loc 2 29 5 is_stmt 1
  29:src/../h/../h/my_console.h **** 
 360              		.loc 2 29 15 is_stmt 0
 361 0210 97000000 		call	_Z10putNewlinev@plt
 361      E7800000 
 362              	.LVL36:
 363              		.loc 2 31 5 is_stmt 1
 364              		.loc 2 31 15 is_stmt 0
 365 0218 97000000 		call	_Z10stopKernelv@plt
 365      E7800000 
 366              	.LVL37:
 367              	.L17:
 368              	.LBE14:
 369              	.LBE18:
 370              	.LBB19:
 371              	.LBB17:
  24:src/../h/../h/my_console.h ****     putString(file);
 372              		.loc 2 24 5 is_stmt 1
  24:src/../h/../h/my_console.h ****     putString(file);
GAS LISTING /tmp/ccjDSV49.s 			page 11


 373              		.loc 2 24 14 is_stmt 0
 374 0220 17050000 		lla	a0,.LC0
 374      13050500 
 375              	.LVL38:
 376 0228 97000000 		call	_Z9putStringPKc@plt
 376      E7800000 
 377              	.LVL39:
  25:src/../h/../h/my_console.h ****     putString("    line: ");
 378              		.loc 2 25 5 is_stmt 1
  25:src/../h/../h/my_console.h ****     putString("    line: ");
 379              		.loc 2 25 14 is_stmt 0
 380 0230 17050000 		lla	a0,.LC1
 380      13050500 
 381 0238 97000000 		call	_Z9putStringPKc@plt
 381      E7800000 
 382              	.LVL40:
  26:src/../h/../h/my_console.h ****     putInt(line);
 383              		.loc 2 26 5 is_stmt 1
  26:src/../h/../h/my_console.h ****     putInt(line);
 384              		.loc 2 26 14 is_stmt 0
 385 0240 17050000 		lla	a0,.LC2
 385      13050500 
 386 0248 97000000 		call	_Z9putStringPKc@plt
 386      E7800000 
 387              	.LVL41:
  27:src/../h/../h/my_console.h ****     putString("   ===========================");
 388              		.loc 2 27 5 is_stmt 1
  27:src/../h/../h/my_console.h ****     putString("   ===========================");
 389              		.loc 2 27 11 is_stmt 0
 390 0250 13057004 		li	a0,71
 391 0254 97000000 		call	_Z6putInti@plt
 391      E7800000 
 392              	.LVL42:
  28:src/../h/../h/my_console.h ****     putNewline();
 393              		.loc 2 28 5 is_stmt 1
  28:src/../h/../h/my_console.h ****     putNewline();
 394              		.loc 2 28 14 is_stmt 0
 395 025c 17050000 		lla	a0,.LC3
 395      13050500 
 396 0264 97000000 		call	_Z9putStringPKc@plt
 396      E7800000 
 397              	.LVL43:
  29:src/../h/../h/my_console.h **** 
 398              		.loc 2 29 5 is_stmt 1
  29:src/../h/../h/my_console.h **** 
 399              		.loc 2 29 15 is_stmt 0
 400 026c 97000000 		call	_Z10putNewlinev@plt
 400      E7800000 
 401              	.LVL44:
 402              		.loc 2 31 5 is_stmt 1
 403              		.loc 2 31 15 is_stmt 0
 404 0274 97000000 		call	_Z10stopKernelv@plt
 404      E7800000 
 405              	.LVL45:
 406              	.LBE17:
 407              	.LBE19:
 408              		.cfi_endproc
GAS LISTING /tmp/ccjDSV49.s 			page 12


 409              	.LFE19:
 411              		.align	2
 412              		.globl	_ZN6Thread12createThreadEPmPFvPvES1_
 414              	_ZN6Thread12createThreadEPmPFvPvES1_:
 415              	.LFB15:
  19:src/thread.cpp ****     assert(nrTotalThreads < MAX_NR_TOTAL_THREADS);
 416              		.loc 1 19 1 is_stmt 1
 417              		.cfi_startproc
 418              	.LVL46:
 419 027c 130101FD 		addi	sp,sp,-48
 420              		.cfi_def_cfa_offset 48
 421 0280 23341102 		sd	ra,40(sp)
 422 0284 23308102 		sd	s0,32(sp)
 423 0288 233C9100 		sd	s1,24(sp)
 424 028c 23382101 		sd	s2,16(sp)
 425 0290 23343101 		sd	s3,8(sp)
 426              		.cfi_offset 1, -8
 427              		.cfi_offset 8, -16
 428              		.cfi_offset 9, -24
 429              		.cfi_offset 18, -32
 430              		.cfi_offset 19, -40
 431 0294 13040103 		addi	s0,sp,48
 432              		.cfi_def_cfa 8, 0
  20:src/thread.cpp **** 
 433              		.loc 1 20 5
 434 0298 97070000 		ld	a5,.LANCHOR1
 434      83B70700 
 435 02a0 93B74706 		sltiu	a5,a5,100
 436              	.LVL47:
 437              	.LBB22:
 438              	.LBB23:
  21:src/../h/../h/my_console.h ****         return;
 439              		.loc 2 21 5
 440 02a4 63880708 		beqz	a5,.L21
 441 02a8 93890500 		mv	s3,a1
 442 02ac 13090600 		mv	s2,a2
  22:src/../h/../h/my_console.h **** 
 443              		.loc 2 22 9
 444              	.LVL48:
 445              	.LBE23:
 446              	.LBE22:
  22:src/thread.cpp ****     pAllThreads[nrTotalThreads] = t;
 447              		.loc 1 22 5
  22:src/thread.cpp ****     pAllThreads[nrTotalThreads] = t;
 448              		.loc 1 22 51 is_stmt 0
 449 02b0 97000000 		call	_ZN8MemAlloc3getEv@plt
 449      E7800000 
 450              	.LVL49:
 451 02b8 9305801C 		li	a1,456
 452 02bc 97000000 		call	_ZN8MemAlloc8allocMemEm@plt
 452      E7800000 
 453              	.LVL50:
 454 02c4 93040500 		mv	s1,a0
 455              	.LVL51:
  23:src/thread.cpp **** 
 456              		.loc 1 23 5 is_stmt 1
  23:src/thread.cpp **** 
GAS LISTING /tmp/ccjDSV49.s 			page 13


 457              		.loc 1 23 33 is_stmt 0
 458 02c8 97070000 		ld	a5,.LANCHOR1
 458      83B70700 
 459 02d0 13973700 		slli	a4,a5,3
 460 02d4 97070000 		lla	a5,.LANCHOR0
 460      93870700 
 461 02dc B387E700 		add	a5,a5,a4
 462 02e0 23B8A700 		sd	a0,16(a5)
  25:src/thread.cpp ****     void* pLogicalStack = t->allocStack();
 463              		.loc 1 25 5 is_stmt 1
  25:src/thread.cpp ****     void* pLogicalStack = t->allocStack();
 464              		.loc 1 25 20 is_stmt 0
 465 02e4 2334051A 		sd	zero,424(a0)
  26:src/thread.cpp **** 
 466              		.loc 1 26 5 is_stmt 1
  26:src/thread.cpp **** 
 467              		.loc 1 26 40 is_stmt 0
 468 02e8 97000000 		call	_ZN6Thread10allocStackEv
 468      E7800000 
 469              	.LVL52:
 470 02f0 93060500 		mv	a3,a0
 471              	.LVL53:
  28:src/thread.cpp **** 
 472              		.loc 1 28 5 is_stmt 1
  28:src/thread.cpp **** 
 473              		.loc 1 28 12 is_stmt 0
 474 02f4 13060900 		mv	a2,s2
 475 02f8 93850900 		mv	a1,s3
 476 02fc 13850400 		mv	a0,s1
 477              	.LVL54:
 478 0300 97000000 		call	_ZN6Thread4initEPFvPvES0_S0_
 478      E7800000 
 479              	.LVL55:
  30:src/thread.cpp **** 
 480              		.loc 1 30 5 is_stmt 1
  30:src/thread.cpp **** 
 481              		.loc 1 30 19 is_stmt 0
 482 0308 13850400 		mv	a0,s1
 483 030c 97000000 		call	_ZN9Scheduler3putEP6Thread@plt
 483      E7800000 
 484              	.LVL56:
  32:src/thread.cpp **** }
 485              		.loc 1 32 5 is_stmt 1
  33:src/thread.cpp **** 
 486              		.loc 1 33 1 is_stmt 0
 487 0314 13050000 		li	a0,0
 488 0318 83308102 		ld	ra,40(sp)
 489              		.cfi_remember_state
 490              		.cfi_restore 1
 491 031c 03340102 		ld	s0,32(sp)
 492              		.cfi_restore 8
 493              		.cfi_def_cfa 2, 48
 494 0320 83348101 		ld	s1,24(sp)
 495              		.cfi_restore 9
 496              	.LVL57:
 497 0324 03390101 		ld	s2,16(sp)
 498              		.cfi_restore 18
GAS LISTING /tmp/ccjDSV49.s 			page 14


 499              	.LVL58:
 500 0328 83398100 		ld	s3,8(sp)
 501              		.cfi_restore 19
 502              	.LVL59:
 503 032c 13010103 		addi	sp,sp,48
 504              		.cfi_def_cfa_offset 0
 505 0330 67800000 		jr	ra
 506              	.LVL60:
 507              	.L21:
 508              		.cfi_restore_state
 509              	.LBB25:
 510              	.LBB24:
  24:src/../h/../h/my_console.h ****     putString(file);
 511              		.loc 2 24 5 is_stmt 1
  24:src/../h/../h/my_console.h ****     putString(file);
 512              		.loc 2 24 14 is_stmt 0
 513 0334 17050000 		lla	a0,.LC0
 513      13050500 
 514              	.LVL61:
 515 033c 97000000 		call	_Z9putStringPKc@plt
 515      E7800000 
 516              	.LVL62:
  25:src/../h/../h/my_console.h ****     putString("    line: ");
 517              		.loc 2 25 5 is_stmt 1
  25:src/../h/../h/my_console.h ****     putString("    line: ");
 518              		.loc 2 25 14 is_stmt 0
 519 0344 17050000 		lla	a0,.LC1
 519      13050500 
 520 034c 97000000 		call	_Z9putStringPKc@plt
 520      E7800000 
 521              	.LVL63:
  26:src/../h/../h/my_console.h ****     putInt(line);
 522              		.loc 2 26 5 is_stmt 1
  26:src/../h/../h/my_console.h ****     putInt(line);
 523              		.loc 2 26 14 is_stmt 0
 524 0354 17050000 		lla	a0,.LC2
 524      13050500 
 525 035c 97000000 		call	_Z9putStringPKc@plt
 525      E7800000 
 526              	.LVL64:
  27:src/../h/../h/my_console.h ****     putString("   ===========================");
 527              		.loc 2 27 5 is_stmt 1
  27:src/../h/../h/my_console.h ****     putString("   ===========================");
 528              		.loc 2 27 11 is_stmt 0
 529 0364 13054001 		li	a0,20
 530 0368 97000000 		call	_Z6putInti@plt
 530      E7800000 
 531              	.LVL65:
  28:src/../h/../h/my_console.h ****     putNewline();
 532              		.loc 2 28 5 is_stmt 1
  28:src/../h/../h/my_console.h ****     putNewline();
 533              		.loc 2 28 14 is_stmt 0
 534 0370 17050000 		lla	a0,.LC3
 534      13050500 
 535 0378 97000000 		call	_Z9putStringPKc@plt
 535      E7800000 
 536              	.LVL66:
GAS LISTING /tmp/ccjDSV49.s 			page 15


  29:src/../h/../h/my_console.h **** 
 537              		.loc 2 29 5 is_stmt 1
  29:src/../h/../h/my_console.h **** 
 538              		.loc 2 29 15 is_stmt 0
 539 0380 97000000 		call	_Z10putNewlinev@plt
 539      E7800000 
 540              	.LVL67:
 541              		.loc 2 31 5 is_stmt 1
 542              		.loc 2 31 15 is_stmt 0
 543 0388 97000000 		call	_Z10stopKernelv@plt
 543      E7800000 
 544              	.LVL68:
 545              	.LBE24:
 546              	.LBE25:
 547              		.cfi_endproc
 548              	.LFE15:
 550              		.align	2
 551              		.globl	_ZN6Thread4exitEv
 553              	_ZN6Thread4exitEv:
 554              	.LFB20:
  88:src/thread.cpp **** 
  89:src/thread.cpp **** int Thread::exit()
  90:src/thread.cpp **** {
 555              		.loc 1 90 1 is_stmt 1
 556              		.cfi_startproc
 557 0390 130101FE 		addi	sp,sp,-32
 558              		.cfi_def_cfa_offset 32
 559 0394 233C1100 		sd	ra,24(sp)
 560 0398 23388100 		sd	s0,16(sp)
 561 039c 23349100 		sd	s1,8(sp)
 562              		.cfi_offset 1, -8
 563              		.cfi_offset 8, -16
 564              		.cfi_offset 9, -24
 565 03a0 13040102 		addi	s0,sp,32
 566              		.cfi_def_cfa 8, 0
  91:src/thread.cpp ****     Thread* t = Thread::getPRunning();
 567              		.loc 1 91 5
 568              		.loc 1 91 36 is_stmt 0
 569 03a4 97000000 		call	_ZN6Thread11getPRunningEv
 569      E7800000 
 570              	.LVL69:
  92:src/thread.cpp ****     assert(t->state == RUNNING);
 571              		.loc 1 92 5 is_stmt 1
 572 03ac 83270500 		lw	a5,0(a0)
 573              	.LVL70:
 574              	.LBB28:
 575              	.LBB29:
  21:src/../h/../h/my_console.h ****         return;
 576              		.loc 2 21 5
 577 03b0 639E0702 		bnez	a5,.L25
 578 03b4 93040500 		mv	s1,a0
  22:src/../h/../h/my_console.h **** 
 579              		.loc 2 22 9
 580              	.LVL71:
 581              	.LBE29:
 582              	.LBE28:
  93:src/thread.cpp **** 
GAS LISTING /tmp/ccjDSV49.s 			page 16


  94:src/thread.cpp ****     MemAlloc::get()->freeMem(t->pStackStart);
 583              		.loc 1 94 5
 584              		.loc 1 94 29 is_stmt 0
 585 03b8 97000000 		call	_ZN8MemAlloc3getEv@plt
 585      E7800000 
 586              	.LVL72:
 587 03c0 83B5841A 		ld	a1,424(s1)
 588 03c4 97000000 		call	_ZN8MemAlloc7freeMemEPv@plt
 588      E7800000 
 589              	.LVL73:
  95:src/thread.cpp **** //    t->signalDone();
  96:src/thread.cpp ****     Scheduler::dispatchToNext();
 590              		.loc 1 96 5 is_stmt 1
 591              		.loc 1 96 30 is_stmt 0
 592 03cc 97000000 		call	_ZN9Scheduler14dispatchToNextEv@plt
 592      E7800000 
 593              	.LVL74:
  97:src/thread.cpp **** 
  98:src/thread.cpp ****     return 0;
 594              		.loc 1 98 5 is_stmt 1
  99:src/thread.cpp **** }
 595              		.loc 1 99 1 is_stmt 0
 596 03d4 13050000 		li	a0,0
 597 03d8 83308101 		ld	ra,24(sp)
 598              		.cfi_remember_state
 599              		.cfi_restore 1
 600 03dc 03340101 		ld	s0,16(sp)
 601              		.cfi_restore 8
 602              		.cfi_def_cfa 2, 32
 603 03e0 83348100 		ld	s1,8(sp)
 604              		.cfi_restore 9
 605              	.LVL75:
 606 03e4 13010102 		addi	sp,sp,32
 607              		.cfi_def_cfa_offset 0
 608 03e8 67800000 		jr	ra
 609              	.LVL76:
 610              	.L25:
 611              		.cfi_restore_state
 612              	.LBB31:
 613              	.LBB30:
  24:src/../h/../h/my_console.h ****     putString(file);
 614              		.loc 2 24 5 is_stmt 1
  24:src/../h/../h/my_console.h ****     putString(file);
 615              		.loc 2 24 14 is_stmt 0
 616 03ec 17050000 		lla	a0,.LC0
 616      13050500 
 617              	.LVL77:
 618 03f4 97000000 		call	_Z9putStringPKc@plt
 618      E7800000 
 619              	.LVL78:
  25:src/../h/../h/my_console.h ****     putString("    line: ");
 620              		.loc 2 25 5 is_stmt 1
  25:src/../h/../h/my_console.h ****     putString("    line: ");
 621              		.loc 2 25 14 is_stmt 0
 622 03fc 17050000 		lla	a0,.LC1
 622      13050500 
 623 0404 97000000 		call	_Z9putStringPKc@plt
GAS LISTING /tmp/ccjDSV49.s 			page 17


 623      E7800000 
 624              	.LVL79:
  26:src/../h/../h/my_console.h ****     putInt(line);
 625              		.loc 2 26 5 is_stmt 1
  26:src/../h/../h/my_console.h ****     putInt(line);
 626              		.loc 2 26 14 is_stmt 0
 627 040c 17050000 		lla	a0,.LC2
 627      13050500 
 628 0414 97000000 		call	_Z9putStringPKc@plt
 628      E7800000 
 629              	.LVL80:
  27:src/../h/../h/my_console.h ****     putString("   ===========================");
 630              		.loc 2 27 5 is_stmt 1
  27:src/../h/../h/my_console.h ****     putString("   ===========================");
 631              		.loc 2 27 11 is_stmt 0
 632 041c 1305C005 		li	a0,92
 633 0420 97000000 		call	_Z6putInti@plt
 633      E7800000 
 634              	.LVL81:
  28:src/../h/../h/my_console.h ****     putNewline();
 635              		.loc 2 28 5 is_stmt 1
  28:src/../h/../h/my_console.h ****     putNewline();
 636              		.loc 2 28 14 is_stmt 0
 637 0428 17050000 		lla	a0,.LC3
 637      13050500 
 638 0430 97000000 		call	_Z9putStringPKc@plt
 638      E7800000 
 639              	.LVL82:
  29:src/../h/../h/my_console.h **** 
 640              		.loc 2 29 5 is_stmt 1
  29:src/../h/../h/my_console.h **** 
 641              		.loc 2 29 15 is_stmt 0
 642 0438 97000000 		call	_Z10putNewlinev@plt
 642      E7800000 
 643              	.LVL83:
 644              		.loc 2 31 5 is_stmt 1
 645              		.loc 2 31 15 is_stmt 0
 646 0440 97000000 		call	_Z10stopKernelv@plt
 646      E7800000 
 647              	.LVL84:
 648              	.LBE30:
 649              	.LBE31:
 650              		.cfi_endproc
 651              	.LFE20:
 653              		.globl	_ZN6Thread11pAllThreadsE
 654              		.globl	_ZN6Thread14nrTotalThreadsE
 655              		.globl	_ZN6Thread20switchedToUserThreadE
 656              		.globl	_ZN6Thread16timeSliceCounterE
 657              		.globl	_ZN6Thread15pRunningContextE
 658              		.globl	_ZN6Thread8pRunningE
 659              		.data
 660              		.align	3
 661              		.set	.LANCHOR1,. + 0
 664              	_ZN6Thread14nrTotalThreadsE:
 665 0000 01000000 		.dword	1
 665      00000000 
 666              		.bss
GAS LISTING /tmp/ccjDSV49.s 			page 18


 667              		.align	3
 668              		.set	.LANCHOR0,. + 0
 671              	_ZN6Thread8pRunningE:
 672 0000 00000000 		.zero	8
 672      00000000 
 675              	_ZN6Thread15pRunningContextE:
 676 0008 00000000 		.zero	8
 676      00000000 
 679              	_ZN6Thread11pAllThreadsE:
 680 0010 00000000 		.zero	800
 680      00000000 
 680      00000000 
 680      00000000 
 680      00000000 
 683              	_ZN6Thread20switchedToUserThreadE:
 684 0330 00       		.zero	1
 685 0331 00000000 		.zero	7
 685      000000
 688              	_ZN6Thread16timeSliceCounterE:
 689 0338 00000000 		.zero	8
 689      00000000 
 690              		.text
 691              	.Letext0:
 692              		.file 3 "src/../h/../lib/hw.h"
 693              		.file 4 "src/../h/thread.h"
 694              		.file 5 "src/../h/alloc.h"
 695              		.file 6 "src/../h/scheduler.h"
 696              		.file 7 "src/../h/../h/c_api.h"
GAS LISTING /tmp/ccjDSV49.s 			page 19


DEFINED SYMBOLS
                            *ABS*:0000000000000000 thread.cpp
     /tmp/ccjDSV49.s:9      .text:0000000000000000 _Z7wrappermPFvPvES_
     /tmp/ccjDSV49.s:13     .text:0000000000000000 .L0 
     /tmp/ccjDSV49.s:15     .text:0000000000000000 .L0 
     /tmp/ccjDSV49.s:16     .text:0000000000000004 .L0 
     /tmp/ccjDSV49.s:19     .text:000000000000000c .L0 
     /tmp/ccjDSV49.s:20     .text:000000000000000c .L0 
     /tmp/ccjDSV49.s:22     .text:0000000000000010 .L0 
     /tmp/ccjDSV49.s:24     .text:0000000000000010 .L0 
     /tmp/ccjDSV49.s:25     .text:0000000000000010 .L0 
     /tmp/ccjDSV49.s:30     .text:0000000000000018 .L0 
     /tmp/ccjDSV49.s:31     .text:0000000000000018 .L0 
     /tmp/ccjDSV49.s:34     .text:0000000000000020 .L0 
     /tmp/ccjDSV49.s:35     .text:0000000000000024 .L0 
     /tmp/ccjDSV49.s:37     .text:0000000000000028 .L0 
     /tmp/ccjDSV49.s:38     .text:0000000000000028 .L0 
     /tmp/ccjDSV49.s:40     .text:000000000000002c .L0 
     /tmp/ccjDSV49.s:42     .text:0000000000000030 .L0 
     /tmp/ccjDSV49.s:48     .text:0000000000000030 _ZN6Thread11setPRunningEPS_
     /tmp/ccjDSV49.s:51     .text:0000000000000030 .L0 
     /tmp/ccjDSV49.s:53     .text:0000000000000030 .L0 
     /tmp/ccjDSV49.s:54     .text:0000000000000034 .L0 
     /tmp/ccjDSV49.s:56     .text:0000000000000038 .L0 
     /tmp/ccjDSV49.s:58     .text:000000000000003c .L0 
     /tmp/ccjDSV49.s:60     .text:000000000000003c .L0 
     /tmp/ccjDSV49.s:61     .text:000000000000003c .L0 
     /tmp/ccjDSV49.s:64     .text:0000000000000048 .L0 
     /tmp/ccjDSV49.s:65     .text:0000000000000048 .L0 
     /tmp/ccjDSV49.s:68     .text:000000000000004c .L0 
     /tmp/ccjDSV49.s:70     .text:0000000000000050 .L0 
     /tmp/ccjDSV49.s:71     .text:0000000000000054 .L0 
     /tmp/ccjDSV49.s:72     .text:0000000000000054 .L0 
     /tmp/ccjDSV49.s:74     .text:0000000000000058 .L0 
     /tmp/ccjDSV49.s:76     .text:000000000000005c .L0 
     /tmp/ccjDSV49.s:82     .text:000000000000005c _ZN6Thread11getPRunningEv
     /tmp/ccjDSV49.s:85     .text:000000000000005c .L0 
     /tmp/ccjDSV49.s:86     .text:000000000000005c .L0 
     /tmp/ccjDSV49.s:87     .text:0000000000000060 .L0 
     /tmp/ccjDSV49.s:89     .text:0000000000000064 .L0 
     /tmp/ccjDSV49.s:91     .text:0000000000000068 .L0 
     /tmp/ccjDSV49.s:93     .text:0000000000000068 .L0 
      src/thread.cpp:37     .text:0000000000000068 .L0 
     /tmp/ccjDSV49.s:99     .text:000000000000006c .L0 
     /tmp/ccjDSV49.s:101    .text:000000000000006c .L0 
     /tmp/ccjDSV49.s:103    .text:0000000000000078 .L0 
     /tmp/ccjDSV49.s:104    .text:0000000000000078 .L0 
     /tmp/ccjDSV49.s:106    .text:000000000000007c .L0 
     /tmp/ccjDSV49.s:108    .text:0000000000000080 .L0 
     /tmp/ccjDSV49.s:128    .text:0000000000000080 _ZN6Thread10allocStackEv
     /tmp/ccjDSV49.s:131    .text:0000000000000080 .L0 
     /tmp/ccjDSV49.s:133    .text:0000000000000080 .L0 
     /tmp/ccjDSV49.s:134    .text:0000000000000084 .L0 
     /tmp/ccjDSV49.s:139    .text:0000000000000094 .L0 
     /tmp/ccjDSV49.s:140    .text:0000000000000094 .L0 
     /tmp/ccjDSV49.s:141    .text:0000000000000094 .L0 
     /tmp/ccjDSV49.s:142    .text:0000000000000094 .L0 
GAS LISTING /tmp/ccjDSV49.s 			page 20


     /tmp/ccjDSV49.s:144    .text:0000000000000098 .L0 
     /tmp/ccjDSV49.s:146    .text:0000000000000098 .L0 
     /tmp/ccjDSV49.s:152    .text:000000000000009c .L0 
     /tmp/ccjDSV49.s:158    .text:00000000000000a4 .L0 
     /tmp/ccjDSV49.s:159    .text:00000000000000a4 .L0 
     /tmp/ccjDSV49.s:160    .text:00000000000000a4 .L0 
     /tmp/ccjDSV49.s:167    .text:00000000000000bc .L0 
     /tmp/ccjDSV49.s:169    .text:00000000000000c0 .L0 
     /tmp/ccjDSV49.s:170    .text:00000000000000c0 .L0 
     /tmp/ccjDSV49.s:174    .text:00000000000000c8 .L0 
     /tmp/ccjDSV49.s:175    .text:00000000000000c8 .L0 
     /tmp/ccjDSV49.s:177    .text:00000000000000cc .L0 
     /tmp/ccjDSV49.s:179    .text:00000000000000d0 .L0 
     /tmp/ccjDSV49.s:180    .text:00000000000000d0 .L0 
     /tmp/ccjDSV49.s:184    .text:00000000000000d4 .L0 
     /tmp/ccjDSV49.s:185    .text:00000000000000d4 .L0 
     /tmp/ccjDSV49.s:186    .text:00000000000000d4 .L0 
     /tmp/ccjDSV49.s:189    .text:00000000000000dc .L0 
     /tmp/ccjDSV49.s:190    .text:00000000000000dc .L0 
     /tmp/ccjDSV49.s:192    .text:00000000000000e0 .L0 
     /tmp/ccjDSV49.s:193    .text:00000000000000e0 .L0 
     /tmp/ccjDSV49.s:195    .text:00000000000000e4 .L0 
     /tmp/ccjDSV49.s:197    .text:00000000000000e8 .L0 
     /tmp/ccjDSV49.s:200    .text:00000000000000ec .L0 
     /tmp/ccjDSV49.s:204    .text:00000000000000f0 .L0 
     /tmp/ccjDSV49.s:208    .text:00000000000000f0 .L0 
     /tmp/ccjDSV49.s:209    .text:00000000000000f0 .L0 
     /tmp/ccjDSV49.s:214    .text:0000000000000100 .L0 
     /tmp/ccjDSV49.s:215    .text:0000000000000100 .L0 
     /tmp/ccjDSV49.s:219    .text:0000000000000110 .L0 
     /tmp/ccjDSV49.s:220    .text:0000000000000110 .L0 
     /tmp/ccjDSV49.s:224    .text:0000000000000120 .L0 
     /tmp/ccjDSV49.s:225    .text:0000000000000120 .L0 
     /tmp/ccjDSV49.s:229    .text:000000000000012c .L0 
     /tmp/ccjDSV49.s:230    .text:000000000000012c .L0 
     /tmp/ccjDSV49.s:234    .text:000000000000013c .L0 
     /tmp/ccjDSV49.s:235    .text:000000000000013c .L0 
     /tmp/ccjDSV49.s:238    .text:0000000000000144 .L0 
     /tmp/ccjDSV49.s:239    .text:0000000000000144 .L0 
     /tmp/ccjDSV49.s:243    .text:000000000000014c .L0 
     /tmp/ccjDSV49.s:249    .text:000000000000014c _ZN6Thread4initEPFvPvES0_S0_
     /tmp/ccjDSV49.s:252    .text:000000000000014c .L0 
     /tmp/ccjDSV49.s:254    .text:000000000000014c .L0 
     /tmp/ccjDSV49.s:255    .text:0000000000000150 .L0 
     /tmp/ccjDSV49.s:258    .text:0000000000000158 .L0 
     /tmp/ccjDSV49.s:259    .text:0000000000000158 .L0 
     /tmp/ccjDSV49.s:261    .text:000000000000015c .L0 
     /tmp/ccjDSV49.s:263    .text:000000000000015c .L0 
     /tmp/ccjDSV49.s:269    .text:0000000000000168 .L0 
     /tmp/ccjDSV49.s:274    .text:000000000000016c .L0 
     /tmp/ccjDSV49.s:275    .text:000000000000016c .L0 
     /tmp/ccjDSV49.s:276    .text:000000000000016c .L0 
     /tmp/ccjDSV49.s:280    .text:000000000000017c .L0 
     /tmp/ccjDSV49.s:281    .text:000000000000017c .L0 
     /tmp/ccjDSV49.s:284    .text:0000000000000184 .L0 
     /tmp/ccjDSV49.s:289    .text:0000000000000188 .L0 
     /tmp/ccjDSV49.s:294    .text:000000000000018c .L0 
GAS LISTING /tmp/ccjDSV49.s 			page 21


     /tmp/ccjDSV49.s:295    .text:000000000000018c .L0 
     /tmp/ccjDSV49.s:296    .text:000000000000018c .L0 
     /tmp/ccjDSV49.s:297    .text:000000000000018c .L0 
     /tmp/ccjDSV49.s:300    .text:0000000000000194 .L0 
     /tmp/ccjDSV49.s:301    .text:0000000000000194 .L0 
     /tmp/ccjDSV49.s:303    .text:0000000000000198 .L0 
     /tmp/ccjDSV49.s:304    .text:0000000000000198 .L0 
     /tmp/ccjDSV49.s:306    .text:000000000000019c .L0 
     /tmp/ccjDSV49.s:307    .text:000000000000019c .L0 
     /tmp/ccjDSV49.s:309    .text:00000000000001a0 .L0 
     /tmp/ccjDSV49.s:310    .text:00000000000001a0 .L0 
     /tmp/ccjDSV49.s:312    .text:00000000000001a4 .L0 
     /tmp/ccjDSV49.s:313    .text:00000000000001a4 .L0 
     /tmp/ccjDSV49.s:316    .text:00000000000001b0 .L0 
     /tmp/ccjDSV49.s:317    .text:00000000000001b0 .L0 
     /tmp/ccjDSV49.s:319    .text:00000000000001b4 .L0 
     /tmp/ccjDSV49.s:320    .text:00000000000001b8 .L0 
     /tmp/ccjDSV49.s:321    .text:00000000000001b8 .L0 
     /tmp/ccjDSV49.s:323    .text:00000000000001bc .L0 
     /tmp/ccjDSV49.s:324    .text:00000000000001bc .L0 
     /tmp/ccjDSV49.s:326    .text:00000000000001c0 .L0 
     /tmp/ccjDSV49.s:330    .text:00000000000001c4 .L0 
     /tmp/ccjDSV49.s:334    .text:00000000000001c4 .L0 
     /tmp/ccjDSV49.s:335    .text:00000000000001c4 .L0 
     /tmp/ccjDSV49.s:340    .text:00000000000001d4 .L0 
     /tmp/ccjDSV49.s:341    .text:00000000000001d4 .L0 
     /tmp/ccjDSV49.s:345    .text:00000000000001e4 .L0 
     /tmp/ccjDSV49.s:346    .text:00000000000001e4 .L0 
     /tmp/ccjDSV49.s:350    .text:00000000000001f4 .L0 
     /tmp/ccjDSV49.s:351    .text:00000000000001f4 .L0 
     /tmp/ccjDSV49.s:355    .text:0000000000000200 .L0 
     /tmp/ccjDSV49.s:356    .text:0000000000000200 .L0 
     /tmp/ccjDSV49.s:360    .text:0000000000000210 .L0 
     /tmp/ccjDSV49.s:361    .text:0000000000000210 .L0 
     /tmp/ccjDSV49.s:364    .text:0000000000000218 .L0 
     /tmp/ccjDSV49.s:365    .text:0000000000000218 .L0 
     /tmp/ccjDSV49.s:373    .text:0000000000000220 .L0 
     /tmp/ccjDSV49.s:374    .text:0000000000000220 .L0 
     /tmp/ccjDSV49.s:379    .text:0000000000000230 .L0 
     /tmp/ccjDSV49.s:380    .text:0000000000000230 .L0 
     /tmp/ccjDSV49.s:384    .text:0000000000000240 .L0 
     /tmp/ccjDSV49.s:385    .text:0000000000000240 .L0 
     /tmp/ccjDSV49.s:389    .text:0000000000000250 .L0 
     /tmp/ccjDSV49.s:390    .text:0000000000000250 .L0 
     /tmp/ccjDSV49.s:394    .text:000000000000025c .L0 
     /tmp/ccjDSV49.s:395    .text:000000000000025c .L0 
     /tmp/ccjDSV49.s:399    .text:000000000000026c .L0 
     /tmp/ccjDSV49.s:400    .text:000000000000026c .L0 
     /tmp/ccjDSV49.s:403    .text:0000000000000274 .L0 
     /tmp/ccjDSV49.s:404    .text:0000000000000274 .L0 
     /tmp/ccjDSV49.s:408    .text:000000000000027c .L0 
     /tmp/ccjDSV49.s:414    .text:000000000000027c _ZN6Thread12createThreadEPmPFvPvES1_
     /tmp/ccjDSV49.s:417    .text:000000000000027c .L0 
     /tmp/ccjDSV49.s:419    .text:000000000000027c .L0 
     /tmp/ccjDSV49.s:420    .text:0000000000000280 .L0 
     /tmp/ccjDSV49.s:426    .text:0000000000000294 .L0 
     /tmp/ccjDSV49.s:427    .text:0000000000000294 .L0 
GAS LISTING /tmp/ccjDSV49.s 			page 22


     /tmp/ccjDSV49.s:428    .text:0000000000000294 .L0 
     /tmp/ccjDSV49.s:429    .text:0000000000000294 .L0 
     /tmp/ccjDSV49.s:430    .text:0000000000000294 .L0 
     /tmp/ccjDSV49.s:432    .text:0000000000000298 .L0 
     /tmp/ccjDSV49.s:434    .text:0000000000000298 .L0 
     /tmp/ccjDSV49.s:440    .text:00000000000002a4 .L0 
     /tmp/ccjDSV49.s:447    .text:00000000000002b0 .L0 
     /tmp/ccjDSV49.s:448    .text:00000000000002b0 .L0 
     /tmp/ccjDSV49.s:449    .text:00000000000002b0 .L0 
     /tmp/ccjDSV49.s:457    .text:00000000000002c8 .L0 
     /tmp/ccjDSV49.s:458    .text:00000000000002c8 .L0 
     /tmp/ccjDSV49.s:464    .text:00000000000002e4 .L0 
     /tmp/ccjDSV49.s:465    .text:00000000000002e4 .L0 
     /tmp/ccjDSV49.s:467    .text:00000000000002e8 .L0 
     /tmp/ccjDSV49.s:468    .text:00000000000002e8 .L0 
     /tmp/ccjDSV49.s:473    .text:00000000000002f4 .L0 
     /tmp/ccjDSV49.s:474    .text:00000000000002f4 .L0 
     /tmp/ccjDSV49.s:481    .text:0000000000000308 .L0 
     /tmp/ccjDSV49.s:482    .text:0000000000000308 .L0 
     /tmp/ccjDSV49.s:486    .text:0000000000000314 .L0 
     /tmp/ccjDSV49.s:487    .text:0000000000000314 .L0 
     /tmp/ccjDSV49.s:489    .text:000000000000031c .L0 
     /tmp/ccjDSV49.s:490    .text:000000000000031c .L0 
     /tmp/ccjDSV49.s:492    .text:0000000000000320 .L0 
     /tmp/ccjDSV49.s:493    .text:0000000000000320 .L0 
     /tmp/ccjDSV49.s:495    .text:0000000000000324 .L0 
     /tmp/ccjDSV49.s:498    .text:0000000000000328 .L0 
     /tmp/ccjDSV49.s:501    .text:000000000000032c .L0 
     /tmp/ccjDSV49.s:504    .text:0000000000000330 .L0 
     /tmp/ccjDSV49.s:508    .text:0000000000000334 .L0 
     /tmp/ccjDSV49.s:512    .text:0000000000000334 .L0 
     /tmp/ccjDSV49.s:513    .text:0000000000000334 .L0 
     /tmp/ccjDSV49.s:518    .text:0000000000000344 .L0 
     /tmp/ccjDSV49.s:519    .text:0000000000000344 .L0 
     /tmp/ccjDSV49.s:523    .text:0000000000000354 .L0 
     /tmp/ccjDSV49.s:524    .text:0000000000000354 .L0 
     /tmp/ccjDSV49.s:528    .text:0000000000000364 .L0 
     /tmp/ccjDSV49.s:529    .text:0000000000000364 .L0 
     /tmp/ccjDSV49.s:533    .text:0000000000000370 .L0 
     /tmp/ccjDSV49.s:534    .text:0000000000000370 .L0 
     /tmp/ccjDSV49.s:538    .text:0000000000000380 .L0 
     /tmp/ccjDSV49.s:539    .text:0000000000000380 .L0 
     /tmp/ccjDSV49.s:542    .text:0000000000000388 .L0 
     /tmp/ccjDSV49.s:543    .text:0000000000000388 .L0 
     /tmp/ccjDSV49.s:547    .text:0000000000000390 .L0 
     /tmp/ccjDSV49.s:553    .text:0000000000000390 _ZN6Thread4exitEv
     /tmp/ccjDSV49.s:556    .text:0000000000000390 .L0 
     /tmp/ccjDSV49.s:557    .text:0000000000000390 .L0 
     /tmp/ccjDSV49.s:558    .text:0000000000000394 .L0 
     /tmp/ccjDSV49.s:562    .text:00000000000003a0 .L0 
     /tmp/ccjDSV49.s:563    .text:00000000000003a0 .L0 
     /tmp/ccjDSV49.s:564    .text:00000000000003a0 .L0 
     /tmp/ccjDSV49.s:566    .text:00000000000003a4 .L0 
     /tmp/ccjDSV49.s:568    .text:00000000000003a4 .L0 
     /tmp/ccjDSV49.s:569    .text:00000000000003a4 .L0 
     /tmp/ccjDSV49.s:572    .text:00000000000003ac .L0 
     /tmp/ccjDSV49.s:577    .text:00000000000003b0 .L0 
GAS LISTING /tmp/ccjDSV49.s 			page 23


     /tmp/ccjDSV49.s:583    .text:00000000000003b8 .L0 
     /tmp/ccjDSV49.s:584    .text:00000000000003b8 .L0 
     /tmp/ccjDSV49.s:585    .text:00000000000003b8 .L0 
     /tmp/ccjDSV49.s:591    .text:00000000000003cc .L0 
     /tmp/ccjDSV49.s:592    .text:00000000000003cc .L0 
     /tmp/ccjDSV49.s:595    .text:00000000000003d4 .L0 
     /tmp/ccjDSV49.s:596    .text:00000000000003d4 .L0 
     /tmp/ccjDSV49.s:598    .text:00000000000003dc .L0 
     /tmp/ccjDSV49.s:599    .text:00000000000003dc .L0 
     /tmp/ccjDSV49.s:601    .text:00000000000003e0 .L0 
     /tmp/ccjDSV49.s:602    .text:00000000000003e0 .L0 
     /tmp/ccjDSV49.s:604    .text:00000000000003e4 .L0 
     /tmp/ccjDSV49.s:607    .text:00000000000003e8 .L0 
     /tmp/ccjDSV49.s:611    .text:00000000000003ec .L0 
     /tmp/ccjDSV49.s:615    .text:00000000000003ec .L0 
     /tmp/ccjDSV49.s:616    .text:00000000000003ec .L0 
     /tmp/ccjDSV49.s:621    .text:00000000000003fc .L0 
     /tmp/ccjDSV49.s:622    .text:00000000000003fc .L0 
     /tmp/ccjDSV49.s:626    .text:000000000000040c .L0 
     /tmp/ccjDSV49.s:627    .text:000000000000040c .L0 
     /tmp/ccjDSV49.s:631    .text:000000000000041c .L0 
     /tmp/ccjDSV49.s:632    .text:000000000000041c .L0 
     /tmp/ccjDSV49.s:636    .text:0000000000000428 .L0 
     /tmp/ccjDSV49.s:637    .text:0000000000000428 .L0 
     /tmp/ccjDSV49.s:641    .text:0000000000000438 .L0 
     /tmp/ccjDSV49.s:642    .text:0000000000000438 .L0 
     /tmp/ccjDSV49.s:645    .text:0000000000000440 .L0 
     /tmp/ccjDSV49.s:646    .text:0000000000000440 .L0 
     /tmp/ccjDSV49.s:650    .text:0000000000000448 .L0 
     /tmp/ccjDSV49.s:679    .bss:0000000000000010 _ZN6Thread11pAllThreadsE
     /tmp/ccjDSV49.s:664    .data:0000000000000000 _ZN6Thread14nrTotalThreadsE
     /tmp/ccjDSV49.s:683    .bss:0000000000000330 _ZN6Thread20switchedToUserThreadE
     /tmp/ccjDSV49.s:688    .bss:0000000000000338 _ZN6Thread16timeSliceCounterE
     /tmp/ccjDSV49.s:675    .bss:0000000000000008 _ZN6Thread15pRunningContextE
     /tmp/ccjDSV49.s:671    .bss:0000000000000000 _ZN6Thread8pRunningE
     /tmp/ccjDSV49.s:661    .data:0000000000000000 .LANCHOR1
     /tmp/ccjDSV49.s:668    .bss:0000000000000000 .LANCHOR0
     /tmp/ccjDSV49.s:697    .text:0000000000000448 .L0 
     /tmp/ccjDSV49.s:61     .text:000000000000003c .L0 
     /tmp/ccjDSV49.s:101    .text:000000000000006c .L0 
     /tmp/ccjDSV49.s:113    .rodata.str1.8:0000000000000000 .LC0
     /tmp/ccjDSV49.s:209    .text:00000000000000f0 .L0 
     /tmp/ccjDSV49.s:116    .rodata.str1.8:0000000000000028 .LC1
     /tmp/ccjDSV49.s:215    .text:0000000000000100 .L0 
     /tmp/ccjDSV49.s:119    .rodata.str1.8:0000000000000038 .LC2
     /tmp/ccjDSV49.s:220    .text:0000000000000110 .L0 
     /tmp/ccjDSV49.s:122    .rodata.str1.8:0000000000000048 .LC3
     /tmp/ccjDSV49.s:230    .text:000000000000012c .L0 
     /tmp/ccjDSV49.s:263    .text:000000000000015c .L0 
     /tmp/ccjDSV49.s:276    .text:000000000000016c .L0 
     /tmp/ccjDSV49.s:313    .text:00000000000001a4 .L0 
     /tmp/ccjDSV49.s:335    .text:00000000000001c4 .L0 
     /tmp/ccjDSV49.s:341    .text:00000000000001d4 .L0 
     /tmp/ccjDSV49.s:346    .text:00000000000001e4 .L0 
     /tmp/ccjDSV49.s:356    .text:0000000000000200 .L0 
     /tmp/ccjDSV49.s:374    .text:0000000000000220 .L0 
     /tmp/ccjDSV49.s:380    .text:0000000000000230 .L0 
GAS LISTING /tmp/ccjDSV49.s 			page 24


     /tmp/ccjDSV49.s:385    .text:0000000000000240 .L0 
     /tmp/ccjDSV49.s:395    .text:000000000000025c .L0 
     /tmp/ccjDSV49.s:434    .text:0000000000000298 .L0 
     /tmp/ccjDSV49.s:458    .text:00000000000002c8 .L0 
     /tmp/ccjDSV49.s:460    .text:00000000000002d4 .L0 
     /tmp/ccjDSV49.s:513    .text:0000000000000334 .L0 
     /tmp/ccjDSV49.s:519    .text:0000000000000344 .L0 
     /tmp/ccjDSV49.s:524    .text:0000000000000354 .L0 
     /tmp/ccjDSV49.s:534    .text:0000000000000370 .L0 
     /tmp/ccjDSV49.s:616    .text:00000000000003ec .L0 
     /tmp/ccjDSV49.s:622    .text:00000000000003fc .L0 
     /tmp/ccjDSV49.s:627    .text:000000000000040c .L0 
     /tmp/ccjDSV49.s:637    .text:0000000000000428 .L0 
     /tmp/ccjDSV49.s:203    .text:00000000000000f0 .L11
     /tmp/ccjDSV49.s:182    .text:00000000000000d4 .L9
     /tmp/ccjDSV49.s:329    .text:00000000000001c4 .L16
     /tmp/ccjDSV49.s:367    .text:0000000000000220 .L17
     /tmp/ccjDSV49.s:507    .text:0000000000000334 .L21
     /tmp/ccjDSV49.s:610    .text:00000000000003ec .L25
     /tmp/ccjDSV49.s:2198   .debug_abbrev:0000000000000000 .Ldebug_abbrev0
     /tmp/ccjDSV49.s:4037   .debug_str:0000000000000602 .LASF112
     /tmp/ccjDSV49.s:3859   .debug_str:00000000000000d0 .LASF113
     /tmp/ccjDSV49.s:3995   .debug_str:00000000000004b9 .LASF114
     /tmp/ccjDSV49.s:5      .text:0000000000000000 .Ltext0
     /tmp/ccjDSV49.s:691    .text:0000000000000448 .Letext0
     /tmp/ccjDSV49.s:3831   .debug_line:0000000000000000 .Ldebug_line0
     /tmp/ccjDSV49.s:3955   .debug_str:0000000000000394 .LASF0
     /tmp/ccjDSV49.s:3967   .debug_str:00000000000003fc .LASF1
     /tmp/ccjDSV49.s:3941   .debug_str:000000000000032e .LASF2
     /tmp/ccjDSV49.s:3915   .debug_str:0000000000000283 .LASF4
     /tmp/ccjDSV49.s:4013   .debug_str:000000000000053b .LASF3
     /tmp/ccjDSV49.s:3855   .debug_str:00000000000000b9 .LASF5
     /tmp/ccjDSV49.s:3971   .debug_str:0000000000000420 .LASF6
     /tmp/ccjDSV49.s:3953   .debug_str:0000000000000381 .LASF7
     /tmp/ccjDSV49.s:4045   .debug_str:00000000000006ed .LASF8
     /tmp/ccjDSV49.s:3897   .debug_str:00000000000001f6 .LASF9
     /tmp/ccjDSV49.s:3989   .debug_str:0000000000000486 .LASF10
     /tmp/ccjDSV49.s:4039   .debug_str:00000000000006c6 .LASF11
     /tmp/ccjDSV49.s:3857   .debug_str:00000000000000c0 .LASF12
     /tmp/ccjDSV49.s:3841   .debug_str:0000000000000069 .LASF13
     /tmp/ccjDSV49.s:3867   .debug_str:000000000000011f .LASF14
     /tmp/ccjDSV49.s:4009   .debug_str:000000000000051a .LASF15
     /tmp/ccjDSV49.s:3879   .debug_str:0000000000000164 .LASF16
     /tmp/ccjDSV49.s:4041   .debug_str:00000000000006d5 .LASF41
     /tmp/ccjDSV49.s:3901   .debug_str:000000000000020a .LASF115
     /tmp/ccjDSV49.s:3981   .debug_str:0000000000000462 .LASF17
     /tmp/ccjDSV49.s:3947   .debug_str:0000000000000352 .LASF18
     /tmp/ccjDSV49.s:3987   .debug_str:0000000000000480 .LASF19
     /tmp/ccjDSV49.s:3945   .debug_str:0000000000000345 .LASF20
     /tmp/ccjDSV49.s:3933   .debug_str:00000000000002ed .LASF21
     /tmp/ccjDSV49.s:3979   .debug_str:0000000000000456 .LASF22
     /tmp/ccjDSV49.s:3963   .debug_str:00000000000003d6 .LASF23
     /tmp/ccjDSV49.s:4029   .debug_str:00000000000005d1 .LASF24
     /tmp/ccjDSV49.s:4015   .debug_str:000000000000054d .LASF25
     /tmp/ccjDSV49.s:3913   .debug_str:0000000000000277 .LASF26
     /tmp/ccjDSV49.s:3887   .debug_str:00000000000001a7 .LASF27
     /tmp/ccjDSV49.s:4035   .debug_str:00000000000005f6 .LASF28
GAS LISTING /tmp/ccjDSV49.s 			page 25


     /tmp/ccjDSV49.s:3881   .debug_str:000000000000017a .LASF30
     /tmp/ccjDSV49.s:3985   .debug_str:0000000000000474 .LASF47
     /tmp/ccjDSV49.s:4005   .debug_str:00000000000004f6 .LASF48
     /tmp/ccjDSV49.s:3925   .debug_str:00000000000002aa .LASF40
     /tmp/ccjDSV49.s:3837   .debug_str:0000000000000023 .LASF42
     /tmp/ccjDSV49.s:4003   .debug_str:00000000000004f1 .LASF34
     /tmp/ccjDSV49.s:3935   .debug_str:00000000000002f9 .LASF29
     /tmp/ccjDSV49.s:3853   .debug_str:00000000000000a7 .LASF31
     /tmp/ccjDSV49.s:3849   .debug_str:0000000000000096 .LASF32
     /tmp/ccjDSV49.s:3919   .debug_str:0000000000000295 .LASF33
     /tmp/ccjDSV49.s:3845   .debug_str:0000000000000084 .LASF35
     /tmp/ccjDSV49.s:3921   .debug_str:000000000000029a .LASF36
     /tmp/ccjDSV49.s:4065   .debug_str:0000000000000792 .LASF37
     /tmp/ccjDSV49.s:3959   .debug_str:00000000000003aa .LASF38
     /tmp/ccjDSV49.s:3899   .debug_str:0000000000000204 .LASF39
     /tmp/ccjDSV49.s:3993   .debug_str:00000000000004a2 .LASF43
     /tmp/ccjDSV49.s:3895   .debug_str:00000000000001e7 .LASF44
     /tmp/ccjDSV49.s:3977   .debug_str:0000000000000451 .LASF45
     /tmp/ccjDSV49.s:3927   .debug_str:00000000000002b7 .LASF46
     /tmp/ccjDSV49.s:3843   .debug_str:0000000000000079 .LASF61
     /tmp/ccjDSV49.s:3891   .debug_str:00000000000001bb .LASF63
     /tmp/ccjDSV49.s:4019   .debug_str:000000000000057a .LASF49
     /tmp/ccjDSV49.s:3957   .debug_str:00000000000003a1 .LASF50
     /tmp/ccjDSV49.s:3889   .debug_str:00000000000001b6 .LASF51
     /tmp/ccjDSV49.s:3943   .debug_str:000000000000033c .LASF52
     /tmp/ccjDSV49.s:3893   .debug_str:00000000000001d4 .LASF75
     /tmp/ccjDSV49.s:4023   .debug_str:00000000000005a4 .LASF56
     /tmp/ccjDSV49.s:4031   .debug_str:00000000000005e1 .LASF53
     /tmp/ccjDSV49.s:4055   .debug_str:0000000000000744 .LASF54
     /tmp/ccjDSV49.s:3835   .debug_str:0000000000000006 .LASF58
     /tmp/ccjDSV49.s:3951   .debug_str:0000000000000377 .LASF55
     /tmp/ccjDSV49.s:3911   .debug_str:000000000000026d .LASF57
     /tmp/ccjDSV49.s:3937   .debug_str:00000000000002fe .LASF59
     /tmp/ccjDSV49.s:4047   .debug_str:00000000000006fd .LASF60
     /tmp/ccjDSV49.s:4053   .debug_str:000000000000073b .LASF62
     /tmp/ccjDSV49.s:3863   .debug_str:00000000000000ef .LASF64
     /tmp/ccjDSV49.s:3923   .debug_str:00000000000002a2 .LASF65
     /tmp/ccjDSV49.s:3905   .debug_str:000000000000022d .LASF66
     /tmp/ccjDSV49.s:4043   .debug_str:00000000000006dc .LASF67
     /tmp/ccjDSV49.s:3839   .debug_str:0000000000000048 .LASF68
     /tmp/ccjDSV49.s:4057   .debug_str:0000000000000749 .LASF69
     /tmp/ccjDSV49.s:4059   .debug_str:000000000000075c .LASF70
     /tmp/ccjDSV49.s:3931   .debug_str:00000000000002df .LASF71
     /tmp/ccjDSV49.s:3965   .debug_str:00000000000003eb .LASF72
     /tmp/ccjDSV49.s:3975   .debug_str:000000000000044c .LASF73
     /tmp/ccjDSV49.s:3983   .debug_str:000000000000046a .LASF74
     /tmp/ccjDSV49.s:3907   .debug_str:0000000000000245 .LASF76
     /tmp/ccjDSV49.s:3997   .debug_str:00000000000004cd .LASF79
     /tmp/ccjDSV49.s:3869   .debug_str:000000000000012b .LASF81
     /tmp/ccjDSV49.s:3875   .debug_str:0000000000000157 .LASF77
     /tmp/ccjDSV49.s:3865   .debug_str:0000000000000107 .LASF78
     /tmp/ccjDSV49.s:3949   .debug_str:000000000000035c .LASF116
     /tmp/ccjDSV49.s:3851   .debug_str:000000000000009c .LASF80
     /tmp/ccjDSV49.s:4025   .debug_str:00000000000005ad .LASF82
     /tmp/ccjDSV49.s:3871   .debug_str:000000000000014b .LASF83
     /tmp/ccjDSV49.s:3939   .debug_str:000000000000031c .LASF84
     /tmp/ccjDSV49.s:4051   .debug_str:0000000000000726 .LASF85
GAS LISTING /tmp/ccjDSV49.s 			page 26


     /tmp/ccjDSV49.s:3903   .debug_str:0000000000000210 .LASF86
     /tmp/ccjDSV49.s:4049   .debug_str:0000000000000708 .LASF87
     /tmp/ccjDSV49.s:3961   .debug_str:00000000000003b4 .LASF88
     /tmp/ccjDSV49.s:4017   .debug_str:000000000000055e .LASF89
     /tmp/ccjDSV49.s:3973   .debug_str:0000000000000433 .LASF90
     /tmp/ccjDSV49.s:554    .text:0000000000000390 .LFB20
     /tmp/ccjDSV49.s:651    .text:0000000000000448 .LFE20
     /tmp/ccjDSV49.s:3200   .debug_loc:0000000000000000 .LLST27
     /tmp/ccjDSV49.s:574    .text:00000000000003b0 .LBB28
     /tmp/ccjDSV49.s:3799   .debug_ranges:0000000000000000 .Ldebug_ranges0
     /tmp/ccjDSV49.s:3215   .debug_loc:0000000000000049 .LLST28
     /tmp/ccjDSV49.s:3230   .debug_loc:0000000000000083 .LLST29
     /tmp/ccjDSV49.s:3245   .debug_loc:00000000000000cb .LLST30
     /tmp/ccjDSV49.s:619    .text:00000000000003fc .LVL78
     /tmp/ccjDSV49.s:624    .text:000000000000040c .LVL79
     /tmp/ccjDSV49.s:629    .text:000000000000041c .LVL80
     /tmp/ccjDSV49.s:634    .text:0000000000000428 .LVL81
     /tmp/ccjDSV49.s:639    .text:0000000000000438 .LVL82
     /tmp/ccjDSV49.s:643    .text:0000000000000440 .LVL83
     /tmp/ccjDSV49.s:647    .text:0000000000000448 .LVL84
     /tmp/ccjDSV49.s:570    .text:00000000000003ac .LVL69
     /tmp/ccjDSV49.s:586    .text:00000000000003c0 .LVL72
     /tmp/ccjDSV49.s:589    .text:00000000000003cc .LVL73
     /tmp/ccjDSV49.s:593    .text:00000000000003d4 .LVL74
     /tmp/ccjDSV49.s:250    .text:000000000000014c .LFB19
     /tmp/ccjDSV49.s:409    .text:000000000000027c .LFE19
     /tmp/ccjDSV49.s:3999   .debug_str:00000000000004dc .LASF95
     /tmp/ccjDSV49.s:3264   .debug_loc:0000000000000109 .LLST9
     /tmp/ccjDSV49.s:3289   .debug_loc:000000000000016b .LLST10
     /tmp/ccjDSV49.s:3314   .debug_loc:00000000000001cd .LLST11
     /tmp/ccjDSV49.s:3883   .debug_str:0000000000000194 .LASF91
     /tmp/ccjDSV49.s:3339   .debug_loc:000000000000022f .LLST12
     /tmp/ccjDSV49.s:266    .text:0000000000000168 .LBB12
     /tmp/ccjDSV49.s:3364   .debug_loc:0000000000000291 .LLST13
     /tmp/ccjDSV49.s:3379   .debug_loc:00000000000002cb .LLST14
     /tmp/ccjDSV49.s:3394   .debug_loc:0000000000000313 .LLST15
     /tmp/ccjDSV49.s:338    .text:00000000000001d4 .LVL31
     /tmp/ccjDSV49.s:343    .text:00000000000001e4 .LVL32
     /tmp/ccjDSV49.s:348    .text:00000000000001f4 .LVL33
     /tmp/ccjDSV49.s:353    .text:0000000000000200 .LVL34
     /tmp/ccjDSV49.s:358    .text:0000000000000210 .LVL35
     /tmp/ccjDSV49.s:362    .text:0000000000000218 .LVL36
     /tmp/ccjDSV49.s:366    .text:0000000000000220 .LVL37
     /tmp/ccjDSV49.s:286    .text:0000000000000188 .LBB15
     /tmp/ccjDSV49.s:3421   .debug_loc:000000000000038b .LLST16
     /tmp/ccjDSV49.s:3436   .debug_loc:00000000000003c5 .LLST17
     /tmp/ccjDSV49.s:3451   .debug_loc:000000000000040d .LLST18
     /tmp/ccjDSV49.s:377    .text:0000000000000230 .LVL39
     /tmp/ccjDSV49.s:382    .text:0000000000000240 .LVL40
     /tmp/ccjDSV49.s:387    .text:0000000000000250 .LVL41
     /tmp/ccjDSV49.s:392    .text:000000000000025c .LVL42
     /tmp/ccjDSV49.s:397    .text:000000000000026c .LVL43
     /tmp/ccjDSV49.s:401    .text:0000000000000274 .LVL44
     /tmp/ccjDSV49.s:405    .text:000000000000027c .LVL45
     /tmp/ccjDSV49.s:4027   .debug_str:00000000000005c9 .LASF92
     /tmp/ccjDSV49.s:3909   .debug_str:0000000000000259 .LASF93
     /tmp/ccjDSV49.s:10     .text:0000000000000000 .LFB18
GAS LISTING /tmp/ccjDSV49.s 			page 27


     /tmp/ccjDSV49.s:43     .text:0000000000000030 .LFE18
     /tmp/ccjDSV49.s:3991   .debug_str:0000000000000495 .LASF94
     /tmp/ccjDSV49.s:3481   .debug_loc:0000000000000465 .LLST0
     /tmp/ccjDSV49.s:3495   .debug_loc:000000000000049e .LLST1
     /tmp/ccjDSV49.s:3509   .debug_loc:00000000000004d7 .LLST2
     /tmp/ccjDSV49.s:28     .text:0000000000000018 .LVL2
     /tmp/ccjDSV49.s:32     .text:0000000000000020 .LVL3
     /tmp/ccjDSV49.s:129    .text:0000000000000080 .LFB17
     /tmp/ccjDSV49.s:244    .text:000000000000014c .LFE17
     /tmp/ccjDSV49.s:3523   .debug_loc:0000000000000510 .LLST4
     /tmp/ccjDSV49.s:3873   .debug_str:0000000000000151 .LASF96
     /tmp/ccjDSV49.s:3552   .debug_loc:0000000000000585 .LLST5
     /tmp/ccjDSV49.s:148    .text:000000000000009c .LBB4
     /tmp/ccjDSV49.s:3569   .debug_loc:00000000000005d1 .LLST6
     /tmp/ccjDSV49.s:3584   .debug_loc:000000000000060b .LLST7
     /tmp/ccjDSV49.s:3599   .debug_loc:0000000000000653 .LLST8
     /tmp/ccjDSV49.s:212    .text:0000000000000100 .LVL17
     /tmp/ccjDSV49.s:217    .text:0000000000000110 .LVL18
     /tmp/ccjDSV49.s:222    .text:0000000000000120 .LVL19
     /tmp/ccjDSV49.s:227    .text:000000000000012c .LVL20
     /tmp/ccjDSV49.s:232    .text:000000000000013c .LVL21
     /tmp/ccjDSV49.s:236    .text:0000000000000144 .LVL22
     /tmp/ccjDSV49.s:240    .text:000000000000014c .LVL23
     /tmp/ccjDSV49.s:161    .text:00000000000000ac .LVL9
     /tmp/ccjDSV49.s:165    .text:00000000000000bc .LVL10
     /tmp/ccjDSV49.s:83     .text:000000000000005c .LFB16
     /tmp/ccjDSV49.s:109    .text:0000000000000080 .LFE16
     /tmp/ccjDSV49.s:415    .text:000000000000027c .LFB15
     /tmp/ccjDSV49.s:548    .text:0000000000000390 .LFE15
     /tmp/ccjDSV49.s:3618   .debug_loc:0000000000000691 .LLST19
     /tmp/ccjDSV49.s:3643   .debug_loc:00000000000006f3 .LLST20
     /tmp/ccjDSV49.s:3672   .debug_loc:0000000000000768 .LLST21
     /tmp/ccjDSV49.s:3701   .debug_loc:00000000000007dd .LLST22
     /tmp/ccjDSV49.s:3708   .debug_loc:0000000000000800 .LLST23
     /tmp/ccjDSV49.s:437    .text:00000000000002a4 .LBB22
     /tmp/ccjDSV49.s:3719   .debug_loc:0000000000000836 .LLST24
     /tmp/ccjDSV49.s:3732   .debug_loc:000000000000086e .LLST25
     /tmp/ccjDSV49.s:3747   .debug_loc:00000000000008b6 .LLST26
     /tmp/ccjDSV49.s:516    .text:0000000000000344 .LVL62
     /tmp/ccjDSV49.s:521    .text:0000000000000354 .LVL63
     /tmp/ccjDSV49.s:526    .text:0000000000000364 .LVL64
     /tmp/ccjDSV49.s:531    .text:0000000000000370 .LVL65
     /tmp/ccjDSV49.s:536    .text:0000000000000380 .LVL66
     /tmp/ccjDSV49.s:540    .text:0000000000000388 .LVL67
     /tmp/ccjDSV49.s:544    .text:0000000000000390 .LVL68
     /tmp/ccjDSV49.s:450    .text:00000000000002b8 .LVL49
     /tmp/ccjDSV49.s:453    .text:00000000000002c4 .LVL50
     /tmp/ccjDSV49.s:469    .text:00000000000002f0 .LVL52
     /tmp/ccjDSV49.s:479    .text:0000000000000308 .LVL55
     /tmp/ccjDSV49.s:484    .text:0000000000000314 .LVL56
     /tmp/ccjDSV49.s:49     .text:0000000000000030 .LFB14
     /tmp/ccjDSV49.s:77     .text:000000000000005c .LFE14
     /tmp/ccjDSV49.s:3774   .debug_loc:000000000000092e .LLST3
     /tmp/ccjDSV49.s:4007   .debug_str:0000000000000512 .LASF97
     /tmp/ccjDSV49.s:4033   .debug_str:00000000000005e6 .LASF98
     /tmp/ccjDSV49.s:3833   .debug_str:0000000000000000 .LASF99
     /tmp/ccjDSV49.s:3877   .debug_str:000000000000015f .LASF100
GAS LISTING /tmp/ccjDSV49.s 			page 28


     /tmp/ccjDSV49.s:3885   .debug_str:00000000000001a2 .LASF101
     /tmp/ccjDSV49.s:3861   .debug_str:00000000000000df .LASF102
     /tmp/ccjDSV49.s:3847   .debug_str:000000000000008c .LASF104
     /tmp/ccjDSV49.s:3917   .debug_str:000000000000028a .LASF103
     /tmp/ccjDSV49.s:4061   .debug_str:000000000000077f .LASF105
     /tmp/ccjDSV49.s:4021   .debug_str:0000000000000594 .LASF106
     /tmp/ccjDSV49.s:4011   .debug_str:0000000000000530 .LASF107
     /tmp/ccjDSV49.s:4001   .debug_str:00000000000004e1 .LASF108
     /tmp/ccjDSV49.s:3929   .debug_str:00000000000002d4 .LASF109
     /tmp/ccjDSV49.s:3969   .debug_str:000000000000040f .LASF110
     /tmp/ccjDSV49.s:4063   .debug_str:0000000000000786 .LASF111
     /tmp/ccjDSV49.s:605    .text:00000000000003e4 .LVL75
     /tmp/ccjDSV49.s:609    .text:00000000000003ec .LVL76
     /tmp/ccjDSV49.s:617    .text:00000000000003f4 .LVL77
     /tmp/ccjDSV49.s:573    .text:00000000000003b0 .LVL70
     /tmp/ccjDSV49.s:580    .text:00000000000003b8 .LVL71
     /tmp/ccjDSV49.s:253    .text:000000000000014c .LVL24
     /tmp/ccjDSV49.s:336    .text:00000000000001cc .LVL30
     /tmp/ccjDSV49.s:375    .text:0000000000000228 .LVL38
     /tmp/ccjDSV49.s:265    .text:0000000000000168 .LVL25
     /tmp/ccjDSV49.s:271    .text:000000000000016c .LVL26
     /tmp/ccjDSV49.s:328    .text:00000000000001c4 .LVL29
     /tmp/ccjDSV49.s:285    .text:0000000000000188 .LVL27
     /tmp/ccjDSV49.s:291    .text:000000000000018c .LVL28
     /tmp/ccjDSV49.s:14     .text:0000000000000000 .LVL0
     /tmp/ccjDSV49.s:26     .text:0000000000000014 .LVL1
     /tmp/ccjDSV49.s:132    .text:0000000000000080 .LVL6
     /tmp/ccjDSV49.s:198    .text:00000000000000e8 .LVL14
     /tmp/ccjDSV49.s:202    .text:00000000000000f0 .LVL15
     /tmp/ccjDSV49.s:210    .text:00000000000000f8 .LVL16
     /tmp/ccjDSV49.s:172    .text:00000000000000c8 .LVL11
     /tmp/ccjDSV49.s:181    .text:00000000000000d4 .LVL12
     /tmp/ccjDSV49.s:187    .text:00000000000000d8 .LVL13
     /tmp/ccjDSV49.s:147    .text:000000000000009c .LVL7
     /tmp/ccjDSV49.s:155    .text:00000000000000a4 .LVL8
     /tmp/ccjDSV49.s:418    .text:000000000000027c .LVL46
     /tmp/ccjDSV49.s:506    .text:0000000000000334 .LVL60
     /tmp/ccjDSV49.s:514    .text:000000000000033c .LVL61
     /tmp/ccjDSV49.s:502    .text:000000000000032c .LVL59
     /tmp/ccjDSV49.s:499    .text:0000000000000328 .LVL58
     /tmp/ccjDSV49.s:455    .text:00000000000002c8 .LVL51
     /tmp/ccjDSV49.s:496    .text:0000000000000324 .LVL57
     /tmp/ccjDSV49.s:471    .text:00000000000002f4 .LVL53
     /tmp/ccjDSV49.s:477    .text:0000000000000300 .LVL54
     /tmp/ccjDSV49.s:436    .text:00000000000002a4 .LVL47
     /tmp/ccjDSV49.s:444    .text:00000000000002b0 .LVL48
     /tmp/ccjDSV49.s:52     .text:0000000000000030 .LVL4
     /tmp/ccjDSV49.s:66     .text:000000000000004c .LVL5
     /tmp/ccjDSV49.s:698    .debug_info:0000000000000000 .Ldebug_info0
     /tmp/ccjDSV49.s:157    .text:00000000000000a4 .LBE4
     /tmp/ccjDSV49.s:205    .text:00000000000000f0 .LBB7
     /tmp/ccjDSV49.s:242    .text:000000000000014c .LBE7
     /tmp/ccjDSV49.s:273    .text:000000000000016c .LBE12
     /tmp/ccjDSV49.s:331    .text:00000000000001c4 .LBB18
     /tmp/ccjDSV49.s:369    .text:0000000000000220 .LBE18
     /tmp/ccjDSV49.s:293    .text:000000000000018c .LBE15
     /tmp/ccjDSV49.s:370    .text:0000000000000220 .LBB19
GAS LISTING /tmp/ccjDSV49.s 			page 29


     /tmp/ccjDSV49.s:407    .text:000000000000027c .LBE19
     /tmp/ccjDSV49.s:446    .text:00000000000002b0 .LBE22
     /tmp/ccjDSV49.s:509    .text:0000000000000334 .LBB25
     /tmp/ccjDSV49.s:546    .text:0000000000000390 .LBE25
     /tmp/ccjDSV49.s:582    .text:00000000000003b8 .LBE28
     /tmp/ccjDSV49.s:612    .text:00000000000003ec .LBB31
     /tmp/ccjDSV49.s:649    .text:0000000000000448 .LBE31

UNDEFINED SYMBOLS
_Z11thread_exitv
_ZN8MemAlloc3getEv
_ZN8MemAlloc8allocMemEm
_Z9putStringPKc
_Z6putInti
_Z10putNewlinev
_Z10stopKernelv
_ZN9Scheduler3putEP6Thread
_ZN8MemAlloc7freeMemEPv
_ZN9Scheduler14dispatchToNextEv
