GAS LISTING /tmp/cccuriWu.s 			page 1


   1              		.file	"thread.cpp"
   2              		.option pic
   3              		.option norelax
   4              		.text
   5              	.Ltext0:
   6              		.align	2
   7              		.globl	_Z7wrappermPFvPvES_
   9              	_Z7wrappermPFvPvES_:
  10              	.LFB21:
  11              		.file 1 "src/thread.cpp"
   1:src/thread.cpp **** #include "../h/thread.h"
   2:src/thread.cpp **** #include "../h/alloc.h"
   3:src/thread.cpp **** #include "../h/scheduler.h"
   4:src/thread.cpp **** 
   5:src/thread.cpp **** Thread* Thread::pRunning = nullptr;
   6:src/thread.cpp **** uint64* Thread::pRunningContext = nullptr;
   7:src/thread.cpp **** uint64 Thread::timeSliceCounter = 0;
   8:src/thread.cpp **** bool Thread::switchedToUserThread = 0;
   9:src/thread.cpp **** uint64 Thread::nrTotalThreads = 1;
  10:src/thread.cpp **** Thread* Thread::pAllThreads[MAX_NR_TOTAL_THREADS];
  11:src/thread.cpp **** uint64 Thread::initialUserMemoryUsage;
  12:src/thread.cpp **** 
  13:src/thread.cpp **** void Thread::signalDone()
  14:src/thread.cpp **** {
  15:src/thread.cpp ****     Thread* pCur = pWaitingHead;
  16:src/thread.cpp **** 
  17:src/thread.cpp ****     while(pCur)
  18:src/thread.cpp ****     {
  19:src/thread.cpp ****         pCur->state = READY;
  20:src/thread.cpp ****         Scheduler::put(pCur);
  21:src/thread.cpp **** 
  22:src/thread.cpp ****         pCur = pCur->pNext;
  23:src/thread.cpp ****     }
  24:src/thread.cpp **** }
  25:src/thread.cpp **** 
  26:src/thread.cpp **** void Thread::join(uint64 id)
  27:src/thread.cpp **** {
  28:src/thread.cpp ****     Thread* oldRunning = Thread::getPRunning();
  29:src/thread.cpp **** 
  30:src/thread.cpp ****     Thread* t = pAllThreads[id];
  31:src/thread.cpp **** 
  32:src/thread.cpp ****     extern Thread kernelThread;
  33:src/thread.cpp ****     assert(oldRunning != &kernelThread); // you're only supposed to open user threads with system c
  34:src/thread.cpp **** 
  35:src/thread.cpp ****     putU64(id);
  36:src/thread.cpp **** 
  37:src/thread.cpp ****     if(t->done == true)
  38:src/thread.cpp ****         return;
  39:src/thread.cpp **** 
  40:src/thread.cpp ****     if(t->pWaitingHead == nullptr)
  41:src/thread.cpp ****     {
  42:src/thread.cpp ****         t->pWaitingHead = oldRunning;
  43:src/thread.cpp ****     }
  44:src/thread.cpp ****     else
  45:src/thread.cpp ****     {
  46:src/thread.cpp ****         Thread* pCur = t->pWaitingHead;
  47:src/thread.cpp ****         while(pCur->pNext)
GAS LISTING /tmp/cccuriWu.s 			page 2


  48:src/thread.cpp ****         {
  49:src/thread.cpp ****             pCur = pCur->pNext;
  50:src/thread.cpp ****         }
  51:src/thread.cpp **** 
  52:src/thread.cpp ****         pCur->pNext = oldRunning;
  53:src/thread.cpp ****     }
  54:src/thread.cpp **** 
  55:src/thread.cpp ****     oldRunning->pNext = nullptr;
  56:src/thread.cpp ****     oldRunning->state = SUSPENDED;
  57:src/thread.cpp **** 
  58:src/thread.cpp ****     Scheduler::dispatchToNext();
  59:src/thread.cpp **** }
  60:src/thread.cpp **** 
  61:src/thread.cpp **** void Thread::switchToUser()
  62:src/thread.cpp **** {
  63:src/thread.cpp ****     uint64 scause;
  64:src/thread.cpp ****     __asm__ volatile ("csrr %[name], scause" : [name] "=r"(scause));
  65:src/thread.cpp ****     bool cameFromKernelMode = ((scause & (1 << 8)) == 0);
  66:src/thread.cpp **** 
  67:src/thread.cpp ****     if(!cameFromKernelMode) // if user thread calls this it does nothing
  68:src/thread.cpp ****     {
  69:src/thread.cpp ****         assert(false); // temp
  70:src/thread.cpp ****         assert(Thread::pRunning->id != 0);
  71:src/thread.cpp ****         return;
  72:src/thread.cpp ****     }
  73:src/thread.cpp **** 
  74:src/thread.cpp ****     assert(Thread::pRunning->id == 0);
  75:src/thread.cpp **** 
  76:src/thread.cpp ****     Scheduler::dispatchToNext();
  77:src/thread.cpp **** 
  78:src/thread.cpp ****     assert(Thread::getPRunning()->id == 1);
  79:src/thread.cpp **** 
  80:src/thread.cpp **** //    __asm__ volatile ("csrs sstatus, 0x6"); // TODO: probably should be removed when i add permis
  81:src/thread.cpp **** //    __asm__ volatile ("mv x10, x10");
  82:src/thread.cpp **** //    __asm__ volatile ("mv x10, x10");
  83:src/thread.cpp **** //    __asm__ volatile ("mv x10, x10");
  84:src/thread.cpp **** //    putString("KITA PENIS");
  85:src/thread.cpp **** 
  86:src/thread.cpp **** //    __asm__ volatile ("csrc sstatus, 0x9");
  87:src/thread.cpp **** //    __asm__ volatile ("csrc sstatus, 0x8");
  88:src/thread.cpp **** //    __asm__ volatile ("csrw sstatus, 0"); // TODO: radi preko csrc jer ovako menjam sve
  89:src/thread.cpp **** }
  90:src/thread.cpp **** 
  91:src/thread.cpp **** void Thread::setPRunning(Thread* p)
  92:src/thread.cpp **** {
  93:src/thread.cpp ****     pRunning = p;
  94:src/thread.cpp ****     pRunningContext = &(p->context[0]);
  95:src/thread.cpp **** }
  96:src/thread.cpp **** 
  97:src/thread.cpp **** int Thread::createThread(uint64* id, Body body, void* arg)
  98:src/thread.cpp **** {
  99:src/thread.cpp ****     assert(nrTotalThreads < MAX_NR_TOTAL_THREADS);
 100:src/thread.cpp **** 
 101:src/thread.cpp ****     Thread* t = (Thread*)MemAlloc::get()->allocMem(sizeof(Thread));
 102:src/thread.cpp ****     pAllThreads[nrTotalThreads] = t;
 103:src/thread.cpp **** 
 104:src/thread.cpp ****     t->pStackStart = nullptr;
GAS LISTING /tmp/cccuriWu.s 			page 3


 105:src/thread.cpp ****     void* pLogicalStack = t->allocStack();
 106:src/thread.cpp **** 
 107:src/thread.cpp ****     t->init(body, arg, pLogicalStack);
 108:src/thread.cpp **** 
 109:src/thread.cpp ****     *id = t->id;
 110:src/thread.cpp **** 
 111:src/thread.cpp ****     Scheduler::put(t);
 112:src/thread.cpp **** 
 113:src/thread.cpp ****     return 0;
 114:src/thread.cpp **** }
 115:src/thread.cpp **** 
 116:src/thread.cpp **** Thread* Thread::getPRunning()
 117:src/thread.cpp **** {
 118:src/thread.cpp ****     __asm__ volatile("mv x10, x10"); // to avoid inline
 119:src/thread.cpp ****     return pRunning;
 120:src/thread.cpp **** }
 121:src/thread.cpp **** 
 122:src/thread.cpp **** void* Thread::allocStack()
 123:src/thread.cpp **** {
 124:src/thread.cpp ****     assert(pStackStart == nullptr); // error: this threads stack may have already been allocated
 125:src/thread.cpp **** 
 126:src/thread.cpp ****     pStackStart = MemAlloc::get()->allocMem(ACTUAL_STACK_SIZE);
 127:src/thread.cpp ****     uint64 stack =  (uint64)pStackStart + ACTUAL_STACK_SIZE;
 128:src/thread.cpp **** 
 129:src/thread.cpp ****     if(stack % 16 != 0)
 130:src/thread.cpp ****     {
 131:src/thread.cpp ****         stack -= stack % 16;
 132:src/thread.cpp ****     }
 133:src/thread.cpp **** 
 134:src/thread.cpp ****     stack -= 34*8; // for the initial context (necessary to avoid exceptions from reading from unal
 135:src/thread.cpp **** 
 136:src/thread.cpp ****     return (void*)stack;
 137:src/thread.cpp **** 
 138:src/thread.cpp **** }
 139:src/thread.cpp **** 
 140:src/thread.cpp **** void wrapper(uint64 __DO_NOT_USE, Thread::Body body, void* arg) // this entire function can be run 
 141:src/thread.cpp **** {
  12              		.loc 1 141 1
  13              		.cfi_startproc
  14              	.LVL0:
  15 0000 130101FF 		addi	sp,sp,-16
  16              		.cfi_def_cfa_offset 16
  17 0004 23341100 		sd	ra,8(sp)
  18 0008 23308100 		sd	s0,0(sp)
  19              		.cfi_offset 1, -8
  20              		.cfi_offset 8, -16
  21 000c 13040101 		addi	s0,sp,16
  22              		.cfi_def_cfa 8, 0
 142:src/thread.cpp ****     (*body)(arg);
  23              		.loc 1 142 5
  24              		.loc 1 142 12 is_stmt 0
  25 0010 13050600 		mv	a0,a2
  26              	.LVL1:
  27 0014 E7800500 		jalr	a1
  28              	.LVL2:
 143:src/thread.cpp ****     thread_exit();
  29              		.loc 1 143 5 is_stmt 1
GAS LISTING /tmp/cccuriWu.s 			page 4


  30              		.loc 1 143 16 is_stmt 0
  31 0018 97000000 		call	_Z11thread_exitv@plt
  31      E7800000 
  32              	.LVL3:
 144:src/thread.cpp **** }
  33              		.loc 1 144 1
  34 0020 83308100 		ld	ra,8(sp)
  35              		.cfi_restore 1
  36 0024 03340100 		ld	s0,0(sp)
  37              		.cfi_restore 8
  38              		.cfi_def_cfa 2, 16
  39 0028 13010101 		addi	sp,sp,16
  40              		.cfi_def_cfa_offset 0
  41 002c 67800000 		jr	ra
  42              		.cfi_endproc
  43              	.LFE21:
  45              		.align	2
  46              		.globl	_ZN6Thread10signalDoneEv
  48              	_ZN6Thread10signalDoneEv:
  49              	.LFB14:
  14:src/thread.cpp ****     Thread* pCur = pWaitingHead;
  50              		.loc 1 14 1 is_stmt 1
  51              		.cfi_startproc
  52              	.LVL4:
  53 0030 130101FE 		addi	sp,sp,-32
  54              		.cfi_def_cfa_offset 32
  55 0034 233C1100 		sd	ra,24(sp)
  56 0038 23388100 		sd	s0,16(sp)
  57 003c 23349100 		sd	s1,8(sp)
  58              		.cfi_offset 1, -8
  59              		.cfi_offset 8, -16
  60              		.cfi_offset 9, -24
  61 0040 13040102 		addi	s0,sp,32
  62              		.cfi_def_cfa 8, 0
  15:src/thread.cpp **** 
  63              		.loc 1 15 5
  15:src/thread.cpp **** 
  64              		.loc 1 15 13 is_stmt 0
  65 0044 8334851C 		ld	s1,456(a0)
  66              	.LVL5:
  67              	.L5:
  17:src/thread.cpp ****     {
  68              		.loc 1 17 5 is_stmt 1
  17:src/thread.cpp ****     {
  69              		.loc 1 17 11
  70 0048 63800402 		beqz	s1,.L3
  19:src/thread.cpp ****         Scheduler::put(pCur);
  71              		.loc 1 19 9
  19:src/thread.cpp ****         Scheduler::put(pCur);
  72              		.loc 1 19 21 is_stmt 0
  73 004c 93072000 		li	a5,2
  74 0050 23A0F400 		sw	a5,0(s1)
  20:src/thread.cpp **** 
  75              		.loc 1 20 9 is_stmt 1
  20:src/thread.cpp **** 
  76              		.loc 1 20 23 is_stmt 0
  77 0054 13850400 		mv	a0,s1
GAS LISTING /tmp/cccuriWu.s 			page 5


  78 0058 97000000 		call	_ZN9Scheduler3putEP6Thread@plt
  78      E7800000 
  79              	.LVL6:
  22:src/thread.cpp ****     }
  80              		.loc 1 22 9 is_stmt 1
  22:src/thread.cpp ****     }
  81              		.loc 1 22 14 is_stmt 0
  82 0060 83B4041C 		ld	s1,448(s1)
  83              	.LVL7:
  17:src/thread.cpp ****     {
  84              		.loc 1 17 5
  85 0064 6FF05FFE 		j	.L5
  86              	.L3:
  24:src/thread.cpp **** 
  87              		.loc 1 24 1
  88 0068 83308101 		ld	ra,24(sp)
  89              		.cfi_restore 1
  90 006c 03340101 		ld	s0,16(sp)
  91              		.cfi_restore 8
  92              		.cfi_def_cfa 2, 32
  93 0070 83348100 		ld	s1,8(sp)
  94              		.cfi_restore 9
  95              	.LVL8:
  96 0074 13010102 		addi	sp,sp,32
  97              		.cfi_def_cfa_offset 0
  98 0078 67800000 		jr	ra
  99              		.cfi_endproc
 100              	.LFE14:
 102              		.align	2
 103              		.globl	_ZN6Thread11setPRunningEPS_
 105              	_ZN6Thread11setPRunningEPS_:
 106              	.LFB17:
  92:src/thread.cpp ****     pRunning = p;
 107              		.loc 1 92 1 is_stmt 1
 108              		.cfi_startproc
 109              	.LVL9:
 110 007c 130101FF 		addi	sp,sp,-16
 111              		.cfi_def_cfa_offset 16
 112 0080 23348100 		sd	s0,8(sp)
 113              		.cfi_offset 8, -8
 114 0084 13040101 		addi	s0,sp,16
 115              		.cfi_def_cfa 8, 0
  93:src/thread.cpp ****     pRunningContext = &(p->context[0]);
 116              		.loc 1 93 5
  93:src/thread.cpp ****     pRunningContext = &(p->context[0]);
 117              		.loc 1 93 14 is_stmt 0
 118 0088 97070000 		lla	a5,.LANCHOR0
 118      93870700 
 119 0090 23B0A700 		sd	a0,0(a5)
  94:src/thread.cpp **** }
 120              		.loc 1 94 5 is_stmt 1
  94:src/thread.cpp **** }
 121              		.loc 1 94 23 is_stmt 0
 122 0094 13050501 		addi	a0,a0,16
 123              	.LVL10:
  94:src/thread.cpp **** }
 124              		.loc 1 94 21
GAS LISTING /tmp/cccuriWu.s 			page 6


 125 0098 23B4A700 		sd	a0,8(a5)
  95:src/thread.cpp **** 
 126              		.loc 1 95 1
 127 009c 03348100 		ld	s0,8(sp)
 128              		.cfi_restore 8
 129              		.cfi_def_cfa 2, 16
 130 00a0 13010101 		addi	sp,sp,16
 131              		.cfi_def_cfa_offset 0
 132 00a4 67800000 		jr	ra
 133              		.cfi_endproc
 134              	.LFE17:
 136              		.align	2
 137              		.globl	_ZN6Thread11getPRunningEv
 139              	_ZN6Thread11getPRunningEv:
 140              	.LFB19:
 117:src/thread.cpp ****     __asm__ volatile("mv x10, x10"); // to avoid inline
 141              		.loc 1 117 1 is_stmt 1
 142              		.cfi_startproc
 143 00a8 130101FF 		addi	sp,sp,-16
 144              		.cfi_def_cfa_offset 16
 145 00ac 23348100 		sd	s0,8(sp)
 146              		.cfi_offset 8, -8
 147 00b0 13040101 		addi	s0,sp,16
 148              		.cfi_def_cfa 8, 0
 118:src/thread.cpp ****     return pRunning;
 149              		.loc 1 118 5
 118:src/thread.cpp ****     return pRunning;
 150              		.loc 1 118 36 is_stmt 0
 151              	#APP
 152              	# 118 "src/thread.cpp" 1
 119:src/thread.cpp **** }
 153              		mv x10, x10
 154              	# 0 "" 2
 155              		.loc 1 119 5 is_stmt 1
 120:src/thread.cpp **** 
 156              		.loc 1 120 1 is_stmt 0
 157              	#NO_APP
 158 00b8 17050000 		ld	a0,.LANCHOR0
 158      03350500 
 159 00c0 03348100 		ld	s0,8(sp)
 160              		.cfi_restore 8
 161              		.cfi_def_cfa 2, 16
 162 00c4 13010101 		addi	sp,sp,16
 163              		.cfi_def_cfa_offset 0
 164 00c8 67800000 		jr	ra
 165              		.cfi_endproc
 166              	.LFE19:
 168              		.section	.rodata.str1.8,"aMS",@progbits,1
 169              		.align	3
 170              	.LC0:
 171 0000 3D3D3D3D 		.string	"===================== ASSERT file: "
 171      3D3D3D3D 
 171      3D3D3D3D 
 171      3D3D3D3D 
 171      3D3D3D3D 
 172 0024 00000000 		.align	3
 173              	.LC1:
GAS LISTING /tmp/cccuriWu.s 			page 7


 174 0028 7372632F 		.string	"src/thread.cpp"
 174      74687265 
 174      61642E63 
 174      707000
 175 0037 00       		.align	3
 176              	.LC2:
 177 0038 20202020 		.string	"    line: "
 177      6C696E65 
 177      3A2000
 178 0043 00000000 		.align	3
 178      00
 179              	.LC3:
 180 0048 2020203D 		.string	"   ==========================="
 180      3D3D3D3D 
 180      3D3D3D3D 
 180      3D3D3D3D 
 180      3D3D3D3D 
 181              		.text
 182              		.align	2
 183              		.globl	_ZN6Thread4joinEm
 185              	_ZN6Thread4joinEm:
 186              	.LFB15:
  27:src/thread.cpp ****     Thread* oldRunning = Thread::getPRunning();
 187              		.loc 1 27 1 is_stmt 1
 188              		.cfi_startproc
 189              	.LVL11:
 190 00cc 130101FD 		addi	sp,sp,-48
 191              		.cfi_def_cfa_offset 48
 192 00d0 23341102 		sd	ra,40(sp)
 193 00d4 23308102 		sd	s0,32(sp)
 194 00d8 233C9100 		sd	s1,24(sp)
 195 00dc 23382101 		sd	s2,16(sp)
 196 00e0 23343101 		sd	s3,8(sp)
 197              		.cfi_offset 1, -8
 198              		.cfi_offset 8, -16
 199              		.cfi_offset 9, -24
 200              		.cfi_offset 18, -32
 201              		.cfi_offset 19, -40
 202 00e4 13040103 		addi	s0,sp,48
 203              		.cfi_def_cfa 8, 0
 204 00e8 13090500 		mv	s2,a0
  28:src/thread.cpp **** 
 205              		.loc 1 28 5
  28:src/thread.cpp **** 
 206              		.loc 1 28 45 is_stmt 0
 207 00ec 97000000 		call	_ZN6Thread11getPRunningEv
 207      E7800000 
 208              	.LVL12:
  30:src/thread.cpp **** 
 209              		.loc 1 30 5 is_stmt 1
  30:src/thread.cpp **** 
 210              		.loc 1 30 13 is_stmt 0
 211 00f4 13173900 		slli	a4,s2,3
 212 00f8 97070000 		lla	a5,.LANCHOR0
 212      93870700 
 213 0100 B387E700 		add	a5,a5,a4
 214 0104 83B90701 		ld	s3,16(a5)
GAS LISTING /tmp/cccuriWu.s 			page 8


 215              	.LVL13:
  32:src/thread.cpp ****     assert(oldRunning != &kernelThread); // you're only supposed to open user threads with system c
 216              		.loc 1 32 5 is_stmt 1
  33:src/thread.cpp **** 
 217              		.loc 1 33 5
 218 0108 97070000 		la	a5,kernelThread
 218      83B70700 
 219              	.LVL14:
 220              	.LBB16:
 221              	.LBB17:
 222              		.file 2 "src/../h/../h/my_console.h"
   1:src/../h/../h/my_console.h **** #pragma once
   2:src/../h/../h/my_console.h **** 
   3:src/../h/../h/my_console.h **** #include "../h/risc.h"
   4:src/../h/../h/my_console.h **** 
   5:src/../h/../h/my_console.h **** #include "../lib/console.h"
   6:src/../h/../h/my_console.h **** #include "../lib/hw.h"
   7:src/../h/../h/my_console.h **** 
   8:src/../h/../h/my_console.h **** #define __DEBUG_MODE
   9:src/../h/../h/my_console.h **** 
  10:src/../h/../h/my_console.h **** 
  11:src/../h/../h/my_console.h **** void putString(const char* s);
  12:src/../h/../h/my_console.h **** void putInt(int n);
  13:src/../h/../h/my_console.h **** void putNewline();
  14:src/../h/../h/my_console.h **** void putU64(uint64 n);
  15:src/../h/../h/my_console.h **** void putBinary(uint64 n);
  16:src/../h/../h/my_console.h **** 
  17:src/../h/../h/my_console.h **** [[noreturn]] void stopKernel();
  18:src/../h/../h/my_console.h **** 
  19:src/../h/../h/my_console.h **** inline void _assert(bool valid, const char* file, int line) // MUST be inline
  20:src/../h/../h/my_console.h **** {
  21:src/../h/../h/my_console.h ****     if(valid)
 223              		.loc 2 21 5
 224 0110 6302F506 		beq	a0,a5,.L17
 225 0114 93040500 		mv	s1,a0
  22:src/../h/../h/my_console.h ****         return;
 226              		.loc 2 22 9
 227              	.LVL15:
 228              	.LBE17:
 229              	.LBE16:
  35:src/thread.cpp **** 
 230              		.loc 1 35 5
  35:src/thread.cpp **** 
 231              		.loc 1 35 11 is_stmt 0
 232 0118 13050900 		mv	a0,s2
 233              	.LVL16:
 234 011c 97000000 		call	_Z6putU64m@plt
 234      E7800000 
 235              	.LVL17:
  37:src/thread.cpp ****         return;
 236              		.loc 1 37 5 is_stmt 1
  37:src/thread.cpp ****         return;
 237              		.loc 1 37 11 is_stmt 0
 238 0124 83C7091D 		lbu	a5,464(s3)
  37:src/thread.cpp ****         return;
 239              		.loc 1 37 5
 240 0128 63980702 		bnez	a5,.L11
GAS LISTING /tmp/cccuriWu.s 			page 9


  40:src/thread.cpp ****     {
 241              		.loc 1 40 5 is_stmt 1
 242              	.LBB19:
  40:src/thread.cpp ****     {
 243              		.loc 1 40 11 is_stmt 0
 244 012c 83B7891C 		ld	a5,456(s3)
  40:src/thread.cpp ****     {
 245              		.loc 1 40 5
 246 0130 6380070A 		beqz	a5,.L18
 247              	.L14:
 248              	.LVL18:
 249              	.LBB20:
  47:src/thread.cpp ****         {
 250              		.loc 1 47 9 is_stmt 1
  47:src/thread.cpp ****         {
 251              		.loc 1 47 21
 252 0134 13870700 		mv	a4,a5
 253 0138 83B7071C 		ld	a5,448(a5)
 254              	.LVL19:
 255 013c E39C07FE 		bnez	a5,.L14
  52:src/thread.cpp ****     }
 256              		.loc 1 52 9
  52:src/thread.cpp ****     }
 257              		.loc 1 52 21 is_stmt 0
 258 0140 2330971C 		sd	s1,448(a4)
 259              	.LVL20:
 260              	.L15:
 261              	.LBE20:
 262              	.LBE19:
  55:src/thread.cpp ****     oldRunning->state = SUSPENDED;
 263              		.loc 1 55 5 is_stmt 1
  55:src/thread.cpp ****     oldRunning->state = SUSPENDED;
 264              		.loc 1 55 23 is_stmt 0
 265 0144 23B0041C 		sd	zero,448(s1)
  56:src/thread.cpp **** 
 266              		.loc 1 56 5 is_stmt 1
  56:src/thread.cpp **** 
 267              		.loc 1 56 23 is_stmt 0
 268 0148 93071000 		li	a5,1
 269 014c 23A0F400 		sw	a5,0(s1)
  58:src/thread.cpp **** }
 270              		.loc 1 58 5 is_stmt 1
  58:src/thread.cpp **** }
 271              		.loc 1 58 30 is_stmt 0
 272 0150 97000000 		call	_ZN9Scheduler14dispatchToNextEv@plt
 272      E7800000 
 273              	.LVL21:
 274              	.L11:
  59:src/thread.cpp **** 
 275              		.loc 1 59 1
 276 0158 83308102 		ld	ra,40(sp)
 277              		.cfi_remember_state
 278              		.cfi_restore 1
 279 015c 03340102 		ld	s0,32(sp)
 280              		.cfi_restore 8
 281              		.cfi_def_cfa 2, 48
 282 0160 83348101 		ld	s1,24(sp)
GAS LISTING /tmp/cccuriWu.s 			page 10


 283              		.cfi_restore 9
 284              	.LVL22:
 285 0164 03390101 		ld	s2,16(sp)
 286              		.cfi_restore 18
 287              	.LVL23:
 288 0168 83398100 		ld	s3,8(sp)
 289              		.cfi_restore 19
 290              	.LVL24:
 291 016c 13010103 		addi	sp,sp,48
 292              		.cfi_def_cfa_offset 0
 293 0170 67800000 		jr	ra
 294              	.LVL25:
 295              	.L17:
 296              		.cfi_restore_state
 297              	.LBB21:
 298              	.LBB18:
  23:src/../h/../h/my_console.h **** 
  24:src/../h/../h/my_console.h ****     putString("===================== ASSERT file: ");
 299              		.loc 2 24 5 is_stmt 1
 300              		.loc 2 24 14 is_stmt 0
 301 0174 17050000 		lla	a0,.LC0
 301      13050500 
 302              	.LVL26:
 303 017c 97000000 		call	_Z9putStringPKc@plt
 303      E7800000 
 304              	.LVL27:
  25:src/../h/../h/my_console.h ****     putString(file);
 305              		.loc 2 25 5 is_stmt 1
 306              		.loc 2 25 14 is_stmt 0
 307 0184 17050000 		lla	a0,.LC1
 307      13050500 
 308 018c 97000000 		call	_Z9putStringPKc@plt
 308      E7800000 
 309              	.LVL28:
  26:src/../h/../h/my_console.h ****     putString("    line: ");
 310              		.loc 2 26 5 is_stmt 1
 311              		.loc 2 26 14 is_stmt 0
 312 0194 17050000 		lla	a0,.LC2
 312      13050500 
 313 019c 97000000 		call	_Z9putStringPKc@plt
 313      E7800000 
 314              	.LVL29:
  27:src/../h/../h/my_console.h ****     putInt(line);
 315              		.loc 2 27 5 is_stmt 1
 316              		.loc 2 27 11 is_stmt 0
 317 01a4 13051002 		li	a0,33
 318 01a8 97000000 		call	_Z6putInti@plt
 318      E7800000 
 319              	.LVL30:
  28:src/../h/../h/my_console.h ****     putString("   ===========================");
 320              		.loc 2 28 5 is_stmt 1
 321              		.loc 2 28 14 is_stmt 0
 322 01b0 17050000 		lla	a0,.LC3
 322      13050500 
 323 01b8 97000000 		call	_Z9putStringPKc@plt
 323      E7800000 
 324              	.LVL31:
GAS LISTING /tmp/cccuriWu.s 			page 11


  29:src/../h/../h/my_console.h ****     putNewline();
 325              		.loc 2 29 5 is_stmt 1
 326              		.loc 2 29 15 is_stmt 0
 327 01c0 97000000 		call	_Z10putNewlinev@plt
 327      E7800000 
 328              	.LVL32:
  30:src/../h/../h/my_console.h **** 
  31:src/../h/../h/my_console.h ****     stopKernel();
 329              		.loc 2 31 5 is_stmt 1
 330              		.loc 2 31 15 is_stmt 0
 331 01c8 97000000 		call	_Z10stopKernelv@plt
 331      E7800000 
 332              	.LVL33:
 333              	.L18:
 334              	.LBE18:
 335              	.LBE21:
 336              	.LBB22:
  42:src/thread.cpp ****     }
 337              		.loc 1 42 9 is_stmt 1
  42:src/thread.cpp ****     }
 338              		.loc 1 42 25 is_stmt 0
 339 01d0 23B4991C 		sd	s1,456(s3)
 340 01d4 6FF01FF7 		j	.L15
 341              	.LBE22:
 342              		.cfi_endproc
 343              	.LFE15:
 345              		.align	2
 346              		.globl	_ZN6Thread12switchToUserEv
 348              	_ZN6Thread12switchToUserEv:
 349              	.LFB16:
  62:src/thread.cpp ****     uint64 scause;
 350              		.loc 1 62 1 is_stmt 1
 351              		.cfi_startproc
 352 01d8 130101FF 		addi	sp,sp,-16
 353              		.cfi_def_cfa_offset 16
 354 01dc 23341100 		sd	ra,8(sp)
 355 01e0 23308100 		sd	s0,0(sp)
 356              		.cfi_offset 1, -8
 357              		.cfi_offset 8, -16
 358 01e4 13040101 		addi	s0,sp,16
 359              		.cfi_def_cfa 8, 0
  63:src/thread.cpp ****     __asm__ volatile ("csrr %[name], scause" : [name] "=r"(scause));
 360              		.loc 1 63 5
  64:src/thread.cpp ****     bool cameFromKernelMode = ((scause & (1 << 8)) == 0);
 361              		.loc 1 64 5
  64:src/thread.cpp ****     bool cameFromKernelMode = ((scause & (1 << 8)) == 0);
 362              		.loc 1 64 68 is_stmt 0
 363              	#APP
 364              	# 64 "src/thread.cpp" 1
 365              		csrr a5, scause
 366              	# 0 "" 2
 367              	.LVL34:
  65:src/thread.cpp **** 
 368              		.loc 1 65 5 is_stmt 1
  65:src/thread.cpp **** 
 369              		.loc 1 65 40 is_stmt 0
 370              	#NO_APP
GAS LISTING /tmp/cccuriWu.s 			page 12


 371 01ec 93F70710 		andi	a5,a5,256
 372              	.LVL35:
  67:src/thread.cpp ****     {
 373              		.loc 1 67 5 is_stmt 1
 374 01f0 63900704 		bnez	a5,.L24
  74:src/thread.cpp **** 
 375              		.loc 1 74 5
 376 01f4 97070000 		ld	a5,.LANCHOR0
 376      83B70700 
 377              	.LVL36:
 378 01fc 83B7871B 		ld	a5,440(a5)
 379              	.LVL37:
 380              	.LBB31:
 381              	.LBB32:
  21:src/../h/../h/my_console.h ****         return;
 382              		.loc 2 21 5
 383 0200 63960708 		bnez	a5,.L25
  22:src/../h/../h/my_console.h **** 
 384              		.loc 2 22 9
 385              	.LVL38:
 386              	.LBE32:
 387              	.LBE31:
  76:src/thread.cpp **** 
 388              		.loc 1 76 5
  76:src/thread.cpp **** 
 389              		.loc 1 76 30 is_stmt 0
 390 0204 97000000 		call	_ZN9Scheduler14dispatchToNextEv@plt
 390      E7800000 
 391              	.LVL39:
  78:src/thread.cpp **** 
 392              		.loc 1 78 5 is_stmt 1
 393 020c 97000000 		call	_ZN6Thread11getPRunningEv
 393      E7800000 
 394              	.LVL40:
 395 0214 8337851B 		ld	a5,440(a0)
 396 0218 9387F7FF 		addi	a5,a5,-1
 397              	.LVL41:
 398              	.LBB34:
 399              	.LBB35:
  21:src/../h/../h/my_console.h ****         return;
 400              		.loc 2 21 5
 401 021c 6396070C 		bnez	a5,.L26
 402              	.LBE35:
 403              	.LBE34:
  89:src/thread.cpp **** 
 404              		.loc 1 89 1 is_stmt 0
 405 0220 83308100 		ld	ra,8(sp)
 406              		.cfi_remember_state
 407              		.cfi_restore 1
 408 0224 03340100 		ld	s0,0(sp)
 409              		.cfi_restore 8
 410              		.cfi_def_cfa 2, 16
 411 0228 13010101 		addi	sp,sp,16
 412              		.cfi_def_cfa_offset 0
 413 022c 67800000 		jr	ra
 414              	.LVL42:
 415              	.L24:
GAS LISTING /tmp/cccuriWu.s 			page 13


 416              		.cfi_restore_state
  69:src/thread.cpp ****         assert(Thread::pRunning->id != 0);
 417              		.loc 1 69 9 is_stmt 1
 418              	.LBB37:
 419              	.LBB38:
  21:src/../h/../h/my_console.h ****         return;
 420              		.loc 2 21 5
  24:src/../h/../h/my_console.h ****     putString(file);
 421              		.loc 2 24 5
  24:src/../h/../h/my_console.h ****     putString(file);
 422              		.loc 2 24 14 is_stmt 0
 423 0230 17050000 		lla	a0,.LC0
 423      13050500 
 424 0238 97000000 		call	_Z9putStringPKc@plt
 424      E7800000 
 425              	.LVL43:
  25:src/../h/../h/my_console.h ****     putString("    line: ");
 426              		.loc 2 25 5 is_stmt 1
  25:src/../h/../h/my_console.h ****     putString("    line: ");
 427              		.loc 2 25 14 is_stmt 0
 428 0240 17050000 		lla	a0,.LC1
 428      13050500 
 429 0248 97000000 		call	_Z9putStringPKc@plt
 429      E7800000 
 430              	.LVL44:
  26:src/../h/../h/my_console.h ****     putInt(line);
 431              		.loc 2 26 5 is_stmt 1
  26:src/../h/../h/my_console.h ****     putInt(line);
 432              		.loc 2 26 14 is_stmt 0
 433 0250 17050000 		lla	a0,.LC2
 433      13050500 
 434 0258 97000000 		call	_Z9putStringPKc@plt
 434      E7800000 
 435              	.LVL45:
  27:src/../h/../h/my_console.h ****     putString("   ===========================");
 436              		.loc 2 27 5 is_stmt 1
  27:src/../h/../h/my_console.h ****     putString("   ===========================");
 437              		.loc 2 27 11 is_stmt 0
 438 0260 13055004 		li	a0,69
 439 0264 97000000 		call	_Z6putInti@plt
 439      E7800000 
 440              	.LVL46:
  28:src/../h/../h/my_console.h ****     putNewline();
 441              		.loc 2 28 5 is_stmt 1
  28:src/../h/../h/my_console.h ****     putNewline();
 442              		.loc 2 28 14 is_stmt 0
 443 026c 17050000 		lla	a0,.LC3
 443      13050500 
 444 0274 97000000 		call	_Z9putStringPKc@plt
 444      E7800000 
 445              	.LVL47:
  29:src/../h/../h/my_console.h **** 
 446              		.loc 2 29 5 is_stmt 1
  29:src/../h/../h/my_console.h **** 
 447              		.loc 2 29 15 is_stmt 0
 448 027c 97000000 		call	_Z10putNewlinev@plt
 448      E7800000 
GAS LISTING /tmp/cccuriWu.s 			page 14


 449              	.LVL48:
 450              		.loc 2 31 5 is_stmt 1
 451              		.loc 2 31 15 is_stmt 0
 452 0284 97000000 		call	_Z10stopKernelv@plt
 452      E7800000 
 453              	.LVL49:
 454              	.L25:
 455              	.LBE38:
 456              	.LBE37:
 457              	.LBB39:
 458              	.LBB33:
  24:src/../h/../h/my_console.h ****     putString(file);
 459              		.loc 2 24 5 is_stmt 1
  24:src/../h/../h/my_console.h ****     putString(file);
 460              		.loc 2 24 14 is_stmt 0
 461 028c 17050000 		lla	a0,.LC0
 461      13050500 
 462 0294 97000000 		call	_Z9putStringPKc@plt
 462      E7800000 
 463              	.LVL50:
  25:src/../h/../h/my_console.h ****     putString("    line: ");
 464              		.loc 2 25 5 is_stmt 1
  25:src/../h/../h/my_console.h ****     putString("    line: ");
 465              		.loc 2 25 14 is_stmt 0
 466 029c 17050000 		lla	a0,.LC1
 466      13050500 
 467 02a4 97000000 		call	_Z9putStringPKc@plt
 467      E7800000 
 468              	.LVL51:
  26:src/../h/../h/my_console.h ****     putInt(line);
 469              		.loc 2 26 5 is_stmt 1
  26:src/../h/../h/my_console.h ****     putInt(line);
 470              		.loc 2 26 14 is_stmt 0
 471 02ac 17050000 		lla	a0,.LC2
 471      13050500 
 472 02b4 97000000 		call	_Z9putStringPKc@plt
 472      E7800000 
 473              	.LVL52:
  27:src/../h/../h/my_console.h ****     putString("   ===========================");
 474              		.loc 2 27 5 is_stmt 1
  27:src/../h/../h/my_console.h ****     putString("   ===========================");
 475              		.loc 2 27 11 is_stmt 0
 476 02bc 1305A004 		li	a0,74
 477 02c0 97000000 		call	_Z6putInti@plt
 477      E7800000 
 478              	.LVL53:
  28:src/../h/../h/my_console.h ****     putNewline();
 479              		.loc 2 28 5 is_stmt 1
  28:src/../h/../h/my_console.h ****     putNewline();
 480              		.loc 2 28 14 is_stmt 0
 481 02c8 17050000 		lla	a0,.LC3
 481      13050500 
 482 02d0 97000000 		call	_Z9putStringPKc@plt
 482      E7800000 
 483              	.LVL54:
  29:src/../h/../h/my_console.h **** 
 484              		.loc 2 29 5 is_stmt 1
GAS LISTING /tmp/cccuriWu.s 			page 15


  29:src/../h/../h/my_console.h **** 
 485              		.loc 2 29 15 is_stmt 0
 486 02d8 97000000 		call	_Z10putNewlinev@plt
 486      E7800000 
 487              	.LVL55:
 488              		.loc 2 31 5 is_stmt 1
 489              		.loc 2 31 15 is_stmt 0
 490 02e0 97000000 		call	_Z10stopKernelv@plt
 490      E7800000 
 491              	.LVL56:
 492              	.L26:
 493              	.LBE33:
 494              	.LBE39:
 495              	.LBB40:
 496              	.LBB36:
  24:src/../h/../h/my_console.h ****     putString(file);
 497              		.loc 2 24 5 is_stmt 1
  24:src/../h/../h/my_console.h ****     putString(file);
 498              		.loc 2 24 14 is_stmt 0
 499 02e8 17050000 		lla	a0,.LC0
 499      13050500 
 500 02f0 97000000 		call	_Z9putStringPKc@plt
 500      E7800000 
 501              	.LVL57:
  25:src/../h/../h/my_console.h ****     putString("    line: ");
 502              		.loc 2 25 5 is_stmt 1
  25:src/../h/../h/my_console.h ****     putString("    line: ");
 503              		.loc 2 25 14 is_stmt 0
 504 02f8 17050000 		lla	a0,.LC1
 504      13050500 
 505 0300 97000000 		call	_Z9putStringPKc@plt
 505      E7800000 
 506              	.LVL58:
  26:src/../h/../h/my_console.h ****     putInt(line);
 507              		.loc 2 26 5 is_stmt 1
  26:src/../h/../h/my_console.h ****     putInt(line);
 508              		.loc 2 26 14 is_stmt 0
 509 0308 17050000 		lla	a0,.LC2
 509      13050500 
 510 0310 97000000 		call	_Z9putStringPKc@plt
 510      E7800000 
 511              	.LVL59:
  27:src/../h/../h/my_console.h ****     putString("   ===========================");
 512              		.loc 2 27 5 is_stmt 1
  27:src/../h/../h/my_console.h ****     putString("   ===========================");
 513              		.loc 2 27 11 is_stmt 0
 514 0318 1305E004 		li	a0,78
 515 031c 97000000 		call	_Z6putInti@plt
 515      E7800000 
 516              	.LVL60:
  28:src/../h/../h/my_console.h ****     putNewline();
 517              		.loc 2 28 5 is_stmt 1
  28:src/../h/../h/my_console.h ****     putNewline();
 518              		.loc 2 28 14 is_stmt 0
 519 0324 17050000 		lla	a0,.LC3
 519      13050500 
 520 032c 97000000 		call	_Z9putStringPKc@plt
GAS LISTING /tmp/cccuriWu.s 			page 16


 520      E7800000 
 521              	.LVL61:
  29:src/../h/../h/my_console.h **** 
 522              		.loc 2 29 5 is_stmt 1
  29:src/../h/../h/my_console.h **** 
 523              		.loc 2 29 15 is_stmt 0
 524 0334 97000000 		call	_Z10putNewlinev@plt
 524      E7800000 
 525              	.LVL62:
 526              		.loc 2 31 5 is_stmt 1
 527              		.loc 2 31 15 is_stmt 0
 528 033c 97000000 		call	_Z10stopKernelv@plt
 528      E7800000 
 529              	.LVL63:
 530              	.LBE36:
 531              	.LBE40:
 532              		.cfi_endproc
 533              	.LFE16:
 535              		.align	2
 536              		.globl	_ZN6Thread10allocStackEv
 538              	_ZN6Thread10allocStackEv:
 539              	.LFB20:
 123:src/thread.cpp ****     assert(pStackStart == nullptr); // error: this threads stack may have already been allocated
 540              		.loc 1 123 1 is_stmt 1
 541              		.cfi_startproc
 542              	.LVL64:
 543 0344 130101FE 		addi	sp,sp,-32
 544              		.cfi_def_cfa_offset 32
 545 0348 233C1100 		sd	ra,24(sp)
 546 034c 23388100 		sd	s0,16(sp)
 547 0350 23349100 		sd	s1,8(sp)
 548 0354 23302101 		sd	s2,0(sp)
 549              		.cfi_offset 1, -8
 550              		.cfi_offset 8, -16
 551              		.cfi_offset 9, -24
 552              		.cfi_offset 18, -32
 553 0358 13040102 		addi	s0,sp,32
 554              		.cfi_def_cfa 8, 0
 124:src/thread.cpp **** 
 555              		.loc 1 124 5
 556 035c 8337851A 		ld	a5,424(a0)
 557              	.LVL65:
 558              	.LBB43:
 559              	.LBB44:
  21:src/../h/../h/my_console.h ****         return;
 560              		.loc 2 21 5
 561 0360 639A0704 		bnez	a5,.L31
 562 0364 13090500 		mv	s2,a0
  22:src/../h/../h/my_console.h **** 
 563              		.loc 2 22 9
 564              	.LVL66:
 565              	.LBE44:
 566              	.LBE43:
 126:src/thread.cpp ****     uint64 stack =  (uint64)pStackStart + ACTUAL_STACK_SIZE;
 567              		.loc 1 126 5
 126:src/thread.cpp ****     uint64 stack =  (uint64)pStackStart + ACTUAL_STACK_SIZE;
 568              		.loc 1 126 44 is_stmt 0
GAS LISTING /tmp/cccuriWu.s 			page 17


 569 0368 97000000 		call	_ZN8MemAlloc3getEv@plt
 569      E7800000 
 570              	.LVL67:
 571 0370 B7B40000 		li	s1,45056
 572 0374 938504AA 		addi	a1,s1,-1376
 573 0378 97000000 		call	_ZN8MemAlloc8allocMemEm@plt
 573      E7800000 
 574              	.LVL68:
 126:src/thread.cpp ****     uint64 stack =  (uint64)pStackStart + ACTUAL_STACK_SIZE;
 575              		.loc 1 126 17
 576 0380 2334A91A 		sd	a0,424(s2)
 127:src/thread.cpp **** 
 577              		.loc 1 127 5 is_stmt 1
 127:src/thread.cpp **** 
 578              		.loc 1 127 12 is_stmt 0
 579 0384 938404AA 		addi	s1,s1,-1376
 580 0388 B3049500 		add	s1,a0,s1
 581              	.LVL69:
 129:src/thread.cpp ****     {
 582              		.loc 1 129 5 is_stmt 1
 129:src/thread.cpp ****     {
 583              		.loc 1 129 14 is_stmt 0
 584 038c 1375F500 		andi	a0,a0,15
 129:src/thread.cpp ****     {
 585              		.loc 1 129 5
 586 0390 63040500 		beqz	a0,.L29
 131:src/thread.cpp ****     }
 587              		.loc 1 131 9 is_stmt 1
 131:src/thread.cpp ****     }
 588              		.loc 1 131 15 is_stmt 0
 589 0394 93F404FF 		andi	s1,s1,-16
 590              	.LVL70:
 591              	.L29:
 134:src/thread.cpp **** 
 592              		.loc 1 134 5 is_stmt 1
 136:src/thread.cpp **** 
 593              		.loc 1 136 5
 138:src/thread.cpp **** 
 594              		.loc 1 138 1 is_stmt 0
 595 0398 138504EF 		addi	a0,s1,-272
 596              	.LVL71:
 597 039c 83308101 		ld	ra,24(sp)
 598              		.cfi_remember_state
 599              		.cfi_restore 1
 600 03a0 03340101 		ld	s0,16(sp)
 601              		.cfi_restore 8
 602              		.cfi_def_cfa 2, 32
 603 03a4 83348100 		ld	s1,8(sp)
 604              		.cfi_restore 9
 605 03a8 03390100 		ld	s2,0(sp)
 606              		.cfi_restore 18
 607              	.LVL72:
 608 03ac 13010102 		addi	sp,sp,32
 609              		.cfi_def_cfa_offset 0
 610 03b0 67800000 		jr	ra
 611              	.LVL73:
 612              	.L31:
GAS LISTING /tmp/cccuriWu.s 			page 18


 613              		.cfi_restore_state
 614              	.LBB46:
 615              	.LBB45:
  24:src/../h/../h/my_console.h ****     putString(file);
 616              		.loc 2 24 5 is_stmt 1
  24:src/../h/../h/my_console.h ****     putString(file);
 617              		.loc 2 24 14 is_stmt 0
 618 03b4 17050000 		lla	a0,.LC0
 618      13050500 
 619              	.LVL74:
 620 03bc 97000000 		call	_Z9putStringPKc@plt
 620      E7800000 
 621              	.LVL75:
  25:src/../h/../h/my_console.h ****     putString("    line: ");
 622              		.loc 2 25 5 is_stmt 1
  25:src/../h/../h/my_console.h ****     putString("    line: ");
 623              		.loc 2 25 14 is_stmt 0
 624 03c4 17050000 		lla	a0,.LC1
 624      13050500 
 625 03cc 97000000 		call	_Z9putStringPKc@plt
 625      E7800000 
 626              	.LVL76:
  26:src/../h/../h/my_console.h ****     putInt(line);
 627              		.loc 2 26 5 is_stmt 1
  26:src/../h/../h/my_console.h ****     putInt(line);
 628              		.loc 2 26 14 is_stmt 0
 629 03d4 17050000 		lla	a0,.LC2
 629      13050500 
 630 03dc 97000000 		call	_Z9putStringPKc@plt
 630      E7800000 
 631              	.LVL77:
  27:src/../h/../h/my_console.h ****     putString("   ===========================");
 632              		.loc 2 27 5 is_stmt 1
  27:src/../h/../h/my_console.h ****     putString("   ===========================");
 633              		.loc 2 27 11 is_stmt 0
 634 03e4 1305C007 		li	a0,124
 635 03e8 97000000 		call	_Z6putInti@plt
 635      E7800000 
 636              	.LVL78:
  28:src/../h/../h/my_console.h ****     putNewline();
 637              		.loc 2 28 5 is_stmt 1
  28:src/../h/../h/my_console.h ****     putNewline();
 638              		.loc 2 28 14 is_stmt 0
 639 03f0 17050000 		lla	a0,.LC3
 639      13050500 
 640 03f8 97000000 		call	_Z9putStringPKc@plt
 640      E7800000 
 641              	.LVL79:
  29:src/../h/../h/my_console.h **** 
 642              		.loc 2 29 5 is_stmt 1
  29:src/../h/../h/my_console.h **** 
 643              		.loc 2 29 15 is_stmt 0
 644 0400 97000000 		call	_Z10putNewlinev@plt
 644      E7800000 
 645              	.LVL80:
 646              		.loc 2 31 5 is_stmt 1
 647              		.loc 2 31 15 is_stmt 0
GAS LISTING /tmp/cccuriWu.s 			page 19


 648 0408 97000000 		call	_Z10stopKernelv@plt
 648      E7800000 
 649              	.LVL81:
 650              	.LBE45:
 651              	.LBE46:
 652              		.cfi_endproc
 653              	.LFE20:
 655              		.align	2
 656              		.globl	_ZN6Thread4initEPFvPvES0_S0_
 658              	_ZN6Thread4initEPFvPvES0_S0_:
 659              	.LFB22:
 145:src/thread.cpp **** 
 146:src/thread.cpp **** void Thread::init(Body body, void* arg, void* pLogicalStack) // this is used as a "constructor"
 147:src/thread.cpp **** {
 660              		.loc 1 147 1 is_stmt 1
 661              		.cfi_startproc
 662              	.LVL82:
 663 0410 130101FF 		addi	sp,sp,-16
 664              		.cfi_def_cfa_offset 16
 665 0414 23341100 		sd	ra,8(sp)
 666 0418 23308100 		sd	s0,0(sp)
 667              		.cfi_offset 1, -8
 668              		.cfi_offset 8, -16
 669 041c 13040101 		addi	s0,sp,16
 670              		.cfi_def_cfa 8, 0
 148:src/thread.cpp ****     assert(nrTotalThreads < MAX_NR_TOTAL_THREADS);
 671              		.loc 1 148 5
 672 0420 97070000 		ld	a5,.LANCHOR1
 672      83B70700 
 673 0428 93B74706 		sltiu	a5,a5,100
 674              	.LVL83:
 675              	.LBB51:
 676              	.LBB52:
  21:src/../h/../h/my_console.h ****         return;
 677              		.loc 2 21 5
 678 042c 63820706 		beqz	a5,.L36
  22:src/../h/../h/my_console.h **** 
 679              		.loc 2 22 9
 680              	.LVL84:
 681              	.LBE52:
 682              	.LBE51:
 149:src/thread.cpp ****     id = nrTotalThreads;
 683              		.loc 1 149 5
 684              		.loc 1 149 8 is_stmt 0
 685 0430 17070000 		lla	a4,.LANCHOR1
 685      13070700 
 686 0438 83370700 		ld	a5,0(a4)
 687 043c 233CF51A 		sd	a5,440(a0)
 150:src/thread.cpp ****     nrTotalThreads++;
 688              		.loc 1 150 5 is_stmt 1
 689              		.loc 1 150 19 is_stmt 0
 690 0440 93871700 		addi	a5,a5,1
 691 0444 2330F700 		sd	a5,0(a4)
 151:src/thread.cpp **** 
 152:src/thread.cpp ****     assert((uint64)pLogicalStack % 16 == 0);
 692              		.loc 1 152 5 is_stmt 1
 693 0448 93F7F600 		andi	a5,a3,15
GAS LISTING /tmp/cccuriWu.s 			page 20


 694              	.LVL85:
 695              	.LBB54:
 696              	.LBB55:
  21:src/../h/../h/my_console.h ****         return;
 697              		.loc 2 21 5
 698 044c 6390070A 		bnez	a5,.L37
  22:src/../h/../h/my_console.h **** 
 699              		.loc 2 22 9
 700              	.LVL86:
 701              	.LBE55:
 702              	.LBE54:
 153:src/thread.cpp **** 
 154:src/thread.cpp ****     state = INITIALIZING;
 703              		.loc 1 154 5
 155:src/thread.cpp ****     timeSlice = DEFAULT_TIME_SLICE;
 704              		.loc 1 155 5
 705              		.loc 1 155 15 is_stmt 0
 706 0450 93072000 		li	a5,2
 707 0454 2338F51A 		sd	a5,432(a0)
 156:src/thread.cpp ****     pNext = nullptr;
 708              		.loc 1 156 5 is_stmt 1
 709              		.loc 1 156 11 is_stmt 0
 710 0458 2330051C 		sd	zero,448(a0)
 157:src/thread.cpp ****     pWaitingHead = nullptr;
 711              		.loc 1 157 5 is_stmt 1
 712              		.loc 1 157 18 is_stmt 0
 713 045c 2334051C 		sd	zero,456(a0)
 158:src/thread.cpp ****     done = false;
 714              		.loc 1 158 5 is_stmt 1
 715              		.loc 1 158 10 is_stmt 0
 716 0460 2308051C 		sb	zero,464(a0)
 159:src/thread.cpp **** 
 160:src/thread.cpp ****     // sets context
 161:src/thread.cpp ****     context[2] = (uint64)pLogicalStack; // sp field
 717              		.loc 1 161 5 is_stmt 1
 718              		.loc 1 161 16 is_stmt 0
 719 0464 2330D502 		sd	a3,32(a0)
 162:src/thread.cpp **** 
 163:src/thread.cpp ****     // skipping a0 to pass arguments as it is will be not be restored in the context switch because
 164:src/thread.cpp **** 
 165:src/thread.cpp ****     *((uint64*)pLogicalStack + 11) = (uint64)body;
 720              		.loc 1 165 5 is_stmt 1
 721              		.loc 1 165 36 is_stmt 0
 722 0468 23BCB604 		sd	a1,88(a3)
 166:src/thread.cpp ****     *((uint64*)pLogicalStack + 12) = (uint64)arg;
 723              		.loc 1 166 5 is_stmt 1
 724              		.loc 1 166 36 is_stmt 0
 725 046c 23B0C606 		sd	a2,96(a3)
 167:src/thread.cpp ****     *((uint64*)pLogicalStack + 32) = (uint64)&wrapper;
 726              		.loc 1 167 5 is_stmt 1
 727              		.loc 1 167 36 is_stmt 0
 728 0470 17070000 		lla	a4,_Z7wrappermPFvPvES_
 728      13070700 
 729 0478 23B0E610 		sd	a4,256(a3)
 168:src/thread.cpp **** 
 169:src/thread.cpp ****     state = READY;
 730              		.loc 1 169 5 is_stmt 1
GAS LISTING /tmp/cccuriWu.s 			page 21


 731              		.loc 1 169 11 is_stmt 0
 732 047c 2320F500 		sw	a5,0(a0)
 170:src/thread.cpp **** }
 733              		.loc 1 170 1
 734 0480 83308100 		ld	ra,8(sp)
 735              		.cfi_remember_state
 736              		.cfi_restore 1
 737 0484 03340100 		ld	s0,0(sp)
 738              		.cfi_restore 8
 739              		.cfi_def_cfa 2, 16
 740 0488 13010101 		addi	sp,sp,16
 741              		.cfi_def_cfa_offset 0
 742 048c 67800000 		jr	ra
 743              	.LVL87:
 744              	.L36:
 745              		.cfi_restore_state
 746              	.LBB57:
 747              	.LBB53:
  24:src/../h/../h/my_console.h ****     putString(file);
 748              		.loc 2 24 5 is_stmt 1
  24:src/../h/../h/my_console.h ****     putString(file);
 749              		.loc 2 24 14 is_stmt 0
 750 0490 17050000 		lla	a0,.LC0
 750      13050500 
 751              	.LVL88:
 752 0498 97000000 		call	_Z9putStringPKc@plt
 752      E7800000 
 753              	.LVL89:
  25:src/../h/../h/my_console.h ****     putString("    line: ");
 754              		.loc 2 25 5 is_stmt 1
  25:src/../h/../h/my_console.h ****     putString("    line: ");
 755              		.loc 2 25 14 is_stmt 0
 756 04a0 17050000 		lla	a0,.LC1
 756      13050500 
 757 04a8 97000000 		call	_Z9putStringPKc@plt
 757      E7800000 
 758              	.LVL90:
  26:src/../h/../h/my_console.h ****     putInt(line);
 759              		.loc 2 26 5 is_stmt 1
  26:src/../h/../h/my_console.h ****     putInt(line);
 760              		.loc 2 26 14 is_stmt 0
 761 04b0 17050000 		lla	a0,.LC2
 761      13050500 
 762 04b8 97000000 		call	_Z9putStringPKc@plt
 762      E7800000 
 763              	.LVL91:
  27:src/../h/../h/my_console.h ****     putString("   ===========================");
 764              		.loc 2 27 5 is_stmt 1
  27:src/../h/../h/my_console.h ****     putString("   ===========================");
 765              		.loc 2 27 11 is_stmt 0
 766 04c0 13054009 		li	a0,148
 767 04c4 97000000 		call	_Z6putInti@plt
 767      E7800000 
 768              	.LVL92:
  28:src/../h/../h/my_console.h ****     putNewline();
 769              		.loc 2 28 5 is_stmt 1
  28:src/../h/../h/my_console.h ****     putNewline();
GAS LISTING /tmp/cccuriWu.s 			page 22


 770              		.loc 2 28 14 is_stmt 0
 771 04cc 17050000 		lla	a0,.LC3
 771      13050500 
 772 04d4 97000000 		call	_Z9putStringPKc@plt
 772      E7800000 
 773              	.LVL93:
  29:src/../h/../h/my_console.h **** 
 774              		.loc 2 29 5 is_stmt 1
  29:src/../h/../h/my_console.h **** 
 775              		.loc 2 29 15 is_stmt 0
 776 04dc 97000000 		call	_Z10putNewlinev@plt
 776      E7800000 
 777              	.LVL94:
 778              		.loc 2 31 5 is_stmt 1
 779              		.loc 2 31 15 is_stmt 0
 780 04e4 97000000 		call	_Z10stopKernelv@plt
 780      E7800000 
 781              	.LVL95:
 782              	.L37:
 783              	.LBE53:
 784              	.LBE57:
 785              	.LBB58:
 786              	.LBB56:
  24:src/../h/../h/my_console.h ****     putString(file);
 787              		.loc 2 24 5 is_stmt 1
  24:src/../h/../h/my_console.h ****     putString(file);
 788              		.loc 2 24 14 is_stmt 0
 789 04ec 17050000 		lla	a0,.LC0
 789      13050500 
 790              	.LVL96:
 791 04f4 97000000 		call	_Z9putStringPKc@plt
 791      E7800000 
 792              	.LVL97:
  25:src/../h/../h/my_console.h ****     putString("    line: ");
 793              		.loc 2 25 5 is_stmt 1
  25:src/../h/../h/my_console.h ****     putString("    line: ");
 794              		.loc 2 25 14 is_stmt 0
 795 04fc 17050000 		lla	a0,.LC1
 795      13050500 
 796 0504 97000000 		call	_Z9putStringPKc@plt
 796      E7800000 
 797              	.LVL98:
  26:src/../h/../h/my_console.h ****     putInt(line);
 798              		.loc 2 26 5 is_stmt 1
  26:src/../h/../h/my_console.h ****     putInt(line);
 799              		.loc 2 26 14 is_stmt 0
 800 050c 17050000 		lla	a0,.LC2
 800      13050500 
 801 0514 97000000 		call	_Z9putStringPKc@plt
 801      E7800000 
 802              	.LVL99:
  27:src/../h/../h/my_console.h ****     putString("   ===========================");
 803              		.loc 2 27 5 is_stmt 1
  27:src/../h/../h/my_console.h ****     putString("   ===========================");
 804              		.loc 2 27 11 is_stmt 0
 805 051c 13058009 		li	a0,152
 806 0520 97000000 		call	_Z6putInti@plt
GAS LISTING /tmp/cccuriWu.s 			page 23


 806      E7800000 
 807              	.LVL100:
  28:src/../h/../h/my_console.h ****     putNewline();
 808              		.loc 2 28 5 is_stmt 1
  28:src/../h/../h/my_console.h ****     putNewline();
 809              		.loc 2 28 14 is_stmt 0
 810 0528 17050000 		lla	a0,.LC3
 810      13050500 
 811 0530 97000000 		call	_Z9putStringPKc@plt
 811      E7800000 
 812              	.LVL101:
  29:src/../h/../h/my_console.h **** 
 813              		.loc 2 29 5 is_stmt 1
  29:src/../h/../h/my_console.h **** 
 814              		.loc 2 29 15 is_stmt 0
 815 0538 97000000 		call	_Z10putNewlinev@plt
 815      E7800000 
 816              	.LVL102:
 817              		.loc 2 31 5 is_stmt 1
 818              		.loc 2 31 15 is_stmt 0
 819 0540 97000000 		call	_Z10stopKernelv@plt
 819      E7800000 
 820              	.LVL103:
 821              	.LBE56:
 822              	.LBE58:
 823              		.cfi_endproc
 824              	.LFE22:
 826              		.align	2
 827              		.globl	_ZN6Thread12createThreadEPmPFvPvES1_
 829              	_ZN6Thread12createThreadEPmPFvPvES1_:
 830              	.LFB18:
  98:src/thread.cpp ****     assert(nrTotalThreads < MAX_NR_TOTAL_THREADS);
 831              		.loc 1 98 1 is_stmt 1
 832              		.cfi_startproc
 833              	.LVL104:
 834 0548 130101FD 		addi	sp,sp,-48
 835              		.cfi_def_cfa_offset 48
 836 054c 23341102 		sd	ra,40(sp)
 837 0550 23308102 		sd	s0,32(sp)
 838 0554 233C9100 		sd	s1,24(sp)
 839 0558 23382101 		sd	s2,16(sp)
 840 055c 23343101 		sd	s3,8(sp)
 841 0560 23304101 		sd	s4,0(sp)
 842              		.cfi_offset 1, -8
 843              		.cfi_offset 8, -16
 844              		.cfi_offset 9, -24
 845              		.cfi_offset 18, -32
 846              		.cfi_offset 19, -40
 847              		.cfi_offset 20, -48
 848 0564 13040103 		addi	s0,sp,48
 849              		.cfi_def_cfa 8, 0
  99:src/thread.cpp **** 
 850              		.loc 1 99 5
 851 0568 97070000 		ld	a5,.LANCHOR1
 851      83B70700 
 852 0570 93B74706 		sltiu	a5,a5,100
 853              	.LVL105:
GAS LISTING /tmp/cccuriWu.s 			page 24


 854              	.LBB61:
 855              	.LBB62:
  21:src/../h/../h/my_console.h ****         return;
 856              		.loc 2 21 5
 857 0574 6380070A 		beqz	a5,.L41
 858 0578 13090500 		mv	s2,a0
 859 057c 93890500 		mv	s3,a1
 860 0580 130A0600 		mv	s4,a2
  22:src/../h/../h/my_console.h **** 
 861              		.loc 2 22 9
 862              	.LVL106:
 863              	.LBE62:
 864              	.LBE61:
 101:src/thread.cpp ****     pAllThreads[nrTotalThreads] = t;
 865              		.loc 1 101 5
 101:src/thread.cpp ****     pAllThreads[nrTotalThreads] = t;
 866              		.loc 1 101 51 is_stmt 0
 867 0584 97000000 		call	_ZN8MemAlloc3getEv@plt
 867      E7800000 
 868              	.LVL107:
 869 058c 9305801D 		li	a1,472
 870 0590 97000000 		call	_ZN8MemAlloc8allocMemEm@plt
 870      E7800000 
 871              	.LVL108:
 872 0598 93040500 		mv	s1,a0
 873              	.LVL109:
 102:src/thread.cpp **** 
 874              		.loc 1 102 5 is_stmt 1
 102:src/thread.cpp **** 
 875              		.loc 1 102 33 is_stmt 0
 876 059c 97070000 		ld	a5,.LANCHOR1
 876      83B70700 
 877 05a4 13973700 		slli	a4,a5,3
 878 05a8 97070000 		lla	a5,.LANCHOR0
 878      93870700 
 879 05b0 B387E700 		add	a5,a5,a4
 880 05b4 23B8A700 		sd	a0,16(a5)
 104:src/thread.cpp ****     void* pLogicalStack = t->allocStack();
 881              		.loc 1 104 5 is_stmt 1
 104:src/thread.cpp ****     void* pLogicalStack = t->allocStack();
 882              		.loc 1 104 20 is_stmt 0
 883 05b8 2334051A 		sd	zero,424(a0)
 105:src/thread.cpp **** 
 884              		.loc 1 105 5 is_stmt 1
 105:src/thread.cpp **** 
 885              		.loc 1 105 40 is_stmt 0
 886 05bc 97000000 		call	_ZN6Thread10allocStackEv
 886      E7800000 
 887              	.LVL110:
 888 05c4 93060500 		mv	a3,a0
 889              	.LVL111:
 107:src/thread.cpp **** 
 890              		.loc 1 107 5 is_stmt 1
 107:src/thread.cpp **** 
 891              		.loc 1 107 12 is_stmt 0
 892 05c8 13060A00 		mv	a2,s4
 893 05cc 93850900 		mv	a1,s3
GAS LISTING /tmp/cccuriWu.s 			page 25


 894 05d0 13850400 		mv	a0,s1
 895              	.LVL112:
 896 05d4 97000000 		call	_ZN6Thread4initEPFvPvES0_S0_
 896      E7800000 
 897              	.LVL113:
 109:src/thread.cpp **** 
 898              		.loc 1 109 5 is_stmt 1
 109:src/thread.cpp **** 
 899              		.loc 1 109 14 is_stmt 0
 900 05dc 83B7841B 		ld	a5,440(s1)
 109:src/thread.cpp **** 
 901              		.loc 1 109 9
 902 05e0 2330F900 		sd	a5,0(s2)
 111:src/thread.cpp **** 
 903              		.loc 1 111 5 is_stmt 1
 111:src/thread.cpp **** 
 904              		.loc 1 111 19 is_stmt 0
 905 05e4 13850400 		mv	a0,s1
 906 05e8 97000000 		call	_ZN9Scheduler3putEP6Thread@plt
 906      E7800000 
 907              	.LVL114:
 113:src/thread.cpp **** }
 908              		.loc 1 113 5 is_stmt 1
 114:src/thread.cpp **** 
 909              		.loc 1 114 1 is_stmt 0
 910 05f0 13050000 		li	a0,0
 911 05f4 83308102 		ld	ra,40(sp)
 912              		.cfi_remember_state
 913              		.cfi_restore 1
 914 05f8 03340102 		ld	s0,32(sp)
 915              		.cfi_restore 8
 916              		.cfi_def_cfa 2, 48
 917 05fc 83348101 		ld	s1,24(sp)
 918              		.cfi_restore 9
 919              	.LVL115:
 920 0600 03390101 		ld	s2,16(sp)
 921              		.cfi_restore 18
 922              	.LVL116:
 923 0604 83398100 		ld	s3,8(sp)
 924              		.cfi_restore 19
 925              	.LVL117:
 926 0608 033A0100 		ld	s4,0(sp)
 927              		.cfi_restore 20
 928              	.LVL118:
 929 060c 13010103 		addi	sp,sp,48
 930              		.cfi_def_cfa_offset 0
 931 0610 67800000 		jr	ra
 932              	.LVL119:
 933              	.L41:
 934              		.cfi_restore_state
 935              	.LBB64:
 936              	.LBB63:
  24:src/../h/../h/my_console.h ****     putString(file);
 937              		.loc 2 24 5 is_stmt 1
  24:src/../h/../h/my_console.h ****     putString(file);
 938              		.loc 2 24 14 is_stmt 0
 939 0614 17050000 		lla	a0,.LC0
GAS LISTING /tmp/cccuriWu.s 			page 26


 939      13050500 
 940              	.LVL120:
 941 061c 97000000 		call	_Z9putStringPKc@plt
 941      E7800000 
 942              	.LVL121:
  25:src/../h/../h/my_console.h ****     putString("    line: ");
 943              		.loc 2 25 5 is_stmt 1
  25:src/../h/../h/my_console.h ****     putString("    line: ");
 944              		.loc 2 25 14 is_stmt 0
 945 0624 17050000 		lla	a0,.LC1
 945      13050500 
 946 062c 97000000 		call	_Z9putStringPKc@plt
 946      E7800000 
 947              	.LVL122:
  26:src/../h/../h/my_console.h ****     putInt(line);
 948              		.loc 2 26 5 is_stmt 1
  26:src/../h/../h/my_console.h ****     putInt(line);
 949              		.loc 2 26 14 is_stmt 0
 950 0634 17050000 		lla	a0,.LC2
 950      13050500 
 951 063c 97000000 		call	_Z9putStringPKc@plt
 951      E7800000 
 952              	.LVL123:
  27:src/../h/../h/my_console.h ****     putString("   ===========================");
 953              		.loc 2 27 5 is_stmt 1
  27:src/../h/../h/my_console.h ****     putString("   ===========================");
 954              		.loc 2 27 11 is_stmt 0
 955 0644 13053006 		li	a0,99
 956 0648 97000000 		call	_Z6putInti@plt
 956      E7800000 
 957              	.LVL124:
  28:src/../h/../h/my_console.h ****     putNewline();
 958              		.loc 2 28 5 is_stmt 1
  28:src/../h/../h/my_console.h ****     putNewline();
 959              		.loc 2 28 14 is_stmt 0
 960 0650 17050000 		lla	a0,.LC3
 960      13050500 
 961 0658 97000000 		call	_Z9putStringPKc@plt
 961      E7800000 
 962              	.LVL125:
  29:src/../h/../h/my_console.h **** 
 963              		.loc 2 29 5 is_stmt 1
  29:src/../h/../h/my_console.h **** 
 964              		.loc 2 29 15 is_stmt 0
 965 0660 97000000 		call	_Z10putNewlinev@plt
 965      E7800000 
 966              	.LVL126:
 967              		.loc 2 31 5 is_stmt 1
 968              		.loc 2 31 15 is_stmt 0
 969 0668 97000000 		call	_Z10stopKernelv@plt
 969      E7800000 
 970              	.LVL127:
 971              	.LBE63:
 972              	.LBE64:
 973              		.cfi_endproc
 974              	.LFE18:
 976              		.section	.rodata.str1.8
GAS LISTING /tmp/cccuriWu.s 			page 27


 977 0067 00       		.align	3
 978              	.LC4:
 979 0068 3D3D3D3D 		.string	"==== NO MORE THREADS EXIST. RETURNING TO KERNEL THREAD"
 979      204E4F20 
 979      4D4F5245 
 979      20544852 
 979      45414453 
 980              		.text
 981              		.align	2
 982              		.globl	_ZN6Thread4exitEv
 984              	_ZN6Thread4exitEv:
 985              	.LFB23:
 171:src/thread.cpp **** 
 172:src/thread.cpp **** int Thread::exit()
 173:src/thread.cpp **** {
 986              		.loc 1 173 1 is_stmt 1
 987              		.cfi_startproc
 988 0670 130101FE 		addi	sp,sp,-32
 989              		.cfi_def_cfa_offset 32
 990 0674 233C1100 		sd	ra,24(sp)
 991 0678 23388100 		sd	s0,16(sp)
 992 067c 23349100 		sd	s1,8(sp)
 993              		.cfi_offset 1, -8
 994              		.cfi_offset 8, -16
 995              		.cfi_offset 9, -24
 996 0680 13040102 		addi	s0,sp,32
 997              		.cfi_def_cfa 8, 0
 174:src/thread.cpp ****     Thread* t = Thread::getPRunning();
 998              		.loc 1 174 5
 999              		.loc 1 174 36 is_stmt 0
 1000 0684 97000000 		call	_ZN6Thread11getPRunningEv
 1000      E7800000 
 1001              	.LVL128:
 175:src/thread.cpp ****     assert(t->state == RUNNING);
 1002              		.loc 1 175 5 is_stmt 1
 1003 068c 83270500 		lw	a5,0(a0)
 1004              	.LVL129:
 1005              	.LBB78:
 1006              	.LBB79:
  21:src/../h/../h/my_console.h ****         return;
 1007              		.loc 2 21 5
 1008 0690 63940708 		bnez	a5,.L49
 1009 0694 93040500 		mv	s1,a0
  22:src/../h/../h/my_console.h **** 
 1010              		.loc 2 22 9
 1011              	.LVL130:
 1012              	.LBE79:
 1013              	.LBE78:
 176:src/thread.cpp ****     assert(t->done == false);
 1014              		.loc 1 176 5
 1015 0698 8347051D 		lbu	a5,464(a0)
 1016 069c 93C71700 		xori	a5,a5,1
 1017              	.LVL131:
 1018              	.LBB81:
 1019              	.LBB82:
  21:src/../h/../h/my_console.h ****         return;
 1020              		.loc 2 21 5
GAS LISTING /tmp/cccuriWu.s 			page 28


 1021 06a0 638A070C 		beqz	a5,.L50
  22:src/../h/../h/my_console.h **** 
 1022              		.loc 2 22 9
 1023              	.LVL132:
 1024              	.LBE82:
 1025              	.LBE81:
 177:src/thread.cpp ****     t->done = true;
 1026              		.loc 1 177 5
 1027              		.loc 1 177 13 is_stmt 0
 1028 06a4 93071000 		li	a5,1
 1029 06a8 2308F51C 		sb	a5,464(a0)
 178:src/thread.cpp **** 
 179:src/thread.cpp ****     MemAlloc::get()->freeMem(t->pStackStart);
 1030              		.loc 1 179 5 is_stmt 1
 1031              		.loc 1 179 29 is_stmt 0
 1032 06ac 97000000 		call	_ZN8MemAlloc3getEv@plt
 1032      E7800000 
 1033              	.LVL133:
 1034 06b4 83B5841A 		ld	a1,424(s1)
 1035 06b8 97000000 		call	_ZN8MemAlloc7freeMemEPv@plt
 1035      E7800000 
 1036              	.LVL134:
 180:src/thread.cpp **** 
 181:src/thread.cpp ****     t->signalDone(); // WARNING: must be in this order
 1037              		.loc 1 181 5 is_stmt 1
 1038              		.loc 1 181 18 is_stmt 0
 1039 06c0 13850400 		mv	a0,s1
 1040 06c4 97000000 		call	_ZN6Thread10signalDoneEv
 1040      E7800000 
 1041              	.LVL135:
 182:src/thread.cpp **** 
 183:src/thread.cpp ****     bool existReadyThread = !(Scheduler::get()->pHead == nullptr); // WARNING: must be after signal
 1042              		.loc 1 183 5 is_stmt 1
 1043              	.LBB84:
 1044              	.LBB85:
 1045              		.file 3 "src/../h/scheduler.h"
   1:src/../h/scheduler.h **** #pragma once
   2:src/../h/scheduler.h **** 
   3:src/../h/scheduler.h **** #include "../h/thread.h"
   4:src/../h/scheduler.h **** 
   5:src/../h/scheduler.h **** class Scheduler // singleton
   6:src/../h/scheduler.h **** {
   7:src/../h/scheduler.h **** public:
   8:src/../h/scheduler.h ****     static Scheduler* get()
   9:src/../h/scheduler.h ****     {
  10:src/../h/scheduler.h ****         static Scheduler instance;
 1046              		.loc 3 10 9
 1047              		.loc 3 10 26 is_stmt 0
 1048 06cc 97070000 		lbu	a5,_ZGVZN9Scheduler3getEvE8instance
 1048      83C70700 
 1049 06d4 639C0700 		bnez	a5,.L45
 1050              	.LVL136:
 1051              	.LBB86:
 1052              	.LBB87:
 1053              	.LBB88:
  11:src/../h/scheduler.h ****         return &instance;
  12:src/../h/scheduler.h ****     }
GAS LISTING /tmp/cccuriWu.s 			page 29


  13:src/../h/scheduler.h **** 
  14:src/../h/scheduler.h ****     static void dispatchToNext(); // WARNING: different than sys. call dispatch()
  15:src/../h/scheduler.h ****     static Thread* getNext();
  16:src/../h/scheduler.h ****     static void put(Thread*);
  17:src/../h/scheduler.h ****     static void printState();
  18:src/../h/scheduler.h **** 
  19:src/../h/scheduler.h ****     Thread* pHead; // points to the one that is the next to be run
  20:src/../h/scheduler.h **** 
  21:src/../h/scheduler.h **** private:
  22:src/../h/scheduler.h ****     Scheduler()
  23:src/../h/scheduler.h ****         : pHead(nullptr)
 1054              		.loc 3 23 24
 1055 06d8 97070000 		sd	zero,_ZZN9Scheduler3getEvE8instance,a5
 1055      23B00700 
 1056              	.LVL137:
 1057              	.LBE88:
 1058              	.LBE87:
 1059              	.LBE86:
  10:src/../h/scheduler.h ****         return &instance;
 1060              		.loc 3 10 26
 1061 06e0 93071000 		li	a5,1
 1062 06e4 17070000 		sb	a5,_ZGVZN9Scheduler3getEvE8instance,a4
 1062      2300F700 
 1063              	.L45:
  11:src/../h/scheduler.h ****         return &instance;
 1064              		.loc 3 11 9 is_stmt 1
 1065              	.LBE85:
 1066              	.LBE84:
 1067              		.loc 1 183 49 is_stmt 0
 1068 06ec 97070000 		ld	a5,_ZZN9Scheduler3getEvE8instance
 1068      83B70700 
 1069              	.LVL138:
 184:src/thread.cpp ****     if(!existReadyThread) // TODO: add (... && !existSleepedThread && !waitingForConsoleThread), vr
 1070              		.loc 1 184 5 is_stmt 1
 1071              	.LBB89:
 1072 06f4 638E070C 		beqz	a5,.L51
 1073              	.LVL139:
 1074              	.L46:
 1075              	.LBE89:
 185:src/thread.cpp ****     {
 186:src/thread.cpp ****         putString("==== NO MORE THREADS EXIST. RETURNING TO KERNEL THREAD");
 187:src/thread.cpp ****         putNewline();
 188:src/thread.cpp **** 
 189:src/thread.cpp ****         extern Thread kernelThread;
 190:src/thread.cpp ****         assert(pAllThreads[0] == &kernelThread);
 191:src/thread.cpp ****         pAllThreads[0]->state = READY;
 192:src/thread.cpp ****         Scheduler::put(Thread::pAllThreads[0]);
 193:src/thread.cpp **** 
 194:src/thread.cpp ****         // ovo je nesto pogresno
 195:src/thread.cpp **** //        __asm__ volatile ("csrc sstatus, 0x6"); // set spie bit to 1. spie signifies that we dont
 196:src/thread.cpp **** //        __asm__ volatile ("csrc sstatus, 0x9"); // clear spp bit, so we change to user mode after
 197:src/thread.cpp ****     }
 198:src/thread.cpp **** 
 199:src/thread.cpp ****     Scheduler::dispatchToNext();
 1076              		.loc 1 199 5
 1077              		.loc 1 199 30 is_stmt 0
 1078 06f8 97000000 		call	_ZN9Scheduler14dispatchToNextEv@plt
GAS LISTING /tmp/cccuriWu.s 			page 30


 1078      E7800000 
 1079              	.LVL140:
 200:src/thread.cpp **** 
 201:src/thread.cpp ****     return 0;
 1080              		.loc 1 201 5 is_stmt 1
 202:src/thread.cpp **** }
 1081              		.loc 1 202 1 is_stmt 0
 1082 0700 13050000 		li	a0,0
 1083 0704 83308101 		ld	ra,24(sp)
 1084              		.cfi_remember_state
 1085              		.cfi_restore 1
 1086 0708 03340101 		ld	s0,16(sp)
 1087              		.cfi_restore 8
 1088              		.cfi_def_cfa 2, 32
 1089 070c 83348100 		ld	s1,8(sp)
 1090              		.cfi_restore 9
 1091              	.LVL141:
 1092 0710 13010102 		addi	sp,sp,32
 1093              		.cfi_def_cfa_offset 0
 1094 0714 67800000 		jr	ra
 1095              	.LVL142:
 1096              	.L49:
 1097              		.cfi_restore_state
 1098              	.LBB96:
 1099              	.LBB80:
  24:src/../h/../h/my_console.h ****     putString(file);
 1100              		.loc 2 24 5 is_stmt 1
  24:src/../h/../h/my_console.h ****     putString(file);
 1101              		.loc 2 24 14 is_stmt 0
 1102 0718 17050000 		lla	a0,.LC0
 1102      13050500 
 1103              	.LVL143:
 1104 0720 97000000 		call	_Z9putStringPKc@plt
 1104      E7800000 
 1105              	.LVL144:
  25:src/../h/../h/my_console.h ****     putString("    line: ");
 1106              		.loc 2 25 5 is_stmt 1
  25:src/../h/../h/my_console.h ****     putString("    line: ");
 1107              		.loc 2 25 14 is_stmt 0
 1108 0728 17050000 		lla	a0,.LC1
 1108      13050500 
 1109 0730 97000000 		call	_Z9putStringPKc@plt
 1109      E7800000 
 1110              	.LVL145:
  26:src/../h/../h/my_console.h ****     putInt(line);
 1111              		.loc 2 26 5 is_stmt 1
  26:src/../h/../h/my_console.h ****     putInt(line);
 1112              		.loc 2 26 14 is_stmt 0
 1113 0738 17050000 		lla	a0,.LC2
 1113      13050500 
 1114 0740 97000000 		call	_Z9putStringPKc@plt
 1114      E7800000 
 1115              	.LVL146:
  27:src/../h/../h/my_console.h ****     putString("   ===========================");
 1116              		.loc 2 27 5 is_stmt 1
  27:src/../h/../h/my_console.h ****     putString("   ===========================");
 1117              		.loc 2 27 11 is_stmt 0
GAS LISTING /tmp/cccuriWu.s 			page 31


 1118 0748 1305F00A 		li	a0,175
 1119 074c 97000000 		call	_Z6putInti@plt
 1119      E7800000 
 1120              	.LVL147:
  28:src/../h/../h/my_console.h ****     putNewline();
 1121              		.loc 2 28 5 is_stmt 1
  28:src/../h/../h/my_console.h ****     putNewline();
 1122              		.loc 2 28 14 is_stmt 0
 1123 0754 17050000 		lla	a0,.LC3
 1123      13050500 
 1124 075c 97000000 		call	_Z9putStringPKc@plt
 1124      E7800000 
 1125              	.LVL148:
  29:src/../h/../h/my_console.h **** 
 1126              		.loc 2 29 5 is_stmt 1
  29:src/../h/../h/my_console.h **** 
 1127              		.loc 2 29 15 is_stmt 0
 1128 0764 97000000 		call	_Z10putNewlinev@plt
 1128      E7800000 
 1129              	.LVL149:
 1130              		.loc 2 31 5 is_stmt 1
 1131              		.loc 2 31 15 is_stmt 0
 1132 076c 97000000 		call	_Z10stopKernelv@plt
 1132      E7800000 
 1133              	.LVL150:
 1134              	.L50:
 1135              	.LBE80:
 1136              	.LBE96:
 1137              	.LBB97:
 1138              	.LBB83:
  24:src/../h/../h/my_console.h ****     putString(file);
 1139              		.loc 2 24 5 is_stmt 1
  24:src/../h/../h/my_console.h ****     putString(file);
 1140              		.loc 2 24 14 is_stmt 0
 1141 0774 17050000 		lla	a0,.LC0
 1141      13050500 
 1142 077c 97000000 		call	_Z9putStringPKc@plt
 1142      E7800000 
 1143              	.LVL151:
  25:src/../h/../h/my_console.h ****     putString("    line: ");
 1144              		.loc 2 25 5 is_stmt 1
  25:src/../h/../h/my_console.h ****     putString("    line: ");
 1145              		.loc 2 25 14 is_stmt 0
 1146 0784 17050000 		lla	a0,.LC1
 1146      13050500 
 1147 078c 97000000 		call	_Z9putStringPKc@plt
 1147      E7800000 
 1148              	.LVL152:
  26:src/../h/../h/my_console.h ****     putInt(line);
 1149              		.loc 2 26 5 is_stmt 1
  26:src/../h/../h/my_console.h ****     putInt(line);
 1150              		.loc 2 26 14 is_stmt 0
 1151 0794 17050000 		lla	a0,.LC2
 1151      13050500 
 1152 079c 97000000 		call	_Z9putStringPKc@plt
 1152      E7800000 
 1153              	.LVL153:
GAS LISTING /tmp/cccuriWu.s 			page 32


  27:src/../h/../h/my_console.h ****     putString("   ===========================");
 1154              		.loc 2 27 5 is_stmt 1
  27:src/../h/../h/my_console.h ****     putString("   ===========================");
 1155              		.loc 2 27 11 is_stmt 0
 1156 07a4 1305000B 		li	a0,176
 1157 07a8 97000000 		call	_Z6putInti@plt
 1157      E7800000 
 1158              	.LVL154:
  28:src/../h/../h/my_console.h ****     putNewline();
 1159              		.loc 2 28 5 is_stmt 1
  28:src/../h/../h/my_console.h ****     putNewline();
 1160              		.loc 2 28 14 is_stmt 0
 1161 07b0 17050000 		lla	a0,.LC3
 1161      13050500 
 1162 07b8 97000000 		call	_Z9putStringPKc@plt
 1162      E7800000 
 1163              	.LVL155:
  29:src/../h/../h/my_console.h **** 
 1164              		.loc 2 29 5 is_stmt 1
  29:src/../h/../h/my_console.h **** 
 1165              		.loc 2 29 15 is_stmt 0
 1166 07c0 97000000 		call	_Z10putNewlinev@plt
 1166      E7800000 
 1167              	.LVL156:
 1168              		.loc 2 31 5 is_stmt 1
 1169              		.loc 2 31 15 is_stmt 0
 1170 07c8 97000000 		call	_Z10stopKernelv@plt
 1170      E7800000 
 1171              	.LVL157:
 1172              	.L51:
 1173              	.LBE83:
 1174              	.LBE97:
 1175              	.LBB98:
 1176              	.LBB90:
 186:src/thread.cpp ****         putNewline();
 1177              		.loc 1 186 9 is_stmt 1
 186:src/thread.cpp ****         putNewline();
 1178              		.loc 1 186 18 is_stmt 0
 1179 07d0 17050000 		lla	a0,.LC4
 1179      13050500 
 1180 07d8 97000000 		call	_Z9putStringPKc@plt
 1180      E7800000 
 1181              	.LVL158:
 187:src/thread.cpp **** 
 1182              		.loc 1 187 9 is_stmt 1
 187:src/thread.cpp **** 
 1183              		.loc 1 187 19 is_stmt 0
 1184 07e0 97000000 		call	_Z10putNewlinev@plt
 1184      E7800000 
 1185              	.LVL159:
 189:src/thread.cpp ****         assert(pAllThreads[0] == &kernelThread);
 1186              		.loc 1 189 9 is_stmt 1
 190:src/thread.cpp ****         pAllThreads[0]->state = READY;
 1187              		.loc 1 190 9
 1188 07e8 17070000 		ld	a4,.LANCHOR0+16
 1188      03370700 
 1189 07f0 97070000 		la	a5,kernelThread
GAS LISTING /tmp/cccuriWu.s 			page 33


 1189      83B70700 
 1190              	.LVL160:
 1191              	.LBB91:
 1192              	.LBB92:
  21:src/../h/../h/my_console.h ****         return;
 1193              		.loc 2 21 5
 1194 07f8 6314F702 		bne	a4,a5,.L52
  22:src/../h/../h/my_console.h **** 
 1195              		.loc 2 22 9
 1196              	.LVL161:
 1197              	.LBE92:
 1198              	.LBE91:
 191:src/thread.cpp ****         Scheduler::put(Thread::pAllThreads[0]);
 1199              		.loc 1 191 9
 191:src/thread.cpp ****         Scheduler::put(Thread::pAllThreads[0]);
 1200              		.loc 1 191 22 is_stmt 0
 1201 07fc 97070000 		lla	a5,.LANCHOR0
 1201      93870700 
 1202 0804 03B70701 		ld	a4,16(a5)
 191:src/thread.cpp ****         Scheduler::put(Thread::pAllThreads[0]);
 1203              		.loc 1 191 31
 1204 0808 93062000 		li	a3,2
 1205 080c 2320D700 		sw	a3,0(a4)
 192:src/thread.cpp **** 
 1206              		.loc 1 192 9 is_stmt 1
 192:src/thread.cpp **** 
 1207              		.loc 1 192 23 is_stmt 0
 1208 0810 03B50701 		ld	a0,16(a5)
 1209 0814 97000000 		call	_ZN9Scheduler3putEP6Thread@plt
 1209      E7800000 
 1210              	.LVL162:
 1211              	.LBE90:
 1212 081c 6FF0DFED 		j	.L46
 1213              	.LVL163:
 1214              	.L52:
 1215              	.LBB95:
 1216              	.LBB94:
 1217              	.LBB93:
  24:src/../h/../h/my_console.h ****     putString(file);
 1218              		.loc 2 24 5 is_stmt 1
  24:src/../h/../h/my_console.h ****     putString(file);
 1219              		.loc 2 24 14 is_stmt 0
 1220 0820 17050000 		lla	a0,.LC0
 1220      13050500 
 1221 0828 97000000 		call	_Z9putStringPKc@plt
 1221      E7800000 
 1222              	.LVL164:
  25:src/../h/../h/my_console.h ****     putString("    line: ");
 1223              		.loc 2 25 5 is_stmt 1
  25:src/../h/../h/my_console.h ****     putString("    line: ");
 1224              		.loc 2 25 14 is_stmt 0
 1225 0830 17050000 		lla	a0,.LC1
 1225      13050500 
 1226 0838 97000000 		call	_Z9putStringPKc@plt
 1226      E7800000 
 1227              	.LVL165:
  26:src/../h/../h/my_console.h ****     putInt(line);
GAS LISTING /tmp/cccuriWu.s 			page 34


 1228              		.loc 2 26 5 is_stmt 1
  26:src/../h/../h/my_console.h ****     putInt(line);
 1229              		.loc 2 26 14 is_stmt 0
 1230 0840 17050000 		lla	a0,.LC2
 1230      13050500 
 1231 0848 97000000 		call	_Z9putStringPKc@plt
 1231      E7800000 
 1232              	.LVL166:
  27:src/../h/../h/my_console.h ****     putString("   ===========================");
 1233              		.loc 2 27 5 is_stmt 1
  27:src/../h/../h/my_console.h ****     putString("   ===========================");
 1234              		.loc 2 27 11 is_stmt 0
 1235 0850 1305E00B 		li	a0,190
 1236 0854 97000000 		call	_Z6putInti@plt
 1236      E7800000 
 1237              	.LVL167:
  28:src/../h/../h/my_console.h ****     putNewline();
 1238              		.loc 2 28 5 is_stmt 1
  28:src/../h/../h/my_console.h ****     putNewline();
 1239              		.loc 2 28 14 is_stmt 0
 1240 085c 17050000 		lla	a0,.LC3
 1240      13050500 
 1241 0864 97000000 		call	_Z9putStringPKc@plt
 1241      E7800000 
 1242              	.LVL168:
  29:src/../h/../h/my_console.h **** 
 1243              		.loc 2 29 5 is_stmt 1
  29:src/../h/../h/my_console.h **** 
 1244              		.loc 2 29 15 is_stmt 0
 1245 086c 97000000 		call	_Z10putNewlinev@plt
 1245      E7800000 
 1246              	.LVL169:
 1247              		.loc 2 31 5 is_stmt 1
 1248              		.loc 2 31 15 is_stmt 0
 1249 0874 97000000 		call	_Z10stopKernelv@plt
 1249      E7800000 
 1250              	.LVL170:
 1251              	.LBE93:
 1252              	.LBE94:
 1253              	.LBE95:
 1254              	.LBE98:
 1255              		.cfi_endproc
 1256              	.LFE23:
 1258              		.globl	_ZN6Thread22initialUserMemoryUsageE
 1259              		.globl	_ZN6Thread11pAllThreadsE
 1260              		.globl	_ZN6Thread14nrTotalThreadsE
 1261              		.globl	_ZN6Thread20switchedToUserThreadE
 1262              		.globl	_ZN6Thread16timeSliceCounterE
 1263              		.globl	_ZN6Thread15pRunningContextE
 1264              		.globl	_ZN6Thread8pRunningE
 1265              		.weak	_ZGVZN9Scheduler3getEvE8instance
 1266              		.section	.bss._ZGVZN9Scheduler3getEvE8instance,"awG",@nobits,_ZGVZN9Scheduler3getEvE8instance,comd
 1267              		.align	3
 1270              	_ZGVZN9Scheduler3getEvE8instance:
 1271 0000 00000000 		.zero	8
 1271      00000000 
 1272              		.weak	_ZZN9Scheduler3getEvE8instance
GAS LISTING /tmp/cccuriWu.s 			page 35


 1273              		.section	.bss._ZZN9Scheduler3getEvE8instance,"awG",@nobits,_ZZN9Scheduler3getEvE8instance,comdat
 1274              		.align	3
 1277              	_ZZN9Scheduler3getEvE8instance:
 1278 0000 00000000 		.zero	8
 1278      00000000 
 1279              		.data
 1280              		.align	3
 1281              		.set	.LANCHOR1,. + 0
 1284              	_ZN6Thread14nrTotalThreadsE:
 1285 0000 01000000 		.dword	1
 1285      00000000 
 1286              		.bss
 1287              		.align	3
 1288              		.set	.LANCHOR0,. + 0
 1291              	_ZN6Thread8pRunningE:
 1292 0000 00000000 		.zero	8
 1292      00000000 
 1295              	_ZN6Thread15pRunningContextE:
 1296 0008 00000000 		.zero	8
 1296      00000000 
 1299              	_ZN6Thread11pAllThreadsE:
 1300 0010 00000000 		.zero	800
 1300      00000000 
 1300      00000000 
 1300      00000000 
 1300      00000000 
 1303              	_ZN6Thread22initialUserMemoryUsageE:
 1304 0330 00000000 		.zero	8
 1304      00000000 
 1307              	_ZN6Thread20switchedToUserThreadE:
 1308 0338 00       		.zero	1
 1309 0339 00000000 		.zero	7
 1309      000000
 1312              	_ZN6Thread16timeSliceCounterE:
 1313 0340 00000000 		.zero	8
 1313      00000000 
 1314              		.text
 1315              	.Letext0:
 1316              		.file 4 "src/../h/../lib/hw.h"
 1317              		.file 5 "src/../h/thread.h"
 1318              		.file 6 "src/../h/alloc.h"
 1319              		.file 7 "src/../h/../h/c_api.h"
GAS LISTING /tmp/cccuriWu.s 			page 36

