GAS LISTING /tmp/cc7mt25p.s 			page 1


   1              		.file	"thread.cpp"
   2              		.option pic
   3              		.option norelax
   4              		.text
   5              	.Ltext0:
   6              		.align	2
   7              		.globl	_Z7wrappermPFvPvES_
   9              	_Z7wrappermPFvPvES_:
  10              	.LFB21:
  11              		.file 1 "src/thread.cpp"
   1:src/thread.cpp **** #include "../h/thread.h"
   2:src/thread.cpp **** #include "../h/alloc.h"
   3:src/thread.cpp **** #include "../h/scheduler.h"
   4:src/thread.cpp **** 
   5:src/thread.cpp **** uint64 IThread::timeSliceCounter = 0;
   6:src/thread.cpp **** 
   7:src/thread.cpp **** IThread* IThread::pRunning = nullptr;
   8:src/thread.cpp **** uint64** IThread::pRunningSp = nullptr;
   9:src/thread.cpp **** uint64 IThread::nrTotalThreads = 1;
  10:src/thread.cpp **** IThread* IThread::pAllThreads[MAX_NR_TOTAL_THREADS];
  11:src/thread.cpp **** uint64 IThread::initialUserMemoryUsage;
  12:src/thread.cpp **** //uint64* IThread::runningSp = nullptr;
  13:src/thread.cpp **** bool IThread::switchedToUserThread = 0;
  14:src/thread.cpp **** 
  15:src/thread.cpp **** void IThread::signalDone()
  16:src/thread.cpp **** {
  17:src/thread.cpp ****     IThread* pCur = pWaitingHead;
  18:src/thread.cpp **** 
  19:src/thread.cpp ****     while(pCur)
  20:src/thread.cpp ****     {
  21:src/thread.cpp ****         pCur->state = READY;
  22:src/thread.cpp ****         Scheduler::put(pCur);
  23:src/thread.cpp **** 
  24:src/thread.cpp ****         pCur = pCur->pNext;
  25:src/thread.cpp ****     }
  26:src/thread.cpp **** }
  27:src/thread.cpp **** 
  28:src/thread.cpp **** void IThread::join(uint64 id)
  29:src/thread.cpp **** {
  30:src/thread.cpp ****     IThread* oldRunning = IThread::getPRunning();
  31:src/thread.cpp **** 
  32:src/thread.cpp ****     IThread* t = pAllThreads[id];
  33:src/thread.cpp **** 
  34:src/thread.cpp ****     extern IThread kernelThread;
  35:src/thread.cpp ****     assert(oldRunning != &kernelThread); // you're only supposed to open user threads with system c
  36:src/thread.cpp **** 
  37:src/thread.cpp **** //    putU64(id);
  38:src/thread.cpp **** 
  39:src/thread.cpp ****     if(t->done == true)
  40:src/thread.cpp ****         return;
  41:src/thread.cpp **** 
  42:src/thread.cpp ****     if(t->pWaitingHead == nullptr)
  43:src/thread.cpp ****     {
  44:src/thread.cpp ****         t->pWaitingHead = oldRunning;
  45:src/thread.cpp ****     }
  46:src/thread.cpp ****     else
  47:src/thread.cpp ****     {
GAS LISTING /tmp/cc7mt25p.s 			page 2


  48:src/thread.cpp ****         IThread* pCur = t->pWaitingHead;
  49:src/thread.cpp ****         while(pCur->pNext)
  50:src/thread.cpp ****         {
  51:src/thread.cpp ****             pCur = pCur->pNext;
  52:src/thread.cpp ****         }
  53:src/thread.cpp **** 
  54:src/thread.cpp ****         pCur->pNext = oldRunning;
  55:src/thread.cpp ****     }
  56:src/thread.cpp **** 
  57:src/thread.cpp ****     oldRunning->pNext = nullptr;
  58:src/thread.cpp ****     oldRunning->state = SUSPENDED;
  59:src/thread.cpp **** 
  60:src/thread.cpp ****     Scheduler::dispatchToNext();
  61:src/thread.cpp **** }
  62:src/thread.cpp **** 
  63:src/thread.cpp **** void IThread::switchToUser()
  64:src/thread.cpp **** {
  65:src/thread.cpp ****     uint64 scause;
  66:src/thread.cpp ****     __asm__ volatile ("csrr %[name], scause" : [name] "=r"(scause));
  67:src/thread.cpp ****     bool cameFromKernelMode = ((scause & (1 << 8)) == 0);
  68:src/thread.cpp **** 
  69:src/thread.cpp ****     if(!cameFromKernelMode) // if user thread calls this it does nothing
  70:src/thread.cpp ****     {
  71:src/thread.cpp ****         assert(false); // temp
  72:src/thread.cpp ****         assert(IThread::pRunning->id != 0);
  73:src/thread.cpp ****         return;
  74:src/thread.cpp ****     }
  75:src/thread.cpp **** 
  76:src/thread.cpp ****     assert(IThread::pRunning->id == 0);
  77:src/thread.cpp **** 
  78:src/thread.cpp ****     Scheduler* s = Scheduler::get(); // temp
  79:src/thread.cpp ****     assert(s); // temp
  80:src/thread.cpp **** 
  81:src/thread.cpp ****     Scheduler::dispatchToNext();
  82:src/thread.cpp **** 
  83:src/thread.cpp ****     assert(IThread::getPRunning()->id == USER_THREAD_ID);
  84:src/thread.cpp **** 
  85:src/thread.cpp **** //    __asm__ volatile ("csrs sstatus, 0x6"); // TODO: probably should be removed when i add permis
  86:src/thread.cpp **** //    __asm__ volatile ("mv x10, x10");
  87:src/thread.cpp **** //    __asm__ volatile ("mv x10, x10");
  88:src/thread.cpp **** //    __asm__ volatile ("mv x10, x10");
  89:src/thread.cpp **** //    putString("KITA PENIS");
  90:src/thread.cpp **** 
  91:src/thread.cpp **** //    __asm__ volatile ("csrc sstatus, 0x9");
  92:src/thread.cpp **** //    __asm__ volatile ("csrc sstatus, 0x8");
  93:src/thread.cpp **** //    __asm__ volatile ("csrw sstatus, 0"); // TODO: radi preko csrc jer ovako menjam sve
  94:src/thread.cpp **** }
  95:src/thread.cpp **** 
  96:src/thread.cpp **** void IThread::setPRunning(IThread* p)
  97:src/thread.cpp **** {
  98:src/thread.cpp ****     pRunning = p;
  99:src/thread.cpp ****     pRunningSp = &(p->sp);
 100:src/thread.cpp **** }
 101:src/thread.cpp **** 
 102:src/thread.cpp **** int IThread::createThread(uint64* id, Body body, void* arg)
 103:src/thread.cpp **** {
 104:src/thread.cpp ****     assert(nrTotalThreads < MAX_NR_TOTAL_THREADS);
GAS LISTING /tmp/cc7mt25p.s 			page 3


 105:src/thread.cpp **** 
 106:src/thread.cpp ****     IThread* t = (IThread*)MemAlloc::get()->allocMem(sizeof(IThread));
 107:src/thread.cpp ****     pAllThreads[nrTotalThreads] = t;
 108:src/thread.cpp **** 
 109:src/thread.cpp ****     t->pStackStart = nullptr;
 110:src/thread.cpp ****     void* pLogicalStack = t->allocStack();
 111:src/thread.cpp **** 
 112:src/thread.cpp ****     t->init(body, arg, pLogicalStack);
 113:src/thread.cpp **** 
 114:src/thread.cpp ****     *id = t->id;
 115:src/thread.cpp **** 
 116:src/thread.cpp ****     Scheduler::put(t);
 117:src/thread.cpp **** 
 118:src/thread.cpp ****     return 0;
 119:src/thread.cpp **** }
 120:src/thread.cpp **** 
 121:src/thread.cpp **** IThread* IThread::getPRunning()
 122:src/thread.cpp **** {
 123:src/thread.cpp ****     __asm__ volatile("mv x10, x10"); // to avoid inline
 124:src/thread.cpp ****     return pRunning;
 125:src/thread.cpp **** }
 126:src/thread.cpp **** 
 127:src/thread.cpp **** void* IThread::allocStack()
 128:src/thread.cpp **** {
 129:src/thread.cpp ****     assert(pStackStart == nullptr); // error: this threads stack may have already been allocated
 130:src/thread.cpp **** 
 131:src/thread.cpp ****     pStackStart = MemAlloc::get()->allocMem(ACTUAL_STACK_SIZE);
 132:src/thread.cpp ****     uint64 stack =  (uint64)pStackStart + ACTUAL_STACK_SIZE;
 133:src/thread.cpp **** 
 134:src/thread.cpp ****     if(stack % 16 != 0)
 135:src/thread.cpp ****     {
 136:src/thread.cpp ****         stack -= stack % 16;
 137:src/thread.cpp ****     }
 138:src/thread.cpp **** 
 139:src/thread.cpp ****     stack -= 34*8; // for the initial context (necessary to avoid exceptions from reading from unal
 140:src/thread.cpp **** 
 141:src/thread.cpp ****     return (void*)stack;
 142:src/thread.cpp **** 
 143:src/thread.cpp **** }
 144:src/thread.cpp **** 
 145:src/thread.cpp **** void wrapper(uint64 __DO_NOT_USE, IThread::Body body, void* arg) // this entire function can be run
 146:src/thread.cpp **** {
  12              		.loc 1 146 1
  13              		.cfi_startproc
  14              	.LVL0:
  15 0000 130101FF 		addi	sp,sp,-16
  16              		.cfi_def_cfa_offset 16
  17 0004 23341100 		sd	ra,8(sp)
  18 0008 23308100 		sd	s0,0(sp)
  19              		.cfi_offset 1, -8
  20              		.cfi_offset 8, -16
  21 000c 13040101 		addi	s0,sp,16
  22              		.cfi_def_cfa 8, 0
 147:src/thread.cpp ****     (*body)(arg);
  23              		.loc 1 147 5
  24              		.loc 1 147 12 is_stmt 0
  25 0010 13050600 		mv	a0,a2
GAS LISTING /tmp/cc7mt25p.s 			page 4


  26              	.LVL1:
  27 0014 E7800500 		jalr	a1
  28              	.LVL2:
 148:src/thread.cpp ****     thread_exit();
  29              		.loc 1 148 5 is_stmt 1
  30              		.loc 1 148 16 is_stmt 0
  31 0018 97000000 		call	_Z11thread_exitv@plt
  31      E7800000 
  32              	.LVL3:
 149:src/thread.cpp **** }
  33              		.loc 1 149 1
  34 0020 83308100 		ld	ra,8(sp)
  35              		.cfi_restore 1
  36 0024 03340100 		ld	s0,0(sp)
  37              		.cfi_restore 8
  38              		.cfi_def_cfa 2, 16
  39 0028 13010101 		addi	sp,sp,16
  40              		.cfi_def_cfa_offset 0
  41 002c 67800000 		jr	ra
  42              		.cfi_endproc
  43              	.LFE21:
  45              		.align	2
  46              		.globl	_ZN7IThread10signalDoneEv
  48              	_ZN7IThread10signalDoneEv:
  49              	.LFB14:
  16:src/thread.cpp ****     IThread* pCur = pWaitingHead;
  50              		.loc 1 16 1 is_stmt 1
  51              		.cfi_startproc
  52              	.LVL4:
  53 0030 130101FE 		addi	sp,sp,-32
  54              		.cfi_def_cfa_offset 32
  55 0034 233C1100 		sd	ra,24(sp)
  56 0038 23388100 		sd	s0,16(sp)
  57 003c 23349100 		sd	s1,8(sp)
  58              		.cfi_offset 1, -8
  59              		.cfi_offset 8, -16
  60              		.cfi_offset 9, -24
  61 0040 13040102 		addi	s0,sp,32
  62              		.cfi_def_cfa 8, 0
  17:src/thread.cpp **** 
  63              		.loc 1 17 5
  17:src/thread.cpp **** 
  64              		.loc 1 17 14 is_stmt 0
  65 0044 83348503 		ld	s1,56(a0)
  66              	.LVL5:
  67              	.L5:
  19:src/thread.cpp ****     {
  68              		.loc 1 19 5 is_stmt 1
  19:src/thread.cpp ****     {
  69              		.loc 1 19 11
  70 0048 63800402 		beqz	s1,.L3
  21:src/thread.cpp ****         Scheduler::put(pCur);
  71              		.loc 1 21 9
  21:src/thread.cpp ****         Scheduler::put(pCur);
  72              		.loc 1 21 21 is_stmt 0
  73 004c 93072000 		li	a5,2
  74 0050 23A0F400 		sw	a5,0(s1)
GAS LISTING /tmp/cc7mt25p.s 			page 5


  22:src/thread.cpp **** 
  75              		.loc 1 22 9 is_stmt 1
  22:src/thread.cpp **** 
  76              		.loc 1 22 23 is_stmt 0
  77 0054 13850400 		mv	a0,s1
  78 0058 97000000 		call	_ZN9Scheduler3putEP7IThread@plt
  78      E7800000 
  79              	.LVL6:
  24:src/thread.cpp ****     }
  80              		.loc 1 24 9 is_stmt 1
  24:src/thread.cpp ****     }
  81              		.loc 1 24 14 is_stmt 0
  82 0060 83B40403 		ld	s1,48(s1)
  83              	.LVL7:
  19:src/thread.cpp ****     {
  84              		.loc 1 19 5
  85 0064 6FF05FFE 		j	.L5
  86              	.L3:
  26:src/thread.cpp **** 
  87              		.loc 1 26 1
  88 0068 83308101 		ld	ra,24(sp)
  89              		.cfi_restore 1
  90 006c 03340101 		ld	s0,16(sp)
  91              		.cfi_restore 8
  92              		.cfi_def_cfa 2, 32
  93 0070 83348100 		ld	s1,8(sp)
  94              		.cfi_restore 9
  95              	.LVL8:
  96 0074 13010102 		addi	sp,sp,32
  97              		.cfi_def_cfa_offset 0
  98 0078 67800000 		jr	ra
  99              		.cfi_endproc
 100              	.LFE14:
 102              		.align	2
 103              		.globl	_ZN7IThread11setPRunningEPS_
 105              	_ZN7IThread11setPRunningEPS_:
 106              	.LFB17:
  97:src/thread.cpp ****     pRunning = p;
 107              		.loc 1 97 1 is_stmt 1
 108              		.cfi_startproc
 109              	.LVL9:
 110 007c 130101FF 		addi	sp,sp,-16
 111              		.cfi_def_cfa_offset 16
 112 0080 23348100 		sd	s0,8(sp)
 113              		.cfi_offset 8, -8
 114 0084 13040101 		addi	s0,sp,16
 115              		.cfi_def_cfa 8, 0
  98:src/thread.cpp ****     pRunningSp = &(p->sp);
 116              		.loc 1 98 5
  98:src/thread.cpp ****     pRunningSp = &(p->sp);
 117              		.loc 1 98 14 is_stmt 0
 118 0088 97070000 		lla	a5,.LANCHOR0
 118      93870700 
 119 0090 23B0A700 		sd	a0,0(a5)
  99:src/thread.cpp **** }
 120              		.loc 1 99 5 is_stmt 1
  99:src/thread.cpp **** }
GAS LISTING /tmp/cc7mt25p.s 			page 6


 121              		.loc 1 99 18 is_stmt 0
 122 0094 13050505 		addi	a0,a0,80
 123              	.LVL10:
  99:src/thread.cpp **** }
 124              		.loc 1 99 16
 125 0098 23B4A700 		sd	a0,8(a5)
 100:src/thread.cpp **** 
 126              		.loc 1 100 1
 127 009c 03348100 		ld	s0,8(sp)
 128              		.cfi_restore 8
 129              		.cfi_def_cfa 2, 16
 130 00a0 13010101 		addi	sp,sp,16
 131              		.cfi_def_cfa_offset 0
 132 00a4 67800000 		jr	ra
 133              		.cfi_endproc
 134              	.LFE17:
 136              		.align	2
 137              		.globl	_ZN7IThread11getPRunningEv
 139              	_ZN7IThread11getPRunningEv:
 140              	.LFB19:
 122:src/thread.cpp ****     __asm__ volatile("mv x10, x10"); // to avoid inline
 141              		.loc 1 122 1 is_stmt 1
 142              		.cfi_startproc
 143 00a8 130101FF 		addi	sp,sp,-16
 144              		.cfi_def_cfa_offset 16
 145 00ac 23348100 		sd	s0,8(sp)
 146              		.cfi_offset 8, -8
 147 00b0 13040101 		addi	s0,sp,16
 148              		.cfi_def_cfa 8, 0
 123:src/thread.cpp ****     return pRunning;
 149              		.loc 1 123 5
 123:src/thread.cpp ****     return pRunning;
 150              		.loc 1 123 36 is_stmt 0
 151              	#APP
 152              	# 123 "src/thread.cpp" 1
 124:src/thread.cpp **** }
 153              		mv x10, x10
 154              	# 0 "" 2
 155              		.loc 1 124 5 is_stmt 1
 125:src/thread.cpp **** 
 156              		.loc 1 125 1 is_stmt 0
 157              	#NO_APP
 158 00b8 17050000 		ld	a0,.LANCHOR0
 158      03350500 
 159 00c0 03348100 		ld	s0,8(sp)
 160              		.cfi_restore 8
 161              		.cfi_def_cfa 2, 16
 162 00c4 13010101 		addi	sp,sp,16
 163              		.cfi_def_cfa_offset 0
 164 00c8 67800000 		jr	ra
 165              		.cfi_endproc
 166              	.LFE19:
 168              		.section	.rodata.str1.8,"aMS",@progbits,1
 169              		.align	3
 170              	.LC0:
 171 0000 3D3D3D3D 		.string	"===================== ASSERT file: "
 171      3D3D3D3D 
GAS LISTING /tmp/cc7mt25p.s 			page 7


 171      3D3D3D3D 
 171      3D3D3D3D 
 171      3D3D3D3D 
 172 0024 00000000 		.align	3
 173              	.LC1:
 174 0028 7372632F 		.string	"src/thread.cpp"
 174      74687265 
 174      61642E63 
 174      707000
 175 0037 00       		.align	3
 176              	.LC2:
 177 0038 20202020 		.string	"    line: "
 177      6C696E65 
 177      3A2000
 178 0043 00000000 		.align	3
 178      00
 179              	.LC3:
 180 0048 2020203D 		.string	"   ==========================="
 180      3D3D3D3D 
 180      3D3D3D3D 
 180      3D3D3D3D 
 180      3D3D3D3D 
 181              		.text
 182              		.align	2
 183              		.globl	_ZN7IThread4joinEm
 185              	_ZN7IThread4joinEm:
 186              	.LFB15:
  29:src/thread.cpp ****     IThread* oldRunning = IThread::getPRunning();
 187              		.loc 1 29 1 is_stmt 1
 188              		.cfi_startproc
 189              	.LVL11:
 190 00cc 130101FE 		addi	sp,sp,-32
 191              		.cfi_def_cfa_offset 32
 192 00d0 233C1100 		sd	ra,24(sp)
 193 00d4 23388100 		sd	s0,16(sp)
 194 00d8 23349100 		sd	s1,8(sp)
 195              		.cfi_offset 1, -8
 196              		.cfi_offset 8, -16
 197              		.cfi_offset 9, -24
 198 00dc 13040102 		addi	s0,sp,32
 199              		.cfi_def_cfa 8, 0
 200 00e0 93040500 		mv	s1,a0
  30:src/thread.cpp **** 
 201              		.loc 1 30 5
  30:src/thread.cpp **** 
 202              		.loc 1 30 47 is_stmt 0
 203 00e4 97000000 		call	_ZN7IThread11getPRunningEv
 203      E7800000 
 204              	.LVL12:
  32:src/thread.cpp **** 
 205              		.loc 1 32 5 is_stmt 1
  32:src/thread.cpp **** 
 206              		.loc 1 32 14 is_stmt 0
 207 00ec 93943400 		slli	s1,s1,3
 208              	.LVL13:
 209 00f0 97070000 		lla	a5,.LANCHOR0
 209      93870700 
GAS LISTING /tmp/cc7mt25p.s 			page 8


 210 00f8 B3849700 		add	s1,a5,s1
 211 00fc 03B70401 		ld	a4,16(s1)
 212              	.LVL14:
  34:src/thread.cpp ****     assert(oldRunning != &kernelThread); // you're only supposed to open user threads with system c
 213              		.loc 1 34 5 is_stmt 1
  35:src/thread.cpp **** 
 214              		.loc 1 35 5
 215 0100 97070000 		la	a5,kernelThread
 215      83B70700 
 216              	.LVL15:
 217              	.LBB14:
 218              	.LBB15:
 219              		.file 2 "src/../h/../h/my_console.h"
   1:src/../h/../h/my_console.h **** #pragma once
   2:src/../h/../h/my_console.h **** 
   3:src/../h/../h/my_console.h **** #include "../h/risc.h"
   4:src/../h/../h/my_console.h **** 
   5:src/../h/../h/my_console.h **** #include "../lib/hw.h"
   6:src/../h/../h/my_console.h **** 
   7:src/../h/../h/my_console.h **** #define __DEBUG_MODE
   8:src/../h/../h/my_console.h **** 
   9:src/../h/../h/my_console.h **** 
  10:src/../h/../h/my_console.h **** void putString(const char* s);
  11:src/../h/../h/my_console.h **** void putInt(int n);
  12:src/../h/../h/my_console.h **** void putNewline();
  13:src/../h/../h/my_console.h **** void putU64(uint64 n);
  14:src/../h/../h/my_console.h **** void putBinary(uint64 n);
  15:src/../h/../h/my_console.h **** 
  16:src/../h/../h/my_console.h **** [[noreturn]] void stopKernel();
  17:src/../h/../h/my_console.h **** 
  18:src/../h/../h/my_console.h **** inline void _assert(bool valid, const char* file, int line) // MUST be inline
  19:src/../h/../h/my_console.h **** {
  20:src/../h/../h/my_console.h ****     if(valid)
 220              		.loc 2 20 5
 221 0108 6306F504 		beq	a0,a5,.L17
  21:src/../h/../h/my_console.h ****         return;
 222              		.loc 2 21 9
 223              	.LVL16:
 224              	.LBE15:
 225              	.LBE14:
  39:src/thread.cpp ****         return;
 226              		.loc 1 39 5
  39:src/thread.cpp ****         return;
 227              		.loc 1 39 11 is_stmt 0
 228 010c 83470704 		lbu	a5,64(a4)
  39:src/thread.cpp ****         return;
 229              		.loc 1 39 5
 230 0110 63980702 		bnez	a5,.L11
  42:src/thread.cpp ****     {
 231              		.loc 1 42 5 is_stmt 1
 232              	.LBB17:
  42:src/thread.cpp ****     {
 233              		.loc 1 42 11 is_stmt 0
 234 0114 83378703 		ld	a5,56(a4)
  42:src/thread.cpp ****     {
 235              		.loc 1 42 5
 236 0118 638C0708 		beqz	a5,.L18
GAS LISTING /tmp/cc7mt25p.s 			page 9


 237              	.LVL17:
 238              	.L14:
 239              	.LBB18:
  49:src/thread.cpp ****         {
 240              		.loc 1 49 9 is_stmt 1
  49:src/thread.cpp ****         {
 241              		.loc 1 49 21
 242 011c 13870700 		mv	a4,a5
 243 0120 83B70703 		ld	a5,48(a5)
 244              	.LVL18:
 245 0124 E39C07FE 		bnez	a5,.L14
  54:src/thread.cpp ****     }
 246              		.loc 1 54 9
  54:src/thread.cpp ****     }
 247              		.loc 1 54 21 is_stmt 0
 248 0128 2338A702 		sd	a0,48(a4)
 249              	.LVL19:
 250              	.L15:
 251              	.LBE18:
 252              	.LBE17:
  57:src/thread.cpp ****     oldRunning->state = SUSPENDED;
 253              		.loc 1 57 5 is_stmt 1
  57:src/thread.cpp ****     oldRunning->state = SUSPENDED;
 254              		.loc 1 57 23 is_stmt 0
 255 012c 23380502 		sd	zero,48(a0)
  58:src/thread.cpp **** 
 256              		.loc 1 58 5 is_stmt 1
  58:src/thread.cpp **** 
 257              		.loc 1 58 23 is_stmt 0
 258 0130 93071000 		li	a5,1
 259 0134 2320F500 		sw	a5,0(a0)
  60:src/thread.cpp **** }
 260              		.loc 1 60 5 is_stmt 1
  60:src/thread.cpp **** }
 261              		.loc 1 60 30 is_stmt 0
 262 0138 97000000 		call	_ZN9Scheduler14dispatchToNextEv@plt
 262      E7800000 
 263              	.LVL20:
 264              	.L11:
  61:src/thread.cpp **** 
 265              		.loc 1 61 1
 266 0140 83308101 		ld	ra,24(sp)
 267              		.cfi_remember_state
 268              		.cfi_restore 1
 269 0144 03340101 		ld	s0,16(sp)
 270              		.cfi_restore 8
 271              		.cfi_def_cfa 2, 32
 272 0148 83348100 		ld	s1,8(sp)
 273              		.cfi_restore 9
 274 014c 13010102 		addi	sp,sp,32
 275              		.cfi_def_cfa_offset 0
 276 0150 67800000 		jr	ra
 277              	.LVL21:
 278              	.L17:
 279              		.cfi_restore_state
 280              	.LBB19:
 281              	.LBB16:
GAS LISTING /tmp/cc7mt25p.s 			page 10


  22:src/../h/../h/my_console.h **** 
  23:src/../h/../h/my_console.h ****     putString("===================== ASSERT file: ");
 282              		.loc 2 23 5 is_stmt 1
 283              		.loc 2 23 14 is_stmt 0
 284 0154 17050000 		lla	a0,.LC0
 284      13050500 
 285              	.LVL22:
 286 015c 97000000 		call	_Z9putStringPKc@plt
 286      E7800000 
 287              	.LVL23:
  24:src/../h/../h/my_console.h ****     putString(file);
 288              		.loc 2 24 5 is_stmt 1
 289              		.loc 2 24 14 is_stmt 0
 290 0164 17050000 		lla	a0,.LC1
 290      13050500 
 291 016c 97000000 		call	_Z9putStringPKc@plt
 291      E7800000 
 292              	.LVL24:
  25:src/../h/../h/my_console.h ****     putString("    line: ");
 293              		.loc 2 25 5 is_stmt 1
 294              		.loc 2 25 14 is_stmt 0
 295 0174 17050000 		lla	a0,.LC2
 295      13050500 
 296 017c 97000000 		call	_Z9putStringPKc@plt
 296      E7800000 
 297              	.LVL25:
  26:src/../h/../h/my_console.h ****     putInt(line);
 298              		.loc 2 26 5 is_stmt 1
 299              		.loc 2 26 11 is_stmt 0
 300 0184 13053002 		li	a0,35
 301 0188 97000000 		call	_Z6putInti@plt
 301      E7800000 
 302              	.LVL26:
  27:src/../h/../h/my_console.h ****     putString("   ===========================");
 303              		.loc 2 27 5 is_stmt 1
 304              		.loc 2 27 14 is_stmt 0
 305 0190 17050000 		lla	a0,.LC3
 305      13050500 
 306 0198 97000000 		call	_Z9putStringPKc@plt
 306      E7800000 
 307              	.LVL27:
  28:src/../h/../h/my_console.h ****     putNewline();
 308              		.loc 2 28 5 is_stmt 1
 309              		.loc 2 28 15 is_stmt 0
 310 01a0 97000000 		call	_Z10putNewlinev@plt
 310      E7800000 
 311              	.LVL28:
  29:src/../h/../h/my_console.h **** 
  30:src/../h/../h/my_console.h ****     stopKernel();
 312              		.loc 2 30 5 is_stmt 1
 313              		.loc 2 30 15 is_stmt 0
 314 01a8 97000000 		call	_Z10stopKernelv@plt
 314      E7800000 
 315              	.LVL29:
 316              	.L18:
 317              	.LBE16:
 318              	.LBE19:
GAS LISTING /tmp/cc7mt25p.s 			page 11


 319              	.LBB20:
  44:src/thread.cpp ****     }
 320              		.loc 1 44 9 is_stmt 1
  44:src/thread.cpp ****     }
 321              		.loc 1 44 25 is_stmt 0
 322 01b0 233CA702 		sd	a0,56(a4)
 323 01b4 6FF09FF7 		j	.L15
 324              	.LBE20:
 325              		.cfi_endproc
 326              	.LFE15:
 328              		.align	2
 329              		.globl	_ZN7IThread12switchToUserEv
 331              	_ZN7IThread12switchToUserEv:
 332              	.LFB16:
  64:src/thread.cpp ****     uint64 scause;
 333              		.loc 1 64 1 is_stmt 1
 334              		.cfi_startproc
 335 01b8 130101FF 		addi	sp,sp,-16
 336              		.cfi_def_cfa_offset 16
 337 01bc 23341100 		sd	ra,8(sp)
 338 01c0 23308100 		sd	s0,0(sp)
 339              		.cfi_offset 1, -8
 340              		.cfi_offset 8, -16
 341 01c4 13040101 		addi	s0,sp,16
 342              		.cfi_def_cfa 8, 0
  65:src/thread.cpp ****     __asm__ volatile ("csrr %[name], scause" : [name] "=r"(scause));
 343              		.loc 1 65 5
  66:src/thread.cpp ****     bool cameFromKernelMode = ((scause & (1 << 8)) == 0);
 344              		.loc 1 66 5
  66:src/thread.cpp ****     bool cameFromKernelMode = ((scause & (1 << 8)) == 0);
 345              		.loc 1 66 68 is_stmt 0
 346              	#APP
 347              	# 66 "src/thread.cpp" 1
 348              		csrr a5, scause
 349              	# 0 "" 2
 350              	.LVL30:
  67:src/thread.cpp **** 
 351              		.loc 1 67 5 is_stmt 1
  67:src/thread.cpp **** 
 352              		.loc 1 67 40 is_stmt 0
 353              	#NO_APP
 354 01cc 93F70710 		andi	a5,a5,256
 355              	.LVL31:
  69:src/thread.cpp ****     {
 356              		.loc 1 69 5 is_stmt 1
 357 01d0 63940706 		bnez	a5,.L25
  76:src/thread.cpp **** 
 358              		.loc 1 76 5
 359 01d4 97070000 		ld	a5,.LANCHOR0
 359      83B70700 
 360              	.LVL32:
 361 01dc 83B78702 		ld	a5,40(a5)
 362              	.LVL33:
 363              	.LBB36:
 364              	.LBB37:
  20:src/../h/../h/my_console.h ****         return;
 365              		.loc 2 20 5
GAS LISTING /tmp/cc7mt25p.s 			page 12


 366 01e0 639A070A 		bnez	a5,.L26
  21:src/../h/../h/my_console.h **** 
 367              		.loc 2 21 9
 368              	.LVL34:
 369              	.LBE37:
 370              	.LBE36:
  78:src/thread.cpp ****     assert(s); // temp
 371              		.loc 1 78 5
 372              	.LBB39:
 373              	.LBB40:
 374              		.file 3 "src/../h/scheduler.h"
   1:src/../h/scheduler.h **** #pragma once
   2:src/../h/scheduler.h **** 
   3:src/../h/scheduler.h **** #include "../h/thread.h"
   4:src/../h/scheduler.h **** 
   5:src/../h/scheduler.h **** class Scheduler // singleton
   6:src/../h/scheduler.h **** {
   7:src/../h/scheduler.h **** public:
   8:src/../h/scheduler.h ****     static Scheduler* get()
   9:src/../h/scheduler.h ****     {
  10:src/../h/scheduler.h ****         static Scheduler instance;
 375              		.loc 3 10 9
 376              		.loc 3 10 26 is_stmt 0
 377 01e4 97070000 		lbu	a5,_ZGVZN9Scheduler3getEvE8instance
 377      83C70700 
 378 01ec 63900702 		bnez	a5,.L22
 379              	.LVL35:
 380              	.LBB41:
 381              	.LBB42:
 382              	.LBB43:
  11:src/../h/scheduler.h ****         return &instance;
  12:src/../h/scheduler.h ****     }
  13:src/../h/scheduler.h **** 
  14:src/../h/scheduler.h ****     int sleep(time_t time);
  15:src/../h/scheduler.h **** 
  16:src/../h/scheduler.h ****     static void dispatchToNext(); // WARNING: different than sys. call dispatch()
  17:src/../h/scheduler.h ****     static void dispatchUserVersion();
  18:src/../h/scheduler.h ****     static IThread* getNext();
  19:src/../h/scheduler.h ****     static void put(IThread*);
  20:src/../h/scheduler.h ****     static void printState();
  21:src/../h/scheduler.h **** 
  22:src/../h/scheduler.h ****     IThread* pHead; // points to the one that is the next to be run
  23:src/../h/scheduler.h ****     IThread* pSleepHead;
  24:src/../h/scheduler.h **** 
  25:src/../h/scheduler.h **** private:
  26:src/../h/scheduler.h ****     Scheduler()
  27:src/../h/scheduler.h ****         : pHead(nullptr), pSleepHead(nullptr)
 383              		.loc 3 27 45
 384 01f0 97070000 		lla	a5,_ZZN9Scheduler3getEvE8instance
 384      93870700 
 385 01f8 23B00700 		sd	zero,0(a5)
 386 01fc 23B40700 		sd	zero,8(a5)
 387              	.LVL36:
 388              	.LBE43:
 389              	.LBE42:
 390              	.LBE41:
  10:src/../h/scheduler.h ****         return &instance;
GAS LISTING /tmp/cc7mt25p.s 			page 13


 391              		.loc 3 10 26
 392 0200 93071000 		li	a5,1
 393 0204 17070000 		sb	a5,_ZGVZN9Scheduler3getEvE8instance,a4
 393      2300F700 
 394              	.L22:
  11:src/../h/scheduler.h ****         return &instance;
 395              		.loc 3 11 9 is_stmt 1
 396              	.LVL37:
 397              	.LBE40:
 398              	.LBE39:
  79:src/thread.cpp **** 
 399              		.loc 1 79 5
  20:src/../h/../h/my_console.h ****         return;
 400              		.loc 2 20 5
  21:src/../h/../h/my_console.h **** 
 401              		.loc 2 21 9
  81:src/thread.cpp **** 
 402              		.loc 1 81 5
  81:src/thread.cpp **** 
 403              		.loc 1 81 30 is_stmt 0
 404 020c 97000000 		call	_ZN9Scheduler14dispatchToNextEv@plt
 404      E7800000 
 405              	.LVL38:
  83:src/thread.cpp **** 
 406              		.loc 1 83 5 is_stmt 1
 407 0214 97000000 		call	_ZN7IThread11getPRunningEv
 407      E7800000 
 408              	.LVL39:
 409 021c 83378502 		ld	a5,40(a0)
 410 0220 9387E7FF 		addi	a5,a5,-2
 411              	.LVL40:
 412              	.LBB44:
 413              	.LBB45:
  20:src/../h/../h/my_console.h ****         return;
 414              		.loc 2 20 5
 415 0224 6396070C 		bnez	a5,.L27
 416              	.LBE45:
 417              	.LBE44:
  94:src/thread.cpp **** 
 418              		.loc 1 94 1 is_stmt 0
 419 0228 83308100 		ld	ra,8(sp)
 420              		.cfi_remember_state
 421              		.cfi_restore 1
 422 022c 03340100 		ld	s0,0(sp)
 423              		.cfi_restore 8
 424              		.cfi_def_cfa 2, 16
 425 0230 13010101 		addi	sp,sp,16
 426              		.cfi_def_cfa_offset 0
 427 0234 67800000 		jr	ra
 428              	.LVL41:
 429              	.L25:
 430              		.cfi_restore_state
  71:src/thread.cpp ****         assert(IThread::pRunning->id != 0);
 431              		.loc 1 71 9 is_stmt 1
 432              	.LBB47:
 433              	.LBB48:
  20:src/../h/../h/my_console.h ****         return;
GAS LISTING /tmp/cc7mt25p.s 			page 14


 434              		.loc 2 20 5
  23:src/../h/../h/my_console.h ****     putString(file);
 435              		.loc 2 23 5
  23:src/../h/../h/my_console.h ****     putString(file);
 436              		.loc 2 23 14 is_stmt 0
 437 0238 17050000 		lla	a0,.LC0
 437      13050500 
 438 0240 97000000 		call	_Z9putStringPKc@plt
 438      E7800000 
 439              	.LVL42:
  24:src/../h/../h/my_console.h ****     putString("    line: ");
 440              		.loc 2 24 5 is_stmt 1
  24:src/../h/../h/my_console.h ****     putString("    line: ");
 441              		.loc 2 24 14 is_stmt 0
 442 0248 17050000 		lla	a0,.LC1
 442      13050500 
 443 0250 97000000 		call	_Z9putStringPKc@plt
 443      E7800000 
 444              	.LVL43:
  25:src/../h/../h/my_console.h ****     putInt(line);
 445              		.loc 2 25 5 is_stmt 1
  25:src/../h/../h/my_console.h ****     putInt(line);
 446              		.loc 2 25 14 is_stmt 0
 447 0258 17050000 		lla	a0,.LC2
 447      13050500 
 448 0260 97000000 		call	_Z9putStringPKc@plt
 448      E7800000 
 449              	.LVL44:
  26:src/../h/../h/my_console.h ****     putString("   ===========================");
 450              		.loc 2 26 5 is_stmt 1
  26:src/../h/../h/my_console.h ****     putString("   ===========================");
 451              		.loc 2 26 11 is_stmt 0
 452 0268 13057004 		li	a0,71
 453 026c 97000000 		call	_Z6putInti@plt
 453      E7800000 
 454              	.LVL45:
  27:src/../h/../h/my_console.h ****     putNewline();
 455              		.loc 2 27 5 is_stmt 1
  27:src/../h/../h/my_console.h ****     putNewline();
 456              		.loc 2 27 14 is_stmt 0
 457 0274 17050000 		lla	a0,.LC3
 457      13050500 
 458 027c 97000000 		call	_Z9putStringPKc@plt
 458      E7800000 
 459              	.LVL46:
  28:src/../h/../h/my_console.h **** 
 460              		.loc 2 28 5 is_stmt 1
  28:src/../h/../h/my_console.h **** 
 461              		.loc 2 28 15 is_stmt 0
 462 0284 97000000 		call	_Z10putNewlinev@plt
 462      E7800000 
 463              	.LVL47:
 464              		.loc 2 30 5 is_stmt 1
 465              		.loc 2 30 15 is_stmt 0
 466 028c 97000000 		call	_Z10stopKernelv@plt
 466      E7800000 
 467              	.LVL48:
GAS LISTING /tmp/cc7mt25p.s 			page 15


 468              	.L26:
 469              	.LBE48:
 470              	.LBE47:
 471              	.LBB49:
 472              	.LBB38:
  23:src/../h/../h/my_console.h ****     putString(file);
 473              		.loc 2 23 5 is_stmt 1
  23:src/../h/../h/my_console.h ****     putString(file);
 474              		.loc 2 23 14 is_stmt 0
 475 0294 17050000 		lla	a0,.LC0
 475      13050500 
 476 029c 97000000 		call	_Z9putStringPKc@plt
 476      E7800000 
 477              	.LVL49:
  24:src/../h/../h/my_console.h ****     putString("    line: ");
 478              		.loc 2 24 5 is_stmt 1
  24:src/../h/../h/my_console.h ****     putString("    line: ");
 479              		.loc 2 24 14 is_stmt 0
 480 02a4 17050000 		lla	a0,.LC1
 480      13050500 
 481 02ac 97000000 		call	_Z9putStringPKc@plt
 481      E7800000 
 482              	.LVL50:
  25:src/../h/../h/my_console.h ****     putInt(line);
 483              		.loc 2 25 5 is_stmt 1
  25:src/../h/../h/my_console.h ****     putInt(line);
 484              		.loc 2 25 14 is_stmt 0
 485 02b4 17050000 		lla	a0,.LC2
 485      13050500 
 486 02bc 97000000 		call	_Z9putStringPKc@plt
 486      E7800000 
 487              	.LVL51:
  26:src/../h/../h/my_console.h ****     putString("   ===========================");
 488              		.loc 2 26 5 is_stmt 1
  26:src/../h/../h/my_console.h ****     putString("   ===========================");
 489              		.loc 2 26 11 is_stmt 0
 490 02c4 1305C004 		li	a0,76
 491 02c8 97000000 		call	_Z6putInti@plt
 491      E7800000 
 492              	.LVL52:
  27:src/../h/../h/my_console.h ****     putNewline();
 493              		.loc 2 27 5 is_stmt 1
  27:src/../h/../h/my_console.h ****     putNewline();
 494              		.loc 2 27 14 is_stmt 0
 495 02d0 17050000 		lla	a0,.LC3
 495      13050500 
 496 02d8 97000000 		call	_Z9putStringPKc@plt
 496      E7800000 
 497              	.LVL53:
  28:src/../h/../h/my_console.h **** 
 498              		.loc 2 28 5 is_stmt 1
  28:src/../h/../h/my_console.h **** 
 499              		.loc 2 28 15 is_stmt 0
 500 02e0 97000000 		call	_Z10putNewlinev@plt
 500      E7800000 
 501              	.LVL54:
 502              		.loc 2 30 5 is_stmt 1
GAS LISTING /tmp/cc7mt25p.s 			page 16


 503              		.loc 2 30 15 is_stmt 0
 504 02e8 97000000 		call	_Z10stopKernelv@plt
 504      E7800000 
 505              	.LVL55:
 506              	.L27:
 507              	.LBE38:
 508              	.LBE49:
 509              	.LBB50:
 510              	.LBB46:
  23:src/../h/../h/my_console.h ****     putString(file);
 511              		.loc 2 23 5 is_stmt 1
  23:src/../h/../h/my_console.h ****     putString(file);
 512              		.loc 2 23 14 is_stmt 0
 513 02f0 17050000 		lla	a0,.LC0
 513      13050500 
 514 02f8 97000000 		call	_Z9putStringPKc@plt
 514      E7800000 
 515              	.LVL56:
  24:src/../h/../h/my_console.h ****     putString("    line: ");
 516              		.loc 2 24 5 is_stmt 1
  24:src/../h/../h/my_console.h ****     putString("    line: ");
 517              		.loc 2 24 14 is_stmt 0
 518 0300 17050000 		lla	a0,.LC1
 518      13050500 
 519 0308 97000000 		call	_Z9putStringPKc@plt
 519      E7800000 
 520              	.LVL57:
  25:src/../h/../h/my_console.h ****     putInt(line);
 521              		.loc 2 25 5 is_stmt 1
  25:src/../h/../h/my_console.h ****     putInt(line);
 522              		.loc 2 25 14 is_stmt 0
 523 0310 17050000 		lla	a0,.LC2
 523      13050500 
 524 0318 97000000 		call	_Z9putStringPKc@plt
 524      E7800000 
 525              	.LVL58:
  26:src/../h/../h/my_console.h ****     putString("   ===========================");
 526              		.loc 2 26 5 is_stmt 1
  26:src/../h/../h/my_console.h ****     putString("   ===========================");
 527              		.loc 2 26 11 is_stmt 0
 528 0320 13053005 		li	a0,83
 529 0324 97000000 		call	_Z6putInti@plt
 529      E7800000 
 530              	.LVL59:
  27:src/../h/../h/my_console.h ****     putNewline();
 531              		.loc 2 27 5 is_stmt 1
  27:src/../h/../h/my_console.h ****     putNewline();
 532              		.loc 2 27 14 is_stmt 0
 533 032c 17050000 		lla	a0,.LC3
 533      13050500 
 534 0334 97000000 		call	_Z9putStringPKc@plt
 534      E7800000 
 535              	.LVL60:
  28:src/../h/../h/my_console.h **** 
 536              		.loc 2 28 5 is_stmt 1
  28:src/../h/../h/my_console.h **** 
 537              		.loc 2 28 15 is_stmt 0
GAS LISTING /tmp/cc7mt25p.s 			page 17


 538 033c 97000000 		call	_Z10putNewlinev@plt
 538      E7800000 
 539              	.LVL61:
 540              		.loc 2 30 5 is_stmt 1
 541              		.loc 2 30 15 is_stmt 0
 542 0344 97000000 		call	_Z10stopKernelv@plt
 542      E7800000 
 543              	.LVL62:
 544              	.LBE46:
 545              	.LBE50:
 546              		.cfi_endproc
 547              	.LFE16:
 549              		.align	2
 550              		.globl	_ZN7IThread10allocStackEv
 552              	_ZN7IThread10allocStackEv:
 553              	.LFB20:
 128:src/thread.cpp ****     assert(pStackStart == nullptr); // error: this threads stack may have already been allocated
 554              		.loc 1 128 1 is_stmt 1
 555              		.cfi_startproc
 556              	.LVL63:
 557 034c 130101FE 		addi	sp,sp,-32
 558              		.cfi_def_cfa_offset 32
 559 0350 233C1100 		sd	ra,24(sp)
 560 0354 23388100 		sd	s0,16(sp)
 561 0358 23349100 		sd	s1,8(sp)
 562 035c 23302101 		sd	s2,0(sp)
 563              		.cfi_offset 1, -8
 564              		.cfi_offset 8, -16
 565              		.cfi_offset 9, -24
 566              		.cfi_offset 18, -32
 567 0360 13040102 		addi	s0,sp,32
 568              		.cfi_def_cfa 8, 0
 129:src/thread.cpp **** 
 569              		.loc 1 129 5
 570 0364 83378501 		ld	a5,24(a0)
 571              	.LVL64:
 572              	.LBB53:
 573              	.LBB54:
  20:src/../h/../h/my_console.h ****         return;
 574              		.loc 2 20 5
 575 0368 639A0704 		bnez	a5,.L32
 576 036c 13090500 		mv	s2,a0
  21:src/../h/../h/my_console.h **** 
 577              		.loc 2 21 9
 578              	.LVL65:
 579              	.LBE54:
 580              	.LBE53:
 131:src/thread.cpp ****     uint64 stack =  (uint64)pStackStart + ACTUAL_STACK_SIZE;
 581              		.loc 1 131 5
 131:src/thread.cpp ****     uint64 stack =  (uint64)pStackStart + ACTUAL_STACK_SIZE;
 582              		.loc 1 131 44 is_stmt 0
 583 0370 97000000 		call	_ZN8MemAlloc3getEv@plt
 583      E7800000 
 584              	.LVL66:
 585 0378 B7B40000 		li	s1,45056
 586 037c 938504AA 		addi	a1,s1,-1376
 587 0380 97000000 		call	_ZN8MemAlloc8allocMemEm@plt
GAS LISTING /tmp/cc7mt25p.s 			page 18


 587      E7800000 
 588              	.LVL67:
 131:src/thread.cpp ****     uint64 stack =  (uint64)pStackStart + ACTUAL_STACK_SIZE;
 589              		.loc 1 131 17
 590 0388 233CA900 		sd	a0,24(s2)
 132:src/thread.cpp **** 
 591              		.loc 1 132 5 is_stmt 1
 132:src/thread.cpp **** 
 592              		.loc 1 132 12 is_stmt 0
 593 038c 938404AA 		addi	s1,s1,-1376
 594 0390 B3049500 		add	s1,a0,s1
 595              	.LVL68:
 134:src/thread.cpp ****     {
 596              		.loc 1 134 5 is_stmt 1
 134:src/thread.cpp ****     {
 597              		.loc 1 134 14 is_stmt 0
 598 0394 1375F500 		andi	a0,a0,15
 134:src/thread.cpp ****     {
 599              		.loc 1 134 5
 600 0398 63040500 		beqz	a0,.L30
 136:src/thread.cpp ****     }
 601              		.loc 1 136 9 is_stmt 1
 136:src/thread.cpp ****     }
 602              		.loc 1 136 15 is_stmt 0
 603 039c 93F404FF 		andi	s1,s1,-16
 604              	.LVL69:
 605              	.L30:
 139:src/thread.cpp **** 
 606              		.loc 1 139 5 is_stmt 1
 141:src/thread.cpp **** 
 607              		.loc 1 141 5
 143:src/thread.cpp **** 
 608              		.loc 1 143 1 is_stmt 0
 609 03a0 138504EF 		addi	a0,s1,-272
 610              	.LVL70:
 611 03a4 83308101 		ld	ra,24(sp)
 612              		.cfi_remember_state
 613              		.cfi_restore 1
 614 03a8 03340101 		ld	s0,16(sp)
 615              		.cfi_restore 8
 616              		.cfi_def_cfa 2, 32
 617 03ac 83348100 		ld	s1,8(sp)
 618              		.cfi_restore 9
 619 03b0 03390100 		ld	s2,0(sp)
 620              		.cfi_restore 18
 621              	.LVL71:
 622 03b4 13010102 		addi	sp,sp,32
 623              		.cfi_def_cfa_offset 0
 624 03b8 67800000 		jr	ra
 625              	.LVL72:
 626              	.L32:
 627              		.cfi_restore_state
 628              	.LBB56:
 629              	.LBB55:
  23:src/../h/../h/my_console.h ****     putString(file);
 630              		.loc 2 23 5 is_stmt 1
  23:src/../h/../h/my_console.h ****     putString(file);
GAS LISTING /tmp/cc7mt25p.s 			page 19


 631              		.loc 2 23 14 is_stmt 0
 632 03bc 17050000 		lla	a0,.LC0
 632      13050500 
 633              	.LVL73:
 634 03c4 97000000 		call	_Z9putStringPKc@plt
 634      E7800000 
 635              	.LVL74:
  24:src/../h/../h/my_console.h ****     putString("    line: ");
 636              		.loc 2 24 5 is_stmt 1
  24:src/../h/../h/my_console.h ****     putString("    line: ");
 637              		.loc 2 24 14 is_stmt 0
 638 03cc 17050000 		lla	a0,.LC1
 638      13050500 
 639 03d4 97000000 		call	_Z9putStringPKc@plt
 639      E7800000 
 640              	.LVL75:
  25:src/../h/../h/my_console.h ****     putInt(line);
 641              		.loc 2 25 5 is_stmt 1
  25:src/../h/../h/my_console.h ****     putInt(line);
 642              		.loc 2 25 14 is_stmt 0
 643 03dc 17050000 		lla	a0,.LC2
 643      13050500 
 644 03e4 97000000 		call	_Z9putStringPKc@plt
 644      E7800000 
 645              	.LVL76:
  26:src/../h/../h/my_console.h ****     putString("   ===========================");
 646              		.loc 2 26 5 is_stmt 1
  26:src/../h/../h/my_console.h ****     putString("   ===========================");
 647              		.loc 2 26 11 is_stmt 0
 648 03ec 13051008 		li	a0,129
 649 03f0 97000000 		call	_Z6putInti@plt
 649      E7800000 
 650              	.LVL77:
  27:src/../h/../h/my_console.h ****     putNewline();
 651              		.loc 2 27 5 is_stmt 1
  27:src/../h/../h/my_console.h ****     putNewline();
 652              		.loc 2 27 14 is_stmt 0
 653 03f8 17050000 		lla	a0,.LC3
 653      13050500 
 654 0400 97000000 		call	_Z9putStringPKc@plt
 654      E7800000 
 655              	.LVL78:
  28:src/../h/../h/my_console.h **** 
 656              		.loc 2 28 5 is_stmt 1
  28:src/../h/../h/my_console.h **** 
 657              		.loc 2 28 15 is_stmt 0
 658 0408 97000000 		call	_Z10putNewlinev@plt
 658      E7800000 
 659              	.LVL79:
 660              		.loc 2 30 5 is_stmt 1
 661              		.loc 2 30 15 is_stmt 0
 662 0410 97000000 		call	_Z10stopKernelv@plt
 662      E7800000 
 663              	.LVL80:
 664              	.LBE55:
 665              	.LBE56:
 666              		.cfi_endproc
GAS LISTING /tmp/cc7mt25p.s 			page 20


 667              	.LFE20:
 669              		.align	2
 670              		.globl	_ZN7IThread4initEPFvPvES0_S0_
 672              	_ZN7IThread4initEPFvPvES0_S0_:
 673              	.LFB22:
 150:src/thread.cpp **** 
 151:src/thread.cpp **** void IThread::init(Body body, void* arg, void* pLogicalStack) // this is used as a "constructor", e
 152:src/thread.cpp **** {
 674              		.loc 1 152 1 is_stmt 1
 675              		.cfi_startproc
 676              	.LVL81:
 677 0418 130101FF 		addi	sp,sp,-16
 678              		.cfi_def_cfa_offset 16
 679 041c 23341100 		sd	ra,8(sp)
 680 0420 23308100 		sd	s0,0(sp)
 681              		.cfi_offset 1, -8
 682              		.cfi_offset 8, -16
 683 0424 13040101 		addi	s0,sp,16
 684              		.cfi_def_cfa 8, 0
 153:src/thread.cpp ****     assert(nrTotalThreads < MAX_NR_TOTAL_THREADS);
 685              		.loc 1 153 5
 686 0428 97070000 		ld	a5,.LANCHOR1
 686      83B70700 
 687 0430 93B74706 		sltiu	a5,a5,100
 688              	.LVL82:
 689              	.LBB62:
 690              	.LBB63:
  20:src/../h/../h/my_console.h ****         return;
 691              		.loc 2 20 5
 692 0434 638E0704 		beqz	a5,.L39
  21:src/../h/../h/my_console.h **** 
 693              		.loc 2 21 9
 694              	.LVL83:
 695              	.LBE63:
 696              	.LBE62:
 154:src/thread.cpp ****     id = nrTotalThreads;
 697              		.loc 1 154 5
 698              		.loc 1 154 8 is_stmt 0
 699 0438 17070000 		lla	a4,.LANCHOR1
 699      13070700 
 700 0440 83370700 		ld	a5,0(a4)
 701 0444 2334F502 		sd	a5,40(a0)
 155:src/thread.cpp ****     nrTotalThreads++;
 702              		.loc 1 155 5 is_stmt 1
 703              		.loc 1 155 19 is_stmt 0
 704 0448 93871700 		addi	a5,a5,1
 705 044c 2330F700 		sd	a5,0(a4)
 156:src/thread.cpp **** 
 157:src/thread.cpp ****     assert((uint64)pLogicalStack % 16 == 0);
 706              		.loc 1 157 5 is_stmt 1
 707 0450 93F7F600 		andi	a5,a3,15
 708              	.LVL84:
 709              	.LBB65:
 710              	.LBB66:
  20:src/../h/../h/my_console.h ****         return;
 711              		.loc 2 20 5
 712 0454 639C0708 		bnez	a5,.L40
GAS LISTING /tmp/cc7mt25p.s 			page 21


  21:src/../h/../h/my_console.h **** 
 713              		.loc 2 21 9
 714              	.LVL85:
 715              	.LBE66:
 716              	.LBE65:
 158:src/thread.cpp **** 
 159:src/thread.cpp ****     state = INITIALIZING;
 717              		.loc 1 159 5
 160:src/thread.cpp ****     timeSlice = DEFAULT_TIME_SLICE;
 718              		.loc 1 160 5
 719              		.loc 1 160 15 is_stmt 0
 720 0458 93072000 		li	a5,2
 721 045c 2330F502 		sd	a5,32(a0)
 161:src/thread.cpp ****     pNext = nullptr;
 722              		.loc 1 161 5 is_stmt 1
 723              		.loc 1 161 11 is_stmt 0
 724 0460 23380502 		sd	zero,48(a0)
 162:src/thread.cpp ****     pWaitingHead = nullptr;
 725              		.loc 1 162 5 is_stmt 1
 726              		.loc 1 162 18 is_stmt 0
 727 0464 233C0502 		sd	zero,56(a0)
 163:src/thread.cpp ****     done = false;
 728              		.loc 1 163 5 is_stmt 1
 729              		.loc 1 163 10 is_stmt 0
 730 0468 23000504 		sb	zero,64(a0)
 164:src/thread.cpp **** 
 165:src/thread.cpp ****     // sets context
 166:src/thread.cpp ****     sp = (uint64*)pLogicalStack; // sp field
 731              		.loc 1 166 5 is_stmt 1
 732              		.loc 1 166 8 is_stmt 0
 733 046c 2338D504 		sd	a3,80(a0)
 167:src/thread.cpp **** 
 168:src/thread.cpp ****     // skipping a0 to pass arguments as it is will be not be restored in the context switch because
 169:src/thread.cpp **** 
 170:src/thread.cpp ****     for(int i=0; i<32; i++) // temp
 734              		.loc 1 170 5 is_stmt 1
 735              	.LVL86:
 736              	.LBB68:
 737              		.loc 1 170 13 is_stmt 0
 738 0470 93070000 		li	a5,0
 739              	.LVL87:
 740              	.L37:
 741              		.loc 1 170 19 is_stmt 1 discriminator 3
 742 0474 1307F001 		li	a4,31
 743 0478 6348F70C 		bgt	a5,a4,.L36
 171:src/thread.cpp ****     {
 172:src/thread.cpp ****         *((uint64*)pLogicalStack + i) = i;
 744              		.loc 1 172 9 discriminator 2
 745              		.loc 1 172 34 is_stmt 0 discriminator 2
 746 047c 13973700 		slli	a4,a5,3
 747 0480 3387E600 		add	a4,a3,a4
 748              		.loc 1 172 39 discriminator 2
 749 0484 2330F700 		sd	a5,0(a4)
 170:src/thread.cpp ****     {
 750              		.loc 1 170 5 is_stmt 1 discriminator 2
 751 0488 9B871700 		addiw	a5,a5,1
 752              	.LVL88:
GAS LISTING /tmp/cc7mt25p.s 			page 22


 753 048c 6FF09FFE 		j	.L37
 754              	.LVL89:
 755              	.L39:
 756              	.LBE68:
 757              	.LBB69:
 758              	.LBB64:
  23:src/../h/../h/my_console.h ****     putString(file);
 759              		.loc 2 23 5
  23:src/../h/../h/my_console.h ****     putString(file);
 760              		.loc 2 23 14 is_stmt 0
 761 0490 17050000 		lla	a0,.LC0
 761      13050500 
 762              	.LVL90:
 763 0498 97000000 		call	_Z9putStringPKc@plt
 763      E7800000 
 764              	.LVL91:
  24:src/../h/../h/my_console.h ****     putString("    line: ");
 765              		.loc 2 24 5 is_stmt 1
  24:src/../h/../h/my_console.h ****     putString("    line: ");
 766              		.loc 2 24 14 is_stmt 0
 767 04a0 17050000 		lla	a0,.LC1
 767      13050500 
 768 04a8 97000000 		call	_Z9putStringPKc@plt
 768      E7800000 
 769              	.LVL92:
  25:src/../h/../h/my_console.h ****     putInt(line);
 770              		.loc 2 25 5 is_stmt 1
  25:src/../h/../h/my_console.h ****     putInt(line);
 771              		.loc 2 25 14 is_stmt 0
 772 04b0 17050000 		lla	a0,.LC2
 772      13050500 
 773 04b8 97000000 		call	_Z9putStringPKc@plt
 773      E7800000 
 774              	.LVL93:
  26:src/../h/../h/my_console.h ****     putString("   ===========================");
 775              		.loc 2 26 5 is_stmt 1
  26:src/../h/../h/my_console.h ****     putString("   ===========================");
 776              		.loc 2 26 11 is_stmt 0
 777 04c0 13059009 		li	a0,153
 778 04c4 97000000 		call	_Z6putInti@plt
 778      E7800000 
 779              	.LVL94:
  27:src/../h/../h/my_console.h ****     putNewline();
 780              		.loc 2 27 5 is_stmt 1
  27:src/../h/../h/my_console.h ****     putNewline();
 781              		.loc 2 27 14 is_stmt 0
 782 04cc 17050000 		lla	a0,.LC3
 782      13050500 
 783 04d4 97000000 		call	_Z9putStringPKc@plt
 783      E7800000 
 784              	.LVL95:
  28:src/../h/../h/my_console.h **** 
 785              		.loc 2 28 5 is_stmt 1
  28:src/../h/../h/my_console.h **** 
 786              		.loc 2 28 15 is_stmt 0
 787 04dc 97000000 		call	_Z10putNewlinev@plt
 787      E7800000 
GAS LISTING /tmp/cc7mt25p.s 			page 23


 788              	.LVL96:
 789              		.loc 2 30 5 is_stmt 1
 790              		.loc 2 30 15 is_stmt 0
 791 04e4 97000000 		call	_Z10stopKernelv@plt
 791      E7800000 
 792              	.LVL97:
 793              	.L40:
 794              	.LBE64:
 795              	.LBE69:
 796              	.LBB70:
 797              	.LBB67:
  23:src/../h/../h/my_console.h ****     putString(file);
 798              		.loc 2 23 5 is_stmt 1
  23:src/../h/../h/my_console.h ****     putString(file);
 799              		.loc 2 23 14 is_stmt 0
 800 04ec 17050000 		lla	a0,.LC0
 800      13050500 
 801              	.LVL98:
 802 04f4 97000000 		call	_Z9putStringPKc@plt
 802      E7800000 
 803              	.LVL99:
  24:src/../h/../h/my_console.h ****     putString("    line: ");
 804              		.loc 2 24 5 is_stmt 1
  24:src/../h/../h/my_console.h ****     putString("    line: ");
 805              		.loc 2 24 14 is_stmt 0
 806 04fc 17050000 		lla	a0,.LC1
 806      13050500 
 807 0504 97000000 		call	_Z9putStringPKc@plt
 807      E7800000 
 808              	.LVL100:
  25:src/../h/../h/my_console.h ****     putInt(line);
 809              		.loc 2 25 5 is_stmt 1
  25:src/../h/../h/my_console.h ****     putInt(line);
 810              		.loc 2 25 14 is_stmt 0
 811 050c 17050000 		lla	a0,.LC2
 811      13050500 
 812 0514 97000000 		call	_Z9putStringPKc@plt
 812      E7800000 
 813              	.LVL101:
  26:src/../h/../h/my_console.h ****     putString("   ===========================");
 814              		.loc 2 26 5 is_stmt 1
  26:src/../h/../h/my_console.h ****     putString("   ===========================");
 815              		.loc 2 26 11 is_stmt 0
 816 051c 1305D009 		li	a0,157
 817 0520 97000000 		call	_Z6putInti@plt
 817      E7800000 
 818              	.LVL102:
  27:src/../h/../h/my_console.h ****     putNewline();
 819              		.loc 2 27 5 is_stmt 1
  27:src/../h/../h/my_console.h ****     putNewline();
 820              		.loc 2 27 14 is_stmt 0
 821 0528 17050000 		lla	a0,.LC3
 821      13050500 
 822 0530 97000000 		call	_Z9putStringPKc@plt
 822      E7800000 
 823              	.LVL103:
  28:src/../h/../h/my_console.h **** 
GAS LISTING /tmp/cc7mt25p.s 			page 24


 824              		.loc 2 28 5 is_stmt 1
  28:src/../h/../h/my_console.h **** 
 825              		.loc 2 28 15 is_stmt 0
 826 0538 97000000 		call	_Z10putNewlinev@plt
 826      E7800000 
 827              	.LVL104:
 828              		.loc 2 30 5 is_stmt 1
 829              		.loc 2 30 15 is_stmt 0
 830 0540 97000000 		call	_Z10stopKernelv@plt
 830      E7800000 
 831              	.LVL105:
 832              	.L36:
 833              	.LBE67:
 834              	.LBE70:
 173:src/thread.cpp ****     }
 174:src/thread.cpp **** 
 175:src/thread.cpp ****     *((uint64*)pLogicalStack + 11) = (uint64)body;
 835              		.loc 1 175 5 is_stmt 1
 836              		.loc 1 175 36 is_stmt 0
 837 0548 23BCB604 		sd	a1,88(a3)
 176:src/thread.cpp ****     *((uint64*)pLogicalStack + 12) = *((uint64*)&arg);
 838              		.loc 1 176 5 is_stmt 1
 839              		.loc 1 176 36 is_stmt 0
 840 054c 23B0C606 		sd	a2,96(a3)
 177:src/thread.cpp ****     *((uint64*)pLogicalStack + 32) = (uint64)&wrapper;
 841              		.loc 1 177 5 is_stmt 1
 842              		.loc 1 177 36 is_stmt 0
 843 0550 97070000 		lla	a5,_Z7wrappermPFvPvES_
 843      93870700 
 844              	.LVL106:
 845 0558 23B0F610 		sd	a5,256(a3)
 178:src/thread.cpp **** 
 179:src/thread.cpp ****     state = READY;
 846              		.loc 1 179 5 is_stmt 1
 847              		.loc 1 179 11 is_stmt 0
 848 055c 93072000 		li	a5,2
 849 0560 2320F500 		sw	a5,0(a0)
 180:src/thread.cpp **** }
 850              		.loc 1 180 1
 851 0564 83308100 		ld	ra,8(sp)
 852              		.cfi_restore 1
 853 0568 03340100 		ld	s0,0(sp)
 854              		.cfi_restore 8
 855              		.cfi_def_cfa 2, 16
 856 056c 13010101 		addi	sp,sp,16
 857              		.cfi_def_cfa_offset 0
 858 0570 67800000 		jr	ra
 859              		.cfi_endproc
 860              	.LFE22:
 862              		.align	2
 863              		.globl	_ZN7IThread12createThreadEPmPFvPvES1_
 865              	_ZN7IThread12createThreadEPmPFvPvES1_:
 866              	.LFB18:
 103:src/thread.cpp ****     assert(nrTotalThreads < MAX_NR_TOTAL_THREADS);
 867              		.loc 1 103 1 is_stmt 1
 868              		.cfi_startproc
 869              	.LVL107:
GAS LISTING /tmp/cc7mt25p.s 			page 25


 870 0574 130101FD 		addi	sp,sp,-48
 871              		.cfi_def_cfa_offset 48
 872 0578 23341102 		sd	ra,40(sp)
 873 057c 23308102 		sd	s0,32(sp)
 874 0580 233C9100 		sd	s1,24(sp)
 875 0584 23382101 		sd	s2,16(sp)
 876 0588 23343101 		sd	s3,8(sp)
 877 058c 23304101 		sd	s4,0(sp)
 878              		.cfi_offset 1, -8
 879              		.cfi_offset 8, -16
 880              		.cfi_offset 9, -24
 881              		.cfi_offset 18, -32
 882              		.cfi_offset 19, -40
 883              		.cfi_offset 20, -48
 884 0590 13040103 		addi	s0,sp,48
 885              		.cfi_def_cfa 8, 0
 104:src/thread.cpp **** 
 886              		.loc 1 104 5
 887 0594 97070000 		ld	a5,.LANCHOR1
 887      83B70700 
 888 059c 93B74706 		sltiu	a5,a5,100
 889              	.LVL108:
 890              	.LBB73:
 891              	.LBB74:
  20:src/../h/../h/my_console.h ****         return;
 892              		.loc 2 20 5
 893 05a0 6380070A 		beqz	a5,.L44
 894 05a4 13090500 		mv	s2,a0
 895 05a8 93890500 		mv	s3,a1
 896 05ac 130A0600 		mv	s4,a2
  21:src/../h/../h/my_console.h **** 
 897              		.loc 2 21 9
 898              	.LVL109:
 899              	.LBE74:
 900              	.LBE73:
 106:src/thread.cpp ****     pAllThreads[nrTotalThreads] = t;
 901              		.loc 1 106 5
 106:src/thread.cpp ****     pAllThreads[nrTotalThreads] = t;
 902              		.loc 1 106 53 is_stmt 0
 903 05b0 97000000 		call	_ZN8MemAlloc3getEv@plt
 903      E7800000 
 904              	.LVL110:
 905 05b8 93058005 		li	a1,88
 906 05bc 97000000 		call	_ZN8MemAlloc8allocMemEm@plt
 906      E7800000 
 907              	.LVL111:
 908 05c4 93040500 		mv	s1,a0
 909              	.LVL112:
 107:src/thread.cpp **** 
 910              		.loc 1 107 5 is_stmt 1
 107:src/thread.cpp **** 
 911              		.loc 1 107 33 is_stmt 0
 912 05c8 97070000 		ld	a5,.LANCHOR1
 912      83B70700 
 913 05d0 13973700 		slli	a4,a5,3
 914 05d4 97070000 		lla	a5,.LANCHOR0
 914      93870700 
GAS LISTING /tmp/cc7mt25p.s 			page 26


 915 05dc B387E700 		add	a5,a5,a4
 916 05e0 23B8A700 		sd	a0,16(a5)
 109:src/thread.cpp ****     void* pLogicalStack = t->allocStack();
 917              		.loc 1 109 5 is_stmt 1
 109:src/thread.cpp ****     void* pLogicalStack = t->allocStack();
 918              		.loc 1 109 20 is_stmt 0
 919 05e4 233C0500 		sd	zero,24(a0)
 110:src/thread.cpp **** 
 920              		.loc 1 110 5 is_stmt 1
 110:src/thread.cpp **** 
 921              		.loc 1 110 40 is_stmt 0
 922 05e8 97000000 		call	_ZN7IThread10allocStackEv
 922      E7800000 
 923              	.LVL113:
 924 05f0 93060500 		mv	a3,a0
 925              	.LVL114:
 112:src/thread.cpp **** 
 926              		.loc 1 112 5 is_stmt 1
 112:src/thread.cpp **** 
 927              		.loc 1 112 12 is_stmt 0
 928 05f4 13060A00 		mv	a2,s4
 929 05f8 93850900 		mv	a1,s3
 930 05fc 13850400 		mv	a0,s1
 931              	.LVL115:
 932 0600 97000000 		call	_ZN7IThread4initEPFvPvES0_S0_
 932      E7800000 
 933              	.LVL116:
 114:src/thread.cpp **** 
 934              		.loc 1 114 5 is_stmt 1
 114:src/thread.cpp **** 
 935              		.loc 1 114 14 is_stmt 0
 936 0608 83B78402 		ld	a5,40(s1)
 114:src/thread.cpp **** 
 937              		.loc 1 114 9
 938 060c 2330F900 		sd	a5,0(s2)
 116:src/thread.cpp **** 
 939              		.loc 1 116 5 is_stmt 1
 116:src/thread.cpp **** 
 940              		.loc 1 116 19 is_stmt 0
 941 0610 13850400 		mv	a0,s1
 942 0614 97000000 		call	_ZN9Scheduler3putEP7IThread@plt
 942      E7800000 
 943              	.LVL117:
 118:src/thread.cpp **** }
 944              		.loc 1 118 5 is_stmt 1
 119:src/thread.cpp **** 
 945              		.loc 1 119 1 is_stmt 0
 946 061c 13050000 		li	a0,0
 947 0620 83308102 		ld	ra,40(sp)
 948              		.cfi_remember_state
 949              		.cfi_restore 1
 950 0624 03340102 		ld	s0,32(sp)
 951              		.cfi_restore 8
 952              		.cfi_def_cfa 2, 48
 953 0628 83348101 		ld	s1,24(sp)
 954              		.cfi_restore 9
 955              	.LVL118:
GAS LISTING /tmp/cc7mt25p.s 			page 27


 956 062c 03390101 		ld	s2,16(sp)
 957              		.cfi_restore 18
 958              	.LVL119:
 959 0630 83398100 		ld	s3,8(sp)
 960              		.cfi_restore 19
 961              	.LVL120:
 962 0634 033A0100 		ld	s4,0(sp)
 963              		.cfi_restore 20
 964              	.LVL121:
 965 0638 13010103 		addi	sp,sp,48
 966              		.cfi_def_cfa_offset 0
 967 063c 67800000 		jr	ra
 968              	.LVL122:
 969              	.L44:
 970              		.cfi_restore_state
 971              	.LBB76:
 972              	.LBB75:
  23:src/../h/../h/my_console.h ****     putString(file);
 973              		.loc 2 23 5 is_stmt 1
  23:src/../h/../h/my_console.h ****     putString(file);
 974              		.loc 2 23 14 is_stmt 0
 975 0640 17050000 		lla	a0,.LC0
 975      13050500 
 976              	.LVL123:
 977 0648 97000000 		call	_Z9putStringPKc@plt
 977      E7800000 
 978              	.LVL124:
  24:src/../h/../h/my_console.h ****     putString("    line: ");
 979              		.loc 2 24 5 is_stmt 1
  24:src/../h/../h/my_console.h ****     putString("    line: ");
 980              		.loc 2 24 14 is_stmt 0
 981 0650 17050000 		lla	a0,.LC1
 981      13050500 
 982 0658 97000000 		call	_Z9putStringPKc@plt
 982      E7800000 
 983              	.LVL125:
  25:src/../h/../h/my_console.h ****     putInt(line);
 984              		.loc 2 25 5 is_stmt 1
  25:src/../h/../h/my_console.h ****     putInt(line);
 985              		.loc 2 25 14 is_stmt 0
 986 0660 17050000 		lla	a0,.LC2
 986      13050500 
 987 0668 97000000 		call	_Z9putStringPKc@plt
 987      E7800000 
 988              	.LVL126:
  26:src/../h/../h/my_console.h ****     putString("   ===========================");
 989              		.loc 2 26 5 is_stmt 1
  26:src/../h/../h/my_console.h ****     putString("   ===========================");
 990              		.loc 2 26 11 is_stmt 0
 991 0670 13058006 		li	a0,104
 992 0674 97000000 		call	_Z6putInti@plt
 992      E7800000 
 993              	.LVL127:
  27:src/../h/../h/my_console.h ****     putNewline();
 994              		.loc 2 27 5 is_stmt 1
  27:src/../h/../h/my_console.h ****     putNewline();
 995              		.loc 2 27 14 is_stmt 0
GAS LISTING /tmp/cc7mt25p.s 			page 28


 996 067c 17050000 		lla	a0,.LC3
 996      13050500 
 997 0684 97000000 		call	_Z9putStringPKc@plt
 997      E7800000 
 998              	.LVL128:
  28:src/../h/../h/my_console.h **** 
 999              		.loc 2 28 5 is_stmt 1
  28:src/../h/../h/my_console.h **** 
 1000              		.loc 2 28 15 is_stmt 0
 1001 068c 97000000 		call	_Z10putNewlinev@plt
 1001      E7800000 
 1002              	.LVL129:
 1003              		.loc 2 30 5 is_stmt 1
 1004              		.loc 2 30 15 is_stmt 0
 1005 0694 97000000 		call	_Z10stopKernelv@plt
 1005      E7800000 
 1006              	.LVL130:
 1007              	.LBE75:
 1008              	.LBE76:
 1009              		.cfi_endproc
 1010              	.LFE18:
 1012              		.align	2
 1013              		.globl	_ZN7IThread4exitEv
 1015              	_ZN7IThread4exitEv:
 1016              	.LFB23:
 181:src/thread.cpp **** 
 182:src/thread.cpp **** int IThread::exit()
 183:src/thread.cpp **** {
 1017              		.loc 1 183 1 is_stmt 1
 1018              		.cfi_startproc
 1019 069c 130101FE 		addi	sp,sp,-32
 1020              		.cfi_def_cfa_offset 32
 1021 06a0 233C1100 		sd	ra,24(sp)
 1022 06a4 23388100 		sd	s0,16(sp)
 1023 06a8 23349100 		sd	s1,8(sp)
 1024              		.cfi_offset 1, -8
 1025              		.cfi_offset 8, -16
 1026              		.cfi_offset 9, -24
 1027 06ac 13040102 		addi	s0,sp,32
 1028              		.cfi_def_cfa 8, 0
 184:src/thread.cpp ****     IThread* t = IThread::getPRunning();
 1029              		.loc 1 184 5
 1030              		.loc 1 184 38 is_stmt 0
 1031 06b0 97000000 		call	_ZN7IThread11getPRunningEv
 1031      E7800000 
 1032              	.LVL131:
 185:src/thread.cpp ****     assert(t->state == RUNNING);
 1033              		.loc 1 185 5 is_stmt 1
 1034 06b8 83270500 		lw	a5,0(a0)
 1035              	.LVL132:
 1036              	.LBB81:
 1037              	.LBB82:
  20:src/../h/../h/my_console.h ****         return;
 1038              		.loc 2 20 5
 1039 06bc 639E0704 		bnez	a5,.L49
 1040 06c0 93040500 		mv	s1,a0
  21:src/../h/../h/my_console.h **** 
GAS LISTING /tmp/cc7mt25p.s 			page 29


 1041              		.loc 2 21 9
 1042              	.LVL133:
 1043              	.LBE82:
 1044              	.LBE81:
 186:src/thread.cpp ****     assert(t->done == false);
 1045              		.loc 1 186 5
 1046 06c4 83470504 		lbu	a5,64(a0)
 1047 06c8 93C71700 		xori	a5,a5,1
 1048              	.LVL134:
 1049              	.LBB84:
 1050              	.LBB85:
  20:src/../h/../h/my_console.h ****         return;
 1051              		.loc 2 20 5
 1052 06cc 6384070A 		beqz	a5,.L50
  21:src/../h/../h/my_console.h **** 
 1053              		.loc 2 21 9
 1054              	.LVL135:
 1055              	.LBE85:
 1056              	.LBE84:
 187:src/thread.cpp ****     t->done = true;
 1057              		.loc 1 187 5
 1058              		.loc 1 187 13 is_stmt 0
 1059 06d0 93071000 		li	a5,1
 1060 06d4 2300F504 		sb	a5,64(a0)
 188:src/thread.cpp **** 
 189:src/thread.cpp ****     MemAlloc::get()->freeMem(t->pStackStart);
 1061              		.loc 1 189 5 is_stmt 1
 1062              		.loc 1 189 29 is_stmt 0
 1063 06d8 97000000 		call	_ZN8MemAlloc3getEv@plt
 1063      E7800000 
 1064              	.LVL136:
 1065 06e0 83B58401 		ld	a1,24(s1)
 1066 06e4 97000000 		call	_ZN8MemAlloc7freeMemEPv@plt
 1066      E7800000 
 1067              	.LVL137:
 190:src/thread.cpp **** 
 191:src/thread.cpp ****     t->signalDone(); // WARNING: must be in this order
 1068              		.loc 1 191 5 is_stmt 1
 1069              		.loc 1 191 18 is_stmt 0
 1070 06ec 13850400 		mv	a0,s1
 1071 06f0 97000000 		call	_ZN7IThread10signalDoneEv
 1071      E7800000 
 1072              	.LVL138:
 192:src/thread.cpp **** 
 193:src/thread.cpp ****     Scheduler::dispatchToNext(); // WARNING: must be before signalDone()
 1073              		.loc 1 193 5 is_stmt 1
 1074              		.loc 1 193 30 is_stmt 0
 1075 06f8 97000000 		call	_ZN9Scheduler14dispatchToNextEv@plt
 1075      E7800000 
 1076              	.LVL139:
 194:src/thread.cpp **** 
 195:src/thread.cpp ****     return 0;
 1077              		.loc 1 195 5 is_stmt 1
 196:src/thread.cpp **** }
 1078              		.loc 1 196 1 is_stmt 0
 1079 0700 13050000 		li	a0,0
 1080 0704 83308101 		ld	ra,24(sp)
GAS LISTING /tmp/cc7mt25p.s 			page 30


 1081              		.cfi_remember_state
 1082              		.cfi_restore 1
 1083 0708 03340101 		ld	s0,16(sp)
 1084              		.cfi_restore 8
 1085              		.cfi_def_cfa 2, 32
 1086 070c 83348100 		ld	s1,8(sp)
 1087              		.cfi_restore 9
 1088              	.LVL140:
 1089 0710 13010102 		addi	sp,sp,32
 1090              		.cfi_def_cfa_offset 0
 1091 0714 67800000 		jr	ra
 1092              	.LVL141:
 1093              	.L49:
 1094              		.cfi_restore_state
 1095              	.LBB87:
 1096              	.LBB83:
  23:src/../h/../h/my_console.h ****     putString(file);
 1097              		.loc 2 23 5 is_stmt 1
  23:src/../h/../h/my_console.h ****     putString(file);
 1098              		.loc 2 23 14 is_stmt 0
 1099 0718 17050000 		lla	a0,.LC0
 1099      13050500 
 1100              	.LVL142:
 1101 0720 97000000 		call	_Z9putStringPKc@plt
 1101      E7800000 
 1102              	.LVL143:
  24:src/../h/../h/my_console.h ****     putString("    line: ");
 1103              		.loc 2 24 5 is_stmt 1
  24:src/../h/../h/my_console.h ****     putString("    line: ");
 1104              		.loc 2 24 14 is_stmt 0
 1105 0728 17050000 		lla	a0,.LC1
 1105      13050500 
 1106 0730 97000000 		call	_Z9putStringPKc@plt
 1106      E7800000 
 1107              	.LVL144:
  25:src/../h/../h/my_console.h ****     putInt(line);
 1108              		.loc 2 25 5 is_stmt 1
  25:src/../h/../h/my_console.h ****     putInt(line);
 1109              		.loc 2 25 14 is_stmt 0
 1110 0738 17050000 		lla	a0,.LC2
 1110      13050500 
 1111 0740 97000000 		call	_Z9putStringPKc@plt
 1111      E7800000 
 1112              	.LVL145:
  26:src/../h/../h/my_console.h ****     putString("   ===========================");
 1113              		.loc 2 26 5 is_stmt 1
  26:src/../h/../h/my_console.h ****     putString("   ===========================");
 1114              		.loc 2 26 11 is_stmt 0
 1115 0748 1305900B 		li	a0,185
 1116 074c 97000000 		call	_Z6putInti@plt
 1116      E7800000 
 1117              	.LVL146:
  27:src/../h/../h/my_console.h ****     putNewline();
 1118              		.loc 2 27 5 is_stmt 1
  27:src/../h/../h/my_console.h ****     putNewline();
 1119              		.loc 2 27 14 is_stmt 0
 1120 0754 17050000 		lla	a0,.LC3
GAS LISTING /tmp/cc7mt25p.s 			page 31


 1120      13050500 
 1121 075c 97000000 		call	_Z9putStringPKc@plt
 1121      E7800000 
 1122              	.LVL147:
  28:src/../h/../h/my_console.h **** 
 1123              		.loc 2 28 5 is_stmt 1
  28:src/../h/../h/my_console.h **** 
 1124              		.loc 2 28 15 is_stmt 0
 1125 0764 97000000 		call	_Z10putNewlinev@plt
 1125      E7800000 
 1126              	.LVL148:
 1127              		.loc 2 30 5 is_stmt 1
 1128              		.loc 2 30 15 is_stmt 0
 1129 076c 97000000 		call	_Z10stopKernelv@plt
 1129      E7800000 
 1130              	.LVL149:
 1131              	.L50:
 1132              	.LBE83:
 1133              	.LBE87:
 1134              	.LBB88:
 1135              	.LBB86:
  23:src/../h/../h/my_console.h ****     putString(file);
 1136              		.loc 2 23 5 is_stmt 1
  23:src/../h/../h/my_console.h ****     putString(file);
 1137              		.loc 2 23 14 is_stmt 0
 1138 0774 17050000 		lla	a0,.LC0
 1138      13050500 
 1139 077c 97000000 		call	_Z9putStringPKc@plt
 1139      E7800000 
 1140              	.LVL150:
  24:src/../h/../h/my_console.h ****     putString("    line: ");
 1141              		.loc 2 24 5 is_stmt 1
  24:src/../h/../h/my_console.h ****     putString("    line: ");
 1142              		.loc 2 24 14 is_stmt 0
 1143 0784 17050000 		lla	a0,.LC1
 1143      13050500 
 1144 078c 97000000 		call	_Z9putStringPKc@plt
 1144      E7800000 
 1145              	.LVL151:
  25:src/../h/../h/my_console.h ****     putInt(line);
 1146              		.loc 2 25 5 is_stmt 1
  25:src/../h/../h/my_console.h ****     putInt(line);
 1147              		.loc 2 25 14 is_stmt 0
 1148 0794 17050000 		lla	a0,.LC2
 1148      13050500 
 1149 079c 97000000 		call	_Z9putStringPKc@plt
 1149      E7800000 
 1150              	.LVL152:
  26:src/../h/../h/my_console.h ****     putString("   ===========================");
 1151              		.loc 2 26 5 is_stmt 1
  26:src/../h/../h/my_console.h ****     putString("   ===========================");
 1152              		.loc 2 26 11 is_stmt 0
 1153 07a4 1305A00B 		li	a0,186
 1154 07a8 97000000 		call	_Z6putInti@plt
 1154      E7800000 
 1155              	.LVL153:
  27:src/../h/../h/my_console.h ****     putNewline();
GAS LISTING /tmp/cc7mt25p.s 			page 32


 1156              		.loc 2 27 5 is_stmt 1
  27:src/../h/../h/my_console.h ****     putNewline();
 1157              		.loc 2 27 14 is_stmt 0
 1158 07b0 17050000 		lla	a0,.LC3
 1158      13050500 
 1159 07b8 97000000 		call	_Z9putStringPKc@plt
 1159      E7800000 
 1160              	.LVL154:
  28:src/../h/../h/my_console.h **** 
 1161              		.loc 2 28 5 is_stmt 1
  28:src/../h/../h/my_console.h **** 
 1162              		.loc 2 28 15 is_stmt 0
 1163 07c0 97000000 		call	_Z10putNewlinev@plt
 1163      E7800000 
 1164              	.LVL155:
 1165              		.loc 2 30 5 is_stmt 1
 1166              		.loc 2 30 15 is_stmt 0
 1167 07c8 97000000 		call	_Z10stopKernelv@plt
 1167      E7800000 
 1168              	.LVL156:
 1169              	.LBE86:
 1170              	.LBE88:
 1171              		.cfi_endproc
 1172              	.LFE23:
 1174              		.globl	_ZN7IThread20switchedToUserThreadE
 1175              		.globl	_ZN7IThread22initialUserMemoryUsageE
 1176              		.globl	_ZN7IThread11pAllThreadsE
 1177              		.globl	_ZN7IThread14nrTotalThreadsE
 1178              		.globl	_ZN7IThread10pRunningSpE
 1179              		.globl	_ZN7IThread8pRunningE
 1180              		.globl	_ZN7IThread16timeSliceCounterE
 1181              		.weak	_ZGVZN9Scheduler3getEvE8instance
 1182              		.section	.bss._ZGVZN9Scheduler3getEvE8instance,"awG",@nobits,_ZGVZN9Scheduler3getEvE8instance,comd
 1183              		.align	3
 1186              	_ZGVZN9Scheduler3getEvE8instance:
 1187 0000 00000000 		.zero	8
 1187      00000000 
 1188              		.weak	_ZZN9Scheduler3getEvE8instance
 1189              		.section	.bss._ZZN9Scheduler3getEvE8instance,"awG",@nobits,_ZZN9Scheduler3getEvE8instance,comdat
 1190              		.align	3
 1193              	_ZZN9Scheduler3getEvE8instance:
 1194 0000 00000000 		.zero	16
 1194      00000000 
 1194      00000000 
 1194      00000000 
 1195              		.data
 1196              		.align	3
 1197              		.set	.LANCHOR1,. + 0
 1200              	_ZN7IThread14nrTotalThreadsE:
 1201 0000 01000000 		.dword	1
 1201      00000000 
 1202              		.bss
 1203              		.align	3
 1204              		.set	.LANCHOR0,. + 0
 1207              	_ZN7IThread8pRunningE:
 1208 0000 00000000 		.zero	8
 1208      00000000 
GAS LISTING /tmp/cc7mt25p.s 			page 33


 1211              	_ZN7IThread10pRunningSpE:
 1212 0008 00000000 		.zero	8
 1212      00000000 
 1215              	_ZN7IThread11pAllThreadsE:
 1216 0010 00000000 		.zero	800
 1216      00000000 
 1216      00000000 
 1216      00000000 
 1216      00000000 
 1219              	_ZN7IThread20switchedToUserThreadE:
 1220 0330 00       		.zero	1
 1221 0331 00000000 		.zero	7
 1221      000000
 1224              	_ZN7IThread22initialUserMemoryUsageE:
 1225 0338 00000000 		.zero	8
 1225      00000000 
 1228              	_ZN7IThread16timeSliceCounterE:
 1229 0340 00000000 		.zero	8
 1229      00000000 
 1230              		.text
 1231              	.Letext0:
 1232              		.file 4 "src/../h/../lib/hw.h"
 1233              		.file 5 "src/../h/thread.h"
 1234              		.file 6 "src/../h/alloc.h"
 1235              		.file 7 "src/../h/../h/syscall_c.hpp"
GAS LISTING /tmp/cc7mt25p.s 			page 34


DEFINED SYMBOLS
                            *ABS*:0000000000000000 thread.cpp
     /tmp/cc7mt25p.s:9      .text:0000000000000000 _Z7wrappermPFvPvES_
     /tmp/cc7mt25p.s:13     .text:0000000000000000 .L0 
     /tmp/cc7mt25p.s:15     .text:0000000000000000 .L0 
     /tmp/cc7mt25p.s:16     .text:0000000000000004 .L0 
     /tmp/cc7mt25p.s:19     .text:000000000000000c .L0 
     /tmp/cc7mt25p.s:20     .text:000000000000000c .L0 
     /tmp/cc7mt25p.s:22     .text:0000000000000010 .L0 
     /tmp/cc7mt25p.s:24     .text:0000000000000010 .L0 
     /tmp/cc7mt25p.s:25     .text:0000000000000010 .L0 
     /tmp/cc7mt25p.s:30     .text:0000000000000018 .L0 
     /tmp/cc7mt25p.s:31     .text:0000000000000018 .L0 
     /tmp/cc7mt25p.s:34     .text:0000000000000020 .L0 
     /tmp/cc7mt25p.s:35     .text:0000000000000024 .L0 
     /tmp/cc7mt25p.s:37     .text:0000000000000028 .L0 
     /tmp/cc7mt25p.s:38     .text:0000000000000028 .L0 
     /tmp/cc7mt25p.s:40     .text:000000000000002c .L0 
     /tmp/cc7mt25p.s:42     .text:0000000000000030 .L0 
     /tmp/cc7mt25p.s:48     .text:0000000000000030 _ZN7IThread10signalDoneEv
     /tmp/cc7mt25p.s:51     .text:0000000000000030 .L0 
     /tmp/cc7mt25p.s:53     .text:0000000000000030 .L0 
     /tmp/cc7mt25p.s:54     .text:0000000000000034 .L0 
     /tmp/cc7mt25p.s:58     .text:0000000000000040 .L0 
     /tmp/cc7mt25p.s:59     .text:0000000000000040 .L0 
     /tmp/cc7mt25p.s:60     .text:0000000000000040 .L0 
     /tmp/cc7mt25p.s:62     .text:0000000000000044 .L0 
     /tmp/cc7mt25p.s:64     .text:0000000000000044 .L0 
     /tmp/cc7mt25p.s:65     .text:0000000000000044 .L0 
     /tmp/cc7mt25p.s:69     .text:0000000000000048 .L0 
     /tmp/cc7mt25p.s:70     .text:0000000000000048 .L0 
     /tmp/cc7mt25p.s:72     .text:000000000000004c .L0 
     /tmp/cc7mt25p.s:73     .text:000000000000004c .L0 
     /tmp/cc7mt25p.s:76     .text:0000000000000054 .L0 
     /tmp/cc7mt25p.s:77     .text:0000000000000054 .L0 
     /tmp/cc7mt25p.s:81     .text:0000000000000060 .L0 
     /tmp/cc7mt25p.s:82     .text:0000000000000060 .L0 
     /tmp/cc7mt25p.s:85     .text:0000000000000064 .L0 
     /tmp/cc7mt25p.s:88     .text:0000000000000068 .L0 
     /tmp/cc7mt25p.s:89     .text:000000000000006c .L0 
     /tmp/cc7mt25p.s:91     .text:0000000000000070 .L0 
     /tmp/cc7mt25p.s:92     .text:0000000000000070 .L0 
     /tmp/cc7mt25p.s:94     .text:0000000000000074 .L0 
     /tmp/cc7mt25p.s:97     .text:0000000000000078 .L0 
     /tmp/cc7mt25p.s:99     .text:000000000000007c .L0 
     /tmp/cc7mt25p.s:105    .text:000000000000007c _ZN7IThread11setPRunningEPS_
     /tmp/cc7mt25p.s:108    .text:000000000000007c .L0 
     /tmp/cc7mt25p.s:110    .text:000000000000007c .L0 
     /tmp/cc7mt25p.s:111    .text:0000000000000080 .L0 
     /tmp/cc7mt25p.s:113    .text:0000000000000084 .L0 
     /tmp/cc7mt25p.s:115    .text:0000000000000088 .L0 
     /tmp/cc7mt25p.s:117    .text:0000000000000088 .L0 
     /tmp/cc7mt25p.s:118    .text:0000000000000088 .L0 
     /tmp/cc7mt25p.s:121    .text:0000000000000094 .L0 
     /tmp/cc7mt25p.s:122    .text:0000000000000094 .L0 
     /tmp/cc7mt25p.s:125    .text:0000000000000098 .L0 
     /tmp/cc7mt25p.s:127    .text:000000000000009c .L0 
GAS LISTING /tmp/cc7mt25p.s 			page 35


     /tmp/cc7mt25p.s:128    .text:00000000000000a0 .L0 
     /tmp/cc7mt25p.s:129    .text:00000000000000a0 .L0 
     /tmp/cc7mt25p.s:131    .text:00000000000000a4 .L0 
     /tmp/cc7mt25p.s:133    .text:00000000000000a8 .L0 
     /tmp/cc7mt25p.s:139    .text:00000000000000a8 _ZN7IThread11getPRunningEv
     /tmp/cc7mt25p.s:142    .text:00000000000000a8 .L0 
     /tmp/cc7mt25p.s:143    .text:00000000000000a8 .L0 
     /tmp/cc7mt25p.s:144    .text:00000000000000ac .L0 
     /tmp/cc7mt25p.s:146    .text:00000000000000b0 .L0 
     /tmp/cc7mt25p.s:148    .text:00000000000000b4 .L0 
     /tmp/cc7mt25p.s:150    .text:00000000000000b4 .L0 
      src/thread.cpp:123    .text:00000000000000b4 .L0 
     /tmp/cc7mt25p.s:156    .text:00000000000000b8 .L0 
     /tmp/cc7mt25p.s:158    .text:00000000000000b8 .L0 
     /tmp/cc7mt25p.s:160    .text:00000000000000c4 .L0 
     /tmp/cc7mt25p.s:161    .text:00000000000000c4 .L0 
     /tmp/cc7mt25p.s:163    .text:00000000000000c8 .L0 
     /tmp/cc7mt25p.s:165    .text:00000000000000cc .L0 
     /tmp/cc7mt25p.s:185    .text:00000000000000cc _ZN7IThread4joinEm
     /tmp/cc7mt25p.s:188    .text:00000000000000cc .L0 
     /tmp/cc7mt25p.s:190    .text:00000000000000cc .L0 
     /tmp/cc7mt25p.s:191    .text:00000000000000d0 .L0 
     /tmp/cc7mt25p.s:195    .text:00000000000000dc .L0 
     /tmp/cc7mt25p.s:196    .text:00000000000000dc .L0 
     /tmp/cc7mt25p.s:197    .text:00000000000000dc .L0 
     /tmp/cc7mt25p.s:199    .text:00000000000000e0 .L0 
     /tmp/cc7mt25p.s:202    .text:00000000000000e4 .L0 
     /tmp/cc7mt25p.s:203    .text:00000000000000e4 .L0 
     /tmp/cc7mt25p.s:206    .text:00000000000000ec .L0 
     /tmp/cc7mt25p.s:207    .text:00000000000000ec .L0 
     /tmp/cc7mt25p.s:214    .text:0000000000000100 .L0 
     /tmp/cc7mt25p.s:215    .text:0000000000000100 .L0 
     /tmp/cc7mt25p.s:221    .text:0000000000000108 .L0 
     /tmp/cc7mt25p.s:226    .text:000000000000010c .L0 
     /tmp/cc7mt25p.s:227    .text:000000000000010c .L0 
     /tmp/cc7mt25p.s:228    .text:000000000000010c .L0 
     /tmp/cc7mt25p.s:230    .text:0000000000000110 .L0 
     /tmp/cc7mt25p.s:233    .text:0000000000000114 .L0 
     /tmp/cc7mt25p.s:234    .text:0000000000000114 .L0 
     /tmp/cc7mt25p.s:236    .text:0000000000000118 .L0 
     /tmp/cc7mt25p.s:241    .text:000000000000011c .L0 
     /tmp/cc7mt25p.s:242    .text:000000000000011c .L0 
     /tmp/cc7mt25p.s:247    .text:0000000000000128 .L0 
     /tmp/cc7mt25p.s:248    .text:0000000000000128 .L0 
     /tmp/cc7mt25p.s:254    .text:000000000000012c .L0 
     /tmp/cc7mt25p.s:255    .text:000000000000012c .L0 
     /tmp/cc7mt25p.s:257    .text:0000000000000130 .L0 
     /tmp/cc7mt25p.s:258    .text:0000000000000130 .L0 
     /tmp/cc7mt25p.s:261    .text:0000000000000138 .L0 
     /tmp/cc7mt25p.s:262    .text:0000000000000138 .L0 
     /tmp/cc7mt25p.s:266    .text:0000000000000140 .L0 
     /tmp/cc7mt25p.s:267    .text:0000000000000144 .L0 
     /tmp/cc7mt25p.s:268    .text:0000000000000144 .L0 
     /tmp/cc7mt25p.s:270    .text:0000000000000148 .L0 
     /tmp/cc7mt25p.s:271    .text:0000000000000148 .L0 
     /tmp/cc7mt25p.s:273    .text:000000000000014c .L0 
     /tmp/cc7mt25p.s:275    .text:0000000000000150 .L0 
GAS LISTING /tmp/cc7mt25p.s 			page 36


     /tmp/cc7mt25p.s:279    .text:0000000000000154 .L0 
     /tmp/cc7mt25p.s:283    .text:0000000000000154 .L0 
     /tmp/cc7mt25p.s:284    .text:0000000000000154 .L0 
     /tmp/cc7mt25p.s:289    .text:0000000000000164 .L0 
     /tmp/cc7mt25p.s:290    .text:0000000000000164 .L0 
     /tmp/cc7mt25p.s:294    .text:0000000000000174 .L0 
     /tmp/cc7mt25p.s:295    .text:0000000000000174 .L0 
     /tmp/cc7mt25p.s:299    .text:0000000000000184 .L0 
     /tmp/cc7mt25p.s:300    .text:0000000000000184 .L0 
     /tmp/cc7mt25p.s:304    .text:0000000000000190 .L0 
     /tmp/cc7mt25p.s:305    .text:0000000000000190 .L0 
     /tmp/cc7mt25p.s:309    .text:00000000000001a0 .L0 
     /tmp/cc7mt25p.s:310    .text:00000000000001a0 .L0 
     /tmp/cc7mt25p.s:313    .text:00000000000001a8 .L0 
     /tmp/cc7mt25p.s:314    .text:00000000000001a8 .L0 
     /tmp/cc7mt25p.s:321    .text:00000000000001b0 .L0 
     /tmp/cc7mt25p.s:322    .text:00000000000001b0 .L0 
     /tmp/cc7mt25p.s:325    .text:00000000000001b8 .L0 
     /tmp/cc7mt25p.s:331    .text:00000000000001b8 _ZN7IThread12switchToUserEv
     /tmp/cc7mt25p.s:334    .text:00000000000001b8 .L0 
     /tmp/cc7mt25p.s:335    .text:00000000000001b8 .L0 
     /tmp/cc7mt25p.s:336    .text:00000000000001bc .L0 
     /tmp/cc7mt25p.s:339    .text:00000000000001c4 .L0 
     /tmp/cc7mt25p.s:340    .text:00000000000001c4 .L0 
     /tmp/cc7mt25p.s:342    .text:00000000000001c8 .L0 
     /tmp/cc7mt25p.s:344    .text:00000000000001c8 .L0 
     /tmp/cc7mt25p.s:345    .text:00000000000001c8 .L0 
      src/thread.cpp:66     .text:00000000000001c8 .L0 
     /tmp/cc7mt25p.s:352    .text:00000000000001cc .L0 
     /tmp/cc7mt25p.s:354    .text:00000000000001cc .L0 
     /tmp/cc7mt25p.s:357    .text:00000000000001d0 .L0 
     /tmp/cc7mt25p.s:359    .text:00000000000001d4 .L0 
     /tmp/cc7mt25p.s:366    .text:00000000000001e0 .L0 
     /tmp/cc7mt25p.s:371    .text:00000000000001e4 .L0 
     /tmp/cc7mt25p.s:375    .text:00000000000001e4 .L0 
     /tmp/cc7mt25p.s:376    .text:00000000000001e4 .L0 
     /tmp/cc7mt25p.s:1186   .bss._ZGVZN9Scheduler3getEvE8instance:0000000000000000 _ZGVZN9Scheduler3getEvE8instance
     /tmp/cc7mt25p.s:377    .text:00000000000001e4 .L0 
     /tmp/cc7mt25p.s:1193   .bss._ZZN9Scheduler3getEvE8instance:0000000000000000 _ZZN9Scheduler3getEvE8instance
     /tmp/cc7mt25p.s:384    .text:00000000000001f0 .L0 
     /tmp/cc7mt25p.s:392    .text:0000000000000200 .L0 
     /tmp/cc7mt25p.s:399    .text:000000000000020c .L0 
     /tmp/cc7mt25p.s:400    .text:000000000000020c .L0 
     /tmp/cc7mt25p.s:401    .text:000000000000020c .L0 
     /tmp/cc7mt25p.s:402    .text:000000000000020c .L0 
     /tmp/cc7mt25p.s:403    .text:000000000000020c .L0 
     /tmp/cc7mt25p.s:404    .text:000000000000020c .L0 
     /tmp/cc7mt25p.s:407    .text:0000000000000214 .L0 
     /tmp/cc7mt25p.s:415    .text:0000000000000224 .L0 
     /tmp/cc7mt25p.s:419    .text:0000000000000228 .L0 
     /tmp/cc7mt25p.s:420    .text:000000000000022c .L0 
     /tmp/cc7mt25p.s:421    .text:000000000000022c .L0 
     /tmp/cc7mt25p.s:423    .text:0000000000000230 .L0 
     /tmp/cc7mt25p.s:424    .text:0000000000000230 .L0 
     /tmp/cc7mt25p.s:426    .text:0000000000000234 .L0 
     /tmp/cc7mt25p.s:430    .text:0000000000000238 .L0 
     /tmp/cc7mt25p.s:434    .text:0000000000000238 .L0 
GAS LISTING /tmp/cc7mt25p.s 			page 37


     /tmp/cc7mt25p.s:435    .text:0000000000000238 .L0 
     /tmp/cc7mt25p.s:436    .text:0000000000000238 .L0 
     /tmp/cc7mt25p.s:437    .text:0000000000000238 .L0 
     /tmp/cc7mt25p.s:441    .text:0000000000000248 .L0 
     /tmp/cc7mt25p.s:442    .text:0000000000000248 .L0 
     /tmp/cc7mt25p.s:446    .text:0000000000000258 .L0 
     /tmp/cc7mt25p.s:447    .text:0000000000000258 .L0 
     /tmp/cc7mt25p.s:451    .text:0000000000000268 .L0 
     /tmp/cc7mt25p.s:452    .text:0000000000000268 .L0 
     /tmp/cc7mt25p.s:456    .text:0000000000000274 .L0 
     /tmp/cc7mt25p.s:457    .text:0000000000000274 .L0 
     /tmp/cc7mt25p.s:461    .text:0000000000000284 .L0 
     /tmp/cc7mt25p.s:462    .text:0000000000000284 .L0 
     /tmp/cc7mt25p.s:465    .text:000000000000028c .L0 
     /tmp/cc7mt25p.s:466    .text:000000000000028c .L0 
     /tmp/cc7mt25p.s:474    .text:0000000000000294 .L0 
     /tmp/cc7mt25p.s:475    .text:0000000000000294 .L0 
     /tmp/cc7mt25p.s:479    .text:00000000000002a4 .L0 
     /tmp/cc7mt25p.s:480    .text:00000000000002a4 .L0 
     /tmp/cc7mt25p.s:484    .text:00000000000002b4 .L0 
     /tmp/cc7mt25p.s:485    .text:00000000000002b4 .L0 
     /tmp/cc7mt25p.s:489    .text:00000000000002c4 .L0 
     /tmp/cc7mt25p.s:490    .text:00000000000002c4 .L0 
     /tmp/cc7mt25p.s:494    .text:00000000000002d0 .L0 
     /tmp/cc7mt25p.s:495    .text:00000000000002d0 .L0 
     /tmp/cc7mt25p.s:499    .text:00000000000002e0 .L0 
     /tmp/cc7mt25p.s:500    .text:00000000000002e0 .L0 
     /tmp/cc7mt25p.s:503    .text:00000000000002e8 .L0 
     /tmp/cc7mt25p.s:504    .text:00000000000002e8 .L0 
     /tmp/cc7mt25p.s:512    .text:00000000000002f0 .L0 
     /tmp/cc7mt25p.s:513    .text:00000000000002f0 .L0 
     /tmp/cc7mt25p.s:517    .text:0000000000000300 .L0 
     /tmp/cc7mt25p.s:518    .text:0000000000000300 .L0 
     /tmp/cc7mt25p.s:522    .text:0000000000000310 .L0 
     /tmp/cc7mt25p.s:523    .text:0000000000000310 .L0 
     /tmp/cc7mt25p.s:527    .text:0000000000000320 .L0 
     /tmp/cc7mt25p.s:528    .text:0000000000000320 .L0 
     /tmp/cc7mt25p.s:532    .text:000000000000032c .L0 
     /tmp/cc7mt25p.s:533    .text:000000000000032c .L0 
     /tmp/cc7mt25p.s:537    .text:000000000000033c .L0 
     /tmp/cc7mt25p.s:538    .text:000000000000033c .L0 
     /tmp/cc7mt25p.s:541    .text:0000000000000344 .L0 
     /tmp/cc7mt25p.s:542    .text:0000000000000344 .L0 
     /tmp/cc7mt25p.s:546    .text:000000000000034c .L0 
     /tmp/cc7mt25p.s:552    .text:000000000000034c _ZN7IThread10allocStackEv
     /tmp/cc7mt25p.s:555    .text:000000000000034c .L0 
     /tmp/cc7mt25p.s:557    .text:000000000000034c .L0 
     /tmp/cc7mt25p.s:558    .text:0000000000000350 .L0 
     /tmp/cc7mt25p.s:563    .text:0000000000000360 .L0 
     /tmp/cc7mt25p.s:564    .text:0000000000000360 .L0 
     /tmp/cc7mt25p.s:565    .text:0000000000000360 .L0 
     /tmp/cc7mt25p.s:566    .text:0000000000000360 .L0 
     /tmp/cc7mt25p.s:568    .text:0000000000000364 .L0 
     /tmp/cc7mt25p.s:570    .text:0000000000000364 .L0 
     /tmp/cc7mt25p.s:575    .text:0000000000000368 .L0 
     /tmp/cc7mt25p.s:581    .text:0000000000000370 .L0 
     /tmp/cc7mt25p.s:582    .text:0000000000000370 .L0 
GAS LISTING /tmp/cc7mt25p.s 			page 38


     /tmp/cc7mt25p.s:583    .text:0000000000000370 .L0 
     /tmp/cc7mt25p.s:590    .text:0000000000000388 .L0 
     /tmp/cc7mt25p.s:592    .text:000000000000038c .L0 
     /tmp/cc7mt25p.s:593    .text:000000000000038c .L0 
     /tmp/cc7mt25p.s:597    .text:0000000000000394 .L0 
     /tmp/cc7mt25p.s:598    .text:0000000000000394 .L0 
     /tmp/cc7mt25p.s:600    .text:0000000000000398 .L0 
     /tmp/cc7mt25p.s:602    .text:000000000000039c .L0 
     /tmp/cc7mt25p.s:603    .text:000000000000039c .L0 
     /tmp/cc7mt25p.s:607    .text:00000000000003a0 .L0 
     /tmp/cc7mt25p.s:608    .text:00000000000003a0 .L0 
     /tmp/cc7mt25p.s:609    .text:00000000000003a0 .L0 
     /tmp/cc7mt25p.s:612    .text:00000000000003a8 .L0 
     /tmp/cc7mt25p.s:613    .text:00000000000003a8 .L0 
     /tmp/cc7mt25p.s:615    .text:00000000000003ac .L0 
     /tmp/cc7mt25p.s:616    .text:00000000000003ac .L0 
     /tmp/cc7mt25p.s:618    .text:00000000000003b0 .L0 
     /tmp/cc7mt25p.s:620    .text:00000000000003b4 .L0 
     /tmp/cc7mt25p.s:623    .text:00000000000003b8 .L0 
     /tmp/cc7mt25p.s:627    .text:00000000000003bc .L0 
     /tmp/cc7mt25p.s:631    .text:00000000000003bc .L0 
     /tmp/cc7mt25p.s:632    .text:00000000000003bc .L0 
     /tmp/cc7mt25p.s:637    .text:00000000000003cc .L0 
     /tmp/cc7mt25p.s:638    .text:00000000000003cc .L0 
     /tmp/cc7mt25p.s:642    .text:00000000000003dc .L0 
     /tmp/cc7mt25p.s:643    .text:00000000000003dc .L0 
     /tmp/cc7mt25p.s:647    .text:00000000000003ec .L0 
     /tmp/cc7mt25p.s:648    .text:00000000000003ec .L0 
     /tmp/cc7mt25p.s:652    .text:00000000000003f8 .L0 
     /tmp/cc7mt25p.s:653    .text:00000000000003f8 .L0 
     /tmp/cc7mt25p.s:657    .text:0000000000000408 .L0 
     /tmp/cc7mt25p.s:658    .text:0000000000000408 .L0 
     /tmp/cc7mt25p.s:661    .text:0000000000000410 .L0 
     /tmp/cc7mt25p.s:662    .text:0000000000000410 .L0 
     /tmp/cc7mt25p.s:666    .text:0000000000000418 .L0 
     /tmp/cc7mt25p.s:672    .text:0000000000000418 _ZN7IThread4initEPFvPvES0_S0_
     /tmp/cc7mt25p.s:675    .text:0000000000000418 .L0 
     /tmp/cc7mt25p.s:677    .text:0000000000000418 .L0 
     /tmp/cc7mt25p.s:678    .text:000000000000041c .L0 
     /tmp/cc7mt25p.s:681    .text:0000000000000424 .L0 
     /tmp/cc7mt25p.s:682    .text:0000000000000424 .L0 
     /tmp/cc7mt25p.s:684    .text:0000000000000428 .L0 
     /tmp/cc7mt25p.s:686    .text:0000000000000428 .L0 
     /tmp/cc7mt25p.s:692    .text:0000000000000434 .L0 
     /tmp/cc7mt25p.s:697    .text:0000000000000438 .L0 
     /tmp/cc7mt25p.s:698    .text:0000000000000438 .L0 
     /tmp/cc7mt25p.s:699    .text:0000000000000438 .L0 
     /tmp/cc7mt25p.s:703    .text:0000000000000448 .L0 
     /tmp/cc7mt25p.s:704    .text:0000000000000448 .L0 
     /tmp/cc7mt25p.s:707    .text:0000000000000450 .L0 
     /tmp/cc7mt25p.s:712    .text:0000000000000454 .L0 
     /tmp/cc7mt25p.s:717    .text:0000000000000458 .L0 
     /tmp/cc7mt25p.s:718    .text:0000000000000458 .L0 
     /tmp/cc7mt25p.s:719    .text:0000000000000458 .L0 
     /tmp/cc7mt25p.s:720    .text:0000000000000458 .L0 
     /tmp/cc7mt25p.s:723    .text:0000000000000460 .L0 
     /tmp/cc7mt25p.s:724    .text:0000000000000460 .L0 
GAS LISTING /tmp/cc7mt25p.s 			page 39


     /tmp/cc7mt25p.s:726    .text:0000000000000464 .L0 
     /tmp/cc7mt25p.s:727    .text:0000000000000464 .L0 
     /tmp/cc7mt25p.s:729    .text:0000000000000468 .L0 
     /tmp/cc7mt25p.s:730    .text:0000000000000468 .L0 
     /tmp/cc7mt25p.s:732    .text:000000000000046c .L0 
     /tmp/cc7mt25p.s:733    .text:000000000000046c .L0 
     /tmp/cc7mt25p.s:737    .text:0000000000000470 .L0 
     /tmp/cc7mt25p.s:738    .text:0000000000000470 .L0 
     /tmp/cc7mt25p.s:742    .text:0000000000000474 .L0 
     /tmp/cc7mt25p.s:745    .text:000000000000047c .L0 
     /tmp/cc7mt25p.s:746    .text:000000000000047c .L0 
     /tmp/cc7mt25p.s:749    .text:0000000000000484 .L0 
     /tmp/cc7mt25p.s:751    .text:0000000000000488 .L0 
     /tmp/cc7mt25p.s:760    .text:0000000000000490 .L0 
     /tmp/cc7mt25p.s:761    .text:0000000000000490 .L0 
     /tmp/cc7mt25p.s:766    .text:00000000000004a0 .L0 
     /tmp/cc7mt25p.s:767    .text:00000000000004a0 .L0 
     /tmp/cc7mt25p.s:771    .text:00000000000004b0 .L0 
     /tmp/cc7mt25p.s:772    .text:00000000000004b0 .L0 
     /tmp/cc7mt25p.s:776    .text:00000000000004c0 .L0 
     /tmp/cc7mt25p.s:777    .text:00000000000004c0 .L0 
     /tmp/cc7mt25p.s:781    .text:00000000000004cc .L0 
     /tmp/cc7mt25p.s:782    .text:00000000000004cc .L0 
     /tmp/cc7mt25p.s:786    .text:00000000000004dc .L0 
     /tmp/cc7mt25p.s:787    .text:00000000000004dc .L0 
     /tmp/cc7mt25p.s:790    .text:00000000000004e4 .L0 
     /tmp/cc7mt25p.s:791    .text:00000000000004e4 .L0 
     /tmp/cc7mt25p.s:799    .text:00000000000004ec .L0 
     /tmp/cc7mt25p.s:800    .text:00000000000004ec .L0 
     /tmp/cc7mt25p.s:805    .text:00000000000004fc .L0 
     /tmp/cc7mt25p.s:806    .text:00000000000004fc .L0 
     /tmp/cc7mt25p.s:810    .text:000000000000050c .L0 
     /tmp/cc7mt25p.s:811    .text:000000000000050c .L0 
     /tmp/cc7mt25p.s:815    .text:000000000000051c .L0 
     /tmp/cc7mt25p.s:816    .text:000000000000051c .L0 
     /tmp/cc7mt25p.s:820    .text:0000000000000528 .L0 
     /tmp/cc7mt25p.s:821    .text:0000000000000528 .L0 
     /tmp/cc7mt25p.s:825    .text:0000000000000538 .L0 
     /tmp/cc7mt25p.s:826    .text:0000000000000538 .L0 
     /tmp/cc7mt25p.s:829    .text:0000000000000540 .L0 
     /tmp/cc7mt25p.s:830    .text:0000000000000540 .L0 
     /tmp/cc7mt25p.s:836    .text:0000000000000548 .L0 
     /tmp/cc7mt25p.s:837    .text:0000000000000548 .L0 
     /tmp/cc7mt25p.s:839    .text:000000000000054c .L0 
     /tmp/cc7mt25p.s:840    .text:000000000000054c .L0 
     /tmp/cc7mt25p.s:842    .text:0000000000000550 .L0 
     /tmp/cc7mt25p.s:843    .text:0000000000000550 .L0 
     /tmp/cc7mt25p.s:847    .text:000000000000055c .L0 
     /tmp/cc7mt25p.s:848    .text:000000000000055c .L0 
     /tmp/cc7mt25p.s:851    .text:0000000000000564 .L0 
     /tmp/cc7mt25p.s:852    .text:0000000000000568 .L0 
     /tmp/cc7mt25p.s:854    .text:000000000000056c .L0 
     /tmp/cc7mt25p.s:855    .text:000000000000056c .L0 
     /tmp/cc7mt25p.s:857    .text:0000000000000570 .L0 
     /tmp/cc7mt25p.s:859    .text:0000000000000574 .L0 
     /tmp/cc7mt25p.s:865    .text:0000000000000574 _ZN7IThread12createThreadEPmPFvPvES1_
     /tmp/cc7mt25p.s:868    .text:0000000000000574 .L0 
GAS LISTING /tmp/cc7mt25p.s 			page 40


     /tmp/cc7mt25p.s:870    .text:0000000000000574 .L0 
     /tmp/cc7mt25p.s:871    .text:0000000000000578 .L0 
     /tmp/cc7mt25p.s:878    .text:0000000000000590 .L0 
     /tmp/cc7mt25p.s:879    .text:0000000000000590 .L0 
     /tmp/cc7mt25p.s:880    .text:0000000000000590 .L0 
     /tmp/cc7mt25p.s:881    .text:0000000000000590 .L0 
     /tmp/cc7mt25p.s:882    .text:0000000000000590 .L0 
     /tmp/cc7mt25p.s:883    .text:0000000000000590 .L0 
     /tmp/cc7mt25p.s:885    .text:0000000000000594 .L0 
     /tmp/cc7mt25p.s:887    .text:0000000000000594 .L0 
     /tmp/cc7mt25p.s:893    .text:00000000000005a0 .L0 
     /tmp/cc7mt25p.s:901    .text:00000000000005b0 .L0 
     /tmp/cc7mt25p.s:902    .text:00000000000005b0 .L0 
     /tmp/cc7mt25p.s:903    .text:00000000000005b0 .L0 
     /tmp/cc7mt25p.s:911    .text:00000000000005c8 .L0 
     /tmp/cc7mt25p.s:912    .text:00000000000005c8 .L0 
     /tmp/cc7mt25p.s:918    .text:00000000000005e4 .L0 
     /tmp/cc7mt25p.s:919    .text:00000000000005e4 .L0 
     /tmp/cc7mt25p.s:921    .text:00000000000005e8 .L0 
     /tmp/cc7mt25p.s:922    .text:00000000000005e8 .L0 
     /tmp/cc7mt25p.s:927    .text:00000000000005f4 .L0 
     /tmp/cc7mt25p.s:928    .text:00000000000005f4 .L0 
     /tmp/cc7mt25p.s:935    .text:0000000000000608 .L0 
     /tmp/cc7mt25p.s:936    .text:0000000000000608 .L0 
     /tmp/cc7mt25p.s:938    .text:000000000000060c .L0 
     /tmp/cc7mt25p.s:940    .text:0000000000000610 .L0 
     /tmp/cc7mt25p.s:941    .text:0000000000000610 .L0 
     /tmp/cc7mt25p.s:945    .text:000000000000061c .L0 
     /tmp/cc7mt25p.s:946    .text:000000000000061c .L0 
     /tmp/cc7mt25p.s:948    .text:0000000000000624 .L0 
     /tmp/cc7mt25p.s:949    .text:0000000000000624 .L0 
     /tmp/cc7mt25p.s:951    .text:0000000000000628 .L0 
     /tmp/cc7mt25p.s:952    .text:0000000000000628 .L0 
     /tmp/cc7mt25p.s:954    .text:000000000000062c .L0 
     /tmp/cc7mt25p.s:957    .text:0000000000000630 .L0 
     /tmp/cc7mt25p.s:960    .text:0000000000000634 .L0 
     /tmp/cc7mt25p.s:963    .text:0000000000000638 .L0 
     /tmp/cc7mt25p.s:966    .text:000000000000063c .L0 
     /tmp/cc7mt25p.s:970    .text:0000000000000640 .L0 
     /tmp/cc7mt25p.s:974    .text:0000000000000640 .L0 
     /tmp/cc7mt25p.s:975    .text:0000000000000640 .L0 
     /tmp/cc7mt25p.s:980    .text:0000000000000650 .L0 
     /tmp/cc7mt25p.s:981    .text:0000000000000650 .L0 
     /tmp/cc7mt25p.s:985    .text:0000000000000660 .L0 
     /tmp/cc7mt25p.s:986    .text:0000000000000660 .L0 
     /tmp/cc7mt25p.s:990    .text:0000000000000670 .L0 
     /tmp/cc7mt25p.s:991    .text:0000000000000670 .L0 
     /tmp/cc7mt25p.s:995    .text:000000000000067c .L0 
     /tmp/cc7mt25p.s:996    .text:000000000000067c .L0 
     /tmp/cc7mt25p.s:1000   .text:000000000000068c .L0 
     /tmp/cc7mt25p.s:1001   .text:000000000000068c .L0 
     /tmp/cc7mt25p.s:1004   .text:0000000000000694 .L0 
     /tmp/cc7mt25p.s:1005   .text:0000000000000694 .L0 
     /tmp/cc7mt25p.s:1009   .text:000000000000069c .L0 
     /tmp/cc7mt25p.s:1015   .text:000000000000069c _ZN7IThread4exitEv
     /tmp/cc7mt25p.s:1018   .text:000000000000069c .L0 
     /tmp/cc7mt25p.s:1019   .text:000000000000069c .L0 
GAS LISTING /tmp/cc7mt25p.s 			page 41


     /tmp/cc7mt25p.s:1020   .text:00000000000006a0 .L0 
     /tmp/cc7mt25p.s:1024   .text:00000000000006ac .L0 
     /tmp/cc7mt25p.s:1025   .text:00000000000006ac .L0 
     /tmp/cc7mt25p.s:1026   .text:00000000000006ac .L0 
     /tmp/cc7mt25p.s:1028   .text:00000000000006b0 .L0 
     /tmp/cc7mt25p.s:1030   .text:00000000000006b0 .L0 
     /tmp/cc7mt25p.s:1031   .text:00000000000006b0 .L0 
     /tmp/cc7mt25p.s:1034   .text:00000000000006b8 .L0 
     /tmp/cc7mt25p.s:1039   .text:00000000000006bc .L0 
     /tmp/cc7mt25p.s:1045   .text:00000000000006c4 .L0 
     /tmp/cc7mt25p.s:1046   .text:00000000000006c4 .L0 
     /tmp/cc7mt25p.s:1052   .text:00000000000006cc .L0 
     /tmp/cc7mt25p.s:1057   .text:00000000000006d0 .L0 
     /tmp/cc7mt25p.s:1058   .text:00000000000006d0 .L0 
     /tmp/cc7mt25p.s:1059   .text:00000000000006d0 .L0 
     /tmp/cc7mt25p.s:1062   .text:00000000000006d8 .L0 
     /tmp/cc7mt25p.s:1063   .text:00000000000006d8 .L0 
     /tmp/cc7mt25p.s:1069   .text:00000000000006ec .L0 
     /tmp/cc7mt25p.s:1070   .text:00000000000006ec .L0 
     /tmp/cc7mt25p.s:1074   .text:00000000000006f8 .L0 
     /tmp/cc7mt25p.s:1075   .text:00000000000006f8 .L0 
     /tmp/cc7mt25p.s:1078   .text:0000000000000700 .L0 
     /tmp/cc7mt25p.s:1079   .text:0000000000000700 .L0 
     /tmp/cc7mt25p.s:1081   .text:0000000000000708 .L0 
     /tmp/cc7mt25p.s:1082   .text:0000000000000708 .L0 
     /tmp/cc7mt25p.s:1084   .text:000000000000070c .L0 
     /tmp/cc7mt25p.s:1085   .text:000000000000070c .L0 
     /tmp/cc7mt25p.s:1087   .text:0000000000000710 .L0 
     /tmp/cc7mt25p.s:1090   .text:0000000000000714 .L0 
     /tmp/cc7mt25p.s:1094   .text:0000000000000718 .L0 
     /tmp/cc7mt25p.s:1098   .text:0000000000000718 .L0 
     /tmp/cc7mt25p.s:1099   .text:0000000000000718 .L0 
     /tmp/cc7mt25p.s:1104   .text:0000000000000728 .L0 
     /tmp/cc7mt25p.s:1105   .text:0000000000000728 .L0 
     /tmp/cc7mt25p.s:1109   .text:0000000000000738 .L0 
     /tmp/cc7mt25p.s:1110   .text:0000000000000738 .L0 
     /tmp/cc7mt25p.s:1114   .text:0000000000000748 .L0 
     /tmp/cc7mt25p.s:1115   .text:0000000000000748 .L0 
     /tmp/cc7mt25p.s:1119   .text:0000000000000754 .L0 
     /tmp/cc7mt25p.s:1120   .text:0000000000000754 .L0 
     /tmp/cc7mt25p.s:1124   .text:0000000000000764 .L0 
     /tmp/cc7mt25p.s:1125   .text:0000000000000764 .L0 
     /tmp/cc7mt25p.s:1128   .text:000000000000076c .L0 
     /tmp/cc7mt25p.s:1129   .text:000000000000076c .L0 
     /tmp/cc7mt25p.s:1137   .text:0000000000000774 .L0 
     /tmp/cc7mt25p.s:1138   .text:0000000000000774 .L0 
     /tmp/cc7mt25p.s:1142   .text:0000000000000784 .L0 
     /tmp/cc7mt25p.s:1143   .text:0000000000000784 .L0 
     /tmp/cc7mt25p.s:1147   .text:0000000000000794 .L0 
     /tmp/cc7mt25p.s:1148   .text:0000000000000794 .L0 
     /tmp/cc7mt25p.s:1152   .text:00000000000007a4 .L0 
     /tmp/cc7mt25p.s:1153   .text:00000000000007a4 .L0 
     /tmp/cc7mt25p.s:1157   .text:00000000000007b0 .L0 
     /tmp/cc7mt25p.s:1158   .text:00000000000007b0 .L0 
     /tmp/cc7mt25p.s:1162   .text:00000000000007c0 .L0 
     /tmp/cc7mt25p.s:1163   .text:00000000000007c0 .L0 
     /tmp/cc7mt25p.s:1166   .text:00000000000007c8 .L0 
GAS LISTING /tmp/cc7mt25p.s 			page 42


     /tmp/cc7mt25p.s:1167   .text:00000000000007c8 .L0 
     /tmp/cc7mt25p.s:1171   .text:00000000000007d0 .L0 
     /tmp/cc7mt25p.s:1219   .bss:0000000000000330 _ZN7IThread20switchedToUserThreadE
     /tmp/cc7mt25p.s:1224   .bss:0000000000000338 _ZN7IThread22initialUserMemoryUsageE
     /tmp/cc7mt25p.s:1215   .bss:0000000000000010 _ZN7IThread11pAllThreadsE
     /tmp/cc7mt25p.s:1200   .data:0000000000000000 _ZN7IThread14nrTotalThreadsE
     /tmp/cc7mt25p.s:1211   .bss:0000000000000008 _ZN7IThread10pRunningSpE
     /tmp/cc7mt25p.s:1207   .bss:0000000000000000 _ZN7IThread8pRunningE
     /tmp/cc7mt25p.s:1228   .bss:0000000000000340 _ZN7IThread16timeSliceCounterE
     /tmp/cc7mt25p.s:1197   .data:0000000000000000 .LANCHOR1
     /tmp/cc7mt25p.s:1204   .bss:0000000000000000 .LANCHOR0
     /tmp/cc7mt25p.s:1236   .text:00000000000007d0 .L0 
     /tmp/cc7mt25p.s:118    .text:0000000000000088 .L0 
     /tmp/cc7mt25p.s:158    .text:00000000000000b8 .L0 
     /tmp/cc7mt25p.s:209    .text:00000000000000f0 .L0 
     /tmp/cc7mt25p.s:215    .text:0000000000000100 .L0 
     /tmp/cc7mt25p.s:170    .rodata.str1.8:0000000000000000 .LC0
     /tmp/cc7mt25p.s:284    .text:0000000000000154 .L0 
     /tmp/cc7mt25p.s:173    .rodata.str1.8:0000000000000028 .LC1
     /tmp/cc7mt25p.s:290    .text:0000000000000164 .L0 
     /tmp/cc7mt25p.s:176    .rodata.str1.8:0000000000000038 .LC2
     /tmp/cc7mt25p.s:295    .text:0000000000000174 .L0 
     /tmp/cc7mt25p.s:179    .rodata.str1.8:0000000000000048 .LC3
     /tmp/cc7mt25p.s:305    .text:0000000000000190 .L0 
     /tmp/cc7mt25p.s:359    .text:00000000000001d4 .L0 
     /tmp/cc7mt25p.s:377    .text:00000000000001e4 .L0 
     /tmp/cc7mt25p.s:384    .text:00000000000001f0 .L0 
     /tmp/cc7mt25p.s:393    .text:0000000000000204 .L0 
     /tmp/cc7mt25p.s:437    .text:0000000000000238 .L0 
     /tmp/cc7mt25p.s:442    .text:0000000000000248 .L0 
     /tmp/cc7mt25p.s:447    .text:0000000000000258 .L0 
     /tmp/cc7mt25p.s:457    .text:0000000000000274 .L0 
     /tmp/cc7mt25p.s:475    .text:0000000000000294 .L0 
     /tmp/cc7mt25p.s:480    .text:00000000000002a4 .L0 
     /tmp/cc7mt25p.s:485    .text:00000000000002b4 .L0 
     /tmp/cc7mt25p.s:495    .text:00000000000002d0 .L0 
     /tmp/cc7mt25p.s:513    .text:00000000000002f0 .L0 
     /tmp/cc7mt25p.s:518    .text:0000000000000300 .L0 
     /tmp/cc7mt25p.s:523    .text:0000000000000310 .L0 
     /tmp/cc7mt25p.s:533    .text:000000000000032c .L0 
     /tmp/cc7mt25p.s:632    .text:00000000000003bc .L0 
     /tmp/cc7mt25p.s:638    .text:00000000000003cc .L0 
     /tmp/cc7mt25p.s:643    .text:00000000000003dc .L0 
     /tmp/cc7mt25p.s:653    .text:00000000000003f8 .L0 
     /tmp/cc7mt25p.s:686    .text:0000000000000428 .L0 
     /tmp/cc7mt25p.s:699    .text:0000000000000438 .L0 
     /tmp/cc7mt25p.s:761    .text:0000000000000490 .L0 
     /tmp/cc7mt25p.s:767    .text:00000000000004a0 .L0 
     /tmp/cc7mt25p.s:772    .text:00000000000004b0 .L0 
     /tmp/cc7mt25p.s:782    .text:00000000000004cc .L0 
     /tmp/cc7mt25p.s:800    .text:00000000000004ec .L0 
     /tmp/cc7mt25p.s:806    .text:00000000000004fc .L0 
     /tmp/cc7mt25p.s:811    .text:000000000000050c .L0 
     /tmp/cc7mt25p.s:821    .text:0000000000000528 .L0 
     /tmp/cc7mt25p.s:843    .text:0000000000000550 .L0 
     /tmp/cc7mt25p.s:887    .text:0000000000000594 .L0 
     /tmp/cc7mt25p.s:912    .text:00000000000005c8 .L0 
GAS LISTING /tmp/cc7mt25p.s 			page 43


     /tmp/cc7mt25p.s:914    .text:00000000000005d4 .L0 
     /tmp/cc7mt25p.s:975    .text:0000000000000640 .L0 
     /tmp/cc7mt25p.s:981    .text:0000000000000650 .L0 
     /tmp/cc7mt25p.s:986    .text:0000000000000660 .L0 
     /tmp/cc7mt25p.s:996    .text:000000000000067c .L0 
     /tmp/cc7mt25p.s:1099   .text:0000000000000718 .L0 
     /tmp/cc7mt25p.s:1105   .text:0000000000000728 .L0 
     /tmp/cc7mt25p.s:1110   .text:0000000000000738 .L0 
     /tmp/cc7mt25p.s:1120   .text:0000000000000754 .L0 
     /tmp/cc7mt25p.s:1138   .text:0000000000000774 .L0 
     /tmp/cc7mt25p.s:1143   .text:0000000000000784 .L0 
     /tmp/cc7mt25p.s:1148   .text:0000000000000794 .L0 
     /tmp/cc7mt25p.s:1158   .text:00000000000007b0 .L0 
     /tmp/cc7mt25p.s:86     .text:0000000000000068 .L3
     /tmp/cc7mt25p.s:67     .text:0000000000000048 .L5
     /tmp/cc7mt25p.s:278    .text:0000000000000154 .L17
     /tmp/cc7mt25p.s:264    .text:0000000000000140 .L11
     /tmp/cc7mt25p.s:316    .text:00000000000001b0 .L18
     /tmp/cc7mt25p.s:238    .text:000000000000011c .L14
     /tmp/cc7mt25p.s:250    .text:000000000000012c .L15
     /tmp/cc7mt25p.s:429    .text:0000000000000238 .L25
     /tmp/cc7mt25p.s:468    .text:0000000000000294 .L26
     /tmp/cc7mt25p.s:394    .text:000000000000020c .L22
     /tmp/cc7mt25p.s:506    .text:00000000000002f0 .L27
     /tmp/cc7mt25p.s:626    .text:00000000000003bc .L32
     /tmp/cc7mt25p.s:605    .text:00000000000003a0 .L30
     /tmp/cc7mt25p.s:755    .text:0000000000000490 .L39
     /tmp/cc7mt25p.s:793    .text:00000000000004ec .L40
     /tmp/cc7mt25p.s:832    .text:0000000000000548 .L36
     /tmp/cc7mt25p.s:740    .text:0000000000000474 .L37
     /tmp/cc7mt25p.s:969    .text:0000000000000640 .L44
     /tmp/cc7mt25p.s:1093   .text:0000000000000718 .L49
     /tmp/cc7mt25p.s:1131   .text:0000000000000774 .L50
     /tmp/cc7mt25p.s:3456   .debug_abbrev:0000000000000000 .Ldebug_abbrev0
     /tmp/cc7mt25p.s:5852   .debug_str:0000000000000728 .LASF132
     /tmp/cc7mt25p.s:5646   .debug_str:0000000000000100 .LASF133
     /tmp/cc7mt25p.s:5808   .debug_str:0000000000000603 .LASF134
     /tmp/cc7mt25p.s:5      .text:0000000000000000 .Ltext0
     /tmp/cc7mt25p.s:1231   .text:00000000000007d0 .Letext0
     /tmp/cc7mt25p.s:5614   .debug_line:0000000000000000 .Ldebug_line0
     /tmp/cc7mt25p.s:5762   .debug_str:00000000000004ae .LASF0
     /tmp/cc7mt25p.s:5780   .debug_str:0000000000000548 .LASF1
     /tmp/cc7mt25p.s:5744   .debug_str:0000000000000425 .LASF2
     /tmp/cc7mt25p.s:5718   .debug_str:0000000000000389 .LASF4
     /tmp/cc7mt25p.s:5830   .debug_str:00000000000006a1 .LASF3
     /tmp/cc7mt25p.s:5640   .debug_str:00000000000000ce .LASF5
     /tmp/cc7mt25p.s:5674   .debug_str:000000000000020c .LASF6
     /tmp/cc7mt25p.s:5784   .debug_str:0000000000000560 .LASF7
     /tmp/cc7mt25p.s:5760   .debug_str:000000000000049b .LASF8
     /tmp/cc7mt25p.s:5868   .debug_str:000000000000086c .LASF9
     /tmp/cc7mt25p.s:5702   .debug_str:0000000000000319 .LASF10
     /tmp/cc7mt25p.s:5802   .debug_str:00000000000005de .LASF11
     /tmp/cc7mt25p.s:5854   .debug_str:00000000000007ec .LASF12
     /tmp/cc7mt25p.s:5642   .debug_str:00000000000000d5 .LASF13
     /tmp/cc7mt25p.s:5624   .debug_str:000000000000005b .LASF14
     /tmp/cc7mt25p.s:5654   .debug_str:000000000000014f .LASF15
     /tmp/cc7mt25p.s:5822   .debug_str:0000000000000650 .LASF16
GAS LISTING /tmp/cc7mt25p.s 			page 44


     /tmp/cc7mt25p.s:5666   .debug_str:000000000000019e .LASF17
     /tmp/cc7mt25p.s:5658   .debug_str:000000000000017b .LASF49
     /tmp/cc7mt25p.s:5706   .debug_str:000000000000032d .LASF135
     /tmp/cc7mt25p.s:5792   .debug_str:00000000000005aa .LASF18
     /tmp/cc7mt25p.s:5754   .debug_str:0000000000000462 .LASF19
     /tmp/cc7mt25p.s:5800   .debug_str:00000000000005d8 .LASF20
     /tmp/cc7mt25p.s:5752   .debug_str:0000000000000455 .LASF21
     /tmp/cc7mt25p.s:5736   .debug_str:00000000000003e4 .LASF22
     /tmp/cc7mt25p.s:5790   .debug_str:000000000000059e .LASF23
     /tmp/cc7mt25p.s:5890   .debug_str:000000000000090c .LASF24
     /tmp/cc7mt25p.s:5832   .debug_str:00000000000006b3 .LASF25
     /tmp/cc7mt25p.s:5776   .debug_str:0000000000000522 .LASF26
     /tmp/cc7mt25p.s:5848   .debug_str:0000000000000711 .LASF27
     /tmp/cc7mt25p.s:5716   .debug_str:000000000000037d .LASF28
     /tmp/cc7mt25p.s:5686   .debug_str:000000000000026e .LASF29
     /tmp/cc7mt25p.s:5618   .debug_str:0000000000000006 .LASF30
     /tmp/cc7mt25p.s:5850   .debug_str:000000000000071c .LASF31
     /tmp/cc7mt25p.s:5768   .debug_str:00000000000004dc .LASF33
     /tmp/cc7mt25p.s:5798   .debug_str:00000000000005cc .LASF35
     /tmp/cc7mt25p.s:5692   .debug_str:000000000000029e .LASF37
     /tmp/cc7mt25p.s:5728   .debug_str:00000000000003b0 .LASF48
     /tmp/cc7mt25p.s:5788   .debug_str:0000000000000578 .LASF50
     /tmp/cc7mt25p.s:5816   .debug_str:000000000000063e .LASF136
     /tmp/cc7mt25p.s:5738   .debug_str:00000000000003f0 .LASF32
     /tmp/cc7mt25p.s:5632   .debug_str:0000000000000090 .LASF34
     /tmp/cc7mt25p.s:5896   .debug_str:0000000000000928 .LASF87
     /tmp/cc7mt25p.s:5774   .debug_str:0000000000000506 .LASF89
     /tmp/cc7mt25p.s:5834   .debug_str:00000000000006c4 .LASF36
     /tmp/cc7mt25p.s:5630   .debug_str:000000000000007d .LASF38
     /tmp/cc7mt25p.s:5636   .debug_str:00000000000000bd .LASF39
     /tmp/cc7mt25p.s:5722   .debug_str:000000000000039b .LASF40
     /tmp/cc7mt25p.s:5770   .debug_str:00000000000004f7 .LASF41
     /tmp/cc7mt25p.s:5892   .debug_str:0000000000000917 .LASF42
     /tmp/cc7mt25p.s:5772   .debug_str:00000000000004fc .LASF43
     /tmp/cc7mt25p.s:5704   .debug_str:0000000000000327 .LASF44
     /tmp/cc7mt25p.s:5874   .debug_str:0000000000000891 .LASF45
     /tmp/cc7mt25p.s:5748   .debug_str:000000000000043c .LASF46
     /tmp/cc7mt25p.s:5694   .debug_str:00000000000002bb .LASF47
     /tmp/cc7mt25p.s:5764   .debug_str:00000000000004bb .LASF51
     /tmp/cc7mt25p.s:5794   .debug_str:00000000000005b2 .LASF52
     /tmp/cc7mt25p.s:5894   .debug_str:0000000000000923 .LASF53
     /tmp/cc7mt25p.s:5876   .debug_str:000000000000089e .LASF54
     /tmp/cc7mt25p.s:5626   .debug_str:000000000000006b .LASF69
     /tmp/cc7mt25p.s:5824   .debug_str:0000000000000666 .LASF71
     /tmp/cc7mt25p.s:5678   .debug_str:000000000000022d .LASF55
     /tmp/cc7mt25p.s:5676   .debug_str:0000000000000213 .LASF56
     /tmp/cc7mt25p.s:5644   .debug_str:00000000000000e5 .LASF57
     /tmp/cc7mt25p.s:5806   .debug_str:00000000000005fa .LASF58
     /tmp/cc7mt25p.s:5688   .debug_str:000000000000027d .LASF59
     /tmp/cc7mt25p.s:5746   .debug_str:0000000000000433 .LASF60
     /tmp/cc7mt25p.s:5700   .debug_str:0000000000000306 .LASF83
     /tmp/cc7mt25p.s:5838   .debug_str:00000000000006d9 .LASF64
     /tmp/cc7mt25p.s:5844   .debug_str:0000000000000706 .LASF61
     /tmp/cc7mt25p.s:5880   .debug_str:00000000000008c5 .LASF62
     /tmp/cc7mt25p.s:5620   .debug_str:000000000000001d .LASF66
     /tmp/cc7mt25p.s:5758   .debug_str:0000000000000491 .LASF63
     /tmp/cc7mt25p.s:5714   .debug_str:0000000000000373 .LASF65
GAS LISTING /tmp/cc7mt25p.s 			page 45


     /tmp/cc7mt25p.s:5740   .debug_str:00000000000003f5 .LASF67
     /tmp/cc7mt25p.s:5870   .debug_str:000000000000087c .LASF68
     /tmp/cc7mt25p.s:5878   .debug_str:00000000000008bc .LASF70
     /tmp/cc7mt25p.s:5650   .debug_str:000000000000011f .LASF72
     /tmp/cc7mt25p.s:5726   .debug_str:00000000000003a8 .LASF73
     /tmp/cc7mt25p.s:5708   .debug_str:0000000000000333 .LASF74
     /tmp/cc7mt25p.s:5862   .debug_str:000000000000083a .LASF75
     /tmp/cc7mt25p.s:5622   .debug_str:000000000000003a .LASF76
     /tmp/cc7mt25p.s:5884   .debug_str:00000000000008cf .LASF77
     /tmp/cc7mt25p.s:5886   .debug_str:00000000000008e2 .LASF78
     /tmp/cc7mt25p.s:5734   .debug_str:00000000000003d6 .LASF79
     /tmp/cc7mt25p.s:5778   .debug_str:0000000000000537 .LASF80
     /tmp/cc7mt25p.s:5786   .debug_str:0000000000000573 .LASF81
     /tmp/cc7mt25p.s:5796   .debug_str:00000000000005c2 .LASF82
     /tmp/cc7mt25p.s:5710   .debug_str:000000000000034b .LASF84
     /tmp/cc7mt25p.s:5846   .debug_str:000000000000070b .LASF85
     /tmp/cc7mt25p.s:5672   .debug_str:00000000000001f6 .LASF86
     /tmp/cc7mt25p.s:5810   .debug_str:0000000000000617 .LASF88
     /tmp/cc7mt25p.s:5656   .debug_str:000000000000015b .LASF90
     /tmp/cc7mt25p.s:5750   .debug_str:0000000000000441 .LASF91
     /tmp/cc7mt25p.s:5668   .debug_str:00000000000001b4 .LASF92
     /tmp/cc7mt25p.s:5724   .debug_str:00000000000003a0 .LASF93
     /tmp/cc7mt25p.s:5652   .debug_str:0000000000000137 .LASF94
     /tmp/cc7mt25p.s:5690   .debug_str:0000000000000282 .LASF137
     /tmp/cc7mt25p.s:5638   .debug_str:00000000000000c3 .LASF95
     /tmp/cc7mt25p.s:5840   .debug_str:00000000000006e2 .LASF96
     /tmp/cc7mt25p.s:5812   .debug_str:0000000000000626 .LASF97
     /tmp/cc7mt25p.s:5742   .debug_str:0000000000000413 .LASF98
     /tmp/cc7mt25p.s:5856   .debug_str:00000000000007fb .LASF99
     /tmp/cc7mt25p.s:5826   .debug_str:0000000000000680 .LASF100
     /tmp/cc7mt25p.s:5696   .debug_str:00000000000002ca .LASF101
     /tmp/cc7mt25p.s:5670   .debug_str:00000000000001d9 .LASF102
     /tmp/cc7mt25p.s:5634   .debug_str:00000000000000a3 .LASF103
     /tmp/cc7mt25p.s:5756   .debug_str:000000000000046c .LASF104
     /tmp/cc7mt25p.s:5698   .debug_str:00000000000002e3 .LASF105
     /tmp/cc7mt25p.s:1016   .text:000000000000069c .LFB23
     /tmp/cc7mt25p.s:1172   .text:00000000000007d0 .LFE23
     /tmp/cc7mt25p.s:4562   .debug_loc:0000000000000000 .LLST50
     /tmp/cc7mt25p.s:1036   .text:00000000000006bc .LBB81
     /tmp/cc7mt25p.s:5558   .debug_ranges:0000000000000000 .Ldebug_ranges0
     /tmp/cc7mt25p.s:4581   .debug_loc:000000000000005c .LLST51
     /tmp/cc7mt25p.s:4596   .debug_loc:0000000000000096 .LLST52
     /tmp/cc7mt25p.s:4611   .debug_loc:00000000000000de .LLST53
     /tmp/cc7mt25p.s:1102   .text:0000000000000728 .LVL143
     /tmp/cc7mt25p.s:1107   .text:0000000000000738 .LVL144
     /tmp/cc7mt25p.s:1112   .text:0000000000000748 .LVL145
     /tmp/cc7mt25p.s:1117   .text:0000000000000754 .LVL146
     /tmp/cc7mt25p.s:1122   .text:0000000000000764 .LVL147
     /tmp/cc7mt25p.s:1126   .text:000000000000076c .LVL148
     /tmp/cc7mt25p.s:1130   .text:0000000000000774 .LVL149
     /tmp/cc7mt25p.s:1049   .text:00000000000006cc .LBB84
     /tmp/cc7mt25p.s:4630   .debug_loc:000000000000011c .LLST54
     /tmp/cc7mt25p.s:4645   .debug_loc:0000000000000156 .LLST55
     /tmp/cc7mt25p.s:4660   .debug_loc:000000000000019e .LLST56
     /tmp/cc7mt25p.s:1140   .text:0000000000000784 .LVL150
     /tmp/cc7mt25p.s:1145   .text:0000000000000794 .LVL151
     /tmp/cc7mt25p.s:1150   .text:00000000000007a4 .LVL152
GAS LISTING /tmp/cc7mt25p.s 			page 46


     /tmp/cc7mt25p.s:1155   .text:00000000000007b0 .LVL153
     /tmp/cc7mt25p.s:1160   .text:00000000000007c0 .LVL154
     /tmp/cc7mt25p.s:1164   .text:00000000000007c8 .LVL155
     /tmp/cc7mt25p.s:1168   .text:00000000000007d0 .LVL156
     /tmp/cc7mt25p.s:1032   .text:00000000000006b8 .LVL131
     /tmp/cc7mt25p.s:1064   .text:00000000000006e0 .LVL136
     /tmp/cc7mt25p.s:1067   .text:00000000000006ec .LVL137
     /tmp/cc7mt25p.s:1072   .text:00000000000006f8 .LVL138
     /tmp/cc7mt25p.s:1076   .text:0000000000000700 .LVL139
     /tmp/cc7mt25p.s:673    .text:0000000000000418 .LFB22
     /tmp/cc7mt25p.s:860    .text:0000000000000574 .LFE22
     /tmp/cc7mt25p.s:5882   .debug_str:00000000000008ca .LASF110
     /tmp/cc7mt25p.s:4671   .debug_loc:00000000000001d4 .LLST31
     /tmp/cc7mt25p.s:4700   .debug_loc:0000000000000249 .LLST32
     /tmp/cc7mt25p.s:4729   .debug_loc:00000000000002be .LLST33
     /tmp/cc7mt25p.s:5730   .debug_str:00000000000003bd .LASF106
     /tmp/cc7mt25p.s:4758   .debug_loc:0000000000000333 .LLST34
     /tmp/cc7mt25p.s:736    .text:0000000000000470 .LBB68
     /tmp/cc7mt25p.s:756    .text:0000000000000490 .LBE68
     /tmp/cc7mt25p.s:4787   .debug_loc:00000000000003a8 .LLST41
     /tmp/cc7mt25p.s:689    .text:0000000000000434 .LBB62
     /tmp/cc7mt25p.s:4803   .debug_loc:00000000000003f2 .LLST35
     /tmp/cc7mt25p.s:4818   .debug_loc:000000000000042c .LLST36
     /tmp/cc7mt25p.s:4833   .debug_loc:0000000000000474 .LLST37
     /tmp/cc7mt25p.s:764    .text:00000000000004a0 .LVL91
     /tmp/cc7mt25p.s:769    .text:00000000000004b0 .LVL92
     /tmp/cc7mt25p.s:774    .text:00000000000004c0 .LVL93
     /tmp/cc7mt25p.s:779    .text:00000000000004cc .LVL94
     /tmp/cc7mt25p.s:784    .text:00000000000004dc .LVL95
     /tmp/cc7mt25p.s:788    .text:00000000000004e4 .LVL96
     /tmp/cc7mt25p.s:792    .text:00000000000004ec .LVL97
     /tmp/cc7mt25p.s:709    .text:0000000000000454 .LBB65
     /tmp/cc7mt25p.s:4860   .debug_loc:00000000000004ec .LLST38
     /tmp/cc7mt25p.s:4875   .debug_loc:0000000000000526 .LLST39
     /tmp/cc7mt25p.s:4890   .debug_loc:000000000000056e .LLST40
     /tmp/cc7mt25p.s:803    .text:00000000000004fc .LVL99
     /tmp/cc7mt25p.s:808    .text:000000000000050c .LVL100
     /tmp/cc7mt25p.s:813    .text:000000000000051c .LVL101
     /tmp/cc7mt25p.s:818    .text:0000000000000528 .LVL102
     /tmp/cc7mt25p.s:823    .text:0000000000000538 .LVL103
     /tmp/cc7mt25p.s:827    .text:0000000000000540 .LVL104
     /tmp/cc7mt25p.s:831    .text:0000000000000548 .LVL105
     /tmp/cc7mt25p.s:5842   .debug_str:00000000000006fe .LASF107
     /tmp/cc7mt25p.s:5712   .debug_str:000000000000035f .LASF108
     /tmp/cc7mt25p.s:10     .text:0000000000000000 .LFB21
     /tmp/cc7mt25p.s:43     .text:0000000000000030 .LFE21
     /tmp/cc7mt25p.s:5804   .debug_str:00000000000005ed .LASF109
     /tmp/cc7mt25p.s:4920   .debug_loc:00000000000005c6 .LLST0
     /tmp/cc7mt25p.s:4934   .debug_loc:00000000000005ff .LLST1
     /tmp/cc7mt25p.s:4948   .debug_loc:0000000000000638 .LLST2
     /tmp/cc7mt25p.s:28     .text:0000000000000018 .LVL2
     /tmp/cc7mt25p.s:32     .text:0000000000000020 .LVL3
     /tmp/cc7mt25p.s:553    .text:000000000000034c .LFB20
     /tmp/cc7mt25p.s:667    .text:0000000000000418 .LFE20
     /tmp/cc7mt25p.s:4962   .debug_loc:0000000000000671 .LLST26
     /tmp/cc7mt25p.s:5660   .debug_str:0000000000000183 .LASF111
     /tmp/cc7mt25p.s:4991   .debug_loc:00000000000006e6 .LLST27
GAS LISTING /tmp/cc7mt25p.s 			page 47


     /tmp/cc7mt25p.s:572    .text:0000000000000368 .LBB53
     /tmp/cc7mt25p.s:5008   .debug_loc:0000000000000732 .LLST28
     /tmp/cc7mt25p.s:5023   .debug_loc:000000000000076c .LLST29
     /tmp/cc7mt25p.s:5038   .debug_loc:00000000000007b4 .LLST30
     /tmp/cc7mt25p.s:635    .text:00000000000003cc .LVL74
     /tmp/cc7mt25p.s:640    .text:00000000000003dc .LVL75
     /tmp/cc7mt25p.s:645    .text:00000000000003ec .LVL76
     /tmp/cc7mt25p.s:650    .text:00000000000003f8 .LVL77
     /tmp/cc7mt25p.s:655    .text:0000000000000408 .LVL78
     /tmp/cc7mt25p.s:659    .text:0000000000000410 .LVL79
     /tmp/cc7mt25p.s:663    .text:0000000000000418 .LVL80
     /tmp/cc7mt25p.s:584    .text:0000000000000378 .LVL66
     /tmp/cc7mt25p.s:588    .text:0000000000000388 .LVL67
     /tmp/cc7mt25p.s:140    .text:00000000000000a8 .LFB19
     /tmp/cc7mt25p.s:166    .text:00000000000000cc .LFE19
     /tmp/cc7mt25p.s:866    .text:0000000000000574 .LFB18
     /tmp/cc7mt25p.s:1010   .text:000000000000069c .LFE18
     /tmp/cc7mt25p.s:5057   .debug_loc:00000000000007f2 .LLST42
     /tmp/cc7mt25p.s:5086   .debug_loc:0000000000000867 .LLST43
     /tmp/cc7mt25p.s:5115   .debug_loc:00000000000008dc .LLST44
     /tmp/cc7mt25p.s:5144   .debug_loc:0000000000000951 .LLST45
     /tmp/cc7mt25p.s:5151   .debug_loc:0000000000000974 .LLST46
     /tmp/cc7mt25p.s:890    .text:00000000000005a0 .LBB73
     /tmp/cc7mt25p.s:5162   .debug_loc:00000000000009aa .LLST47
     /tmp/cc7mt25p.s:5177   .debug_loc:00000000000009e4 .LLST48
     /tmp/cc7mt25p.s:5192   .debug_loc:0000000000000a2c .LLST49
     /tmp/cc7mt25p.s:978    .text:0000000000000650 .LVL124
     /tmp/cc7mt25p.s:983    .text:0000000000000660 .LVL125
     /tmp/cc7mt25p.s:988    .text:0000000000000670 .LVL126
     /tmp/cc7mt25p.s:993    .text:000000000000067c .LVL127
     /tmp/cc7mt25p.s:998    .text:000000000000068c .LVL128
     /tmp/cc7mt25p.s:1002   .text:0000000000000694 .LVL129
     /tmp/cc7mt25p.s:1006   .text:000000000000069c .LVL130
     /tmp/cc7mt25p.s:904    .text:00000000000005b8 .LVL110
     /tmp/cc7mt25p.s:907    .text:00000000000005c4 .LVL111
     /tmp/cc7mt25p.s:923    .text:00000000000005f0 .LVL113
     /tmp/cc7mt25p.s:933    .text:0000000000000608 .LVL116
     /tmp/cc7mt25p.s:943    .text:000000000000061c .LVL117
     /tmp/cc7mt25p.s:106    .text:000000000000007c .LFB17
     /tmp/cc7mt25p.s:134    .text:00000000000000a8 .LFE17
     /tmp/cc7mt25p.s:5219   .debug_loc:0000000000000aa4 .LLST5
     /tmp/cc7mt25p.s:332    .text:00000000000001b8 .LFB16
     /tmp/cc7mt25p.s:547    .text:000000000000034c .LFE16
     /tmp/cc7mt25p.s:5628   .debug_str:0000000000000076 .LASF112
     /tmp/cc7mt25p.s:5231   .debug_loc:0000000000000ae2 .LLST13
     /tmp/cc7mt25p.s:5858   .debug_str:000000000000081a .LASF113
     /tmp/cc7mt25p.s:5238   .debug_loc:0000000000000b05 .LLST14
     /tmp/cc7mt25p.s:5257   .debug_loc:0000000000000b43 .LLST15
     /tmp/cc7mt25p.s:363    .text:00000000000001e0 .LBB36
     /tmp/cc7mt25p.s:5272   .debug_loc:0000000000000b8b .LLST16
     /tmp/cc7mt25p.s:5287   .debug_loc:0000000000000bc5 .LLST17
     /tmp/cc7mt25p.s:5302   .debug_loc:0000000000000c0d .LLST18
     /tmp/cc7mt25p.s:477    .text:00000000000002a4 .LVL49
     /tmp/cc7mt25p.s:482    .text:00000000000002b4 .LVL50
     /tmp/cc7mt25p.s:487    .text:00000000000002c4 .LVL51
     /tmp/cc7mt25p.s:492    .text:00000000000002d0 .LVL52
     /tmp/cc7mt25p.s:497    .text:00000000000002e0 .LVL53
GAS LISTING /tmp/cc7mt25p.s 			page 48


     /tmp/cc7mt25p.s:501    .text:00000000000002e8 .LVL54
     /tmp/cc7mt25p.s:505    .text:00000000000002f0 .LVL55
     /tmp/cc7mt25p.s:372    .text:00000000000001e4 .LBB39
     /tmp/cc7mt25p.s:398    .text:000000000000020c .LBE39
     /tmp/cc7mt25p.s:380    .text:00000000000001f0 .LBB41
     /tmp/cc7mt25p.s:390    .text:0000000000000200 .LBE41
     /tmp/cc7mt25p.s:5321   .debug_loc:0000000000000c4b .LLST19
     /tmp/cc7mt25p.s:412    .text:0000000000000224 .LBB44
     /tmp/cc7mt25p.s:5330   .debug_loc:0000000000000c77 .LLST20
     /tmp/cc7mt25p.s:5345   .debug_loc:0000000000000cb1 .LLST21
     /tmp/cc7mt25p.s:5360   .debug_loc:0000000000000cf9 .LLST22
     /tmp/cc7mt25p.s:515    .text:0000000000000300 .LVL56
     /tmp/cc7mt25p.s:520    .text:0000000000000310 .LVL57
     /tmp/cc7mt25p.s:525    .text:0000000000000320 .LVL58
     /tmp/cc7mt25p.s:530    .text:000000000000032c .LVL59
     /tmp/cc7mt25p.s:535    .text:000000000000033c .LVL60
     /tmp/cc7mt25p.s:539    .text:0000000000000344 .LVL61
     /tmp/cc7mt25p.s:543    .text:000000000000034c .LVL62
     /tmp/cc7mt25p.s:432    .text:0000000000000238 .LBB47
     /tmp/cc7mt25p.s:470    .text:0000000000000294 .LBE47
     /tmp/cc7mt25p.s:5379   .debug_loc:0000000000000d37 .LLST23
     /tmp/cc7mt25p.s:5388   .debug_loc:0000000000000d5c .LLST24
     /tmp/cc7mt25p.s:5397   .debug_loc:0000000000000d88 .LLST25
     /tmp/cc7mt25p.s:439    .text:0000000000000248 .LVL42
     /tmp/cc7mt25p.s:444    .text:0000000000000258 .LVL43
     /tmp/cc7mt25p.s:449    .text:0000000000000268 .LVL44
     /tmp/cc7mt25p.s:454    .text:0000000000000274 .LVL45
     /tmp/cc7mt25p.s:459    .text:0000000000000284 .LVL46
     /tmp/cc7mt25p.s:463    .text:000000000000028c .LVL47
     /tmp/cc7mt25p.s:467    .text:0000000000000294 .LVL48
     /tmp/cc7mt25p.s:405    .text:0000000000000214 .LVL38
     /tmp/cc7mt25p.s:408    .text:000000000000021c .LVL39
     /tmp/cc7mt25p.s:186    .text:00000000000000cc .LFB15
     /tmp/cc7mt25p.s:326    .text:00000000000001b8 .LFE15
     /tmp/cc7mt25p.s:5405   .debug_loc:0000000000000dac .LLST6
     /tmp/cc7mt25p.s:5682   .debug_str:0000000000000257 .LASF114
     /tmp/cc7mt25p.s:5423   .debug_loc:0000000000000df8 .LLST7
     /tmp/cc7mt25p.s:5438   .debug_loc:0000000000000e41 .LLST8
     /tmp/cc7mt25p.s:5860   .debug_str:000000000000082d .LASF115
     /tmp/cc7mt25p.s:239    .text:000000000000011c .LBB18
     /tmp/cc7mt25p.s:251    .text:000000000000012c .LBE18
     /tmp/cc7mt25p.s:5782   .debug_str:000000000000055b .LASF116
     /tmp/cc7mt25p.s:5458   .debug_loc:0000000000000e9e .LLST12
     /tmp/cc7mt25p.s:217    .text:0000000000000108 .LBB14
     /tmp/cc7mt25p.s:5469   .debug_loc:0000000000000ed4 .LLST9
     /tmp/cc7mt25p.s:5484   .debug_loc:0000000000000f0e .LLST10
     /tmp/cc7mt25p.s:5499   .debug_loc:0000000000000f56 .LLST11
     /tmp/cc7mt25p.s:287    .text:0000000000000164 .LVL23
     /tmp/cc7mt25p.s:292    .text:0000000000000174 .LVL24
     /tmp/cc7mt25p.s:297    .text:0000000000000184 .LVL25
     /tmp/cc7mt25p.s:302    .text:0000000000000190 .LVL26
     /tmp/cc7mt25p.s:307    .text:00000000000001a0 .LVL27
     /tmp/cc7mt25p.s:311    .text:00000000000001a8 .LVL28
     /tmp/cc7mt25p.s:315    .text:00000000000001b0 .LVL29
     /tmp/cc7mt25p.s:204    .text:00000000000000ec .LVL12
     /tmp/cc7mt25p.s:263    .text:0000000000000140 .LVL20
     /tmp/cc7mt25p.s:49     .text:0000000000000030 .LFB14
GAS LISTING /tmp/cc7mt25p.s 			page 49


     /tmp/cc7mt25p.s:100    .text:000000000000007c .LFE14
     /tmp/cc7mt25p.s:5524   .debug_loc:0000000000000f9a .LLST3
     /tmp/cc7mt25p.s:5538   .debug_loc:0000000000000fd3 .LLST4
     /tmp/cc7mt25p.s:79     .text:0000000000000060 .LVL6
     /tmp/cc7mt25p.s:5814   .debug_str:000000000000062c .LASF138
     /tmp/cc7mt25p.s:5766   .debug_str:00000000000004d3 .LASF139
     /tmp/cc7mt25p.s:5680   .debug_str:0000000000000238 .LASF140
     /tmp/cc7mt25p.s:5820   .debug_str:0000000000000648 .LASF117
     /tmp/cc7mt25p.s:5664   .debug_str:000000000000018e .LASF118
     /tmp/cc7mt25p.s:5616   .debug_str:0000000000000000 .LASF119
     /tmp/cc7mt25p.s:5662   .debug_str:0000000000000189 .LASF120
     /tmp/cc7mt25p.s:5818   .debug_str:0000000000000643 .LASF121
     /tmp/cc7mt25p.s:5648   .debug_str:000000000000010f .LASF122
     /tmp/cc7mt25p.s:5872   .debug_str:0000000000000887 .LASF124
     /tmp/cc7mt25p.s:5720   .debug_str:0000000000000390 .LASF123
     /tmp/cc7mt25p.s:5888   .debug_str:0000000000000905 .LASF125
     /tmp/cc7mt25p.s:5836   .debug_str:00000000000006c9 .LASF126
     /tmp/cc7mt25p.s:5828   .debug_str:0000000000000696 .LASF127
     /tmp/cc7mt25p.s:5864   .debug_str:000000000000084b .LASF128
     /tmp/cc7mt25p.s:5732   .debug_str:00000000000003cb .LASF129
     /tmp/cc7mt25p.s:5866   .debug_str:000000000000085b .LASF130
     /tmp/cc7mt25p.s:5684   .debug_str:0000000000000262 .LASF131
     /tmp/cc7mt25p.s:1088   .text:0000000000000710 .LVL140
     /tmp/cc7mt25p.s:1092   .text:0000000000000718 .LVL141
     /tmp/cc7mt25p.s:1100   .text:0000000000000720 .LVL142
     /tmp/cc7mt25p.s:1035   .text:00000000000006bc .LVL132
     /tmp/cc7mt25p.s:1042   .text:00000000000006c4 .LVL133
     /tmp/cc7mt25p.s:1048   .text:00000000000006cc .LVL134
     /tmp/cc7mt25p.s:1054   .text:00000000000006d0 .LVL135
     /tmp/cc7mt25p.s:676    .text:0000000000000418 .LVL81
     /tmp/cc7mt25p.s:762    .text:0000000000000498 .LVL90
     /tmp/cc7mt25p.s:801    .text:00000000000004f4 .LVL98
     /tmp/cc7mt25p.s:735    .text:0000000000000470 .LVL86
     /tmp/cc7mt25p.s:739    .text:0000000000000474 .LVL87
     /tmp/cc7mt25p.s:752    .text:000000000000048c .LVL88
     /tmp/cc7mt25p.s:844    .text:0000000000000558 .LVL106
     /tmp/cc7mt25p.s:688    .text:0000000000000434 .LVL82
     /tmp/cc7mt25p.s:694    .text:0000000000000438 .LVL83
     /tmp/cc7mt25p.s:754    .text:0000000000000490 .LVL89
     /tmp/cc7mt25p.s:708    .text:0000000000000454 .LVL84
     /tmp/cc7mt25p.s:714    .text:0000000000000458 .LVL85
     /tmp/cc7mt25p.s:14     .text:0000000000000000 .LVL0
     /tmp/cc7mt25p.s:26     .text:0000000000000014 .LVL1
     /tmp/cc7mt25p.s:556    .text:000000000000034c .LVL63
     /tmp/cc7mt25p.s:621    .text:00000000000003b4 .LVL71
     /tmp/cc7mt25p.s:625    .text:00000000000003bc .LVL72
     /tmp/cc7mt25p.s:633    .text:00000000000003c4 .LVL73
     /tmp/cc7mt25p.s:595    .text:0000000000000394 .LVL68
     /tmp/cc7mt25p.s:604    .text:00000000000003a0 .LVL69
     /tmp/cc7mt25p.s:610    .text:00000000000003a4 .LVL70
     /tmp/cc7mt25p.s:571    .text:0000000000000368 .LVL64
     /tmp/cc7mt25p.s:578    .text:0000000000000370 .LVL65
     /tmp/cc7mt25p.s:869    .text:0000000000000574 .LVL107
     /tmp/cc7mt25p.s:958    .text:0000000000000630 .LVL119
     /tmp/cc7mt25p.s:968    .text:0000000000000640 .LVL122
     /tmp/cc7mt25p.s:976    .text:0000000000000648 .LVL123
     /tmp/cc7mt25p.s:961    .text:0000000000000634 .LVL120
GAS LISTING /tmp/cc7mt25p.s 			page 50


     /tmp/cc7mt25p.s:964    .text:0000000000000638 .LVL121
     /tmp/cc7mt25p.s:909    .text:00000000000005c8 .LVL112
     /tmp/cc7mt25p.s:955    .text:000000000000062c .LVL118
     /tmp/cc7mt25p.s:925    .text:00000000000005f4 .LVL114
     /tmp/cc7mt25p.s:931    .text:0000000000000600 .LVL115
     /tmp/cc7mt25p.s:889    .text:00000000000005a0 .LVL108
     /tmp/cc7mt25p.s:898    .text:00000000000005b0 .LVL109
     /tmp/cc7mt25p.s:109    .text:000000000000007c .LVL9
     /tmp/cc7mt25p.s:123    .text:0000000000000098 .LVL10
     /tmp/cc7mt25p.s:350    .text:00000000000001cc .LVL30
     /tmp/cc7mt25p.s:355    .text:00000000000001d0 .LVL31
     /tmp/cc7mt25p.s:360    .text:00000000000001dc .LVL32
     /tmp/cc7mt25p.s:428    .text:0000000000000238 .LVL41
     /tmp/cc7mt25p.s:396    .text:000000000000020c .LVL37
     /tmp/cc7mt25p.s:362    .text:00000000000001e0 .LVL33
     /tmp/cc7mt25p.s:368    .text:00000000000001e4 .LVL34
     /tmp/cc7mt25p.s:379    .text:00000000000001f0 .LVL35
     /tmp/cc7mt25p.s:387    .text:0000000000000200 .LVL36
     /tmp/cc7mt25p.s:411    .text:0000000000000224 .LVL40
     /tmp/cc7mt25p.s:189    .text:00000000000000cc .LVL11
     /tmp/cc7mt25p.s:208    .text:00000000000000f0 .LVL13
     /tmp/cc7mt25p.s:277    .text:0000000000000154 .LVL21
     /tmp/cc7mt25p.s:285    .text:000000000000015c .LVL22
     /tmp/cc7mt25p.s:212    .text:0000000000000100 .LVL14
     /tmp/cc7mt25p.s:237    .text:000000000000011c .LVL17
     /tmp/cc7mt25p.s:249    .text:000000000000012c .LVL19
     /tmp/cc7mt25p.s:244    .text:0000000000000124 .LVL18
     /tmp/cc7mt25p.s:216    .text:0000000000000108 .LVL15
     /tmp/cc7mt25p.s:223    .text:000000000000010c .LVL16
     /tmp/cc7mt25p.s:52     .text:0000000000000030 .LVL4
     /tmp/cc7mt25p.s:66     .text:0000000000000048 .LVL5
     /tmp/cc7mt25p.s:95     .text:0000000000000074 .LVL8
     /tmp/cc7mt25p.s:1237   .debug_info:0000000000000000 .Ldebug_info0
     /tmp/cc7mt25p.s:225    .text:000000000000010c .LBE14
     /tmp/cc7mt25p.s:280    .text:0000000000000154 .LBB19
     /tmp/cc7mt25p.s:318    .text:00000000000001b0 .LBE19
     /tmp/cc7mt25p.s:370    .text:00000000000001e4 .LBE36
     /tmp/cc7mt25p.s:471    .text:0000000000000294 .LBB49
     /tmp/cc7mt25p.s:508    .text:00000000000002f0 .LBE49
     /tmp/cc7mt25p.s:417    .text:0000000000000228 .LBE44
     /tmp/cc7mt25p.s:509    .text:00000000000002f0 .LBB50
     /tmp/cc7mt25p.s:545    .text:000000000000034c .LBE50
     /tmp/cc7mt25p.s:580    .text:0000000000000370 .LBE53
     /tmp/cc7mt25p.s:628    .text:00000000000003bc .LBB56
     /tmp/cc7mt25p.s:665    .text:0000000000000418 .LBE56
     /tmp/cc7mt25p.s:696    .text:0000000000000438 .LBE62
     /tmp/cc7mt25p.s:757    .text:0000000000000490 .LBB69
     /tmp/cc7mt25p.s:795    .text:00000000000004ec .LBE69
     /tmp/cc7mt25p.s:716    .text:0000000000000458 .LBE65
     /tmp/cc7mt25p.s:796    .text:00000000000004ec .LBB70
     /tmp/cc7mt25p.s:834    .text:0000000000000548 .LBE70
     /tmp/cc7mt25p.s:900    .text:00000000000005b0 .LBE73
     /tmp/cc7mt25p.s:971    .text:0000000000000640 .LBB76
     /tmp/cc7mt25p.s:1008   .text:000000000000069c .LBE76
     /tmp/cc7mt25p.s:1044   .text:00000000000006c4 .LBE81
     /tmp/cc7mt25p.s:1095   .text:0000000000000718 .LBB87
     /tmp/cc7mt25p.s:1133   .text:0000000000000774 .LBE87
GAS LISTING /tmp/cc7mt25p.s 			page 51


     /tmp/cc7mt25p.s:1056   .text:00000000000006d0 .LBE84
     /tmp/cc7mt25p.s:1134   .text:0000000000000774 .LBB88
     /tmp/cc7mt25p.s:1170   .text:00000000000007d0 .LBE88

UNDEFINED SYMBOLS
_Z11thread_exitv
_ZN9Scheduler3putEP7IThread
kernelThread
_ZN9Scheduler14dispatchToNextEv
_Z9putStringPKc
_Z6putInti
_Z10putNewlinev
_Z10stopKernelv
_ZN8MemAlloc3getEv
_ZN8MemAlloc8allocMemEm
_ZN8MemAlloc7freeMemEPv
