GAS LISTING /tmp/ccV7gVvf.s 			page 1


   1              		.file	"thread.cpp"
   2              		.option pic
   3              		.option norelax
   4              		.text
   5              	.Ltext0:
   6              		.align	2
   7              		.globl	_ZN6Thread11setPRunningEPS_
   9              	_ZN6Thread11setPRunningEPS_:
  10              	.LFB13:
  11              		.file 1 "src/thread.cpp"
   1:src/thread.cpp **** #include "../h/thread.h"
   2:src/thread.cpp **** #include "../h/alloc.h"
   3:src/thread.cpp **** #include "../h/scheduler.h"
   4:src/thread.cpp **** 
   5:src/thread.cpp **** uint64 Thread::timeSliceCounter = 0;
   6:src/thread.cpp **** Thread* Thread::pRunning = nullptr;
   7:src/thread.cpp **** uint64* Thread::pRunningContext = nullptr;
   8:src/thread.cpp **** bool Thread::userThreadExists = false;
   9:src/thread.cpp **** 
  10:src/thread.cpp **** void Thread::setPRunning(Thread* pNew)
  11:src/thread.cpp **** {
  12              		.loc 1 11 1
  13              		.cfi_startproc
  14              	.LVL0:
  15 0000 130101FF 		addi	sp,sp,-16
  16              		.cfi_def_cfa_offset 16
  17 0004 23348100 		sd	s0,8(sp)
  18              		.cfi_offset 8, -8
  19 0008 13040101 		addi	s0,sp,16
  20              		.cfi_def_cfa 8, 0
  12:src/thread.cpp ****     pRunning = pNew;
  21              		.loc 1 12 5
  22              		.loc 1 12 14 is_stmt 0
  23 000c 97070000 		lla	a5,.LANCHOR0
  23      93870700 
  24 0014 23B0A700 		sd	a0,0(a5)
  13:src/thread.cpp ****     pRunningContext = &(pRunning->context[0]);
  25              		.loc 1 13 5 is_stmt 1
  26              		.loc 1 13 23 is_stmt 0
  27 0018 13050501 		addi	a0,a0,16
  28              	.LVL1:
  29              		.loc 1 13 21
  30 001c 23B4A700 		sd	a0,8(a5)
  14:src/thread.cpp **** }
  31              		.loc 1 14 1
  32 0020 03348100 		ld	s0,8(sp)
  33              		.cfi_restore 8
  34              		.cfi_def_cfa 2, 16
  35 0024 13010101 		addi	sp,sp,16
  36              		.cfi_def_cfa_offset 0
  37 0028 67800000 		jr	ra
  38              		.cfi_endproc
  39              	.LFE13:
  41              		.align	2
  42              		.globl	_Z10allocStackPv
  44              	_Z10allocStackPv:
  45              	.LFB14:
GAS LISTING /tmp/ccV7gVvf.s 			page 2


  15:src/thread.cpp **** 
  16:src/thread.cpp **** void* allocStack(void* pStartOfStack)
  17:src/thread.cpp **** {
  46              		.loc 1 17 1 is_stmt 1
  47              		.cfi_startproc
  48              	.LVL2:
  18:src/thread.cpp ****     if (pStartOfStack)
  49              		.loc 1 18 5
  50 002c 63040500 		beqz	a0,.L9
  19:src/thread.cpp ****     {
  20:src/thread.cpp ****         return pStartOfStack;
  21:src/thread.cpp ****     } else
  22:src/thread.cpp ****     {
  23:src/thread.cpp ****        return (uint64 *) (((char *) MemAlloc::get()->allocMem(ACTUAL_STACK_SIZE)) + ACTUAL_STACK_SI
  24:src/thread.cpp ****     }
  25:src/thread.cpp **** }
  51              		.loc 1 25 1 is_stmt 0
  52 0030 67800000 		ret
  53              	.L9:
  17:src/thread.cpp ****     if (pStartOfStack)
  54              		.loc 1 17 1
  55 0034 130101FF 		addi	sp,sp,-16
  56              		.cfi_def_cfa_offset 16
  57 0038 23341100 		sd	ra,8(sp)
  58 003c 23308100 		sd	s0,0(sp)
  59              		.cfi_offset 1, -8
  60              		.cfi_offset 8, -16
  61 0040 13040101 		addi	s0,sp,16
  62              		.cfi_def_cfa 8, 0
  23:src/thread.cpp ****     }
  63              		.loc 1 23 8 is_stmt 1
  23:src/thread.cpp ****     }
  64              		.loc 1 23 62 is_stmt 0
  65 0044 97000000 		call	_ZN8MemAlloc3getEv@plt
  65      E7800000 
  66              	.LVL3:
  67 004c B7250000 		li	a1,8192
  68 0050 97000000 		call	_ZN8MemAlloc8allocMemEm@plt
  68      E7800000 
  69              	.LVL4:
  23:src/thread.cpp ****     }
  70              		.loc 1 23 102
  71 0058 B7270000 		li	a5,8192
  72 005c 3305F500 		add	a0,a0,a5
  73              		.loc 1 25 1
  74 0060 83308100 		ld	ra,8(sp)
  75              		.cfi_restore 1
  76 0064 03340100 		ld	s0,0(sp)
  77              		.cfi_restore 8
  78              		.cfi_def_cfa 2, 16
  79 0068 13010101 		addi	sp,sp,16
  80              		.cfi_def_cfa_offset 0
  81 006c 67800000 		jr	ra
  82              		.cfi_endproc
  83              	.LFE14:
  85              		.section	.rodata.str1.8,"aMS",@progbits,1
  86              		.align	3
GAS LISTING /tmp/ccV7gVvf.s 			page 3


  87              	.LC0:
  88 0000 3D3D3D3D 		.string	"===================== ASSERT file: "
  88      3D3D3D3D 
  88      3D3D3D3D 
  88      3D3D3D3D 
  88      3D3D3D3D 
  89 0024 00000000 		.align	3
  90              	.LC1:
  91 0028 7372632F 		.string	"src/thread.cpp"
  91      74687265 
  91      61642E63 
  91      707000
  92 0037 00       		.align	3
  93              	.LC2:
  94 0038 20202020 		.string	"    line: "
  94      6C696E65 
  94      3A2000
  95 0043 00000000 		.align	3
  95      00
  96              	.LC3:
  97 0048 2020203D 		.string	"   ==========================="
  97      3D3D3D3D 
  97      3D3D3D3D 
  97      3D3D3D3D 
  97      3D3D3D3D 
  98              		.text
  99              		.align	2
 100              		.globl	_ZN6ThreadC2EPFvPvES0_S0_
 102              	_ZN6ThreadC2EPFvPvES0_S0_:
 103              	.LFB17:
  26:src/thread.cpp **** 
  27:src/thread.cpp **** void wrapper(Thread::Body body, void* arg)
  28:src/thread.cpp **** {
  29:src/thread.cpp ****     (*body)(arg);
  30:src/thread.cpp ****     Thread::exit(); // TODO: turn into system call
  31:src/thread.cpp **** }
  32:src/thread.cpp **** 
  33:src/thread.cpp **** Thread::Thread(Body body, void* arg, void* pStartOfStack)
 104              		.loc 1 33 1 is_stmt 1
 105              		.cfi_startproc
 106              	.LVL5:
 107 0070 130101FE 		addi	sp,sp,-32
 108              		.cfi_def_cfa_offset 32
 109 0074 233C1100 		sd	ra,24(sp)
 110 0078 23388100 		sd	s0,16(sp)
 111 007c 23349100 		sd	s1,8(sp)
 112 0080 23302101 		sd	s2,0(sp)
 113              		.cfi_offset 1, -8
 114              		.cfi_offset 8, -16
 115              		.cfi_offset 9, -24
 116              		.cfi_offset 18, -32
 117 0084 13040102 		addi	s0,sp,32
 118              		.cfi_def_cfa 8, 0
 119 0088 93040500 		mv	s1,a0
 120 008c 13890500 		mv	s2,a1
 121              	.LBB16:
  34:src/thread.cpp **** {
GAS LISTING /tmp/ccV7gVvf.s 			page 4


  35:src/thread.cpp ****     pStackStart = (uint64*)allocStack(pStartOfStack);
 122              		.loc 1 35 5
 123              		.loc 1 35 38 is_stmt 0
 124 0090 13850600 		mv	a0,a3
 125              	.LVL6:
 126 0094 97000000 		call	_Z10allocStackPv
 126      E7800000 
 127              	.LVL7:
 128              		.loc 1 35 17
 129 009c 23BCA410 		sd	a0,280(s1)
  36:src/thread.cpp **** 
  37:src/thread.cpp ****     assert((uint64)pStackStart % 16 == 0);
 130              		.loc 1 37 5 is_stmt 1
 131 00a0 1375F500 		andi	a0,a0,15
 132              	.LVL8:
 133              	.LBB17:
 134              	.LBB18:
 135              		.file 2 "src/../h/../h/my_console.h"
   1:src/../h/../h/my_console.h **** #pragma once
   2:src/../h/../h/my_console.h **** 
   3:src/../h/../h/my_console.h **** #include "../h/risc.h"
   4:src/../h/../h/my_console.h **** 
   5:src/../h/../h/my_console.h **** #include "../lib/console.h"
   6:src/../h/../h/my_console.h **** #include "../lib/hw.h"
   7:src/../h/../h/my_console.h **** 
   8:src/../h/../h/my_console.h **** #define __DEBUG_MODE
   9:src/../h/../h/my_console.h **** 
  10:src/../h/../h/my_console.h **** 
  11:src/../h/../h/my_console.h **** void putString(const char* s);
  12:src/../h/../h/my_console.h **** void putInt(int n);
  13:src/../h/../h/my_console.h **** void putNewline();
  14:src/../h/../h/my_console.h **** void putU64(uint64 n);
  15:src/../h/../h/my_console.h **** void putBinary(uint64 n);
  16:src/../h/../h/my_console.h **** void stopKernel();
  17:src/../h/../h/my_console.h **** 
  18:src/../h/../h/my_console.h **** inline void _assert(bool valid, const char* file, int line) // MUST be inline
  19:src/../h/../h/my_console.h **** {
  20:src/../h/../h/my_console.h ****     if(valid)
 136              		.loc 2 20 5
 137 00a4 63120504 		bnez	a0,.L13
 138              	.LVL9:
 139              	.L11:
 140              	.LBE18:
 141              	.LBE17:
  38:src/thread.cpp **** 
  39:src/thread.cpp ****     state = INITIALIZING;
 142              		.loc 1 39 5
  40:src/thread.cpp ****     timeSlice = DEFAULT_TIME_SLICE;
 143              		.loc 1 40 5
 144              		.loc 1 40 15 is_stmt 0
 145 00a8 93072000 		li	a5,2
 146 00ac 23B0F412 		sd	a5,288(s1)
  41:src/thread.cpp ****     pNext = nullptr;
 147              		.loc 1 41 5 is_stmt 1
 148              		.loc 1 41 11 is_stmt 0
 149 00b0 23B40412 		sd	zero,296(s1)
  42:src/thread.cpp **** 
GAS LISTING /tmp/ccV7gVvf.s 			page 5


  43:src/thread.cpp ****     // sets context
  44:src/thread.cpp ****     context[1] = (uint64)&thread_exit;
 150              		.loc 1 44 5 is_stmt 1
 151              		.loc 1 44 16 is_stmt 0
 152 00b4 17070000 		la	a4,_Z11thread_exitv
 152      03370700 
 153 00bc 23BCE400 		sd	a4,24(s1)
  45:src/thread.cpp ****     context[2] = (uint64)pStackStart;
 154              		.loc 1 45 5 is_stmt 1
 155              		.loc 1 45 26 is_stmt 0
 156 00c0 03B78411 		ld	a4,280(s1)
 157              		.loc 1 45 16
 158 00c4 23B0E402 		sd	a4,32(s1)
  46:src/thread.cpp ****     context[NR_REGISTERS] = (uint64)body;
 159              		.loc 1 46 5 is_stmt 1
 160              		.loc 1 46 27 is_stmt 0
 161 00c8 23B82411 		sd	s2,272(s1)
  47:src/thread.cpp **** 
  48:src/thread.cpp ****     state = READY;
 162              		.loc 1 48 5 is_stmt 1
 163              		.loc 1 48 11 is_stmt 0
 164 00cc 23A0F400 		sw	a5,0(s1)
 165              	.LBE16:
  49:src/thread.cpp **** }
 166              		.loc 1 49 1
 167 00d0 83308101 		ld	ra,24(sp)
 168              		.cfi_remember_state
 169              		.cfi_restore 1
 170 00d4 03340101 		ld	s0,16(sp)
 171              		.cfi_restore 8
 172              		.cfi_def_cfa 2, 32
 173 00d8 83348100 		ld	s1,8(sp)
 174              		.cfi_restore 9
 175              	.LVL10:
 176 00dc 03390100 		ld	s2,0(sp)
 177              		.cfi_restore 18
 178              	.LVL11:
 179 00e0 13010102 		addi	sp,sp,32
 180              		.cfi_def_cfa_offset 0
 181 00e4 67800000 		jr	ra
 182              	.LVL12:
 183              	.L13:
 184              		.cfi_restore_state
 185              	.LBB21:
 186              	.LBB20:
 187              	.LBB19:
  21:src/../h/../h/my_console.h ****         return;
  22:src/../h/../h/my_console.h **** 
  23:src/../h/../h/my_console.h ****     putString("===================== ASSERT file: ");
 188              		.loc 2 23 5 is_stmt 1
 189              		.loc 2 23 14 is_stmt 0
 190 00e8 17050000 		lla	a0,.LC0
 190      13050500 
 191              	.LVL13:
 192 00f0 97000000 		call	_Z9putStringPKc@plt
 192      E7800000 
 193              	.LVL14:
GAS LISTING /tmp/ccV7gVvf.s 			page 6


  24:src/../h/../h/my_console.h ****     putString(file);
 194              		.loc 2 24 5 is_stmt 1
 195              		.loc 2 24 14 is_stmt 0
 196 00f8 17050000 		lla	a0,.LC1
 196      13050500 
 197 0100 97000000 		call	_Z9putStringPKc@plt
 197      E7800000 
 198              	.LVL15:
  25:src/../h/../h/my_console.h ****     putString("    line: ");
 199              		.loc 2 25 5 is_stmt 1
 200              		.loc 2 25 14 is_stmt 0
 201 0108 17050000 		lla	a0,.LC2
 201      13050500 
 202 0110 97000000 		call	_Z9putStringPKc@plt
 202      E7800000 
 203              	.LVL16:
  26:src/../h/../h/my_console.h ****     putInt(line);
 204              		.loc 2 26 5 is_stmt 1
 205              		.loc 2 26 11 is_stmt 0
 206 0118 13055002 		li	a0,37
 207 011c 97000000 		call	_Z6putInti@plt
 207      E7800000 
 208              	.LVL17:
  27:src/../h/../h/my_console.h ****     putString("   ===========================");
 209              		.loc 2 27 5 is_stmt 1
 210              		.loc 2 27 14 is_stmt 0
 211 0124 17050000 		lla	a0,.LC3
 211      13050500 
 212 012c 97000000 		call	_Z9putStringPKc@plt
 212      E7800000 
 213              	.LVL18:
  28:src/../h/../h/my_console.h ****     putNewline();
 214              		.loc 2 28 5 is_stmt 1
 215              		.loc 2 28 15 is_stmt 0
 216 0134 97000000 		call	_Z10putNewlinev@plt
 216      E7800000 
 217              	.LVL19:
  29:src/../h/../h/my_console.h **** 
  30:src/../h/../h/my_console.h ****     stopKernel();
 218              		.loc 2 30 5 is_stmt 1
 219              		.loc 2 30 15 is_stmt 0
 220 013c 97000000 		call	_Z10stopKernelv@plt
 220      E7800000 
 221              	.LVL20:
 222 0144 6FF05FF6 		j	.L11
 223              	.LBE19:
 224              	.LBE20:
 225              	.LBE21:
 226              		.cfi_endproc
 227              	.LFE17:
 229              		.globl	_ZN6ThreadC1EPFvPvES0_S0_
 230              		.set	_ZN6ThreadC1EPFvPvES0_S0_,_ZN6ThreadC2EPFvPvES0_S0_
 231              		.align	2
 232              		.globl	_ZN6Thread12createThreadEPPS_PFvPvES2_S2_
 234              	_ZN6Thread12createThreadEPPS_PFvPvES2_S2_:
 235              	.LFB19:
  50:src/thread.cpp **** 
GAS LISTING /tmp/ccV7gVvf.s 			page 7


  51:src/thread.cpp **** int Thread::createThread(thread_t* handle, Body body, void* arg, void* pStartOfStack)
  52:src/thread.cpp **** {
 236              		.loc 1 52 1 is_stmt 1
 237              		.cfi_startproc
 238              		.cfi_personality 0x9b,DW.ref.__gxx_personality_v0
 239              		.cfi_lsda 0x1b,.LLSDA19
 240              	.LVL21:
 241 0148 130101FD 		addi	sp,sp,-48
 242              		.cfi_def_cfa_offset 48
 243 014c 23341102 		sd	ra,40(sp)
 244 0150 23308102 		sd	s0,32(sp)
 245 0154 233C9100 		sd	s1,24(sp)
 246 0158 23382101 		sd	s2,16(sp)
 247 015c 23343101 		sd	s3,8(sp)
 248 0160 23304101 		sd	s4,0(sp)
 249              		.cfi_offset 1, -8
 250              		.cfi_offset 8, -16
 251              		.cfi_offset 9, -24
 252              		.cfi_offset 18, -32
 253              		.cfi_offset 19, -40
 254              		.cfi_offset 20, -48
 255 0164 13040103 		addi	s0,sp,48
 256              		.cfi_def_cfa 8, 0
 257 0168 13890500 		mv	s2,a1
 258 016c 93090600 		mv	s3,a2
 259 0170 138A0600 		mv	s4,a3
  53:src/thread.cpp ****     Thread* thread = new Thread(body, arg, pStartOfStack);
 260              		.loc 1 53 5
 261              		.loc 1 53 57 is_stmt 0
 262 0174 13050013 		li	a0,304
 263              	.LVL22:
 264              	.LEHB0:
 265 0178 97000000 		call	_Znwm@plt
 265      E7800000 
 266              	.LVL23:
 267              	.LEHE0:
 268 0180 93040500 		mv	s1,a0
 269 0184 93060A00 		mv	a3,s4
 270 0188 13860900 		mv	a2,s3
 271 018c 93050900 		mv	a1,s2
 272              	.LEHB1:
 273 0190 97000000 		call	_ZN6ThreadC1EPFvPvES0_S0_
 273      E7800000 
 274              	.LVL24:
 275              	.LEHE1:
  54:src/thread.cpp **** 
  55:src/thread.cpp ****     Scheduler::put(thread);
 276              		.loc 1 55 5 is_stmt 1 discriminator 2
 277              		.loc 1 55 19 is_stmt 0 discriminator 2
 278 0198 13850400 		mv	a0,s1
 279              	.LEHB2:
 280 019c 97000000 		call	_ZN9Scheduler3putEP6Thread@plt
 280      E7800000 
 281              	.LVL25:
  56:src/thread.cpp **** 
  57:src/thread.cpp ****     int status = -1;
 282              		.loc 1 57 5 is_stmt 1 discriminator 2
GAS LISTING /tmp/ccV7gVvf.s 			page 8


  58:src/thread.cpp **** 
  59:src/thread.cpp ****     for(int i=0; i<NR_MAX_THREADS; i++)
 283              		.loc 1 59 5 discriminator 2
 284              	.LBB35:
 285              		.loc 1 59 13 is_stmt 0 discriminator 2
 286 01a4 13060000 		li	a2,0
 287 01a8 6F008002 		j	.L23
 288              	.LVL26:
 289              	.L17:
 290              	.LBB36:
 291              	.LBB37:
 292              	.LBB38:
 293              	.LBB39:
 294              		.file 3 "src/../h/thread.h"
   1:src/../h/thread.h **** #pragma once
   2:src/../h/thread.h **** 
   3:src/../h/thread.h **** #include "../lib/hw.h"
   4:src/../h/thread.h **** #include "../h/my_console.h"
   5:src/../h/thread.h **** #include "../h/c_api.h"
   6:src/../h/thread.h **** #include "../h/cpp_api.h"
   7:src/../h/thread.h **** 
   8:src/../h/thread.h **** #define NR_MAX_THREADS 10
   9:src/../h/thread.h **** #define NR_REGISTERS 32
  10:src/../h/thread.h **** #define ACTUAL_STACK_SIZE 4096*2
  11:src/../h/thread.h **** 
  12:src/../h/thread.h **** class Thread;
  13:src/../h/thread.h **** typedef Thread* thread_t;
  14:src/../h/thread.h **** 
  15:src/../h/thread.h **** class Thread
  16:src/../h/thread.h **** {
  17:src/../h/thread.h **** public:
  18:src/../h/thread.h ****     enum State
  19:src/../h/thread.h ****     {
  20:src/../h/thread.h ****         RUNNING = 0, SUSPENDED, READY, INITIALIZING, TERMINATING, NONEXISTENT
  21:src/../h/thread.h ****     };
  22:src/../h/thread.h ****     typedef void(*Body)(void*);
  23:src/../h/thread.h ****     typedef uint64 Context[NR_REGISTERS+1]; // the +1 is for the sepc
  24:src/../h/thread.h **** 
  25:src/../h/thread.h ****     static Thread** getAllThreads()
  26:src/../h/thread.h ****     {
  27:src/../h/thread.h ****         static bool firstCall = true;
  28:src/../h/thread.h ****         static Thread* allThreads[NR_MAX_THREADS];
  29:src/../h/thread.h **** 
  30:src/../h/thread.h ****         if(firstCall)
  31:src/../h/thread.h ****         {
  32:src/../h/thread.h ****             for(int i=0; i<NR_MAX_THREADS; i++)
  33:src/../h/thread.h ****                 allThreads[i] = nullptr;
  34:src/../h/thread.h ****             firstCall = false;
 295              		.loc 3 34 13 is_stmt 1
 296              		.loc 3 34 23 is_stmt 0
 297 01ac 97070000 		sb	zero,_ZZN6Thread13getAllThreadsEvE9firstCall,a5
 297      23800700 
 298              	.LVL27:
 299              	.L16:
 300              	.LBE39:
 301              	.LBE38:
  35:src/../h/thread.h ****         }
GAS LISTING /tmp/ccV7gVvf.s 			page 9


  36:src/../h/thread.h **** 
  37:src/../h/thread.h ****         return allThreads;
 302              		.loc 3 37 9 is_stmt 1
 303              	.LBE37:
 304              	.LBE36:
  60:src/thread.cpp ****         if(getAllThreads()[i] == nullptr)
 305              		.loc 1 60 29 is_stmt 0
 306 01b4 93173600 		slli	a5,a2,3
 307 01b8 17070000 		lla	a4,_ZZN6Thread13getAllThreadsEvE10allThreads
 307      13070700 
 308 01c0 B387E700 		add	a5,a5,a4
 309 01c4 03B70700 		ld	a4,0(a5)
 310              		.loc 1 60 9
 311 01c8 63020704 		beqz	a4,.L30
  59:src/thread.cpp ****         if(getAllThreads()[i] == nullptr)
 312              		.loc 1 59 5 is_stmt 1 discriminator 2
 313 01cc 1B061600 		addiw	a2,a2,1
 314              	.LVL28:
 315              	.L23:
  59:src/thread.cpp ****         if(getAllThreads()[i] == nullptr)
 316              		.loc 1 59 19 discriminator 1
 317 01d0 93079000 		li	a5,9
 318 01d4 63C0C708 		bgt	a2,a5,.L26
 319              		.loc 1 60 9
 320              	.LBB44:
 321              	.LBB43:
  27:src/../h/thread.h ****         static Thread* allThreads[NR_MAX_THREADS];
 322              		.loc 3 27 9
  28:src/../h/thread.h **** 
 323              		.loc 3 28 9
  30:src/../h/thread.h ****         {
 324              		.loc 3 30 9
 325              	.LBB42:
 326 01d8 97070000 		lbu	a5,_ZZN6Thread13getAllThreadsEvE9firstCall
 326      83C70700 
 327 01e0 E38A07FC 		beqz	a5,.L16
 328              	.LBB41:
 329              	.LBB40:
  32:src/../h/thread.h ****                 allThreads[i] = nullptr;
 330              		.loc 3 32 21 is_stmt 0
 331 01e4 93070000 		li	a5,0
 332              	.L18:
 333              	.LVL29:
  32:src/../h/thread.h ****                 allThreads[i] = nullptr;
 334              		.loc 3 32 27 is_stmt 1
 335 01e8 13079000 		li	a4,9
 336 01ec E340F7FC 		bgt	a5,a4,.L17
  33:src/../h/thread.h ****             firstCall = false;
 337              		.loc 3 33 17
  33:src/../h/thread.h ****             firstCall = false;
 338              		.loc 3 33 31 is_stmt 0
 339 01f0 93963700 		slli	a3,a5,3
 340 01f4 17070000 		lla	a4,_ZZN6Thread13getAllThreadsEvE10allThreads
 340      13070700 
 341 01fc 3307D700 		add	a4,a4,a3
 342 0200 23300700 		sd	zero,0(a4)
  32:src/../h/thread.h ****                 allThreads[i] = nullptr;
GAS LISTING /tmp/ccV7gVvf.s 			page 10


 343              		.loc 3 32 13 is_stmt 1
 344 0204 9B871700 		addiw	a5,a5,1
 345              	.LVL30:
 346 0208 6FF01FFE 		j	.L18
 347              	.L30:
 348              	.LBE40:
 349              	.LBE41:
 350              	.LBE42:
 351              	.LBE43:
 352              	.LBE44:
  61:src/thread.cpp ****         {
  62:src/thread.cpp ****             getAllThreads()[i] = thread;
 353              		.loc 1 62 13
 354              	.LBB45:
 355              	.LBB46:
  27:src/../h/thread.h ****         static Thread* allThreads[NR_MAX_THREADS];
 356              		.loc 3 27 9
  28:src/../h/thread.h **** 
 357              		.loc 3 28 9
  30:src/../h/thread.h ****         {
 358              		.loc 3 30 9
 359              	.LBB47:
 360 020c 17070000 		lbu	a4,_ZZN6Thread13getAllThreadsEvE9firstCall
 360      03470700 
 361 0214 630A0702 		beqz	a4,.L20
 362              	.LBB48:
 363              	.LBB49:
  32:src/../h/thread.h ****                 allThreads[i] = nullptr;
 364              		.loc 3 32 21 is_stmt 0
 365 0218 13070000 		li	a4,0
 366              	.LVL31:
 367              	.L22:
  32:src/../h/thread.h ****                 allThreads[i] = nullptr;
 368              		.loc 3 32 27 is_stmt 1
 369 021c 93069000 		li	a3,9
 370 0220 63C0E602 		bgt	a4,a3,.L21
  33:src/../h/thread.h ****             firstCall = false;
 371              		.loc 3 33 17
  33:src/../h/thread.h ****             firstCall = false;
 372              		.loc 3 33 31 is_stmt 0
 373 0224 13163700 		slli	a2,a4,3
 374 0228 97060000 		lla	a3,_ZZN6Thread13getAllThreadsEvE10allThreads
 374      93860600 
 375 0230 B386C600 		add	a3,a3,a2
 376 0234 23B00600 		sd	zero,0(a3)
  32:src/../h/thread.h ****                 allThreads[i] = nullptr;
 377              		.loc 3 32 13 is_stmt 1
 378 0238 1B071700 		addiw	a4,a4,1
 379              	.LVL32:
 380 023c 6FF01FFE 		j	.L22
 381              	.LVL33:
 382              	.L21:
 383              	.LBE49:
  34:src/../h/thread.h ****         }
 384              		.loc 3 34 13
  34:src/../h/thread.h ****         }
 385              		.loc 3 34 23 is_stmt 0
GAS LISTING /tmp/ccV7gVvf.s 			page 11


 386 0240 17070000 		sb	zero,_ZZN6Thread13getAllThreadsEvE9firstCall,a4
 386      23000700 
 387              	.LVL34:
 388              	.L20:
 389              	.LBE48:
 390              	.LBE47:
 391              		.loc 3 37 9 is_stmt 1
 392              	.LBE46:
 393              	.LBE45:
 394              		.loc 1 62 32 is_stmt 0
 395 0248 23B09700 		sd	s1,0(a5)
  63:src/thread.cpp ****             status = 0;
 396              		.loc 1 63 13 is_stmt 1
 397              	.LVL35:
  64:src/thread.cpp ****             break;
 398              		.loc 1 64 13
  63:src/thread.cpp ****             status = 0;
 399              		.loc 1 63 20 is_stmt 0
 400 024c 93040000 		li	s1,0
 401              	.LVL36:
 402              		.loc 1 64 13
 403 0250 6F008000 		j	.L15
 404              	.LVL37:
 405              	.L26:
 406              	.LBE35:
  57:src/thread.cpp **** 
 407              		.loc 1 57 9
 408 0254 9304F0FF 		li	s1,-1
 409              	.LVL38:
 410              	.L15:
  65:src/thread.cpp ****         }
  66:src/thread.cpp **** 
  67:src/thread.cpp ****     assert(status == 0); // temp
 411              		.loc 1 67 5 is_stmt 1
 412              	.LBB50:
 413              	.LBB51:
  20:src/../h/../h/my_console.h ****         return;
 414              		.loc 2 20 5
 415 0258 63940402 		bnez	s1,.L31
 416              	.LVL39:
 417              	.L28:
 418              	.LBE51:
 419              	.LBE50:
  68:src/thread.cpp ****     return status;
  69:src/thread.cpp **** }
 420              		.loc 1 69 1 is_stmt 0
 421 025c 13850400 		mv	a0,s1
 422 0260 83308102 		ld	ra,40(sp)
 423              		.cfi_remember_state
 424              		.cfi_restore 1
 425 0264 03340102 		ld	s0,32(sp)
 426              		.cfi_restore 8
 427              		.cfi_def_cfa 2, 48
 428 0268 83348101 		ld	s1,24(sp)
 429              		.cfi_restore 9
 430              	.LVL40:
 431 026c 03390101 		ld	s2,16(sp)
GAS LISTING /tmp/ccV7gVvf.s 			page 12


 432              		.cfi_restore 18
 433              	.LVL41:
 434 0270 83398100 		ld	s3,8(sp)
 435              		.cfi_restore 19
 436              	.LVL42:
 437 0274 033A0100 		ld	s4,0(sp)
 438              		.cfi_restore 20
 439              	.LVL43:
 440 0278 13010103 		addi	sp,sp,48
 441              		.cfi_def_cfa_offset 0
 442 027c 67800000 		jr	ra
 443              	.LVL44:
 444              	.L31:
 445              		.cfi_restore_state
 446              	.LBB53:
 447              	.LBB52:
  23:src/../h/../h/my_console.h ****     putString(file);
 448              		.loc 2 23 5 is_stmt 1
  23:src/../h/../h/my_console.h ****     putString(file);
 449              		.loc 2 23 14 is_stmt 0
 450 0280 17050000 		lla	a0,.LC0
 450      13050500 
 451 0288 97000000 		call	_Z9putStringPKc@plt
 451      E7800000 
 452              	.LVL45:
  24:src/../h/../h/my_console.h ****     putString("    line: ");
 453              		.loc 2 24 5 is_stmt 1
  24:src/../h/../h/my_console.h ****     putString("    line: ");
 454              		.loc 2 24 14 is_stmt 0
 455 0290 17050000 		lla	a0,.LC1
 455      13050500 
 456 0298 97000000 		call	_Z9putStringPKc@plt
 456      E7800000 
 457              	.LVL46:
  25:src/../h/../h/my_console.h ****     putInt(line);
 458              		.loc 2 25 5 is_stmt 1
  25:src/../h/../h/my_console.h ****     putInt(line);
 459              		.loc 2 25 14 is_stmt 0
 460 02a0 17050000 		lla	a0,.LC2
 460      13050500 
 461 02a8 97000000 		call	_Z9putStringPKc@plt
 461      E7800000 
 462              	.LVL47:
  26:src/../h/../h/my_console.h ****     putString("   ===========================");
 463              		.loc 2 26 5 is_stmt 1
  26:src/../h/../h/my_console.h ****     putString("   ===========================");
 464              		.loc 2 26 11 is_stmt 0
 465 02b0 13053004 		li	a0,67
 466 02b4 97000000 		call	_Z6putInti@plt
 466      E7800000 
 467              	.LVL48:
  27:src/../h/../h/my_console.h ****     putNewline();
 468              		.loc 2 27 5 is_stmt 1
  27:src/../h/../h/my_console.h ****     putNewline();
 469              		.loc 2 27 14 is_stmt 0
 470 02bc 17050000 		lla	a0,.LC3
 470      13050500 
GAS LISTING /tmp/ccV7gVvf.s 			page 13


 471 02c4 97000000 		call	_Z9putStringPKc@plt
 471      E7800000 
 472              	.LVL49:
  28:src/../h/../h/my_console.h **** 
 473              		.loc 2 28 5 is_stmt 1
  28:src/../h/../h/my_console.h **** 
 474              		.loc 2 28 15 is_stmt 0
 475 02cc 97000000 		call	_Z10putNewlinev@plt
 475      E7800000 
 476              	.LVL50:
 477              		.loc 2 30 5 is_stmt 1
 478              		.loc 2 30 15 is_stmt 0
 479 02d4 97000000 		call	_Z10stopKernelv@plt
 479      E7800000 
 480              	.LVL51:
 481              	.LEHE2:
 482              	.LBE52:
 483              	.LBE53:
  68:src/thread.cpp **** }
 484              		.loc 1 68 5 is_stmt 1
  68:src/thread.cpp **** }
 485              		.loc 1 68 12 is_stmt 0
 486 02dc 6FF01FF8 		j	.L28
 487              	.LVL52:
 488              	.L27:
 489 02e0 13090500 		mv	s2,a0
 490              	.LVL53:
  53:src/thread.cpp **** 
 491              		.loc 1 53 57
 492 02e4 13850400 		mv	a0,s1
 493 02e8 97000000 		call	_ZdlPv@plt
 493      E7800000 
 494              	.LVL54:
 495 02f0 13050900 		mv	a0,s2
 496              	.LEHB3:
 497 02f4 97000000 		call	_Unwind_Resume@plt
 497      E7800000 
 498              	.LVL55:
 499              	.LEHE3:
 500              		.cfi_endproc
 501              	.LFE19:
 502              		.globl	__gxx_personality_v0
 503              		.section	.gcc_except_table,"a",@progbits
 504              	.LLSDA19:
 505 0000 FF       		.byte	0xff
 506 0001 FF       		.byte	0xff
 507 0002 03       		.byte	0x3
 508 0003 34       		.byte	0x34
 509 0004 00000000 		.4byte	.LEHB0-.LFB19
 510 0008 00000000 		.4byte	.LEHE0-.LEHB0
 511 000c 00000000 		.4byte	0
 512 0010 00       		.byte	0
 513 0011 00000000 		.4byte	.LEHB1-.LFB19
 514 0015 00000000 		.4byte	.LEHE1-.LEHB1
 515 0019 00000000 		.4byte	.L27-.LFB19
 516 001d 00       		.byte	0
 517 001e 00000000 		.4byte	.LEHB2-.LFB19
GAS LISTING /tmp/ccV7gVvf.s 			page 14


 518 0022 00000000 		.4byte	.LEHE2-.LEHB2
 519 0026 00000000 		.4byte	0
 520 002a 00       		.byte	0
 521 002b 00000000 		.4byte	.LEHB3-.LFB19
 522 002f 00000000 		.4byte	.LEHE3-.LEHB3
 523 0033 00000000 		.4byte	0
 524 0037 00       		.byte	0
 525              		.text
 527              		.align	2
 528              		.globl	_ZN6Thread12deleteThreadEv
 530              	_ZN6Thread12deleteThreadEv:
 531              	.LFB21:
  70:src/thread.cpp **** 
  71:src/thread.cpp **** int Thread::exit()
  72:src/thread.cpp **** {
  73:src/thread.cpp ****     // nesto preko ::pRunning
  74:src/thread.cpp ****     assert(false);
  75:src/thread.cpp **** 
  76:src/thread.cpp ****     assert(Thread::pRunning->state == RUNNING); // ??
  77:src/thread.cpp ****     Thread::pRunning->deleteThread(); // ??
  78:src/thread.cpp **** 
  79:src/thread.cpp ****     return 0;
  80:src/thread.cpp **** }
  81:src/thread.cpp **** 
  82:src/thread.cpp **** void Thread::deleteThread()
  83:src/thread.cpp **** {
 532              		.loc 1 83 1 is_stmt 1
 533              		.cfi_startproc
 534              	.LVL56:
 535 02fc 130101FE 		addi	sp,sp,-32
 536              		.cfi_def_cfa_offset 32
 537 0300 233C1100 		sd	ra,24(sp)
 538 0304 23388100 		sd	s0,16(sp)
 539 0308 23349100 		sd	s1,8(sp)
 540              		.cfi_offset 1, -8
 541              		.cfi_offset 8, -16
 542              		.cfi_offset 9, -24
 543 030c 13040102 		addi	s0,sp,32
 544              		.cfi_def_cfa 8, 0
 545 0310 93040500 		mv	s1,a0
  84:src/thread.cpp ****     assert(state != INITIALIZING && state != NONEXISTENT);
 546              		.loc 1 84 5
 547 0314 83270500 		lw	a5,0(a0)
 548 0318 13073000 		li	a4,3
 549 031c 638CE702 		beq	a5,a4,.L35
 550              		.loc 1 84 5 is_stmt 0 discriminator 1
 551 0320 13075000 		li	a4,5
 552 0324 6384E702 		beq	a5,a4,.L38
 553              		.loc 1 84 5
 554 0328 93071000 		li	a5,1
 555              	.L33:
 556              	.LVL57:
 557              	.LBB56:
 558              	.LBB57:
  20:src/../h/../h/my_console.h ****         return;
 559              		.loc 2 20 5 is_stmt 1 discriminator 6
 560 032c 63880702 		beqz	a5,.L39
GAS LISTING /tmp/ccV7gVvf.s 			page 15


 561              	.LVL58:
 562              	.L34:
 563              	.LBE57:
 564              	.LBE56:
  85:src/thread.cpp ****     /// ...
  86:src/thread.cpp ****     state = NONEXISTENT;
 565              		.loc 1 86 5
 566              		.loc 1 86 11 is_stmt 0
 567 0330 93075000 		li	a5,5
 568 0334 23A0F400 		sw	a5,0(s1)
  87:src/thread.cpp **** }...
 569              		.loc 1 87 1
 570 0338 83308101 		ld	ra,24(sp)
 571              		.cfi_remember_state
 572              		.cfi_restore 1
 573 033c 03340101 		ld	s0,16(sp)
 574              		.cfi_restore 8
 575              		.cfi_def_cfa 2, 32
 576 0340 83348100 		ld	s1,8(sp)
 577              		.cfi_restore 9
 578              	.LVL59:
 579 0344 13010102 		addi	sp,sp,32
 580              		.cfi_def_cfa_offset 0
 581 0348 67800000 		jr	ra
 582              	.LVL60:
 583              	.L38:
 584              		.cfi_restore_state
  84:src/thread.cpp ****     assert(state != INITIALIZING && state != NONEXISTENT);
 585              		.loc 1 84 5
 586 034c 93070000 		li	a5,0
 587 0350 6FF0DFFD 		j	.L33
 588              	.L35:
 589 0354 93070000 		li	a5,0
 590 0358 6FF05FFD 		j	.L33
 591              	.LVL61:
 592              	.L39:
 593              	.LBB59:
 594              	.LBB58:
  23:src/../h/../h/my_console.h ****     putString(file);
 595              		.loc 2 23 5 is_stmt 1
  23:src/../h/../h/my_console.h ****     putString(file);
 596              		.loc 2 23 14 is_stmt 0
 597 035c 17050000 		lla	a0,.LC0
 597      13050500 
 598 0364 97000000 		call	_Z9putStringPKc@plt
 598      E7800000 
 599              	.LVL62:
  24:src/../h/../h/my_console.h ****     putString("    line: ");
 600              		.loc 2 24 5 is_stmt 1
  24:src/../h/../h/my_console.h ****     putString("    line: ");
 601              		.loc 2 24 14 is_stmt 0
 602 036c 17050000 		lla	a0,.LC1
 602      13050500 
 603 0374 97000000 		call	_Z9putStringPKc@plt
 603      E7800000 
 604              	.LVL63:
  25:src/../h/../h/my_console.h ****     putInt(line);
GAS LISTING /tmp/ccV7gVvf.s 			page 16


 605              		.loc 2 25 5 is_stmt 1
  25:src/../h/../h/my_console.h ****     putInt(line);
 606              		.loc 2 25 14 is_stmt 0
 607 037c 17050000 		lla	a0,.LC2
 607      13050500 
 608 0384 97000000 		call	_Z9putStringPKc@plt
 608      E7800000 
 609              	.LVL64:
  26:src/../h/../h/my_console.h ****     putString("   ===========================");
 610              		.loc 2 26 5 is_stmt 1
  26:src/../h/../h/my_console.h ****     putString("   ===========================");
 611              		.loc 2 26 11 is_stmt 0
 612 038c 13054005 		li	a0,84
 613 0390 97000000 		call	_Z6putInti@plt
 613      E7800000 
 614              	.LVL65:
  27:src/../h/../h/my_console.h ****     putNewline();
 615              		.loc 2 27 5 is_stmt 1
  27:src/../h/../h/my_console.h ****     putNewline();
 616              		.loc 2 27 14 is_stmt 0
 617 0398 17050000 		lla	a0,.LC3
 617      13050500 
 618 03a0 97000000 		call	_Z9putStringPKc@plt
 618      E7800000 
 619              	.LVL66:
  28:src/../h/../h/my_console.h **** 
 620              		.loc 2 28 5 is_stmt 1
  28:src/../h/../h/my_console.h **** 
 621              		.loc 2 28 15 is_stmt 0
 622 03a8 97000000 		call	_Z10putNewlinev@plt
 622      E7800000 
 623              	.LVL67:
 624              		.loc 2 30 5 is_stmt 1
 625              		.loc 2 30 15 is_stmt 0
 626 03b0 97000000 		call	_Z10stopKernelv@plt
 626      E7800000 
 627              	.LVL68:
 628 03b8 6FF09FF7 		j	.L34
 629              	.LBE58:
 630              	.LBE59:
 631              		.cfi_endproc
 632              	.LFE21:
 634              		.align	2
 635              		.globl	_ZN6Thread4exitEv
 637              	_ZN6Thread4exitEv:
 638              	.LFB20:
  72:src/thread.cpp **** {
 639              		.loc 1 72 1 is_stmt 1
 640              		.cfi_startproc
 641 03bc 130101FF 		addi	sp,sp,-16
 642              		.cfi_def_cfa_offset 16
 643 03c0 23341100 		sd	ra,8(sp)
 644 03c4 23308100 		sd	s0,0(sp)
 645              		.cfi_offset 1, -8
 646              		.cfi_offset 8, -16
 647 03c8 13040101 		addi	s0,sp,16
 648              		.cfi_def_cfa 8, 0
GAS LISTING /tmp/ccV7gVvf.s 			page 17


  74:src/thread.cpp ****     assert(false);
 649              		.loc 1 74 5
 650              	.LVL69:
 651              	.LBB64:
 652              	.LBB65:
  20:src/../h/../h/my_console.h ****         return;
 653              		.loc 2 20 5
  23:src/../h/../h/my_console.h ****     putString(file);
 654              		.loc 2 23 5
  23:src/../h/../h/my_console.h ****     putString(file);
 655              		.loc 2 23 14 is_stmt 0
 656 03cc 17050000 		lla	a0,.LC0
 656      13050500 
 657 03d4 97000000 		call	_Z9putStringPKc@plt
 657      E7800000 
 658              	.LVL70:
  24:src/../h/../h/my_console.h ****     putString("    line: ");
 659              		.loc 2 24 5 is_stmt 1
  24:src/../h/../h/my_console.h ****     putString("    line: ");
 660              		.loc 2 24 14 is_stmt 0
 661 03dc 17050000 		lla	a0,.LC1
 661      13050500 
 662 03e4 97000000 		call	_Z9putStringPKc@plt
 662      E7800000 
 663              	.LVL71:
  25:src/../h/../h/my_console.h ****     putInt(line);
 664              		.loc 2 25 5 is_stmt 1
  25:src/../h/../h/my_console.h ****     putInt(line);
 665              		.loc 2 25 14 is_stmt 0
 666 03ec 17050000 		lla	a0,.LC2
 666      13050500 
 667 03f4 97000000 		call	_Z9putStringPKc@plt
 667      E7800000 
 668              	.LVL72:
  26:src/../h/../h/my_console.h ****     putString("   ===========================");
 669              		.loc 2 26 5 is_stmt 1
  26:src/../h/../h/my_console.h ****     putString("   ===========================");
 670              		.loc 2 26 11 is_stmt 0
 671 03fc 1305A004 		li	a0,74
 672 0400 97000000 		call	_Z6putInti@plt
 672      E7800000 
 673              	.LVL73:
  27:src/../h/../h/my_console.h ****     putNewline();
 674              		.loc 2 27 5 is_stmt 1
  27:src/../h/../h/my_console.h ****     putNewline();
 675              		.loc 2 27 14 is_stmt 0
 676 0408 17050000 		lla	a0,.LC3
 676      13050500 
 677 0410 97000000 		call	_Z9putStringPKc@plt
 677      E7800000 
 678              	.LVL74:
  28:src/../h/../h/my_console.h **** 
 679              		.loc 2 28 5 is_stmt 1
  28:src/../h/../h/my_console.h **** 
 680              		.loc 2 28 15 is_stmt 0
 681 0418 97000000 		call	_Z10putNewlinev@plt
 681      E7800000 
GAS LISTING /tmp/ccV7gVvf.s 			page 18


 682              	.LVL75:
 683              		.loc 2 30 5 is_stmt 1
 684              		.loc 2 30 15 is_stmt 0
 685 0420 97000000 		call	_Z10stopKernelv@plt
 685      E7800000 
 686              	.LVL76:
 687              	.LBE65:
 688              	.LBE64:
  76:src/thread.cpp ****     assert(Thread::pRunning->state == RUNNING); // ??
 689              		.loc 1 76 5 is_stmt 1
 690 0428 97070000 		ld	a5,.LANCHOR0
 690      83B70700 
 691 0430 83A70700 		lw	a5,0(a5)
 692              	.LVL77:
 693              	.LBB66:
 694              	.LBB67:
  20:src/../h/../h/my_console.h ****         return;
 695              		.loc 2 20 5
 696 0434 63940702 		bnez	a5,.L43
 697              	.LVL78:
 698              	.L41:
 699              	.LBE67:
 700              	.LBE66:
  77:src/thread.cpp ****     Thread::pRunning->deleteThread(); // ??
 701              		.loc 1 77 5
  77:src/thread.cpp ****     Thread::pRunning->deleteThread(); // ??
 702              		.loc 1 77 35 is_stmt 0
 703 0438 17050000 		ld	a0,.LANCHOR0
 703      03350500 
 704 0440 97000000 		call	_ZN6Thread12deleteThreadEv
 704      E7800000 
 705              	.LVL79:
  79:src/thread.cpp ****     return 0;
 706              		.loc 1 79 5 is_stmt 1
  80:src/thread.cpp **** }
 707              		.loc 1 80 1 is_stmt 0
 708 0448 13050000 		li	a0,0
 709 044c 83308100 		ld	ra,8(sp)
 710              		.cfi_remember_state
 711              		.cfi_restore 1
 712 0450 03340100 		ld	s0,0(sp)
 713              		.cfi_restore 8
 714              		.cfi_def_cfa 2, 16
 715 0454 13010101 		addi	sp,sp,16
 716              		.cfi_def_cfa_offset 0
 717 0458 67800000 		jr	ra
 718              	.LVL80:
 719              	.L43:
 720              		.cfi_restore_state
 721              	.LBB69:
 722              	.LBB68:
  23:src/../h/../h/my_console.h ****     putString(file);
 723              		.loc 2 23 5 is_stmt 1
  23:src/../h/../h/my_console.h ****     putString(file);
 724              		.loc 2 23 14 is_stmt 0
 725 045c 17050000 		lla	a0,.LC0
 725      13050500 
GAS LISTING /tmp/ccV7gVvf.s 			page 19


 726 0464 97000000 		call	_Z9putStringPKc@plt
 726      E7800000 
 727              	.LVL81:
  24:src/../h/../h/my_console.h ****     putString("    line: ");
 728              		.loc 2 24 5 is_stmt 1
  24:src/../h/../h/my_console.h ****     putString("    line: ");
 729              		.loc 2 24 14 is_stmt 0
 730 046c 17050000 		lla	a0,.LC1
 730      13050500 
 731 0474 97000000 		call	_Z9putStringPKc@plt
 731      E7800000 
 732              	.LVL82:
  25:src/../h/../h/my_console.h ****     putInt(line);
 733              		.loc 2 25 5 is_stmt 1
  25:src/../h/../h/my_console.h ****     putInt(line);
 734              		.loc 2 25 14 is_stmt 0
 735 047c 17050000 		lla	a0,.LC2
 735      13050500 
 736 0484 97000000 		call	_Z9putStringPKc@plt
 736      E7800000 
 737              	.LVL83:
  26:src/../h/../h/my_console.h ****     putString("   ===========================");
 738              		.loc 2 26 5 is_stmt 1
  26:src/../h/../h/my_console.h ****     putString("   ===========================");
 739              		.loc 2 26 11 is_stmt 0
 740 048c 1305C004 		li	a0,76
 741 0490 97000000 		call	_Z6putInti@plt
 741      E7800000 
 742              	.LVL84:
  27:src/../h/../h/my_console.h ****     putNewline();
 743              		.loc 2 27 5 is_stmt 1
  27:src/../h/../h/my_console.h ****     putNewline();
 744              		.loc 2 27 14 is_stmt 0
 745 0498 17050000 		lla	a0,.LC3
 745      13050500 
 746 04a0 97000000 		call	_Z9putStringPKc@plt
 746      E7800000 
 747              	.LVL85:
  28:src/../h/../h/my_console.h **** 
 748              		.loc 2 28 5 is_stmt 1
  28:src/../h/../h/my_console.h **** 
 749              		.loc 2 28 15 is_stmt 0
 750 04a8 97000000 		call	_Z10putNewlinev@plt
 750      E7800000 
 751              	.LVL86:
 752              		.loc 2 30 5 is_stmt 1
 753              		.loc 2 30 15 is_stmt 0
 754 04b0 97000000 		call	_Z10stopKernelv@plt
 754      E7800000 
 755              	.LVL87:
 756 04b8 6FF01FF8 		j	.L41
 757              	.LBE68:
 758              	.LBE69:
 759              		.cfi_endproc
 760              	.LFE20:
 762              		.align	2
 763              		.globl	_Z7wrapperPFvPvES_
GAS LISTING /tmp/ccV7gVvf.s 			page 20


 765              	_Z7wrapperPFvPvES_:
 766              	.LFB15:
  28:src/thread.cpp **** {
 767              		.loc 1 28 1 is_stmt 1
 768              		.cfi_startproc
 769              	.LVL88:
 770 04bc 130101FF 		addi	sp,sp,-16
 771              		.cfi_def_cfa_offset 16
 772 04c0 23341100 		sd	ra,8(sp)
 773 04c4 23308100 		sd	s0,0(sp)
 774              		.cfi_offset 1, -8
 775              		.cfi_offset 8, -16
 776 04c8 13040101 		addi	s0,sp,16
 777              		.cfi_def_cfa 8, 0
 778 04cc 93070500 		mv	a5,a0
  29:src/thread.cpp ****     (*body)(arg);
 779              		.loc 1 29 5
  29:src/thread.cpp ****     (*body)(arg);
 780              		.loc 1 29 12 is_stmt 0
 781 04d0 13850500 		mv	a0,a1
 782              	.LVL89:
 783 04d4 E7800700 		jalr	a5
 784              	.LVL90:
  30:src/thread.cpp ****     Thread::exit(); // TODO: turn into system call
 785              		.loc 1 30 5 is_stmt 1
  30:src/thread.cpp ****     Thread::exit(); // TODO: turn into system call
 786              		.loc 1 30 17 is_stmt 0
 787 04d8 97000000 		call	_ZN6Thread4exitEv
 787      E7800000 
 788              	.LVL91:
  31:src/thread.cpp **** }
 789              		.loc 1 31 1
 790 04e0 83308100 		ld	ra,8(sp)
 791              		.cfi_restore 1
 792 04e4 03340100 		ld	s0,0(sp)
 793              		.cfi_restore 8
 794              		.cfi_def_cfa 2, 16
 795 04e8 13010101 		addi	sp,sp,16
 796              		.cfi_def_cfa_offset 0
 797 04ec 67800000 		jr	ra
 798              		.cfi_endproc
 799              	.LFE15:
 801              		.globl	_ZN6Thread16userThreadExistsE
 802              		.globl	_ZN6Thread15pRunningContextE
 803              		.globl	_ZN6Thread8pRunningE
 804              		.globl	_ZN6Thread16timeSliceCounterE
 805              		.weak	_ZZN6Thread13getAllThreadsEvE10allThreads
 806              		.section	.bss._ZZN6Thread13getAllThreadsEvE10allThreads,"awG",@nobits,_ZZN6Thread13getAllThreadsEv
 807              		.align	3
 810              	_ZZN6Thread13getAllThreadsEvE10allThreads:
 811 0000 00000000 		.zero	80
 811      00000000 
 811      00000000 
 811      00000000 
 811      00000000 
 812              		.weak	_ZZN6Thread13getAllThreadsEvE9firstCall
 813              		.section	.data._ZZN6Thread13getAllThreadsEvE9firstCall,"awG",@progbits,_ZZN6Thread13getAllThreadsE
GAS LISTING /tmp/ccV7gVvf.s 			page 21


 816              	_ZZN6Thread13getAllThreadsEvE9firstCall:
 817 0000 01       		.byte	1
 818              		.bss
 819              		.align	3
 820              		.set	.LANCHOR0,. + 0
 823              	_ZN6Thread8pRunningE:
 824 0000 00000000 		.zero	8
 824      00000000 
 827              	_ZN6Thread15pRunningContextE:
 828 0008 00000000 		.zero	8
 828      00000000 
 831              	_ZN6Thread16userThreadExistsE:
 832 0010 00       		.zero	1
 833 0011 00000000 		.zero	7
 833      000000
 836              	_ZN6Thread16timeSliceCounterE:
 837 0018 00000000 		.zero	8
 837      00000000 
 838              		.text
 839              	.Letext0:
 840              		.file 4 "src/../h/../lib/hw.h"
 841              		.file 5 "src/../h/alloc.h"
 842              		.file 6 "src/../h/scheduler.h"
 843              		.file 7 "src/../h/../h/cpp_api.h"
 4416              		.align	3
 4419              	DW.ref.__gxx_personality_v0:
 4420 0000 00000000 		.dword	__gxx_personality_v0
 4420      00000000 
 4421              		.ident	"GCC: (Ubuntu 9.4.0-1ubuntu1~20.04) 9.4.0"
 4422              		.section	.note.GNU-stack,"",@progbits
GAS LISTING /tmp/ccV7gVvf.s 			page 22


DEFINED SYMBOLS
                            *ABS*:0000000000000000 thread.cpp
     /tmp/ccV7gVvf.s:9      .text:0000000000000000 _ZN6Thread11setPRunningEPS_
     /tmp/ccV7gVvf.s:13     .text:0000000000000000 .L0 
     /tmp/ccV7gVvf.s:15     .text:0000000000000000 .L0 
     /tmp/ccV7gVvf.s:16     .text:0000000000000004 .L0 
     /tmp/ccV7gVvf.s:18     .text:0000000000000008 .L0 
     /tmp/ccV7gVvf.s:20     .text:000000000000000c .L0 
     /tmp/ccV7gVvf.s:22     .text:000000000000000c .L0 
     /tmp/ccV7gVvf.s:23     .text:000000000000000c .L0 
     /tmp/ccV7gVvf.s:26     .text:0000000000000018 .L0 
     /tmp/ccV7gVvf.s:27     .text:0000000000000018 .L0 
     /tmp/ccV7gVvf.s:30     .text:000000000000001c .L0 
     /tmp/ccV7gVvf.s:32     .text:0000000000000020 .L0 
     /tmp/ccV7gVvf.s:33     .text:0000000000000024 .L0 
     /tmp/ccV7gVvf.s:34     .text:0000000000000024 .L0 
     /tmp/ccV7gVvf.s:36     .text:0000000000000028 .L0 
     /tmp/ccV7gVvf.s:38     .text:000000000000002c .L0 
     /tmp/ccV7gVvf.s:44     .text:000000000000002c _Z10allocStackPv
     /tmp/ccV7gVvf.s:47     .text:000000000000002c .L0 
     /tmp/ccV7gVvf.s:49     .text:000000000000002c .L0 
     /tmp/ccV7gVvf.s:50     .text:000000000000002c .L0 
     /tmp/ccV7gVvf.s:52     .text:0000000000000030 .L0 
     /tmp/ccV7gVvf.s:55     .text:0000000000000034 .L0 
     /tmp/ccV7gVvf.s:56     .text:0000000000000038 .L0 
     /tmp/ccV7gVvf.s:59     .text:0000000000000040 .L0 
     /tmp/ccV7gVvf.s:60     .text:0000000000000040 .L0 
     /tmp/ccV7gVvf.s:62     .text:0000000000000044 .L0 
     /tmp/ccV7gVvf.s:64     .text:0000000000000044 .L0 
     /tmp/ccV7gVvf.s:65     .text:0000000000000044 .L0 
     /tmp/ccV7gVvf.s:71     .text:0000000000000058 .L0 
     /tmp/ccV7gVvf.s:74     .text:0000000000000060 .L0 
     /tmp/ccV7gVvf.s:75     .text:0000000000000064 .L0 
     /tmp/ccV7gVvf.s:77     .text:0000000000000068 .L0 
     /tmp/ccV7gVvf.s:78     .text:0000000000000068 .L0 
     /tmp/ccV7gVvf.s:80     .text:000000000000006c .L0 
     /tmp/ccV7gVvf.s:82     .text:0000000000000070 .L0 
     /tmp/ccV7gVvf.s:102    .text:0000000000000070 _ZN6ThreadC2EPFvPvES0_S0_
     /tmp/ccV7gVvf.s:105    .text:0000000000000070 .L0 
     /tmp/ccV7gVvf.s:107    .text:0000000000000070 .L0 
     /tmp/ccV7gVvf.s:108    .text:0000000000000074 .L0 
     /tmp/ccV7gVvf.s:113    .text:0000000000000084 .L0 
     /tmp/ccV7gVvf.s:114    .text:0000000000000084 .L0 
     /tmp/ccV7gVvf.s:115    .text:0000000000000084 .L0 
     /tmp/ccV7gVvf.s:116    .text:0000000000000084 .L0 
     /tmp/ccV7gVvf.s:118    .text:0000000000000088 .L0 
     /tmp/ccV7gVvf.s:123    .text:0000000000000090 .L0 
     /tmp/ccV7gVvf.s:124    .text:0000000000000090 .L0 
     /tmp/ccV7gVvf.s:129    .text:000000000000009c .L0 
     /tmp/ccV7gVvf.s:131    .text:00000000000000a0 .L0 
     /tmp/ccV7gVvf.s:137    .text:00000000000000a4 .L0 
     /tmp/ccV7gVvf.s:143    .text:00000000000000a8 .L0 
     /tmp/ccV7gVvf.s:144    .text:00000000000000a8 .L0 
     /tmp/ccV7gVvf.s:145    .text:00000000000000a8 .L0 
     /tmp/ccV7gVvf.s:148    .text:00000000000000b0 .L0 
     /tmp/ccV7gVvf.s:149    .text:00000000000000b0 .L0 
     /tmp/ccV7gVvf.s:151    .text:00000000000000b4 .L0 
GAS LISTING /tmp/ccV7gVvf.s 			page 23


     /tmp/ccV7gVvf.s:152    .text:00000000000000b4 .L0 
     /tmp/ccV7gVvf.s:155    .text:00000000000000c0 .L0 
     /tmp/ccV7gVvf.s:156    .text:00000000000000c0 .L0 
     /tmp/ccV7gVvf.s:158    .text:00000000000000c4 .L0 
     /tmp/ccV7gVvf.s:160    .text:00000000000000c8 .L0 
     /tmp/ccV7gVvf.s:161    .text:00000000000000c8 .L0 
     /tmp/ccV7gVvf.s:163    .text:00000000000000cc .L0 
     /tmp/ccV7gVvf.s:164    .text:00000000000000cc .L0 
     /tmp/ccV7gVvf.s:167    .text:00000000000000d0 .L0 
     /tmp/ccV7gVvf.s:168    .text:00000000000000d4 .L0 
     /tmp/ccV7gVvf.s:169    .text:00000000000000d4 .L0 
     /tmp/ccV7gVvf.s:171    .text:00000000000000d8 .L0 
     /tmp/ccV7gVvf.s:172    .text:00000000000000d8 .L0 
     /tmp/ccV7gVvf.s:174    .text:00000000000000dc .L0 
     /tmp/ccV7gVvf.s:177    .text:00000000000000e0 .L0 
     /tmp/ccV7gVvf.s:180    .text:00000000000000e4 .L0 
     /tmp/ccV7gVvf.s:184    .text:00000000000000e8 .L0 
     /tmp/ccV7gVvf.s:189    .text:00000000000000e8 .L0 
     /tmp/ccV7gVvf.s:190    .text:00000000000000e8 .L0 
     /tmp/ccV7gVvf.s:195    .text:00000000000000f8 .L0 
     /tmp/ccV7gVvf.s:196    .text:00000000000000f8 .L0 
     /tmp/ccV7gVvf.s:200    .text:0000000000000108 .L0 
     /tmp/ccV7gVvf.s:201    .text:0000000000000108 .L0 
     /tmp/ccV7gVvf.s:205    .text:0000000000000118 .L0 
     /tmp/ccV7gVvf.s:206    .text:0000000000000118 .L0 
     /tmp/ccV7gVvf.s:210    .text:0000000000000124 .L0 
     /tmp/ccV7gVvf.s:211    .text:0000000000000124 .L0 
     /tmp/ccV7gVvf.s:215    .text:0000000000000134 .L0 
     /tmp/ccV7gVvf.s:216    .text:0000000000000134 .L0 
     /tmp/ccV7gVvf.s:219    .text:000000000000013c .L0 
     /tmp/ccV7gVvf.s:220    .text:000000000000013c .L0 
     /tmp/ccV7gVvf.s:226    .text:0000000000000148 .L0 
     /tmp/ccV7gVvf.s:102    .text:0000000000000070 _ZN6ThreadC1EPFvPvES0_S0_
     /tmp/ccV7gVvf.s:234    .text:0000000000000148 _ZN6Thread12createThreadEPPS_PFvPvES2_S2_
     /tmp/ccV7gVvf.s:237    .text:0000000000000148 .L0 
     /tmp/ccV7gVvf.s:4419   .data.rel.local.DW.ref.__gxx_personality_v0:0000000000000000 DW.ref.__gxx_personality_v0
     /tmp/ccV7gVvf.s:241    .text:0000000000000148 .L0 
     /tmp/ccV7gVvf.s:242    .text:000000000000014c .L0 
     /tmp/ccV7gVvf.s:249    .text:0000000000000164 .L0 
     /tmp/ccV7gVvf.s:250    .text:0000000000000164 .L0 
     /tmp/ccV7gVvf.s:251    .text:0000000000000164 .L0 
     /tmp/ccV7gVvf.s:252    .text:0000000000000164 .L0 
     /tmp/ccV7gVvf.s:253    .text:0000000000000164 .L0 
     /tmp/ccV7gVvf.s:254    .text:0000000000000164 .L0 
     /tmp/ccV7gVvf.s:256    .text:0000000000000168 .L0 
     /tmp/ccV7gVvf.s:261    .text:0000000000000174 .L0 
     /tmp/ccV7gVvf.s:262    .text:0000000000000174 .L0 
     /tmp/ccV7gVvf.s:277    .text:0000000000000198 .L0 
     /tmp/ccV7gVvf.s:278    .text:0000000000000198 .L0 
     /tmp/ccV7gVvf.s:283    .text:00000000000001a4 .L0 
     /tmp/ccV7gVvf.s:285    .text:00000000000001a4 .L0 
     /tmp/ccV7gVvf.s:286    .text:00000000000001a4 .L0 
     /tmp/ccV7gVvf.s:296    .text:00000000000001ac .L0 
     /tmp/ccV7gVvf.s:816    .data._ZZN6Thread13getAllThreadsEvE9firstCall:0000000000000000 _ZZN6Thread13getAllThreadsEvE9firstCall
     /tmp/ccV7gVvf.s:297    .text:00000000000001ac .L0 
     /tmp/ccV7gVvf.s:305    .text:00000000000001b4 .L0 
     /tmp/ccV7gVvf.s:306    .text:00000000000001b4 .L0 
GAS LISTING /tmp/ccV7gVvf.s 			page 24


     /tmp/ccV7gVvf.s:810    .bss._ZZN6Thread13getAllThreadsEvE10allThreads:0000000000000000 _ZZN6Thread13getAllThreadsEvE10allThreads
     /tmp/ccV7gVvf.s:311    .text:00000000000001c8 .L0 
     /tmp/ccV7gVvf.s:313    .text:00000000000001cc .L0 
     /tmp/ccV7gVvf.s:317    .text:00000000000001d0 .L0 
     /tmp/ccV7gVvf.s:322    .text:00000000000001d8 .L0 
     /tmp/ccV7gVvf.s:323    .text:00000000000001d8 .L0 
     /tmp/ccV7gVvf.s:324    .text:00000000000001d8 .L0 
     /tmp/ccV7gVvf.s:326    .text:00000000000001d8 .L0 
     /tmp/ccV7gVvf.s:331    .text:00000000000001e4 .L0 
     /tmp/ccV7gVvf.s:335    .text:00000000000001e8 .L0 
     /tmp/ccV7gVvf.s:338    .text:00000000000001f0 .L0 
     /tmp/ccV7gVvf.s:339    .text:00000000000001f0 .L0 
     /tmp/ccV7gVvf.s:344    .text:0000000000000204 .L0 
     /tmp/ccV7gVvf.s:356    .text:000000000000020c .L0 
     /tmp/ccV7gVvf.s:357    .text:000000000000020c .L0 
     /tmp/ccV7gVvf.s:358    .text:000000000000020c .L0 
     /tmp/ccV7gVvf.s:360    .text:000000000000020c .L0 
     /tmp/ccV7gVvf.s:365    .text:0000000000000218 .L0 
     /tmp/ccV7gVvf.s:369    .text:000000000000021c .L0 
     /tmp/ccV7gVvf.s:372    .text:0000000000000224 .L0 
     /tmp/ccV7gVvf.s:373    .text:0000000000000224 .L0 
     /tmp/ccV7gVvf.s:378    .text:0000000000000238 .L0 
     /tmp/ccV7gVvf.s:385    .text:0000000000000240 .L0 
     /tmp/ccV7gVvf.s:386    .text:0000000000000240 .L0 
     /tmp/ccV7gVvf.s:394    .text:0000000000000248 .L0 
     /tmp/ccV7gVvf.s:395    .text:0000000000000248 .L0 
     /tmp/ccV7gVvf.s:398    .text:000000000000024c .L0 
     /tmp/ccV7gVvf.s:399    .text:000000000000024c .L0 
     /tmp/ccV7gVvf.s:400    .text:000000000000024c .L0 
     /tmp/ccV7gVvf.s:403    .text:0000000000000250 .L0 
     /tmp/ccV7gVvf.s:408    .text:0000000000000254 .L0 
     /tmp/ccV7gVvf.s:414    .text:0000000000000258 .L0 
     /tmp/ccV7gVvf.s:415    .text:0000000000000258 .L0 
     /tmp/ccV7gVvf.s:421    .text:000000000000025c .L0 
     /tmp/ccV7gVvf.s:423    .text:0000000000000264 .L0 
     /tmp/ccV7gVvf.s:424    .text:0000000000000264 .L0 
     /tmp/ccV7gVvf.s:426    .text:0000000000000268 .L0 
     /tmp/ccV7gVvf.s:427    .text:0000000000000268 .L0 
     /tmp/ccV7gVvf.s:429    .text:000000000000026c .L0 
     /tmp/ccV7gVvf.s:432    .text:0000000000000270 .L0 
     /tmp/ccV7gVvf.s:435    .text:0000000000000274 .L0 
     /tmp/ccV7gVvf.s:438    .text:0000000000000278 .L0 
     /tmp/ccV7gVvf.s:441    .text:000000000000027c .L0 
     /tmp/ccV7gVvf.s:445    .text:0000000000000280 .L0 
     /tmp/ccV7gVvf.s:449    .text:0000000000000280 .L0 
     /tmp/ccV7gVvf.s:450    .text:0000000000000280 .L0 
     /tmp/ccV7gVvf.s:454    .text:0000000000000290 .L0 
     /tmp/ccV7gVvf.s:455    .text:0000000000000290 .L0 
     /tmp/ccV7gVvf.s:459    .text:00000000000002a0 .L0 
     /tmp/ccV7gVvf.s:460    .text:00000000000002a0 .L0 
     /tmp/ccV7gVvf.s:464    .text:00000000000002b0 .L0 
     /tmp/ccV7gVvf.s:465    .text:00000000000002b0 .L0 
     /tmp/ccV7gVvf.s:469    .text:00000000000002bc .L0 
     /tmp/ccV7gVvf.s:470    .text:00000000000002bc .L0 
     /tmp/ccV7gVvf.s:474    .text:00000000000002cc .L0 
     /tmp/ccV7gVvf.s:475    .text:00000000000002cc .L0 
     /tmp/ccV7gVvf.s:478    .text:00000000000002d4 .L0 
GAS LISTING /tmp/ccV7gVvf.s 			page 25


     /tmp/ccV7gVvf.s:479    .text:00000000000002d4 .L0 
     /tmp/ccV7gVvf.s:485    .text:00000000000002dc .L0 
     /tmp/ccV7gVvf.s:486    .text:00000000000002dc .L0 
     /tmp/ccV7gVvf.s:492    .text:00000000000002e4 .L0 
     /tmp/ccV7gVvf.s:500    .text:00000000000002fc .L0 
     /tmp/ccV7gVvf.s:530    .text:00000000000002fc _ZN6Thread12deleteThreadEv
     /tmp/ccV7gVvf.s:533    .text:00000000000002fc .L0 
     /tmp/ccV7gVvf.s:535    .text:00000000000002fc .L0 
     /tmp/ccV7gVvf.s:536    .text:0000000000000300 .L0 
     /tmp/ccV7gVvf.s:540    .text:000000000000030c .L0 
     /tmp/ccV7gVvf.s:541    .text:000000000000030c .L0 
     /tmp/ccV7gVvf.s:542    .text:000000000000030c .L0 
     /tmp/ccV7gVvf.s:544    .text:0000000000000310 .L0 
     /tmp/ccV7gVvf.s:547    .text:0000000000000314 .L0 
     /tmp/ccV7gVvf.s:551    .text:0000000000000320 .L0 
     /tmp/ccV7gVvf.s:554    .text:0000000000000328 .L0 
     /tmp/ccV7gVvf.s:560    .text:000000000000032c .L0 
     /tmp/ccV7gVvf.s:566    .text:0000000000000330 .L0 
     /tmp/ccV7gVvf.s:567    .text:0000000000000330 .L0 
     /tmp/ccV7gVvf.s:570    .text:0000000000000338 .L0 
     /tmp/ccV7gVvf.s:571    .text:000000000000033c .L0 
     /tmp/ccV7gVvf.s:572    .text:000000000000033c .L0 
     /tmp/ccV7gVvf.s:574    .text:0000000000000340 .L0 
     /tmp/ccV7gVvf.s:575    .text:0000000000000340 .L0 
     /tmp/ccV7gVvf.s:577    .text:0000000000000344 .L0 
     /tmp/ccV7gVvf.s:580    .text:0000000000000348 .L0 
     /tmp/ccV7gVvf.s:584    .text:000000000000034c .L0 
     /tmp/ccV7gVvf.s:586    .text:000000000000034c .L0 
     /tmp/ccV7gVvf.s:596    .text:000000000000035c .L0 
     /tmp/ccV7gVvf.s:597    .text:000000000000035c .L0 
     /tmp/ccV7gVvf.s:601    .text:000000000000036c .L0 
     /tmp/ccV7gVvf.s:602    .text:000000000000036c .L0 
     /tmp/ccV7gVvf.s:606    .text:000000000000037c .L0 
     /tmp/ccV7gVvf.s:607    .text:000000000000037c .L0 
     /tmp/ccV7gVvf.s:611    .text:000000000000038c .L0 
     /tmp/ccV7gVvf.s:612    .text:000000000000038c .L0 
     /tmp/ccV7gVvf.s:616    .text:0000000000000398 .L0 
     /tmp/ccV7gVvf.s:617    .text:0000000000000398 .L0 
     /tmp/ccV7gVvf.s:621    .text:00000000000003a8 .L0 
     /tmp/ccV7gVvf.s:622    .text:00000000000003a8 .L0 
     /tmp/ccV7gVvf.s:625    .text:00000000000003b0 .L0 
     /tmp/ccV7gVvf.s:626    .text:00000000000003b0 .L0 
     /tmp/ccV7gVvf.s:631    .text:00000000000003bc .L0 
     /tmp/ccV7gVvf.s:637    .text:00000000000003bc _ZN6Thread4exitEv
     /tmp/ccV7gVvf.s:640    .text:00000000000003bc .L0 
     /tmp/ccV7gVvf.s:641    .text:00000000000003bc .L0 
     /tmp/ccV7gVvf.s:642    .text:00000000000003c0 .L0 
     /tmp/ccV7gVvf.s:645    .text:00000000000003c8 .L0 
     /tmp/ccV7gVvf.s:646    .text:00000000000003c8 .L0 
     /tmp/ccV7gVvf.s:648    .text:00000000000003cc .L0 
     /tmp/ccV7gVvf.s:653    .text:00000000000003cc .L0 
     /tmp/ccV7gVvf.s:654    .text:00000000000003cc .L0 
     /tmp/ccV7gVvf.s:655    .text:00000000000003cc .L0 
     /tmp/ccV7gVvf.s:656    .text:00000000000003cc .L0 
     /tmp/ccV7gVvf.s:660    .text:00000000000003dc .L0 
     /tmp/ccV7gVvf.s:661    .text:00000000000003dc .L0 
     /tmp/ccV7gVvf.s:665    .text:00000000000003ec .L0 
GAS LISTING /tmp/ccV7gVvf.s 			page 26


     /tmp/ccV7gVvf.s:666    .text:00000000000003ec .L0 
     /tmp/ccV7gVvf.s:670    .text:00000000000003fc .L0 
     /tmp/ccV7gVvf.s:671    .text:00000000000003fc .L0 
     /tmp/ccV7gVvf.s:675    .text:0000000000000408 .L0 
     /tmp/ccV7gVvf.s:676    .text:0000000000000408 .L0 
     /tmp/ccV7gVvf.s:680    .text:0000000000000418 .L0 
     /tmp/ccV7gVvf.s:681    .text:0000000000000418 .L0 
     /tmp/ccV7gVvf.s:684    .text:0000000000000420 .L0 
     /tmp/ccV7gVvf.s:685    .text:0000000000000420 .L0 
     /tmp/ccV7gVvf.s:690    .text:0000000000000428 .L0 
     /tmp/ccV7gVvf.s:696    .text:0000000000000434 .L0 
     /tmp/ccV7gVvf.s:702    .text:0000000000000438 .L0 
     /tmp/ccV7gVvf.s:703    .text:0000000000000438 .L0 
     /tmp/ccV7gVvf.s:707    .text:0000000000000448 .L0 
     /tmp/ccV7gVvf.s:708    .text:0000000000000448 .L0 
     /tmp/ccV7gVvf.s:710    .text:0000000000000450 .L0 
     /tmp/ccV7gVvf.s:711    .text:0000000000000450 .L0 
     /tmp/ccV7gVvf.s:713    .text:0000000000000454 .L0 
     /tmp/ccV7gVvf.s:714    .text:0000000000000454 .L0 
     /tmp/ccV7gVvf.s:716    .text:0000000000000458 .L0 
     /tmp/ccV7gVvf.s:720    .text:000000000000045c .L0 
     /tmp/ccV7gVvf.s:724    .text:000000000000045c .L0 
     /tmp/ccV7gVvf.s:725    .text:000000000000045c .L0 
     /tmp/ccV7gVvf.s:729    .text:000000000000046c .L0 
     /tmp/ccV7gVvf.s:730    .text:000000000000046c .L0 
     /tmp/ccV7gVvf.s:734    .text:000000000000047c .L0 
     /tmp/ccV7gVvf.s:735    .text:000000000000047c .L0 
     /tmp/ccV7gVvf.s:739    .text:000000000000048c .L0 
     /tmp/ccV7gVvf.s:740    .text:000000000000048c .L0 
     /tmp/ccV7gVvf.s:744    .text:0000000000000498 .L0 
     /tmp/ccV7gVvf.s:745    .text:0000000000000498 .L0 
     /tmp/ccV7gVvf.s:749    .text:00000000000004a8 .L0 
     /tmp/ccV7gVvf.s:750    .text:00000000000004a8 .L0 
     /tmp/ccV7gVvf.s:753    .text:00000000000004b0 .L0 
     /tmp/ccV7gVvf.s:754    .text:00000000000004b0 .L0 
     /tmp/ccV7gVvf.s:759    .text:00000000000004bc .L0 
     /tmp/ccV7gVvf.s:765    .text:00000000000004bc _Z7wrapperPFvPvES_
     /tmp/ccV7gVvf.s:768    .text:00000000000004bc .L0 
     /tmp/ccV7gVvf.s:770    .text:00000000000004bc .L0 
     /tmp/ccV7gVvf.s:771    .text:00000000000004c0 .L0 
     /tmp/ccV7gVvf.s:774    .text:00000000000004c8 .L0 
     /tmp/ccV7gVvf.s:775    .text:00000000000004c8 .L0 
     /tmp/ccV7gVvf.s:777    .text:00000000000004cc .L0 
     /tmp/ccV7gVvf.s:780    .text:00000000000004d0 .L0 
     /tmp/ccV7gVvf.s:781    .text:00000000000004d0 .L0 
     /tmp/ccV7gVvf.s:786    .text:00000000000004d8 .L0 
     /tmp/ccV7gVvf.s:787    .text:00000000000004d8 .L0 
     /tmp/ccV7gVvf.s:790    .text:00000000000004e0 .L0 
     /tmp/ccV7gVvf.s:791    .text:00000000000004e4 .L0 
     /tmp/ccV7gVvf.s:793    .text:00000000000004e8 .L0 
     /tmp/ccV7gVvf.s:794    .text:00000000000004e8 .L0 
     /tmp/ccV7gVvf.s:796    .text:00000000000004ec .L0 
     /tmp/ccV7gVvf.s:798    .text:00000000000004f0 .L0 
     /tmp/ccV7gVvf.s:831    .bss:0000000000000010 _ZN6Thread16userThreadExistsE
     /tmp/ccV7gVvf.s:827    .bss:0000000000000008 _ZN6Thread15pRunningContextE
     /tmp/ccV7gVvf.s:823    .bss:0000000000000000 _ZN6Thread8pRunningE
     /tmp/ccV7gVvf.s:836    .bss:0000000000000018 _ZN6Thread16timeSliceCounterE
GAS LISTING /tmp/ccV7gVvf.s 			page 27


     /tmp/ccV7gVvf.s:820    .bss:0000000000000000 .LANCHOR0
     /tmp/ccV7gVvf.s:844    .text:00000000000004f0 .L0 
     /tmp/ccV7gVvf.s:23     .text:000000000000000c .L0 
     /tmp/ccV7gVvf.s:152    .text:00000000000000b4 .L0 
     /tmp/ccV7gVvf.s:87     .rodata.str1.8:0000000000000000 .LC0
     /tmp/ccV7gVvf.s:190    .text:00000000000000e8 .L0 
     /tmp/ccV7gVvf.s:90     .rodata.str1.8:0000000000000028 .LC1
     /tmp/ccV7gVvf.s:196    .text:00000000000000f8 .L0 
     /tmp/ccV7gVvf.s:93     .rodata.str1.8:0000000000000038 .LC2
     /tmp/ccV7gVvf.s:201    .text:0000000000000108 .L0 
     /tmp/ccV7gVvf.s:96     .rodata.str1.8:0000000000000048 .LC3
     /tmp/ccV7gVvf.s:211    .text:0000000000000124 .L0 
     /tmp/ccV7gVvf.s:297    .text:00000000000001ac .L0 
     /tmp/ccV7gVvf.s:307    .text:00000000000001b8 .L0 
     /tmp/ccV7gVvf.s:326    .text:00000000000001d8 .L0 
     /tmp/ccV7gVvf.s:340    .text:00000000000001f4 .L0 
     /tmp/ccV7gVvf.s:360    .text:000000000000020c .L0 
     /tmp/ccV7gVvf.s:374    .text:0000000000000228 .L0 
     /tmp/ccV7gVvf.s:386    .text:0000000000000240 .L0 
     /tmp/ccV7gVvf.s:450    .text:0000000000000280 .L0 
     /tmp/ccV7gVvf.s:455    .text:0000000000000290 .L0 
     /tmp/ccV7gVvf.s:460    .text:00000000000002a0 .L0 
     /tmp/ccV7gVvf.s:470    .text:00000000000002bc .L0 
     /tmp/ccV7gVvf.s:597    .text:000000000000035c .L0 
     /tmp/ccV7gVvf.s:602    .text:000000000000036c .L0 
     /tmp/ccV7gVvf.s:607    .text:000000000000037c .L0 
     /tmp/ccV7gVvf.s:617    .text:0000000000000398 .L0 
     /tmp/ccV7gVvf.s:656    .text:00000000000003cc .L0 
     /tmp/ccV7gVvf.s:661    .text:00000000000003dc .L0 
     /tmp/ccV7gVvf.s:666    .text:00000000000003ec .L0 
     /tmp/ccV7gVvf.s:676    .text:0000000000000408 .L0 
     /tmp/ccV7gVvf.s:690    .text:0000000000000428 .L0 
     /tmp/ccV7gVvf.s:703    .text:0000000000000438 .L0 
     /tmp/ccV7gVvf.s:725    .text:000000000000045c .L0 
     /tmp/ccV7gVvf.s:730    .text:000000000000046c .L0 
     /tmp/ccV7gVvf.s:735    .text:000000000000047c .L0 
     /tmp/ccV7gVvf.s:745    .text:0000000000000498 .L0 
     /tmp/ccV7gVvf.s:53     .text:0000000000000034 .L9
     /tmp/ccV7gVvf.s:183    .text:00000000000000e8 .L13
     /tmp/ccV7gVvf.s:139    .text:00000000000000a8 .L11
     /tmp/ccV7gVvf.s:315    .text:00000000000001d0 .L23
     /tmp/ccV7gVvf.s:347    .text:000000000000020c .L30
     /tmp/ccV7gVvf.s:405    .text:0000000000000254 .L26
     /tmp/ccV7gVvf.s:299    .text:00000000000001b4 .L16
     /tmp/ccV7gVvf.s:289    .text:00000000000001ac .L17
     /tmp/ccV7gVvf.s:332    .text:00000000000001e8 .L18
     /tmp/ccV7gVvf.s:388    .text:0000000000000248 .L20
     /tmp/ccV7gVvf.s:382    .text:0000000000000240 .L21
     /tmp/ccV7gVvf.s:367    .text:000000000000021c .L22
     /tmp/ccV7gVvf.s:410    .text:0000000000000258 .L15
     /tmp/ccV7gVvf.s:444    .text:0000000000000280 .L31
     /tmp/ccV7gVvf.s:417    .text:000000000000025c .L28
     /tmp/ccV7gVvf.s:588    .text:0000000000000354 .L35
     /tmp/ccV7gVvf.s:583    .text:000000000000034c .L38
     /tmp/ccV7gVvf.s:592    .text:000000000000035c .L39
     /tmp/ccV7gVvf.s:555    .text:000000000000032c .L33
     /tmp/ccV7gVvf.s:562    .text:0000000000000330 .L34
GAS LISTING /tmp/ccV7gVvf.s 			page 28


     /tmp/ccV7gVvf.s:719    .text:000000000000045c .L43
     /tmp/ccV7gVvf.s:698    .text:0000000000000438 .L41
     /tmp/ccV7gVvf.s:264    .text:0000000000000178 .LEHB0
     /tmp/ccV7gVvf.s:235    .text:0000000000000148 .LFB19
     /tmp/ccV7gVvf.s:267    .text:0000000000000180 .LEHE0
     /tmp/ccV7gVvf.s:272    .text:0000000000000190 .LEHB1
     /tmp/ccV7gVvf.s:275    .text:0000000000000198 .LEHE1
     /tmp/ccV7gVvf.s:488    .text:00000000000002e0 .L27
     /tmp/ccV7gVvf.s:279    .text:000000000000019c .LEHB2
     /tmp/ccV7gVvf.s:481    .text:00000000000002dc .LEHE2
     /tmp/ccV7gVvf.s:496    .text:00000000000002f4 .LEHB3
     /tmp/ccV7gVvf.s:499    .text:00000000000002fc .LEHE3
     /tmp/ccV7gVvf.s:2408   .debug_abbrev:0000000000000000 .Ldebug_abbrev0
     /tmp/ccV7gVvf.s:4377   .debug_str:0000000000000608 .LASF110
     /tmp/ccV7gVvf.s:4195   .debug_str:00000000000000dc .LASF111
     /tmp/ccV7gVvf.s:4339   .debug_str:00000000000004fd .LASF112
     /tmp/ccV7gVvf.s:5      .text:0000000000000000 .Ltext0
     /tmp/ccV7gVvf.s:839    .text:00000000000004f0 .Letext0
     /tmp/ccV7gVvf.s:4163   .debug_line:0000000000000000 .Ldebug_line0
     /tmp/ccV7gVvf.s:4305   .debug_str:000000000000040e .LASF0
     /tmp/ccV7gVvf.s:4315   .debug_str:0000000000000446 .LASF1
     /tmp/ccV7gVvf.s:4283   .debug_str:0000000000000368 .LASF2
     /tmp/ccV7gVvf.s:4251   .debug_str:000000000000027e .LASF4
     /tmp/ccV7gVvf.s:4359   .debug_str:0000000000000585 .LASF3
     /tmp/ccV7gVvf.s:4191   .debug_str:00000000000000c5 .LASF5
     /tmp/ccV7gVvf.s:4319   .debug_str:0000000000000460 .LASF6
     /tmp/ccV7gVvf.s:4303   .debug_str:00000000000003fb .LASF7
     /tmp/ccV7gVvf.s:4385   .debug_str:00000000000006f3 .LASF8
     /tmp/ccV7gVvf.s:4233   .debug_str:00000000000001fd .LASF9
     /tmp/ccV7gVvf.s:4333   .debug_str:00000000000004a8 .LASF10
     /tmp/ccV7gVvf.s:4379   .debug_str:00000000000006cc .LASF11
     /tmp/ccV7gVvf.s:4193   .debug_str:00000000000000cc .LASF12
     /tmp/ccV7gVvf.s:4173   .debug_str:000000000000004e .LASF13
     /tmp/ccV7gVvf.s:4203   .debug_str:0000000000000126 .LASF14
     /tmp/ccV7gVvf.s:4353   .debug_str:000000000000055e .LASF15
     /tmp/ccV7gVvf.s:4215   .debug_str:000000000000016a .LASF16
     /tmp/ccV7gVvf.s:4165   .debug_str:0000000000000000 .LASF17
     /tmp/ccV7gVvf.s:4381   .debug_str:00000000000006db .LASF45
     /tmp/ccV7gVvf.s:4237   .debug_str:0000000000000211 .LASF113
     /tmp/ccV7gVvf.s:4325   .debug_str:0000000000000484 .LASF18
     /tmp/ccV7gVvf.s:4295   .debug_str:00000000000003b1 .LASF19
     /tmp/ccV7gVvf.s:4331   .debug_str:00000000000004a2 .LASF20
     /tmp/ccV7gVvf.s:4291   .debug_str:000000000000038f .LASF21
     /tmp/ccV7gVvf.s:4271   .debug_str:0000000000000313 .LASF22
     /tmp/ccV7gVvf.s:4323   .debug_str:0000000000000478 .LASF23
     /tmp/ccV7gVvf.s:4395   .debug_str:0000000000000754 .LASF28
     /tmp/ccV7gVvf.s:4335   .debug_str:00000000000004b7 .LASF30
     /tmp/ccV7gVvf.s:4399   .debug_str:000000000000076b .LASF24
     /tmp/ccV7gVvf.s:4307   .debug_str:000000000000041b .LASF25
     /tmp/ccV7gVvf.s:4371   .debug_str:00000000000005e3 .LASF26
     /tmp/ccV7gVvf.s:4361   .debug_str:0000000000000597 .LASF27
     /tmp/ccV7gVvf.s:4265   .debug_str:00000000000002ed .LASF39
     /tmp/ccV7gVvf.s:4337   .debug_str:00000000000004d3 .LASF41
     /tmp/ccV7gVvf.s:4347   .debug_str:0000000000000535 .LASF34
     /tmp/ccV7gVvf.s:4273   .debug_str:000000000000031f .LASF29
     /tmp/ccV7gVvf.s:4187   .debug_str:00000000000000ae .LASF31
     /tmp/ccV7gVvf.s:4329   .debug_str:0000000000000496 .LASF75
GAS LISTING /tmp/ccV7gVvf.s 			page 29


     /tmp/ccV7gVvf.s:4349   .debug_str:000000000000053a .LASF114
     /tmp/ccV7gVvf.s:4183   .debug_str:0000000000000095 .LASF32
     /tmp/ccV7gVvf.s:4257   .debug_str:00000000000002ba .LASF33
     /tmp/ccV7gVvf.s:4177   .debug_str:0000000000000069 .LASF35
     /tmp/ccV7gVvf.s:4261   .debug_str:00000000000002dd .LASF36
     /tmp/ccV7gVvf.s:4409   .debug_str:00000000000007e2 .LASF37
     /tmp/ccV7gVvf.s:4309   .debug_str:0000000000000424 .LASF38
     /tmp/ccV7gVvf.s:4205   .debug_str:0000000000000132 .LASF40
     /tmp/ccV7gVvf.s:4387   .debug_str:0000000000000703 .LASF42
     /tmp/ccV7gVvf.s:4275   .debug_str:0000000000000324 .LASF44
     /tmp/ccV7gVvf.s:4297   .debug_str:00000000000003bb .LASF46
     /tmp/ccV7gVvf.s:4235   .debug_str:000000000000020b .LASF43
     /tmp/ccV7gVvf.s:4231   .debug_str:00000000000001ee .LASF47
     /tmp/ccV7gVvf.s:4363   .debug_str:00000000000005a8 .LASF53
     /tmp/ccV7gVvf.s:4227   .debug_str:00000000000001d6 .LASF48
     /tmp/ccV7gVvf.s:4285   .debug_str:0000000000000376 .LASF49
     /tmp/ccV7gVvf.s:4229   .debug_str:00000000000001db .LASF71
     /tmp/ccV7gVvf.s:4367   .debug_str:00000000000005d2 .LASF52
     /tmp/ccV7gVvf.s:4373   .debug_str:00000000000005f3 .LASF50
     /tmp/ccV7gVvf.s:4247   .debug_str:000000000000026f .LASF51
     /tmp/ccV7gVvf.s:4169   .debug_str:0000000000000010 .LASF54
     /tmp/ccV7gVvf.s:4301   .debug_str:00000000000003f1 .LASF55
     /tmp/ccV7gVvf.s:4249   .debug_str:0000000000000274 .LASF56
     /tmp/ccV7gVvf.s:4277   .debug_str:0000000000000331 .LASF57
     /tmp/ccV7gVvf.s:4225   .debug_str:00000000000001cb .LASF58
     /tmp/ccV7gVvf.s:4397   .debug_str:0000000000000762 .LASF59
     /tmp/ccV7gVvf.s:4199   .debug_str:00000000000000f6 .LASF60
     /tmp/ccV7gVvf.s:4263   .debug_str:00000000000002e5 .LASF61
     /tmp/ccV7gVvf.s:4241   .debug_str:0000000000000234 .LASF62
     /tmp/ccV7gVvf.s:4383   .debug_str:00000000000006e2 .LASF63
     /tmp/ccV7gVvf.s:4171   .debug_str:000000000000002d .LASF64
     /tmp/ccV7gVvf.s:4401   .debug_str:000000000000077c .LASF65
     /tmp/ccV7gVvf.s:4403   .debug_str:000000000000078f .LASF66
     /tmp/ccV7gVvf.s:4269   .debug_str:0000000000000305 .LASF67
     /tmp/ccV7gVvf.s:4311   .debug_str:000000000000042e .LASF68
     /tmp/ccV7gVvf.s:4321   .debug_str:0000000000000473 .LASF69
     /tmp/ccV7gVvf.s:4327   .debug_str:000000000000048c .LASF70
     /tmp/ccV7gVvf.s:4245   .debug_str:000000000000025b .LASF72
     /tmp/ccV7gVvf.s:4341   .debug_str:0000000000000511 .LASF115
     /tmp/ccV7gVvf.s:4405   .debug_str:00000000000007b2 .LASF116
     /tmp/ccV7gVvf.s:4209   .debug_str:0000000000000145 .LASF73
     /tmp/ccV7gVvf.s:4201   .debug_str:000000000000010e .LASF74
     /tmp/ccV7gVvf.s:4299   .debug_str:00000000000003d6 .LASF117
     /tmp/ccV7gVvf.s:4207   .debug_str:000000000000013f .LASF76
     /tmp/ccV7gVvf.s:4279   .debug_str:000000000000034f .LASF77
     /tmp/ccV7gVvf.s:4389   .debug_str:000000000000071e .LASF78
     /tmp/ccV7gVvf.s:4293   .debug_str:000000000000039c .LASF79
     /tmp/ccV7gVvf.s:4239   .debug_str:0000000000000217 .LASF80
     /tmp/ccV7gVvf.s:4259   .debug_str:00000000000002bf .LASF81
     /tmp/ccV7gVvf.s:531    .text:00000000000002fc .LFB21
     /tmp/ccV7gVvf.s:632    .text:00000000000003bc .LFE21
     /tmp/ccV7gVvf.s:4343   .debug_str:0000000000000520 .LASF118
     /tmp/ccV7gVvf.s:3571   .debug_loc:0000000000000000 .LLST21
     /tmp/ccV7gVvf.s:557    .text:000000000000032c .LBB56
     /tmp/ccV7gVvf.s:4131   .debug_ranges:0000000000000000 .Ldebug_ranges0
     /tmp/ccV7gVvf.s:3593   .debug_loc:000000000000005f .LLST22
     /tmp/ccV7gVvf.s:3608   .debug_loc:0000000000000099 .LLST23
GAS LISTING /tmp/ccV7gVvf.s 			page 30


     /tmp/ccV7gVvf.s:3623   .debug_loc:00000000000000e1 .LLST24
     /tmp/ccV7gVvf.s:599    .text:000000000000036c .LVL62
     /tmp/ccV7gVvf.s:604    .text:000000000000037c .LVL63
     /tmp/ccV7gVvf.s:609    .text:000000000000038c .LVL64
     /tmp/ccV7gVvf.s:614    .text:0000000000000398 .LVL65
     /tmp/ccV7gVvf.s:619    .text:00000000000003a8 .LVL66
     /tmp/ccV7gVvf.s:623    .text:00000000000003b0 .LVL67
     /tmp/ccV7gVvf.s:627    .text:00000000000003b8 .LVL68
     /tmp/ccV7gVvf.s:638    .text:00000000000003bc .LFB20
     /tmp/ccV7gVvf.s:760    .text:00000000000004bc .LFE20
     /tmp/ccV7gVvf.s:651    .text:00000000000003cc .LBB64
     /tmp/ccV7gVvf.s:688    .text:0000000000000428 .LBE64
     /tmp/ccV7gVvf.s:3634   .debug_loc:0000000000000117 .LLST25
     /tmp/ccV7gVvf.s:3643   .debug_loc:000000000000013c .LLST26
     /tmp/ccV7gVvf.s:3652   .debug_loc:0000000000000168 .LLST27
     /tmp/ccV7gVvf.s:658    .text:00000000000003dc .LVL70
     /tmp/ccV7gVvf.s:663    .text:00000000000003ec .LVL71
     /tmp/ccV7gVvf.s:668    .text:00000000000003fc .LVL72
     /tmp/ccV7gVvf.s:673    .text:0000000000000408 .LVL73
     /tmp/ccV7gVvf.s:678    .text:0000000000000418 .LVL74
     /tmp/ccV7gVvf.s:682    .text:0000000000000420 .LVL75
     /tmp/ccV7gVvf.s:686    .text:0000000000000428 .LVL76
     /tmp/ccV7gVvf.s:693    .text:0000000000000434 .LBB66
     /tmp/ccV7gVvf.s:3660   .debug_loc:000000000000018c .LLST28
     /tmp/ccV7gVvf.s:3675   .debug_loc:00000000000001c6 .LLST29
     /tmp/ccV7gVvf.s:3690   .debug_loc:000000000000020e .LLST30
     /tmp/ccV7gVvf.s:727    .text:000000000000046c .LVL81
     /tmp/ccV7gVvf.s:732    .text:000000000000047c .LVL82
     /tmp/ccV7gVvf.s:737    .text:000000000000048c .LVL83
     /tmp/ccV7gVvf.s:742    .text:0000000000000498 .LVL84
     /tmp/ccV7gVvf.s:747    .text:00000000000004a8 .LVL85
     /tmp/ccV7gVvf.s:751    .text:00000000000004b0 .LVL86
     /tmp/ccV7gVvf.s:755    .text:00000000000004b8 .LVL87
     /tmp/ccV7gVvf.s:705    .text:0000000000000448 .LVL79
     /tmp/ccV7gVvf.s:501    .text:00000000000002fc .LFE19
     /tmp/ccV7gVvf.s:4391   .debug_str:000000000000073c .LASF82
     /tmp/ccV7gVvf.s:3709   .debug_loc:000000000000024c .LLST9
     /tmp/ccV7gVvf.s:3723   .debug_loc:0000000000000285 .LLST10
     /tmp/ccV7gVvf.s:3752   .debug_loc:00000000000002fa .LLST11
     /tmp/ccV7gVvf.s:4217   .debug_str:0000000000000180 .LASF83
     /tmp/ccV7gVvf.s:3774   .debug_loc:0000000000000359 .LLST12
     /tmp/ccV7gVvf.s:4313   .debug_str:000000000000043f .LASF84
     /tmp/ccV7gVvf.s:3796   .debug_loc:00000000000003b8 .LLST13
     /tmp/ccV7gVvf.s:4317   .debug_str:0000000000000459 .LASF85
     /tmp/ccV7gVvf.s:3812   .debug_loc:0000000000000402 .LLST14
     /tmp/ccV7gVvf.s:284    .text:00000000000001a4 .LBB35
     /tmp/ccV7gVvf.s:406    .text:0000000000000254 .LBE35
     /tmp/ccV7gVvf.s:3840   .debug_loc:0000000000000476 .LLST15
     /tmp/ccV7gVvf.s:290    .text:00000000000001ac .LBB36
     /tmp/ccV7gVvf.s:329    .text:00000000000001e4 .LBB40
     /tmp/ccV7gVvf.s:348    .text:000000000000020c .LBE40
     /tmp/ccV7gVvf.s:3856   .debug_loc:00000000000004c0 .LLST16
     /tmp/ccV7gVvf.s:354    .text:000000000000020c .LBB45
     /tmp/ccV7gVvf.s:393    .text:0000000000000248 .LBE45
     /tmp/ccV7gVvf.s:363    .text:0000000000000218 .LBB49
     /tmp/ccV7gVvf.s:383    .text:0000000000000240 .LBE49
     /tmp/ccV7gVvf.s:3867   .debug_loc:00000000000004f6 .LLST17
GAS LISTING /tmp/ccV7gVvf.s 			page 31


     /tmp/ccV7gVvf.s:412    .text:0000000000000258 .LBB50
     /tmp/ccV7gVvf.s:3878   .debug_loc:000000000000052c .LLST18
     /tmp/ccV7gVvf.s:3893   .debug_loc:0000000000000566 .LLST19
     /tmp/ccV7gVvf.s:3908   .debug_loc:00000000000005ae .LLST20
     /tmp/ccV7gVvf.s:452    .text:0000000000000290 .LVL45
     /tmp/ccV7gVvf.s:457    .text:00000000000002a0 .LVL46
     /tmp/ccV7gVvf.s:462    .text:00000000000002b0 .LVL47
     /tmp/ccV7gVvf.s:467    .text:00000000000002bc .LVL48
     /tmp/ccV7gVvf.s:472    .text:00000000000002cc .LVL49
     /tmp/ccV7gVvf.s:476    .text:00000000000002d4 .LVL50
     /tmp/ccV7gVvf.s:480    .text:00000000000002dc .LVL51
     /tmp/ccV7gVvf.s:266    .text:0000000000000180 .LVL23
     /tmp/ccV7gVvf.s:274    .text:0000000000000198 .LVL24
     /tmp/ccV7gVvf.s:281    .text:00000000000001a4 .LVL25
     /tmp/ccV7gVvf.s:494    .text:00000000000002f0 .LVL54
     /tmp/ccV7gVvf.s:498    .text:00000000000002fc .LVL55
     /tmp/ccV7gVvf.s:4179   .debug_str:0000000000000071 .LASF119
     /tmp/ccV7gVvf.s:103    .text:0000000000000070 .LFB17
     /tmp/ccV7gVvf.s:227    .text:0000000000000148 .LFE17
     /tmp/ccV7gVvf.s:3927   .debug_loc:00000000000005ec .LLST2
     /tmp/ccV7gVvf.s:3949   .debug_loc:000000000000064b .LLST3
     /tmp/ccV7gVvf.s:3972   .debug_loc:00000000000006ac .LLST4
     /tmp/ccV7gVvf.s:3986   .debug_loc:00000000000006e5 .LLST5
     /tmp/ccV7gVvf.s:133    .text:00000000000000a4 .LBB17
     /tmp/ccV7gVvf.s:4000   .debug_loc:000000000000071e .LLST6
     /tmp/ccV7gVvf.s:4015   .debug_loc:0000000000000758 .LLST7
     /tmp/ccV7gVvf.s:4030   .debug_loc:00000000000007a0 .LLST8
     /tmp/ccV7gVvf.s:193    .text:00000000000000f8 .LVL14
     /tmp/ccV7gVvf.s:198    .text:0000000000000108 .LVL15
     /tmp/ccV7gVvf.s:203    .text:0000000000000118 .LVL16
     /tmp/ccV7gVvf.s:208    .text:0000000000000124 .LVL17
     /tmp/ccV7gVvf.s:213    .text:0000000000000134 .LVL18
     /tmp/ccV7gVvf.s:217    .text:000000000000013c .LVL19
     /tmp/ccV7gVvf.s:221    .text:0000000000000144 .LVL20
     /tmp/ccV7gVvf.s:127    .text:000000000000009c .LVL7
     /tmp/ccV7gVvf.s:4369   .debug_str:00000000000005db .LASF86
     /tmp/ccV7gVvf.s:4185   .debug_str:000000000000009b .LASF87
     /tmp/ccV7gVvf.s:766    .text:00000000000004bc .LFB15
     /tmp/ccV7gVvf.s:799    .text:00000000000004f0 .LFE15
     /tmp/ccV7gVvf.s:4060   .debug_loc:00000000000007f9 .LLST31
     /tmp/ccV7gVvf.s:4078   .debug_loc:0000000000000845 .LLST32
     /tmp/ccV7gVvf.s:784    .text:00000000000004d8 .LVL90
     /tmp/ccV7gVvf.s:788    .text:00000000000004e0 .LVL91
     /tmp/ccV7gVvf.s:4175   .debug_str:000000000000005e .LASF120
     /tmp/ccV7gVvf.s:4393   .debug_str:0000000000000743 .LASF121
     /tmp/ccV7gVvf.s:45     .text:000000000000002c .LFB14
     /tmp/ccV7gVvf.s:83     .text:0000000000000070 .LFE14
     /tmp/ccV7gVvf.s:4092   .debug_loc:000000000000087e .LLST1
     /tmp/ccV7gVvf.s:66     .text:000000000000004c .LVL3
     /tmp/ccV7gVvf.s:69     .text:0000000000000058 .LVL4
     /tmp/ccV7gVvf.s:10     .text:0000000000000000 .LFB13
     /tmp/ccV7gVvf.s:39     .text:000000000000002c .LFE13
     /tmp/ccV7gVvf.s:4189   .debug_str:00000000000000c0 .LASF88
     /tmp/ccV7gVvf.s:4106   .debug_loc:00000000000008b7 .LLST0
     /tmp/ccV7gVvf.s:4289   .debug_str:0000000000000385 .LASF89
     /tmp/ccV7gVvf.s:4219   .debug_str:000000000000018e .LASF91
     /tmp/ccV7gVvf.s:4197   .debug_str:00000000000000eb .LASF90
GAS LISTING /tmp/ccV7gVvf.s 			page 32


     /tmp/ccV7gVvf.s:4253   .debug_str:0000000000000285 .LASF92
     /tmp/ccV7gVvf.s:4351   .debug_str:0000000000000556 .LASF93
     /tmp/ccV7gVvf.s:4375   .debug_str:00000000000005f8 .LASF94
     /tmp/ccV7gVvf.s:4287   .debug_str:000000000000037f .LASF95
     /tmp/ccV7gVvf.s:4211   .debug_str:000000000000014d .LASF96
     /tmp/ccV7gVvf.s:4223   .debug_str:00000000000001c6 .LASF97
     /tmp/ccV7gVvf.s:4407   .debug_str:00000000000007d2 .LASF98
     /tmp/ccV7gVvf.s:4181   .debug_str:000000000000008b .LASF100
     /tmp/ccV7gVvf.s:4255   .debug_str:00000000000002af .LASF99
     /tmp/ccV7gVvf.s:4167   .debug_str:0000000000000009 .LASF101
     /tmp/ccV7gVvf.s:4365   .debug_str:00000000000005c2 .LASF102
     /tmp/ccV7gVvf.s:4357   .debug_str:000000000000057a .LASF103
     /tmp/ccV7gVvf.s:4345   .debug_str:0000000000000525 .LASF104
     /tmp/ccV7gVvf.s:4267   .debug_str:00000000000002fa .LASF105
     /tmp/ccV7gVvf.s:4355   .debug_str:0000000000000574 .LASF106
     /tmp/ccV7gVvf.s:4411   .debug_str:00000000000007ee .LASF107
     /tmp/ccV7gVvf.s:4281   .debug_str:0000000000000361 .LASF108
     /tmp/ccV7gVvf.s:4221   .debug_str:00000000000001b6 .LASF109
     /tmp/ccV7gVvf.s:4243   .debug_str:000000000000024c .LASF122
     /tmp/ccV7gVvf.s:4213   .debug_str:0000000000000152 .LASF123
     /tmp/ccV7gVvf.s:534    .text:00000000000002fc .LVL56
     /tmp/ccV7gVvf.s:561    .text:0000000000000330 .LVL58
     /tmp/ccV7gVvf.s:578    .text:0000000000000344 .LVL59
     /tmp/ccV7gVvf.s:582    .text:000000000000034c .LVL60
     /tmp/ccV7gVvf.s:556    .text:000000000000032c .LVL57
     /tmp/ccV7gVvf.s:591    .text:000000000000035c .LVL61
     /tmp/ccV7gVvf.s:650    .text:00000000000003cc .LVL69
     /tmp/ccV7gVvf.s:692    .text:0000000000000434 .LVL77
     /tmp/ccV7gVvf.s:697    .text:0000000000000438 .LVL78
     /tmp/ccV7gVvf.s:718    .text:000000000000045c .LVL80
     /tmp/ccV7gVvf.s:240    .text:0000000000000148 .LVL21
     /tmp/ccV7gVvf.s:263    .text:0000000000000178 .LVL22
     /tmp/ccV7gVvf.s:433    .text:0000000000000270 .LVL41
     /tmp/ccV7gVvf.s:443    .text:0000000000000280 .LVL44
     /tmp/ccV7gVvf.s:490    .text:00000000000002e4 .LVL53
     /tmp/ccV7gVvf.s:436    .text:0000000000000274 .LVL42
     /tmp/ccV7gVvf.s:439    .text:0000000000000278 .LVL43
     /tmp/ccV7gVvf.s:401    .text:0000000000000250 .LVL36
     /tmp/ccV7gVvf.s:404    .text:0000000000000254 .LVL37
     /tmp/ccV7gVvf.s:409    .text:0000000000000258 .LVL38
     /tmp/ccV7gVvf.s:397    .text:000000000000024c .LVL35
     /tmp/ccV7gVvf.s:430    .text:000000000000026c .LVL40
     /tmp/ccV7gVvf.s:487    .text:00000000000002e0 .LVL52
     /tmp/ccV7gVvf.s:288    .text:00000000000001ac .LVL26
     /tmp/ccV7gVvf.s:366    .text:000000000000021c .LVL31
     /tmp/ccV7gVvf.s:298    .text:00000000000001b4 .LVL27
     /tmp/ccV7gVvf.s:333    .text:00000000000001e8 .LVL29
     /tmp/ccV7gVvf.s:345    .text:0000000000000208 .LVL30
     /tmp/ccV7gVvf.s:379    .text:000000000000023c .LVL32
     /tmp/ccV7gVvf.s:381    .text:0000000000000240 .LVL33
     /tmp/ccV7gVvf.s:387    .text:0000000000000248 .LVL34
     /tmp/ccV7gVvf.s:416    .text:000000000000025c .LVL39
     /tmp/ccV7gVvf.s:106    .text:0000000000000070 .LVL5
     /tmp/ccV7gVvf.s:125    .text:0000000000000094 .LVL6
     /tmp/ccV7gVvf.s:175    .text:00000000000000dc .LVL10
     /tmp/ccV7gVvf.s:182    .text:00000000000000e8 .LVL12
     /tmp/ccV7gVvf.s:178    .text:00000000000000e0 .LVL11
GAS LISTING /tmp/ccV7gVvf.s 			page 33


     /tmp/ccV7gVvf.s:132    .text:00000000000000a4 .LVL8
     /tmp/ccV7gVvf.s:138    .text:00000000000000a8 .LVL9
     /tmp/ccV7gVvf.s:191    .text:00000000000000f0 .LVL13
     /tmp/ccV7gVvf.s:769    .text:00000000000004bc .LVL88
     /tmp/ccV7gVvf.s:782    .text:00000000000004d4 .LVL89
     /tmp/ccV7gVvf.s:48     .text:000000000000002c .LVL2
     /tmp/ccV7gVvf.s:14     .text:0000000000000000 .LVL0
     /tmp/ccV7gVvf.s:28     .text:000000000000001c .LVL1
     /tmp/ccV7gVvf.s:845    .debug_info:0000000000000000 .Ldebug_info0
     /tmp/ccV7gVvf.s:141    .text:00000000000000a8 .LBE17
     /tmp/ccV7gVvf.s:186    .text:00000000000000e8 .LBB20
     /tmp/ccV7gVvf.s:224    .text:0000000000000148 .LBE20
     /tmp/ccV7gVvf.s:304    .text:00000000000001b4 .LBE36
     /tmp/ccV7gVvf.s:320    .text:00000000000001d8 .LBB44
     /tmp/ccV7gVvf.s:352    .text:000000000000020c .LBE44
     /tmp/ccV7gVvf.s:419    .text:000000000000025c .LBE50
     /tmp/ccV7gVvf.s:446    .text:0000000000000280 .LBB53
     /tmp/ccV7gVvf.s:483    .text:00000000000002dc .LBE53
     /tmp/ccV7gVvf.s:564    .text:0000000000000330 .LBE56
     /tmp/ccV7gVvf.s:593    .text:000000000000035c .LBB59
     /tmp/ccV7gVvf.s:630    .text:00000000000003bc .LBE59
     /tmp/ccV7gVvf.s:700    .text:0000000000000438 .LBE66
     /tmp/ccV7gVvf.s:721    .text:000000000000045c .LBB69
     /tmp/ccV7gVvf.s:758    .text:00000000000004bc .LBE69
     /tmp/ccV7gVvf.s:504    .gcc_except_table:0000000000000000 .LLSDA19

UNDEFINED SYMBOLS
_ZN8MemAlloc3getEv
_ZN8MemAlloc8allocMemEm
_Z11thread_exitv
_Z9putStringPKc
_Z6putInti
_Z10putNewlinev
_Z10stopKernelv
_Znwm
_ZN9Scheduler3putEP6Thread
_ZdlPv
_Unwind_Resume
__gxx_personality_v0
