GAS LISTING /tmp/ccZPr3v0.s 			page 1


   1              		.file	"thread.cpp"
   2              		.option pic
   3              		.option norelax
   4              		.text
   5              	.Ltext0:
   6              		.align	2
   7              		.globl	_Z7wrappermPFvPvES_
   9              	_Z7wrappermPFvPvES_:
  10              	.LFB25:
  11              		.file 1 "src/thread.cpp"
   1:src/thread.cpp **** #include "../h/thread.h"
   2:src/thread.cpp **** #include "../h/alloc.h"
   3:src/thread.cpp **** #include "../h/scheduler.h"
   4:src/thread.cpp **** 
   5:src/thread.cpp **** uint64 IThread::timeSliceCounter = 0;
   6:src/thread.cpp **** 
   7:src/thread.cpp **** IThread* IThread::pRunning = nullptr;
   8:src/thread.cpp **** uint64** IThread::pRunningSp = nullptr;
   9:src/thread.cpp **** uint64 IThread::nrTotalThreads = 1;
  10:src/thread.cpp **** IThread* IThread::pAllThreads[MAX_NR_TOTAL_THREADS];
  11:src/thread.cpp **** uint64 IThread::initialUserMemoryUsage;
  12:src/thread.cpp **** //uint64* IThread::runningSp = nullptr;
  13:src/thread.cpp **** bool IThread::switchedToUserThread = 0;
  14:src/thread.cpp **** 
  15:src/thread.cpp **** void IThread::signalDone()
  16:src/thread.cpp **** {
  17:src/thread.cpp ****     IThread* pCur = pWaitingHead;
  18:src/thread.cpp **** 
  19:src/thread.cpp ****     while(pCur)
  20:src/thread.cpp ****     {
  21:src/thread.cpp ****         pCur->state = READY;
  22:src/thread.cpp ****         Scheduler::put(pCur);
  23:src/thread.cpp **** 
  24:src/thread.cpp ****         pCur = pCur->pNext;
  25:src/thread.cpp ****     }
  26:src/thread.cpp **** }
  27:src/thread.cpp **** 
  28:src/thread.cpp **** void IThread::join(uint64 id)
  29:src/thread.cpp **** {
  30:src/thread.cpp ****     IThread* oldRunning = IThread::getPRunning();
  31:src/thread.cpp **** 
  32:src/thread.cpp ****     IThread* t = pAllThreads[id];
  33:src/thread.cpp **** 
  34:src/thread.cpp ****     extern IThread kernelThread;
  35:src/thread.cpp ****     assert(oldRunning != &kernelThread); // you're only supposed to open user threads with system c
  36:src/thread.cpp **** 
  37:src/thread.cpp **** //    putU64(id);
  38:src/thread.cpp **** 
  39:src/thread.cpp ****     if(t->done == true)
  40:src/thread.cpp ****         return;
  41:src/thread.cpp **** 
  42:src/thread.cpp ****     if(t->pWaitingHead == nullptr)
  43:src/thread.cpp ****     {
  44:src/thread.cpp ****         t->pWaitingHead = oldRunning;
  45:src/thread.cpp ****     }
  46:src/thread.cpp ****     else
  47:src/thread.cpp ****     {
GAS LISTING /tmp/ccZPr3v0.s 			page 2


  48:src/thread.cpp ****         IThread* pCur = t->pWaitingHead;
  49:src/thread.cpp ****         while(pCur->pNext)
  50:src/thread.cpp ****         {
  51:src/thread.cpp ****             pCur = pCur->pNext;
  52:src/thread.cpp ****         }
  53:src/thread.cpp **** 
  54:src/thread.cpp ****         pCur->pNext = oldRunning;
  55:src/thread.cpp ****     }
  56:src/thread.cpp **** 
  57:src/thread.cpp ****     oldRunning->pNext = nullptr;
  58:src/thread.cpp ****     oldRunning->state = SUSPENDED;
  59:src/thread.cpp **** 
  60:src/thread.cpp ****     Scheduler::dispatchToNext();
  61:src/thread.cpp **** }
  62:src/thread.cpp **** 
  63:src/thread.cpp **** void IThread::switchToUser()
  64:src/thread.cpp **** {
  65:src/thread.cpp ****     uint64 scause;
  66:src/thread.cpp ****     __asm__ volatile ("csrr %[name], scause" : [name] "=r"(scause));
  67:src/thread.cpp ****     bool cameFromKernelMode = ((scause & (1 << 8)) == 0);
  68:src/thread.cpp **** 
  69:src/thread.cpp ****     if(!cameFromKernelMode) // if user thread calls this it does nothing
  70:src/thread.cpp ****     {
  71:src/thread.cpp ****         assert(false); // temp
  72:src/thread.cpp ****         assert(IThread::pRunning->id != 0);
  73:src/thread.cpp ****         return;
  74:src/thread.cpp ****     }
  75:src/thread.cpp **** 
  76:src/thread.cpp ****     assert(IThread::pRunning->id == 0);
  77:src/thread.cpp **** 
  78:src/thread.cpp ****     Scheduler* s = Scheduler::get(); // temp
  79:src/thread.cpp ****     assert(s); // temp
  80:src/thread.cpp **** 
  81:src/thread.cpp ****     Scheduler::dispatchToNext();
  82:src/thread.cpp **** 
  83:src/thread.cpp ****     IThread* t = IThread::getPRunning();
  84:src/thread.cpp ****     assert(t);
  85:src/thread.cpp ****     assert(IThread::getPRunning()->id == USER_THREAD_ID);
  86:src/thread.cpp **** 
  87:src/thread.cpp **** //    __asm__ volatile ("csrs sstatus, 0x6"); // TODO: probably should be removed when i add permis
  88:src/thread.cpp **** //    __asm__ volatile ("mv x10, x10");
  89:src/thread.cpp **** //    __asm__ volatile ("mv x10, x10");
  90:src/thread.cpp **** //    __asm__ volatile ("mv x10, x10");
  91:src/thread.cpp **** //    putString("KITA PENIS");
  92:src/thread.cpp **** 
  93:src/thread.cpp **** //    __asm__ volatile ("csrc sstatus, 0x9");
  94:src/thread.cpp **** //    __asm__ volatile ("csrc sstatus, 0x8");
  95:src/thread.cpp **** //    __asm__ volatile ("csrw sstatus, 0"); // TODO: radi preko csrc jer ovako menjam sve
  96:src/thread.cpp **** }
  97:src/thread.cpp **** 
  98:src/thread.cpp **** void IThread::setPRunning(IThread* p)
  99:src/thread.cpp **** {
 100:src/thread.cpp ****     pRunning = p;
 101:src/thread.cpp ****     pRunningSp = &(p->sp);
 102:src/thread.cpp **** }
 103:src/thread.cpp **** 
 104:src/thread.cpp **** int IThread::createThread(uint64* id, Body body, void* arg)
GAS LISTING /tmp/ccZPr3v0.s 			page 3


 105:src/thread.cpp **** {
 106:src/thread.cpp ****     assert(nrTotalThreads < MAX_NR_TOTAL_THREADS);
 107:src/thread.cpp **** 
 108:src/thread.cpp ****     IThread* t = (IThread*)MemAlloc::get()->allocMem(sizeof(IThread));
 109:src/thread.cpp ****     pAllThreads[nrTotalThreads] = t;
 110:src/thread.cpp **** 
 111:src/thread.cpp ****     t->pStackStart = nullptr;
 112:src/thread.cpp ****     void* pLogicalStack = t->allocStack();
 113:src/thread.cpp **** 
 114:src/thread.cpp ****     t->init(body, arg, pLogicalStack);
 115:src/thread.cpp **** 
 116:src/thread.cpp ****     *id = t->id;
 117:src/thread.cpp **** 
 118:src/thread.cpp ****     Scheduler::put(t);
 119:src/thread.cpp **** 
 120:src/thread.cpp ****     return 0;
 121:src/thread.cpp **** }
 122:src/thread.cpp **** 
 123:src/thread.cpp **** IThread* IThread::getPRunning()
 124:src/thread.cpp **** {
 125:src/thread.cpp ****     __asm__ volatile("mv x10, x10"); // to avoid inline
 126:src/thread.cpp ****     return pRunning;
 127:src/thread.cpp **** }
 128:src/thread.cpp **** 
 129:src/thread.cpp **** void* IThread::allocStack()
 130:src/thread.cpp **** {
 131:src/thread.cpp ****     assert(pStackStart == nullptr); // error: this threads stack may have already been allocated
 132:src/thread.cpp **** 
 133:src/thread.cpp ****     pStackStart = MemAlloc::get()->allocMem(ACTUAL_STACK_SIZE);
 134:src/thread.cpp ****     uint64 stack =  (uint64)pStackStart + ACTUAL_STACK_SIZE;
 135:src/thread.cpp **** 
 136:src/thread.cpp ****     if(stack % 16 != 0)
 137:src/thread.cpp ****     {
 138:src/thread.cpp ****         stack -= stack % 16;
 139:src/thread.cpp ****     }
 140:src/thread.cpp **** 
 141:src/thread.cpp ****     stack -= 34*8; // for the initial context (necessary to avoid exceptions from reading from unal
 142:src/thread.cpp **** 
 143:src/thread.cpp ****     return (void*)stack;
 144:src/thread.cpp **** 
 145:src/thread.cpp **** }
 146:src/thread.cpp **** 
 147:src/thread.cpp **** void wrapper(uint64 __DO_NOT_USE, IThread::Body body, void* arg) // this entire function can be run
 148:src/thread.cpp **** {
  12              		.loc 1 148 1
  13              		.cfi_startproc
  14              	.LVL0:
  15 0000 130101FF 		addi	sp,sp,-16
  16              		.cfi_def_cfa_offset 16
  17 0004 23341100 		sd	ra,8(sp)
  18 0008 23308100 		sd	s0,0(sp)
  19              		.cfi_offset 1, -8
  20              		.cfi_offset 8, -16
  21 000c 13040101 		addi	s0,sp,16
  22              		.cfi_def_cfa 8, 0
 149:src/thread.cpp ****     (*body)(arg);
  23              		.loc 1 149 5
GAS LISTING /tmp/ccZPr3v0.s 			page 4


  24              		.loc 1 149 12 is_stmt 0
  25 0010 13050600 		mv	a0,a2
  26              	.LVL1:
  27 0014 E7800500 		jalr	a1
  28              	.LVL2:
 150:src/thread.cpp ****     thread_exit();
  29              		.loc 1 150 5 is_stmt 1
  30              		.loc 1 150 16 is_stmt 0
  31 0018 97000000 		call	_Z11thread_exitv@plt
  31      E7800000 
  32              	.LVL3:
 151:src/thread.cpp **** }
  33              		.loc 1 151 1
  34 0020 83308100 		ld	ra,8(sp)
  35              		.cfi_restore 1
  36 0024 03340100 		ld	s0,0(sp)
  37              		.cfi_restore 8
  38              		.cfi_def_cfa 2, 16
  39 0028 13010101 		addi	sp,sp,16
  40              		.cfi_def_cfa_offset 0
  41 002c 67800000 		jr	ra
  42              		.cfi_endproc
  43              	.LFE25:
  45              		.align	2
  46              		.globl	_ZN7IThread10signalDoneEv
  48              	_ZN7IThread10signalDoneEv:
  49              	.LFB18:
  16:src/thread.cpp ****     IThread* pCur = pWaitingHead;
  50              		.loc 1 16 1 is_stmt 1
  51              		.cfi_startproc
  52              	.LVL4:
  53 0030 130101FE 		addi	sp,sp,-32
  54              		.cfi_def_cfa_offset 32
  55 0034 233C1100 		sd	ra,24(sp)
  56 0038 23388100 		sd	s0,16(sp)
  57 003c 23349100 		sd	s1,8(sp)
  58              		.cfi_offset 1, -8
  59              		.cfi_offset 8, -16
  60              		.cfi_offset 9, -24
  61 0040 13040102 		addi	s0,sp,32
  62              		.cfi_def_cfa 8, 0
  17:src/thread.cpp **** 
  63              		.loc 1 17 5
  17:src/thread.cpp **** 
  64              		.loc 1 17 14 is_stmt 0
  65 0044 83348503 		ld	s1,56(a0)
  66              	.LVL5:
  67              	.L5:
  19:src/thread.cpp ****     {
  68              		.loc 1 19 5 is_stmt 1
  19:src/thread.cpp ****     {
  69              		.loc 1 19 11
  70 0048 63800402 		beqz	s1,.L3
  21:src/thread.cpp ****         Scheduler::put(pCur);
  71              		.loc 1 21 9
  21:src/thread.cpp ****         Scheduler::put(pCur);
  72              		.loc 1 21 21 is_stmt 0
GAS LISTING /tmp/ccZPr3v0.s 			page 5


  73 004c 93072000 		li	a5,2
  74 0050 23A0F400 		sw	a5,0(s1)
  22:src/thread.cpp **** 
  75              		.loc 1 22 9 is_stmt 1
  22:src/thread.cpp **** 
  76              		.loc 1 22 23 is_stmt 0
  77 0054 13850400 		mv	a0,s1
  78 0058 97000000 		call	_ZN9Scheduler3putEP7IThread@plt
  78      E7800000 
  79              	.LVL6:
  24:src/thread.cpp ****     }
  80              		.loc 1 24 9 is_stmt 1
  24:src/thread.cpp ****     }
  81              		.loc 1 24 14 is_stmt 0
  82 0060 83B40403 		ld	s1,48(s1)
  83              	.LVL7:
  19:src/thread.cpp ****     {
  84              		.loc 1 19 5
  85 0064 6FF05FFE 		j	.L5
  86              	.L3:
  26:src/thread.cpp **** 
  87              		.loc 1 26 1
  88 0068 83308101 		ld	ra,24(sp)
  89              		.cfi_restore 1
  90 006c 03340101 		ld	s0,16(sp)
  91              		.cfi_restore 8
  92              		.cfi_def_cfa 2, 32
  93 0070 83348100 		ld	s1,8(sp)
  94              		.cfi_restore 9
  95              	.LVL8:
  96 0074 13010102 		addi	sp,sp,32
  97              		.cfi_def_cfa_offset 0
  98 0078 67800000 		jr	ra
  99              		.cfi_endproc
 100              	.LFE18:
 102              		.align	2
 103              		.globl	_ZN7IThread11setPRunningEPS_
 105              	_ZN7IThread11setPRunningEPS_:
 106              	.LFB21:
  99:src/thread.cpp ****     pRunning = p;
 107              		.loc 1 99 1 is_stmt 1
 108              		.cfi_startproc
 109              	.LVL9:
 110 007c 130101FF 		addi	sp,sp,-16
 111              		.cfi_def_cfa_offset 16
 112 0080 23348100 		sd	s0,8(sp)
 113              		.cfi_offset 8, -8
 114 0084 13040101 		addi	s0,sp,16
 115              		.cfi_def_cfa 8, 0
 100:src/thread.cpp ****     pRunningSp = &(p->sp);
 116              		.loc 1 100 5
 100:src/thread.cpp ****     pRunningSp = &(p->sp);
 117              		.loc 1 100 14 is_stmt 0
 118 0088 97070000 		lla	a5,.LANCHOR0
 118      93870700 
 119 0090 23B0A700 		sd	a0,0(a5)
 101:src/thread.cpp **** }
GAS LISTING /tmp/ccZPr3v0.s 			page 6


 120              		.loc 1 101 5 is_stmt 1
 101:src/thread.cpp **** }
 121              		.loc 1 101 18 is_stmt 0
 122 0094 13050505 		addi	a0,a0,80
 123              	.LVL10:
 101:src/thread.cpp **** }
 124              		.loc 1 101 16
 125 0098 23B4A700 		sd	a0,8(a5)
 102:src/thread.cpp **** 
 126              		.loc 1 102 1
 127 009c 03348100 		ld	s0,8(sp)
 128              		.cfi_restore 8
 129              		.cfi_def_cfa 2, 16
 130 00a0 13010101 		addi	sp,sp,16
 131              		.cfi_def_cfa_offset 0
 132 00a4 67800000 		jr	ra
 133              		.cfi_endproc
 134              	.LFE21:
 136              		.align	2
 137              		.globl	_ZN7IThread11getPRunningEv
 139              	_ZN7IThread11getPRunningEv:
 140              	.LFB23:
 124:src/thread.cpp ****     __asm__ volatile("mv x10, x10"); // to avoid inline
 141              		.loc 1 124 1 is_stmt 1
 142              		.cfi_startproc
 143 00a8 130101FF 		addi	sp,sp,-16
 144              		.cfi_def_cfa_offset 16
 145 00ac 23348100 		sd	s0,8(sp)
 146              		.cfi_offset 8, -8
 147 00b0 13040101 		addi	s0,sp,16
 148              		.cfi_def_cfa 8, 0
 125:src/thread.cpp ****     return pRunning;
 149              		.loc 1 125 5
 125:src/thread.cpp ****     return pRunning;
 150              		.loc 1 125 36 is_stmt 0
 151              	#APP
 152              	# 125 "src/thread.cpp" 1
 126:src/thread.cpp **** }
 153              		mv x10, x10
 154              	# 0 "" 2
 155              		.loc 1 126 5 is_stmt 1
 127:src/thread.cpp **** 
 156              		.loc 1 127 1 is_stmt 0
 157              	#NO_APP
 158 00b8 17050000 		ld	a0,.LANCHOR0
 158      03350500 
 159 00c0 03348100 		ld	s0,8(sp)
 160              		.cfi_restore 8
 161              		.cfi_def_cfa 2, 16
 162 00c4 13010101 		addi	sp,sp,16
 163              		.cfi_def_cfa_offset 0
 164 00c8 67800000 		jr	ra
 165              		.cfi_endproc
 166              	.LFE23:
 168              		.section	.rodata.str1.8,"aMS",@progbits,1
 169              		.align	3
 170              	.LC0:
GAS LISTING /tmp/ccZPr3v0.s 			page 7


 171 0000 3D3D3D3D 		.string	"===================== ASSERT file: "
 171      3D3D3D3D 
 171      3D3D3D3D 
 171      3D3D3D3D 
 171      3D3D3D3D 
 172 0024 00000000 		.align	3
 173              	.LC1:
 174 0028 7372632F 		.string	"src/thread.cpp"
 174      74687265 
 174      61642E63 
 174      707000
 175 0037 00       		.align	3
 176              	.LC2:
 177 0038 20202020 		.string	"    line: "
 177      6C696E65 
 177      3A2000
 178 0043 00000000 		.align	3
 178      00
 179              	.LC3:
 180 0048 2020203D 		.string	"   ==========================="
 180      3D3D3D3D 
 180      3D3D3D3D 
 180      3D3D3D3D 
 180      3D3D3D3D 
 181              		.text
 182              		.align	2
 183              		.globl	_ZN7IThread4joinEm
 185              	_ZN7IThread4joinEm:
 186              	.LFB19:
  29:src/thread.cpp ****     IThread* oldRunning = IThread::getPRunning();
 187              		.loc 1 29 1 is_stmt 1
 188              		.cfi_startproc
 189              	.LVL11:
 190 00cc 130101FE 		addi	sp,sp,-32
 191              		.cfi_def_cfa_offset 32
 192 00d0 233C1100 		sd	ra,24(sp)
 193 00d4 23388100 		sd	s0,16(sp)
 194 00d8 23349100 		sd	s1,8(sp)
 195              		.cfi_offset 1, -8
 196              		.cfi_offset 8, -16
 197              		.cfi_offset 9, -24
 198 00dc 13040102 		addi	s0,sp,32
 199              		.cfi_def_cfa 8, 0
 200 00e0 93040500 		mv	s1,a0
  30:src/thread.cpp **** 
 201              		.loc 1 30 5
  30:src/thread.cpp **** 
 202              		.loc 1 30 47 is_stmt 0
 203 00e4 97000000 		call	_ZN7IThread11getPRunningEv
 203      E7800000 
 204              	.LVL12:
  32:src/thread.cpp **** 
 205              		.loc 1 32 5 is_stmt 1
  32:src/thread.cpp **** 
 206              		.loc 1 32 14 is_stmt 0
 207 00ec 93943400 		slli	s1,s1,3
 208              	.LVL13:
GAS LISTING /tmp/ccZPr3v0.s 			page 8


 209 00f0 97070000 		lla	a5,.LANCHOR0
 209      93870700 
 210 00f8 B3849700 		add	s1,a5,s1
 211 00fc 03B70401 		ld	a4,16(s1)
 212              	.LVL14:
  34:src/thread.cpp ****     assert(oldRunning != &kernelThread); // you're only supposed to open user threads with system c
 213              		.loc 1 34 5 is_stmt 1
  35:src/thread.cpp **** 
 214              		.loc 1 35 5
 215 0100 97070000 		la	a5,kernelThread
 215      83B70700 
 216              	.LVL15:
 217              	.LBB27:
 218              	.LBB28:
 219              		.file 2 "src/../h/../h/my_console.h"
   1:src/../h/../h/my_console.h **** #pragma once
   2:src/../h/../h/my_console.h **** 
   3:src/../h/../h/my_console.h **** #include "../h/risc.h"
   4:src/../h/../h/my_console.h **** #include "../lib/hw.h"
   5:src/../h/../h/my_console.h **** 
   6:src/../h/../h/my_console.h **** #include "../h/0_console.h"
   7:src/../h/../h/my_console.h **** 
   8:src/../h/../h/my_console.h **** #define __DEBUG_MODE
   9:src/../h/../h/my_console.h **** 
  10:src/../h/../h/my_console.h **** 
  11:src/../h/../h/my_console.h **** void putString(const char* s);
  12:src/../h/../h/my_console.h **** void putInt(int n);
  13:src/../h/../h/my_console.h **** void putNewline();
  14:src/../h/../h/my_console.h **** void putU64(uint64 n);
  15:src/../h/../h/my_console.h **** void putBinary(uint64 n);
  16:src/../h/../h/my_console.h **** 
  17:src/../h/../h/my_console.h **** [[noreturn]] void stopKernel();
  18:src/../h/../h/my_console.h **** 
  19:src/../h/../h/my_console.h **** inline void _assert(bool valid, const char* file, int line) // MUST be inline
  20:src/../h/../h/my_console.h **** {
  21:src/../h/../h/my_console.h ****     if(valid)
 220              		.loc 2 21 5
 221 0108 6306F504 		beq	a0,a5,.L18
  22:src/../h/../h/my_console.h ****         return;
 222              		.loc 2 22 9
 223              	.LVL16:
 224              	.LBE28:
 225              	.LBE27:
  39:src/thread.cpp ****         return;
 226              		.loc 1 39 5
  39:src/thread.cpp ****         return;
 227              		.loc 1 39 11 is_stmt 0
 228 010c 83470704 		lbu	a5,64(a4)
  39:src/thread.cpp ****         return;
 229              		.loc 1 39 5
 230 0110 63980702 		bnez	a5,.L11
  42:src/thread.cpp ****     {
 231              		.loc 1 42 5 is_stmt 1
 232              	.LBB35:
  42:src/thread.cpp ****     {
 233              		.loc 1 42 11 is_stmt 0
 234 0114 83378703 		ld	a5,56(a4)
GAS LISTING /tmp/ccZPr3v0.s 			page 9


  42:src/thread.cpp ****     {
 235              		.loc 1 42 5
 236 0118 638A070C 		beqz	a5,.L19
 237              	.LVL17:
 238              	.L15:
 239              	.LBB36:
  49:src/thread.cpp ****         {
 240              		.loc 1 49 9 is_stmt 1
  49:src/thread.cpp ****         {
 241              		.loc 1 49 21
 242 011c 13870700 		mv	a4,a5
 243 0120 83B70703 		ld	a5,48(a5)
 244              	.LVL18:
 245 0124 E39C07FE 		bnez	a5,.L15
  54:src/thread.cpp ****     }
 246              		.loc 1 54 9
  54:src/thread.cpp ****     }
 247              		.loc 1 54 21 is_stmt 0
 248 0128 2338A702 		sd	a0,48(a4)
 249              	.LVL19:
 250              	.L16:
 251              	.LBE36:
 252              	.LBE35:
  57:src/thread.cpp ****     oldRunning->state = SUSPENDED;
 253              		.loc 1 57 5 is_stmt 1
  57:src/thread.cpp ****     oldRunning->state = SUSPENDED;
 254              		.loc 1 57 23 is_stmt 0
 255 012c 23380502 		sd	zero,48(a0)
  58:src/thread.cpp **** 
 256              		.loc 1 58 5 is_stmt 1
  58:src/thread.cpp **** 
 257              		.loc 1 58 23 is_stmt 0
 258 0130 93071000 		li	a5,1
 259 0134 2320F500 		sw	a5,0(a0)
  60:src/thread.cpp **** }
 260              		.loc 1 60 5 is_stmt 1
  60:src/thread.cpp **** }
 261              		.loc 1 60 30 is_stmt 0
 262 0138 97000000 		call	_ZN9Scheduler14dispatchToNextEv@plt
 262      E7800000 
 263              	.LVL20:
 264              	.L11:
  61:src/thread.cpp **** 
 265              		.loc 1 61 1
 266 0140 83308101 		ld	ra,24(sp)
 267              		.cfi_remember_state
 268              		.cfi_restore 1
 269 0144 03340101 		ld	s0,16(sp)
 270              		.cfi_restore 8
 271              		.cfi_def_cfa 2, 32
 272 0148 83348100 		ld	s1,8(sp)
 273              		.cfi_restore 9
 274 014c 13010102 		addi	sp,sp,32
 275              		.cfi_def_cfa_offset 0
 276 0150 67800000 		jr	ra
 277              	.LVL21:
 278              	.L18:
GAS LISTING /tmp/ccZPr3v0.s 			page 10


 279              		.cfi_restore_state
 280              	.LBB37:
 281              	.LBB34:
  23:src/../h/../h/my_console.h **** 
  24:src/../h/../h/my_console.h ****     putString("===================== ASSERT file: ");
 282              		.loc 2 24 5 is_stmt 1
 283              		.loc 2 24 14 is_stmt 0
 284 0154 17050000 		lla	a0,.LC0
 284      13050500 
 285              	.LVL22:
 286 015c 97000000 		call	_Z9putStringPKc@plt
 286      E7800000 
 287              	.LVL23:
  25:src/../h/../h/my_console.h ****     putString(file);
 288              		.loc 2 25 5 is_stmt 1
 289              		.loc 2 25 14 is_stmt 0
 290 0164 17050000 		lla	a0,.LC1
 290      13050500 
 291 016c 97000000 		call	_Z9putStringPKc@plt
 291      E7800000 
 292              	.LVL24:
  26:src/../h/../h/my_console.h ****     putString("    line: ");
 293              		.loc 2 26 5 is_stmt 1
 294              		.loc 2 26 14 is_stmt 0
 295 0174 17050000 		lla	a0,.LC2
 295      13050500 
 296 017c 97000000 		call	_Z9putStringPKc@plt
 296      E7800000 
 297              	.LVL25:
  27:src/../h/../h/my_console.h ****     putInt(line);
 298              		.loc 2 27 5 is_stmt 1
 299              		.loc 2 27 11 is_stmt 0
 300 0184 13053002 		li	a0,35
 301 0188 97000000 		call	_Z6putInti@plt
 301      E7800000 
 302              	.LVL26:
  28:src/../h/../h/my_console.h ****     putString("   ===========================");
 303              		.loc 2 28 5 is_stmt 1
 304              		.loc 2 28 14 is_stmt 0
 305 0190 17050000 		lla	a0,.LC3
 305      13050500 
 306 0198 97000000 		call	_Z9putStringPKc@plt
 306      E7800000 
 307              	.LVL27:
  29:src/../h/../h/my_console.h ****     putNewline();
 308              		.loc 2 29 5 is_stmt 1
 309              		.loc 2 29 15 is_stmt 0
 310 01a0 97000000 		call	_Z10putNewlinev@plt
 310      E7800000 
 311              	.LVL28:
  30:src/../h/../h/my_console.h **** 
  31:src/../h/../h/my_console.h ****     IConsole::get()->writeToConsole();
 312              		.loc 2 31 5 is_stmt 1
 313              	.LBB29:
 314              	.LBB30:
 315              		.file 3 "src/../h/../h/../h/0_console.h"
   1:src/../h/../h/../h/0_console.h **** #pragma once
GAS LISTING /tmp/ccZPr3v0.s 			page 11


   2:src/../h/../h/../h/0_console.h **** 
   3:src/../h/../h/../h/0_console.h **** #include "../lib/hw.h"
   4:src/../h/../h/../h/0_console.h **** 
   5:src/../h/../h/../h/0_console.h **** #define BUFFER_SIZE 1000
   6:src/../h/../h/../h/0_console.h **** 
   7:src/../h/../h/../h/0_console.h **** class IConsole // singleton class
   8:src/../h/../h/../h/0_console.h **** {
   9:src/../h/../h/../h/0_console.h **** public:
  10:src/../h/../h/../h/0_console.h ****     static IConsole* get()
  11:src/../h/../h/../h/0_console.h ****     {
  12:src/../h/../h/../h/0_console.h ****         static IConsole instance;
 316              		.loc 3 12 9
 317              		.loc 3 12 25 is_stmt 0
 318 01a8 97070000 		lbu	a5,_ZGVZN8IConsole3getEvE8instance
 318      83C70700 
 319 01b0 63920702 		bnez	a5,.L13
 320              	.LVL29:
 321              	.LBB31:
 322              	.LBB32:
 323              	.LBB33:
  13:src/../h/../h/../h/0_console.h ****         return &instance;
  14:src/../h/../h/../h/0_console.h ****     }
  15:src/../h/../h/../h/0_console.h **** 
  16:src/../h/../h/../h/0_console.h ****     void writeToConsole();
  17:src/../h/../h/../h/0_console.h ****     uint64 putBufferHead, putBufferTail;
  18:src/../h/../h/../h/0_console.h ****     char putBuffer[BUFFER_SIZE];
  19:src/../h/../h/../h/0_console.h ****     uint64 putBufferItems;
  20:src/../h/../h/../h/0_console.h **** 
  21:src/../h/../h/../h/0_console.h ****     char getBuffer[BUFFER_SIZE];
  22:src/../h/../h/../h/0_console.h ****     uint64 getBufferItems;
  23:src/../h/../h/../h/0_console.h ****     uint64 getBufferHead, getBufferTail;
  24:src/../h/../h/../h/0_console.h **** 
  25:src/../h/../h/../h/0_console.h ****     void putc(char c);
  26:src/../h/../h/../h/0_console.h ****     char getc();
  27:src/../h/../h/../h/0_console.h ****     void consoleHandler();
  28:src/../h/../h/../h/0_console.h ****     void actualWriteToConsole();
  29:src/../h/../h/../h/0_console.h **** 
  30:src/../h/../h/../h/0_console.h **** private:
  31:src/../h/../h/../h/0_console.h ****     IConsole()
  32:src/../h/../h/../h/0_console.h ****         : putBufferHead(0), putBufferTail(0), putBufferItems(0)
 324              		.loc 3 32 63
 325 01b4 97070000 		lla	a5,_ZZN8IConsole3getEvE8instance
 325      93870700 
 326 01bc 23B00700 		sd	zero,0(a5)
 327 01c0 23B40700 		sd	zero,8(a5)
 328 01c4 23BC073E 		sd	zero,1016(a5)
 329              	.LVL30:
 330              	.LBE33:
 331              	.LBE32:
 332              	.LBE31:
  12:src/../h/../h/../h/0_console.h ****         return &instance;
 333              		.loc 3 12 25
 334 01c8 93071000 		li	a5,1
 335 01cc 17070000 		sb	a5,_ZGVZN8IConsole3getEvE8instance,a4
 335      2300F700 
 336              	.L13:
  13:src/../h/../h/../h/0_console.h ****         return &instance;
GAS LISTING /tmp/ccZPr3v0.s 			page 12


 337              		.loc 3 13 9 is_stmt 1
 338              	.LBE30:
 339              	.LBE29:
 340              		.loc 2 31 36 is_stmt 0
 341 01d4 17050000 		lla	a0,_ZZN8IConsole3getEvE8instance
 341      13050500 
 342 01dc 97000000 		call	_ZN8IConsole14writeToConsoleEv@plt
 342      E7800000 
 343              	.LVL31:
  32:src/../h/../h/my_console.h **** 
  33:src/../h/../h/my_console.h **** 
  34:src/../h/../h/my_console.h ****     stopKernel();
 344              		.loc 2 34 5 is_stmt 1
 345              		.loc 2 34 15 is_stmt 0
 346 01e4 97000000 		call	_Z10stopKernelv@plt
 346      E7800000 
 347              	.LVL32:
 348              	.L19:
 349              	.LBE34:
 350              	.LBE37:
 351              	.LBB38:
  44:src/thread.cpp ****     }
 352              		.loc 1 44 9 is_stmt 1
  44:src/thread.cpp ****     }
 353              		.loc 1 44 25 is_stmt 0
 354 01ec 233CA702 		sd	a0,56(a4)
 355 01f0 6FF0DFF3 		j	.L16
 356              	.LBE38:
 357              		.cfi_endproc
 358              	.LFE19:
 360              		.align	2
 361              		.globl	_ZN7IThread12switchToUserEv
 363              	_ZN7IThread12switchToUserEv:
 364              	.LFB20:
  64:src/thread.cpp ****     uint64 scause;
 365              		.loc 1 64 1 is_stmt 1
 366              		.cfi_startproc
 367 01f4 130101FF 		addi	sp,sp,-16
 368              		.cfi_def_cfa_offset 16
 369 01f8 23341100 		sd	ra,8(sp)
 370 01fc 23308100 		sd	s0,0(sp)
 371              		.cfi_offset 1, -8
 372              		.cfi_offset 8, -16
 373 0200 13040101 		addi	s0,sp,16
 374              		.cfi_def_cfa 8, 0
  65:src/thread.cpp ****     __asm__ volatile ("csrr %[name], scause" : [name] "=r"(scause));
 375              		.loc 1 65 5
  66:src/thread.cpp ****     bool cameFromKernelMode = ((scause & (1 << 8)) == 0);
 376              		.loc 1 66 5
  66:src/thread.cpp ****     bool cameFromKernelMode = ((scause & (1 << 8)) == 0);
 377              		.loc 1 66 68 is_stmt 0
 378              	#APP
 379              	# 66 "src/thread.cpp" 1
 380              		csrr a5, scause
 381              	# 0 "" 2
 382              	.LVL33:
  67:src/thread.cpp **** 
GAS LISTING /tmp/ccZPr3v0.s 			page 13


 383              		.loc 1 67 5 is_stmt 1
  67:src/thread.cpp **** 
 384              		.loc 1 67 40 is_stmt 0
 385              	#NO_APP
 386 0208 93F70710 		andi	a5,a5,256
 387              	.LVL34:
  69:src/thread.cpp ****     {
 388              		.loc 1 69 5 is_stmt 1
 389 020c 639A0706 		bnez	a5,.L31
  76:src/thread.cpp **** 
 390              		.loc 1 76 5
 391 0210 97070000 		ld	a5,.LANCHOR0
 391      83B70700 
 392              	.LVL35:
 393 0218 83B78702 		ld	a5,40(a5)
 394              	.LVL36:
 395              	.LBB86:
 396              	.LBB87:
  21:src/../h/../h/my_console.h ****         return;
 397              		.loc 2 21 5
 398 021c 639E070E 		bnez	a5,.L32
  22:src/../h/../h/my_console.h **** 
 399              		.loc 2 22 9
 400              	.LVL37:
 401              	.LBE87:
 402              	.LBE86:
  78:src/thread.cpp ****     assert(s); // temp
 403              		.loc 1 78 5
 404              	.LBB94:
 405              	.LBB95:
 406              		.file 4 "src/../h/scheduler.h"
   1:src/../h/scheduler.h **** #pragma once
   2:src/../h/scheduler.h **** 
   3:src/../h/scheduler.h **** #include "../h/thread.h"
   4:src/../h/scheduler.h **** 
   5:src/../h/scheduler.h **** class Scheduler // singleton
   6:src/../h/scheduler.h **** {
   7:src/../h/scheduler.h **** public:
   8:src/../h/scheduler.h ****     static Scheduler* get()
   9:src/../h/scheduler.h ****     {
  10:src/../h/scheduler.h ****         static Scheduler instance;
 407              		.loc 4 10 9
 408              		.loc 4 10 26 is_stmt 0
 409 0220 97070000 		lbu	a5,_ZGVZN9Scheduler3getEvE8instance
 409      83C70700 
 410 0228 63900702 		bnez	a5,.L25
 411              	.LVL38:
 412              	.LBB96:
 413              	.LBB97:
 414              	.LBB98:
  11:src/../h/scheduler.h ****         return &instance;
  12:src/../h/scheduler.h ****     }
  13:src/../h/scheduler.h **** 
  14:src/../h/scheduler.h ****     int sleep(time_t time);
  15:src/../h/scheduler.h **** 
  16:src/../h/scheduler.h ****     static void dispatchToNext(); // WARNING: different than sys. call dispatch()
  17:src/../h/scheduler.h ****     static void dispatchUserVersion();
GAS LISTING /tmp/ccZPr3v0.s 			page 14


  18:src/../h/scheduler.h ****     static IThread* getNext();
  19:src/../h/scheduler.h ****     static void put(IThread*);
  20:src/../h/scheduler.h ****     static void printState();
  21:src/../h/scheduler.h **** 
  22:src/../h/scheduler.h ****     IThread* pHead; // points to the one that is the next to be run
  23:src/../h/scheduler.h ****     IThread* pSleepHead;
  24:src/../h/scheduler.h **** 
  25:src/../h/scheduler.h **** private:
  26:src/../h/scheduler.h ****     Scheduler()
  27:src/../h/scheduler.h ****         : pHead(nullptr), pSleepHead(nullptr)
 415              		.loc 4 27 45
 416 022c 97070000 		lla	a5,_ZZN9Scheduler3getEvE8instance
 416      93870700 
 417 0234 23B00700 		sd	zero,0(a5)
 418 0238 23B40700 		sd	zero,8(a5)
 419              	.LVL39:
 420              	.LBE98:
 421              	.LBE97:
 422              	.LBE96:
  10:src/../h/scheduler.h ****         return &instance;
 423              		.loc 4 10 26
 424 023c 93071000 		li	a5,1
 425 0240 17070000 		sb	a5,_ZGVZN9Scheduler3getEvE8instance,a4
 425      2300F700 
 426              	.L25:
  11:src/../h/scheduler.h ****         return &instance;
 427              		.loc 4 11 9 is_stmt 1
 428              	.LVL40:
 429              	.LBE95:
 430              	.LBE94:
  79:src/thread.cpp **** 
 431              		.loc 1 79 5
  21:src/../h/../h/my_console.h ****         return;
 432              		.loc 2 21 5
  22:src/../h/../h/my_console.h **** 
 433              		.loc 2 22 9
  81:src/thread.cpp **** 
 434              		.loc 1 81 5
  81:src/thread.cpp **** 
 435              		.loc 1 81 30 is_stmt 0
 436 0248 97000000 		call	_ZN9Scheduler14dispatchToNextEv@plt
 436      E7800000 
 437              	.LVL41:
  83:src/thread.cpp ****     assert(t);
 438              		.loc 1 83 5 is_stmt 1
  83:src/thread.cpp ****     assert(t);
 439              		.loc 1 83 38 is_stmt 0
 440 0250 97000000 		call	_ZN7IThread11getPRunningEv
 440      E7800000 
 441              	.LVL42:
  84:src/thread.cpp ****     assert(IThread::getPRunning()->id == USER_THREAD_ID);
 442              		.loc 1 84 5 is_stmt 1
 443              	.LBB99:
 444              	.LBB100:
  21:src/../h/../h/my_console.h ****         return;
 445              		.loc 2 21 5
 446 0258 630C0514 		beqz	a0,.L33
GAS LISTING /tmp/ccZPr3v0.s 			page 15


  22:src/../h/../h/my_console.h **** 
 447              		.loc 2 22 9
 448              	.LVL43:
 449              	.LBE100:
 450              	.LBE99:
  85:src/thread.cpp **** 
 451              		.loc 1 85 5
 452 025c 97000000 		call	_ZN7IThread11getPRunningEv
 452      E7800000 
 453              	.LVL44:
 454 0264 83378502 		ld	a5,40(a0)
 455 0268 9387E7FF 		addi	a5,a5,-2
 456              	.LVL45:
 457              	.LBB107:
 458              	.LBB108:
  21:src/../h/../h/my_console.h ****         return;
 459              		.loc 2 21 5
 460 026c 639E071C 		bnez	a5,.L34
 461              	.LBE108:
 462              	.LBE107:
  96:src/thread.cpp **** 
 463              		.loc 1 96 1 is_stmt 0
 464 0270 83308100 		ld	ra,8(sp)
 465              		.cfi_remember_state
 466              		.cfi_restore 1
 467 0274 03340100 		ld	s0,0(sp)
 468              		.cfi_restore 8
 469              		.cfi_def_cfa 2, 16
 470 0278 13010101 		addi	sp,sp,16
 471              		.cfi_def_cfa_offset 0
 472 027c 67800000 		jr	ra
 473              	.LVL46:
 474              	.L31:
 475              		.cfi_restore_state
  71:src/thread.cpp ****         assert(IThread::pRunning->id != 0);
 476              		.loc 1 71 9 is_stmt 1
 477              	.LBB115:
 478              	.LBB116:
  21:src/../h/../h/my_console.h ****         return;
 479              		.loc 2 21 5
  24:src/../h/../h/my_console.h ****     putString(file);
 480              		.loc 2 24 5
  24:src/../h/../h/my_console.h ****     putString(file);
 481              		.loc 2 24 14 is_stmt 0
 482 0280 17050000 		lla	a0,.LC0
 482      13050500 
 483 0288 97000000 		call	_Z9putStringPKc@plt
 483      E7800000 
 484              	.LVL47:
  25:src/../h/../h/my_console.h ****     putString("    line: ");
 485              		.loc 2 25 5 is_stmt 1
  25:src/../h/../h/my_console.h ****     putString("    line: ");
 486              		.loc 2 25 14 is_stmt 0
 487 0290 17050000 		lla	a0,.LC1
 487      13050500 
 488 0298 97000000 		call	_Z9putStringPKc@plt
 488      E7800000 
GAS LISTING /tmp/ccZPr3v0.s 			page 16


 489              	.LVL48:
  26:src/../h/../h/my_console.h ****     putInt(line);
 490              		.loc 2 26 5 is_stmt 1
  26:src/../h/../h/my_console.h ****     putInt(line);
 491              		.loc 2 26 14 is_stmt 0
 492 02a0 17050000 		lla	a0,.LC2
 492      13050500 
 493 02a8 97000000 		call	_Z9putStringPKc@plt
 493      E7800000 
 494              	.LVL49:
  27:src/../h/../h/my_console.h ****     putString("   ===========================");
 495              		.loc 2 27 5 is_stmt 1
  27:src/../h/../h/my_console.h ****     putString("   ===========================");
 496              		.loc 2 27 11 is_stmt 0
 497 02b0 13057004 		li	a0,71
 498 02b4 97000000 		call	_Z6putInti@plt
 498      E7800000 
 499              	.LVL50:
  28:src/../h/../h/my_console.h ****     putNewline();
 500              		.loc 2 28 5 is_stmt 1
  28:src/../h/../h/my_console.h ****     putNewline();
 501              		.loc 2 28 14 is_stmt 0
 502 02bc 17050000 		lla	a0,.LC3
 502      13050500 
 503 02c4 97000000 		call	_Z9putStringPKc@plt
 503      E7800000 
 504              	.LVL51:
  29:src/../h/../h/my_console.h **** 
 505              		.loc 2 29 5 is_stmt 1
  29:src/../h/../h/my_console.h **** 
 506              		.loc 2 29 15 is_stmt 0
 507 02cc 97000000 		call	_Z10putNewlinev@plt
 507      E7800000 
 508              	.LVL52:
  31:src/../h/../h/my_console.h **** 
 509              		.loc 2 31 5 is_stmt 1
 510              	.LBB117:
 511              	.LBB118:
  12:src/../h/../h/../h/0_console.h ****         return &instance;
 512              		.loc 3 12 9
  12:src/../h/../h/../h/0_console.h ****         return &instance;
 513              		.loc 3 12 25 is_stmt 0
 514 02d4 97070000 		lbu	a5,_ZGVZN8IConsole3getEvE8instance
 514      83C70700 
 515 02dc 63920702 		bnez	a5,.L22
 516              	.LVL53:
 517              	.LBB119:
 518              	.LBB120:
 519              	.LBB121:
 520              		.loc 3 32 63
 521 02e0 97070000 		lla	a5,_ZZN8IConsole3getEvE8instance
 521      93870700 
 522 02e8 23B00700 		sd	zero,0(a5)
 523 02ec 23B40700 		sd	zero,8(a5)
 524 02f0 23BC073E 		sd	zero,1016(a5)
 525              	.LVL54:
 526              	.LBE121:
GAS LISTING /tmp/ccZPr3v0.s 			page 17


 527              	.LBE120:
 528              	.LBE119:
  12:src/../h/../h/../h/0_console.h ****         return &instance;
 529              		.loc 3 12 25
 530 02f4 93071000 		li	a5,1
 531 02f8 17070000 		sb	a5,_ZGVZN8IConsole3getEvE8instance,a4
 531      2300F700 
 532              	.L22:
  13:src/../h/../h/../h/0_console.h ****     }
 533              		.loc 3 13 9 is_stmt 1
 534              	.LBE118:
 535              	.LBE117:
  31:src/../h/../h/my_console.h **** 
 536              		.loc 2 31 36 is_stmt 0
 537 0300 17050000 		lla	a0,_ZZN8IConsole3getEvE8instance
 537      13050500 
 538 0308 97000000 		call	_ZN8IConsole14writeToConsoleEv@plt
 538      E7800000 
 539              	.LVL55:
 540              		.loc 2 34 5 is_stmt 1
 541              		.loc 2 34 15 is_stmt 0
 542 0310 97000000 		call	_Z10stopKernelv@plt
 542      E7800000 
 543              	.LVL56:
 544              	.L32:
 545              	.LBE116:
 546              	.LBE115:
 547              	.LBB122:
 548              	.LBB93:
  24:src/../h/../h/my_console.h ****     putString(file);
 549              		.loc 2 24 5 is_stmt 1
  24:src/../h/../h/my_console.h ****     putString(file);
 550              		.loc 2 24 14 is_stmt 0
 551 0318 17050000 		lla	a0,.LC0
 551      13050500 
 552 0320 97000000 		call	_Z9putStringPKc@plt
 552      E7800000 
 553              	.LVL57:
  25:src/../h/../h/my_console.h ****     putString("    line: ");
 554              		.loc 2 25 5 is_stmt 1
  25:src/../h/../h/my_console.h ****     putString("    line: ");
 555              		.loc 2 25 14 is_stmt 0
 556 0328 17050000 		lla	a0,.LC1
 556      13050500 
 557 0330 97000000 		call	_Z9putStringPKc@plt
 557      E7800000 
 558              	.LVL58:
  26:src/../h/../h/my_console.h ****     putInt(line);
 559              		.loc 2 26 5 is_stmt 1
  26:src/../h/../h/my_console.h ****     putInt(line);
 560              		.loc 2 26 14 is_stmt 0
 561 0338 17050000 		lla	a0,.LC2
 561      13050500 
 562 0340 97000000 		call	_Z9putStringPKc@plt
 562      E7800000 
 563              	.LVL59:
  27:src/../h/../h/my_console.h ****     putString("   ===========================");
GAS LISTING /tmp/ccZPr3v0.s 			page 18


 564              		.loc 2 27 5 is_stmt 1
  27:src/../h/../h/my_console.h ****     putString("   ===========================");
 565              		.loc 2 27 11 is_stmt 0
 566 0348 1305C004 		li	a0,76
 567 034c 97000000 		call	_Z6putInti@plt
 567      E7800000 
 568              	.LVL60:
  28:src/../h/../h/my_console.h ****     putNewline();
 569              		.loc 2 28 5 is_stmt 1
  28:src/../h/../h/my_console.h ****     putNewline();
 570              		.loc 2 28 14 is_stmt 0
 571 0354 17050000 		lla	a0,.LC3
 571      13050500 
 572 035c 97000000 		call	_Z9putStringPKc@plt
 572      E7800000 
 573              	.LVL61:
  29:src/../h/../h/my_console.h **** 
 574              		.loc 2 29 5 is_stmt 1
  29:src/../h/../h/my_console.h **** 
 575              		.loc 2 29 15 is_stmt 0
 576 0364 97000000 		call	_Z10putNewlinev@plt
 576      E7800000 
 577              	.LVL62:
  31:src/../h/../h/my_console.h **** 
 578              		.loc 2 31 5 is_stmt 1
 579              	.LBB88:
 580              	.LBB89:
  12:src/../h/../h/../h/0_console.h ****         return &instance;
 581              		.loc 3 12 9
  12:src/../h/../h/../h/0_console.h ****         return &instance;
 582              		.loc 3 12 25 is_stmt 0
 583 036c 97070000 		lbu	a5,_ZGVZN8IConsole3getEvE8instance
 583      83C70700 
 584 0374 63920702 		bnez	a5,.L24
 585              	.LVL63:
 586              	.LBB90:
 587              	.LBB91:
 588              	.LBB92:
 589              		.loc 3 32 63
 590 0378 97070000 		lla	a5,_ZZN8IConsole3getEvE8instance
 590      93870700 
 591 0380 23B00700 		sd	zero,0(a5)
 592 0384 23B40700 		sd	zero,8(a5)
 593 0388 23BC073E 		sd	zero,1016(a5)
 594              	.LVL64:
 595              	.LBE92:
 596              	.LBE91:
 597              	.LBE90:
  12:src/../h/../h/../h/0_console.h ****         return &instance;
 598              		.loc 3 12 25
 599 038c 93071000 		li	a5,1
 600 0390 17070000 		sb	a5,_ZGVZN8IConsole3getEvE8instance,a4
 600      2300F700 
 601              	.L24:
  13:src/../h/../h/../h/0_console.h ****     }
 602              		.loc 3 13 9 is_stmt 1
 603              	.LBE89:
GAS LISTING /tmp/ccZPr3v0.s 			page 19


 604              	.LBE88:
  31:src/../h/../h/my_console.h **** 
 605              		.loc 2 31 36 is_stmt 0
 606 0398 17050000 		lla	a0,_ZZN8IConsole3getEvE8instance
 606      13050500 
 607 03a0 97000000 		call	_ZN8IConsole14writeToConsoleEv@plt
 607      E7800000 
 608              	.LVL65:
 609              		.loc 2 34 5 is_stmt 1
 610              		.loc 2 34 15 is_stmt 0
 611 03a8 97000000 		call	_Z10stopKernelv@plt
 611      E7800000 
 612              	.LVL66:
 613              	.L33:
 614              	.LBE93:
 615              	.LBE122:
 616              	.LBB123:
 617              	.LBB106:
  24:src/../h/../h/my_console.h ****     putString(file);
 618              		.loc 2 24 5 is_stmt 1
  24:src/../h/../h/my_console.h ****     putString(file);
 619              		.loc 2 24 14 is_stmt 0
 620 03b0 17050000 		lla	a0,.LC0
 620      13050500 
 621              	.LVL67:
 622 03b8 97000000 		call	_Z9putStringPKc@plt
 622      E7800000 
 623              	.LVL68:
  25:src/../h/../h/my_console.h ****     putString("    line: ");
 624              		.loc 2 25 5 is_stmt 1
  25:src/../h/../h/my_console.h ****     putString("    line: ");
 625              		.loc 2 25 14 is_stmt 0
 626 03c0 17050000 		lla	a0,.LC1
 626      13050500 
 627 03c8 97000000 		call	_Z9putStringPKc@plt
 627      E7800000 
 628              	.LVL69:
  26:src/../h/../h/my_console.h ****     putInt(line);
 629              		.loc 2 26 5 is_stmt 1
  26:src/../h/../h/my_console.h ****     putInt(line);
 630              		.loc 2 26 14 is_stmt 0
 631 03d0 17050000 		lla	a0,.LC2
 631      13050500 
 632 03d8 97000000 		call	_Z9putStringPKc@plt
 632      E7800000 
 633              	.LVL70:
  27:src/../h/../h/my_console.h ****     putString("   ===========================");
 634              		.loc 2 27 5 is_stmt 1
  27:src/../h/../h/my_console.h ****     putString("   ===========================");
 635              		.loc 2 27 11 is_stmt 0
 636 03e0 13054005 		li	a0,84
 637 03e4 97000000 		call	_Z6putInti@plt
 637      E7800000 
 638              	.LVL71:
  28:src/../h/../h/my_console.h ****     putNewline();
 639              		.loc 2 28 5 is_stmt 1
  28:src/../h/../h/my_console.h ****     putNewline();
GAS LISTING /tmp/ccZPr3v0.s 			page 20


 640              		.loc 2 28 14 is_stmt 0
 641 03ec 17050000 		lla	a0,.LC3
 641      13050500 
 642 03f4 97000000 		call	_Z9putStringPKc@plt
 642      E7800000 
 643              	.LVL72:
  29:src/../h/../h/my_console.h **** 
 644              		.loc 2 29 5 is_stmt 1
  29:src/../h/../h/my_console.h **** 
 645              		.loc 2 29 15 is_stmt 0
 646 03fc 97000000 		call	_Z10putNewlinev@plt
 646      E7800000 
 647              	.LVL73:
  31:src/../h/../h/my_console.h **** 
 648              		.loc 2 31 5 is_stmt 1
 649              	.LBB101:
 650              	.LBB102:
  12:src/../h/../h/../h/0_console.h ****         return &instance;
 651              		.loc 3 12 9
  12:src/../h/../h/../h/0_console.h ****         return &instance;
 652              		.loc 3 12 25 is_stmt 0
 653 0404 97070000 		lbu	a5,_ZGVZN8IConsole3getEvE8instance
 653      83C70700 
 654 040c 63920702 		bnez	a5,.L27
 655              	.LVL74:
 656              	.LBB103:
 657              	.LBB104:
 658              	.LBB105:
 659              		.loc 3 32 63
 660 0410 97070000 		lla	a5,_ZZN8IConsole3getEvE8instance
 660      93870700 
 661 0418 23B00700 		sd	zero,0(a5)
 662 041c 23B40700 		sd	zero,8(a5)
 663 0420 23BC073E 		sd	zero,1016(a5)
 664              	.LVL75:
 665              	.LBE105:
 666              	.LBE104:
 667              	.LBE103:
  12:src/../h/../h/../h/0_console.h ****         return &instance;
 668              		.loc 3 12 25
 669 0424 93071000 		li	a5,1
 670 0428 17070000 		sb	a5,_ZGVZN8IConsole3getEvE8instance,a4
 670      2300F700 
 671              	.L27:
  13:src/../h/../h/../h/0_console.h ****     }
 672              		.loc 3 13 9 is_stmt 1
 673              	.LBE102:
 674              	.LBE101:
  31:src/../h/../h/my_console.h **** 
 675              		.loc 2 31 36 is_stmt 0
 676 0430 17050000 		lla	a0,_ZZN8IConsole3getEvE8instance
 676      13050500 
 677 0438 97000000 		call	_ZN8IConsole14writeToConsoleEv@plt
 677      E7800000 
 678              	.LVL76:
 679              		.loc 2 34 5 is_stmt 1
 680              		.loc 2 34 15 is_stmt 0
GAS LISTING /tmp/ccZPr3v0.s 			page 21


 681 0440 97000000 		call	_Z10stopKernelv@plt
 681      E7800000 
 682              	.LVL77:
 683              	.L34:
 684              	.LBE106:
 685              	.LBE123:
 686              	.LBB124:
 687              	.LBB114:
  24:src/../h/../h/my_console.h ****     putString(file);
 688              		.loc 2 24 5 is_stmt 1
  24:src/../h/../h/my_console.h ****     putString(file);
 689              		.loc 2 24 14 is_stmt 0
 690 0448 17050000 		lla	a0,.LC0
 690      13050500 
 691 0450 97000000 		call	_Z9putStringPKc@plt
 691      E7800000 
 692              	.LVL78:
  25:src/../h/../h/my_console.h ****     putString("    line: ");
 693              		.loc 2 25 5 is_stmt 1
  25:src/../h/../h/my_console.h ****     putString("    line: ");
 694              		.loc 2 25 14 is_stmt 0
 695 0458 17050000 		lla	a0,.LC1
 695      13050500 
 696 0460 97000000 		call	_Z9putStringPKc@plt
 696      E7800000 
 697              	.LVL79:
  26:src/../h/../h/my_console.h ****     putInt(line);
 698              		.loc 2 26 5 is_stmt 1
  26:src/../h/../h/my_console.h ****     putInt(line);
 699              		.loc 2 26 14 is_stmt 0
 700 0468 17050000 		lla	a0,.LC2
 700      13050500 
 701 0470 97000000 		call	_Z9putStringPKc@plt
 701      E7800000 
 702              	.LVL80:
  27:src/../h/../h/my_console.h ****     putString("   ===========================");
 703              		.loc 2 27 5 is_stmt 1
  27:src/../h/../h/my_console.h ****     putString("   ===========================");
 704              		.loc 2 27 11 is_stmt 0
 705 0478 13055005 		li	a0,85
 706 047c 97000000 		call	_Z6putInti@plt
 706      E7800000 
 707              	.LVL81:
  28:src/../h/../h/my_console.h ****     putNewline();
 708              		.loc 2 28 5 is_stmt 1
  28:src/../h/../h/my_console.h ****     putNewline();
 709              		.loc 2 28 14 is_stmt 0
 710 0484 17050000 		lla	a0,.LC3
 710      13050500 
 711 048c 97000000 		call	_Z9putStringPKc@plt
 711      E7800000 
 712              	.LVL82:
  29:src/../h/../h/my_console.h **** 
 713              		.loc 2 29 5 is_stmt 1
  29:src/../h/../h/my_console.h **** 
 714              		.loc 2 29 15 is_stmt 0
 715 0494 97000000 		call	_Z10putNewlinev@plt
GAS LISTING /tmp/ccZPr3v0.s 			page 22


 715      E7800000 
 716              	.LVL83:
  31:src/../h/../h/my_console.h **** 
 717              		.loc 2 31 5 is_stmt 1
 718              	.LBB109:
 719              	.LBB110:
  12:src/../h/../h/../h/0_console.h ****         return &instance;
 720              		.loc 3 12 9
  12:src/../h/../h/../h/0_console.h ****         return &instance;
 721              		.loc 3 12 25 is_stmt 0
 722 049c 97070000 		lbu	a5,_ZGVZN8IConsole3getEvE8instance
 722      83C70700 
 723 04a4 63920702 		bnez	a5,.L29
 724              	.LVL84:
 725              	.LBB111:
 726              	.LBB112:
 727              	.LBB113:
 728              		.loc 3 32 63
 729 04a8 97070000 		lla	a5,_ZZN8IConsole3getEvE8instance
 729      93870700 
 730 04b0 23B00700 		sd	zero,0(a5)
 731 04b4 23B40700 		sd	zero,8(a5)
 732 04b8 23BC073E 		sd	zero,1016(a5)
 733              	.LVL85:
 734              	.LBE113:
 735              	.LBE112:
 736              	.LBE111:
  12:src/../h/../h/../h/0_console.h ****         return &instance;
 737              		.loc 3 12 25
 738 04bc 93071000 		li	a5,1
 739 04c0 17070000 		sb	a5,_ZGVZN8IConsole3getEvE8instance,a4
 739      2300F700 
 740              	.L29:
  13:src/../h/../h/../h/0_console.h ****     }
 741              		.loc 3 13 9 is_stmt 1
 742              	.LBE110:
 743              	.LBE109:
  31:src/../h/../h/my_console.h **** 
 744              		.loc 2 31 36 is_stmt 0
 745 04c8 17050000 		lla	a0,_ZZN8IConsole3getEvE8instance
 745      13050500 
 746 04d0 97000000 		call	_ZN8IConsole14writeToConsoleEv@plt
 746      E7800000 
 747              	.LVL86:
 748              		.loc 2 34 5 is_stmt 1
 749              		.loc 2 34 15 is_stmt 0
 750 04d8 97000000 		call	_Z10stopKernelv@plt
 750      E7800000 
 751              	.LVL87:
 752              	.LBE114:
 753              	.LBE124:
 754              		.cfi_endproc
 755              	.LFE20:
 757              		.align	2
 758              		.globl	_ZN7IThread10allocStackEv
 760              	_ZN7IThread10allocStackEv:
 761              	.LFB24:
GAS LISTING /tmp/ccZPr3v0.s 			page 23


 130:src/thread.cpp ****     assert(pStackStart == nullptr); // error: this threads stack may have already been allocated
 762              		.loc 1 130 1 is_stmt 1
 763              		.cfi_startproc
 764              	.LVL88:
 765 04e0 130101FE 		addi	sp,sp,-32
 766              		.cfi_def_cfa_offset 32
 767 04e4 233C1100 		sd	ra,24(sp)
 768 04e8 23388100 		sd	s0,16(sp)
 769 04ec 23349100 		sd	s1,8(sp)
 770 04f0 23302101 		sd	s2,0(sp)
 771              		.cfi_offset 1, -8
 772              		.cfi_offset 8, -16
 773              		.cfi_offset 9, -24
 774              		.cfi_offset 18, -32
 775 04f4 13040102 		addi	s0,sp,32
 776              		.cfi_def_cfa 8, 0
 131:src/thread.cpp **** 
 777              		.loc 1 131 5
 778 04f8 83378501 		ld	a5,24(a0)
 779              	.LVL89:
 780              	.LBB132:
 781              	.LBB133:
  21:src/../h/../h/my_console.h ****         return;
 782              		.loc 2 21 5
 783 04fc 639A0704 		bnez	a5,.L40
 784 0500 13090500 		mv	s2,a0
  22:src/../h/../h/my_console.h **** 
 785              		.loc 2 22 9
 786              	.LVL90:
 787              	.LBE133:
 788              	.LBE132:
 133:src/thread.cpp ****     uint64 stack =  (uint64)pStackStart + ACTUAL_STACK_SIZE;
 789              		.loc 1 133 5
 133:src/thread.cpp ****     uint64 stack =  (uint64)pStackStart + ACTUAL_STACK_SIZE;
 790              		.loc 1 133 44 is_stmt 0
 791 0504 97000000 		call	_ZN8MemAlloc3getEv@plt
 791      E7800000 
 792              	.LVL91:
 793 050c B7B40000 		li	s1,45056
 794 0510 938504AA 		addi	a1,s1,-1376
 795 0514 97000000 		call	_ZN8MemAlloc8allocMemEm@plt
 795      E7800000 
 796              	.LVL92:
 133:src/thread.cpp ****     uint64 stack =  (uint64)pStackStart + ACTUAL_STACK_SIZE;
 797              		.loc 1 133 17
 798 051c 233CA900 		sd	a0,24(s2)
 134:src/thread.cpp **** 
 799              		.loc 1 134 5 is_stmt 1
 134:src/thread.cpp **** 
 800              		.loc 1 134 12 is_stmt 0
 801 0520 938404AA 		addi	s1,s1,-1376
 802 0524 B3049500 		add	s1,a0,s1
 803              	.LVL93:
 136:src/thread.cpp ****     {
 804              		.loc 1 136 5 is_stmt 1
 136:src/thread.cpp ****     {
 805              		.loc 1 136 14 is_stmt 0
GAS LISTING /tmp/ccZPr3v0.s 			page 24


 806 0528 1375F500 		andi	a0,a0,15
 136:src/thread.cpp ****     {
 807              		.loc 1 136 5
 808 052c 63040500 		beqz	a0,.L38
 138:src/thread.cpp ****     }
 809              		.loc 1 138 9 is_stmt 1
 138:src/thread.cpp ****     }
 810              		.loc 1 138 15 is_stmt 0
 811 0530 93F404FF 		andi	s1,s1,-16
 812              	.LVL94:
 813              	.L38:
 141:src/thread.cpp **** 
 814              		.loc 1 141 5 is_stmt 1
 143:src/thread.cpp **** 
 815              		.loc 1 143 5
 145:src/thread.cpp **** 
 816              		.loc 1 145 1 is_stmt 0
 817 0534 138504EF 		addi	a0,s1,-272
 818              	.LVL95:
 819 0538 83308101 		ld	ra,24(sp)
 820              		.cfi_remember_state
 821              		.cfi_restore 1
 822 053c 03340101 		ld	s0,16(sp)
 823              		.cfi_restore 8
 824              		.cfi_def_cfa 2, 32
 825 0540 83348100 		ld	s1,8(sp)
 826              		.cfi_restore 9
 827 0544 03390100 		ld	s2,0(sp)
 828              		.cfi_restore 18
 829              	.LVL96:
 830 0548 13010102 		addi	sp,sp,32
 831              		.cfi_def_cfa_offset 0
 832 054c 67800000 		jr	ra
 833              	.LVL97:
 834              	.L40:
 835              		.cfi_restore_state
 836              	.LBB140:
 837              	.LBB139:
  24:src/../h/../h/my_console.h ****     putString(file);
 838              		.loc 2 24 5 is_stmt 1
  24:src/../h/../h/my_console.h ****     putString(file);
 839              		.loc 2 24 14 is_stmt 0
 840 0550 17050000 		lla	a0,.LC0
 840      13050500 
 841              	.LVL98:
 842 0558 97000000 		call	_Z9putStringPKc@plt
 842      E7800000 
 843              	.LVL99:
  25:src/../h/../h/my_console.h ****     putString("    line: ");
 844              		.loc 2 25 5 is_stmt 1
  25:src/../h/../h/my_console.h ****     putString("    line: ");
 845              		.loc 2 25 14 is_stmt 0
 846 0560 17050000 		lla	a0,.LC1
 846      13050500 
 847 0568 97000000 		call	_Z9putStringPKc@plt
 847      E7800000 
 848              	.LVL100:
GAS LISTING /tmp/ccZPr3v0.s 			page 25


  26:src/../h/../h/my_console.h ****     putInt(line);
 849              		.loc 2 26 5 is_stmt 1
  26:src/../h/../h/my_console.h ****     putInt(line);
 850              		.loc 2 26 14 is_stmt 0
 851 0570 17050000 		lla	a0,.LC2
 851      13050500 
 852 0578 97000000 		call	_Z9putStringPKc@plt
 852      E7800000 
 853              	.LVL101:
  27:src/../h/../h/my_console.h ****     putString("   ===========================");
 854              		.loc 2 27 5 is_stmt 1
  27:src/../h/../h/my_console.h ****     putString("   ===========================");
 855              		.loc 2 27 11 is_stmt 0
 856 0580 13053008 		li	a0,131
 857 0584 97000000 		call	_Z6putInti@plt
 857      E7800000 
 858              	.LVL102:
  28:src/../h/../h/my_console.h ****     putNewline();
 859              		.loc 2 28 5 is_stmt 1
  28:src/../h/../h/my_console.h ****     putNewline();
 860              		.loc 2 28 14 is_stmt 0
 861 058c 17050000 		lla	a0,.LC3
 861      13050500 
 862 0594 97000000 		call	_Z9putStringPKc@plt
 862      E7800000 
 863              	.LVL103:
  29:src/../h/../h/my_console.h **** 
 864              		.loc 2 29 5 is_stmt 1
  29:src/../h/../h/my_console.h **** 
 865              		.loc 2 29 15 is_stmt 0
 866 059c 97000000 		call	_Z10putNewlinev@plt
 866      E7800000 
 867              	.LVL104:
  31:src/../h/../h/my_console.h **** 
 868              		.loc 2 31 5 is_stmt 1
 869              	.LBB134:
 870              	.LBB135:
  12:src/../h/../h/../h/0_console.h ****         return &instance;
 871              		.loc 3 12 9
  12:src/../h/../h/../h/0_console.h ****         return &instance;
 872              		.loc 3 12 25 is_stmt 0
 873 05a4 97070000 		lbu	a5,_ZGVZN8IConsole3getEvE8instance
 873      83C70700 
 874 05ac 63920702 		bnez	a5,.L37
 875              	.LVL105:
 876              	.LBB136:
 877              	.LBB137:
 878              	.LBB138:
 879              		.loc 3 32 63
 880 05b0 97070000 		lla	a5,_ZZN8IConsole3getEvE8instance
 880      93870700 
 881 05b8 23B00700 		sd	zero,0(a5)
 882 05bc 23B40700 		sd	zero,8(a5)
 883 05c0 23BC073E 		sd	zero,1016(a5)
 884              	.LVL106:
 885              	.LBE138:
 886              	.LBE137:
GAS LISTING /tmp/ccZPr3v0.s 			page 26


 887              	.LBE136:
  12:src/../h/../h/../h/0_console.h ****         return &instance;
 888              		.loc 3 12 25
 889 05c4 93071000 		li	a5,1
 890 05c8 17070000 		sb	a5,_ZGVZN8IConsole3getEvE8instance,a4
 890      2300F700 
 891              	.L37:
  13:src/../h/../h/../h/0_console.h ****     }
 892              		.loc 3 13 9 is_stmt 1
 893              	.LBE135:
 894              	.LBE134:
  31:src/../h/../h/my_console.h **** 
 895              		.loc 2 31 36 is_stmt 0
 896 05d0 17050000 		lla	a0,_ZZN8IConsole3getEvE8instance
 896      13050500 
 897 05d8 97000000 		call	_ZN8IConsole14writeToConsoleEv@plt
 897      E7800000 
 898              	.LVL107:
 899              		.loc 2 34 5 is_stmt 1
 900              		.loc 2 34 15 is_stmt 0
 901 05e0 97000000 		call	_Z10stopKernelv@plt
 901      E7800000 
 902              	.LVL108:
 903              	.LBE139:
 904              	.LBE140:
 905              		.cfi_endproc
 906              	.LFE24:
 908              		.align	2
 909              		.globl	_ZN7IThread4initEPFvPvES0_S0_
 911              	_ZN7IThread4initEPFvPvES0_S0_:
 912              	.LFB26:
 152:src/thread.cpp **** 
 153:src/thread.cpp **** void IThread::init(Body body, void* arg, void* pLogicalStack) // this is used as a "constructor", e
 154:src/thread.cpp **** {
 913              		.loc 1 154 1 is_stmt 1
 914              		.cfi_startproc
 915              	.LVL109:
 916 05e8 130101FF 		addi	sp,sp,-16
 917              		.cfi_def_cfa_offset 16
 918 05ec 23341100 		sd	ra,8(sp)
 919 05f0 23308100 		sd	s0,0(sp)
 920              		.cfi_offset 1, -8
 921              		.cfi_offset 8, -16
 922 05f4 13040101 		addi	s0,sp,16
 923              		.cfi_def_cfa 8, 0
 155:src/thread.cpp ****     assert(nrTotalThreads < MAX_NR_TOTAL_THREADS);
 924              		.loc 1 155 5
 925 05f8 97070000 		ld	a5,.LANCHOR1
 925      83B70700 
 926 0600 93B74706 		sltiu	a5,a5,100
 927              	.LVL110:
 928              	.LBB156:
 929              	.LBB157:
  21:src/../h/../h/my_console.h ****         return;
 930              		.loc 2 21 5
 931 0604 638E0704 		beqz	a5,.L49
  22:src/../h/../h/my_console.h **** 
GAS LISTING /tmp/ccZPr3v0.s 			page 27


 932              		.loc 2 22 9
 933              	.LVL111:
 934              	.LBE157:
 935              	.LBE156:
 156:src/thread.cpp ****     id = nrTotalThreads;
 936              		.loc 1 156 5
 937              		.loc 1 156 8 is_stmt 0
 938 0608 17070000 		lla	a4,.LANCHOR1
 938      13070700 
 939 0610 83370700 		ld	a5,0(a4)
 940 0614 2334F502 		sd	a5,40(a0)
 157:src/thread.cpp ****     nrTotalThreads++;
 941              		.loc 1 157 5 is_stmt 1
 942              		.loc 1 157 19 is_stmt 0
 943 0618 93871700 		addi	a5,a5,1
 944 061c 2330F700 		sd	a5,0(a4)
 158:src/thread.cpp **** 
 159:src/thread.cpp ****     assert((uint64)pLogicalStack % 16 == 0);
 945              		.loc 1 159 5 is_stmt 1
 946 0620 93F7F600 		andi	a5,a3,15
 947              	.LVL112:
 948              	.LBB164:
 949              	.LBB165:
  21:src/../h/../h/my_console.h ****         return;
 950              		.loc 2 21 5
 951 0624 639A070C 		bnez	a5,.L50
  22:src/../h/../h/my_console.h **** 
 952              		.loc 2 22 9
 953              	.LVL113:
 954              	.LBE165:
 955              	.LBE164:
 160:src/thread.cpp **** 
 161:src/thread.cpp ****     state = INITIALIZING;
 956              		.loc 1 161 5
 162:src/thread.cpp ****     timeSlice = DEFAULT_TIME_SLICE;
 957              		.loc 1 162 5
 958              		.loc 1 162 15 is_stmt 0
 959 0628 93072000 		li	a5,2
 960 062c 2330F502 		sd	a5,32(a0)
 163:src/thread.cpp ****     pNext = nullptr;
 961              		.loc 1 163 5 is_stmt 1
 962              		.loc 1 163 11 is_stmt 0
 963 0630 23380502 		sd	zero,48(a0)
 164:src/thread.cpp ****     pWaitingHead = nullptr;
 964              		.loc 1 164 5 is_stmt 1
 965              		.loc 1 164 18 is_stmt 0
 966 0634 233C0502 		sd	zero,56(a0)
 165:src/thread.cpp ****     done = false;
 967              		.loc 1 165 5 is_stmt 1
 968              		.loc 1 165 10 is_stmt 0
 969 0638 23000504 		sb	zero,64(a0)
 166:src/thread.cpp **** 
 167:src/thread.cpp ****     // sets context
 168:src/thread.cpp ****     sp = (uint64*)pLogicalStack; // sp field
 970              		.loc 1 168 5 is_stmt 1
 971              		.loc 1 168 8 is_stmt 0
 972 063c 2338D504 		sd	a3,80(a0)
GAS LISTING /tmp/ccZPr3v0.s 			page 28


 169:src/thread.cpp **** 
 170:src/thread.cpp ****     // skipping a0 to pass arguments as it is will be not be restored in the context switch because
 171:src/thread.cpp **** 
 172:src/thread.cpp ****     for(int i=0; i<32; i++) // temp
 973              		.loc 1 172 5 is_stmt 1
 974              	.LVL114:
 975              	.LBB172:
 976              		.loc 1 172 13 is_stmt 0
 977 0640 93070000 		li	a5,0
 978              	.LVL115:
 979              	.L47:
 980              		.loc 1 172 19 is_stmt 1 discriminator 3
 981 0644 1307F001 		li	a4,31
 982 0648 6344F714 		bgt	a5,a4,.L46
 173:src/thread.cpp ****     {
 174:src/thread.cpp ****         *((uint64*)pLogicalStack + i) = i;
 983              		.loc 1 174 9 discriminator 2
 984              		.loc 1 174 34 is_stmt 0 discriminator 2
 985 064c 13973700 		slli	a4,a5,3
 986 0650 3387E600 		add	a4,a3,a4
 987              		.loc 1 174 39 discriminator 2
 988 0654 2330F700 		sd	a5,0(a4)
 172:src/thread.cpp ****     {
 989              		.loc 1 172 5 is_stmt 1 discriminator 2
 990 0658 9B871700 		addiw	a5,a5,1
 991              	.LVL116:
 992 065c 6FF09FFE 		j	.L47
 993              	.LVL117:
 994              	.L49:
 995              	.LBE172:
 996              	.LBB173:
 997              	.LBB163:
  24:src/../h/../h/my_console.h ****     putString(file);
 998              		.loc 2 24 5
  24:src/../h/../h/my_console.h ****     putString(file);
 999              		.loc 2 24 14 is_stmt 0
 1000 0660 17050000 		lla	a0,.LC0
 1000      13050500 
 1001              	.LVL118:
 1002 0668 97000000 		call	_Z9putStringPKc@plt
 1002      E7800000 
 1003              	.LVL119:
  25:src/../h/../h/my_console.h ****     putString("    line: ");
 1004              		.loc 2 25 5 is_stmt 1
  25:src/../h/../h/my_console.h ****     putString("    line: ");
 1005              		.loc 2 25 14 is_stmt 0
 1006 0670 17050000 		lla	a0,.LC1
 1006      13050500 
 1007 0678 97000000 		call	_Z9putStringPKc@plt
 1007      E7800000 
 1008              	.LVL120:
  26:src/../h/../h/my_console.h ****     putInt(line);
 1009              		.loc 2 26 5 is_stmt 1
  26:src/../h/../h/my_console.h ****     putInt(line);
 1010              		.loc 2 26 14 is_stmt 0
 1011 0680 17050000 		lla	a0,.LC2
 1011      13050500 
GAS LISTING /tmp/ccZPr3v0.s 			page 29


 1012 0688 97000000 		call	_Z9putStringPKc@plt
 1012      E7800000 
 1013              	.LVL121:
  27:src/../h/../h/my_console.h ****     putString("   ===========================");
 1014              		.loc 2 27 5 is_stmt 1
  27:src/../h/../h/my_console.h ****     putString("   ===========================");
 1015              		.loc 2 27 11 is_stmt 0
 1016 0690 1305B009 		li	a0,155
 1017 0694 97000000 		call	_Z6putInti@plt
 1017      E7800000 
 1018              	.LVL122:
  28:src/../h/../h/my_console.h ****     putNewline();
 1019              		.loc 2 28 5 is_stmt 1
  28:src/../h/../h/my_console.h ****     putNewline();
 1020              		.loc 2 28 14 is_stmt 0
 1021 069c 17050000 		lla	a0,.LC3
 1021      13050500 
 1022 06a4 97000000 		call	_Z9putStringPKc@plt
 1022      E7800000 
 1023              	.LVL123:
  29:src/../h/../h/my_console.h **** 
 1024              		.loc 2 29 5 is_stmt 1
  29:src/../h/../h/my_console.h **** 
 1025              		.loc 2 29 15 is_stmt 0
 1026 06ac 97000000 		call	_Z10putNewlinev@plt
 1026      E7800000 
 1027              	.LVL124:
  31:src/../h/../h/my_console.h **** 
 1028              		.loc 2 31 5 is_stmt 1
 1029              	.LBB158:
 1030              	.LBB159:
  12:src/../h/../h/../h/0_console.h ****         return &instance;
 1031              		.loc 3 12 9
  12:src/../h/../h/../h/0_console.h ****         return &instance;
 1032              		.loc 3 12 25 is_stmt 0
 1033 06b4 97070000 		lbu	a5,_ZGVZN8IConsole3getEvE8instance
 1033      83C70700 
 1034 06bc 63920702 		bnez	a5,.L43
 1035              	.LVL125:
 1036              	.LBB160:
 1037              	.LBB161:
 1038              	.LBB162:
 1039              		.loc 3 32 63
 1040 06c0 97070000 		lla	a5,_ZZN8IConsole3getEvE8instance
 1040      93870700 
 1041 06c8 23B00700 		sd	zero,0(a5)
 1042 06cc 23B40700 		sd	zero,8(a5)
 1043 06d0 23BC073E 		sd	zero,1016(a5)
 1044              	.LVL126:
 1045              	.LBE162:
 1046              	.LBE161:
 1047              	.LBE160:
  12:src/../h/../h/../h/0_console.h ****         return &instance;
 1048              		.loc 3 12 25
 1049 06d4 93071000 		li	a5,1
 1050 06d8 17070000 		sb	a5,_ZGVZN8IConsole3getEvE8instance,a4
 1050      2300F700 
GAS LISTING /tmp/ccZPr3v0.s 			page 30


 1051              	.L43:
  13:src/../h/../h/../h/0_console.h ****     }
 1052              		.loc 3 13 9 is_stmt 1
 1053              	.LBE159:
 1054              	.LBE158:
  31:src/../h/../h/my_console.h **** 
 1055              		.loc 2 31 36 is_stmt 0
 1056 06e0 17050000 		lla	a0,_ZZN8IConsole3getEvE8instance
 1056      13050500 
 1057 06e8 97000000 		call	_ZN8IConsole14writeToConsoleEv@plt
 1057      E7800000 
 1058              	.LVL127:
 1059              		.loc 2 34 5 is_stmt 1
 1060              		.loc 2 34 15 is_stmt 0
 1061 06f0 97000000 		call	_Z10stopKernelv@plt
 1061      E7800000 
 1062              	.LVL128:
 1063              	.L50:
 1064              	.LBE163:
 1065              	.LBE173:
 1066              	.LBB174:
 1067              	.LBB171:
  24:src/../h/../h/my_console.h ****     putString(file);
 1068              		.loc 2 24 5 is_stmt 1
  24:src/../h/../h/my_console.h ****     putString(file);
 1069              		.loc 2 24 14 is_stmt 0
 1070 06f8 17050000 		lla	a0,.LC0
 1070      13050500 
 1071              	.LVL129:
 1072 0700 97000000 		call	_Z9putStringPKc@plt
 1072      E7800000 
 1073              	.LVL130:
  25:src/../h/../h/my_console.h ****     putString("    line: ");
 1074              		.loc 2 25 5 is_stmt 1
  25:src/../h/../h/my_console.h ****     putString("    line: ");
 1075              		.loc 2 25 14 is_stmt 0
 1076 0708 17050000 		lla	a0,.LC1
 1076      13050500 
 1077 0710 97000000 		call	_Z9putStringPKc@plt
 1077      E7800000 
 1078              	.LVL131:
  26:src/../h/../h/my_console.h ****     putInt(line);
 1079              		.loc 2 26 5 is_stmt 1
  26:src/../h/../h/my_console.h ****     putInt(line);
 1080              		.loc 2 26 14 is_stmt 0
 1081 0718 17050000 		lla	a0,.LC2
 1081      13050500 
 1082 0720 97000000 		call	_Z9putStringPKc@plt
 1082      E7800000 
 1083              	.LVL132:
  27:src/../h/../h/my_console.h ****     putString("   ===========================");
 1084              		.loc 2 27 5 is_stmt 1
  27:src/../h/../h/my_console.h ****     putString("   ===========================");
 1085              		.loc 2 27 11 is_stmt 0
 1086 0728 1305F009 		li	a0,159
 1087 072c 97000000 		call	_Z6putInti@plt
 1087      E7800000 
GAS LISTING /tmp/ccZPr3v0.s 			page 31


 1088              	.LVL133:
  28:src/../h/../h/my_console.h ****     putNewline();
 1089              		.loc 2 28 5 is_stmt 1
  28:src/../h/../h/my_console.h ****     putNewline();
 1090              		.loc 2 28 14 is_stmt 0
 1091 0734 17050000 		lla	a0,.LC3
 1091      13050500 
 1092 073c 97000000 		call	_Z9putStringPKc@plt
 1092      E7800000 
 1093              	.LVL134:
  29:src/../h/../h/my_console.h **** 
 1094              		.loc 2 29 5 is_stmt 1
  29:src/../h/../h/my_console.h **** 
 1095              		.loc 2 29 15 is_stmt 0
 1096 0744 97000000 		call	_Z10putNewlinev@plt
 1096      E7800000 
 1097              	.LVL135:
  31:src/../h/../h/my_console.h **** 
 1098              		.loc 2 31 5 is_stmt 1
 1099              	.LBB166:
 1100              	.LBB167:
  12:src/../h/../h/../h/0_console.h ****         return &instance;
 1101              		.loc 3 12 9
  12:src/../h/../h/../h/0_console.h ****         return &instance;
 1102              		.loc 3 12 25 is_stmt 0
 1103 074c 97070000 		lbu	a5,_ZGVZN8IConsole3getEvE8instance
 1103      83C70700 
 1104 0754 63920702 		bnez	a5,.L45
 1105              	.LVL136:
 1106              	.LBB168:
 1107              	.LBB169:
 1108              	.LBB170:
 1109              		.loc 3 32 63
 1110 0758 97070000 		lla	a5,_ZZN8IConsole3getEvE8instance
 1110      93870700 
 1111 0760 23B00700 		sd	zero,0(a5)
 1112 0764 23B40700 		sd	zero,8(a5)
 1113 0768 23BC073E 		sd	zero,1016(a5)
 1114              	.LVL137:
 1115              	.LBE170:
 1116              	.LBE169:
 1117              	.LBE168:
  12:src/../h/../h/../h/0_console.h ****         return &instance;
 1118              		.loc 3 12 25
 1119 076c 93071000 		li	a5,1
 1120 0770 17070000 		sb	a5,_ZGVZN8IConsole3getEvE8instance,a4
 1120      2300F700 
 1121              	.L45:
  13:src/../h/../h/../h/0_console.h ****     }
 1122              		.loc 3 13 9 is_stmt 1
 1123              	.LBE167:
 1124              	.LBE166:
  31:src/../h/../h/my_console.h **** 
 1125              		.loc 2 31 36 is_stmt 0
 1126 0778 17050000 		lla	a0,_ZZN8IConsole3getEvE8instance
 1126      13050500 
 1127 0780 97000000 		call	_ZN8IConsole14writeToConsoleEv@plt
GAS LISTING /tmp/ccZPr3v0.s 			page 32


 1127      E7800000 
 1128              	.LVL138:
 1129              		.loc 2 34 5 is_stmt 1
 1130              		.loc 2 34 15 is_stmt 0
 1131 0788 97000000 		call	_Z10stopKernelv@plt
 1131      E7800000 
 1132              	.LVL139:
 1133              	.L46:
 1134              	.LBE171:
 1135              	.LBE174:
 175:src/thread.cpp ****     }
 176:src/thread.cpp **** 
 177:src/thread.cpp ****     *((uint64*)pLogicalStack + 11) = (uint64)body;
 1136              		.loc 1 177 5 is_stmt 1
 1137              		.loc 1 177 36 is_stmt 0
 1138 0790 23BCB604 		sd	a1,88(a3)
 178:src/thread.cpp ****     *((uint64*)pLogicalStack + 12) = *((uint64*)&arg);
 1139              		.loc 1 178 5 is_stmt 1
 1140              		.loc 1 178 36 is_stmt 0
 1141 0794 23B0C606 		sd	a2,96(a3)
 179:src/thread.cpp ****     *((uint64*)pLogicalStack + 32) = (uint64)&wrapper;
 1142              		.loc 1 179 5 is_stmt 1
 1143              		.loc 1 179 36 is_stmt 0
 1144 0798 97070000 		lla	a5,_Z7wrappermPFvPvES_
 1144      93870700 
 1145              	.LVL140:
 1146 07a0 23B0F610 		sd	a5,256(a3)
 180:src/thread.cpp **** 
 181:src/thread.cpp ****     state = READY;
 1147              		.loc 1 181 5 is_stmt 1
 1148              		.loc 1 181 11 is_stmt 0
 1149 07a4 93072000 		li	a5,2
 1150 07a8 2320F500 		sw	a5,0(a0)
 182:src/thread.cpp **** }
 1151              		.loc 1 182 1
 1152 07ac 83308100 		ld	ra,8(sp)
 1153              		.cfi_restore 1
 1154 07b0 03340100 		ld	s0,0(sp)
 1155              		.cfi_restore 8
 1156              		.cfi_def_cfa 2, 16
 1157 07b4 13010101 		addi	sp,sp,16
 1158              		.cfi_def_cfa_offset 0
 1159 07b8 67800000 		jr	ra
 1160              		.cfi_endproc
 1161              	.LFE26:
 1163              		.align	2
 1164              		.globl	_ZN7IThread12createThreadEPmPFvPvES1_
 1166              	_ZN7IThread12createThreadEPmPFvPvES1_:
 1167              	.LFB22:
 105:src/thread.cpp ****     assert(nrTotalThreads < MAX_NR_TOTAL_THREADS);
 1168              		.loc 1 105 1 is_stmt 1
 1169              		.cfi_startproc
 1170              	.LVL141:
 1171 07bc 130101FD 		addi	sp,sp,-48
 1172              		.cfi_def_cfa_offset 48
 1173 07c0 23341102 		sd	ra,40(sp)
 1174 07c4 23308102 		sd	s0,32(sp)
GAS LISTING /tmp/ccZPr3v0.s 			page 33


 1175 07c8 233C9100 		sd	s1,24(sp)
 1176 07cc 23382101 		sd	s2,16(sp)
 1177 07d0 23343101 		sd	s3,8(sp)
 1178 07d4 23304101 		sd	s4,0(sp)
 1179              		.cfi_offset 1, -8
 1180              		.cfi_offset 8, -16
 1181              		.cfi_offset 9, -24
 1182              		.cfi_offset 18, -32
 1183              		.cfi_offset 19, -40
 1184              		.cfi_offset 20, -48
 1185 07d8 13040103 		addi	s0,sp,48
 1186              		.cfi_def_cfa 8, 0
 106:src/thread.cpp **** 
 1187              		.loc 1 106 5
 1188 07dc 97070000 		ld	a5,.LANCHOR1
 1188      83B70700 
 1189 07e4 93B74706 		sltiu	a5,a5,100
 1190              	.LVL142:
 1191              	.LBB182:
 1192              	.LBB183:
  21:src/../h/../h/my_console.h ****         return;
 1193              		.loc 2 21 5
 1194 07e8 6380070A 		beqz	a5,.L55
 1195 07ec 13090500 		mv	s2,a0
 1196 07f0 93890500 		mv	s3,a1
 1197 07f4 130A0600 		mv	s4,a2
  22:src/../h/../h/my_console.h **** 
 1198              		.loc 2 22 9
 1199              	.LVL143:
 1200              	.LBE183:
 1201              	.LBE182:
 108:src/thread.cpp ****     pAllThreads[nrTotalThreads] = t;
 1202              		.loc 1 108 5
 108:src/thread.cpp ****     pAllThreads[nrTotalThreads] = t;
 1203              		.loc 1 108 53 is_stmt 0
 1204 07f8 97000000 		call	_ZN8MemAlloc3getEv@plt
 1204      E7800000 
 1205              	.LVL144:
 1206 0800 93058005 		li	a1,88
 1207 0804 97000000 		call	_ZN8MemAlloc8allocMemEm@plt
 1207      E7800000 
 1208              	.LVL145:
 1209 080c 93040500 		mv	s1,a0
 1210              	.LVL146:
 109:src/thread.cpp **** 
 1211              		.loc 1 109 5 is_stmt 1
 109:src/thread.cpp **** 
 1212              		.loc 1 109 33 is_stmt 0
 1213 0810 97070000 		ld	a5,.LANCHOR1
 1213      83B70700 
 1214 0818 13973700 		slli	a4,a5,3
 1215 081c 97070000 		lla	a5,.LANCHOR0
 1215      93870700 
 1216 0824 B387E700 		add	a5,a5,a4
 1217 0828 23B8A700 		sd	a0,16(a5)
 111:src/thread.cpp ****     void* pLogicalStack = t->allocStack();
 1218              		.loc 1 111 5 is_stmt 1
GAS LISTING /tmp/ccZPr3v0.s 			page 34


 111:src/thread.cpp ****     void* pLogicalStack = t->allocStack();
 1219              		.loc 1 111 20 is_stmt 0
 1220 082c 233C0500 		sd	zero,24(a0)
 112:src/thread.cpp **** 
 1221              		.loc 1 112 5 is_stmt 1
 112:src/thread.cpp **** 
 1222              		.loc 1 112 40 is_stmt 0
 1223 0830 97000000 		call	_ZN7IThread10allocStackEv
 1223      E7800000 
 1224              	.LVL147:
 1225 0838 93060500 		mv	a3,a0
 1226              	.LVL148:
 114:src/thread.cpp **** 
 1227              		.loc 1 114 5 is_stmt 1
 114:src/thread.cpp **** 
 1228              		.loc 1 114 12 is_stmt 0
 1229 083c 13060A00 		mv	a2,s4
 1230 0840 93850900 		mv	a1,s3
 1231 0844 13850400 		mv	a0,s1
 1232              	.LVL149:
 1233 0848 97000000 		call	_ZN7IThread4initEPFvPvES0_S0_
 1233      E7800000 
 1234              	.LVL150:
 116:src/thread.cpp **** 
 1235              		.loc 1 116 5 is_stmt 1
 116:src/thread.cpp **** 
 1236              		.loc 1 116 14 is_stmt 0
 1237 0850 83B78402 		ld	a5,40(s1)
 116:src/thread.cpp **** 
 1238              		.loc 1 116 9
 1239 0854 2330F900 		sd	a5,0(s2)
 118:src/thread.cpp **** 
 1240              		.loc 1 118 5 is_stmt 1
 118:src/thread.cpp **** 
 1241              		.loc 1 118 19 is_stmt 0
 1242 0858 13850400 		mv	a0,s1
 1243 085c 97000000 		call	_ZN9Scheduler3putEP7IThread@plt
 1243      E7800000 
 1244              	.LVL151:
 120:src/thread.cpp **** }
 1245              		.loc 1 120 5 is_stmt 1
 121:src/thread.cpp **** 
 1246              		.loc 1 121 1 is_stmt 0
 1247 0864 13050000 		li	a0,0
 1248 0868 83308102 		ld	ra,40(sp)
 1249              		.cfi_remember_state
 1250              		.cfi_restore 1
 1251 086c 03340102 		ld	s0,32(sp)
 1252              		.cfi_restore 8
 1253              		.cfi_def_cfa 2, 48
 1254 0870 83348101 		ld	s1,24(sp)
 1255              		.cfi_restore 9
 1256              	.LVL152:
 1257 0874 03390101 		ld	s2,16(sp)
 1258              		.cfi_restore 18
 1259              	.LVL153:
 1260 0878 83398100 		ld	s3,8(sp)
GAS LISTING /tmp/ccZPr3v0.s 			page 35


 1261              		.cfi_restore 19
 1262              	.LVL154:
 1263 087c 033A0100 		ld	s4,0(sp)
 1264              		.cfi_restore 20
 1265              	.LVL155:
 1266 0880 13010103 		addi	sp,sp,48
 1267              		.cfi_def_cfa_offset 0
 1268 0884 67800000 		jr	ra
 1269              	.LVL156:
 1270              	.L55:
 1271              		.cfi_restore_state
 1272              	.LBB190:
 1273              	.LBB189:
  24:src/../h/../h/my_console.h ****     putString(file);
 1274              		.loc 2 24 5 is_stmt 1
  24:src/../h/../h/my_console.h ****     putString(file);
 1275              		.loc 2 24 14 is_stmt 0
 1276 0888 17050000 		lla	a0,.LC0
 1276      13050500 
 1277              	.LVL157:
 1278 0890 97000000 		call	_Z9putStringPKc@plt
 1278      E7800000 
 1279              	.LVL158:
  25:src/../h/../h/my_console.h ****     putString("    line: ");
 1280              		.loc 2 25 5 is_stmt 1
  25:src/../h/../h/my_console.h ****     putString("    line: ");
 1281              		.loc 2 25 14 is_stmt 0
 1282 0898 17050000 		lla	a0,.LC1
 1282      13050500 
 1283 08a0 97000000 		call	_Z9putStringPKc@plt
 1283      E7800000 
 1284              	.LVL159:
  26:src/../h/../h/my_console.h ****     putInt(line);
 1285              		.loc 2 26 5 is_stmt 1
  26:src/../h/../h/my_console.h ****     putInt(line);
 1286              		.loc 2 26 14 is_stmt 0
 1287 08a8 17050000 		lla	a0,.LC2
 1287      13050500 
 1288 08b0 97000000 		call	_Z9putStringPKc@plt
 1288      E7800000 
 1289              	.LVL160:
  27:src/../h/../h/my_console.h ****     putString("   ===========================");
 1290              		.loc 2 27 5 is_stmt 1
  27:src/../h/../h/my_console.h ****     putString("   ===========================");
 1291              		.loc 2 27 11 is_stmt 0
 1292 08b8 1305A006 		li	a0,106
 1293 08bc 97000000 		call	_Z6putInti@plt
 1293      E7800000 
 1294              	.LVL161:
  28:src/../h/../h/my_console.h ****     putNewline();
 1295              		.loc 2 28 5 is_stmt 1
  28:src/../h/../h/my_console.h ****     putNewline();
 1296              		.loc 2 28 14 is_stmt 0
 1297 08c4 17050000 		lla	a0,.LC3
 1297      13050500 
 1298 08cc 97000000 		call	_Z9putStringPKc@plt
 1298      E7800000 
GAS LISTING /tmp/ccZPr3v0.s 			page 36


 1299              	.LVL162:
  29:src/../h/../h/my_console.h **** 
 1300              		.loc 2 29 5 is_stmt 1
  29:src/../h/../h/my_console.h **** 
 1301              		.loc 2 29 15 is_stmt 0
 1302 08d4 97000000 		call	_Z10putNewlinev@plt
 1302      E7800000 
 1303              	.LVL163:
  31:src/../h/../h/my_console.h **** 
 1304              		.loc 2 31 5 is_stmt 1
 1305              	.LBB184:
 1306              	.LBB185:
  12:src/../h/../h/../h/0_console.h ****         return &instance;
 1307              		.loc 3 12 9
  12:src/../h/../h/../h/0_console.h ****         return &instance;
 1308              		.loc 3 12 25 is_stmt 0
 1309 08dc 97070000 		lbu	a5,_ZGVZN8IConsole3getEvE8instance
 1309      83C70700 
 1310 08e4 63920702 		bnez	a5,.L53
 1311              	.LVL164:
 1312              	.LBB186:
 1313              	.LBB187:
 1314              	.LBB188:
 1315              		.loc 3 32 63
 1316 08e8 97070000 		lla	a5,_ZZN8IConsole3getEvE8instance
 1316      93870700 
 1317 08f0 23B00700 		sd	zero,0(a5)
 1318 08f4 23B40700 		sd	zero,8(a5)
 1319 08f8 23BC073E 		sd	zero,1016(a5)
 1320              	.LVL165:
 1321              	.LBE188:
 1322              	.LBE187:
 1323              	.LBE186:
  12:src/../h/../h/../h/0_console.h ****         return &instance;
 1324              		.loc 3 12 25
 1325 08fc 93071000 		li	a5,1
 1326 0900 17070000 		sb	a5,_ZGVZN8IConsole3getEvE8instance,a4
 1326      2300F700 
 1327              	.L53:
  13:src/../h/../h/../h/0_console.h ****     }
 1328              		.loc 3 13 9 is_stmt 1
 1329              	.LBE185:
 1330              	.LBE184:
  31:src/../h/../h/my_console.h **** 
 1331              		.loc 2 31 36 is_stmt 0
 1332 0908 17050000 		lla	a0,_ZZN8IConsole3getEvE8instance
 1332      13050500 
 1333 0910 97000000 		call	_ZN8IConsole14writeToConsoleEv@plt
 1333      E7800000 
 1334              	.LVL166:
 1335              		.loc 2 34 5 is_stmt 1
 1336              		.loc 2 34 15 is_stmt 0
 1337 0918 97000000 		call	_Z10stopKernelv@plt
 1337      E7800000 
 1338              	.LVL167:
 1339              	.LBE189:
 1340              	.LBE190:
GAS LISTING /tmp/ccZPr3v0.s 			page 37


 1341              		.cfi_endproc
 1342              	.LFE22:
 1344              		.align	2
 1345              		.globl	_ZN7IThread4exitEv
 1347              	_ZN7IThread4exitEv:
 1348              	.LFB27:
 183:src/thread.cpp **** 
 184:src/thread.cpp **** int IThread::exit()
 185:src/thread.cpp **** {
 1349              		.loc 1 185 1 is_stmt 1
 1350              		.cfi_startproc
 1351 0920 130101FE 		addi	sp,sp,-32
 1352              		.cfi_def_cfa_offset 32
 1353 0924 233C1100 		sd	ra,24(sp)
 1354 0928 23388100 		sd	s0,16(sp)
 1355 092c 23349100 		sd	s1,8(sp)
 1356              		.cfi_offset 1, -8
 1357              		.cfi_offset 8, -16
 1358              		.cfi_offset 9, -24
 1359 0930 13040102 		addi	s0,sp,32
 1360              		.cfi_def_cfa 8, 0
 186:src/thread.cpp ****     IThread* t = IThread::getPRunning();
 1361              		.loc 1 186 5
 1362              		.loc 1 186 38 is_stmt 0
 1363 0934 97000000 		call	_ZN7IThread11getPRunningEv
 1363      E7800000 
 1364              	.LVL168:
 187:src/thread.cpp ****     assert(t->state == RUNNING);
 1365              		.loc 1 187 5 is_stmt 1
 1366 093c 83270500 		lw	a5,0(a0)
 1367              	.LVL169:
 1368              	.LBB205:
 1369              	.LBB206:
  21:src/../h/../h/my_console.h ****         return;
 1370              		.loc 2 21 5
 1371 0940 639E0704 		bnez	a5,.L62
 1372 0944 93040500 		mv	s1,a0
  22:src/../h/../h/my_console.h **** 
 1373              		.loc 2 22 9
 1374              	.LVL170:
 1375              	.LBE206:
 1376              	.LBE205:
 188:src/thread.cpp ****     assert(t->done == false);
 1377              		.loc 1 188 5
 1378 0948 83470504 		lbu	a5,64(a0)
 1379 094c 93C71700 		xori	a5,a5,1
 1380              	.LVL171:
 1381              	.LBB213:
 1382              	.LBB214:
  21:src/../h/../h/my_console.h ****         return;
 1383              		.loc 2 21 5
 1384 0950 6382070E 		beqz	a5,.L63
  22:src/../h/../h/my_console.h **** 
 1385              		.loc 2 22 9
 1386              	.LVL172:
 1387              	.LBE214:
 1388              	.LBE213:
GAS LISTING /tmp/ccZPr3v0.s 			page 38


 189:src/thread.cpp ****     t->done = true;
 1389              		.loc 1 189 5
 1390              		.loc 1 189 13 is_stmt 0
 1391 0954 93071000 		li	a5,1
 1392 0958 2300F504 		sb	a5,64(a0)
 190:src/thread.cpp **** 
 191:src/thread.cpp ****     MemAlloc::get()->freeMem(t->pStackStart);
 1393              		.loc 1 191 5 is_stmt 1
 1394              		.loc 1 191 29 is_stmt 0
 1395 095c 97000000 		call	_ZN8MemAlloc3getEv@plt
 1395      E7800000 
 1396              	.LVL173:
 1397 0964 83B58401 		ld	a1,24(s1)
 1398 0968 97000000 		call	_ZN8MemAlloc7freeMemEPv@plt
 1398      E7800000 
 1399              	.LVL174:
 192:src/thread.cpp **** 
 193:src/thread.cpp ****     t->signalDone(); // WARNING: must be in this order
 1400              		.loc 1 193 5 is_stmt 1
 1401              		.loc 1 193 18 is_stmt 0
 1402 0970 13850400 		mv	a0,s1
 1403 0974 97000000 		call	_ZN7IThread10signalDoneEv
 1403      E7800000 
 1404              	.LVL175:
 194:src/thread.cpp **** 
 195:src/thread.cpp ****     Scheduler::dispatchToNext(); // WARNING: must be before signalDone()
 1405              		.loc 1 195 5 is_stmt 1
 1406              		.loc 1 195 30 is_stmt 0
 1407 097c 97000000 		call	_ZN9Scheduler14dispatchToNextEv@plt
 1407      E7800000 
 1408              	.LVL176:
 196:src/thread.cpp **** 
 197:src/thread.cpp ****     return 0;
 1409              		.loc 1 197 5 is_stmt 1
 198:src/thread.cpp **** }
 1410              		.loc 1 198 1 is_stmt 0
 1411 0984 13050000 		li	a0,0
 1412 0988 83308101 		ld	ra,24(sp)
 1413              		.cfi_remember_state
 1414              		.cfi_restore 1
 1415 098c 03340101 		ld	s0,16(sp)
 1416              		.cfi_restore 8
 1417              		.cfi_def_cfa 2, 32
 1418 0990 83348100 		ld	s1,8(sp)
 1419              		.cfi_restore 9
 1420              	.LVL177:
 1421 0994 13010102 		addi	sp,sp,32
 1422              		.cfi_def_cfa_offset 0
 1423 0998 67800000 		jr	ra
 1424              	.LVL178:
 1425              	.L62:
 1426              		.cfi_restore_state
 1427              	.LBB221:
 1428              	.LBB212:
  24:src/../h/../h/my_console.h ****     putString(file);
 1429              		.loc 2 24 5 is_stmt 1
  24:src/../h/../h/my_console.h ****     putString(file);
GAS LISTING /tmp/ccZPr3v0.s 			page 39


 1430              		.loc 2 24 14 is_stmt 0
 1431 099c 17050000 		lla	a0,.LC0
 1431      13050500 
 1432              	.LVL179:
 1433 09a4 97000000 		call	_Z9putStringPKc@plt
 1433      E7800000 
 1434              	.LVL180:
  25:src/../h/../h/my_console.h ****     putString("    line: ");
 1435              		.loc 2 25 5 is_stmt 1
  25:src/../h/../h/my_console.h ****     putString("    line: ");
 1436              		.loc 2 25 14 is_stmt 0
 1437 09ac 17050000 		lla	a0,.LC1
 1437      13050500 
 1438 09b4 97000000 		call	_Z9putStringPKc@plt
 1438      E7800000 
 1439              	.LVL181:
  26:src/../h/../h/my_console.h ****     putInt(line);
 1440              		.loc 2 26 5 is_stmt 1
  26:src/../h/../h/my_console.h ****     putInt(line);
 1441              		.loc 2 26 14 is_stmt 0
 1442 09bc 17050000 		lla	a0,.LC2
 1442      13050500 
 1443 09c4 97000000 		call	_Z9putStringPKc@plt
 1443      E7800000 
 1444              	.LVL182:
  27:src/../h/../h/my_console.h ****     putString("   ===========================");
 1445              		.loc 2 27 5 is_stmt 1
  27:src/../h/../h/my_console.h ****     putString("   ===========================");
 1446              		.loc 2 27 11 is_stmt 0
 1447 09cc 1305B00B 		li	a0,187
 1448 09d0 97000000 		call	_Z6putInti@plt
 1448      E7800000 
 1449              	.LVL183:
  28:src/../h/../h/my_console.h ****     putNewline();
 1450              		.loc 2 28 5 is_stmt 1
  28:src/../h/../h/my_console.h ****     putNewline();
 1451              		.loc 2 28 14 is_stmt 0
 1452 09d8 17050000 		lla	a0,.LC3
 1452      13050500 
 1453 09e0 97000000 		call	_Z9putStringPKc@plt
 1453      E7800000 
 1454              	.LVL184:
  29:src/../h/../h/my_console.h **** 
 1455              		.loc 2 29 5 is_stmt 1
  29:src/../h/../h/my_console.h **** 
 1456              		.loc 2 29 15 is_stmt 0
 1457 09e8 97000000 		call	_Z10putNewlinev@plt
 1457      E7800000 
 1458              	.LVL185:
  31:src/../h/../h/my_console.h **** 
 1459              		.loc 2 31 5 is_stmt 1
 1460              	.LBB207:
 1461              	.LBB208:
  12:src/../h/../h/../h/0_console.h ****         return &instance;
 1462              		.loc 3 12 9
  12:src/../h/../h/../h/0_console.h ****         return &instance;
 1463              		.loc 3 12 25 is_stmt 0
GAS LISTING /tmp/ccZPr3v0.s 			page 40


 1464 09f0 97070000 		lbu	a5,_ZGVZN8IConsole3getEvE8instance
 1464      83C70700 
 1465 09f8 63920702 		bnez	a5,.L58
 1466              	.LVL186:
 1467              	.LBB209:
 1468              	.LBB210:
 1469              	.LBB211:
 1470              		.loc 3 32 63
 1471 09fc 97070000 		lla	a5,_ZZN8IConsole3getEvE8instance
 1471      93870700 
 1472 0a04 23B00700 		sd	zero,0(a5)
 1473 0a08 23B40700 		sd	zero,8(a5)
 1474 0a0c 23BC073E 		sd	zero,1016(a5)
 1475              	.LVL187:
 1476              	.LBE211:
 1477              	.LBE210:
 1478              	.LBE209:
  12:src/../h/../h/../h/0_console.h ****         return &instance;
 1479              		.loc 3 12 25
 1480 0a10 93071000 		li	a5,1
 1481 0a14 17070000 		sb	a5,_ZGVZN8IConsole3getEvE8instance,a4
 1481      2300F700 
 1482              	.L58:
  13:src/../h/../h/../h/0_console.h ****     }
 1483              		.loc 3 13 9 is_stmt 1
 1484              	.LBE208:
 1485              	.LBE207:
  31:src/../h/../h/my_console.h **** 
 1486              		.loc 2 31 36 is_stmt 0
 1487 0a1c 17050000 		lla	a0,_ZZN8IConsole3getEvE8instance
 1487      13050500 
 1488 0a24 97000000 		call	_ZN8IConsole14writeToConsoleEv@plt
 1488      E7800000 
 1489              	.LVL188:
 1490              		.loc 2 34 5 is_stmt 1
 1491              		.loc 2 34 15 is_stmt 0
 1492 0a2c 97000000 		call	_Z10stopKernelv@plt
 1492      E7800000 
 1493              	.LVL189:
 1494              	.L63:
 1495              	.LBE212:
 1496              	.LBE221:
 1497              	.LBB222:
 1498              	.LBB220:
  24:src/../h/../h/my_console.h ****     putString(file);
 1499              		.loc 2 24 5 is_stmt 1
  24:src/../h/../h/my_console.h ****     putString(file);
 1500              		.loc 2 24 14 is_stmt 0
 1501 0a34 17050000 		lla	a0,.LC0
 1501      13050500 
 1502 0a3c 97000000 		call	_Z9putStringPKc@plt
 1502      E7800000 
 1503              	.LVL190:
  25:src/../h/../h/my_console.h ****     putString("    line: ");
 1504              		.loc 2 25 5 is_stmt 1
  25:src/../h/../h/my_console.h ****     putString("    line: ");
 1505              		.loc 2 25 14 is_stmt 0
GAS LISTING /tmp/ccZPr3v0.s 			page 41


 1506 0a44 17050000 		lla	a0,.LC1
 1506      13050500 
 1507 0a4c 97000000 		call	_Z9putStringPKc@plt
 1507      E7800000 
 1508              	.LVL191:
  26:src/../h/../h/my_console.h ****     putInt(line);
 1509              		.loc 2 26 5 is_stmt 1
  26:src/../h/../h/my_console.h ****     putInt(line);
 1510              		.loc 2 26 14 is_stmt 0
 1511 0a54 17050000 		lla	a0,.LC2
 1511      13050500 
 1512 0a5c 97000000 		call	_Z9putStringPKc@plt
 1512      E7800000 
 1513              	.LVL192:
  27:src/../h/../h/my_console.h ****     putString("   ===========================");
 1514              		.loc 2 27 5 is_stmt 1
  27:src/../h/../h/my_console.h ****     putString("   ===========================");
 1515              		.loc 2 27 11 is_stmt 0
 1516 0a64 1305C00B 		li	a0,188
 1517 0a68 97000000 		call	_Z6putInti@plt
 1517      E7800000 
 1518              	.LVL193:
  28:src/../h/../h/my_console.h ****     putNewline();
 1519              		.loc 2 28 5 is_stmt 1
  28:src/../h/../h/my_console.h ****     putNewline();
 1520              		.loc 2 28 14 is_stmt 0
 1521 0a70 17050000 		lla	a0,.LC3
 1521      13050500 
 1522 0a78 97000000 		call	_Z9putStringPKc@plt
 1522      E7800000 
 1523              	.LVL194:
  29:src/../h/../h/my_console.h **** 
 1524              		.loc 2 29 5 is_stmt 1
  29:src/../h/../h/my_console.h **** 
 1525              		.loc 2 29 15 is_stmt 0
 1526 0a80 97000000 		call	_Z10putNewlinev@plt
 1526      E7800000 
 1527              	.LVL195:
  31:src/../h/../h/my_console.h **** 
 1528              		.loc 2 31 5 is_stmt 1
 1529              	.LBB215:
 1530              	.LBB216:
  12:src/../h/../h/../h/0_console.h ****         return &instance;
 1531              		.loc 3 12 9
  12:src/../h/../h/../h/0_console.h ****         return &instance;
 1532              		.loc 3 12 25 is_stmt 0
 1533 0a88 97070000 		lbu	a5,_ZGVZN8IConsole3getEvE8instance
 1533      83C70700 
 1534 0a90 63920702 		bnez	a5,.L60
 1535              	.LVL196:
 1536              	.LBB217:
 1537              	.LBB218:
 1538              	.LBB219:
 1539              		.loc 3 32 63
 1540 0a94 97070000 		lla	a5,_ZZN8IConsole3getEvE8instance
 1540      93870700 
 1541 0a9c 23B00700 		sd	zero,0(a5)
GAS LISTING /tmp/ccZPr3v0.s 			page 42


 1542 0aa0 23B40700 		sd	zero,8(a5)
 1543 0aa4 23BC073E 		sd	zero,1016(a5)
 1544              	.LVL197:
 1545              	.LBE219:
 1546              	.LBE218:
 1547              	.LBE217:
  12:src/../h/../h/../h/0_console.h ****         return &instance;
 1548              		.loc 3 12 25
 1549 0aa8 93071000 		li	a5,1
 1550 0aac 17070000 		sb	a5,_ZGVZN8IConsole3getEvE8instance,a4
 1550      2300F700 
 1551              	.L60:
  13:src/../h/../h/../h/0_console.h ****     }
 1552              		.loc 3 13 9 is_stmt 1
 1553              	.LBE216:
 1554              	.LBE215:
  31:src/../h/../h/my_console.h **** 
 1555              		.loc 2 31 36 is_stmt 0
 1556 0ab4 17050000 		lla	a0,_ZZN8IConsole3getEvE8instance
 1556      13050500 
 1557 0abc 97000000 		call	_ZN8IConsole14writeToConsoleEv@plt
 1557      E7800000 
 1558              	.LVL198:
 1559              		.loc 2 34 5 is_stmt 1
 1560              		.loc 2 34 15 is_stmt 0
 1561 0ac4 97000000 		call	_Z10stopKernelv@plt
 1561      E7800000 
 1562              	.LVL199:
 1563              	.LBE220:
 1564              	.LBE222:
 1565              		.cfi_endproc
 1566              	.LFE27:
 1568              		.globl	_ZN7IThread20switchedToUserThreadE
 1569              		.globl	_ZN7IThread22initialUserMemoryUsageE
 1570              		.globl	_ZN7IThread11pAllThreadsE
 1571              		.globl	_ZN7IThread14nrTotalThreadsE
 1572              		.globl	_ZN7IThread10pRunningSpE
 1573              		.globl	_ZN7IThread8pRunningE
 1574              		.globl	_ZN7IThread16timeSliceCounterE
 1575              		.weak	_ZGVZN9Scheduler3getEvE8instance
 1576              		.section	.bss._ZGVZN9Scheduler3getEvE8instance,"awG",@nobits,_ZGVZN9Scheduler3getEvE8instance,comd
 1577              		.align	3
 1580              	_ZGVZN9Scheduler3getEvE8instance:
 1581 0000 00000000 		.zero	8
 1581      00000000 
 1582              		.weak	_ZZN9Scheduler3getEvE8instance
 1583              		.section	.bss._ZZN9Scheduler3getEvE8instance,"awG",@nobits,_ZZN9Scheduler3getEvE8instance,comdat
 1584              		.align	3
 1587              	_ZZN9Scheduler3getEvE8instance:
 1588 0000 00000000 		.zero	16
 1588      00000000 
 1588      00000000 
 1588      00000000 
 1589              		.weak	_ZGVZN8IConsole3getEvE8instance
 1590              		.section	.bss._ZGVZN8IConsole3getEvE8instance,"awG",@nobits,_ZGVZN8IConsole3getEvE8instance,comdat
 1591              		.align	3
 1594              	_ZGVZN8IConsole3getEvE8instance:
GAS LISTING /tmp/ccZPr3v0.s 			page 43


 1595 0000 00000000 		.zero	8
 1595      00000000 
 1596              		.weak	_ZZN8IConsole3getEvE8instance
 1597              		.section	.bss._ZZN8IConsole3getEvE8instance,"awG",@nobits,_ZZN8IConsole3getEvE8instance,comdat
 1598              		.align	3
 1601              	_ZZN8IConsole3getEvE8instance:
 1602 0000 00000000 		.zero	2048
 1602      00000000 
 1602      00000000 
 1602      00000000 
 1602      00000000 
 1603              		.data
 1604              		.align	3
 1605              		.set	.LANCHOR1,. + 0
 1608              	_ZN7IThread14nrTotalThreadsE:
 1609 0000 01000000 		.dword	1
 1609      00000000 
 1610              		.bss
 1611              		.align	3
 1612              		.set	.LANCHOR0,. + 0
 1615              	_ZN7IThread8pRunningE:
 1616 0000 00000000 		.zero	8
 1616      00000000 
 1619              	_ZN7IThread10pRunningSpE:
 1620 0008 00000000 		.zero	8
 1620      00000000 
 1623              	_ZN7IThread11pAllThreadsE:
 1624 0010 00000000 		.zero	800
 1624      00000000 
 1624      00000000 
 1624      00000000 
 1624      00000000 
 1627              	_ZN7IThread20switchedToUserThreadE:
 1628 0330 00       		.zero	1
 1629 0331 00000000 		.zero	7
 1629      000000
 1632              	_ZN7IThread22initialUserMemoryUsageE:
 1633 0338 00000000 		.zero	8
 1633      00000000 
 1636              	_ZN7IThread16timeSliceCounterE:
 1637 0340 00000000 		.zero	8
 1637      00000000 
 1638              		.text
 1639              	.Letext0:
 1640              		.file 5 "src/../h/../lib/hw.h"
 1641              		.file 6 "src/../h/thread.h"
 1642              		.file 7 "src/../h/alloc.h"
 1643              		.file 8 "src/../h/../h/syscall_c.hpp"
GAS LISTING /tmp/ccZPr3v0.s 			page 44


DEFINED SYMBOLS
                            *ABS*:0000000000000000 thread.cpp
     /tmp/ccZPr3v0.s:9      .text:0000000000000000 _Z7wrappermPFvPvES_
     /tmp/ccZPr3v0.s:13     .text:0000000000000000 .L0 
     /tmp/ccZPr3v0.s:15     .text:0000000000000000 .L0 
     /tmp/ccZPr3v0.s:16     .text:0000000000000004 .L0 
     /tmp/ccZPr3v0.s:19     .text:000000000000000c .L0 
     /tmp/ccZPr3v0.s:20     .text:000000000000000c .L0 
     /tmp/ccZPr3v0.s:22     .text:0000000000000010 .L0 
     /tmp/ccZPr3v0.s:24     .text:0000000000000010 .L0 
     /tmp/ccZPr3v0.s:25     .text:0000000000000010 .L0 
     /tmp/ccZPr3v0.s:30     .text:0000000000000018 .L0 
     /tmp/ccZPr3v0.s:31     .text:0000000000000018 .L0 
     /tmp/ccZPr3v0.s:34     .text:0000000000000020 .L0 
     /tmp/ccZPr3v0.s:35     .text:0000000000000024 .L0 
     /tmp/ccZPr3v0.s:37     .text:0000000000000028 .L0 
     /tmp/ccZPr3v0.s:38     .text:0000000000000028 .L0 
     /tmp/ccZPr3v0.s:40     .text:000000000000002c .L0 
     /tmp/ccZPr3v0.s:42     .text:0000000000000030 .L0 
     /tmp/ccZPr3v0.s:48     .text:0000000000000030 _ZN7IThread10signalDoneEv
     /tmp/ccZPr3v0.s:51     .text:0000000000000030 .L0 
     /tmp/ccZPr3v0.s:53     .text:0000000000000030 .L0 
     /tmp/ccZPr3v0.s:54     .text:0000000000000034 .L0 
     /tmp/ccZPr3v0.s:58     .text:0000000000000040 .L0 
     /tmp/ccZPr3v0.s:59     .text:0000000000000040 .L0 
     /tmp/ccZPr3v0.s:60     .text:0000000000000040 .L0 
     /tmp/ccZPr3v0.s:62     .text:0000000000000044 .L0 
     /tmp/ccZPr3v0.s:64     .text:0000000000000044 .L0 
     /tmp/ccZPr3v0.s:65     .text:0000000000000044 .L0 
     /tmp/ccZPr3v0.s:69     .text:0000000000000048 .L0 
     /tmp/ccZPr3v0.s:70     .text:0000000000000048 .L0 
     /tmp/ccZPr3v0.s:72     .text:000000000000004c .L0 
     /tmp/ccZPr3v0.s:73     .text:000000000000004c .L0 
     /tmp/ccZPr3v0.s:76     .text:0000000000000054 .L0 
     /tmp/ccZPr3v0.s:77     .text:0000000000000054 .L0 
     /tmp/ccZPr3v0.s:81     .text:0000000000000060 .L0 
     /tmp/ccZPr3v0.s:82     .text:0000000000000060 .L0 
     /tmp/ccZPr3v0.s:85     .text:0000000000000064 .L0 
     /tmp/ccZPr3v0.s:88     .text:0000000000000068 .L0 
     /tmp/ccZPr3v0.s:89     .text:000000000000006c .L0 
     /tmp/ccZPr3v0.s:91     .text:0000000000000070 .L0 
     /tmp/ccZPr3v0.s:92     .text:0000000000000070 .L0 
     /tmp/ccZPr3v0.s:94     .text:0000000000000074 .L0 
     /tmp/ccZPr3v0.s:97     .text:0000000000000078 .L0 
     /tmp/ccZPr3v0.s:99     .text:000000000000007c .L0 
     /tmp/ccZPr3v0.s:105    .text:000000000000007c _ZN7IThread11setPRunningEPS_
     /tmp/ccZPr3v0.s:108    .text:000000000000007c .L0 
     /tmp/ccZPr3v0.s:110    .text:000000000000007c .L0 
     /tmp/ccZPr3v0.s:111    .text:0000000000000080 .L0 
     /tmp/ccZPr3v0.s:113    .text:0000000000000084 .L0 
     /tmp/ccZPr3v0.s:115    .text:0000000000000088 .L0 
     /tmp/ccZPr3v0.s:117    .text:0000000000000088 .L0 
     /tmp/ccZPr3v0.s:118    .text:0000000000000088 .L0 
     /tmp/ccZPr3v0.s:121    .text:0000000000000094 .L0 
     /tmp/ccZPr3v0.s:122    .text:0000000000000094 .L0 
     /tmp/ccZPr3v0.s:125    .text:0000000000000098 .L0 
     /tmp/ccZPr3v0.s:127    .text:000000000000009c .L0 
GAS LISTING /tmp/ccZPr3v0.s 			page 45


     /tmp/ccZPr3v0.s:128    .text:00000000000000a0 .L0 
     /tmp/ccZPr3v0.s:129    .text:00000000000000a0 .L0 
     /tmp/ccZPr3v0.s:131    .text:00000000000000a4 .L0 
     /tmp/ccZPr3v0.s:133    .text:00000000000000a8 .L0 
     /tmp/ccZPr3v0.s:139    .text:00000000000000a8 _ZN7IThread11getPRunningEv
     /tmp/ccZPr3v0.s:142    .text:00000000000000a8 .L0 
     /tmp/ccZPr3v0.s:143    .text:00000000000000a8 .L0 
     /tmp/ccZPr3v0.s:144    .text:00000000000000ac .L0 
     /tmp/ccZPr3v0.s:146    .text:00000000000000b0 .L0 
     /tmp/ccZPr3v0.s:148    .text:00000000000000b4 .L0 
     /tmp/ccZPr3v0.s:150    .text:00000000000000b4 .L0 
      src/thread.cpp:125    .text:00000000000000b4 .L0 
     /tmp/ccZPr3v0.s:156    .text:00000000000000b8 .L0 
     /tmp/ccZPr3v0.s:158    .text:00000000000000b8 .L0 
     /tmp/ccZPr3v0.s:160    .text:00000000000000c4 .L0 
     /tmp/ccZPr3v0.s:161    .text:00000000000000c4 .L0 
     /tmp/ccZPr3v0.s:163    .text:00000000000000c8 .L0 
     /tmp/ccZPr3v0.s:165    .text:00000000000000cc .L0 
     /tmp/ccZPr3v0.s:185    .text:00000000000000cc _ZN7IThread4joinEm
     /tmp/ccZPr3v0.s:188    .text:00000000000000cc .L0 
     /tmp/ccZPr3v0.s:190    .text:00000000000000cc .L0 
     /tmp/ccZPr3v0.s:191    .text:00000000000000d0 .L0 
     /tmp/ccZPr3v0.s:195    .text:00000000000000dc .L0 
     /tmp/ccZPr3v0.s:196    .text:00000000000000dc .L0 
     /tmp/ccZPr3v0.s:197    .text:00000000000000dc .L0 
     /tmp/ccZPr3v0.s:199    .text:00000000000000e0 .L0 
     /tmp/ccZPr3v0.s:202    .text:00000000000000e4 .L0 
     /tmp/ccZPr3v0.s:203    .text:00000000000000e4 .L0 
     /tmp/ccZPr3v0.s:206    .text:00000000000000ec .L0 
     /tmp/ccZPr3v0.s:207    .text:00000000000000ec .L0 
     /tmp/ccZPr3v0.s:214    .text:0000000000000100 .L0 
     /tmp/ccZPr3v0.s:215    .text:0000000000000100 .L0 
     /tmp/ccZPr3v0.s:221    .text:0000000000000108 .L0 
     /tmp/ccZPr3v0.s:226    .text:000000000000010c .L0 
     /tmp/ccZPr3v0.s:227    .text:000000000000010c .L0 
     /tmp/ccZPr3v0.s:228    .text:000000000000010c .L0 
     /tmp/ccZPr3v0.s:230    .text:0000000000000110 .L0 
     /tmp/ccZPr3v0.s:233    .text:0000000000000114 .L0 
     /tmp/ccZPr3v0.s:234    .text:0000000000000114 .L0 
     /tmp/ccZPr3v0.s:236    .text:0000000000000118 .L0 
     /tmp/ccZPr3v0.s:241    .text:000000000000011c .L0 
     /tmp/ccZPr3v0.s:242    .text:000000000000011c .L0 
     /tmp/ccZPr3v0.s:247    .text:0000000000000128 .L0 
     /tmp/ccZPr3v0.s:248    .text:0000000000000128 .L0 
     /tmp/ccZPr3v0.s:254    .text:000000000000012c .L0 
     /tmp/ccZPr3v0.s:255    .text:000000000000012c .L0 
     /tmp/ccZPr3v0.s:257    .text:0000000000000130 .L0 
     /tmp/ccZPr3v0.s:258    .text:0000000000000130 .L0 
     /tmp/ccZPr3v0.s:261    .text:0000000000000138 .L0 
     /tmp/ccZPr3v0.s:262    .text:0000000000000138 .L0 
     /tmp/ccZPr3v0.s:266    .text:0000000000000140 .L0 
     /tmp/ccZPr3v0.s:267    .text:0000000000000144 .L0 
     /tmp/ccZPr3v0.s:268    .text:0000000000000144 .L0 
     /tmp/ccZPr3v0.s:270    .text:0000000000000148 .L0 
     /tmp/ccZPr3v0.s:271    .text:0000000000000148 .L0 
     /tmp/ccZPr3v0.s:273    .text:000000000000014c .L0 
     /tmp/ccZPr3v0.s:275    .text:0000000000000150 .L0 
GAS LISTING /tmp/ccZPr3v0.s 			page 46


     /tmp/ccZPr3v0.s:279    .text:0000000000000154 .L0 
     /tmp/ccZPr3v0.s:283    .text:0000000000000154 .L0 
     /tmp/ccZPr3v0.s:284    .text:0000000000000154 .L0 
     /tmp/ccZPr3v0.s:289    .text:0000000000000164 .L0 
     /tmp/ccZPr3v0.s:290    .text:0000000000000164 .L0 
     /tmp/ccZPr3v0.s:294    .text:0000000000000174 .L0 
     /tmp/ccZPr3v0.s:295    .text:0000000000000174 .L0 
     /tmp/ccZPr3v0.s:299    .text:0000000000000184 .L0 
     /tmp/ccZPr3v0.s:300    .text:0000000000000184 .L0 
     /tmp/ccZPr3v0.s:304    .text:0000000000000190 .L0 
     /tmp/ccZPr3v0.s:305    .text:0000000000000190 .L0 
     /tmp/ccZPr3v0.s:309    .text:00000000000001a0 .L0 
     /tmp/ccZPr3v0.s:310    .text:00000000000001a0 .L0 
     /tmp/ccZPr3v0.s:316    .text:00000000000001a8 .L0 
     /tmp/ccZPr3v0.s:317    .text:00000000000001a8 .L0 
     /tmp/ccZPr3v0.s:1594   .bss._ZGVZN8IConsole3getEvE8instance:0000000000000000 _ZGVZN8IConsole3getEvE8instance
     /tmp/ccZPr3v0.s:318    .text:00000000000001a8 .L0 
     /tmp/ccZPr3v0.s:1601   .bss._ZZN8IConsole3getEvE8instance:0000000000000000 _ZZN8IConsole3getEvE8instance
     /tmp/ccZPr3v0.s:325    .text:00000000000001b4 .L0 
     /tmp/ccZPr3v0.s:334    .text:00000000000001c8 .L0 
     /tmp/ccZPr3v0.s:340    .text:00000000000001d4 .L0 
     /tmp/ccZPr3v0.s:341    .text:00000000000001d4 .L0 
     /tmp/ccZPr3v0.s:345    .text:00000000000001e4 .L0 
     /tmp/ccZPr3v0.s:346    .text:00000000000001e4 .L0 
     /tmp/ccZPr3v0.s:353    .text:00000000000001ec .L0 
     /tmp/ccZPr3v0.s:354    .text:00000000000001ec .L0 
     /tmp/ccZPr3v0.s:357    .text:00000000000001f4 .L0 
     /tmp/ccZPr3v0.s:363    .text:00000000000001f4 _ZN7IThread12switchToUserEv
     /tmp/ccZPr3v0.s:366    .text:00000000000001f4 .L0 
     /tmp/ccZPr3v0.s:367    .text:00000000000001f4 .L0 
     /tmp/ccZPr3v0.s:368    .text:00000000000001f8 .L0 
     /tmp/ccZPr3v0.s:371    .text:0000000000000200 .L0 
     /tmp/ccZPr3v0.s:372    .text:0000000000000200 .L0 
     /tmp/ccZPr3v0.s:374    .text:0000000000000204 .L0 
     /tmp/ccZPr3v0.s:376    .text:0000000000000204 .L0 
     /tmp/ccZPr3v0.s:377    .text:0000000000000204 .L0 
      src/thread.cpp:66     .text:0000000000000204 .L0 
     /tmp/ccZPr3v0.s:384    .text:0000000000000208 .L0 
     /tmp/ccZPr3v0.s:386    .text:0000000000000208 .L0 
     /tmp/ccZPr3v0.s:389    .text:000000000000020c .L0 
     /tmp/ccZPr3v0.s:391    .text:0000000000000210 .L0 
     /tmp/ccZPr3v0.s:398    .text:000000000000021c .L0 
     /tmp/ccZPr3v0.s:403    .text:0000000000000220 .L0 
     /tmp/ccZPr3v0.s:407    .text:0000000000000220 .L0 
     /tmp/ccZPr3v0.s:408    .text:0000000000000220 .L0 
     /tmp/ccZPr3v0.s:1580   .bss._ZGVZN9Scheduler3getEvE8instance:0000000000000000 _ZGVZN9Scheduler3getEvE8instance
     /tmp/ccZPr3v0.s:409    .text:0000000000000220 .L0 
     /tmp/ccZPr3v0.s:1587   .bss._ZZN9Scheduler3getEvE8instance:0000000000000000 _ZZN9Scheduler3getEvE8instance
     /tmp/ccZPr3v0.s:416    .text:000000000000022c .L0 
     /tmp/ccZPr3v0.s:424    .text:000000000000023c .L0 
     /tmp/ccZPr3v0.s:431    .text:0000000000000248 .L0 
     /tmp/ccZPr3v0.s:432    .text:0000000000000248 .L0 
     /tmp/ccZPr3v0.s:433    .text:0000000000000248 .L0 
     /tmp/ccZPr3v0.s:434    .text:0000000000000248 .L0 
     /tmp/ccZPr3v0.s:435    .text:0000000000000248 .L0 
     /tmp/ccZPr3v0.s:436    .text:0000000000000248 .L0 
     /tmp/ccZPr3v0.s:439    .text:0000000000000250 .L0 
GAS LISTING /tmp/ccZPr3v0.s 			page 47


     /tmp/ccZPr3v0.s:440    .text:0000000000000250 .L0 
     /tmp/ccZPr3v0.s:445    .text:0000000000000258 .L0 
     /tmp/ccZPr3v0.s:446    .text:0000000000000258 .L0 
     /tmp/ccZPr3v0.s:451    .text:000000000000025c .L0 
     /tmp/ccZPr3v0.s:452    .text:000000000000025c .L0 
     /tmp/ccZPr3v0.s:460    .text:000000000000026c .L0 
     /tmp/ccZPr3v0.s:464    .text:0000000000000270 .L0 
     /tmp/ccZPr3v0.s:465    .text:0000000000000274 .L0 
     /tmp/ccZPr3v0.s:466    .text:0000000000000274 .L0 
     /tmp/ccZPr3v0.s:468    .text:0000000000000278 .L0 
     /tmp/ccZPr3v0.s:469    .text:0000000000000278 .L0 
     /tmp/ccZPr3v0.s:471    .text:000000000000027c .L0 
     /tmp/ccZPr3v0.s:475    .text:0000000000000280 .L0 
     /tmp/ccZPr3v0.s:479    .text:0000000000000280 .L0 
     /tmp/ccZPr3v0.s:480    .text:0000000000000280 .L0 
     /tmp/ccZPr3v0.s:481    .text:0000000000000280 .L0 
     /tmp/ccZPr3v0.s:482    .text:0000000000000280 .L0 
     /tmp/ccZPr3v0.s:486    .text:0000000000000290 .L0 
     /tmp/ccZPr3v0.s:487    .text:0000000000000290 .L0 
     /tmp/ccZPr3v0.s:491    .text:00000000000002a0 .L0 
     /tmp/ccZPr3v0.s:492    .text:00000000000002a0 .L0 
     /tmp/ccZPr3v0.s:496    .text:00000000000002b0 .L0 
     /tmp/ccZPr3v0.s:497    .text:00000000000002b0 .L0 
     /tmp/ccZPr3v0.s:501    .text:00000000000002bc .L0 
     /tmp/ccZPr3v0.s:502    .text:00000000000002bc .L0 
     /tmp/ccZPr3v0.s:506    .text:00000000000002cc .L0 
     /tmp/ccZPr3v0.s:507    .text:00000000000002cc .L0 
     /tmp/ccZPr3v0.s:512    .text:00000000000002d4 .L0 
     /tmp/ccZPr3v0.s:513    .text:00000000000002d4 .L0 
     /tmp/ccZPr3v0.s:514    .text:00000000000002d4 .L0 
     /tmp/ccZPr3v0.s:521    .text:00000000000002e0 .L0 
     /tmp/ccZPr3v0.s:530    .text:00000000000002f4 .L0 
     /tmp/ccZPr3v0.s:536    .text:0000000000000300 .L0 
     /tmp/ccZPr3v0.s:537    .text:0000000000000300 .L0 
     /tmp/ccZPr3v0.s:541    .text:0000000000000310 .L0 
     /tmp/ccZPr3v0.s:542    .text:0000000000000310 .L0 
     /tmp/ccZPr3v0.s:550    .text:0000000000000318 .L0 
     /tmp/ccZPr3v0.s:551    .text:0000000000000318 .L0 
     /tmp/ccZPr3v0.s:555    .text:0000000000000328 .L0 
     /tmp/ccZPr3v0.s:556    .text:0000000000000328 .L0 
     /tmp/ccZPr3v0.s:560    .text:0000000000000338 .L0 
     /tmp/ccZPr3v0.s:561    .text:0000000000000338 .L0 
     /tmp/ccZPr3v0.s:565    .text:0000000000000348 .L0 
     /tmp/ccZPr3v0.s:566    .text:0000000000000348 .L0 
     /tmp/ccZPr3v0.s:570    .text:0000000000000354 .L0 
     /tmp/ccZPr3v0.s:571    .text:0000000000000354 .L0 
     /tmp/ccZPr3v0.s:575    .text:0000000000000364 .L0 
     /tmp/ccZPr3v0.s:576    .text:0000000000000364 .L0 
     /tmp/ccZPr3v0.s:581    .text:000000000000036c .L0 
     /tmp/ccZPr3v0.s:582    .text:000000000000036c .L0 
     /tmp/ccZPr3v0.s:583    .text:000000000000036c .L0 
     /tmp/ccZPr3v0.s:590    .text:0000000000000378 .L0 
     /tmp/ccZPr3v0.s:599    .text:000000000000038c .L0 
     /tmp/ccZPr3v0.s:605    .text:0000000000000398 .L0 
     /tmp/ccZPr3v0.s:606    .text:0000000000000398 .L0 
     /tmp/ccZPr3v0.s:610    .text:00000000000003a8 .L0 
     /tmp/ccZPr3v0.s:611    .text:00000000000003a8 .L0 
GAS LISTING /tmp/ccZPr3v0.s 			page 48


     /tmp/ccZPr3v0.s:619    .text:00000000000003b0 .L0 
     /tmp/ccZPr3v0.s:620    .text:00000000000003b0 .L0 
     /tmp/ccZPr3v0.s:625    .text:00000000000003c0 .L0 
     /tmp/ccZPr3v0.s:626    .text:00000000000003c0 .L0 
     /tmp/ccZPr3v0.s:630    .text:00000000000003d0 .L0 
     /tmp/ccZPr3v0.s:631    .text:00000000000003d0 .L0 
     /tmp/ccZPr3v0.s:635    .text:00000000000003e0 .L0 
     /tmp/ccZPr3v0.s:636    .text:00000000000003e0 .L0 
     /tmp/ccZPr3v0.s:640    .text:00000000000003ec .L0 
     /tmp/ccZPr3v0.s:641    .text:00000000000003ec .L0 
     /tmp/ccZPr3v0.s:645    .text:00000000000003fc .L0 
     /tmp/ccZPr3v0.s:646    .text:00000000000003fc .L0 
     /tmp/ccZPr3v0.s:651    .text:0000000000000404 .L0 
     /tmp/ccZPr3v0.s:652    .text:0000000000000404 .L0 
     /tmp/ccZPr3v0.s:653    .text:0000000000000404 .L0 
     /tmp/ccZPr3v0.s:660    .text:0000000000000410 .L0 
     /tmp/ccZPr3v0.s:669    .text:0000000000000424 .L0 
     /tmp/ccZPr3v0.s:675    .text:0000000000000430 .L0 
     /tmp/ccZPr3v0.s:676    .text:0000000000000430 .L0 
     /tmp/ccZPr3v0.s:680    .text:0000000000000440 .L0 
     /tmp/ccZPr3v0.s:681    .text:0000000000000440 .L0 
     /tmp/ccZPr3v0.s:689    .text:0000000000000448 .L0 
     /tmp/ccZPr3v0.s:690    .text:0000000000000448 .L0 
     /tmp/ccZPr3v0.s:694    .text:0000000000000458 .L0 
     /tmp/ccZPr3v0.s:695    .text:0000000000000458 .L0 
     /tmp/ccZPr3v0.s:699    .text:0000000000000468 .L0 
     /tmp/ccZPr3v0.s:700    .text:0000000000000468 .L0 
     /tmp/ccZPr3v0.s:704    .text:0000000000000478 .L0 
     /tmp/ccZPr3v0.s:705    .text:0000000000000478 .L0 
     /tmp/ccZPr3v0.s:709    .text:0000000000000484 .L0 
     /tmp/ccZPr3v0.s:710    .text:0000000000000484 .L0 
     /tmp/ccZPr3v0.s:714    .text:0000000000000494 .L0 
     /tmp/ccZPr3v0.s:715    .text:0000000000000494 .L0 
     /tmp/ccZPr3v0.s:720    .text:000000000000049c .L0 
     /tmp/ccZPr3v0.s:721    .text:000000000000049c .L0 
     /tmp/ccZPr3v0.s:722    .text:000000000000049c .L0 
     /tmp/ccZPr3v0.s:729    .text:00000000000004a8 .L0 
     /tmp/ccZPr3v0.s:738    .text:00000000000004bc .L0 
     /tmp/ccZPr3v0.s:744    .text:00000000000004c8 .L0 
     /tmp/ccZPr3v0.s:745    .text:00000000000004c8 .L0 
     /tmp/ccZPr3v0.s:749    .text:00000000000004d8 .L0 
     /tmp/ccZPr3v0.s:750    .text:00000000000004d8 .L0 
     /tmp/ccZPr3v0.s:754    .text:00000000000004e0 .L0 
     /tmp/ccZPr3v0.s:760    .text:00000000000004e0 _ZN7IThread10allocStackEv
     /tmp/ccZPr3v0.s:763    .text:00000000000004e0 .L0 
     /tmp/ccZPr3v0.s:765    .text:00000000000004e0 .L0 
     /tmp/ccZPr3v0.s:766    .text:00000000000004e4 .L0 
     /tmp/ccZPr3v0.s:771    .text:00000000000004f4 .L0 
     /tmp/ccZPr3v0.s:772    .text:00000000000004f4 .L0 
     /tmp/ccZPr3v0.s:773    .text:00000000000004f4 .L0 
     /tmp/ccZPr3v0.s:774    .text:00000000000004f4 .L0 
     /tmp/ccZPr3v0.s:776    .text:00000000000004f8 .L0 
     /tmp/ccZPr3v0.s:778    .text:00000000000004f8 .L0 
     /tmp/ccZPr3v0.s:783    .text:00000000000004fc .L0 
     /tmp/ccZPr3v0.s:789    .text:0000000000000504 .L0 
     /tmp/ccZPr3v0.s:790    .text:0000000000000504 .L0 
     /tmp/ccZPr3v0.s:791    .text:0000000000000504 .L0 
GAS LISTING /tmp/ccZPr3v0.s 			page 49


     /tmp/ccZPr3v0.s:798    .text:000000000000051c .L0 
     /tmp/ccZPr3v0.s:800    .text:0000000000000520 .L0 
     /tmp/ccZPr3v0.s:801    .text:0000000000000520 .L0 
     /tmp/ccZPr3v0.s:805    .text:0000000000000528 .L0 
     /tmp/ccZPr3v0.s:806    .text:0000000000000528 .L0 
     /tmp/ccZPr3v0.s:808    .text:000000000000052c .L0 
     /tmp/ccZPr3v0.s:810    .text:0000000000000530 .L0 
     /tmp/ccZPr3v0.s:811    .text:0000000000000530 .L0 
     /tmp/ccZPr3v0.s:815    .text:0000000000000534 .L0 
     /tmp/ccZPr3v0.s:816    .text:0000000000000534 .L0 
     /tmp/ccZPr3v0.s:817    .text:0000000000000534 .L0 
     /tmp/ccZPr3v0.s:820    .text:000000000000053c .L0 
     /tmp/ccZPr3v0.s:821    .text:000000000000053c .L0 
     /tmp/ccZPr3v0.s:823    .text:0000000000000540 .L0 
     /tmp/ccZPr3v0.s:824    .text:0000000000000540 .L0 
     /tmp/ccZPr3v0.s:826    .text:0000000000000544 .L0 
     /tmp/ccZPr3v0.s:828    .text:0000000000000548 .L0 
     /tmp/ccZPr3v0.s:831    .text:000000000000054c .L0 
     /tmp/ccZPr3v0.s:835    .text:0000000000000550 .L0 
     /tmp/ccZPr3v0.s:839    .text:0000000000000550 .L0 
     /tmp/ccZPr3v0.s:840    .text:0000000000000550 .L0 
     /tmp/ccZPr3v0.s:845    .text:0000000000000560 .L0 
     /tmp/ccZPr3v0.s:846    .text:0000000000000560 .L0 
     /tmp/ccZPr3v0.s:850    .text:0000000000000570 .L0 
     /tmp/ccZPr3v0.s:851    .text:0000000000000570 .L0 
     /tmp/ccZPr3v0.s:855    .text:0000000000000580 .L0 
     /tmp/ccZPr3v0.s:856    .text:0000000000000580 .L0 
     /tmp/ccZPr3v0.s:860    .text:000000000000058c .L0 
     /tmp/ccZPr3v0.s:861    .text:000000000000058c .L0 
     /tmp/ccZPr3v0.s:865    .text:000000000000059c .L0 
     /tmp/ccZPr3v0.s:866    .text:000000000000059c .L0 
     /tmp/ccZPr3v0.s:871    .text:00000000000005a4 .L0 
     /tmp/ccZPr3v0.s:872    .text:00000000000005a4 .L0 
     /tmp/ccZPr3v0.s:873    .text:00000000000005a4 .L0 
     /tmp/ccZPr3v0.s:880    .text:00000000000005b0 .L0 
     /tmp/ccZPr3v0.s:889    .text:00000000000005c4 .L0 
     /tmp/ccZPr3v0.s:895    .text:00000000000005d0 .L0 
     /tmp/ccZPr3v0.s:896    .text:00000000000005d0 .L0 
     /tmp/ccZPr3v0.s:900    .text:00000000000005e0 .L0 
     /tmp/ccZPr3v0.s:901    .text:00000000000005e0 .L0 
     /tmp/ccZPr3v0.s:905    .text:00000000000005e8 .L0 
     /tmp/ccZPr3v0.s:911    .text:00000000000005e8 _ZN7IThread4initEPFvPvES0_S0_
     /tmp/ccZPr3v0.s:914    .text:00000000000005e8 .L0 
     /tmp/ccZPr3v0.s:916    .text:00000000000005e8 .L0 
     /tmp/ccZPr3v0.s:917    .text:00000000000005ec .L0 
     /tmp/ccZPr3v0.s:920    .text:00000000000005f4 .L0 
     /tmp/ccZPr3v0.s:921    .text:00000000000005f4 .L0 
     /tmp/ccZPr3v0.s:923    .text:00000000000005f8 .L0 
     /tmp/ccZPr3v0.s:925    .text:00000000000005f8 .L0 
     /tmp/ccZPr3v0.s:931    .text:0000000000000604 .L0 
     /tmp/ccZPr3v0.s:936    .text:0000000000000608 .L0 
     /tmp/ccZPr3v0.s:937    .text:0000000000000608 .L0 
     /tmp/ccZPr3v0.s:938    .text:0000000000000608 .L0 
     /tmp/ccZPr3v0.s:942    .text:0000000000000618 .L0 
     /tmp/ccZPr3v0.s:943    .text:0000000000000618 .L0 
     /tmp/ccZPr3v0.s:946    .text:0000000000000620 .L0 
     /tmp/ccZPr3v0.s:951    .text:0000000000000624 .L0 
GAS LISTING /tmp/ccZPr3v0.s 			page 50


     /tmp/ccZPr3v0.s:956    .text:0000000000000628 .L0 
     /tmp/ccZPr3v0.s:957    .text:0000000000000628 .L0 
     /tmp/ccZPr3v0.s:958    .text:0000000000000628 .L0 
     /tmp/ccZPr3v0.s:959    .text:0000000000000628 .L0 
     /tmp/ccZPr3v0.s:962    .text:0000000000000630 .L0 
     /tmp/ccZPr3v0.s:963    .text:0000000000000630 .L0 
     /tmp/ccZPr3v0.s:965    .text:0000000000000634 .L0 
     /tmp/ccZPr3v0.s:966    .text:0000000000000634 .L0 
     /tmp/ccZPr3v0.s:968    .text:0000000000000638 .L0 
     /tmp/ccZPr3v0.s:969    .text:0000000000000638 .L0 
     /tmp/ccZPr3v0.s:971    .text:000000000000063c .L0 
     /tmp/ccZPr3v0.s:972    .text:000000000000063c .L0 
     /tmp/ccZPr3v0.s:976    .text:0000000000000640 .L0 
     /tmp/ccZPr3v0.s:977    .text:0000000000000640 .L0 
     /tmp/ccZPr3v0.s:981    .text:0000000000000644 .L0 
     /tmp/ccZPr3v0.s:984    .text:000000000000064c .L0 
     /tmp/ccZPr3v0.s:985    .text:000000000000064c .L0 
     /tmp/ccZPr3v0.s:988    .text:0000000000000654 .L0 
     /tmp/ccZPr3v0.s:990    .text:0000000000000658 .L0 
     /tmp/ccZPr3v0.s:999    .text:0000000000000660 .L0 
     /tmp/ccZPr3v0.s:1000   .text:0000000000000660 .L0 
     /tmp/ccZPr3v0.s:1005   .text:0000000000000670 .L0 
     /tmp/ccZPr3v0.s:1006   .text:0000000000000670 .L0 
     /tmp/ccZPr3v0.s:1010   .text:0000000000000680 .L0 
     /tmp/ccZPr3v0.s:1011   .text:0000000000000680 .L0 
     /tmp/ccZPr3v0.s:1015   .text:0000000000000690 .L0 
     /tmp/ccZPr3v0.s:1016   .text:0000000000000690 .L0 
     /tmp/ccZPr3v0.s:1020   .text:000000000000069c .L0 
     /tmp/ccZPr3v0.s:1021   .text:000000000000069c .L0 
     /tmp/ccZPr3v0.s:1025   .text:00000000000006ac .L0 
     /tmp/ccZPr3v0.s:1026   .text:00000000000006ac .L0 
     /tmp/ccZPr3v0.s:1031   .text:00000000000006b4 .L0 
     /tmp/ccZPr3v0.s:1032   .text:00000000000006b4 .L0 
     /tmp/ccZPr3v0.s:1033   .text:00000000000006b4 .L0 
     /tmp/ccZPr3v0.s:1040   .text:00000000000006c0 .L0 
     /tmp/ccZPr3v0.s:1049   .text:00000000000006d4 .L0 
     /tmp/ccZPr3v0.s:1055   .text:00000000000006e0 .L0 
     /tmp/ccZPr3v0.s:1056   .text:00000000000006e0 .L0 
     /tmp/ccZPr3v0.s:1060   .text:00000000000006f0 .L0 
     /tmp/ccZPr3v0.s:1061   .text:00000000000006f0 .L0 
     /tmp/ccZPr3v0.s:1069   .text:00000000000006f8 .L0 
     /tmp/ccZPr3v0.s:1070   .text:00000000000006f8 .L0 
     /tmp/ccZPr3v0.s:1075   .text:0000000000000708 .L0 
     /tmp/ccZPr3v0.s:1076   .text:0000000000000708 .L0 
     /tmp/ccZPr3v0.s:1080   .text:0000000000000718 .L0 
     /tmp/ccZPr3v0.s:1081   .text:0000000000000718 .L0 
     /tmp/ccZPr3v0.s:1085   .text:0000000000000728 .L0 
     /tmp/ccZPr3v0.s:1086   .text:0000000000000728 .L0 
     /tmp/ccZPr3v0.s:1090   .text:0000000000000734 .L0 
     /tmp/ccZPr3v0.s:1091   .text:0000000000000734 .L0 
     /tmp/ccZPr3v0.s:1095   .text:0000000000000744 .L0 
     /tmp/ccZPr3v0.s:1096   .text:0000000000000744 .L0 
     /tmp/ccZPr3v0.s:1101   .text:000000000000074c .L0 
     /tmp/ccZPr3v0.s:1102   .text:000000000000074c .L0 
     /tmp/ccZPr3v0.s:1103   .text:000000000000074c .L0 
     /tmp/ccZPr3v0.s:1110   .text:0000000000000758 .L0 
     /tmp/ccZPr3v0.s:1119   .text:000000000000076c .L0 
GAS LISTING /tmp/ccZPr3v0.s 			page 51


     /tmp/ccZPr3v0.s:1125   .text:0000000000000778 .L0 
     /tmp/ccZPr3v0.s:1126   .text:0000000000000778 .L0 
     /tmp/ccZPr3v0.s:1130   .text:0000000000000788 .L0 
     /tmp/ccZPr3v0.s:1131   .text:0000000000000788 .L0 
     /tmp/ccZPr3v0.s:1137   .text:0000000000000790 .L0 
     /tmp/ccZPr3v0.s:1138   .text:0000000000000790 .L0 
     /tmp/ccZPr3v0.s:1140   .text:0000000000000794 .L0 
     /tmp/ccZPr3v0.s:1141   .text:0000000000000794 .L0 
     /tmp/ccZPr3v0.s:1143   .text:0000000000000798 .L0 
     /tmp/ccZPr3v0.s:1144   .text:0000000000000798 .L0 
     /tmp/ccZPr3v0.s:1148   .text:00000000000007a4 .L0 
     /tmp/ccZPr3v0.s:1149   .text:00000000000007a4 .L0 
     /tmp/ccZPr3v0.s:1152   .text:00000000000007ac .L0 
     /tmp/ccZPr3v0.s:1153   .text:00000000000007b0 .L0 
     /tmp/ccZPr3v0.s:1155   .text:00000000000007b4 .L0 
     /tmp/ccZPr3v0.s:1156   .text:00000000000007b4 .L0 
     /tmp/ccZPr3v0.s:1158   .text:00000000000007b8 .L0 
     /tmp/ccZPr3v0.s:1160   .text:00000000000007bc .L0 
     /tmp/ccZPr3v0.s:1166   .text:00000000000007bc _ZN7IThread12createThreadEPmPFvPvES1_
     /tmp/ccZPr3v0.s:1169   .text:00000000000007bc .L0 
     /tmp/ccZPr3v0.s:1171   .text:00000000000007bc .L0 
     /tmp/ccZPr3v0.s:1172   .text:00000000000007c0 .L0 
     /tmp/ccZPr3v0.s:1179   .text:00000000000007d8 .L0 
     /tmp/ccZPr3v0.s:1180   .text:00000000000007d8 .L0 
     /tmp/ccZPr3v0.s:1181   .text:00000000000007d8 .L0 
     /tmp/ccZPr3v0.s:1182   .text:00000000000007d8 .L0 
     /tmp/ccZPr3v0.s:1183   .text:00000000000007d8 .L0 
     /tmp/ccZPr3v0.s:1184   .text:00000000000007d8 .L0 
     /tmp/ccZPr3v0.s:1186   .text:00000000000007dc .L0 
     /tmp/ccZPr3v0.s:1188   .text:00000000000007dc .L0 
     /tmp/ccZPr3v0.s:1194   .text:00000000000007e8 .L0 
     /tmp/ccZPr3v0.s:1202   .text:00000000000007f8 .L0 
     /tmp/ccZPr3v0.s:1203   .text:00000000000007f8 .L0 
     /tmp/ccZPr3v0.s:1204   .text:00000000000007f8 .L0 
     /tmp/ccZPr3v0.s:1212   .text:0000000000000810 .L0 
     /tmp/ccZPr3v0.s:1213   .text:0000000000000810 .L0 
     /tmp/ccZPr3v0.s:1219   .text:000000000000082c .L0 
     /tmp/ccZPr3v0.s:1220   .text:000000000000082c .L0 
     /tmp/ccZPr3v0.s:1222   .text:0000000000000830 .L0 
     /tmp/ccZPr3v0.s:1223   .text:0000000000000830 .L0 
     /tmp/ccZPr3v0.s:1228   .text:000000000000083c .L0 
     /tmp/ccZPr3v0.s:1229   .text:000000000000083c .L0 
     /tmp/ccZPr3v0.s:1236   .text:0000000000000850 .L0 
     /tmp/ccZPr3v0.s:1237   .text:0000000000000850 .L0 
     /tmp/ccZPr3v0.s:1239   .text:0000000000000854 .L0 
     /tmp/ccZPr3v0.s:1241   .text:0000000000000858 .L0 
     /tmp/ccZPr3v0.s:1242   .text:0000000000000858 .L0 
     /tmp/ccZPr3v0.s:1246   .text:0000000000000864 .L0 
     /tmp/ccZPr3v0.s:1247   .text:0000000000000864 .L0 
     /tmp/ccZPr3v0.s:1249   .text:000000000000086c .L0 
     /tmp/ccZPr3v0.s:1250   .text:000000000000086c .L0 
     /tmp/ccZPr3v0.s:1252   .text:0000000000000870 .L0 
     /tmp/ccZPr3v0.s:1253   .text:0000000000000870 .L0 
     /tmp/ccZPr3v0.s:1255   .text:0000000000000874 .L0 
     /tmp/ccZPr3v0.s:1258   .text:0000000000000878 .L0 
     /tmp/ccZPr3v0.s:1261   .text:000000000000087c .L0 
     /tmp/ccZPr3v0.s:1264   .text:0000000000000880 .L0 
GAS LISTING /tmp/ccZPr3v0.s 			page 52


     /tmp/ccZPr3v0.s:1267   .text:0000000000000884 .L0 
     /tmp/ccZPr3v0.s:1271   .text:0000000000000888 .L0 
     /tmp/ccZPr3v0.s:1275   .text:0000000000000888 .L0 
     /tmp/ccZPr3v0.s:1276   .text:0000000000000888 .L0 
     /tmp/ccZPr3v0.s:1281   .text:0000000000000898 .L0 
     /tmp/ccZPr3v0.s:1282   .text:0000000000000898 .L0 
     /tmp/ccZPr3v0.s:1286   .text:00000000000008a8 .L0 
     /tmp/ccZPr3v0.s:1287   .text:00000000000008a8 .L0 
     /tmp/ccZPr3v0.s:1291   .text:00000000000008b8 .L0 
     /tmp/ccZPr3v0.s:1292   .text:00000000000008b8 .L0 
     /tmp/ccZPr3v0.s:1296   .text:00000000000008c4 .L0 
     /tmp/ccZPr3v0.s:1297   .text:00000000000008c4 .L0 
     /tmp/ccZPr3v0.s:1301   .text:00000000000008d4 .L0 
     /tmp/ccZPr3v0.s:1302   .text:00000000000008d4 .L0 
     /tmp/ccZPr3v0.s:1307   .text:00000000000008dc .L0 
     /tmp/ccZPr3v0.s:1308   .text:00000000000008dc .L0 
     /tmp/ccZPr3v0.s:1309   .text:00000000000008dc .L0 
     /tmp/ccZPr3v0.s:1316   .text:00000000000008e8 .L0 
     /tmp/ccZPr3v0.s:1325   .text:00000000000008fc .L0 
     /tmp/ccZPr3v0.s:1331   .text:0000000000000908 .L0 
     /tmp/ccZPr3v0.s:1332   .text:0000000000000908 .L0 
     /tmp/ccZPr3v0.s:1336   .text:0000000000000918 .L0 
     /tmp/ccZPr3v0.s:1337   .text:0000000000000918 .L0 
     /tmp/ccZPr3v0.s:1341   .text:0000000000000920 .L0 
     /tmp/ccZPr3v0.s:1347   .text:0000000000000920 _ZN7IThread4exitEv
     /tmp/ccZPr3v0.s:1350   .text:0000000000000920 .L0 
     /tmp/ccZPr3v0.s:1351   .text:0000000000000920 .L0 
     /tmp/ccZPr3v0.s:1352   .text:0000000000000924 .L0 
     /tmp/ccZPr3v0.s:1356   .text:0000000000000930 .L0 
     /tmp/ccZPr3v0.s:1357   .text:0000000000000930 .L0 
     /tmp/ccZPr3v0.s:1358   .text:0000000000000930 .L0 
     /tmp/ccZPr3v0.s:1360   .text:0000000000000934 .L0 
     /tmp/ccZPr3v0.s:1362   .text:0000000000000934 .L0 
     /tmp/ccZPr3v0.s:1363   .text:0000000000000934 .L0 
     /tmp/ccZPr3v0.s:1366   .text:000000000000093c .L0 
     /tmp/ccZPr3v0.s:1371   .text:0000000000000940 .L0 
     /tmp/ccZPr3v0.s:1377   .text:0000000000000948 .L0 
     /tmp/ccZPr3v0.s:1378   .text:0000000000000948 .L0 
     /tmp/ccZPr3v0.s:1384   .text:0000000000000950 .L0 
     /tmp/ccZPr3v0.s:1389   .text:0000000000000954 .L0 
     /tmp/ccZPr3v0.s:1390   .text:0000000000000954 .L0 
     /tmp/ccZPr3v0.s:1391   .text:0000000000000954 .L0 
     /tmp/ccZPr3v0.s:1394   .text:000000000000095c .L0 
     /tmp/ccZPr3v0.s:1395   .text:000000000000095c .L0 
     /tmp/ccZPr3v0.s:1401   .text:0000000000000970 .L0 
     /tmp/ccZPr3v0.s:1402   .text:0000000000000970 .L0 
     /tmp/ccZPr3v0.s:1406   .text:000000000000097c .L0 
     /tmp/ccZPr3v0.s:1407   .text:000000000000097c .L0 
     /tmp/ccZPr3v0.s:1410   .text:0000000000000984 .L0 
     /tmp/ccZPr3v0.s:1411   .text:0000000000000984 .L0 
     /tmp/ccZPr3v0.s:1413   .text:000000000000098c .L0 
     /tmp/ccZPr3v0.s:1414   .text:000000000000098c .L0 
     /tmp/ccZPr3v0.s:1416   .text:0000000000000990 .L0 
     /tmp/ccZPr3v0.s:1417   .text:0000000000000990 .L0 
     /tmp/ccZPr3v0.s:1419   .text:0000000000000994 .L0 
     /tmp/ccZPr3v0.s:1422   .text:0000000000000998 .L0 
     /tmp/ccZPr3v0.s:1426   .text:000000000000099c .L0 
GAS LISTING /tmp/ccZPr3v0.s 			page 53


     /tmp/ccZPr3v0.s:1430   .text:000000000000099c .L0 
     /tmp/ccZPr3v0.s:1431   .text:000000000000099c .L0 
     /tmp/ccZPr3v0.s:1436   .text:00000000000009ac .L0 
     /tmp/ccZPr3v0.s:1437   .text:00000000000009ac .L0 
     /tmp/ccZPr3v0.s:1441   .text:00000000000009bc .L0 
     /tmp/ccZPr3v0.s:1442   .text:00000000000009bc .L0 
     /tmp/ccZPr3v0.s:1446   .text:00000000000009cc .L0 
     /tmp/ccZPr3v0.s:1447   .text:00000000000009cc .L0 
     /tmp/ccZPr3v0.s:1451   .text:00000000000009d8 .L0 
     /tmp/ccZPr3v0.s:1452   .text:00000000000009d8 .L0 
     /tmp/ccZPr3v0.s:1456   .text:00000000000009e8 .L0 
     /tmp/ccZPr3v0.s:1457   .text:00000000000009e8 .L0 
     /tmp/ccZPr3v0.s:1462   .text:00000000000009f0 .L0 
     /tmp/ccZPr3v0.s:1463   .text:00000000000009f0 .L0 
     /tmp/ccZPr3v0.s:1464   .text:00000000000009f0 .L0 
     /tmp/ccZPr3v0.s:1471   .text:00000000000009fc .L0 
     /tmp/ccZPr3v0.s:1480   .text:0000000000000a10 .L0 
     /tmp/ccZPr3v0.s:1486   .text:0000000000000a1c .L0 
     /tmp/ccZPr3v0.s:1487   .text:0000000000000a1c .L0 
     /tmp/ccZPr3v0.s:1491   .text:0000000000000a2c .L0 
     /tmp/ccZPr3v0.s:1492   .text:0000000000000a2c .L0 
     /tmp/ccZPr3v0.s:1500   .text:0000000000000a34 .L0 
     /tmp/ccZPr3v0.s:1501   .text:0000000000000a34 .L0 
     /tmp/ccZPr3v0.s:1505   .text:0000000000000a44 .L0 
     /tmp/ccZPr3v0.s:1506   .text:0000000000000a44 .L0 
     /tmp/ccZPr3v0.s:1510   .text:0000000000000a54 .L0 
     /tmp/ccZPr3v0.s:1511   .text:0000000000000a54 .L0 
     /tmp/ccZPr3v0.s:1515   .text:0000000000000a64 .L0 
     /tmp/ccZPr3v0.s:1516   .text:0000000000000a64 .L0 
     /tmp/ccZPr3v0.s:1520   .text:0000000000000a70 .L0 
     /tmp/ccZPr3v0.s:1521   .text:0000000000000a70 .L0 
     /tmp/ccZPr3v0.s:1525   .text:0000000000000a80 .L0 
     /tmp/ccZPr3v0.s:1526   .text:0000000000000a80 .L0 
     /tmp/ccZPr3v0.s:1531   .text:0000000000000a88 .L0 
     /tmp/ccZPr3v0.s:1532   .text:0000000000000a88 .L0 
     /tmp/ccZPr3v0.s:1533   .text:0000000000000a88 .L0 
     /tmp/ccZPr3v0.s:1540   .text:0000000000000a94 .L0 
     /tmp/ccZPr3v0.s:1549   .text:0000000000000aa8 .L0 
     /tmp/ccZPr3v0.s:1555   .text:0000000000000ab4 .L0 
     /tmp/ccZPr3v0.s:1556   .text:0000000000000ab4 .L0 
     /tmp/ccZPr3v0.s:1560   .text:0000000000000ac4 .L0 
     /tmp/ccZPr3v0.s:1561   .text:0000000000000ac4 .L0 
     /tmp/ccZPr3v0.s:1565   .text:0000000000000acc .L0 
     /tmp/ccZPr3v0.s:1627   .bss:0000000000000330 _ZN7IThread20switchedToUserThreadE
     /tmp/ccZPr3v0.s:1632   .bss:0000000000000338 _ZN7IThread22initialUserMemoryUsageE
     /tmp/ccZPr3v0.s:1623   .bss:0000000000000010 _ZN7IThread11pAllThreadsE
     /tmp/ccZPr3v0.s:1608   .data:0000000000000000 _ZN7IThread14nrTotalThreadsE
     /tmp/ccZPr3v0.s:1619   .bss:0000000000000008 _ZN7IThread10pRunningSpE
     /tmp/ccZPr3v0.s:1615   .bss:0000000000000000 _ZN7IThread8pRunningE
     /tmp/ccZPr3v0.s:1636   .bss:0000000000000340 _ZN7IThread16timeSliceCounterE
     /tmp/ccZPr3v0.s:1605   .data:0000000000000000 .LANCHOR1
     /tmp/ccZPr3v0.s:1612   .bss:0000000000000000 .LANCHOR0
     /tmp/ccZPr3v0.s:1644   .text:0000000000000acc .L0 
     /tmp/ccZPr3v0.s:118    .text:0000000000000088 .L0 
     /tmp/ccZPr3v0.s:158    .text:00000000000000b8 .L0 
     /tmp/ccZPr3v0.s:209    .text:00000000000000f0 .L0 
     /tmp/ccZPr3v0.s:215    .text:0000000000000100 .L0 
GAS LISTING /tmp/ccZPr3v0.s 			page 54


     /tmp/ccZPr3v0.s:170    .rodata.str1.8:0000000000000000 .LC0
     /tmp/ccZPr3v0.s:284    .text:0000000000000154 .L0 
     /tmp/ccZPr3v0.s:173    .rodata.str1.8:0000000000000028 .LC1
     /tmp/ccZPr3v0.s:290    .text:0000000000000164 .L0 
     /tmp/ccZPr3v0.s:176    .rodata.str1.8:0000000000000038 .LC2
     /tmp/ccZPr3v0.s:295    .text:0000000000000174 .L0 
     /tmp/ccZPr3v0.s:179    .rodata.str1.8:0000000000000048 .LC3
     /tmp/ccZPr3v0.s:305    .text:0000000000000190 .L0 
     /tmp/ccZPr3v0.s:318    .text:00000000000001a8 .L0 
     /tmp/ccZPr3v0.s:325    .text:00000000000001b4 .L0 
     /tmp/ccZPr3v0.s:335    .text:00000000000001cc .L0 
     /tmp/ccZPr3v0.s:341    .text:00000000000001d4 .L0 
     /tmp/ccZPr3v0.s:391    .text:0000000000000210 .L0 
     /tmp/ccZPr3v0.s:409    .text:0000000000000220 .L0 
     /tmp/ccZPr3v0.s:416    .text:000000000000022c .L0 
     /tmp/ccZPr3v0.s:425    .text:0000000000000240 .L0 
     /tmp/ccZPr3v0.s:482    .text:0000000000000280 .L0 
     /tmp/ccZPr3v0.s:487    .text:0000000000000290 .L0 
     /tmp/ccZPr3v0.s:492    .text:00000000000002a0 .L0 
     /tmp/ccZPr3v0.s:502    .text:00000000000002bc .L0 
     /tmp/ccZPr3v0.s:514    .text:00000000000002d4 .L0 
     /tmp/ccZPr3v0.s:521    .text:00000000000002e0 .L0 
     /tmp/ccZPr3v0.s:531    .text:00000000000002f8 .L0 
     /tmp/ccZPr3v0.s:537    .text:0000000000000300 .L0 
     /tmp/ccZPr3v0.s:551    .text:0000000000000318 .L0 
     /tmp/ccZPr3v0.s:556    .text:0000000000000328 .L0 
     /tmp/ccZPr3v0.s:561    .text:0000000000000338 .L0 
     /tmp/ccZPr3v0.s:571    .text:0000000000000354 .L0 
     /tmp/ccZPr3v0.s:583    .text:000000000000036c .L0 
     /tmp/ccZPr3v0.s:590    .text:0000000000000378 .L0 
     /tmp/ccZPr3v0.s:600    .text:0000000000000390 .L0 
     /tmp/ccZPr3v0.s:606    .text:0000000000000398 .L0 
     /tmp/ccZPr3v0.s:620    .text:00000000000003b0 .L0 
     /tmp/ccZPr3v0.s:626    .text:00000000000003c0 .L0 
     /tmp/ccZPr3v0.s:631    .text:00000000000003d0 .L0 
     /tmp/ccZPr3v0.s:641    .text:00000000000003ec .L0 
     /tmp/ccZPr3v0.s:653    .text:0000000000000404 .L0 
     /tmp/ccZPr3v0.s:660    .text:0000000000000410 .L0 
     /tmp/ccZPr3v0.s:670    .text:0000000000000428 .L0 
     /tmp/ccZPr3v0.s:676    .text:0000000000000430 .L0 
     /tmp/ccZPr3v0.s:690    .text:0000000000000448 .L0 
     /tmp/ccZPr3v0.s:695    .text:0000000000000458 .L0 
     /tmp/ccZPr3v0.s:700    .text:0000000000000468 .L0 
     /tmp/ccZPr3v0.s:710    .text:0000000000000484 .L0 
     /tmp/ccZPr3v0.s:722    .text:000000000000049c .L0 
     /tmp/ccZPr3v0.s:729    .text:00000000000004a8 .L0 
     /tmp/ccZPr3v0.s:739    .text:00000000000004c0 .L0 
     /tmp/ccZPr3v0.s:745    .text:00000000000004c8 .L0 
     /tmp/ccZPr3v0.s:840    .text:0000000000000550 .L0 
     /tmp/ccZPr3v0.s:846    .text:0000000000000560 .L0 
     /tmp/ccZPr3v0.s:851    .text:0000000000000570 .L0 
     /tmp/ccZPr3v0.s:861    .text:000000000000058c .L0 
     /tmp/ccZPr3v0.s:873    .text:00000000000005a4 .L0 
     /tmp/ccZPr3v0.s:880    .text:00000000000005b0 .L0 
     /tmp/ccZPr3v0.s:890    .text:00000000000005c8 .L0 
     /tmp/ccZPr3v0.s:896    .text:00000000000005d0 .L0 
     /tmp/ccZPr3v0.s:925    .text:00000000000005f8 .L0 
GAS LISTING /tmp/ccZPr3v0.s 			page 55


     /tmp/ccZPr3v0.s:938    .text:0000000000000608 .L0 
     /tmp/ccZPr3v0.s:1000   .text:0000000000000660 .L0 
     /tmp/ccZPr3v0.s:1006   .text:0000000000000670 .L0 
     /tmp/ccZPr3v0.s:1011   .text:0000000000000680 .L0 
     /tmp/ccZPr3v0.s:1021   .text:000000000000069c .L0 
     /tmp/ccZPr3v0.s:1033   .text:00000000000006b4 .L0 
     /tmp/ccZPr3v0.s:1040   .text:00000000000006c0 .L0 
     /tmp/ccZPr3v0.s:1050   .text:00000000000006d8 .L0 
     /tmp/ccZPr3v0.s:1056   .text:00000000000006e0 .L0 
     /tmp/ccZPr3v0.s:1070   .text:00000000000006f8 .L0 
     /tmp/ccZPr3v0.s:1076   .text:0000000000000708 .L0 
     /tmp/ccZPr3v0.s:1081   .text:0000000000000718 .L0 
     /tmp/ccZPr3v0.s:1091   .text:0000000000000734 .L0 
     /tmp/ccZPr3v0.s:1103   .text:000000000000074c .L0 
     /tmp/ccZPr3v0.s:1110   .text:0000000000000758 .L0 
     /tmp/ccZPr3v0.s:1120   .text:0000000000000770 .L0 
     /tmp/ccZPr3v0.s:1126   .text:0000000000000778 .L0 
     /tmp/ccZPr3v0.s:1144   .text:0000000000000798 .L0 
     /tmp/ccZPr3v0.s:1188   .text:00000000000007dc .L0 
     /tmp/ccZPr3v0.s:1213   .text:0000000000000810 .L0 
     /tmp/ccZPr3v0.s:1215   .text:000000000000081c .L0 
     /tmp/ccZPr3v0.s:1276   .text:0000000000000888 .L0 
     /tmp/ccZPr3v0.s:1282   .text:0000000000000898 .L0 
     /tmp/ccZPr3v0.s:1287   .text:00000000000008a8 .L0 
     /tmp/ccZPr3v0.s:1297   .text:00000000000008c4 .L0 
     /tmp/ccZPr3v0.s:1309   .text:00000000000008dc .L0 
     /tmp/ccZPr3v0.s:1316   .text:00000000000008e8 .L0 
     /tmp/ccZPr3v0.s:1326   .text:0000000000000900 .L0 
     /tmp/ccZPr3v0.s:1332   .text:0000000000000908 .L0 
     /tmp/ccZPr3v0.s:1431   .text:000000000000099c .L0 
     /tmp/ccZPr3v0.s:1437   .text:00000000000009ac .L0 
     /tmp/ccZPr3v0.s:1442   .text:00000000000009bc .L0 
     /tmp/ccZPr3v0.s:1452   .text:00000000000009d8 .L0 
     /tmp/ccZPr3v0.s:1464   .text:00000000000009f0 .L0 
     /tmp/ccZPr3v0.s:1471   .text:00000000000009fc .L0 
     /tmp/ccZPr3v0.s:1481   .text:0000000000000a14 .L0 
     /tmp/ccZPr3v0.s:1487   .text:0000000000000a1c .L0 
     /tmp/ccZPr3v0.s:1501   .text:0000000000000a34 .L0 
     /tmp/ccZPr3v0.s:1506   .text:0000000000000a44 .L0 
     /tmp/ccZPr3v0.s:1511   .text:0000000000000a54 .L0 
     /tmp/ccZPr3v0.s:1521   .text:0000000000000a70 .L0 
     /tmp/ccZPr3v0.s:1533   .text:0000000000000a88 .L0 
     /tmp/ccZPr3v0.s:1540   .text:0000000000000a94 .L0 
     /tmp/ccZPr3v0.s:1550   .text:0000000000000aac .L0 
     /tmp/ccZPr3v0.s:1556   .text:0000000000000ab4 .L0 
     /tmp/ccZPr3v0.s:86     .text:0000000000000068 .L3
     /tmp/ccZPr3v0.s:67     .text:0000000000000048 .L5
     /tmp/ccZPr3v0.s:278    .text:0000000000000154 .L18
     /tmp/ccZPr3v0.s:264    .text:0000000000000140 .L11
     /tmp/ccZPr3v0.s:348    .text:00000000000001ec .L19
     /tmp/ccZPr3v0.s:238    .text:000000000000011c .L15
     /tmp/ccZPr3v0.s:336    .text:00000000000001d4 .L13
     /tmp/ccZPr3v0.s:250    .text:000000000000012c .L16
     /tmp/ccZPr3v0.s:474    .text:0000000000000280 .L31
     /tmp/ccZPr3v0.s:544    .text:0000000000000318 .L32
     /tmp/ccZPr3v0.s:426    .text:0000000000000248 .L25
     /tmp/ccZPr3v0.s:613    .text:00000000000003b0 .L33
GAS LISTING /tmp/ccZPr3v0.s 			page 56


     /tmp/ccZPr3v0.s:683    .text:0000000000000448 .L34
     /tmp/ccZPr3v0.s:532    .text:0000000000000300 .L22
     /tmp/ccZPr3v0.s:601    .text:0000000000000398 .L24
     /tmp/ccZPr3v0.s:671    .text:0000000000000430 .L27
     /tmp/ccZPr3v0.s:740    .text:00000000000004c8 .L29
     /tmp/ccZPr3v0.s:834    .text:0000000000000550 .L40
     /tmp/ccZPr3v0.s:813    .text:0000000000000534 .L38
     /tmp/ccZPr3v0.s:891    .text:00000000000005d0 .L37
     /tmp/ccZPr3v0.s:994    .text:0000000000000660 .L49
     /tmp/ccZPr3v0.s:1063   .text:00000000000006f8 .L50
     /tmp/ccZPr3v0.s:1133   .text:0000000000000790 .L46
     /tmp/ccZPr3v0.s:979    .text:0000000000000644 .L47
     /tmp/ccZPr3v0.s:1051   .text:00000000000006e0 .L43
     /tmp/ccZPr3v0.s:1121   .text:0000000000000778 .L45
     /tmp/ccZPr3v0.s:1270   .text:0000000000000888 .L55
     /tmp/ccZPr3v0.s:1327   .text:0000000000000908 .L53
     /tmp/ccZPr3v0.s:1425   .text:000000000000099c .L62
     /tmp/ccZPr3v0.s:1494   .text:0000000000000a34 .L63
     /tmp/ccZPr3v0.s:1482   .text:0000000000000a1c .L58
     /tmp/ccZPr3v0.s:1551   .text:0000000000000ab4 .L60
     /tmp/ccZPr3v0.s:4491   .debug_abbrev:0000000000000000 .Ldebug_abbrev0
     /tmp/ccZPr3v0.s:7129   .debug_str:0000000000000827 .LASF158
     /tmp/ccZPr3v0.s:6901   .debug_str:0000000000000156 .LASF159
     /tmp/ccZPr3v0.s:7079   .debug_str:00000000000006d4 .LASF160
     /tmp/ccZPr3v0.s:5      .text:0000000000000000 .Ltext0
     /tmp/ccZPr3v0.s:1639   .text:0000000000000acc .Letext0
     /tmp/ccZPr3v0.s:6859   .debug_line:0000000000000000 .Ldebug_line0
     /tmp/ccZPr3v0.s:7031   .debug_str:0000000000000579 .LASF0
     /tmp/ccZPr3v0.s:7049   .debug_str:00000000000005f4 .LASF1
     /tmp/ccZPr3v0.s:7011   .debug_str:00000000000004e8 .LASF2
     /tmp/ccZPr3v0.s:6981   .debug_str:0000000000000438 .LASF4
     /tmp/ccZPr3v0.s:7105   .debug_str:0000000000000792 .LASF3
     /tmp/ccZPr3v0.s:6893   .debug_str:0000000000000111 .LASF5
     /tmp/ccZPr3v0.s:6933   .debug_str:000000000000028d .LASF6
     /tmp/ccZPr3v0.s:7053   .debug_str:000000000000060c .LASF7
     /tmp/ccZPr3v0.s:7029   .debug_str:0000000000000566 .LASF8
     /tmp/ccZPr3v0.s:7147   .debug_str:0000000000000987 .LASF9
     /tmp/ccZPr3v0.s:6961   .debug_str:00000000000003a8 .LASF10
     /tmp/ccZPr3v0.s:7073   .debug_str:00000000000006af .LASF11
     /tmp/ccZPr3v0.s:7131   .debug_str:00000000000008eb .LASF12
     /tmp/ccZPr3v0.s:6897   .debug_str:000000000000013d .LASF13
     /tmp/ccZPr3v0.s:6871   .debug_str:0000000000000062 .LASF14
     /tmp/ccZPr3v0.s:6909   .debug_str:00000000000001b3 .LASF15
     /tmp/ccZPr3v0.s:7097   .debug_str:0000000000000741 .LASF16
     /tmp/ccZPr3v0.s:6925   .debug_str:0000000000000236 .LASF17
     /tmp/ccZPr3v0.s:6899   .debug_str:000000000000014d .LASF35
     /tmp/ccZPr3v0.s:7095   .debug_str:000000000000072e .LASF83
     /tmp/ccZPr3v0.s:6913   .debug_str:00000000000001de .LASF26
     /tmp/ccZPr3v0.s:6911   .debug_str:00000000000001bf .LASF28
     /tmp/ccZPr3v0.s:7007   .debug_str:00000000000004c9 .LASF18
     /tmp/ccZPr3v0.s:6927   .debug_str:000000000000024c .LASF19
     /tmp/ccZPr3v0.s:7155   .debug_str:00000000000009be .LASF20
     /tmp/ccZPr3v0.s:6963   .debug_str:00000000000003b6 .LASF21
     /tmp/ccZPr3v0.s:7043   .debug_str:00000000000005d1 .LASF22
     /tmp/ccZPr3v0.s:6923   .debug_str:0000000000000227 .LASF23
     /tmp/ccZPr3v0.s:6877   .debug_str:000000000000007e .LASF24
     /tmp/ccZPr3v0.s:7113   .debug_str:00000000000007ca .LASF25
GAS LISTING /tmp/ccZPr3v0.s 			page 57


     /tmp/ccZPr3v0.s:7019   .debug_str:0000000000000518 .LASF27
     /tmp/ccZPr3v0.s:7167   .debug_str:00000000000009f9 .LASF29
     /tmp/ccZPr3v0.s:6873   .debug_str:0000000000000072 .LASF73
     /tmp/ccZPr3v0.s:6879   .debug_str:000000000000008c .LASF75
     /tmp/ccZPr3v0.s:7159   .debug_str:00000000000009d5 .LASF30
     /tmp/ccZPr3v0.s:6917   .debug_str:00000000000001f3 .LASF31
     /tmp/ccZPr3v0.s:6941   .debug_str:00000000000002d8 .LASF32
     /tmp/ccZPr3v0.s:6895   .debug_str:0000000000000118 .LASF33
     /tmp/ccZPr3v0.s:6991   .debug_str:000000000000045f .LASF88
     /tmp/ccZPr3v0.s:7057   .debug_str:0000000000000644 .LASF34
     /tmp/ccZPr3v0.s:7045   .debug_str:00000000000005db .LASF36
     /tmp/ccZPr3v0.s:6969   .debug_str:00000000000003dc .LASF161
     /tmp/ccZPr3v0.s:7063   .debug_str:000000000000067b .LASF37
     /tmp/ccZPr3v0.s:7023   .debug_str:000000000000052d .LASF38
     /tmp/ccZPr3v0.s:7071   .debug_str:00000000000006a9 .LASF39
     /tmp/ccZPr3v0.s:7151   .debug_str:00000000000009a6 .LASF40
     /tmp/ccZPr3v0.s:6999   .debug_str:0000000000000492 .LASF41
     /tmp/ccZPr3v0.s:7061   .debug_str:000000000000066f .LASF42
     /tmp/ccZPr3v0.s:7177   .debug_str:0000000000000a6e .LASF43
     /tmp/ccZPr3v0.s:7107   .debug_str:00000000000007a4 .LASF44
     /tmp/ccZPr3v0.s:7141   .debug_str:0000000000000957 .LASF45
     /tmp/ccZPr3v0.s:7125   .debug_str:0000000000000810 .LASF46
     /tmp/ccZPr3v0.s:6979   .debug_str:000000000000042c .LASF47
     /tmp/ccZPr3v0.s:6945   .debug_str:00000000000002f9 .LASF48
     /tmp/ccZPr3v0.s:6863   .debug_str:0000000000000006 .LASF49
     /tmp/ccZPr3v0.s:7127   .debug_str:000000000000081b .LASF50
     /tmp/ccZPr3v0.s:7037   .debug_str:00000000000005a7 .LASF54
     /tmp/ccZPr3v0.s:7069   .debug_str:000000000000069d .LASF56
     /tmp/ccZPr3v0.s:6951   .debug_str:0000000000000329 .LASF58
     /tmp/ccZPr3v0.s:6865   .debug_str:000000000000001d .LASF51
     /tmp/ccZPr3v0.s:7059   .debug_str:0000000000000649 .LASF52
     /tmp/ccZPr3v0.s:7089   .debug_str:000000000000071f .LASF162
     /tmp/ccZPr3v0.s:7001   .debug_str:000000000000049e .LASF53
     /tmp/ccZPr3v0.s:6883   .debug_str:00000000000000b2 .LASF55
     /tmp/ccZPr3v0.s:7187   .debug_str:0000000000000ab6 .LASF108
     /tmp/ccZPr3v0.s:6887   .debug_str:00000000000000df .LASF110
     /tmp/ccZPr3v0.s:7109   .debug_str:00000000000007b5 .LASF57
     /tmp/ccZPr3v0.s:6953   .debug_str:0000000000000346 .LASF59
     /tmp/ccZPr3v0.s:6995   .debug_str:000000000000047e .LASF60
     /tmp/ccZPr3v0.s:6985   .debug_str:000000000000044a .LASF61
     /tmp/ccZPr3v0.s:7039   .debug_str:00000000000005c2 .LASF62
     /tmp/ccZPr3v0.s:7181   .debug_str:0000000000000a84 .LASF63
     /tmp/ccZPr3v0.s:7041   .debug_str:00000000000005c7 .LASF64
     /tmp/ccZPr3v0.s:6965   .debug_str:00000000000003c5 .LASF65
     /tmp/ccZPr3v0.s:7157   .debug_str:00000000000009c8 .LASF66
     /tmp/ccZPr3v0.s:7015   .debug_str:00000000000004ff .LASF67
     /tmp/ccZPr3v0.s:7149   .debug_str:0000000000000997 .LASF68
     /tmp/ccZPr3v0.s:7033   .debug_str:0000000000000586 .LASF69
     /tmp/ccZPr3v0.s:7065   .debug_str:0000000000000683 .LASF70
     /tmp/ccZPr3v0.s:7185   .debug_str:0000000000000ab1 .LASF71
     /tmp/ccZPr3v0.s:7135   .debug_str:0000000000000919 .LASF72
     /tmp/ccZPr3v0.s:7173   .debug_str:0000000000000a43 .LASF74
     /tmp/ccZPr3v0.s:7099   .debug_str:0000000000000757 .LASF76
     /tmp/ccZPr3v0.s:6937   .debug_str:00000000000002ae .LASF77
     /tmp/ccZPr3v0.s:6935   .debug_str:0000000000000294 .LASF78
     /tmp/ccZPr3v0.s:6869   .debug_str:0000000000000047 .LASF79
     /tmp/ccZPr3v0.s:7077   .debug_str:00000000000006cb .LASF80
GAS LISTING /tmp/ccZPr3v0.s 			page 58


     /tmp/ccZPr3v0.s:6947   .debug_str:0000000000000308 .LASF81
     /tmp/ccZPr3v0.s:7013   .debug_str:00000000000004f6 .LASF82
     /tmp/ccZPr3v0.s:6959   .debug_str:0000000000000395 .LASF84
     /tmp/ccZPr3v0.s:7115   .debug_str:00000000000007d8 .LASF87
     /tmp/ccZPr3v0.s:7121   .debug_str:0000000000000805 .LASF85
     /tmp/ccZPr3v0.s:7165   .debug_str:00000000000009f4 .LASF86
     /tmp/ccZPr3v0.s:6867   .debug_str:000000000000002a .LASF89
     /tmp/ccZPr3v0.s:7027   .debug_str:000000000000055c .LASF90
     /tmp/ccZPr3v0.s:6977   .debug_str:0000000000000422 .LASF91
     /tmp/ccZPr3v0.s:7005   .debug_str:00000000000004ab .LASF92
     /tmp/ccZPr3v0.s:7153   .debug_str:00000000000009b3 .LASF93
     /tmp/ccZPr3v0.s:7163   .debug_str:00000000000009eb .LASF94
     /tmp/ccZPr3v0.s:6905   .debug_str:0000000000000183 .LASF95
     /tmp/ccZPr3v0.s:6989   .debug_str:0000000000000457 .LASF96
     /tmp/ccZPr3v0.s:6971   .debug_str:00000000000003e2 .LASF97
     /tmp/ccZPr3v0.s:6967   .debug_str:00000000000003cb .LASF98
     /tmp/ccZPr3v0.s:7183   .debug_str:0000000000000a90 .LASF99
     /tmp/ccZPr3v0.s:7169   .debug_str:0000000000000a0d .LASF100
     /tmp/ccZPr3v0.s:7171   .debug_str:0000000000000a20 .LASF101
     /tmp/ccZPr3v0.s:6997   .debug_str:0000000000000484 .LASF102
     /tmp/ccZPr3v0.s:7047   .debug_str:00000000000005e3 .LASF103
     /tmp/ccZPr3v0.s:7067   .debug_str:0000000000000693 .LASF104
     /tmp/ccZPr3v0.s:6973   .debug_str:00000000000003fa .LASF105
     /tmp/ccZPr3v0.s:7123   .debug_str:000000000000080a .LASF106
     /tmp/ccZPr3v0.s:6931   .debug_str:0000000000000277 .LASF107
     /tmp/ccZPr3v0.s:7081   .debug_str:00000000000006e8 .LASF109
     /tmp/ccZPr3v0.s:7175   .debug_str:0000000000000a4e .LASF111
     /tmp/ccZPr3v0.s:7017   .debug_str:0000000000000504 .LASF112
     /tmp/ccZPr3v0.s:7055   .debug_str:000000000000061f .LASF113
     /tmp/ccZPr3v0.s:6987   .debug_str:000000000000044f .LASF114
     /tmp/ccZPr3v0.s:6907   .debug_str:000000000000019b .LASF115
     /tmp/ccZPr3v0.s:6949   .debug_str:000000000000030d .LASF163
     /tmp/ccZPr3v0.s:6891   .debug_str:0000000000000106 .LASF116
     /tmp/ccZPr3v0.s:7117   .debug_str:00000000000007e1 .LASF117
     /tmp/ccZPr3v0.s:7083   .debug_str:00000000000006f7 .LASF118
     /tmp/ccZPr3v0.s:6881   .debug_str:00000000000000a0 .LASF119
     /tmp/ccZPr3v0.s:7133   .debug_str:00000000000008fa .LASF120
     /tmp/ccZPr3v0.s:7101   .debug_str:0000000000000771 .LASF121
     /tmp/ccZPr3v0.s:6955   .debug_str:0000000000000359 .LASF122
     /tmp/ccZPr3v0.s:6929   .debug_str:000000000000025a .LASF123
     /tmp/ccZPr3v0.s:6885   .debug_str:00000000000000c5 .LASF124
     /tmp/ccZPr3v0.s:7025   .debug_str:0000000000000537 .LASF125
     /tmp/ccZPr3v0.s:6957   .debug_str:0000000000000372 .LASF126
     /tmp/ccZPr3v0.s:1348   .text:0000000000000920 .LFB27
     /tmp/ccZPr3v0.s:1566   .text:0000000000000acc .LFE27
     /tmp/ccZPr3v0.s:5642   .debug_loc:0000000000000000 .LLST63
     /tmp/ccZPr3v0.s:1368   .text:0000000000000940 .LBB205
     /tmp/ccZPr3v0.s:6797   .debug_ranges:0000000000000000 .Ldebug_ranges0
     /tmp/ccZPr3v0.s:5661   .debug_loc:000000000000005c .LLST64
     /tmp/ccZPr3v0.s:5676   .debug_loc:0000000000000096 .LLST65
     /tmp/ccZPr3v0.s:5691   .debug_loc:00000000000000de .LLST66
     /tmp/ccZPr3v0.s:1460   .text:00000000000009f0 .LBB207
     /tmp/ccZPr3v0.s:1485   .text:0000000000000a1c .LBE207
     /tmp/ccZPr3v0.s:1467   .text:00000000000009fc .LBB209
     /tmp/ccZPr3v0.s:1478   .text:0000000000000a10 .LBE209
     /tmp/ccZPr3v0.s:5710   .debug_loc:000000000000011c .LLST67
     /tmp/ccZPr3v0.s:1434   .text:00000000000009ac .LVL180
GAS LISTING /tmp/ccZPr3v0.s 			page 59


     /tmp/ccZPr3v0.s:1439   .text:00000000000009bc .LVL181
     /tmp/ccZPr3v0.s:1444   .text:00000000000009cc .LVL182
     /tmp/ccZPr3v0.s:1449   .text:00000000000009d8 .LVL183
     /tmp/ccZPr3v0.s:1454   .text:00000000000009e8 .LVL184
     /tmp/ccZPr3v0.s:1458   .text:00000000000009f0 .LVL185
     /tmp/ccZPr3v0.s:1489   .text:0000000000000a2c .LVL188
     /tmp/ccZPr3v0.s:1493   .text:0000000000000a34 .LVL189
     /tmp/ccZPr3v0.s:1381   .text:0000000000000950 .LBB213
     /tmp/ccZPr3v0.s:5719   .debug_loc:0000000000000148 .LLST68
     /tmp/ccZPr3v0.s:5734   .debug_loc:0000000000000182 .LLST69
     /tmp/ccZPr3v0.s:5749   .debug_loc:00000000000001ca .LLST70
     /tmp/ccZPr3v0.s:1529   .text:0000000000000a88 .LBB215
     /tmp/ccZPr3v0.s:1554   .text:0000000000000ab4 .LBE215
     /tmp/ccZPr3v0.s:1536   .text:0000000000000a94 .LBB217
     /tmp/ccZPr3v0.s:1547   .text:0000000000000aa8 .LBE217
     /tmp/ccZPr3v0.s:5760   .debug_loc:0000000000000200 .LLST71
     /tmp/ccZPr3v0.s:1503   .text:0000000000000a44 .LVL190
     /tmp/ccZPr3v0.s:1508   .text:0000000000000a54 .LVL191
     /tmp/ccZPr3v0.s:1513   .text:0000000000000a64 .LVL192
     /tmp/ccZPr3v0.s:1518   .text:0000000000000a70 .LVL193
     /tmp/ccZPr3v0.s:1523   .text:0000000000000a80 .LVL194
     /tmp/ccZPr3v0.s:1527   .text:0000000000000a88 .LVL195
     /tmp/ccZPr3v0.s:1558   .text:0000000000000ac4 .LVL198
     /tmp/ccZPr3v0.s:1562   .text:0000000000000acc .LVL199
     /tmp/ccZPr3v0.s:1364   .text:000000000000093c .LVL168
     /tmp/ccZPr3v0.s:1396   .text:0000000000000964 .LVL173
     /tmp/ccZPr3v0.s:1399   .text:0000000000000970 .LVL174
     /tmp/ccZPr3v0.s:1404   .text:000000000000097c .LVL175
     /tmp/ccZPr3v0.s:1408   .text:0000000000000984 .LVL176
     /tmp/ccZPr3v0.s:912    .text:00000000000005e8 .LFB26
     /tmp/ccZPr3v0.s:1161   .text:00000000000007bc .LFE26
     /tmp/ccZPr3v0.s:7091   .debug_str:0000000000000724 .LASF131
     /tmp/ccZPr3v0.s:5769   .debug_loc:000000000000022c .LLST41
     /tmp/ccZPr3v0.s:5798   .debug_loc:00000000000002a1 .LLST42
     /tmp/ccZPr3v0.s:5827   .debug_loc:0000000000000316 .LLST43
     /tmp/ccZPr3v0.s:6993   .debug_str:0000000000000470 .LASF127
     /tmp/ccZPr3v0.s:5856   .debug_loc:000000000000038b .LLST44
     /tmp/ccZPr3v0.s:975    .text:0000000000000640 .LBB172
     /tmp/ccZPr3v0.s:995    .text:0000000000000660 .LBE172
     /tmp/ccZPr3v0.s:5885   .debug_loc:0000000000000400 .LLST53
     /tmp/ccZPr3v0.s:928    .text:0000000000000604 .LBB156
     /tmp/ccZPr3v0.s:5901   .debug_loc:000000000000044a .LLST45
     /tmp/ccZPr3v0.s:5916   .debug_loc:0000000000000484 .LLST46
     /tmp/ccZPr3v0.s:5931   .debug_loc:00000000000004cc .LLST47
     /tmp/ccZPr3v0.s:1029   .text:00000000000006b4 .LBB158
     /tmp/ccZPr3v0.s:1054   .text:00000000000006e0 .LBE158
     /tmp/ccZPr3v0.s:1036   .text:00000000000006c0 .LBB160
     /tmp/ccZPr3v0.s:1047   .text:00000000000006d4 .LBE160
     /tmp/ccZPr3v0.s:5958   .debug_loc:0000000000000544 .LLST48
     /tmp/ccZPr3v0.s:1003   .text:0000000000000670 .LVL119
     /tmp/ccZPr3v0.s:1008   .text:0000000000000680 .LVL120
     /tmp/ccZPr3v0.s:1013   .text:0000000000000690 .LVL121
     /tmp/ccZPr3v0.s:1018   .text:000000000000069c .LVL122
     /tmp/ccZPr3v0.s:1023   .text:00000000000006ac .LVL123
     /tmp/ccZPr3v0.s:1027   .text:00000000000006b4 .LVL124
     /tmp/ccZPr3v0.s:1058   .text:00000000000006f0 .LVL127
     /tmp/ccZPr3v0.s:1062   .text:00000000000006f8 .LVL128
GAS LISTING /tmp/ccZPr3v0.s 			page 60


     /tmp/ccZPr3v0.s:948    .text:0000000000000624 .LBB164
     /tmp/ccZPr3v0.s:5967   .debug_loc:0000000000000570 .LLST49
     /tmp/ccZPr3v0.s:5982   .debug_loc:00000000000005aa .LLST50
     /tmp/ccZPr3v0.s:5997   .debug_loc:00000000000005f2 .LLST51
     /tmp/ccZPr3v0.s:1099   .text:000000000000074c .LBB166
     /tmp/ccZPr3v0.s:1124   .text:0000000000000778 .LBE166
     /tmp/ccZPr3v0.s:1106   .text:0000000000000758 .LBB168
     /tmp/ccZPr3v0.s:1117   .text:000000000000076c .LBE168
     /tmp/ccZPr3v0.s:6027   .debug_loc:000000000000064a .LLST52
     /tmp/ccZPr3v0.s:1073   .text:0000000000000708 .LVL130
     /tmp/ccZPr3v0.s:1078   .text:0000000000000718 .LVL131
     /tmp/ccZPr3v0.s:1083   .text:0000000000000728 .LVL132
     /tmp/ccZPr3v0.s:1088   .text:0000000000000734 .LVL133
     /tmp/ccZPr3v0.s:1093   .text:0000000000000744 .LVL134
     /tmp/ccZPr3v0.s:1097   .text:000000000000074c .LVL135
     /tmp/ccZPr3v0.s:1128   .text:0000000000000788 .LVL138
     /tmp/ccZPr3v0.s:1132   .text:0000000000000790 .LVL139
     /tmp/ccZPr3v0.s:7119   .debug_str:00000000000007fd .LASF128
     /tmp/ccZPr3v0.s:6975   .debug_str:000000000000040e .LASF129
     /tmp/ccZPr3v0.s:10     .text:0000000000000000 .LFB25
     /tmp/ccZPr3v0.s:43     .text:0000000000000030 .LFE25
     /tmp/ccZPr3v0.s:7075   .debug_str:00000000000006be .LASF130
     /tmp/ccZPr3v0.s:6036   .debug_loc:0000000000000676 .LLST0
     /tmp/ccZPr3v0.s:6050   .debug_loc:00000000000006af .LLST1
     /tmp/ccZPr3v0.s:6064   .debug_loc:00000000000006e8 .LLST2
     /tmp/ccZPr3v0.s:28     .text:0000000000000018 .LVL2
     /tmp/ccZPr3v0.s:32     .text:0000000000000020 .LVL3
     /tmp/ccZPr3v0.s:761    .text:00000000000004e0 .LFB24
     /tmp/ccZPr3v0.s:906    .text:00000000000005e8 .LFE24
     /tmp/ccZPr3v0.s:6078   .debug_loc:0000000000000721 .LLST35
     /tmp/ccZPr3v0.s:6915   .debug_str:00000000000001ed .LASF132
     /tmp/ccZPr3v0.s:6107   .debug_loc:0000000000000796 .LLST36
     /tmp/ccZPr3v0.s:780    .text:00000000000004fc .LBB132
     /tmp/ccZPr3v0.s:6124   .debug_loc:00000000000007e2 .LLST37
     /tmp/ccZPr3v0.s:6139   .debug_loc:000000000000081c .LLST38
     /tmp/ccZPr3v0.s:6154   .debug_loc:0000000000000864 .LLST39
     /tmp/ccZPr3v0.s:869    .text:00000000000005a4 .LBB134
     /tmp/ccZPr3v0.s:894    .text:00000000000005d0 .LBE134
     /tmp/ccZPr3v0.s:876    .text:00000000000005b0 .LBB136
     /tmp/ccZPr3v0.s:887    .text:00000000000005c4 .LBE136
     /tmp/ccZPr3v0.s:6173   .debug_loc:00000000000008a2 .LLST40
     /tmp/ccZPr3v0.s:843    .text:0000000000000560 .LVL99
     /tmp/ccZPr3v0.s:848    .text:0000000000000570 .LVL100
     /tmp/ccZPr3v0.s:853    .text:0000000000000580 .LVL101
     /tmp/ccZPr3v0.s:858    .text:000000000000058c .LVL102
     /tmp/ccZPr3v0.s:863    .text:000000000000059c .LVL103
     /tmp/ccZPr3v0.s:867    .text:00000000000005a4 .LVL104
     /tmp/ccZPr3v0.s:898    .text:00000000000005e0 .LVL107
     /tmp/ccZPr3v0.s:902    .text:00000000000005e8 .LVL108
     /tmp/ccZPr3v0.s:792    .text:000000000000050c .LVL91
     /tmp/ccZPr3v0.s:796    .text:000000000000051c .LVL92
     /tmp/ccZPr3v0.s:140    .text:00000000000000a8 .LFB23
     /tmp/ccZPr3v0.s:166    .text:00000000000000cc .LFE23
     /tmp/ccZPr3v0.s:1167   .text:00000000000007bc .LFB22
     /tmp/ccZPr3v0.s:1342   .text:0000000000000920 .LFE22
     /tmp/ccZPr3v0.s:6182   .debug_loc:00000000000008ce .LLST54
     /tmp/ccZPr3v0.s:6211   .debug_loc:0000000000000943 .LLST55
GAS LISTING /tmp/ccZPr3v0.s 			page 61


     /tmp/ccZPr3v0.s:6240   .debug_loc:00000000000009b8 .LLST56
     /tmp/ccZPr3v0.s:6269   .debug_loc:0000000000000a2d .LLST57
     /tmp/ccZPr3v0.s:6276   .debug_loc:0000000000000a50 .LLST58
     /tmp/ccZPr3v0.s:1191   .text:00000000000007e8 .LBB182
     /tmp/ccZPr3v0.s:6287   .debug_loc:0000000000000a86 .LLST59
     /tmp/ccZPr3v0.s:6302   .debug_loc:0000000000000ac0 .LLST60
     /tmp/ccZPr3v0.s:6317   .debug_loc:0000000000000b08 .LLST61
     /tmp/ccZPr3v0.s:1305   .text:00000000000008dc .LBB184
     /tmp/ccZPr3v0.s:1330   .text:0000000000000908 .LBE184
     /tmp/ccZPr3v0.s:1312   .text:00000000000008e8 .LBB186
     /tmp/ccZPr3v0.s:1323   .text:00000000000008fc .LBE186
     /tmp/ccZPr3v0.s:6344   .debug_loc:0000000000000b80 .LLST62
     /tmp/ccZPr3v0.s:1279   .text:0000000000000898 .LVL158
     /tmp/ccZPr3v0.s:1284   .text:00000000000008a8 .LVL159
     /tmp/ccZPr3v0.s:1289   .text:00000000000008b8 .LVL160
     /tmp/ccZPr3v0.s:1294   .text:00000000000008c4 .LVL161
     /tmp/ccZPr3v0.s:1299   .text:00000000000008d4 .LVL162
     /tmp/ccZPr3v0.s:1303   .text:00000000000008dc .LVL163
     /tmp/ccZPr3v0.s:1334   .text:0000000000000918 .LVL166
     /tmp/ccZPr3v0.s:1338   .text:0000000000000920 .LVL167
     /tmp/ccZPr3v0.s:1205   .text:0000000000000800 .LVL144
     /tmp/ccZPr3v0.s:1208   .text:000000000000080c .LVL145
     /tmp/ccZPr3v0.s:1224   .text:0000000000000838 .LVL147
     /tmp/ccZPr3v0.s:1234   .text:0000000000000850 .LVL150
     /tmp/ccZPr3v0.s:1244   .text:0000000000000864 .LVL151
     /tmp/ccZPr3v0.s:106    .text:000000000000007c .LFB21
     /tmp/ccZPr3v0.s:134    .text:00000000000000a8 .LFE21
     /tmp/ccZPr3v0.s:6353   .debug_loc:0000000000000bac .LLST5
     /tmp/ccZPr3v0.s:364    .text:00000000000001f4 .LFB20
     /tmp/ccZPr3v0.s:755    .text:00000000000004e0 .LFE20
     /tmp/ccZPr3v0.s:6875   .debug_str:0000000000000077 .LASF133
     /tmp/ccZPr3v0.s:6365   .debug_loc:0000000000000bea .LLST14
     /tmp/ccZPr3v0.s:7137   .debug_str:0000000000000937 .LASF134
     /tmp/ccZPr3v0.s:6372   .debug_loc:0000000000000c0d .LLST15
     /tmp/ccZPr3v0.s:6391   .debug_loc:0000000000000c4b .LLST16
     /tmp/ccZPr3v0.s:6406   .debug_loc:0000000000000c93 .LLST17
     /tmp/ccZPr3v0.s:395    .text:000000000000021c .LBB86
     /tmp/ccZPr3v0.s:6417   .debug_loc:0000000000000cc9 .LLST18
     /tmp/ccZPr3v0.s:6432   .debug_loc:0000000000000d03 .LLST19
     /tmp/ccZPr3v0.s:6447   .debug_loc:0000000000000d4b .LLST20
     /tmp/ccZPr3v0.s:579    .text:000000000000036c .LBB88
     /tmp/ccZPr3v0.s:604    .text:0000000000000398 .LBE88
     /tmp/ccZPr3v0.s:586    .text:0000000000000378 .LBB90
     /tmp/ccZPr3v0.s:597    .text:000000000000038c .LBE90
     /tmp/ccZPr3v0.s:6466   .debug_loc:0000000000000d89 .LLST21
     /tmp/ccZPr3v0.s:553    .text:0000000000000328 .LVL57
     /tmp/ccZPr3v0.s:558    .text:0000000000000338 .LVL58
     /tmp/ccZPr3v0.s:563    .text:0000000000000348 .LVL59
     /tmp/ccZPr3v0.s:568    .text:0000000000000354 .LVL60
     /tmp/ccZPr3v0.s:573    .text:0000000000000364 .LVL61
     /tmp/ccZPr3v0.s:577    .text:000000000000036c .LVL62
     /tmp/ccZPr3v0.s:608    .text:00000000000003a8 .LVL65
     /tmp/ccZPr3v0.s:612    .text:00000000000003b0 .LVL66
     /tmp/ccZPr3v0.s:404    .text:0000000000000220 .LBB94
     /tmp/ccZPr3v0.s:430    .text:0000000000000248 .LBE94
     /tmp/ccZPr3v0.s:412    .text:000000000000022c .LBB96
     /tmp/ccZPr3v0.s:422    .text:000000000000023c .LBE96
GAS LISTING /tmp/ccZPr3v0.s 			page 62


     /tmp/ccZPr3v0.s:6475   .debug_loc:0000000000000db5 .LLST22
     /tmp/ccZPr3v0.s:443    .text:0000000000000258 .LBB99
     /tmp/ccZPr3v0.s:6484   .debug_loc:0000000000000de1 .LLST23
     /tmp/ccZPr3v0.s:6499   .debug_loc:0000000000000e1b .LLST24
     /tmp/ccZPr3v0.s:6514   .debug_loc:0000000000000e63 .LLST25
     /tmp/ccZPr3v0.s:649    .text:0000000000000404 .LBB101
     /tmp/ccZPr3v0.s:674    .text:0000000000000430 .LBE101
     /tmp/ccZPr3v0.s:656    .text:0000000000000410 .LBB103
     /tmp/ccZPr3v0.s:667    .text:0000000000000424 .LBE103
     /tmp/ccZPr3v0.s:6533   .debug_loc:0000000000000ea1 .LLST26
     /tmp/ccZPr3v0.s:623    .text:00000000000003c0 .LVL68
     /tmp/ccZPr3v0.s:628    .text:00000000000003d0 .LVL69
     /tmp/ccZPr3v0.s:633    .text:00000000000003e0 .LVL70
     /tmp/ccZPr3v0.s:638    .text:00000000000003ec .LVL71
     /tmp/ccZPr3v0.s:643    .text:00000000000003fc .LVL72
     /tmp/ccZPr3v0.s:647    .text:0000000000000404 .LVL73
     /tmp/ccZPr3v0.s:678    .text:0000000000000440 .LVL76
     /tmp/ccZPr3v0.s:682    .text:0000000000000448 .LVL77
     /tmp/ccZPr3v0.s:457    .text:000000000000026c .LBB107
     /tmp/ccZPr3v0.s:6542   .debug_loc:0000000000000ecd .LLST27
     /tmp/ccZPr3v0.s:6557   .debug_loc:0000000000000f07 .LLST28
     /tmp/ccZPr3v0.s:6572   .debug_loc:0000000000000f4f .LLST29
     /tmp/ccZPr3v0.s:718    .text:000000000000049c .LBB109
     /tmp/ccZPr3v0.s:743    .text:00000000000004c8 .LBE109
     /tmp/ccZPr3v0.s:725    .text:00000000000004a8 .LBB111
     /tmp/ccZPr3v0.s:736    .text:00000000000004bc .LBE111
     /tmp/ccZPr3v0.s:6591   .debug_loc:0000000000000f8d .LLST30
     /tmp/ccZPr3v0.s:692    .text:0000000000000458 .LVL78
     /tmp/ccZPr3v0.s:697    .text:0000000000000468 .LVL79
     /tmp/ccZPr3v0.s:702    .text:0000000000000478 .LVL80
     /tmp/ccZPr3v0.s:707    .text:0000000000000484 .LVL81
     /tmp/ccZPr3v0.s:712    .text:0000000000000494 .LVL82
     /tmp/ccZPr3v0.s:716    .text:000000000000049c .LVL83
     /tmp/ccZPr3v0.s:747    .text:00000000000004d8 .LVL86
     /tmp/ccZPr3v0.s:751    .text:00000000000004e0 .LVL87
     /tmp/ccZPr3v0.s:477    .text:0000000000000280 .LBB115
     /tmp/ccZPr3v0.s:546    .text:0000000000000318 .LBE115
     /tmp/ccZPr3v0.s:6600   .debug_loc:0000000000000fb9 .LLST31
     /tmp/ccZPr3v0.s:6609   .debug_loc:0000000000000fde .LLST32
     /tmp/ccZPr3v0.s:6618   .debug_loc:000000000000100a .LLST33
     /tmp/ccZPr3v0.s:510    .text:00000000000002d4 .LBB117
     /tmp/ccZPr3v0.s:535    .text:0000000000000300 .LBE117
     /tmp/ccZPr3v0.s:517    .text:00000000000002e0 .LBB119
     /tmp/ccZPr3v0.s:528    .text:00000000000002f4 .LBE119
     /tmp/ccZPr3v0.s:6626   .debug_loc:000000000000102e .LLST34
     /tmp/ccZPr3v0.s:484    .text:0000000000000290 .LVL47
     /tmp/ccZPr3v0.s:489    .text:00000000000002a0 .LVL48
     /tmp/ccZPr3v0.s:494    .text:00000000000002b0 .LVL49
     /tmp/ccZPr3v0.s:499    .text:00000000000002bc .LVL50
     /tmp/ccZPr3v0.s:504    .text:00000000000002cc .LVL51
     /tmp/ccZPr3v0.s:508    .text:00000000000002d4 .LVL52
     /tmp/ccZPr3v0.s:539    .text:0000000000000310 .LVL55
     /tmp/ccZPr3v0.s:543    .text:0000000000000318 .LVL56
     /tmp/ccZPr3v0.s:437    .text:0000000000000250 .LVL41
     /tmp/ccZPr3v0.s:441    .text:0000000000000258 .LVL42
     /tmp/ccZPr3v0.s:453    .text:0000000000000264 .LVL44
     /tmp/ccZPr3v0.s:186    .text:00000000000000cc .LFB19
GAS LISTING /tmp/ccZPr3v0.s 			page 63


     /tmp/ccZPr3v0.s:358    .text:00000000000001f4 .LFE19
     /tmp/ccZPr3v0.s:6635   .debug_loc:000000000000105a .LLST6
     /tmp/ccZPr3v0.s:7179   .debug_str:0000000000000a79 .LASF135
     /tmp/ccZPr3v0.s:6653   .debug_loc:00000000000010a6 .LLST7
     /tmp/ccZPr3v0.s:6668   .debug_loc:00000000000010ef .LLST8
     /tmp/ccZPr3v0.s:7139   .debug_str:000000000000094a .LASF136
     /tmp/ccZPr3v0.s:239    .text:000000000000011c .LBB36
     /tmp/ccZPr3v0.s:251    .text:000000000000012c .LBE36
     /tmp/ccZPr3v0.s:7051   .debug_str:0000000000000607 .LASF137
     /tmp/ccZPr3v0.s:6688   .debug_loc:000000000000114c .LLST13
     /tmp/ccZPr3v0.s:217    .text:0000000000000108 .LBB27
     /tmp/ccZPr3v0.s:6699   .debug_loc:0000000000001182 .LLST9
     /tmp/ccZPr3v0.s:6714   .debug_loc:00000000000011bc .LLST10
     /tmp/ccZPr3v0.s:6729   .debug_loc:0000000000001204 .LLST11
     /tmp/ccZPr3v0.s:313    .text:00000000000001a8 .LBB29
     /tmp/ccZPr3v0.s:339    .text:00000000000001d4 .LBE29
     /tmp/ccZPr3v0.s:321    .text:00000000000001b4 .LBB31
     /tmp/ccZPr3v0.s:332    .text:00000000000001c8 .LBE31
     /tmp/ccZPr3v0.s:6754   .debug_loc:0000000000001248 .LLST12
     /tmp/ccZPr3v0.s:287    .text:0000000000000164 .LVL23
     /tmp/ccZPr3v0.s:292    .text:0000000000000174 .LVL24
     /tmp/ccZPr3v0.s:297    .text:0000000000000184 .LVL25
     /tmp/ccZPr3v0.s:302    .text:0000000000000190 .LVL26
     /tmp/ccZPr3v0.s:307    .text:00000000000001a0 .LVL27
     /tmp/ccZPr3v0.s:311    .text:00000000000001a8 .LVL28
     /tmp/ccZPr3v0.s:343    .text:00000000000001e4 .LVL31
     /tmp/ccZPr3v0.s:347    .text:00000000000001ec .LVL32
     /tmp/ccZPr3v0.s:204    .text:00000000000000ec .LVL12
     /tmp/ccZPr3v0.s:263    .text:0000000000000140 .LVL20
     /tmp/ccZPr3v0.s:49     .text:0000000000000030 .LFB18
     /tmp/ccZPr3v0.s:100    .text:000000000000007c .LFE18
     /tmp/ccZPr3v0.s:6763   .debug_loc:0000000000001274 .LLST3
     /tmp/ccZPr3v0.s:6777   .debug_loc:00000000000012ad .LLST4
     /tmp/ccZPr3v0.s:79     .text:0000000000000060 .LVL6
     /tmp/ccZPr3v0.s:7087   .debug_str:000000000000070d .LASF143
     /tmp/ccZPr3v0.s:7035   .debug_str:000000000000059e .LASF145
     /tmp/ccZPr3v0.s:6939   .debug_str:00000000000002b9 .LASF146
     /tmp/ccZPr3v0.s:7003   .debug_str:00000000000004a3 .LASF138
     /tmp/ccZPr3v0.s:7021   .debug_str:000000000000051d .LASF139
     /tmp/ccZPr3v0.s:6861   .debug_str:0000000000000000 .LASF140
     /tmp/ccZPr3v0.s:6921   .debug_str:0000000000000222 .LASF141
     /tmp/ccZPr3v0.s:7093   .debug_str:0000000000000729 .LASF142
     /tmp/ccZPr3v0.s:7009   .debug_str:00000000000004d7 .LASF144
     /tmp/ccZPr3v0.s:6903   .debug_str:0000000000000165 .LASF147
     /tmp/ccZPr3v0.s:6919   .debug_str:0000000000000212 .LASF148
     /tmp/ccZPr3v0.s:7143   .debug_str:000000000000096c .LASF150
     /tmp/ccZPr3v0.s:6983   .debug_str:000000000000043f .LASF149
     /tmp/ccZPr3v0.s:7161   .debug_str:00000000000009e4 .LASF151
     /tmp/ccZPr3v0.s:7111   .debug_str:00000000000007ba .LASF152
     /tmp/ccZPr3v0.s:7103   .debug_str:0000000000000787 .LASF153
     /tmp/ccZPr3v0.s:7085   .debug_str:00000000000006fd .LASF154
     /tmp/ccZPr3v0.s:6889   .debug_str:00000000000000fb .LASF155
     /tmp/ccZPr3v0.s:7145   .debug_str:0000000000000976 .LASF156
     /tmp/ccZPr3v0.s:6943   .debug_str:00000000000002ed .LASF157
     /tmp/ccZPr3v0.s:1420   .text:0000000000000994 .LVL177
     /tmp/ccZPr3v0.s:1424   .text:000000000000099c .LVL178
     /tmp/ccZPr3v0.s:1432   .text:00000000000009a4 .LVL179
GAS LISTING /tmp/ccZPr3v0.s 			page 64


     /tmp/ccZPr3v0.s:1367   .text:0000000000000940 .LVL169
     /tmp/ccZPr3v0.s:1374   .text:0000000000000948 .LVL170
     /tmp/ccZPr3v0.s:1466   .text:00000000000009fc .LVL186
     /tmp/ccZPr3v0.s:1475   .text:0000000000000a10 .LVL187
     /tmp/ccZPr3v0.s:1380   .text:0000000000000950 .LVL171
     /tmp/ccZPr3v0.s:1386   .text:0000000000000954 .LVL172
     /tmp/ccZPr3v0.s:1535   .text:0000000000000a94 .LVL196
     /tmp/ccZPr3v0.s:1544   .text:0000000000000aa8 .LVL197
     /tmp/ccZPr3v0.s:915    .text:00000000000005e8 .LVL109
     /tmp/ccZPr3v0.s:1001   .text:0000000000000668 .LVL118
     /tmp/ccZPr3v0.s:1071   .text:0000000000000700 .LVL129
     /tmp/ccZPr3v0.s:974    .text:0000000000000640 .LVL114
     /tmp/ccZPr3v0.s:978    .text:0000000000000644 .LVL115
     /tmp/ccZPr3v0.s:991    .text:000000000000065c .LVL116
     /tmp/ccZPr3v0.s:1145   .text:00000000000007a0 .LVL140
     /tmp/ccZPr3v0.s:927    .text:0000000000000604 .LVL110
     /tmp/ccZPr3v0.s:933    .text:0000000000000608 .LVL111
     /tmp/ccZPr3v0.s:993    .text:0000000000000660 .LVL117
     /tmp/ccZPr3v0.s:1035   .text:00000000000006c0 .LVL125
     /tmp/ccZPr3v0.s:1044   .text:00000000000006d4 .LVL126
     /tmp/ccZPr3v0.s:947    .text:0000000000000624 .LVL112
     /tmp/ccZPr3v0.s:953    .text:0000000000000628 .LVL113
     /tmp/ccZPr3v0.s:1105   .text:0000000000000758 .LVL136
     /tmp/ccZPr3v0.s:1114   .text:000000000000076c .LVL137
     /tmp/ccZPr3v0.s:14     .text:0000000000000000 .LVL0
     /tmp/ccZPr3v0.s:26     .text:0000000000000014 .LVL1
     /tmp/ccZPr3v0.s:764    .text:00000000000004e0 .LVL88
     /tmp/ccZPr3v0.s:829    .text:0000000000000548 .LVL96
     /tmp/ccZPr3v0.s:833    .text:0000000000000550 .LVL97
     /tmp/ccZPr3v0.s:841    .text:0000000000000558 .LVL98
     /tmp/ccZPr3v0.s:803    .text:0000000000000528 .LVL93
     /tmp/ccZPr3v0.s:812    .text:0000000000000534 .LVL94
     /tmp/ccZPr3v0.s:818    .text:0000000000000538 .LVL95
     /tmp/ccZPr3v0.s:779    .text:00000000000004fc .LVL89
     /tmp/ccZPr3v0.s:786    .text:0000000000000504 .LVL90
     /tmp/ccZPr3v0.s:875    .text:00000000000005b0 .LVL105
     /tmp/ccZPr3v0.s:884    .text:00000000000005c4 .LVL106
     /tmp/ccZPr3v0.s:1170   .text:00000000000007bc .LVL141
     /tmp/ccZPr3v0.s:1259   .text:0000000000000878 .LVL153
     /tmp/ccZPr3v0.s:1269   .text:0000000000000888 .LVL156
     /tmp/ccZPr3v0.s:1277   .text:0000000000000890 .LVL157
     /tmp/ccZPr3v0.s:1262   .text:000000000000087c .LVL154
     /tmp/ccZPr3v0.s:1265   .text:0000000000000880 .LVL155
     /tmp/ccZPr3v0.s:1210   .text:0000000000000810 .LVL146
     /tmp/ccZPr3v0.s:1256   .text:0000000000000874 .LVL152
     /tmp/ccZPr3v0.s:1226   .text:000000000000083c .LVL148
     /tmp/ccZPr3v0.s:1232   .text:0000000000000848 .LVL149
     /tmp/ccZPr3v0.s:1190   .text:00000000000007e8 .LVL142
     /tmp/ccZPr3v0.s:1199   .text:00000000000007f8 .LVL143
     /tmp/ccZPr3v0.s:1311   .text:00000000000008e8 .LVL164
     /tmp/ccZPr3v0.s:1320   .text:00000000000008fc .LVL165
     /tmp/ccZPr3v0.s:109    .text:000000000000007c .LVL9
     /tmp/ccZPr3v0.s:123    .text:0000000000000098 .LVL10
     /tmp/ccZPr3v0.s:382    .text:0000000000000208 .LVL33
     /tmp/ccZPr3v0.s:387    .text:000000000000020c .LVL34
     /tmp/ccZPr3v0.s:392    .text:0000000000000218 .LVL35
     /tmp/ccZPr3v0.s:473    .text:0000000000000280 .LVL46
GAS LISTING /tmp/ccZPr3v0.s 			page 65


     /tmp/ccZPr3v0.s:428    .text:0000000000000248 .LVL40
     /tmp/ccZPr3v0.s:621    .text:00000000000003b8 .LVL67
     /tmp/ccZPr3v0.s:394    .text:000000000000021c .LVL36
     /tmp/ccZPr3v0.s:400    .text:0000000000000220 .LVL37
     /tmp/ccZPr3v0.s:585    .text:0000000000000378 .LVL63
     /tmp/ccZPr3v0.s:594    .text:000000000000038c .LVL64
     /tmp/ccZPr3v0.s:411    .text:000000000000022c .LVL38
     /tmp/ccZPr3v0.s:419    .text:000000000000023c .LVL39
     /tmp/ccZPr3v0.s:448    .text:000000000000025c .LVL43
     /tmp/ccZPr3v0.s:655    .text:0000000000000410 .LVL74
     /tmp/ccZPr3v0.s:664    .text:0000000000000424 .LVL75
     /tmp/ccZPr3v0.s:456    .text:000000000000026c .LVL45
     /tmp/ccZPr3v0.s:724    .text:00000000000004a8 .LVL84
     /tmp/ccZPr3v0.s:733    .text:00000000000004bc .LVL85
     /tmp/ccZPr3v0.s:516    .text:00000000000002e0 .LVL53
     /tmp/ccZPr3v0.s:525    .text:00000000000002f4 .LVL54
     /tmp/ccZPr3v0.s:189    .text:00000000000000cc .LVL11
     /tmp/ccZPr3v0.s:208    .text:00000000000000f0 .LVL13
     /tmp/ccZPr3v0.s:277    .text:0000000000000154 .LVL21
     /tmp/ccZPr3v0.s:285    .text:000000000000015c .LVL22
     /tmp/ccZPr3v0.s:212    .text:0000000000000100 .LVL14
     /tmp/ccZPr3v0.s:237    .text:000000000000011c .LVL17
     /tmp/ccZPr3v0.s:249    .text:000000000000012c .LVL19
     /tmp/ccZPr3v0.s:244    .text:0000000000000124 .LVL18
     /tmp/ccZPr3v0.s:216    .text:0000000000000108 .LVL15
     /tmp/ccZPr3v0.s:223    .text:000000000000010c .LVL16
     /tmp/ccZPr3v0.s:320    .text:00000000000001b4 .LVL29
     /tmp/ccZPr3v0.s:329    .text:00000000000001c8 .LVL30
     /tmp/ccZPr3v0.s:52     .text:0000000000000030 .LVL4
     /tmp/ccZPr3v0.s:66     .text:0000000000000048 .LVL5
     /tmp/ccZPr3v0.s:95     .text:0000000000000074 .LVL8
     /tmp/ccZPr3v0.s:1645   .debug_info:0000000000000000 .Ldebug_info0
     /tmp/ccZPr3v0.s:225    .text:000000000000010c .LBE27
     /tmp/ccZPr3v0.s:280    .text:0000000000000154 .LBB37
     /tmp/ccZPr3v0.s:350    .text:00000000000001ec .LBE37
     /tmp/ccZPr3v0.s:402    .text:0000000000000220 .LBE86
     /tmp/ccZPr3v0.s:547    .text:0000000000000318 .LBB122
     /tmp/ccZPr3v0.s:615    .text:00000000000003b0 .LBE122
     /tmp/ccZPr3v0.s:450    .text:000000000000025c .LBE99
     /tmp/ccZPr3v0.s:616    .text:00000000000003b0 .LBB123
     /tmp/ccZPr3v0.s:685    .text:0000000000000448 .LBE123
     /tmp/ccZPr3v0.s:462    .text:0000000000000270 .LBE107
     /tmp/ccZPr3v0.s:686    .text:0000000000000448 .LBB124
     /tmp/ccZPr3v0.s:753    .text:00000000000004e0 .LBE124
     /tmp/ccZPr3v0.s:788    .text:0000000000000504 .LBE132
     /tmp/ccZPr3v0.s:836    .text:0000000000000550 .LBB140
     /tmp/ccZPr3v0.s:904    .text:00000000000005e8 .LBE140
     /tmp/ccZPr3v0.s:935    .text:0000000000000608 .LBE156
     /tmp/ccZPr3v0.s:996    .text:0000000000000660 .LBB173
     /tmp/ccZPr3v0.s:1065   .text:00000000000006f8 .LBE173
     /tmp/ccZPr3v0.s:955    .text:0000000000000628 .LBE164
     /tmp/ccZPr3v0.s:1066   .text:00000000000006f8 .LBB174
     /tmp/ccZPr3v0.s:1135   .text:0000000000000790 .LBE174
     /tmp/ccZPr3v0.s:1201   .text:00000000000007f8 .LBE182
     /tmp/ccZPr3v0.s:1272   .text:0000000000000888 .LBB190
     /tmp/ccZPr3v0.s:1340   .text:0000000000000920 .LBE190
     /tmp/ccZPr3v0.s:1376   .text:0000000000000948 .LBE205
GAS LISTING /tmp/ccZPr3v0.s 			page 66


     /tmp/ccZPr3v0.s:1427   .text:000000000000099c .LBB221
     /tmp/ccZPr3v0.s:1496   .text:0000000000000a34 .LBE221
     /tmp/ccZPr3v0.s:1388   .text:0000000000000954 .LBE213
     /tmp/ccZPr3v0.s:1497   .text:0000000000000a34 .LBB222
     /tmp/ccZPr3v0.s:1564   .text:0000000000000acc .LBE222

UNDEFINED SYMBOLS
_Z11thread_exitv
_ZN9Scheduler3putEP7IThread
kernelThread
_ZN9Scheduler14dispatchToNextEv
_Z9putStringPKc
_Z6putInti
_Z10putNewlinev
_ZN8IConsole14writeToConsoleEv
_Z10stopKernelv
_ZN8MemAlloc3getEv
_ZN8MemAlloc8allocMemEm
_ZN8MemAlloc7freeMemEPv
