GAS LISTING /tmp/ccnvT4sd.s 			page 1


   1              		.file	"thread.cpp"
   2              		.option pic
   3              		.option norelax
   4              		.text
   5              	.Ltext0:
   6              		.align	2
   7              		.globl	_Z7wrappermPFvPvES_
   9              	_Z7wrappermPFvPvES_:
  10              	.LFB21:
  11              		.file 1 "src/thread.cpp"
   1:src/thread.cpp **** #include "../h/thread.h"
   2:src/thread.cpp **** #include "../h/alloc.h"
   3:src/thread.cpp **** #include "../h/scheduler.h"
   4:src/thread.cpp **** 
   5:src/thread.cpp **** Thread* Thread::pRunning = nullptr;
   6:src/thread.cpp **** //uint64* Thread::runningSp = nullptr;
   7:src/thread.cpp **** uint64** Thread::pRunningSp = nullptr;
   8:src/thread.cpp **** uint64 Thread::timeSliceCounter = 0;
   9:src/thread.cpp **** bool Thread::switchedToUserThread = 0;
  10:src/thread.cpp **** uint64 Thread::nrTotalThreads = 1;
  11:src/thread.cpp **** Thread* Thread::pAllThreads[MAX_NR_TOTAL_THREADS];
  12:src/thread.cpp **** uint64 Thread::initialUserMemoryUsage;
  13:src/thread.cpp **** 
  14:src/thread.cpp **** void Thread::signalDone()
  15:src/thread.cpp **** {
  16:src/thread.cpp ****     Thread* pCur = pWaitingHead;
  17:src/thread.cpp **** 
  18:src/thread.cpp ****     while(pCur)
  19:src/thread.cpp ****     {
  20:src/thread.cpp ****         pCur->state = READY;
  21:src/thread.cpp ****         Scheduler::put(pCur);
  22:src/thread.cpp **** 
  23:src/thread.cpp ****         pCur = pCur->pNext;
  24:src/thread.cpp ****     }
  25:src/thread.cpp **** }
  26:src/thread.cpp **** 
  27:src/thread.cpp **** void Thread::join(uint64 id)
  28:src/thread.cpp **** {
  29:src/thread.cpp ****     Thread* oldRunning = Thread::getPRunning();
  30:src/thread.cpp **** 
  31:src/thread.cpp ****     Thread* t = pAllThreads[id];
  32:src/thread.cpp **** 
  33:src/thread.cpp ****     extern Thread kernelThread;
  34:src/thread.cpp ****     assert(oldRunning != &kernelThread); // you're only supposed to open user threads with system c
  35:src/thread.cpp **** 
  36:src/thread.cpp **** //    putU64(id);
  37:src/thread.cpp **** 
  38:src/thread.cpp ****     if(t->done == true)
  39:src/thread.cpp ****         return;
  40:src/thread.cpp **** 
  41:src/thread.cpp ****     if(t->pWaitingHead == nullptr)
  42:src/thread.cpp ****     {
  43:src/thread.cpp ****         t->pWaitingHead = oldRunning;
  44:src/thread.cpp ****     }
  45:src/thread.cpp ****     else
  46:src/thread.cpp ****     {
  47:src/thread.cpp ****         Thread* pCur = t->pWaitingHead;
GAS LISTING /tmp/ccnvT4sd.s 			page 2


  48:src/thread.cpp ****         while(pCur->pNext)
  49:src/thread.cpp ****         {
  50:src/thread.cpp ****             pCur = pCur->pNext;
  51:src/thread.cpp ****         }
  52:src/thread.cpp **** 
  53:src/thread.cpp ****         pCur->pNext = oldRunning;
  54:src/thread.cpp ****     }
  55:src/thread.cpp **** 
  56:src/thread.cpp ****     oldRunning->pNext = nullptr;
  57:src/thread.cpp ****     oldRunning->state = SUSPENDED;
  58:src/thread.cpp **** 
  59:src/thread.cpp ****     Scheduler::dispatchToNext();
  60:src/thread.cpp **** }
  61:src/thread.cpp **** 
  62:src/thread.cpp **** void Thread::switchToUser()
  63:src/thread.cpp **** {
  64:src/thread.cpp ****     uint64 scause;
  65:src/thread.cpp ****     __asm__ volatile ("csrr %[name], scause" : [name] "=r"(scause));
  66:src/thread.cpp ****     bool cameFromKernelMode = ((scause & (1 << 8)) == 0);
  67:src/thread.cpp **** 
  68:src/thread.cpp ****     if(!cameFromKernelMode) // if user thread calls this it does nothing
  69:src/thread.cpp ****     {
  70:src/thread.cpp ****         assert(false); // temp
  71:src/thread.cpp ****         assert(Thread::pRunning->id != 0);
  72:src/thread.cpp ****         return;
  73:src/thread.cpp ****     }
  74:src/thread.cpp **** 
  75:src/thread.cpp ****     assert(Thread::pRunning->id == 0);
  76:src/thread.cpp **** 
  77:src/thread.cpp ****     Scheduler::dispatchToNext();
  78:src/thread.cpp **** 
  79:src/thread.cpp ****     assert(Thread::getPRunning()->id == 1);
  80:src/thread.cpp **** 
  81:src/thread.cpp **** //    __asm__ volatile ("csrs sstatus, 0x6"); // TODO: probably should be removed when i add permis
  82:src/thread.cpp **** //    __asm__ volatile ("mv x10, x10");
  83:src/thread.cpp **** //    __asm__ volatile ("mv x10, x10");
  84:src/thread.cpp **** //    __asm__ volatile ("mv x10, x10");
  85:src/thread.cpp **** //    putString("KITA PENIS");
  86:src/thread.cpp **** 
  87:src/thread.cpp **** //    __asm__ volatile ("csrc sstatus, 0x9");
  88:src/thread.cpp **** //    __asm__ volatile ("csrc sstatus, 0x8");
  89:src/thread.cpp **** //    __asm__ volatile ("csrw sstatus, 0"); // TODO: radi preko csrc jer ovako menjam sve
  90:src/thread.cpp **** }
  91:src/thread.cpp **** 
  92:src/thread.cpp **** void Thread::setPRunning(Thread* p)
  93:src/thread.cpp **** {
  94:src/thread.cpp ****     pRunning = p;
  95:src/thread.cpp ****     pRunningSp = &(p->sp);
  96:src/thread.cpp **** }
  97:src/thread.cpp **** 
  98:src/thread.cpp **** int Thread::createThread(uint64* id, Body body, void* arg)
  99:src/thread.cpp **** {
 100:src/thread.cpp ****     assert(nrTotalThreads < MAX_NR_TOTAL_THREADS);
 101:src/thread.cpp **** 
 102:src/thread.cpp ****     Thread* t = (Thread*)MemAlloc::get()->allocMem(sizeof(Thread));
 103:src/thread.cpp ****     pAllThreads[nrTotalThreads] = t;
 104:src/thread.cpp **** 
GAS LISTING /tmp/ccnvT4sd.s 			page 3


 105:src/thread.cpp ****     t->pStackStart = nullptr;
 106:src/thread.cpp ****     void* pLogicalStack = t->allocStack();
 107:src/thread.cpp **** 
 108:src/thread.cpp ****     t->init(body, arg, pLogicalStack);
 109:src/thread.cpp **** 
 110:src/thread.cpp ****     *id = t->id;
 111:src/thread.cpp **** 
 112:src/thread.cpp ****     Scheduler::put(t);
 113:src/thread.cpp **** 
 114:src/thread.cpp ****     return 0;
 115:src/thread.cpp **** }
 116:src/thread.cpp **** 
 117:src/thread.cpp **** Thread* Thread::getPRunning()
 118:src/thread.cpp **** {
 119:src/thread.cpp ****     __asm__ volatile("mv x10, x10"); // to avoid inline
 120:src/thread.cpp ****     return pRunning;
 121:src/thread.cpp **** }
 122:src/thread.cpp **** 
 123:src/thread.cpp **** void* Thread::allocStack()
 124:src/thread.cpp **** {
 125:src/thread.cpp ****     assert(pStackStart == nullptr); // error: this threads stack may have already been allocated
 126:src/thread.cpp **** 
 127:src/thread.cpp ****     pStackStart = MemAlloc::get()->allocMem(ACTUAL_STACK_SIZE);
 128:src/thread.cpp ****     uint64 stack =  (uint64)pStackStart + ACTUAL_STACK_SIZE;
 129:src/thread.cpp **** 
 130:src/thread.cpp ****     if(stack % 16 != 0)
 131:src/thread.cpp ****     {
 132:src/thread.cpp ****         stack -= stack % 16;
 133:src/thread.cpp ****     }
 134:src/thread.cpp **** 
 135:src/thread.cpp ****     stack -= 34*8; // for the initial context (necessary to avoid exceptions from reading from unal
 136:src/thread.cpp **** 
 137:src/thread.cpp ****     return (void*)stack;
 138:src/thread.cpp **** 
 139:src/thread.cpp **** }
 140:src/thread.cpp **** 
 141:src/thread.cpp **** void wrapper(uint64 __DO_NOT_USE, Thread::Body body, void* arg) // this entire function can be run 
 142:src/thread.cpp **** {
  12              		.loc 1 142 1
  13              		.cfi_startproc
  14              	.LVL0:
  15 0000 130101FF 		addi	sp,sp,-16
  16              		.cfi_def_cfa_offset 16
  17 0004 23341100 		sd	ra,8(sp)
  18 0008 23308100 		sd	s0,0(sp)
  19              		.cfi_offset 1, -8
  20              		.cfi_offset 8, -16
  21 000c 13040101 		addi	s0,sp,16
  22              		.cfi_def_cfa 8, 0
 143:src/thread.cpp ****     (*body)(arg);
  23              		.loc 1 143 5
  24              		.loc 1 143 12 is_stmt 0
  25 0010 13050600 		mv	a0,a2
  26              	.LVL1:
  27 0014 E7800500 		jalr	a1
  28              	.LVL2:
 144:src/thread.cpp ****     thread_exit();
GAS LISTING /tmp/ccnvT4sd.s 			page 4


  29              		.loc 1 144 5 is_stmt 1
  30              		.loc 1 144 16 is_stmt 0
  31 0018 97000000 		call	_Z11thread_exitv@plt
  31      E7800000 
  32              	.LVL3:
 145:src/thread.cpp **** }
  33              		.loc 1 145 1
  34 0020 83308100 		ld	ra,8(sp)
  35              		.cfi_restore 1
  36 0024 03340100 		ld	s0,0(sp)
  37              		.cfi_restore 8
  38              		.cfi_def_cfa 2, 16
  39 0028 13010101 		addi	sp,sp,16
  40              		.cfi_def_cfa_offset 0
  41 002c 67800000 		jr	ra
  42              		.cfi_endproc
  43              	.LFE21:
  45              		.align	2
  46              		.globl	_ZN6Thread10signalDoneEv
  48              	_ZN6Thread10signalDoneEv:
  49              	.LFB14:
  15:src/thread.cpp ****     Thread* pCur = pWaitingHead;
  50              		.loc 1 15 1 is_stmt 1
  51              		.cfi_startproc
  52              	.LVL4:
  53 0030 130101FE 		addi	sp,sp,-32
  54              		.cfi_def_cfa_offset 32
  55 0034 233C1100 		sd	ra,24(sp)
  56 0038 23388100 		sd	s0,16(sp)
  57 003c 23349100 		sd	s1,8(sp)
  58              		.cfi_offset 1, -8
  59              		.cfi_offset 8, -16
  60              		.cfi_offset 9, -24
  61 0040 13040102 		addi	s0,sp,32
  62              		.cfi_def_cfa 8, 0
  16:src/thread.cpp **** 
  63              		.loc 1 16 5
  16:src/thread.cpp **** 
  64              		.loc 1 16 13 is_stmt 0
  65 0044 83348503 		ld	s1,56(a0)
  66              	.LVL5:
  67              	.L5:
  18:src/thread.cpp ****     {
  68              		.loc 1 18 5 is_stmt 1
  18:src/thread.cpp ****     {
  69              		.loc 1 18 11
  70 0048 63800402 		beqz	s1,.L3
  20:src/thread.cpp ****         Scheduler::put(pCur);
  71              		.loc 1 20 9
  20:src/thread.cpp ****         Scheduler::put(pCur);
  72              		.loc 1 20 21 is_stmt 0
  73 004c 93072000 		li	a5,2
  74 0050 23A0F400 		sw	a5,0(s1)
  21:src/thread.cpp **** 
  75              		.loc 1 21 9 is_stmt 1
  21:src/thread.cpp **** 
  76              		.loc 1 21 23 is_stmt 0
GAS LISTING /tmp/ccnvT4sd.s 			page 5


  77 0054 13850400 		mv	a0,s1
  78 0058 97000000 		call	_ZN9Scheduler3putEP6Thread@plt
  78      E7800000 
  79              	.LVL6:
  23:src/thread.cpp ****     }
  80              		.loc 1 23 9 is_stmt 1
  23:src/thread.cpp ****     }
  81              		.loc 1 23 14 is_stmt 0
  82 0060 83B40403 		ld	s1,48(s1)
  83              	.LVL7:
  18:src/thread.cpp ****     {
  84              		.loc 1 18 5
  85 0064 6FF05FFE 		j	.L5
  86              	.L3:
  25:src/thread.cpp **** 
  87              		.loc 1 25 1
  88 0068 83308101 		ld	ra,24(sp)
  89              		.cfi_restore 1
  90 006c 03340101 		ld	s0,16(sp)
  91              		.cfi_restore 8
  92              		.cfi_def_cfa 2, 32
  93 0070 83348100 		ld	s1,8(sp)
  94              		.cfi_restore 9
  95              	.LVL8:
  96 0074 13010102 		addi	sp,sp,32
  97              		.cfi_def_cfa_offset 0
  98 0078 67800000 		jr	ra
  99              		.cfi_endproc
 100              	.LFE14:
 102              		.align	2
 103              		.globl	_ZN6Thread11setPRunningEPS_
 105              	_ZN6Thread11setPRunningEPS_:
 106              	.LFB17:
  93:src/thread.cpp ****     pRunning = p;
 107              		.loc 1 93 1 is_stmt 1
 108              		.cfi_startproc
 109              	.LVL9:
 110 007c 130101FF 		addi	sp,sp,-16
 111              		.cfi_def_cfa_offset 16
 112 0080 23348100 		sd	s0,8(sp)
 113              		.cfi_offset 8, -8
 114 0084 13040101 		addi	s0,sp,16
 115              		.cfi_def_cfa 8, 0
  94:src/thread.cpp ****     pRunningSp = &(p->sp);
 116              		.loc 1 94 5
  94:src/thread.cpp ****     pRunningSp = &(p->sp);
 117              		.loc 1 94 14 is_stmt 0
 118 0088 97070000 		lla	a5,.LANCHOR0
 118      93870700 
 119 0090 23B0A700 		sd	a0,0(a5)
  95:src/thread.cpp **** }
 120              		.loc 1 95 5 is_stmt 1
  95:src/thread.cpp **** }
 121              		.loc 1 95 18 is_stmt 0
 122 0094 13058504 		addi	a0,a0,72
 123              	.LVL10:
  95:src/thread.cpp **** }
GAS LISTING /tmp/ccnvT4sd.s 			page 6


 124              		.loc 1 95 16
 125 0098 23B4A700 		sd	a0,8(a5)
  96:src/thread.cpp **** 
 126              		.loc 1 96 1
 127 009c 03348100 		ld	s0,8(sp)
 128              		.cfi_restore 8
 129              		.cfi_def_cfa 2, 16
 130 00a0 13010101 		addi	sp,sp,16
 131              		.cfi_def_cfa_offset 0
 132 00a4 67800000 		jr	ra
 133              		.cfi_endproc
 134              	.LFE17:
 136              		.align	2
 137              		.globl	_ZN6Thread11getPRunningEv
 139              	_ZN6Thread11getPRunningEv:
 140              	.LFB19:
 118:src/thread.cpp ****     __asm__ volatile("mv x10, x10"); // to avoid inline
 141              		.loc 1 118 1 is_stmt 1
 142              		.cfi_startproc
 143 00a8 130101FF 		addi	sp,sp,-16
 144              		.cfi_def_cfa_offset 16
 145 00ac 23348100 		sd	s0,8(sp)
 146              		.cfi_offset 8, -8
 147 00b0 13040101 		addi	s0,sp,16
 148              		.cfi_def_cfa 8, 0
 119:src/thread.cpp ****     return pRunning;
 149              		.loc 1 119 5
 119:src/thread.cpp ****     return pRunning;
 150              		.loc 1 119 36 is_stmt 0
 151              	#APP
 152              	# 119 "src/thread.cpp" 1
 120:src/thread.cpp **** }
 153              		mv x10, x10
 154              	# 0 "" 2
 155              		.loc 1 120 5 is_stmt 1
 121:src/thread.cpp **** 
 156              		.loc 1 121 1 is_stmt 0
 157              	#NO_APP
 158 00b8 17050000 		ld	a0,.LANCHOR0
 158      03350500 
 159 00c0 03348100 		ld	s0,8(sp)
 160              		.cfi_restore 8
 161              		.cfi_def_cfa 2, 16
 162 00c4 13010101 		addi	sp,sp,16
 163              		.cfi_def_cfa_offset 0
 164 00c8 67800000 		jr	ra
 165              		.cfi_endproc
 166              	.LFE19:
 168              		.section	.rodata.str1.8,"aMS",@progbits,1
 169              		.align	3
 170              	.LC0:
 171 0000 3D3D3D3D 		.string	"===================== ASSERT file: "
 171      3D3D3D3D 
 171      3D3D3D3D 
 171      3D3D3D3D 
 171      3D3D3D3D 
 172 0024 00000000 		.align	3
GAS LISTING /tmp/ccnvT4sd.s 			page 7


 173              	.LC1:
 174 0028 7372632F 		.string	"src/thread.cpp"
 174      74687265 
 174      61642E63 
 174      707000
 175 0037 00       		.align	3
 176              	.LC2:
 177 0038 20202020 		.string	"    line: "
 177      6C696E65 
 177      3A2000
 178 0043 00000000 		.align	3
 178      00
 179              	.LC3:
 180 0048 2020203D 		.string	"   ==========================="
 180      3D3D3D3D 
 180      3D3D3D3D 
 180      3D3D3D3D 
 180      3D3D3D3D 
 181              		.text
 182              		.align	2
 183              		.globl	_ZN6Thread4joinEm
 185              	_ZN6Thread4joinEm:
 186              	.LFB15:
  28:src/thread.cpp ****     Thread* oldRunning = Thread::getPRunning();
 187              		.loc 1 28 1 is_stmt 1
 188              		.cfi_startproc
 189              	.LVL11:
 190 00cc 130101FE 		addi	sp,sp,-32
 191              		.cfi_def_cfa_offset 32
 192 00d0 233C1100 		sd	ra,24(sp)
 193 00d4 23388100 		sd	s0,16(sp)
 194 00d8 23349100 		sd	s1,8(sp)
 195              		.cfi_offset 1, -8
 196              		.cfi_offset 8, -16
 197              		.cfi_offset 9, -24
 198 00dc 13040102 		addi	s0,sp,32
 199              		.cfi_def_cfa 8, 0
 200 00e0 93040500 		mv	s1,a0
  29:src/thread.cpp **** 
 201              		.loc 1 29 5
  29:src/thread.cpp **** 
 202              		.loc 1 29 45 is_stmt 0
 203 00e4 97000000 		call	_ZN6Thread11getPRunningEv
 203      E7800000 
 204              	.LVL12:
  31:src/thread.cpp **** 
 205              		.loc 1 31 5 is_stmt 1
  31:src/thread.cpp **** 
 206              		.loc 1 31 13 is_stmt 0
 207 00ec 93943400 		slli	s1,s1,3
 208              	.LVL13:
 209 00f0 97070000 		lla	a5,.LANCHOR0
 209      93870700 
 210 00f8 B3849700 		add	s1,a5,s1
 211 00fc 03B70401 		ld	a4,16(s1)
 212              	.LVL14:
  33:src/thread.cpp ****     assert(oldRunning != &kernelThread); // you're only supposed to open user threads with system c
GAS LISTING /tmp/ccnvT4sd.s 			page 8


 213              		.loc 1 33 5 is_stmt 1
  34:src/thread.cpp **** 
 214              		.loc 1 34 5
 215 0100 97070000 		la	a5,kernelThread
 215      83B70700 
 216              	.LVL15:
 217              	.LBB16:
 218              	.LBB17:
 219              		.file 2 "src/../h/../h/my_console.h"
   1:src/../h/../h/my_console.h **** #pragma once
   2:src/../h/../h/my_console.h **** 
   3:src/../h/../h/my_console.h **** #include "../h/risc.h"
   4:src/../h/../h/my_console.h **** 
   5:src/../h/../h/my_console.h **** #include "../lib/hw.h"
   6:src/../h/../h/my_console.h **** 
   7:src/../h/../h/my_console.h **** #define __DEBUG_MODE
   8:src/../h/../h/my_console.h **** 
   9:src/../h/../h/my_console.h **** 
  10:src/../h/../h/my_console.h **** void putString(const char* s);
  11:src/../h/../h/my_console.h **** void putInt(int n);
  12:src/../h/../h/my_console.h **** void putNewline();
  13:src/../h/../h/my_console.h **** void putU64(uint64 n);
  14:src/../h/../h/my_console.h **** void putBinary(uint64 n);
  15:src/../h/../h/my_console.h **** 
  16:src/../h/../h/my_console.h **** [[noreturn]] void stopKernel();
  17:src/../h/../h/my_console.h **** 
  18:src/../h/../h/my_console.h **** inline void _assert(bool valid, const char* file, int line) // MUST be inline
  19:src/../h/../h/my_console.h **** {
  20:src/../h/../h/my_console.h ****     if(valid)
 220              		.loc 2 20 5
 221 0108 6306F504 		beq	a0,a5,.L17
  21:src/../h/../h/my_console.h ****         return;
 222              		.loc 2 21 9
 223              	.LVL16:
 224              	.LBE17:
 225              	.LBE16:
  38:src/thread.cpp ****         return;
 226              		.loc 1 38 5
  38:src/thread.cpp ****         return;
 227              		.loc 1 38 11 is_stmt 0
 228 010c 83470704 		lbu	a5,64(a4)
  38:src/thread.cpp ****         return;
 229              		.loc 1 38 5
 230 0110 63980702 		bnez	a5,.L11
  41:src/thread.cpp ****     {
 231              		.loc 1 41 5 is_stmt 1
 232              	.LBB19:
  41:src/thread.cpp ****     {
 233              		.loc 1 41 11 is_stmt 0
 234 0114 83378703 		ld	a5,56(a4)
  41:src/thread.cpp ****     {
 235              		.loc 1 41 5
 236 0118 638C0708 		beqz	a5,.L18
 237              	.LVL17:
 238              	.L14:
 239              	.LBB20:
  48:src/thread.cpp ****         {
GAS LISTING /tmp/ccnvT4sd.s 			page 9


 240              		.loc 1 48 9 is_stmt 1
  48:src/thread.cpp ****         {
 241              		.loc 1 48 21
 242 011c 13870700 		mv	a4,a5
 243 0120 83B70703 		ld	a5,48(a5)
 244              	.LVL18:
 245 0124 E39C07FE 		bnez	a5,.L14
  53:src/thread.cpp ****     }
 246              		.loc 1 53 9
  53:src/thread.cpp ****     }
 247              		.loc 1 53 21 is_stmt 0
 248 0128 2338A702 		sd	a0,48(a4)
 249              	.LVL19:
 250              	.L15:
 251              	.LBE20:
 252              	.LBE19:
  56:src/thread.cpp ****     oldRunning->state = SUSPENDED;
 253              		.loc 1 56 5 is_stmt 1
  56:src/thread.cpp ****     oldRunning->state = SUSPENDED;
 254              		.loc 1 56 23 is_stmt 0
 255 012c 23380502 		sd	zero,48(a0)
  57:src/thread.cpp **** 
 256              		.loc 1 57 5 is_stmt 1
  57:src/thread.cpp **** 
 257              		.loc 1 57 23 is_stmt 0
 258 0130 93071000 		li	a5,1
 259 0134 2320F500 		sw	a5,0(a0)
  59:src/thread.cpp **** }
 260              		.loc 1 59 5 is_stmt 1
  59:src/thread.cpp **** }
 261              		.loc 1 59 30 is_stmt 0
 262 0138 97000000 		call	_ZN9Scheduler14dispatchToNextEv@plt
 262      E7800000 
 263              	.LVL20:
 264              	.L11:
  60:src/thread.cpp **** 
 265              		.loc 1 60 1
 266 0140 83308101 		ld	ra,24(sp)
 267              		.cfi_remember_state
 268              		.cfi_restore 1
 269 0144 03340101 		ld	s0,16(sp)
 270              		.cfi_restore 8
 271              		.cfi_def_cfa 2, 32
 272 0148 83348100 		ld	s1,8(sp)
 273              		.cfi_restore 9
 274 014c 13010102 		addi	sp,sp,32
 275              		.cfi_def_cfa_offset 0
 276 0150 67800000 		jr	ra
 277              	.LVL21:
 278              	.L17:
 279              		.cfi_restore_state
 280              	.LBB21:
 281              	.LBB18:
  22:src/../h/../h/my_console.h **** 
  23:src/../h/../h/my_console.h ****     putString("===================== ASSERT file: ");
 282              		.loc 2 23 5 is_stmt 1
 283              		.loc 2 23 14 is_stmt 0
GAS LISTING /tmp/ccnvT4sd.s 			page 10


 284 0154 17050000 		lla	a0,.LC0
 284      13050500 
 285              	.LVL22:
 286 015c 97000000 		call	_Z9putStringPKc@plt
 286      E7800000 
 287              	.LVL23:
  24:src/../h/../h/my_console.h ****     putString(file);
 288              		.loc 2 24 5 is_stmt 1
 289              		.loc 2 24 14 is_stmt 0
 290 0164 17050000 		lla	a0,.LC1
 290      13050500 
 291 016c 97000000 		call	_Z9putStringPKc@plt
 291      E7800000 
 292              	.LVL24:
  25:src/../h/../h/my_console.h ****     putString("    line: ");
 293              		.loc 2 25 5 is_stmt 1
 294              		.loc 2 25 14 is_stmt 0
 295 0174 17050000 		lla	a0,.LC2
 295      13050500 
 296 017c 97000000 		call	_Z9putStringPKc@plt
 296      E7800000 
 297              	.LVL25:
  26:src/../h/../h/my_console.h ****     putInt(line);
 298              		.loc 2 26 5 is_stmt 1
 299              		.loc 2 26 11 is_stmt 0
 300 0184 13052002 		li	a0,34
 301 0188 97000000 		call	_Z6putInti@plt
 301      E7800000 
 302              	.LVL26:
  27:src/../h/../h/my_console.h ****     putString("   ===========================");
 303              		.loc 2 27 5 is_stmt 1
 304              		.loc 2 27 14 is_stmt 0
 305 0190 17050000 		lla	a0,.LC3
 305      13050500 
 306 0198 97000000 		call	_Z9putStringPKc@plt
 306      E7800000 
 307              	.LVL27:
  28:src/../h/../h/my_console.h ****     putNewline();
 308              		.loc 2 28 5 is_stmt 1
 309              		.loc 2 28 15 is_stmt 0
 310 01a0 97000000 		call	_Z10putNewlinev@plt
 310      E7800000 
 311              	.LVL28:
  29:src/../h/../h/my_console.h **** 
  30:src/../h/../h/my_console.h ****     stopKernel();
 312              		.loc 2 30 5 is_stmt 1
 313              		.loc 2 30 15 is_stmt 0
 314 01a8 97000000 		call	_Z10stopKernelv@plt
 314      E7800000 
 315              	.LVL29:
 316              	.L18:
 317              	.LBE18:
 318              	.LBE21:
 319              	.LBB22:
  43:src/thread.cpp ****     }
 320              		.loc 1 43 9 is_stmt 1
  43:src/thread.cpp ****     }
GAS LISTING /tmp/ccnvT4sd.s 			page 11


 321              		.loc 1 43 25 is_stmt 0
 322 01b0 233CA702 		sd	a0,56(a4)
 323 01b4 6FF09FF7 		j	.L15
 324              	.LBE22:
 325              		.cfi_endproc
 326              	.LFE15:
 328              		.align	2
 329              		.globl	_ZN6Thread12switchToUserEv
 331              	_ZN6Thread12switchToUserEv:
 332              	.LFB16:
  63:src/thread.cpp ****     uint64 scause;
 333              		.loc 1 63 1 is_stmt 1
 334              		.cfi_startproc
 335 01b8 130101FF 		addi	sp,sp,-16
 336              		.cfi_def_cfa_offset 16
 337 01bc 23341100 		sd	ra,8(sp)
 338 01c0 23308100 		sd	s0,0(sp)
 339              		.cfi_offset 1, -8
 340              		.cfi_offset 8, -16
 341 01c4 13040101 		addi	s0,sp,16
 342              		.cfi_def_cfa 8, 0
  64:src/thread.cpp ****     __asm__ volatile ("csrr %[name], scause" : [name] "=r"(scause));
 343              		.loc 1 64 5
  65:src/thread.cpp ****     bool cameFromKernelMode = ((scause & (1 << 8)) == 0);
 344              		.loc 1 65 5
  65:src/thread.cpp ****     bool cameFromKernelMode = ((scause & (1 << 8)) == 0);
 345              		.loc 1 65 68 is_stmt 0
 346              	#APP
 347              	# 65 "src/thread.cpp" 1
 348              		csrr a5, scause
 349              	# 0 "" 2
 350              	.LVL30:
  66:src/thread.cpp **** 
 351              		.loc 1 66 5 is_stmt 1
  66:src/thread.cpp **** 
 352              		.loc 1 66 40 is_stmt 0
 353              	#NO_APP
 354 01cc 93F70710 		andi	a5,a5,256
 355              	.LVL31:
  68:src/thread.cpp ****     {
 356              		.loc 1 68 5 is_stmt 1
 357 01d0 63900704 		bnez	a5,.L24
  75:src/thread.cpp **** 
 358              		.loc 1 75 5
 359 01d4 97070000 		ld	a5,.LANCHOR0
 359      83B70700 
 360              	.LVL32:
 361 01dc 83B78702 		ld	a5,40(a5)
 362              	.LVL33:
 363              	.LBB31:
 364              	.LBB32:
  20:src/../h/../h/my_console.h ****         return;
 365              		.loc 2 20 5
 366 01e0 63960708 		bnez	a5,.L25
  21:src/../h/../h/my_console.h **** 
 367              		.loc 2 21 9
 368              	.LVL34:
GAS LISTING /tmp/ccnvT4sd.s 			page 12


 369              	.LBE32:
 370              	.LBE31:
  77:src/thread.cpp **** 
 371              		.loc 1 77 5
  77:src/thread.cpp **** 
 372              		.loc 1 77 30 is_stmt 0
 373 01e4 97000000 		call	_ZN9Scheduler14dispatchToNextEv@plt
 373      E7800000 
 374              	.LVL35:
  79:src/thread.cpp **** 
 375              		.loc 1 79 5 is_stmt 1
 376 01ec 97000000 		call	_ZN6Thread11getPRunningEv
 376      E7800000 
 377              	.LVL36:
 378 01f4 83378502 		ld	a5,40(a0)
 379 01f8 9387F7FF 		addi	a5,a5,-1
 380              	.LVL37:
 381              	.LBB34:
 382              	.LBB35:
  20:src/../h/../h/my_console.h ****         return;
 383              		.loc 2 20 5
 384 01fc 6396070C 		bnez	a5,.L26
 385              	.LBE35:
 386              	.LBE34:
  90:src/thread.cpp **** 
 387              		.loc 1 90 1 is_stmt 0
 388 0200 83308100 		ld	ra,8(sp)
 389              		.cfi_remember_state
 390              		.cfi_restore 1
 391 0204 03340100 		ld	s0,0(sp)
 392              		.cfi_restore 8
 393              		.cfi_def_cfa 2, 16
 394 0208 13010101 		addi	sp,sp,16
 395              		.cfi_def_cfa_offset 0
 396 020c 67800000 		jr	ra
 397              	.LVL38:
 398              	.L24:
 399              		.cfi_restore_state
  70:src/thread.cpp ****         assert(Thread::pRunning->id != 0);
 400              		.loc 1 70 9 is_stmt 1
 401              	.LBB37:
 402              	.LBB38:
  20:src/../h/../h/my_console.h ****         return;
 403              		.loc 2 20 5
  23:src/../h/../h/my_console.h ****     putString(file);
 404              		.loc 2 23 5
  23:src/../h/../h/my_console.h ****     putString(file);
 405              		.loc 2 23 14 is_stmt 0
 406 0210 17050000 		lla	a0,.LC0
 406      13050500 
 407 0218 97000000 		call	_Z9putStringPKc@plt
 407      E7800000 
 408              	.LVL39:
  24:src/../h/../h/my_console.h ****     putString("    line: ");
 409              		.loc 2 24 5 is_stmt 1
  24:src/../h/../h/my_console.h ****     putString("    line: ");
 410              		.loc 2 24 14 is_stmt 0
GAS LISTING /tmp/ccnvT4sd.s 			page 13


 411 0220 17050000 		lla	a0,.LC1
 411      13050500 
 412 0228 97000000 		call	_Z9putStringPKc@plt
 412      E7800000 
 413              	.LVL40:
  25:src/../h/../h/my_console.h ****     putInt(line);
 414              		.loc 2 25 5 is_stmt 1
  25:src/../h/../h/my_console.h ****     putInt(line);
 415              		.loc 2 25 14 is_stmt 0
 416 0230 17050000 		lla	a0,.LC2
 416      13050500 
 417 0238 97000000 		call	_Z9putStringPKc@plt
 417      E7800000 
 418              	.LVL41:
  26:src/../h/../h/my_console.h ****     putString("   ===========================");
 419              		.loc 2 26 5 is_stmt 1
  26:src/../h/../h/my_console.h ****     putString("   ===========================");
 420              		.loc 2 26 11 is_stmt 0
 421 0240 13056004 		li	a0,70
 422 0244 97000000 		call	_Z6putInti@plt
 422      E7800000 
 423              	.LVL42:
  27:src/../h/../h/my_console.h ****     putNewline();
 424              		.loc 2 27 5 is_stmt 1
  27:src/../h/../h/my_console.h ****     putNewline();
 425              		.loc 2 27 14 is_stmt 0
 426 024c 17050000 		lla	a0,.LC3
 426      13050500 
 427 0254 97000000 		call	_Z9putStringPKc@plt
 427      E7800000 
 428              	.LVL43:
  28:src/../h/../h/my_console.h **** 
 429              		.loc 2 28 5 is_stmt 1
  28:src/../h/../h/my_console.h **** 
 430              		.loc 2 28 15 is_stmt 0
 431 025c 97000000 		call	_Z10putNewlinev@plt
 431      E7800000 
 432              	.LVL44:
 433              		.loc 2 30 5 is_stmt 1
 434              		.loc 2 30 15 is_stmt 0
 435 0264 97000000 		call	_Z10stopKernelv@plt
 435      E7800000 
 436              	.LVL45:
 437              	.L25:
 438              	.LBE38:
 439              	.LBE37:
 440              	.LBB39:
 441              	.LBB33:
  23:src/../h/../h/my_console.h ****     putString(file);
 442              		.loc 2 23 5 is_stmt 1
  23:src/../h/../h/my_console.h ****     putString(file);
 443              		.loc 2 23 14 is_stmt 0
 444 026c 17050000 		lla	a0,.LC0
 444      13050500 
 445 0274 97000000 		call	_Z9putStringPKc@plt
 445      E7800000 
 446              	.LVL46:
GAS LISTING /tmp/ccnvT4sd.s 			page 14


  24:src/../h/../h/my_console.h ****     putString("    line: ");
 447              		.loc 2 24 5 is_stmt 1
  24:src/../h/../h/my_console.h ****     putString("    line: ");
 448              		.loc 2 24 14 is_stmt 0
 449 027c 17050000 		lla	a0,.LC1
 449      13050500 
 450 0284 97000000 		call	_Z9putStringPKc@plt
 450      E7800000 
 451              	.LVL47:
  25:src/../h/../h/my_console.h ****     putInt(line);
 452              		.loc 2 25 5 is_stmt 1
  25:src/../h/../h/my_console.h ****     putInt(line);
 453              		.loc 2 25 14 is_stmt 0
 454 028c 17050000 		lla	a0,.LC2
 454      13050500 
 455 0294 97000000 		call	_Z9putStringPKc@plt
 455      E7800000 
 456              	.LVL48:
  26:src/../h/../h/my_console.h ****     putString("   ===========================");
 457              		.loc 2 26 5 is_stmt 1
  26:src/../h/../h/my_console.h ****     putString("   ===========================");
 458              		.loc 2 26 11 is_stmt 0
 459 029c 1305B004 		li	a0,75
 460 02a0 97000000 		call	_Z6putInti@plt
 460      E7800000 
 461              	.LVL49:
  27:src/../h/../h/my_console.h ****     putNewline();
 462              		.loc 2 27 5 is_stmt 1
  27:src/../h/../h/my_console.h ****     putNewline();
 463              		.loc 2 27 14 is_stmt 0
 464 02a8 17050000 		lla	a0,.LC3
 464      13050500 
 465 02b0 97000000 		call	_Z9putStringPKc@plt
 465      E7800000 
 466              	.LVL50:
  28:src/../h/../h/my_console.h **** 
 467              		.loc 2 28 5 is_stmt 1
  28:src/../h/../h/my_console.h **** 
 468              		.loc 2 28 15 is_stmt 0
 469 02b8 97000000 		call	_Z10putNewlinev@plt
 469      E7800000 
 470              	.LVL51:
 471              		.loc 2 30 5 is_stmt 1
 472              		.loc 2 30 15 is_stmt 0
 473 02c0 97000000 		call	_Z10stopKernelv@plt
 473      E7800000 
 474              	.LVL52:
 475              	.L26:
 476              	.LBE33:
 477              	.LBE39:
 478              	.LBB40:
 479              	.LBB36:
  23:src/../h/../h/my_console.h ****     putString(file);
 480              		.loc 2 23 5 is_stmt 1
  23:src/../h/../h/my_console.h ****     putString(file);
 481              		.loc 2 23 14 is_stmt 0
 482 02c8 17050000 		lla	a0,.LC0
GAS LISTING /tmp/ccnvT4sd.s 			page 15


 482      13050500 
 483 02d0 97000000 		call	_Z9putStringPKc@plt
 483      E7800000 
 484              	.LVL53:
  24:src/../h/../h/my_console.h ****     putString("    line: ");
 485              		.loc 2 24 5 is_stmt 1
  24:src/../h/../h/my_console.h ****     putString("    line: ");
 486              		.loc 2 24 14 is_stmt 0
 487 02d8 17050000 		lla	a0,.LC1
 487      13050500 
 488 02e0 97000000 		call	_Z9putStringPKc@plt
 488      E7800000 
 489              	.LVL54:
  25:src/../h/../h/my_console.h ****     putInt(line);
 490              		.loc 2 25 5 is_stmt 1
  25:src/../h/../h/my_console.h ****     putInt(line);
 491              		.loc 2 25 14 is_stmt 0
 492 02e8 17050000 		lla	a0,.LC2
 492      13050500 
 493 02f0 97000000 		call	_Z9putStringPKc@plt
 493      E7800000 
 494              	.LVL55:
  26:src/../h/../h/my_console.h ****     putString("   ===========================");
 495              		.loc 2 26 5 is_stmt 1
  26:src/../h/../h/my_console.h ****     putString("   ===========================");
 496              		.loc 2 26 11 is_stmt 0
 497 02f8 1305F004 		li	a0,79
 498 02fc 97000000 		call	_Z6putInti@plt
 498      E7800000 
 499              	.LVL56:
  27:src/../h/../h/my_console.h ****     putNewline();
 500              		.loc 2 27 5 is_stmt 1
  27:src/../h/../h/my_console.h ****     putNewline();
 501              		.loc 2 27 14 is_stmt 0
 502 0304 17050000 		lla	a0,.LC3
 502      13050500 
 503 030c 97000000 		call	_Z9putStringPKc@plt
 503      E7800000 
 504              	.LVL57:
  28:src/../h/../h/my_console.h **** 
 505              		.loc 2 28 5 is_stmt 1
  28:src/../h/../h/my_console.h **** 
 506              		.loc 2 28 15 is_stmt 0
 507 0314 97000000 		call	_Z10putNewlinev@plt
 507      E7800000 
 508              	.LVL58:
 509              		.loc 2 30 5 is_stmt 1
 510              		.loc 2 30 15 is_stmt 0
 511 031c 97000000 		call	_Z10stopKernelv@plt
 511      E7800000 
 512              	.LVL59:
 513              	.LBE36:
 514              	.LBE40:
 515              		.cfi_endproc
 516              	.LFE16:
 518              		.align	2
 519              		.globl	_ZN6Thread10allocStackEv
GAS LISTING /tmp/ccnvT4sd.s 			page 16


 521              	_ZN6Thread10allocStackEv:
 522              	.LFB20:
 124:src/thread.cpp ****     assert(pStackStart == nullptr); // error: this threads stack may have already been allocated
 523              		.loc 1 124 1 is_stmt 1
 524              		.cfi_startproc
 525              	.LVL60:
 526 0324 130101FE 		addi	sp,sp,-32
 527              		.cfi_def_cfa_offset 32
 528 0328 233C1100 		sd	ra,24(sp)
 529 032c 23388100 		sd	s0,16(sp)
 530 0330 23349100 		sd	s1,8(sp)
 531 0334 23302101 		sd	s2,0(sp)
 532              		.cfi_offset 1, -8
 533              		.cfi_offset 8, -16
 534              		.cfi_offset 9, -24
 535              		.cfi_offset 18, -32
 536 0338 13040102 		addi	s0,sp,32
 537              		.cfi_def_cfa 8, 0
 125:src/thread.cpp **** 
 538              		.loc 1 125 5
 539 033c 83378501 		ld	a5,24(a0)
 540              	.LVL61:
 541              	.LBB43:
 542              	.LBB44:
  20:src/../h/../h/my_console.h ****         return;
 543              		.loc 2 20 5
 544 0340 639A0704 		bnez	a5,.L31
 545 0344 13090500 		mv	s2,a0
  21:src/../h/../h/my_console.h **** 
 546              		.loc 2 21 9
 547              	.LVL62:
 548              	.LBE44:
 549              	.LBE43:
 127:src/thread.cpp ****     uint64 stack =  (uint64)pStackStart + ACTUAL_STACK_SIZE;
 550              		.loc 1 127 5
 127:src/thread.cpp ****     uint64 stack =  (uint64)pStackStart + ACTUAL_STACK_SIZE;
 551              		.loc 1 127 44 is_stmt 0
 552 0348 97000000 		call	_ZN8MemAlloc3getEv@plt
 552      E7800000 
 553              	.LVL63:
 554 0350 B7B40000 		li	s1,45056
 555 0354 938504AA 		addi	a1,s1,-1376
 556 0358 97000000 		call	_ZN8MemAlloc8allocMemEm@plt
 556      E7800000 
 557              	.LVL64:
 127:src/thread.cpp ****     uint64 stack =  (uint64)pStackStart + ACTUAL_STACK_SIZE;
 558              		.loc 1 127 17
 559 0360 233CA900 		sd	a0,24(s2)
 128:src/thread.cpp **** 
 560              		.loc 1 128 5 is_stmt 1
 128:src/thread.cpp **** 
 561              		.loc 1 128 12 is_stmt 0
 562 0364 938404AA 		addi	s1,s1,-1376
 563 0368 B3049500 		add	s1,a0,s1
 564              	.LVL65:
 130:src/thread.cpp ****     {
 565              		.loc 1 130 5 is_stmt 1
GAS LISTING /tmp/ccnvT4sd.s 			page 17


 130:src/thread.cpp ****     {
 566              		.loc 1 130 14 is_stmt 0
 567 036c 1375F500 		andi	a0,a0,15
 130:src/thread.cpp ****     {
 568              		.loc 1 130 5
 569 0370 63040500 		beqz	a0,.L29
 132:src/thread.cpp ****     }
 570              		.loc 1 132 9 is_stmt 1
 132:src/thread.cpp ****     }
 571              		.loc 1 132 15 is_stmt 0
 572 0374 93F404FF 		andi	s1,s1,-16
 573              	.LVL66:
 574              	.L29:
 135:src/thread.cpp **** 
 575              		.loc 1 135 5 is_stmt 1
 137:src/thread.cpp **** 
 576              		.loc 1 137 5
 139:src/thread.cpp **** 
 577              		.loc 1 139 1 is_stmt 0
 578 0378 138504EF 		addi	a0,s1,-272
 579              	.LVL67:
 580 037c 83308101 		ld	ra,24(sp)
 581              		.cfi_remember_state
 582              		.cfi_restore 1
 583 0380 03340101 		ld	s0,16(sp)
 584              		.cfi_restore 8
 585              		.cfi_def_cfa 2, 32
 586 0384 83348100 		ld	s1,8(sp)
 587              		.cfi_restore 9
 588 0388 03390100 		ld	s2,0(sp)
 589              		.cfi_restore 18
 590              	.LVL68:
 591 038c 13010102 		addi	sp,sp,32
 592              		.cfi_def_cfa_offset 0
 593 0390 67800000 		jr	ra
 594              	.LVL69:
 595              	.L31:
 596              		.cfi_restore_state
 597              	.LBB46:
 598              	.LBB45:
  23:src/../h/../h/my_console.h ****     putString(file);
 599              		.loc 2 23 5 is_stmt 1
  23:src/../h/../h/my_console.h ****     putString(file);
 600              		.loc 2 23 14 is_stmt 0
 601 0394 17050000 		lla	a0,.LC0
 601      13050500 
 602              	.LVL70:
 603 039c 97000000 		call	_Z9putStringPKc@plt
 603      E7800000 
 604              	.LVL71:
  24:src/../h/../h/my_console.h ****     putString("    line: ");
 605              		.loc 2 24 5 is_stmt 1
  24:src/../h/../h/my_console.h ****     putString("    line: ");
 606              		.loc 2 24 14 is_stmt 0
 607 03a4 17050000 		lla	a0,.LC1
 607      13050500 
 608 03ac 97000000 		call	_Z9putStringPKc@plt
GAS LISTING /tmp/ccnvT4sd.s 			page 18


 608      E7800000 
 609              	.LVL72:
  25:src/../h/../h/my_console.h ****     putInt(line);
 610              		.loc 2 25 5 is_stmt 1
  25:src/../h/../h/my_console.h ****     putInt(line);
 611              		.loc 2 25 14 is_stmt 0
 612 03b4 17050000 		lla	a0,.LC2
 612      13050500 
 613 03bc 97000000 		call	_Z9putStringPKc@plt
 613      E7800000 
 614              	.LVL73:
  26:src/../h/../h/my_console.h ****     putString("   ===========================");
 615              		.loc 2 26 5 is_stmt 1
  26:src/../h/../h/my_console.h ****     putString("   ===========================");
 616              		.loc 2 26 11 is_stmt 0
 617 03c4 1305D007 		li	a0,125
 618 03c8 97000000 		call	_Z6putInti@plt
 618      E7800000 
 619              	.LVL74:
  27:src/../h/../h/my_console.h ****     putNewline();
 620              		.loc 2 27 5 is_stmt 1
  27:src/../h/../h/my_console.h ****     putNewline();
 621              		.loc 2 27 14 is_stmt 0
 622 03d0 17050000 		lla	a0,.LC3
 622      13050500 
 623 03d8 97000000 		call	_Z9putStringPKc@plt
 623      E7800000 
 624              	.LVL75:
  28:src/../h/../h/my_console.h **** 
 625              		.loc 2 28 5 is_stmt 1
  28:src/../h/../h/my_console.h **** 
 626              		.loc 2 28 15 is_stmt 0
 627 03e0 97000000 		call	_Z10putNewlinev@plt
 627      E7800000 
 628              	.LVL76:
 629              		.loc 2 30 5 is_stmt 1
 630              		.loc 2 30 15 is_stmt 0
 631 03e8 97000000 		call	_Z10stopKernelv@plt
 631      E7800000 
 632              	.LVL77:
 633              	.LBE45:
 634              	.LBE46:
 635              		.cfi_endproc
 636              	.LFE20:
 638              		.align	2
 639              		.globl	_ZN6Thread4initEPFvPvES0_S0_
 641              	_ZN6Thread4initEPFvPvES0_S0_:
 642              	.LFB22:
 146:src/thread.cpp **** 
 147:src/thread.cpp **** void Thread::init(Body body, void* arg, void* pLogicalStack) // this is used as a "constructor", ex
 148:src/thread.cpp **** {
 643              		.loc 1 148 1 is_stmt 1
 644              		.cfi_startproc
 645              	.LVL78:
 646 03f0 130101FF 		addi	sp,sp,-16
 647              		.cfi_def_cfa_offset 16
 648 03f4 23341100 		sd	ra,8(sp)
GAS LISTING /tmp/ccnvT4sd.s 			page 19


 649 03f8 23308100 		sd	s0,0(sp)
 650              		.cfi_offset 1, -8
 651              		.cfi_offset 8, -16
 652 03fc 13040101 		addi	s0,sp,16
 653              		.cfi_def_cfa 8, 0
 149:src/thread.cpp ****     assert(nrTotalThreads < MAX_NR_TOTAL_THREADS);
 654              		.loc 1 149 5
 655 0400 97070000 		ld	a5,.LANCHOR1
 655      83B70700 
 656 0408 93B74706 		sltiu	a5,a5,100
 657              	.LVL79:
 658              	.LBB52:
 659              	.LBB53:
  20:src/../h/../h/my_console.h ****         return;
 660              		.loc 2 20 5
 661 040c 638E0704 		beqz	a5,.L38
  21:src/../h/../h/my_console.h **** 
 662              		.loc 2 21 9
 663              	.LVL80:
 664              	.LBE53:
 665              	.LBE52:
 150:src/thread.cpp ****     id = nrTotalThreads;
 666              		.loc 1 150 5
 667              		.loc 1 150 8 is_stmt 0
 668 0410 17070000 		lla	a4,.LANCHOR1
 668      13070700 
 669 0418 83370700 		ld	a5,0(a4)
 670 041c 2334F502 		sd	a5,40(a0)
 151:src/thread.cpp ****     nrTotalThreads++;
 671              		.loc 1 151 5 is_stmt 1
 672              		.loc 1 151 19 is_stmt 0
 673 0420 93871700 		addi	a5,a5,1
 674 0424 2330F700 		sd	a5,0(a4)
 152:src/thread.cpp **** 
 153:src/thread.cpp ****     assert((uint64)pLogicalStack % 16 == 0);
 675              		.loc 1 153 5 is_stmt 1
 676 0428 93F7F600 		andi	a5,a3,15
 677              	.LVL81:
 678              	.LBB55:
 679              	.LBB56:
  20:src/../h/../h/my_console.h ****         return;
 680              		.loc 2 20 5
 681 042c 639C0708 		bnez	a5,.L39
  21:src/../h/../h/my_console.h **** 
 682              		.loc 2 21 9
 683              	.LVL82:
 684              	.LBE56:
 685              	.LBE55:
 154:src/thread.cpp **** 
 155:src/thread.cpp ****     state = INITIALIZING;
 686              		.loc 1 155 5
 156:src/thread.cpp ****     timeSlice = DEFAULT_TIME_SLICE;
 687              		.loc 1 156 5
 688              		.loc 1 156 15 is_stmt 0
 689 0430 93072000 		li	a5,2
 690 0434 2330F502 		sd	a5,32(a0)
 157:src/thread.cpp ****     pNext = nullptr;
GAS LISTING /tmp/ccnvT4sd.s 			page 20


 691              		.loc 1 157 5 is_stmt 1
 692              		.loc 1 157 11 is_stmt 0
 693 0438 23380502 		sd	zero,48(a0)
 158:src/thread.cpp ****     pWaitingHead = nullptr;
 694              		.loc 1 158 5 is_stmt 1
 695              		.loc 1 158 18 is_stmt 0
 696 043c 233C0502 		sd	zero,56(a0)
 159:src/thread.cpp ****     done = false;
 697              		.loc 1 159 5 is_stmt 1
 698              		.loc 1 159 10 is_stmt 0
 699 0440 23000504 		sb	zero,64(a0)
 160:src/thread.cpp **** 
 161:src/thread.cpp ****     // sets context
 162:src/thread.cpp ****     sp = (uint64*)pLogicalStack; // sp field
 700              		.loc 1 162 5 is_stmt 1
 701              		.loc 1 162 8 is_stmt 0
 702 0444 2334D504 		sd	a3,72(a0)
 163:src/thread.cpp **** 
 164:src/thread.cpp ****     // skipping a0 to pass arguments as it is will be not be restored in the context switch because
 165:src/thread.cpp **** 
 166:src/thread.cpp ****     for(int i=0; i<32; i++)
 703              		.loc 1 166 5 is_stmt 1
 704              	.LVL83:
 705              	.LBB58:
 706              		.loc 1 166 13 is_stmt 0
 707 0448 93070000 		li	a5,0
 708              	.LVL84:
 709              	.L36:
 710              		.loc 1 166 19 is_stmt 1 discriminator 3
 711 044c 1307F001 		li	a4,31
 712 0450 6348F70C 		bgt	a5,a4,.L35
 167:src/thread.cpp ****     {
 168:src/thread.cpp ****         *((uint64*)pLogicalStack + i) = i;
 713              		.loc 1 168 9 discriminator 2
 714              		.loc 1 168 34 is_stmt 0 discriminator 2
 715 0454 13973700 		slli	a4,a5,3
 716 0458 3387E600 		add	a4,a3,a4
 717              		.loc 1 168 39 discriminator 2
 718 045c 2330F700 		sd	a5,0(a4)
 166:src/thread.cpp ****     {
 719              		.loc 1 166 5 is_stmt 1 discriminator 2
 720 0460 9B871700 		addiw	a5,a5,1
 721              	.LVL85:
 722 0464 6FF09FFE 		j	.L36
 723              	.LVL86:
 724              	.L38:
 725              	.LBE58:
 726              	.LBB59:
 727              	.LBB54:
  23:src/../h/../h/my_console.h ****     putString(file);
 728              		.loc 2 23 5
  23:src/../h/../h/my_console.h ****     putString(file);
 729              		.loc 2 23 14 is_stmt 0
 730 0468 17050000 		lla	a0,.LC0
 730      13050500 
 731              	.LVL87:
 732 0470 97000000 		call	_Z9putStringPKc@plt
GAS LISTING /tmp/ccnvT4sd.s 			page 21


 732      E7800000 
 733              	.LVL88:
  24:src/../h/../h/my_console.h ****     putString("    line: ");
 734              		.loc 2 24 5 is_stmt 1
  24:src/../h/../h/my_console.h ****     putString("    line: ");
 735              		.loc 2 24 14 is_stmt 0
 736 0478 17050000 		lla	a0,.LC1
 736      13050500 
 737 0480 97000000 		call	_Z9putStringPKc@plt
 737      E7800000 
 738              	.LVL89:
  25:src/../h/../h/my_console.h ****     putInt(line);
 739              		.loc 2 25 5 is_stmt 1
  25:src/../h/../h/my_console.h ****     putInt(line);
 740              		.loc 2 25 14 is_stmt 0
 741 0488 17050000 		lla	a0,.LC2
 741      13050500 
 742 0490 97000000 		call	_Z9putStringPKc@plt
 742      E7800000 
 743              	.LVL90:
  26:src/../h/../h/my_console.h ****     putString("   ===========================");
 744              		.loc 2 26 5 is_stmt 1
  26:src/../h/../h/my_console.h ****     putString("   ===========================");
 745              		.loc 2 26 11 is_stmt 0
 746 0498 13055009 		li	a0,149
 747 049c 97000000 		call	_Z6putInti@plt
 747      E7800000 
 748              	.LVL91:
  27:src/../h/../h/my_console.h ****     putNewline();
 749              		.loc 2 27 5 is_stmt 1
  27:src/../h/../h/my_console.h ****     putNewline();
 750              		.loc 2 27 14 is_stmt 0
 751 04a4 17050000 		lla	a0,.LC3
 751      13050500 
 752 04ac 97000000 		call	_Z9putStringPKc@plt
 752      E7800000 
 753              	.LVL92:
  28:src/../h/../h/my_console.h **** 
 754              		.loc 2 28 5 is_stmt 1
  28:src/../h/../h/my_console.h **** 
 755              		.loc 2 28 15 is_stmt 0
 756 04b4 97000000 		call	_Z10putNewlinev@plt
 756      E7800000 
 757              	.LVL93:
 758              		.loc 2 30 5 is_stmt 1
 759              		.loc 2 30 15 is_stmt 0
 760 04bc 97000000 		call	_Z10stopKernelv@plt
 760      E7800000 
 761              	.LVL94:
 762              	.L39:
 763              	.LBE54:
 764              	.LBE59:
 765              	.LBB60:
 766              	.LBB57:
  23:src/../h/../h/my_console.h ****     putString(file);
 767              		.loc 2 23 5 is_stmt 1
  23:src/../h/../h/my_console.h ****     putString(file);
GAS LISTING /tmp/ccnvT4sd.s 			page 22


 768              		.loc 2 23 14 is_stmt 0
 769 04c4 17050000 		lla	a0,.LC0
 769      13050500 
 770              	.LVL95:
 771 04cc 97000000 		call	_Z9putStringPKc@plt
 771      E7800000 
 772              	.LVL96:
  24:src/../h/../h/my_console.h ****     putString("    line: ");
 773              		.loc 2 24 5 is_stmt 1
  24:src/../h/../h/my_console.h ****     putString("    line: ");
 774              		.loc 2 24 14 is_stmt 0
 775 04d4 17050000 		lla	a0,.LC1
 775      13050500 
 776 04dc 97000000 		call	_Z9putStringPKc@plt
 776      E7800000 
 777              	.LVL97:
  25:src/../h/../h/my_console.h ****     putInt(line);
 778              		.loc 2 25 5 is_stmt 1
  25:src/../h/../h/my_console.h ****     putInt(line);
 779              		.loc 2 25 14 is_stmt 0
 780 04e4 17050000 		lla	a0,.LC2
 780      13050500 
 781 04ec 97000000 		call	_Z9putStringPKc@plt
 781      E7800000 
 782              	.LVL98:
  26:src/../h/../h/my_console.h ****     putString("   ===========================");
 783              		.loc 2 26 5 is_stmt 1
  26:src/../h/../h/my_console.h ****     putString("   ===========================");
 784              		.loc 2 26 11 is_stmt 0
 785 04f4 13059009 		li	a0,153
 786 04f8 97000000 		call	_Z6putInti@plt
 786      E7800000 
 787              	.LVL99:
  27:src/../h/../h/my_console.h ****     putNewline();
 788              		.loc 2 27 5 is_stmt 1
  27:src/../h/../h/my_console.h ****     putNewline();
 789              		.loc 2 27 14 is_stmt 0
 790 0500 17050000 		lla	a0,.LC3
 790      13050500 
 791 0508 97000000 		call	_Z9putStringPKc@plt
 791      E7800000 
 792              	.LVL100:
  28:src/../h/../h/my_console.h **** 
 793              		.loc 2 28 5 is_stmt 1
  28:src/../h/../h/my_console.h **** 
 794              		.loc 2 28 15 is_stmt 0
 795 0510 97000000 		call	_Z10putNewlinev@plt
 795      E7800000 
 796              	.LVL101:
 797              		.loc 2 30 5 is_stmt 1
 798              		.loc 2 30 15 is_stmt 0
 799 0518 97000000 		call	_Z10stopKernelv@plt
 799      E7800000 
 800              	.LVL102:
 801              	.L35:
 802              	.LBE57:
 803              	.LBE60:
GAS LISTING /tmp/ccnvT4sd.s 			page 23


 169:src/thread.cpp ****     }
 170:src/thread.cpp **** 
 171:src/thread.cpp ****     *((uint64*)pLogicalStack + 11) = (uint64)body;
 804              		.loc 1 171 5 is_stmt 1
 805              		.loc 1 171 36 is_stmt 0
 806 0520 23BCB604 		sd	a1,88(a3)
 172:src/thread.cpp ****     *((uint64*)pLogicalStack + 12) = (uint64)arg;
 807              		.loc 1 172 5 is_stmt 1
 808              		.loc 1 172 36 is_stmt 0
 809 0524 23B0C606 		sd	a2,96(a3)
 173:src/thread.cpp ****     *((uint64*)pLogicalStack + 32) = (uint64)&wrapper;
 810              		.loc 1 173 5 is_stmt 1
 811              		.loc 1 173 36 is_stmt 0
 812 0528 97070000 		lla	a5,_Z7wrappermPFvPvES_
 812      93870700 
 813              	.LVL103:
 814 0530 23B0F610 		sd	a5,256(a3)
 174:src/thread.cpp **** 
 175:src/thread.cpp ****     state = READY;
 815              		.loc 1 175 5 is_stmt 1
 816              		.loc 1 175 11 is_stmt 0
 817 0534 93072000 		li	a5,2
 818 0538 2320F500 		sw	a5,0(a0)
 176:src/thread.cpp **** }
 819              		.loc 1 176 1
 820 053c 83308100 		ld	ra,8(sp)
 821              		.cfi_restore 1
 822 0540 03340100 		ld	s0,0(sp)
 823              		.cfi_restore 8
 824              		.cfi_def_cfa 2, 16
 825 0544 13010101 		addi	sp,sp,16
 826              		.cfi_def_cfa_offset 0
 827 0548 67800000 		jr	ra
 828              		.cfi_endproc
 829              	.LFE22:
 831              		.align	2
 832              		.globl	_ZN6Thread12createThreadEPmPFvPvES1_
 834              	_ZN6Thread12createThreadEPmPFvPvES1_:
 835              	.LFB18:
  99:src/thread.cpp ****     assert(nrTotalThreads < MAX_NR_TOTAL_THREADS);
 836              		.loc 1 99 1 is_stmt 1
 837              		.cfi_startproc
 838              	.LVL104:
 839 054c 130101FD 		addi	sp,sp,-48
 840              		.cfi_def_cfa_offset 48
 841 0550 23341102 		sd	ra,40(sp)
 842 0554 23308102 		sd	s0,32(sp)
 843 0558 233C9100 		sd	s1,24(sp)
 844 055c 23382101 		sd	s2,16(sp)
 845 0560 23343101 		sd	s3,8(sp)
 846 0564 23304101 		sd	s4,0(sp)
 847              		.cfi_offset 1, -8
 848              		.cfi_offset 8, -16
 849              		.cfi_offset 9, -24
 850              		.cfi_offset 18, -32
 851              		.cfi_offset 19, -40
 852              		.cfi_offset 20, -48
GAS LISTING /tmp/ccnvT4sd.s 			page 24


 853 0568 13040103 		addi	s0,sp,48
 854              		.cfi_def_cfa 8, 0
 100:src/thread.cpp **** 
 855              		.loc 1 100 5
 856 056c 97070000 		ld	a5,.LANCHOR1
 856      83B70700 
 857 0574 93B74706 		sltiu	a5,a5,100
 858              	.LVL105:
 859              	.LBB63:
 860              	.LBB64:
  20:src/../h/../h/my_console.h ****         return;
 861              		.loc 2 20 5
 862 0578 6380070A 		beqz	a5,.L43
 863 057c 13090500 		mv	s2,a0
 864 0580 93890500 		mv	s3,a1
 865 0584 130A0600 		mv	s4,a2
  21:src/../h/../h/my_console.h **** 
 866              		.loc 2 21 9
 867              	.LVL106:
 868              	.LBE64:
 869              	.LBE63:
 102:src/thread.cpp ****     pAllThreads[nrTotalThreads] = t;
 870              		.loc 1 102 5
 102:src/thread.cpp ****     pAllThreads[nrTotalThreads] = t;
 871              		.loc 1 102 51 is_stmt 0
 872 0588 97000000 		call	_ZN8MemAlloc3getEv@plt
 872      E7800000 
 873              	.LVL107:
 874 0590 93050005 		li	a1,80
 875 0594 97000000 		call	_ZN8MemAlloc8allocMemEm@plt
 875      E7800000 
 876              	.LVL108:
 877 059c 93040500 		mv	s1,a0
 878              	.LVL109:
 103:src/thread.cpp **** 
 879              		.loc 1 103 5 is_stmt 1
 103:src/thread.cpp **** 
 880              		.loc 1 103 33 is_stmt 0
 881 05a0 97070000 		ld	a5,.LANCHOR1
 881      83B70700 
 882 05a8 13973700 		slli	a4,a5,3
 883 05ac 97070000 		lla	a5,.LANCHOR0
 883      93870700 
 884 05b4 B387E700 		add	a5,a5,a4
 885 05b8 23B8A700 		sd	a0,16(a5)
 105:src/thread.cpp ****     void* pLogicalStack = t->allocStack();
 886              		.loc 1 105 5 is_stmt 1
 105:src/thread.cpp ****     void* pLogicalStack = t->allocStack();
 887              		.loc 1 105 20 is_stmt 0
 888 05bc 233C0500 		sd	zero,24(a0)
 106:src/thread.cpp **** 
 889              		.loc 1 106 5 is_stmt 1
 106:src/thread.cpp **** 
 890              		.loc 1 106 40 is_stmt 0
 891 05c0 97000000 		call	_ZN6Thread10allocStackEv
 891      E7800000 
 892              	.LVL110:
GAS LISTING /tmp/ccnvT4sd.s 			page 25


 893 05c8 93060500 		mv	a3,a0
 894              	.LVL111:
 108:src/thread.cpp **** 
 895              		.loc 1 108 5 is_stmt 1
 108:src/thread.cpp **** 
 896              		.loc 1 108 12 is_stmt 0
 897 05cc 13060A00 		mv	a2,s4
 898 05d0 93850900 		mv	a1,s3
 899 05d4 13850400 		mv	a0,s1
 900              	.LVL112:
 901 05d8 97000000 		call	_ZN6Thread4initEPFvPvES0_S0_
 901      E7800000 
 902              	.LVL113:
 110:src/thread.cpp **** 
 903              		.loc 1 110 5 is_stmt 1
 110:src/thread.cpp **** 
 904              		.loc 1 110 14 is_stmt 0
 905 05e0 83B78402 		ld	a5,40(s1)
 110:src/thread.cpp **** 
 906              		.loc 1 110 9
 907 05e4 2330F900 		sd	a5,0(s2)
 112:src/thread.cpp **** 
 908              		.loc 1 112 5 is_stmt 1
 112:src/thread.cpp **** 
 909              		.loc 1 112 19 is_stmt 0
 910 05e8 13850400 		mv	a0,s1
 911 05ec 97000000 		call	_ZN9Scheduler3putEP6Thread@plt
 911      E7800000 
 912              	.LVL114:
 114:src/thread.cpp **** }
 913              		.loc 1 114 5 is_stmt 1
 115:src/thread.cpp **** 
 914              		.loc 1 115 1 is_stmt 0
 915 05f4 13050000 		li	a0,0
 916 05f8 83308102 		ld	ra,40(sp)
 917              		.cfi_remember_state
 918              		.cfi_restore 1
 919 05fc 03340102 		ld	s0,32(sp)
 920              		.cfi_restore 8
 921              		.cfi_def_cfa 2, 48
 922 0600 83348101 		ld	s1,24(sp)
 923              		.cfi_restore 9
 924              	.LVL115:
 925 0604 03390101 		ld	s2,16(sp)
 926              		.cfi_restore 18
 927              	.LVL116:
 928 0608 83398100 		ld	s3,8(sp)
 929              		.cfi_restore 19
 930              	.LVL117:
 931 060c 033A0100 		ld	s4,0(sp)
 932              		.cfi_restore 20
 933              	.LVL118:
 934 0610 13010103 		addi	sp,sp,48
 935              		.cfi_def_cfa_offset 0
 936 0614 67800000 		jr	ra
 937              	.LVL119:
 938              	.L43:
GAS LISTING /tmp/ccnvT4sd.s 			page 26


 939              		.cfi_restore_state
 940              	.LBB66:
 941              	.LBB65:
  23:src/../h/../h/my_console.h ****     putString(file);
 942              		.loc 2 23 5 is_stmt 1
  23:src/../h/../h/my_console.h ****     putString(file);
 943              		.loc 2 23 14 is_stmt 0
 944 0618 17050000 		lla	a0,.LC0
 944      13050500 
 945              	.LVL120:
 946 0620 97000000 		call	_Z9putStringPKc@plt
 946      E7800000 
 947              	.LVL121:
  24:src/../h/../h/my_console.h ****     putString("    line: ");
 948              		.loc 2 24 5 is_stmt 1
  24:src/../h/../h/my_console.h ****     putString("    line: ");
 949              		.loc 2 24 14 is_stmt 0
 950 0628 17050000 		lla	a0,.LC1
 950      13050500 
 951 0630 97000000 		call	_Z9putStringPKc@plt
 951      E7800000 
 952              	.LVL122:
  25:src/../h/../h/my_console.h ****     putInt(line);
 953              		.loc 2 25 5 is_stmt 1
  25:src/../h/../h/my_console.h ****     putInt(line);
 954              		.loc 2 25 14 is_stmt 0
 955 0638 17050000 		lla	a0,.LC2
 955      13050500 
 956 0640 97000000 		call	_Z9putStringPKc@plt
 956      E7800000 
 957              	.LVL123:
  26:src/../h/../h/my_console.h ****     putString("   ===========================");
 958              		.loc 2 26 5 is_stmt 1
  26:src/../h/../h/my_console.h ****     putString("   ===========================");
 959              		.loc 2 26 11 is_stmt 0
 960 0648 13054006 		li	a0,100
 961 064c 97000000 		call	_Z6putInti@plt
 961      E7800000 
 962              	.LVL124:
  27:src/../h/../h/my_console.h ****     putNewline();
 963              		.loc 2 27 5 is_stmt 1
  27:src/../h/../h/my_console.h ****     putNewline();
 964              		.loc 2 27 14 is_stmt 0
 965 0654 17050000 		lla	a0,.LC3
 965      13050500 
 966 065c 97000000 		call	_Z9putStringPKc@plt
 966      E7800000 
 967              	.LVL125:
  28:src/../h/../h/my_console.h **** 
 968              		.loc 2 28 5 is_stmt 1
  28:src/../h/../h/my_console.h **** 
 969              		.loc 2 28 15 is_stmt 0
 970 0664 97000000 		call	_Z10putNewlinev@plt
 970      E7800000 
 971              	.LVL126:
 972              		.loc 2 30 5 is_stmt 1
 973              		.loc 2 30 15 is_stmt 0
GAS LISTING /tmp/ccnvT4sd.s 			page 27


 974 066c 97000000 		call	_Z10stopKernelv@plt
 974      E7800000 
 975              	.LVL127:
 976              	.LBE65:
 977              	.LBE66:
 978              		.cfi_endproc
 979              	.LFE18:
 981              		.section	.rodata.str1.8
 982 0067 00       		.align	3
 983              	.LC4:
 984 0068 3D3D3D20 		.string	"=== NO MORE THREADS EXIST. RETURNING TO KERNEL THREAD"
 984      4E4F204D 
 984      4F524520 
 984      54485245 
 984      41445320 
 985              		.text
 986              		.align	2
 987              		.globl	_ZN6Thread4exitEv
 989              	_ZN6Thread4exitEv:
 990              	.LFB23:
 177:src/thread.cpp **** 
 178:src/thread.cpp **** int Thread::exit()
 179:src/thread.cpp **** {
 991              		.loc 1 179 1 is_stmt 1
 992              		.cfi_startproc
 993 0674 130101FE 		addi	sp,sp,-32
 994              		.cfi_def_cfa_offset 32
 995 0678 233C1100 		sd	ra,24(sp)
 996 067c 23388100 		sd	s0,16(sp)
 997 0680 23349100 		sd	s1,8(sp)
 998              		.cfi_offset 1, -8
 999              		.cfi_offset 8, -16
 1000              		.cfi_offset 9, -24
 1001 0684 13040102 		addi	s0,sp,32
 1002              		.cfi_def_cfa 8, 0
 180:src/thread.cpp ****     Thread* t = Thread::getPRunning();
 1003              		.loc 1 180 5
 1004              		.loc 1 180 36 is_stmt 0
 1005 0688 97000000 		call	_ZN6Thread11getPRunningEv
 1005      E7800000 
 1006              	.LVL128:
 181:src/thread.cpp ****     assert(t->state == RUNNING);
 1007              		.loc 1 181 5 is_stmt 1
 1008 0690 83270500 		lw	a5,0(a0)
 1009              	.LVL129:
 1010              	.LBB80:
 1011              	.LBB81:
  20:src/../h/../h/my_console.h ****         return;
 1012              		.loc 2 20 5
 1013 0694 63940708 		bnez	a5,.L51
 1014 0698 93040500 		mv	s1,a0
  21:src/../h/../h/my_console.h **** 
 1015              		.loc 2 21 9
 1016              	.LVL130:
 1017              	.LBE81:
 1018              	.LBE80:
 182:src/thread.cpp ****     assert(t->done == false);
GAS LISTING /tmp/ccnvT4sd.s 			page 28


 1019              		.loc 1 182 5
 1020 069c 83470504 		lbu	a5,64(a0)
 1021 06a0 93C71700 		xori	a5,a5,1
 1022              	.LVL131:
 1023              	.LBB83:
 1024              	.LBB84:
  20:src/../h/../h/my_console.h ****         return;
 1025              		.loc 2 20 5
 1026 06a4 638A070C 		beqz	a5,.L52
  21:src/../h/../h/my_console.h **** 
 1027              		.loc 2 21 9
 1028              	.LVL132:
 1029              	.LBE84:
 1030              	.LBE83:
 183:src/thread.cpp ****     t->done = true;
 1031              		.loc 1 183 5
 1032              		.loc 1 183 13 is_stmt 0
 1033 06a8 93071000 		li	a5,1
 1034 06ac 2300F504 		sb	a5,64(a0)
 184:src/thread.cpp **** 
 185:src/thread.cpp ****     MemAlloc::get()->freeMem(t->pStackStart);
 1035              		.loc 1 185 5 is_stmt 1
 1036              		.loc 1 185 29 is_stmt 0
 1037 06b0 97000000 		call	_ZN8MemAlloc3getEv@plt
 1037      E7800000 
 1038              	.LVL133:
 1039 06b8 83B58401 		ld	a1,24(s1)
 1040 06bc 97000000 		call	_ZN8MemAlloc7freeMemEPv@plt
 1040      E7800000 
 1041              	.LVL134:
 186:src/thread.cpp **** 
 187:src/thread.cpp ****     t->signalDone(); // WARNING: must be in this order
 1042              		.loc 1 187 5 is_stmt 1
 1043              		.loc 1 187 18 is_stmt 0
 1044 06c4 13850400 		mv	a0,s1
 1045 06c8 97000000 		call	_ZN6Thread10signalDoneEv
 1045      E7800000 
 1046              	.LVL135:
 188:src/thread.cpp **** 
 189:src/thread.cpp ****     bool existReadyThread = !(Scheduler::get()->pHead == nullptr); // WARNING: must be after signal
 1047              		.loc 1 189 5 is_stmt 1
 1048              	.LBB86:
 1049              	.LBB87:
 1050              		.file 3 "src/../h/scheduler.h"
   1:src/../h/scheduler.h **** #pragma once
   2:src/../h/scheduler.h **** 
   3:src/../h/scheduler.h **** #include "../h/thread.h"
   4:src/../h/scheduler.h **** 
   5:src/../h/scheduler.h **** class Scheduler // singleton
   6:src/../h/scheduler.h **** {
   7:src/../h/scheduler.h **** public:
   8:src/../h/scheduler.h ****     static Scheduler* get()
   9:src/../h/scheduler.h ****     {
  10:src/../h/scheduler.h ****         static Scheduler instance;
 1051              		.loc 3 10 9
 1052              		.loc 3 10 26 is_stmt 0
 1053 06d0 97070000 		lbu	a5,_ZGVZN9Scheduler3getEvE8instance
GAS LISTING /tmp/ccnvT4sd.s 			page 29


 1053      83C70700 
 1054 06d8 639C0700 		bnez	a5,.L47
 1055              	.LVL136:
 1056              	.LBB88:
 1057              	.LBB89:
 1058              	.LBB90:
  11:src/../h/scheduler.h ****         return &instance;
  12:src/../h/scheduler.h ****     }
  13:src/../h/scheduler.h **** 
  14:src/../h/scheduler.h ****     static void dispatchToNext(); // WARNING: different than sys. call dispatch()
  15:src/../h/scheduler.h ****     static Thread* getNext();
  16:src/../h/scheduler.h ****     static void put(Thread*);
  17:src/../h/scheduler.h ****     static void printState();
  18:src/../h/scheduler.h **** 
  19:src/../h/scheduler.h ****     Thread* pHead; // points to the one that is the next to be run
  20:src/../h/scheduler.h **** 
  21:src/../h/scheduler.h **** private:
  22:src/../h/scheduler.h ****     Scheduler()
  23:src/../h/scheduler.h ****         : pHead(nullptr)
 1059              		.loc 3 23 24
 1060 06dc 97070000 		sd	zero,_ZZN9Scheduler3getEvE8instance,a5
 1060      23B00700 
 1061              	.LVL137:
 1062              	.LBE90:
 1063              	.LBE89:
 1064              	.LBE88:
  10:src/../h/scheduler.h ****         return &instance;
 1065              		.loc 3 10 26
 1066 06e4 93071000 		li	a5,1
 1067 06e8 17070000 		sb	a5,_ZGVZN9Scheduler3getEvE8instance,a4
 1067      2300F700 
 1068              	.L47:
  11:src/../h/scheduler.h ****         return &instance;
 1069              		.loc 3 11 9 is_stmt 1
 1070              	.LBE87:
 1071              	.LBE86:
 1072              		.loc 1 189 49 is_stmt 0
 1073 06f0 97070000 		ld	a5,_ZZN9Scheduler3getEvE8instance
 1073      83B70700 
 1074              	.LVL138:
 190:src/thread.cpp ****     if(!existReadyThread) // TODO: add (... && !existSleepedThread && !waitingForConsoleThread), vr
 1075              		.loc 1 190 5 is_stmt 1
 1076              	.LBB91:
 1077 06f8 638E070C 		beqz	a5,.L53
 1078              	.LVL139:
 1079              	.L48:
 1080              	.LBE91:
 191:src/thread.cpp ****     {
 192:src/thread.cpp ****         putString("=== NO MORE THREADS EXIST. RETURNING TO KERNEL THREAD");
 193:src/thread.cpp ****         putNewline();
 194:src/thread.cpp **** 
 195:src/thread.cpp ****         extern Thread kernelThread;
 196:src/thread.cpp ****         assert(pAllThreads[0] == &kernelThread);
 197:src/thread.cpp ****         pAllThreads[0]->state = READY;
 198:src/thread.cpp ****         Scheduler::put(Thread::pAllThreads[0]);
 199:src/thread.cpp **** 
 200:src/thread.cpp ****         // ovo je nesto pogresno
GAS LISTING /tmp/ccnvT4sd.s 			page 30


 201:src/thread.cpp **** //        __asm__ volatile ("csrc sstatus, 0x6"); // set spie bit to 1. spie signifies that we dont
 202:src/thread.cpp **** //        __asm__ volatile ("csrc sstatus, 0x9"); // clear spp bit, so we change to user mode after
 203:src/thread.cpp ****     }
 204:src/thread.cpp **** 
 205:src/thread.cpp ****     Scheduler::dispatchToNext();
 1081              		.loc 1 205 5
 1082              		.loc 1 205 30 is_stmt 0
 1083 06fc 97000000 		call	_ZN9Scheduler14dispatchToNextEv@plt
 1083      E7800000 
 1084              	.LVL140:
 206:src/thread.cpp **** 
 207:src/thread.cpp ****     return 0;
 1085              		.loc 1 207 5 is_stmt 1
 208:src/thread.cpp **** }
 1086              		.loc 1 208 1 is_stmt 0
 1087 0704 13050000 		li	a0,0
 1088 0708 83308101 		ld	ra,24(sp)
 1089              		.cfi_remember_state
 1090              		.cfi_restore 1
 1091 070c 03340101 		ld	s0,16(sp)
 1092              		.cfi_restore 8
 1093              		.cfi_def_cfa 2, 32
 1094 0710 83348100 		ld	s1,8(sp)
 1095              		.cfi_restore 9
 1096              	.LVL141:
 1097 0714 13010102 		addi	sp,sp,32
 1098              		.cfi_def_cfa_offset 0
 1099 0718 67800000 		jr	ra
 1100              	.LVL142:
 1101              	.L51:
 1102              		.cfi_restore_state
 1103              	.LBB98:
 1104              	.LBB82:
  23:src/../h/../h/my_console.h ****     putString(file);
 1105              		.loc 2 23 5 is_stmt 1
  23:src/../h/../h/my_console.h ****     putString(file);
 1106              		.loc 2 23 14 is_stmt 0
 1107 071c 17050000 		lla	a0,.LC0
 1107      13050500 
 1108              	.LVL143:
 1109 0724 97000000 		call	_Z9putStringPKc@plt
 1109      E7800000 
 1110              	.LVL144:
  24:src/../h/../h/my_console.h ****     putString("    line: ");
 1111              		.loc 2 24 5 is_stmt 1
  24:src/../h/../h/my_console.h ****     putString("    line: ");
 1112              		.loc 2 24 14 is_stmt 0
 1113 072c 17050000 		lla	a0,.LC1
 1113      13050500 
 1114 0734 97000000 		call	_Z9putStringPKc@plt
 1114      E7800000 
 1115              	.LVL145:
  25:src/../h/../h/my_console.h ****     putInt(line);
 1116              		.loc 2 25 5 is_stmt 1
  25:src/../h/../h/my_console.h ****     putInt(line);
 1117              		.loc 2 25 14 is_stmt 0
 1118 073c 17050000 		lla	a0,.LC2
GAS LISTING /tmp/ccnvT4sd.s 			page 31


 1118      13050500 
 1119 0744 97000000 		call	_Z9putStringPKc@plt
 1119      E7800000 
 1120              	.LVL146:
  26:src/../h/../h/my_console.h ****     putString("   ===========================");
 1121              		.loc 2 26 5 is_stmt 1
  26:src/../h/../h/my_console.h ****     putString("   ===========================");
 1122              		.loc 2 26 11 is_stmt 0
 1123 074c 1305500B 		li	a0,181
 1124 0750 97000000 		call	_Z6putInti@plt
 1124      E7800000 
 1125              	.LVL147:
  27:src/../h/../h/my_console.h ****     putNewline();
 1126              		.loc 2 27 5 is_stmt 1
  27:src/../h/../h/my_console.h ****     putNewline();
 1127              		.loc 2 27 14 is_stmt 0
 1128 0758 17050000 		lla	a0,.LC3
 1128      13050500 
 1129 0760 97000000 		call	_Z9putStringPKc@plt
 1129      E7800000 
 1130              	.LVL148:
  28:src/../h/../h/my_console.h **** 
 1131              		.loc 2 28 5 is_stmt 1
  28:src/../h/../h/my_console.h **** 
 1132              		.loc 2 28 15 is_stmt 0
 1133 0768 97000000 		call	_Z10putNewlinev@plt
 1133      E7800000 
 1134              	.LVL149:
 1135              		.loc 2 30 5 is_stmt 1
 1136              		.loc 2 30 15 is_stmt 0
 1137 0770 97000000 		call	_Z10stopKernelv@plt
 1137      E7800000 
 1138              	.LVL150:
 1139              	.L52:
 1140              	.LBE82:
 1141              	.LBE98:
 1142              	.LBB99:
 1143              	.LBB85:
  23:src/../h/../h/my_console.h ****     putString(file);
 1144              		.loc 2 23 5 is_stmt 1
  23:src/../h/../h/my_console.h ****     putString(file);
 1145              		.loc 2 23 14 is_stmt 0
 1146 0778 17050000 		lla	a0,.LC0
 1146      13050500 
 1147 0780 97000000 		call	_Z9putStringPKc@plt
 1147      E7800000 
 1148              	.LVL151:
  24:src/../h/../h/my_console.h ****     putString("    line: ");
 1149              		.loc 2 24 5 is_stmt 1
  24:src/../h/../h/my_console.h ****     putString("    line: ");
 1150              		.loc 2 24 14 is_stmt 0
 1151 0788 17050000 		lla	a0,.LC1
 1151      13050500 
 1152 0790 97000000 		call	_Z9putStringPKc@plt
 1152      E7800000 
 1153              	.LVL152:
  25:src/../h/../h/my_console.h ****     putInt(line);
GAS LISTING /tmp/ccnvT4sd.s 			page 32


 1154              		.loc 2 25 5 is_stmt 1
  25:src/../h/../h/my_console.h ****     putInt(line);
 1155              		.loc 2 25 14 is_stmt 0
 1156 0798 17050000 		lla	a0,.LC2
 1156      13050500 
 1157 07a0 97000000 		call	_Z9putStringPKc@plt
 1157      E7800000 
 1158              	.LVL153:
  26:src/../h/../h/my_console.h ****     putString("   ===========================");
 1159              		.loc 2 26 5 is_stmt 1
  26:src/../h/../h/my_console.h ****     putString("   ===========================");
 1160              		.loc 2 26 11 is_stmt 0
 1161 07a8 1305600B 		li	a0,182
 1162 07ac 97000000 		call	_Z6putInti@plt
 1162      E7800000 
 1163              	.LVL154:
  27:src/../h/../h/my_console.h ****     putNewline();
 1164              		.loc 2 27 5 is_stmt 1
  27:src/../h/../h/my_console.h ****     putNewline();
 1165              		.loc 2 27 14 is_stmt 0
 1166 07b4 17050000 		lla	a0,.LC3
 1166      13050500 
 1167 07bc 97000000 		call	_Z9putStringPKc@plt
 1167      E7800000 
 1168              	.LVL155:
  28:src/../h/../h/my_console.h **** 
 1169              		.loc 2 28 5 is_stmt 1
  28:src/../h/../h/my_console.h **** 
 1170              		.loc 2 28 15 is_stmt 0
 1171 07c4 97000000 		call	_Z10putNewlinev@plt
 1171      E7800000 
 1172              	.LVL156:
 1173              		.loc 2 30 5 is_stmt 1
 1174              		.loc 2 30 15 is_stmt 0
 1175 07cc 97000000 		call	_Z10stopKernelv@plt
 1175      E7800000 
 1176              	.LVL157:
 1177              	.L53:
 1178              	.LBE85:
 1179              	.LBE99:
 1180              	.LBB100:
 1181              	.LBB92:
 192:src/thread.cpp ****         putNewline();
 1182              		.loc 1 192 9 is_stmt 1
 192:src/thread.cpp ****         putNewline();
 1183              		.loc 1 192 18 is_stmt 0
 1184 07d4 17050000 		lla	a0,.LC4
 1184      13050500 
 1185 07dc 97000000 		call	_Z9putStringPKc@plt
 1185      E7800000 
 1186              	.LVL158:
 193:src/thread.cpp **** 
 1187              		.loc 1 193 9 is_stmt 1
 193:src/thread.cpp **** 
 1188              		.loc 1 193 19 is_stmt 0
 1189 07e4 97000000 		call	_Z10putNewlinev@plt
 1189      E7800000 
GAS LISTING /tmp/ccnvT4sd.s 			page 33


 1190              	.LVL159:
 195:src/thread.cpp ****         assert(pAllThreads[0] == &kernelThread);
 1191              		.loc 1 195 9 is_stmt 1
 196:src/thread.cpp ****         pAllThreads[0]->state = READY;
 1192              		.loc 1 196 9
 1193 07ec 17070000 		ld	a4,.LANCHOR0+16
 1193      03370700 
 1194 07f4 97070000 		la	a5,kernelThread
 1194      83B70700 
 1195              	.LVL160:
 1196              	.LBB93:
 1197              	.LBB94:
  20:src/../h/../h/my_console.h ****         return;
 1198              		.loc 2 20 5
 1199 07fc 6314F702 		bne	a4,a5,.L54
  21:src/../h/../h/my_console.h **** 
 1200              		.loc 2 21 9
 1201              	.LVL161:
 1202              	.LBE94:
 1203              	.LBE93:
 197:src/thread.cpp ****         Scheduler::put(Thread::pAllThreads[0]);
 1204              		.loc 1 197 9
 197:src/thread.cpp ****         Scheduler::put(Thread::pAllThreads[0]);
 1205              		.loc 1 197 22 is_stmt 0
 1206 0800 97070000 		lla	a5,.LANCHOR0
 1206      93870700 
 1207 0808 03B70701 		ld	a4,16(a5)
 197:src/thread.cpp ****         Scheduler::put(Thread::pAllThreads[0]);
 1208              		.loc 1 197 31
 1209 080c 93062000 		li	a3,2
 1210 0810 2320D700 		sw	a3,0(a4)
 198:src/thread.cpp **** 
 1211              		.loc 1 198 9 is_stmt 1
 198:src/thread.cpp **** 
 1212              		.loc 1 198 23 is_stmt 0
 1213 0814 03B50701 		ld	a0,16(a5)
 1214 0818 97000000 		call	_ZN9Scheduler3putEP6Thread@plt
 1214      E7800000 
 1215              	.LVL162:
 1216              	.LBE92:
 1217 0820 6FF0DFED 		j	.L48
 1218              	.LVL163:
 1219              	.L54:
 1220              	.LBB97:
 1221              	.LBB96:
 1222              	.LBB95:
  23:src/../h/../h/my_console.h ****     putString(file);
 1223              		.loc 2 23 5 is_stmt 1
  23:src/../h/../h/my_console.h ****     putString(file);
 1224              		.loc 2 23 14 is_stmt 0
 1225 0824 17050000 		lla	a0,.LC0
 1225      13050500 
 1226 082c 97000000 		call	_Z9putStringPKc@plt
 1226      E7800000 
 1227              	.LVL164:
  24:src/../h/../h/my_console.h ****     putString("    line: ");
 1228              		.loc 2 24 5 is_stmt 1
GAS LISTING /tmp/ccnvT4sd.s 			page 34


  24:src/../h/../h/my_console.h ****     putString("    line: ");
 1229              		.loc 2 24 14 is_stmt 0
 1230 0834 17050000 		lla	a0,.LC1
 1230      13050500 
 1231 083c 97000000 		call	_Z9putStringPKc@plt
 1231      E7800000 
 1232              	.LVL165:
  25:src/../h/../h/my_console.h ****     putInt(line);
 1233              		.loc 2 25 5 is_stmt 1
  25:src/../h/../h/my_console.h ****     putInt(line);
 1234              		.loc 2 25 14 is_stmt 0
 1235 0844 17050000 		lla	a0,.LC2
 1235      13050500 
 1236 084c 97000000 		call	_Z9putStringPKc@plt
 1236      E7800000 
 1237              	.LVL166:
  26:src/../h/../h/my_console.h ****     putString("   ===========================");
 1238              		.loc 2 26 5 is_stmt 1
  26:src/../h/../h/my_console.h ****     putString("   ===========================");
 1239              		.loc 2 26 11 is_stmt 0
 1240 0854 1305400C 		li	a0,196
 1241 0858 97000000 		call	_Z6putInti@plt
 1241      E7800000 
 1242              	.LVL167:
  27:src/../h/../h/my_console.h ****     putNewline();
 1243              		.loc 2 27 5 is_stmt 1
  27:src/../h/../h/my_console.h ****     putNewline();
 1244              		.loc 2 27 14 is_stmt 0
 1245 0860 17050000 		lla	a0,.LC3
 1245      13050500 
 1246 0868 97000000 		call	_Z9putStringPKc@plt
 1246      E7800000 
 1247              	.LVL168:
  28:src/../h/../h/my_console.h **** 
 1248              		.loc 2 28 5 is_stmt 1
  28:src/../h/../h/my_console.h **** 
 1249              		.loc 2 28 15 is_stmt 0
 1250 0870 97000000 		call	_Z10putNewlinev@plt
 1250      E7800000 
 1251              	.LVL169:
 1252              		.loc 2 30 5 is_stmt 1
 1253              		.loc 2 30 15 is_stmt 0
 1254 0878 97000000 		call	_Z10stopKernelv@plt
 1254      E7800000 
 1255              	.LVL170:
 1256              	.LBE95:
 1257              	.LBE96:
 1258              	.LBE97:
 1259              	.LBE100:
 1260              		.cfi_endproc
 1261              	.LFE23:
 1263              		.globl	_ZN6Thread22initialUserMemoryUsageE
 1264              		.globl	_ZN6Thread11pAllThreadsE
 1265              		.globl	_ZN6Thread14nrTotalThreadsE
 1266              		.globl	_ZN6Thread20switchedToUserThreadE
 1267              		.globl	_ZN6Thread16timeSliceCounterE
 1268              		.globl	_ZN6Thread10pRunningSpE
GAS LISTING /tmp/ccnvT4sd.s 			page 35


 1269              		.globl	_ZN6Thread8pRunningE
 1270              		.weak	_ZGVZN9Scheduler3getEvE8instance
 1271              		.section	.bss._ZGVZN9Scheduler3getEvE8instance,"awG",@nobits,_ZGVZN9Scheduler3getEvE8instance,comd
 1272              		.align	3
 1275              	_ZGVZN9Scheduler3getEvE8instance:
 1276 0000 00000000 		.zero	8
 1276      00000000 
 1277              		.weak	_ZZN9Scheduler3getEvE8instance
 1278              		.section	.bss._ZZN9Scheduler3getEvE8instance,"awG",@nobits,_ZZN9Scheduler3getEvE8instance,comdat
 1279              		.align	3
 1282              	_ZZN9Scheduler3getEvE8instance:
 1283 0000 00000000 		.zero	8
 1283      00000000 
 1284              		.data
 1285              		.align	3
 1286              		.set	.LANCHOR1,. + 0
 1289              	_ZN6Thread14nrTotalThreadsE:
 1290 0000 01000000 		.dword	1
 1290      00000000 
 1291              		.bss
 1292              		.align	3
 1293              		.set	.LANCHOR0,. + 0
 1296              	_ZN6Thread8pRunningE:
 1297 0000 00000000 		.zero	8
 1297      00000000 
 1300              	_ZN6Thread10pRunningSpE:
 1301 0008 00000000 		.zero	8
 1301      00000000 
 1304              	_ZN6Thread11pAllThreadsE:
 1305 0010 00000000 		.zero	800
 1305      00000000 
 1305      00000000 
 1305      00000000 
 1305      00000000 
 1308              	_ZN6Thread22initialUserMemoryUsageE:
 1309 0330 00000000 		.zero	8
 1309      00000000 
 1312              	_ZN6Thread20switchedToUserThreadE:
 1313 0338 00       		.zero	1
 1314 0339 00000000 		.zero	7
 1314      000000
 1317              	_ZN6Thread16timeSliceCounterE:
 1318 0340 00000000 		.zero	8
 1318      00000000 
 1319              		.text
 1320              	.Letext0:
 1321              		.file 4 "src/../h/../lib/hw.h"
 1322              		.file 5 "src/../h/thread.h"
 1323              		.file 6 "src/../h/alloc.h"
 1324              		.file 7 "src/../h/../h/c_api.h"
GAS LISTING /tmp/ccnvT4sd.s 			page 36


DEFINED SYMBOLS
                            *ABS*:0000000000000000 thread.cpp
     /tmp/ccnvT4sd.s:9      .text:0000000000000000 _Z7wrappermPFvPvES_
     /tmp/ccnvT4sd.s:13     .text:0000000000000000 .L0 
     /tmp/ccnvT4sd.s:15     .text:0000000000000000 .L0 
     /tmp/ccnvT4sd.s:16     .text:0000000000000004 .L0 
     /tmp/ccnvT4sd.s:19     .text:000000000000000c .L0 
     /tmp/ccnvT4sd.s:20     .text:000000000000000c .L0 
     /tmp/ccnvT4sd.s:22     .text:0000000000000010 .L0 
     /tmp/ccnvT4sd.s:24     .text:0000000000000010 .L0 
     /tmp/ccnvT4sd.s:25     .text:0000000000000010 .L0 
     /tmp/ccnvT4sd.s:30     .text:0000000000000018 .L0 
     /tmp/ccnvT4sd.s:31     .text:0000000000000018 .L0 
     /tmp/ccnvT4sd.s:34     .text:0000000000000020 .L0 
     /tmp/ccnvT4sd.s:35     .text:0000000000000024 .L0 
     /tmp/ccnvT4sd.s:37     .text:0000000000000028 .L0 
     /tmp/ccnvT4sd.s:38     .text:0000000000000028 .L0 
     /tmp/ccnvT4sd.s:40     .text:000000000000002c .L0 
     /tmp/ccnvT4sd.s:42     .text:0000000000000030 .L0 
     /tmp/ccnvT4sd.s:48     .text:0000000000000030 _ZN6Thread10signalDoneEv
     /tmp/ccnvT4sd.s:51     .text:0000000000000030 .L0 
     /tmp/ccnvT4sd.s:53     .text:0000000000000030 .L0 
     /tmp/ccnvT4sd.s:54     .text:0000000000000034 .L0 
     /tmp/ccnvT4sd.s:58     .text:0000000000000040 .L0 
     /tmp/ccnvT4sd.s:59     .text:0000000000000040 .L0 
     /tmp/ccnvT4sd.s:60     .text:0000000000000040 .L0 
     /tmp/ccnvT4sd.s:62     .text:0000000000000044 .L0 
     /tmp/ccnvT4sd.s:64     .text:0000000000000044 .L0 
     /tmp/ccnvT4sd.s:65     .text:0000000000000044 .L0 
     /tmp/ccnvT4sd.s:69     .text:0000000000000048 .L0 
     /tmp/ccnvT4sd.s:70     .text:0000000000000048 .L0 
     /tmp/ccnvT4sd.s:72     .text:000000000000004c .L0 
     /tmp/ccnvT4sd.s:73     .text:000000000000004c .L0 
     /tmp/ccnvT4sd.s:76     .text:0000000000000054 .L0 
     /tmp/ccnvT4sd.s:77     .text:0000000000000054 .L0 
     /tmp/ccnvT4sd.s:81     .text:0000000000000060 .L0 
     /tmp/ccnvT4sd.s:82     .text:0000000000000060 .L0 
     /tmp/ccnvT4sd.s:85     .text:0000000000000064 .L0 
     /tmp/ccnvT4sd.s:88     .text:0000000000000068 .L0 
     /tmp/ccnvT4sd.s:89     .text:000000000000006c .L0 
     /tmp/ccnvT4sd.s:91     .text:0000000000000070 .L0 
     /tmp/ccnvT4sd.s:92     .text:0000000000000070 .L0 
     /tmp/ccnvT4sd.s:94     .text:0000000000000074 .L0 
     /tmp/ccnvT4sd.s:97     .text:0000000000000078 .L0 
     /tmp/ccnvT4sd.s:99     .text:000000000000007c .L0 
     /tmp/ccnvT4sd.s:105    .text:000000000000007c _ZN6Thread11setPRunningEPS_
     /tmp/ccnvT4sd.s:108    .text:000000000000007c .L0 
     /tmp/ccnvT4sd.s:110    .text:000000000000007c .L0 
     /tmp/ccnvT4sd.s:111    .text:0000000000000080 .L0 
     /tmp/ccnvT4sd.s:113    .text:0000000000000084 .L0 
     /tmp/ccnvT4sd.s:115    .text:0000000000000088 .L0 
     /tmp/ccnvT4sd.s:117    .text:0000000000000088 .L0 
     /tmp/ccnvT4sd.s:118    .text:0000000000000088 .L0 
     /tmp/ccnvT4sd.s:121    .text:0000000000000094 .L0 
     /tmp/ccnvT4sd.s:122    .text:0000000000000094 .L0 
     /tmp/ccnvT4sd.s:125    .text:0000000000000098 .L0 
     /tmp/ccnvT4sd.s:127    .text:000000000000009c .L0 
GAS LISTING /tmp/ccnvT4sd.s 			page 37


     /tmp/ccnvT4sd.s:128    .text:00000000000000a0 .L0 
     /tmp/ccnvT4sd.s:129    .text:00000000000000a0 .L0 
     /tmp/ccnvT4sd.s:131    .text:00000000000000a4 .L0 
     /tmp/ccnvT4sd.s:133    .text:00000000000000a8 .L0 
     /tmp/ccnvT4sd.s:139    .text:00000000000000a8 _ZN6Thread11getPRunningEv
     /tmp/ccnvT4sd.s:142    .text:00000000000000a8 .L0 
     /tmp/ccnvT4sd.s:143    .text:00000000000000a8 .L0 
     /tmp/ccnvT4sd.s:144    .text:00000000000000ac .L0 
     /tmp/ccnvT4sd.s:146    .text:00000000000000b0 .L0 
     /tmp/ccnvT4sd.s:148    .text:00000000000000b4 .L0 
     /tmp/ccnvT4sd.s:150    .text:00000000000000b4 .L0 
      src/thread.cpp:119    .text:00000000000000b4 .L0 
     /tmp/ccnvT4sd.s:156    .text:00000000000000b8 .L0 
     /tmp/ccnvT4sd.s:158    .text:00000000000000b8 .L0 
     /tmp/ccnvT4sd.s:160    .text:00000000000000c4 .L0 
     /tmp/ccnvT4sd.s:161    .text:00000000000000c4 .L0 
     /tmp/ccnvT4sd.s:163    .text:00000000000000c8 .L0 
     /tmp/ccnvT4sd.s:165    .text:00000000000000cc .L0 
     /tmp/ccnvT4sd.s:185    .text:00000000000000cc _ZN6Thread4joinEm
     /tmp/ccnvT4sd.s:188    .text:00000000000000cc .L0 
     /tmp/ccnvT4sd.s:190    .text:00000000000000cc .L0 
     /tmp/ccnvT4sd.s:191    .text:00000000000000d0 .L0 
     /tmp/ccnvT4sd.s:195    .text:00000000000000dc .L0 
     /tmp/ccnvT4sd.s:196    .text:00000000000000dc .L0 
     /tmp/ccnvT4sd.s:197    .text:00000000000000dc .L0 
     /tmp/ccnvT4sd.s:199    .text:00000000000000e0 .L0 
     /tmp/ccnvT4sd.s:202    .text:00000000000000e4 .L0 
     /tmp/ccnvT4sd.s:203    .text:00000000000000e4 .L0 
     /tmp/ccnvT4sd.s:206    .text:00000000000000ec .L0 
     /tmp/ccnvT4sd.s:207    .text:00000000000000ec .L0 
     /tmp/ccnvT4sd.s:214    .text:0000000000000100 .L0 
     /tmp/ccnvT4sd.s:215    .text:0000000000000100 .L0 
     /tmp/ccnvT4sd.s:221    .text:0000000000000108 .L0 
     /tmp/ccnvT4sd.s:226    .text:000000000000010c .L0 
     /tmp/ccnvT4sd.s:227    .text:000000000000010c .L0 
     /tmp/ccnvT4sd.s:228    .text:000000000000010c .L0 
     /tmp/ccnvT4sd.s:230    .text:0000000000000110 .L0 
     /tmp/ccnvT4sd.s:233    .text:0000000000000114 .L0 
     /tmp/ccnvT4sd.s:234    .text:0000000000000114 .L0 
     /tmp/ccnvT4sd.s:236    .text:0000000000000118 .L0 
     /tmp/ccnvT4sd.s:241    .text:000000000000011c .L0 
     /tmp/ccnvT4sd.s:242    .text:000000000000011c .L0 
     /tmp/ccnvT4sd.s:247    .text:0000000000000128 .L0 
     /tmp/ccnvT4sd.s:248    .text:0000000000000128 .L0 
     /tmp/ccnvT4sd.s:254    .text:000000000000012c .L0 
     /tmp/ccnvT4sd.s:255    .text:000000000000012c .L0 
     /tmp/ccnvT4sd.s:257    .text:0000000000000130 .L0 
     /tmp/ccnvT4sd.s:258    .text:0000000000000130 .L0 
     /tmp/ccnvT4sd.s:261    .text:0000000000000138 .L0 
     /tmp/ccnvT4sd.s:262    .text:0000000000000138 .L0 
     /tmp/ccnvT4sd.s:266    .text:0000000000000140 .L0 
     /tmp/ccnvT4sd.s:267    .text:0000000000000144 .L0 
     /tmp/ccnvT4sd.s:268    .text:0000000000000144 .L0 
     /tmp/ccnvT4sd.s:270    .text:0000000000000148 .L0 
     /tmp/ccnvT4sd.s:271    .text:0000000000000148 .L0 
     /tmp/ccnvT4sd.s:273    .text:000000000000014c .L0 
     /tmp/ccnvT4sd.s:275    .text:0000000000000150 .L0 
GAS LISTING /tmp/ccnvT4sd.s 			page 38


     /tmp/ccnvT4sd.s:279    .text:0000000000000154 .L0 
     /tmp/ccnvT4sd.s:283    .text:0000000000000154 .L0 
     /tmp/ccnvT4sd.s:284    .text:0000000000000154 .L0 
     /tmp/ccnvT4sd.s:289    .text:0000000000000164 .L0 
     /tmp/ccnvT4sd.s:290    .text:0000000000000164 .L0 
     /tmp/ccnvT4sd.s:294    .text:0000000000000174 .L0 
     /tmp/ccnvT4sd.s:295    .text:0000000000000174 .L0 
     /tmp/ccnvT4sd.s:299    .text:0000000000000184 .L0 
     /tmp/ccnvT4sd.s:300    .text:0000000000000184 .L0 
     /tmp/ccnvT4sd.s:304    .text:0000000000000190 .L0 
     /tmp/ccnvT4sd.s:305    .text:0000000000000190 .L0 
     /tmp/ccnvT4sd.s:309    .text:00000000000001a0 .L0 
     /tmp/ccnvT4sd.s:310    .text:00000000000001a0 .L0 
     /tmp/ccnvT4sd.s:313    .text:00000000000001a8 .L0 
     /tmp/ccnvT4sd.s:314    .text:00000000000001a8 .L0 
     /tmp/ccnvT4sd.s:321    .text:00000000000001b0 .L0 
     /tmp/ccnvT4sd.s:322    .text:00000000000001b0 .L0 
     /tmp/ccnvT4sd.s:325    .text:00000000000001b8 .L0 
     /tmp/ccnvT4sd.s:331    .text:00000000000001b8 _ZN6Thread12switchToUserEv
     /tmp/ccnvT4sd.s:334    .text:00000000000001b8 .L0 
     /tmp/ccnvT4sd.s:335    .text:00000000000001b8 .L0 
     /tmp/ccnvT4sd.s:336    .text:00000000000001bc .L0 
     /tmp/ccnvT4sd.s:339    .text:00000000000001c4 .L0 
     /tmp/ccnvT4sd.s:340    .text:00000000000001c4 .L0 
     /tmp/ccnvT4sd.s:342    .text:00000000000001c8 .L0 
     /tmp/ccnvT4sd.s:344    .text:00000000000001c8 .L0 
     /tmp/ccnvT4sd.s:345    .text:00000000000001c8 .L0 
      src/thread.cpp:65     .text:00000000000001c8 .L0 
     /tmp/ccnvT4sd.s:352    .text:00000000000001cc .L0 
     /tmp/ccnvT4sd.s:354    .text:00000000000001cc .L0 
     /tmp/ccnvT4sd.s:357    .text:00000000000001d0 .L0 
     /tmp/ccnvT4sd.s:359    .text:00000000000001d4 .L0 
     /tmp/ccnvT4sd.s:366    .text:00000000000001e0 .L0 
     /tmp/ccnvT4sd.s:371    .text:00000000000001e4 .L0 
     /tmp/ccnvT4sd.s:372    .text:00000000000001e4 .L0 
     /tmp/ccnvT4sd.s:373    .text:00000000000001e4 .L0 
     /tmp/ccnvT4sd.s:376    .text:00000000000001ec .L0 
     /tmp/ccnvT4sd.s:384    .text:00000000000001fc .L0 
     /tmp/ccnvT4sd.s:388    .text:0000000000000200 .L0 
     /tmp/ccnvT4sd.s:389    .text:0000000000000204 .L0 
     /tmp/ccnvT4sd.s:390    .text:0000000000000204 .L0 
     /tmp/ccnvT4sd.s:392    .text:0000000000000208 .L0 
     /tmp/ccnvT4sd.s:393    .text:0000000000000208 .L0 
     /tmp/ccnvT4sd.s:395    .text:000000000000020c .L0 
     /tmp/ccnvT4sd.s:399    .text:0000000000000210 .L0 
     /tmp/ccnvT4sd.s:403    .text:0000000000000210 .L0 
     /tmp/ccnvT4sd.s:404    .text:0000000000000210 .L0 
     /tmp/ccnvT4sd.s:405    .text:0000000000000210 .L0 
     /tmp/ccnvT4sd.s:406    .text:0000000000000210 .L0 
     /tmp/ccnvT4sd.s:410    .text:0000000000000220 .L0 
     /tmp/ccnvT4sd.s:411    .text:0000000000000220 .L0 
     /tmp/ccnvT4sd.s:415    .text:0000000000000230 .L0 
     /tmp/ccnvT4sd.s:416    .text:0000000000000230 .L0 
     /tmp/ccnvT4sd.s:420    .text:0000000000000240 .L0 
     /tmp/ccnvT4sd.s:421    .text:0000000000000240 .L0 
     /tmp/ccnvT4sd.s:425    .text:000000000000024c .L0 
     /tmp/ccnvT4sd.s:426    .text:000000000000024c .L0 
GAS LISTING /tmp/ccnvT4sd.s 			page 39


     /tmp/ccnvT4sd.s:430    .text:000000000000025c .L0 
     /tmp/ccnvT4sd.s:431    .text:000000000000025c .L0 
     /tmp/ccnvT4sd.s:434    .text:0000000000000264 .L0 
     /tmp/ccnvT4sd.s:435    .text:0000000000000264 .L0 
     /tmp/ccnvT4sd.s:443    .text:000000000000026c .L0 
     /tmp/ccnvT4sd.s:444    .text:000000000000026c .L0 
     /tmp/ccnvT4sd.s:448    .text:000000000000027c .L0 
     /tmp/ccnvT4sd.s:449    .text:000000000000027c .L0 
     /tmp/ccnvT4sd.s:453    .text:000000000000028c .L0 
     /tmp/ccnvT4sd.s:454    .text:000000000000028c .L0 
     /tmp/ccnvT4sd.s:458    .text:000000000000029c .L0 
     /tmp/ccnvT4sd.s:459    .text:000000000000029c .L0 
     /tmp/ccnvT4sd.s:463    .text:00000000000002a8 .L0 
     /tmp/ccnvT4sd.s:464    .text:00000000000002a8 .L0 
     /tmp/ccnvT4sd.s:468    .text:00000000000002b8 .L0 
     /tmp/ccnvT4sd.s:469    .text:00000000000002b8 .L0 
     /tmp/ccnvT4sd.s:472    .text:00000000000002c0 .L0 
     /tmp/ccnvT4sd.s:473    .text:00000000000002c0 .L0 
     /tmp/ccnvT4sd.s:481    .text:00000000000002c8 .L0 
     /tmp/ccnvT4sd.s:482    .text:00000000000002c8 .L0 
     /tmp/ccnvT4sd.s:486    .text:00000000000002d8 .L0 
     /tmp/ccnvT4sd.s:487    .text:00000000000002d8 .L0 
     /tmp/ccnvT4sd.s:491    .text:00000000000002e8 .L0 
     /tmp/ccnvT4sd.s:492    .text:00000000000002e8 .L0 
     /tmp/ccnvT4sd.s:496    .text:00000000000002f8 .L0 
     /tmp/ccnvT4sd.s:497    .text:00000000000002f8 .L0 
     /tmp/ccnvT4sd.s:501    .text:0000000000000304 .L0 
     /tmp/ccnvT4sd.s:502    .text:0000000000000304 .L0 
     /tmp/ccnvT4sd.s:506    .text:0000000000000314 .L0 
     /tmp/ccnvT4sd.s:507    .text:0000000000000314 .L0 
     /tmp/ccnvT4sd.s:510    .text:000000000000031c .L0 
     /tmp/ccnvT4sd.s:511    .text:000000000000031c .L0 
     /tmp/ccnvT4sd.s:515    .text:0000000000000324 .L0 
     /tmp/ccnvT4sd.s:521    .text:0000000000000324 _ZN6Thread10allocStackEv
     /tmp/ccnvT4sd.s:524    .text:0000000000000324 .L0 
     /tmp/ccnvT4sd.s:526    .text:0000000000000324 .L0 
     /tmp/ccnvT4sd.s:527    .text:0000000000000328 .L0 
     /tmp/ccnvT4sd.s:532    .text:0000000000000338 .L0 
     /tmp/ccnvT4sd.s:533    .text:0000000000000338 .L0 
     /tmp/ccnvT4sd.s:534    .text:0000000000000338 .L0 
     /tmp/ccnvT4sd.s:535    .text:0000000000000338 .L0 
     /tmp/ccnvT4sd.s:537    .text:000000000000033c .L0 
     /tmp/ccnvT4sd.s:539    .text:000000000000033c .L0 
     /tmp/ccnvT4sd.s:544    .text:0000000000000340 .L0 
     /tmp/ccnvT4sd.s:550    .text:0000000000000348 .L0 
     /tmp/ccnvT4sd.s:551    .text:0000000000000348 .L0 
     /tmp/ccnvT4sd.s:552    .text:0000000000000348 .L0 
     /tmp/ccnvT4sd.s:559    .text:0000000000000360 .L0 
     /tmp/ccnvT4sd.s:561    .text:0000000000000364 .L0 
     /tmp/ccnvT4sd.s:562    .text:0000000000000364 .L0 
     /tmp/ccnvT4sd.s:566    .text:000000000000036c .L0 
     /tmp/ccnvT4sd.s:567    .text:000000000000036c .L0 
     /tmp/ccnvT4sd.s:569    .text:0000000000000370 .L0 
     /tmp/ccnvT4sd.s:571    .text:0000000000000374 .L0 
     /tmp/ccnvT4sd.s:572    .text:0000000000000374 .L0 
     /tmp/ccnvT4sd.s:576    .text:0000000000000378 .L0 
     /tmp/ccnvT4sd.s:577    .text:0000000000000378 .L0 
GAS LISTING /tmp/ccnvT4sd.s 			page 40


     /tmp/ccnvT4sd.s:578    .text:0000000000000378 .L0 
     /tmp/ccnvT4sd.s:581    .text:0000000000000380 .L0 
     /tmp/ccnvT4sd.s:582    .text:0000000000000380 .L0 
     /tmp/ccnvT4sd.s:584    .text:0000000000000384 .L0 
     /tmp/ccnvT4sd.s:585    .text:0000000000000384 .L0 
     /tmp/ccnvT4sd.s:587    .text:0000000000000388 .L0 
     /tmp/ccnvT4sd.s:589    .text:000000000000038c .L0 
     /tmp/ccnvT4sd.s:592    .text:0000000000000390 .L0 
     /tmp/ccnvT4sd.s:596    .text:0000000000000394 .L0 
     /tmp/ccnvT4sd.s:600    .text:0000000000000394 .L0 
     /tmp/ccnvT4sd.s:601    .text:0000000000000394 .L0 
     /tmp/ccnvT4sd.s:606    .text:00000000000003a4 .L0 
     /tmp/ccnvT4sd.s:607    .text:00000000000003a4 .L0 
     /tmp/ccnvT4sd.s:611    .text:00000000000003b4 .L0 
     /tmp/ccnvT4sd.s:612    .text:00000000000003b4 .L0 
     /tmp/ccnvT4sd.s:616    .text:00000000000003c4 .L0 
     /tmp/ccnvT4sd.s:617    .text:00000000000003c4 .L0 
     /tmp/ccnvT4sd.s:621    .text:00000000000003d0 .L0 
     /tmp/ccnvT4sd.s:622    .text:00000000000003d0 .L0 
     /tmp/ccnvT4sd.s:626    .text:00000000000003e0 .L0 
     /tmp/ccnvT4sd.s:627    .text:00000000000003e0 .L0 
     /tmp/ccnvT4sd.s:630    .text:00000000000003e8 .L0 
     /tmp/ccnvT4sd.s:631    .text:00000000000003e8 .L0 
     /tmp/ccnvT4sd.s:635    .text:00000000000003f0 .L0 
     /tmp/ccnvT4sd.s:641    .text:00000000000003f0 _ZN6Thread4initEPFvPvES0_S0_
     /tmp/ccnvT4sd.s:644    .text:00000000000003f0 .L0 
     /tmp/ccnvT4sd.s:646    .text:00000000000003f0 .L0 
     /tmp/ccnvT4sd.s:647    .text:00000000000003f4 .L0 
     /tmp/ccnvT4sd.s:650    .text:00000000000003fc .L0 
     /tmp/ccnvT4sd.s:651    .text:00000000000003fc .L0 
     /tmp/ccnvT4sd.s:653    .text:0000000000000400 .L0 
     /tmp/ccnvT4sd.s:655    .text:0000000000000400 .L0 
     /tmp/ccnvT4sd.s:661    .text:000000000000040c .L0 
     /tmp/ccnvT4sd.s:666    .text:0000000000000410 .L0 
     /tmp/ccnvT4sd.s:667    .text:0000000000000410 .L0 
     /tmp/ccnvT4sd.s:668    .text:0000000000000410 .L0 
     /tmp/ccnvT4sd.s:672    .text:0000000000000420 .L0 
     /tmp/ccnvT4sd.s:673    .text:0000000000000420 .L0 
     /tmp/ccnvT4sd.s:676    .text:0000000000000428 .L0 
     /tmp/ccnvT4sd.s:681    .text:000000000000042c .L0 
     /tmp/ccnvT4sd.s:686    .text:0000000000000430 .L0 
     /tmp/ccnvT4sd.s:687    .text:0000000000000430 .L0 
     /tmp/ccnvT4sd.s:688    .text:0000000000000430 .L0 
     /tmp/ccnvT4sd.s:689    .text:0000000000000430 .L0 
     /tmp/ccnvT4sd.s:692    .text:0000000000000438 .L0 
     /tmp/ccnvT4sd.s:693    .text:0000000000000438 .L0 
     /tmp/ccnvT4sd.s:695    .text:000000000000043c .L0 
     /tmp/ccnvT4sd.s:696    .text:000000000000043c .L0 
     /tmp/ccnvT4sd.s:698    .text:0000000000000440 .L0 
     /tmp/ccnvT4sd.s:699    .text:0000000000000440 .L0 
     /tmp/ccnvT4sd.s:701    .text:0000000000000444 .L0 
     /tmp/ccnvT4sd.s:702    .text:0000000000000444 .L0 
     /tmp/ccnvT4sd.s:706    .text:0000000000000448 .L0 
     /tmp/ccnvT4sd.s:707    .text:0000000000000448 .L0 
     /tmp/ccnvT4sd.s:711    .text:000000000000044c .L0 
     /tmp/ccnvT4sd.s:714    .text:0000000000000454 .L0 
     /tmp/ccnvT4sd.s:715    .text:0000000000000454 .L0 
GAS LISTING /tmp/ccnvT4sd.s 			page 41


     /tmp/ccnvT4sd.s:718    .text:000000000000045c .L0 
     /tmp/ccnvT4sd.s:720    .text:0000000000000460 .L0 
     /tmp/ccnvT4sd.s:729    .text:0000000000000468 .L0 
     /tmp/ccnvT4sd.s:730    .text:0000000000000468 .L0 
     /tmp/ccnvT4sd.s:735    .text:0000000000000478 .L0 
     /tmp/ccnvT4sd.s:736    .text:0000000000000478 .L0 
     /tmp/ccnvT4sd.s:740    .text:0000000000000488 .L0 
     /tmp/ccnvT4sd.s:741    .text:0000000000000488 .L0 
     /tmp/ccnvT4sd.s:745    .text:0000000000000498 .L0 
     /tmp/ccnvT4sd.s:746    .text:0000000000000498 .L0 
     /tmp/ccnvT4sd.s:750    .text:00000000000004a4 .L0 
     /tmp/ccnvT4sd.s:751    .text:00000000000004a4 .L0 
     /tmp/ccnvT4sd.s:755    .text:00000000000004b4 .L0 
     /tmp/ccnvT4sd.s:756    .text:00000000000004b4 .L0 
     /tmp/ccnvT4sd.s:759    .text:00000000000004bc .L0 
     /tmp/ccnvT4sd.s:760    .text:00000000000004bc .L0 
     /tmp/ccnvT4sd.s:768    .text:00000000000004c4 .L0 
     /tmp/ccnvT4sd.s:769    .text:00000000000004c4 .L0 
     /tmp/ccnvT4sd.s:774    .text:00000000000004d4 .L0 
     /tmp/ccnvT4sd.s:775    .text:00000000000004d4 .L0 
     /tmp/ccnvT4sd.s:779    .text:00000000000004e4 .L0 
     /tmp/ccnvT4sd.s:780    .text:00000000000004e4 .L0 
     /tmp/ccnvT4sd.s:784    .text:00000000000004f4 .L0 
     /tmp/ccnvT4sd.s:785    .text:00000000000004f4 .L0 
     /tmp/ccnvT4sd.s:789    .text:0000000000000500 .L0 
     /tmp/ccnvT4sd.s:790    .text:0000000000000500 .L0 
     /tmp/ccnvT4sd.s:794    .text:0000000000000510 .L0 
     /tmp/ccnvT4sd.s:795    .text:0000000000000510 .L0 
     /tmp/ccnvT4sd.s:798    .text:0000000000000518 .L0 
     /tmp/ccnvT4sd.s:799    .text:0000000000000518 .L0 
     /tmp/ccnvT4sd.s:805    .text:0000000000000520 .L0 
     /tmp/ccnvT4sd.s:806    .text:0000000000000520 .L0 
     /tmp/ccnvT4sd.s:808    .text:0000000000000524 .L0 
     /tmp/ccnvT4sd.s:809    .text:0000000000000524 .L0 
     /tmp/ccnvT4sd.s:811    .text:0000000000000528 .L0 
     /tmp/ccnvT4sd.s:812    .text:0000000000000528 .L0 
     /tmp/ccnvT4sd.s:816    .text:0000000000000534 .L0 
     /tmp/ccnvT4sd.s:817    .text:0000000000000534 .L0 
     /tmp/ccnvT4sd.s:820    .text:000000000000053c .L0 
     /tmp/ccnvT4sd.s:821    .text:0000000000000540 .L0 
     /tmp/ccnvT4sd.s:823    .text:0000000000000544 .L0 
     /tmp/ccnvT4sd.s:824    .text:0000000000000544 .L0 
     /tmp/ccnvT4sd.s:826    .text:0000000000000548 .L0 
     /tmp/ccnvT4sd.s:828    .text:000000000000054c .L0 
     /tmp/ccnvT4sd.s:834    .text:000000000000054c _ZN6Thread12createThreadEPmPFvPvES1_
     /tmp/ccnvT4sd.s:837    .text:000000000000054c .L0 
     /tmp/ccnvT4sd.s:839    .text:000000000000054c .L0 
     /tmp/ccnvT4sd.s:840    .text:0000000000000550 .L0 
     /tmp/ccnvT4sd.s:847    .text:0000000000000568 .L0 
     /tmp/ccnvT4sd.s:848    .text:0000000000000568 .L0 
     /tmp/ccnvT4sd.s:849    .text:0000000000000568 .L0 
     /tmp/ccnvT4sd.s:850    .text:0000000000000568 .L0 
     /tmp/ccnvT4sd.s:851    .text:0000000000000568 .L0 
     /tmp/ccnvT4sd.s:852    .text:0000000000000568 .L0 
     /tmp/ccnvT4sd.s:854    .text:000000000000056c .L0 
     /tmp/ccnvT4sd.s:856    .text:000000000000056c .L0 
     /tmp/ccnvT4sd.s:862    .text:0000000000000578 .L0 
GAS LISTING /tmp/ccnvT4sd.s 			page 42


     /tmp/ccnvT4sd.s:870    .text:0000000000000588 .L0 
     /tmp/ccnvT4sd.s:871    .text:0000000000000588 .L0 
     /tmp/ccnvT4sd.s:872    .text:0000000000000588 .L0 
     /tmp/ccnvT4sd.s:880    .text:00000000000005a0 .L0 
     /tmp/ccnvT4sd.s:881    .text:00000000000005a0 .L0 
     /tmp/ccnvT4sd.s:887    .text:00000000000005bc .L0 
     /tmp/ccnvT4sd.s:888    .text:00000000000005bc .L0 
     /tmp/ccnvT4sd.s:890    .text:00000000000005c0 .L0 
     /tmp/ccnvT4sd.s:891    .text:00000000000005c0 .L0 
     /tmp/ccnvT4sd.s:896    .text:00000000000005cc .L0 
     /tmp/ccnvT4sd.s:897    .text:00000000000005cc .L0 
     /tmp/ccnvT4sd.s:904    .text:00000000000005e0 .L0 
     /tmp/ccnvT4sd.s:905    .text:00000000000005e0 .L0 
     /tmp/ccnvT4sd.s:907    .text:00000000000005e4 .L0 
     /tmp/ccnvT4sd.s:909    .text:00000000000005e8 .L0 
     /tmp/ccnvT4sd.s:910    .text:00000000000005e8 .L0 
     /tmp/ccnvT4sd.s:914    .text:00000000000005f4 .L0 
     /tmp/ccnvT4sd.s:915    .text:00000000000005f4 .L0 
     /tmp/ccnvT4sd.s:917    .text:00000000000005fc .L0 
     /tmp/ccnvT4sd.s:918    .text:00000000000005fc .L0 
     /tmp/ccnvT4sd.s:920    .text:0000000000000600 .L0 
     /tmp/ccnvT4sd.s:921    .text:0000000000000600 .L0 
     /tmp/ccnvT4sd.s:923    .text:0000000000000604 .L0 
     /tmp/ccnvT4sd.s:926    .text:0000000000000608 .L0 
     /tmp/ccnvT4sd.s:929    .text:000000000000060c .L0 
     /tmp/ccnvT4sd.s:932    .text:0000000000000610 .L0 
     /tmp/ccnvT4sd.s:935    .text:0000000000000614 .L0 
     /tmp/ccnvT4sd.s:939    .text:0000000000000618 .L0 
     /tmp/ccnvT4sd.s:943    .text:0000000000000618 .L0 
     /tmp/ccnvT4sd.s:944    .text:0000000000000618 .L0 
     /tmp/ccnvT4sd.s:949    .text:0000000000000628 .L0 
     /tmp/ccnvT4sd.s:950    .text:0000000000000628 .L0 
     /tmp/ccnvT4sd.s:954    .text:0000000000000638 .L0 
     /tmp/ccnvT4sd.s:955    .text:0000000000000638 .L0 
     /tmp/ccnvT4sd.s:959    .text:0000000000000648 .L0 
     /tmp/ccnvT4sd.s:960    .text:0000000000000648 .L0 
     /tmp/ccnvT4sd.s:964    .text:0000000000000654 .L0 
     /tmp/ccnvT4sd.s:965    .text:0000000000000654 .L0 
     /tmp/ccnvT4sd.s:969    .text:0000000000000664 .L0 
     /tmp/ccnvT4sd.s:970    .text:0000000000000664 .L0 
     /tmp/ccnvT4sd.s:973    .text:000000000000066c .L0 
     /tmp/ccnvT4sd.s:974    .text:000000000000066c .L0 
     /tmp/ccnvT4sd.s:978    .text:0000000000000674 .L0 
     /tmp/ccnvT4sd.s:989    .text:0000000000000674 _ZN6Thread4exitEv
     /tmp/ccnvT4sd.s:992    .text:0000000000000674 .L0 
     /tmp/ccnvT4sd.s:993    .text:0000000000000674 .L0 
     /tmp/ccnvT4sd.s:994    .text:0000000000000678 .L0 
     /tmp/ccnvT4sd.s:998    .text:0000000000000684 .L0 
     /tmp/ccnvT4sd.s:999    .text:0000000000000684 .L0 
     /tmp/ccnvT4sd.s:1000   .text:0000000000000684 .L0 
     /tmp/ccnvT4sd.s:1002   .text:0000000000000688 .L0 
     /tmp/ccnvT4sd.s:1004   .text:0000000000000688 .L0 
     /tmp/ccnvT4sd.s:1005   .text:0000000000000688 .L0 
     /tmp/ccnvT4sd.s:1008   .text:0000000000000690 .L0 
     /tmp/ccnvT4sd.s:1013   .text:0000000000000694 .L0 
     /tmp/ccnvT4sd.s:1019   .text:000000000000069c .L0 
     /tmp/ccnvT4sd.s:1020   .text:000000000000069c .L0 
GAS LISTING /tmp/ccnvT4sd.s 			page 43


     /tmp/ccnvT4sd.s:1026   .text:00000000000006a4 .L0 
     /tmp/ccnvT4sd.s:1031   .text:00000000000006a8 .L0 
     /tmp/ccnvT4sd.s:1032   .text:00000000000006a8 .L0 
     /tmp/ccnvT4sd.s:1033   .text:00000000000006a8 .L0 
     /tmp/ccnvT4sd.s:1036   .text:00000000000006b0 .L0 
     /tmp/ccnvT4sd.s:1037   .text:00000000000006b0 .L0 
     /tmp/ccnvT4sd.s:1043   .text:00000000000006c4 .L0 
     /tmp/ccnvT4sd.s:1044   .text:00000000000006c4 .L0 
     /tmp/ccnvT4sd.s:1051   .text:00000000000006d0 .L0 
     /tmp/ccnvT4sd.s:1052   .text:00000000000006d0 .L0 
     /tmp/ccnvT4sd.s:1275   .bss._ZGVZN9Scheduler3getEvE8instance:0000000000000000 _ZGVZN9Scheduler3getEvE8instance
     /tmp/ccnvT4sd.s:1053   .text:00000000000006d0 .L0 
     /tmp/ccnvT4sd.s:1282   .bss._ZZN9Scheduler3getEvE8instance:0000000000000000 _ZZN9Scheduler3getEvE8instance
     /tmp/ccnvT4sd.s:1060   .text:00000000000006dc .L0 
     /tmp/ccnvT4sd.s:1066   .text:00000000000006e4 .L0 
     /tmp/ccnvT4sd.s:1072   .text:00000000000006f0 .L0 
     /tmp/ccnvT4sd.s:1073   .text:00000000000006f0 .L0 
     /tmp/ccnvT4sd.s:1077   .text:00000000000006f8 .L0 
     /tmp/ccnvT4sd.s:1082   .text:00000000000006fc .L0 
     /tmp/ccnvT4sd.s:1083   .text:00000000000006fc .L0 
     /tmp/ccnvT4sd.s:1086   .text:0000000000000704 .L0 
     /tmp/ccnvT4sd.s:1087   .text:0000000000000704 .L0 
     /tmp/ccnvT4sd.s:1089   .text:000000000000070c .L0 
     /tmp/ccnvT4sd.s:1090   .text:000000000000070c .L0 
     /tmp/ccnvT4sd.s:1092   .text:0000000000000710 .L0 
     /tmp/ccnvT4sd.s:1093   .text:0000000000000710 .L0 
     /tmp/ccnvT4sd.s:1095   .text:0000000000000714 .L0 
     /tmp/ccnvT4sd.s:1098   .text:0000000000000718 .L0 
     /tmp/ccnvT4sd.s:1102   .text:000000000000071c .L0 
     /tmp/ccnvT4sd.s:1106   .text:000000000000071c .L0 
     /tmp/ccnvT4sd.s:1107   .text:000000000000071c .L0 
     /tmp/ccnvT4sd.s:1112   .text:000000000000072c .L0 
     /tmp/ccnvT4sd.s:1113   .text:000000000000072c .L0 
     /tmp/ccnvT4sd.s:1117   .text:000000000000073c .L0 
     /tmp/ccnvT4sd.s:1118   .text:000000000000073c .L0 
     /tmp/ccnvT4sd.s:1122   .text:000000000000074c .L0 
     /tmp/ccnvT4sd.s:1123   .text:000000000000074c .L0 
     /tmp/ccnvT4sd.s:1127   .text:0000000000000758 .L0 
     /tmp/ccnvT4sd.s:1128   .text:0000000000000758 .L0 
     /tmp/ccnvT4sd.s:1132   .text:0000000000000768 .L0 
     /tmp/ccnvT4sd.s:1133   .text:0000000000000768 .L0 
     /tmp/ccnvT4sd.s:1136   .text:0000000000000770 .L0 
     /tmp/ccnvT4sd.s:1137   .text:0000000000000770 .L0 
     /tmp/ccnvT4sd.s:1145   .text:0000000000000778 .L0 
     /tmp/ccnvT4sd.s:1146   .text:0000000000000778 .L0 
     /tmp/ccnvT4sd.s:1150   .text:0000000000000788 .L0 
     /tmp/ccnvT4sd.s:1151   .text:0000000000000788 .L0 
     /tmp/ccnvT4sd.s:1155   .text:0000000000000798 .L0 
     /tmp/ccnvT4sd.s:1156   .text:0000000000000798 .L0 
     /tmp/ccnvT4sd.s:1160   .text:00000000000007a8 .L0 
     /tmp/ccnvT4sd.s:1161   .text:00000000000007a8 .L0 
     /tmp/ccnvT4sd.s:1165   .text:00000000000007b4 .L0 
     /tmp/ccnvT4sd.s:1166   .text:00000000000007b4 .L0 
     /tmp/ccnvT4sd.s:1170   .text:00000000000007c4 .L0 
     /tmp/ccnvT4sd.s:1171   .text:00000000000007c4 .L0 
     /tmp/ccnvT4sd.s:1174   .text:00000000000007cc .L0 
     /tmp/ccnvT4sd.s:1175   .text:00000000000007cc .L0 
GAS LISTING /tmp/ccnvT4sd.s 			page 44


     /tmp/ccnvT4sd.s:1183   .text:00000000000007d4 .L0 
     /tmp/ccnvT4sd.s:1184   .text:00000000000007d4 .L0 
     /tmp/ccnvT4sd.s:1188   .text:00000000000007e4 .L0 
     /tmp/ccnvT4sd.s:1189   .text:00000000000007e4 .L0 
     /tmp/ccnvT4sd.s:1192   .text:00000000000007ec .L0 
     /tmp/ccnvT4sd.s:1193   .text:00000000000007ec .L0 
     /tmp/ccnvT4sd.s:1199   .text:00000000000007fc .L0 
     /tmp/ccnvT4sd.s:1204   .text:0000000000000800 .L0 
     /tmp/ccnvT4sd.s:1205   .text:0000000000000800 .L0 
     /tmp/ccnvT4sd.s:1206   .text:0000000000000800 .L0 
     /tmp/ccnvT4sd.s:1209   .text:000000000000080c .L0 
     /tmp/ccnvT4sd.s:1212   .text:0000000000000814 .L0 
     /tmp/ccnvT4sd.s:1213   .text:0000000000000814 .L0 
     /tmp/ccnvT4sd.s:1224   .text:0000000000000824 .L0 
     /tmp/ccnvT4sd.s:1225   .text:0000000000000824 .L0 
     /tmp/ccnvT4sd.s:1229   .text:0000000000000834 .L0 
     /tmp/ccnvT4sd.s:1230   .text:0000000000000834 .L0 
     /tmp/ccnvT4sd.s:1234   .text:0000000000000844 .L0 
     /tmp/ccnvT4sd.s:1235   .text:0000000000000844 .L0 
     /tmp/ccnvT4sd.s:1239   .text:0000000000000854 .L0 
     /tmp/ccnvT4sd.s:1240   .text:0000000000000854 .L0 
     /tmp/ccnvT4sd.s:1244   .text:0000000000000860 .L0 
     /tmp/ccnvT4sd.s:1245   .text:0000000000000860 .L0 
     /tmp/ccnvT4sd.s:1249   .text:0000000000000870 .L0 
     /tmp/ccnvT4sd.s:1250   .text:0000000000000870 .L0 
     /tmp/ccnvT4sd.s:1253   .text:0000000000000878 .L0 
     /tmp/ccnvT4sd.s:1254   .text:0000000000000878 .L0 
     /tmp/ccnvT4sd.s:1260   .text:0000000000000880 .L0 
     /tmp/ccnvT4sd.s:1308   .bss:0000000000000330 _ZN6Thread22initialUserMemoryUsageE
     /tmp/ccnvT4sd.s:1304   .bss:0000000000000010 _ZN6Thread11pAllThreadsE
     /tmp/ccnvT4sd.s:1289   .data:0000000000000000 _ZN6Thread14nrTotalThreadsE
     /tmp/ccnvT4sd.s:1312   .bss:0000000000000338 _ZN6Thread20switchedToUserThreadE
     /tmp/ccnvT4sd.s:1317   .bss:0000000000000340 _ZN6Thread16timeSliceCounterE
     /tmp/ccnvT4sd.s:1300   .bss:0000000000000008 _ZN6Thread10pRunningSpE
     /tmp/ccnvT4sd.s:1296   .bss:0000000000000000 _ZN6Thread8pRunningE
     /tmp/ccnvT4sd.s:1286   .data:0000000000000000 .LANCHOR1
     /tmp/ccnvT4sd.s:1293   .bss:0000000000000000 .LANCHOR0
     /tmp/ccnvT4sd.s:1325   .text:0000000000000880 .L0 
     /tmp/ccnvT4sd.s:118    .text:0000000000000088 .L0 
     /tmp/ccnvT4sd.s:158    .text:00000000000000b8 .L0 
     /tmp/ccnvT4sd.s:209    .text:00000000000000f0 .L0 
     /tmp/ccnvT4sd.s:215    .text:0000000000000100 .L0 
     /tmp/ccnvT4sd.s:170    .rodata.str1.8:0000000000000000 .LC0
     /tmp/ccnvT4sd.s:284    .text:0000000000000154 .L0 
     /tmp/ccnvT4sd.s:173    .rodata.str1.8:0000000000000028 .LC1
     /tmp/ccnvT4sd.s:290    .text:0000000000000164 .L0 
     /tmp/ccnvT4sd.s:176    .rodata.str1.8:0000000000000038 .LC2
     /tmp/ccnvT4sd.s:295    .text:0000000000000174 .L0 
     /tmp/ccnvT4sd.s:179    .rodata.str1.8:0000000000000048 .LC3
     /tmp/ccnvT4sd.s:305    .text:0000000000000190 .L0 
     /tmp/ccnvT4sd.s:359    .text:00000000000001d4 .L0 
     /tmp/ccnvT4sd.s:406    .text:0000000000000210 .L0 
     /tmp/ccnvT4sd.s:411    .text:0000000000000220 .L0 
     /tmp/ccnvT4sd.s:416    .text:0000000000000230 .L0 
     /tmp/ccnvT4sd.s:426    .text:000000000000024c .L0 
     /tmp/ccnvT4sd.s:444    .text:000000000000026c .L0 
     /tmp/ccnvT4sd.s:449    .text:000000000000027c .L0 
GAS LISTING /tmp/ccnvT4sd.s 			page 45


     /tmp/ccnvT4sd.s:454    .text:000000000000028c .L0 
     /tmp/ccnvT4sd.s:464    .text:00000000000002a8 .L0 
     /tmp/ccnvT4sd.s:482    .text:00000000000002c8 .L0 
     /tmp/ccnvT4sd.s:487    .text:00000000000002d8 .L0 
     /tmp/ccnvT4sd.s:492    .text:00000000000002e8 .L0 
     /tmp/ccnvT4sd.s:502    .text:0000000000000304 .L0 
     /tmp/ccnvT4sd.s:601    .text:0000000000000394 .L0 
     /tmp/ccnvT4sd.s:607    .text:00000000000003a4 .L0 
     /tmp/ccnvT4sd.s:612    .text:00000000000003b4 .L0 
     /tmp/ccnvT4sd.s:622    .text:00000000000003d0 .L0 
     /tmp/ccnvT4sd.s:655    .text:0000000000000400 .L0 
     /tmp/ccnvT4sd.s:668    .text:0000000000000410 .L0 
     /tmp/ccnvT4sd.s:730    .text:0000000000000468 .L0 
     /tmp/ccnvT4sd.s:736    .text:0000000000000478 .L0 
     /tmp/ccnvT4sd.s:741    .text:0000000000000488 .L0 
     /tmp/ccnvT4sd.s:751    .text:00000000000004a4 .L0 
     /tmp/ccnvT4sd.s:769    .text:00000000000004c4 .L0 
     /tmp/ccnvT4sd.s:775    .text:00000000000004d4 .L0 
     /tmp/ccnvT4sd.s:780    .text:00000000000004e4 .L0 
     /tmp/ccnvT4sd.s:790    .text:0000000000000500 .L0 
     /tmp/ccnvT4sd.s:812    .text:0000000000000528 .L0 
     /tmp/ccnvT4sd.s:856    .text:000000000000056c .L0 
     /tmp/ccnvT4sd.s:881    .text:00000000000005a0 .L0 
     /tmp/ccnvT4sd.s:883    .text:00000000000005ac .L0 
     /tmp/ccnvT4sd.s:944    .text:0000000000000618 .L0 
     /tmp/ccnvT4sd.s:950    .text:0000000000000628 .L0 
     /tmp/ccnvT4sd.s:955    .text:0000000000000638 .L0 
     /tmp/ccnvT4sd.s:965    .text:0000000000000654 .L0 
     /tmp/ccnvT4sd.s:1053   .text:00000000000006d0 .L0 
     /tmp/ccnvT4sd.s:1060   .text:00000000000006dc .L0 
     /tmp/ccnvT4sd.s:1067   .text:00000000000006e8 .L0 
     /tmp/ccnvT4sd.s:1073   .text:00000000000006f0 .L0 
     /tmp/ccnvT4sd.s:1107   .text:000000000000071c .L0 
     /tmp/ccnvT4sd.s:1113   .text:000000000000072c .L0 
     /tmp/ccnvT4sd.s:1118   .text:000000000000073c .L0 
     /tmp/ccnvT4sd.s:1128   .text:0000000000000758 .L0 
     /tmp/ccnvT4sd.s:1146   .text:0000000000000778 .L0 
     /tmp/ccnvT4sd.s:1151   .text:0000000000000788 .L0 
     /tmp/ccnvT4sd.s:1156   .text:0000000000000798 .L0 
     /tmp/ccnvT4sd.s:1166   .text:00000000000007b4 .L0 
     /tmp/ccnvT4sd.s:983    .rodata.str1.8:0000000000000068 .LC4
     /tmp/ccnvT4sd.s:1184   .text:00000000000007d4 .L0 
     /tmp/ccnvT4sd.s:1193   .text:00000000000007ec .L0 
     /tmp/ccnvT4sd.s:1194   .text:00000000000007f4 .L0 
     /tmp/ccnvT4sd.s:1206   .text:0000000000000800 .L0 
     /tmp/ccnvT4sd.s:1225   .text:0000000000000824 .L0 
     /tmp/ccnvT4sd.s:1230   .text:0000000000000834 .L0 
     /tmp/ccnvT4sd.s:1235   .text:0000000000000844 .L0 
     /tmp/ccnvT4sd.s:1245   .text:0000000000000860 .L0 
     /tmp/ccnvT4sd.s:86     .text:0000000000000068 .L3
     /tmp/ccnvT4sd.s:67     .text:0000000000000048 .L5
     /tmp/ccnvT4sd.s:278    .text:0000000000000154 .L17
     /tmp/ccnvT4sd.s:264    .text:0000000000000140 .L11
     /tmp/ccnvT4sd.s:316    .text:00000000000001b0 .L18
     /tmp/ccnvT4sd.s:238    .text:000000000000011c .L14
     /tmp/ccnvT4sd.s:250    .text:000000000000012c .L15
     /tmp/ccnvT4sd.s:398    .text:0000000000000210 .L24
GAS LISTING /tmp/ccnvT4sd.s 			page 46


     /tmp/ccnvT4sd.s:437    .text:000000000000026c .L25
     /tmp/ccnvT4sd.s:475    .text:00000000000002c8 .L26
     /tmp/ccnvT4sd.s:595    .text:0000000000000394 .L31
     /tmp/ccnvT4sd.s:574    .text:0000000000000378 .L29
     /tmp/ccnvT4sd.s:724    .text:0000000000000468 .L38
     /tmp/ccnvT4sd.s:762    .text:00000000000004c4 .L39
     /tmp/ccnvT4sd.s:801    .text:0000000000000520 .L35
     /tmp/ccnvT4sd.s:709    .text:000000000000044c .L36
     /tmp/ccnvT4sd.s:938    .text:0000000000000618 .L43
     /tmp/ccnvT4sd.s:1101   .text:000000000000071c .L51
     /tmp/ccnvT4sd.s:1139   .text:0000000000000778 .L52
     /tmp/ccnvT4sd.s:1068   .text:00000000000006f0 .L47
     /tmp/ccnvT4sd.s:1177   .text:00000000000007d4 .L53
     /tmp/ccnvT4sd.s:1219   .text:0000000000000824 .L54
     /tmp/ccnvT4sd.s:1079   .text:00000000000006fc .L48
     /tmp/ccnvT4sd.s:3600   .debug_abbrev:0000000000000000 .Ldebug_abbrev0
     /tmp/ccnvT4sd.s:6064   .debug_str:00000000000006a5 .LASF126
     /tmp/ccnvT4sd.s:5868   .debug_str:00000000000000ee .LASF127
     /tmp/ccnvT4sd.s:6016   .debug_str:0000000000000549 .LASF128
     /tmp/ccnvT4sd.s:5      .text:0000000000000000 .Ltext0
     /tmp/ccnvT4sd.s:1320   .text:0000000000000880 .Letext0
     /tmp/ccnvT4sd.s:5838   .debug_line:0000000000000000 .Ldebug_line0
     /tmp/ccnvT4sd.s:5970   .debug_str:00000000000003f0 .LASF0
     /tmp/ccnvT4sd.s:5988   .debug_str:0000000000000481 .LASF1
     /tmp/ccnvT4sd.s:5952   .debug_str:0000000000000367 .LASF2
     /tmp/ccnvT4sd.s:5924   .debug_str:00000000000002ae .LASF4
     /tmp/ccnvT4sd.s:6040   .debug_str:00000000000005f1 .LASF3
     /tmp/ccnvT4sd.s:5864   .debug_str:00000000000000d7 .LASF5
     /tmp/ccnvT4sd.s:5992   .debug_str:0000000000000499 .LASF6
     /tmp/ccnvT4sd.s:5968   .debug_str:00000000000003dd .LASF7
     /tmp/ccnvT4sd.s:6078   .debug_str:00000000000007c5 .LASF8
     /tmp/ccnvT4sd.s:5908   .debug_str:000000000000023e .LASF9
     /tmp/ccnvT4sd.s:6010   .debug_str:00000000000004ff .LASF10
     /tmp/ccnvT4sd.s:6066   .debug_str:0000000000000769 .LASF11
     /tmp/ccnvT4sd.s:5866   .debug_str:00000000000000de .LASF12
     /tmp/ccnvT4sd.s:5850   .debug_str:0000000000000080 .LASF13
     /tmp/ccnvT4sd.s:5876   .debug_str:000000000000013d .LASF14
     /tmp/ccnvT4sd.s:6034   .debug_str:00000000000005cb .LASF15
     /tmp/ccnvT4sd.s:5888   .debug_str:000000000000018a .LASF16
     /tmp/ccnvT4sd.s:6070   .debug_str:000000000000078b .LASF46
     /tmp/ccnvT4sd.s:5912   .debug_str:0000000000000252 .LASF129
     /tmp/ccnvT4sd.s:6002   .debug_str:00000000000004db .LASF17
     /tmp/ccnvT4sd.s:5960   .debug_str:0000000000000390 .LASF18
     /tmp/ccnvT4sd.s:6008   .debug_str:00000000000004f9 .LASF19
     /tmp/ccnvT4sd.s:5958   .debug_str:0000000000000383 .LASF20
     /tmp/ccnvT4sd.s:5944   .debug_str:0000000000000326 .LASF21
     /tmp/ccnvT4sd.s:6000   .debug_str:00000000000004cf .LASF22
     /tmp/ccnvT4sd.s:5984   .debug_str:000000000000045b .LASF23
     /tmp/ccnvT4sd.s:6060   .debug_str:000000000000068e .LASF24
     /tmp/ccnvT4sd.s:6042   .debug_str:0000000000000603 .LASF25
     /tmp/ccnvT4sd.s:5922   .debug_str:00000000000002a2 .LASF26
     /tmp/ccnvT4sd.s:5900   .debug_str:00000000000001fe .LASF27
     /tmp/ccnvT4sd.s:5842   .debug_str:0000000000000006 .LASF28
     /tmp/ccnvT4sd.s:6062   .debug_str:0000000000000699 .LASF29
     /tmp/ccnvT4sd.s:5890   .debug_str:00000000000001a0 .LASF31
     /tmp/ccnvT4sd.s:6006   .debug_str:00000000000004ed .LASF33
     /tmp/ccnvT4sd.s:6028   .debug_str:0000000000000598 .LASF35
GAS LISTING /tmp/ccnvT4sd.s 			page 47


     /tmp/ccnvT4sd.s:5934   .debug_str:00000000000002d5 .LASF45
     /tmp/ccnvT4sd.s:5846   .debug_str:000000000000003a .LASF47
     /tmp/ccnvT4sd.s:6026   .debug_str:0000000000000593 .LASF130
     /tmp/ccnvT4sd.s:5946   .debug_str:0000000000000332 .LASF30
     /tmp/ccnvT4sd.s:5862   .debug_str:00000000000000c5 .LASF32
     /tmp/ccnvT4sd.s:6108   .debug_str:00000000000008ae .LASF82
     /tmp/ccnvT4sd.s:5972   .debug_str:00000000000003fd .LASF84
     /tmp/ccnvT4sd.s:6044   .debug_str:0000000000000614 .LASF34
     /tmp/ccnvT4sd.s:5856   .debug_str:00000000000000a2 .LASF36
     /tmp/ccnvT4sd.s:5858   .debug_str:00000000000000b4 .LASF37
     /tmp/ccnvT4sd.s:5928   .debug_str:00000000000002c0 .LASF38
     /tmp/ccnvT4sd.s:5978   .debug_str:000000000000042a .LASF39
     /tmp/ccnvT4sd.s:6106   .debug_str:00000000000008a2 .LASF40
     /tmp/ccnvT4sd.s:5980   .debug_str:000000000000042f .LASF41
     /tmp/ccnvT4sd.s:5910   .debug_str:000000000000024c .LASF42
     /tmp/ccnvT4sd.s:6086   .debug_str:0000000000000814 .LASF43
     /tmp/ccnvT4sd.s:5956   .debug_str:000000000000037e .LASF44
     /tmp/ccnvT4sd.s:6014   .debug_str:0000000000000532 .LASF48
     /tmp/ccnvT4sd.s:6030   .debug_str:00000000000005b4 .LASF49
     /tmp/ccnvT4sd.s:5998   .debug_str:00000000000004ca .LASF50
     /tmp/ccnvT4sd.s:5936   .debug_str:00000000000002e2 .LASF51
     /tmp/ccnvT4sd.s:5852   .debug_str:0000000000000090 .LASF66
     /tmp/ccnvT4sd.s:5904   .debug_str:0000000000000212 .LASF68
     /tmp/ccnvT4sd.s:5894   .debug_str:00000000000001c7 .LASF52
     /tmp/ccnvT4sd.s:6056   .debug_str:0000000000000670 .LASF53
     /tmp/ccnvT4sd.s:6046   .debug_str:0000000000000619 .LASF54
     /tmp/ccnvT4sd.s:5974   .debug_str:0000000000000418 .LASF55
     /tmp/ccnvT4sd.s:5902   .debug_str:000000000000020d .LASF56
     /tmp/ccnvT4sd.s:5954   .debug_str:0000000000000375 .LASF57
     /tmp/ccnvT4sd.s:5906   .debug_str:000000000000022b .LASF80
     /tmp/ccnvT4sd.s:6050   .debug_str:0000000000000643 .LASF61
     /tmp/ccnvT4sd.s:6058   .debug_str:0000000000000689 .LASF58
     /tmp/ccnvT4sd.s:6092   .debug_str:000000000000083f .LASF59
     /tmp/ccnvT4sd.s:5844   .debug_str:000000000000001d .LASF63
     /tmp/ccnvT4sd.s:5966   .debug_str:00000000000003d3 .LASF60
     /tmp/ccnvT4sd.s:5920   .debug_str:0000000000000298 .LASF62
     /tmp/ccnvT4sd.s:5948   .debug_str:0000000000000337 .LASF64
     /tmp/ccnvT4sd.s:6080   .debug_str:00000000000007d5 .LASF65
     /tmp/ccnvT4sd.s:6090   .debug_str:0000000000000836 .LASF67
     /tmp/ccnvT4sd.s:5872   .debug_str:000000000000010d .LASF69
     /tmp/ccnvT4sd.s:5932   .debug_str:00000000000002cd .LASF70
     /tmp/ccnvT4sd.s:5914   .debug_str:0000000000000258 .LASF71
     /tmp/ccnvT4sd.s:6072   .debug_str:0000000000000792 .LASF72
     /tmp/ccnvT4sd.s:5848   .debug_str:000000000000005f .LASF73
     /tmp/ccnvT4sd.s:6096   .debug_str:000000000000084e .LASF74
     /tmp/ccnvT4sd.s:6098   .debug_str:0000000000000861 .LASF75
     /tmp/ccnvT4sd.s:5942   .debug_str:0000000000000318 .LASF76
     /tmp/ccnvT4sd.s:5986   .debug_str:0000000000000470 .LASF77
     /tmp/ccnvT4sd.s:5996   .debug_str:00000000000004c5 .LASF78
     /tmp/ccnvT4sd.s:6004   .debug_str:00000000000004e3 .LASF79
     /tmp/ccnvT4sd.s:5916   .debug_str:0000000000000270 .LASF81
     /tmp/ccnvT4sd.s:6018   .debug_str:000000000000055d .LASF83
     /tmp/ccnvT4sd.s:5878   .debug_str:0000000000000149 .LASF85
     /tmp/ccnvT4sd.s:5930   .debug_str:00000000000002c5 .LASF86
     /tmp/ccnvT4sd.s:5874   .debug_str:0000000000000125 .LASF87
     /tmp/ccnvT4sd.s:5964   .debug_str:00000000000003b8 .LASF131
     /tmp/ccnvT4sd.s:5860   .debug_str:00000000000000ba .LASF88
GAS LISTING /tmp/ccnvT4sd.s 			page 48


     /tmp/ccnvT4sd.s:6052   .debug_str:000000000000064c .LASF89
     /tmp/ccnvT4sd.s:5880   .debug_str:0000000000000169 .LASF90
     /tmp/ccnvT4sd.s:5950   .debug_str:0000000000000355 .LASF91
     /tmp/ccnvT4sd.s:6088   .debug_str:0000000000000821 .LASF92
     /tmp/ccnvT4sd.s:6084   .debug_str:00000000000007fc .LASF93
     /tmp/ccnvT4sd.s:5962   .debug_str:000000000000039a .LASF94
     /tmp/ccnvT4sd.s:5982   .debug_str:0000000000000439 .LASF95
     /tmp/ccnvT4sd.s:6082   .debug_str:00000000000007e0 .LASF96
     /tmp/ccnvT4sd.s:5994   .debug_str:00000000000004ac .LASF97
     /tmp/ccnvT4sd.s:6012   .debug_str:000000000000050e .LASF98
     /tmp/ccnvT4sd.s:990    .text:0000000000000674 .LFB23
     /tmp/ccnvT4sd.s:1261   .text:0000000000000880 .LFE23
     /tmp/ccnvT4sd.s:4715   .debug_loc:0000000000000000 .LLST48
     /tmp/ccnvT4sd.s:6074   .debug_str:00000000000007a3 .LASF99
     /tmp/ccnvT4sd.s:4734   .debug_loc:000000000000005c .LLST49
     /tmp/ccnvT4sd.s:5770   .debug_ranges:0000000000000000 .Ldebug_ranges0
     /tmp/ccnvT4sd.s:5898   .debug_str:00000000000001f1 .LASF100
     /tmp/ccnvT4sd.s:1196   .text:00000000000007fc .LBB93
     /tmp/ccnvT4sd.s:4753   .debug_loc:000000000000009a .LLST57
     /tmp/ccnvT4sd.s:4768   .debug_loc:00000000000000d4 .LLST58
     /tmp/ccnvT4sd.s:4783   .debug_loc:000000000000011c .LLST59
     /tmp/ccnvT4sd.s:1227   .text:0000000000000834 .LVL164
     /tmp/ccnvT4sd.s:1232   .text:0000000000000844 .LVL165
     /tmp/ccnvT4sd.s:1237   .text:0000000000000854 .LVL166
     /tmp/ccnvT4sd.s:1242   .text:0000000000000860 .LVL167
     /tmp/ccnvT4sd.s:1247   .text:0000000000000870 .LVL168
     /tmp/ccnvT4sd.s:1251   .text:0000000000000878 .LVL169
     /tmp/ccnvT4sd.s:1255   .text:0000000000000880 .LVL170
     /tmp/ccnvT4sd.s:1186   .text:00000000000007e4 .LVL158
     /tmp/ccnvT4sd.s:1190   .text:00000000000007ec .LVL159
     /tmp/ccnvT4sd.s:1215   .text:0000000000000820 .LVL162
     /tmp/ccnvT4sd.s:1010   .text:0000000000000694 .LBB80
     /tmp/ccnvT4sd.s:4808   .debug_loc:0000000000000160 .LLST50
     /tmp/ccnvT4sd.s:4823   .debug_loc:000000000000019a .LLST51
     /tmp/ccnvT4sd.s:4838   .debug_loc:00000000000001e2 .LLST52
     /tmp/ccnvT4sd.s:1110   .text:000000000000072c .LVL144
     /tmp/ccnvT4sd.s:1115   .text:000000000000073c .LVL145
     /tmp/ccnvT4sd.s:1120   .text:000000000000074c .LVL146
     /tmp/ccnvT4sd.s:1125   .text:0000000000000758 .LVL147
     /tmp/ccnvT4sd.s:1130   .text:0000000000000768 .LVL148
     /tmp/ccnvT4sd.s:1134   .text:0000000000000770 .LVL149
     /tmp/ccnvT4sd.s:1138   .text:0000000000000778 .LVL150
     /tmp/ccnvT4sd.s:1023   .text:00000000000006a4 .LBB83
     /tmp/ccnvT4sd.s:4857   .debug_loc:0000000000000220 .LLST53
     /tmp/ccnvT4sd.s:4872   .debug_loc:000000000000025a .LLST54
     /tmp/ccnvT4sd.s:4887   .debug_loc:00000000000002a2 .LLST55
     /tmp/ccnvT4sd.s:1148   .text:0000000000000788 .LVL151
     /tmp/ccnvT4sd.s:1153   .text:0000000000000798 .LVL152
     /tmp/ccnvT4sd.s:1158   .text:00000000000007a8 .LVL153
     /tmp/ccnvT4sd.s:1163   .text:00000000000007b4 .LVL154
     /tmp/ccnvT4sd.s:1168   .text:00000000000007c4 .LVL155
     /tmp/ccnvT4sd.s:1172   .text:00000000000007cc .LVL156
     /tmp/ccnvT4sd.s:1176   .text:00000000000007d4 .LVL157
     /tmp/ccnvT4sd.s:1048   .text:00000000000006d0 .LBB86
     /tmp/ccnvT4sd.s:1071   .text:00000000000006f0 .LBE86
     /tmp/ccnvT4sd.s:1056   .text:00000000000006dc .LBB88
     /tmp/ccnvT4sd.s:1064   .text:00000000000006e4 .LBE88
GAS LISTING /tmp/ccnvT4sd.s 			page 49


     /tmp/ccnvT4sd.s:4898   .debug_loc:00000000000002d8 .LLST56
     /tmp/ccnvT4sd.s:1006   .text:0000000000000690 .LVL128
     /tmp/ccnvT4sd.s:1038   .text:00000000000006b8 .LVL133
     /tmp/ccnvT4sd.s:1041   .text:00000000000006c4 .LVL134
     /tmp/ccnvT4sd.s:1046   .text:00000000000006d0 .LVL135
     /tmp/ccnvT4sd.s:1084   .text:0000000000000704 .LVL140
     /tmp/ccnvT4sd.s:642    .text:00000000000003f0 .LFB22
     /tmp/ccnvT4sd.s:829    .text:000000000000054c .LFE22
     /tmp/ccnvT4sd.s:6020   .debug_str:000000000000056c .LASF105
     /tmp/ccnvT4sd.s:4907   .debug_loc:0000000000000304 .LLST29
     /tmp/ccnvT4sd.s:4936   .debug_loc:0000000000000379 .LLST30
     /tmp/ccnvT4sd.s:4965   .debug_loc:00000000000003ee .LLST31
     /tmp/ccnvT4sd.s:5938   .debug_str:00000000000002ff .LASF101
     /tmp/ccnvT4sd.s:4994   .debug_loc:0000000000000463 .LLST32
     /tmp/ccnvT4sd.s:705    .text:0000000000000448 .LBB58
     /tmp/ccnvT4sd.s:725    .text:0000000000000468 .LBE58
     /tmp/ccnvT4sd.s:5023   .debug_loc:00000000000004d8 .LLST39
     /tmp/ccnvT4sd.s:658    .text:000000000000040c .LBB52
     /tmp/ccnvT4sd.s:5039   .debug_loc:0000000000000522 .LLST33
     /tmp/ccnvT4sd.s:5054   .debug_loc:000000000000055c .LLST34
     /tmp/ccnvT4sd.s:5069   .debug_loc:00000000000005a4 .LLST35
     /tmp/ccnvT4sd.s:733    .text:0000000000000478 .LVL88
     /tmp/ccnvT4sd.s:738    .text:0000000000000488 .LVL89
     /tmp/ccnvT4sd.s:743    .text:0000000000000498 .LVL90
     /tmp/ccnvT4sd.s:748    .text:00000000000004a4 .LVL91
     /tmp/ccnvT4sd.s:753    .text:00000000000004b4 .LVL92
     /tmp/ccnvT4sd.s:757    .text:00000000000004bc .LVL93
     /tmp/ccnvT4sd.s:761    .text:00000000000004c4 .LVL94
     /tmp/ccnvT4sd.s:678    .text:000000000000042c .LBB55
     /tmp/ccnvT4sd.s:5096   .debug_loc:000000000000061c .LLST36
     /tmp/ccnvT4sd.s:5111   .debug_loc:0000000000000656 .LLST37
     /tmp/ccnvT4sd.s:5126   .debug_loc:000000000000069e .LLST38
     /tmp/ccnvT4sd.s:772    .text:00000000000004d4 .LVL96
     /tmp/ccnvT4sd.s:777    .text:00000000000004e4 .LVL97
     /tmp/ccnvT4sd.s:782    .text:00000000000004f4 .LVL98
     /tmp/ccnvT4sd.s:787    .text:0000000000000500 .LVL99
     /tmp/ccnvT4sd.s:792    .text:0000000000000510 .LVL100
     /tmp/ccnvT4sd.s:796    .text:0000000000000518 .LVL101
     /tmp/ccnvT4sd.s:800    .text:0000000000000520 .LVL102
     /tmp/ccnvT4sd.s:6054   .debug_str:0000000000000668 .LASF102
     /tmp/ccnvT4sd.s:5918   .debug_str:0000000000000284 .LASF103
     /tmp/ccnvT4sd.s:10     .text:0000000000000000 .LFB21
     /tmp/ccnvT4sd.s:43     .text:0000000000000030 .LFE21
     /tmp/ccnvT4sd.s:5892   .debug_str:00000000000001ba .LASF104
     /tmp/ccnvT4sd.s:5156   .debug_loc:00000000000006f6 .LLST0
     /tmp/ccnvT4sd.s:5170   .debug_loc:000000000000072f .LLST1
     /tmp/ccnvT4sd.s:5184   .debug_loc:0000000000000768 .LLST2
     /tmp/ccnvT4sd.s:28     .text:0000000000000018 .LVL2
     /tmp/ccnvT4sd.s:32     .text:0000000000000020 .LVL3
     /tmp/ccnvT4sd.s:522    .text:0000000000000324 .LFB20
     /tmp/ccnvT4sd.s:636    .text:00000000000003f0 .LFE20
     /tmp/ccnvT4sd.s:5198   .debug_loc:00000000000007a1 .LLST24
     /tmp/ccnvT4sd.s:5882   .debug_str:000000000000016f .LASF106
     /tmp/ccnvT4sd.s:5227   .debug_loc:0000000000000816 .LLST25
     /tmp/ccnvT4sd.s:541    .text:0000000000000340 .LBB43
     /tmp/ccnvT4sd.s:5244   .debug_loc:0000000000000862 .LLST26
     /tmp/ccnvT4sd.s:5259   .debug_loc:000000000000089c .LLST27
GAS LISTING /tmp/ccnvT4sd.s 			page 50


     /tmp/ccnvT4sd.s:5274   .debug_loc:00000000000008e4 .LLST28
     /tmp/ccnvT4sd.s:604    .text:00000000000003a4 .LVL71
     /tmp/ccnvT4sd.s:609    .text:00000000000003b4 .LVL72
     /tmp/ccnvT4sd.s:614    .text:00000000000003c4 .LVL73
     /tmp/ccnvT4sd.s:619    .text:00000000000003d0 .LVL74
     /tmp/ccnvT4sd.s:624    .text:00000000000003e0 .LVL75
     /tmp/ccnvT4sd.s:628    .text:00000000000003e8 .LVL76
     /tmp/ccnvT4sd.s:632    .text:00000000000003f0 .LVL77
     /tmp/ccnvT4sd.s:553    .text:0000000000000350 .LVL63
     /tmp/ccnvT4sd.s:557    .text:0000000000000360 .LVL64
     /tmp/ccnvT4sd.s:140    .text:00000000000000a8 .LFB19
     /tmp/ccnvT4sd.s:166    .text:00000000000000cc .LFE19
     /tmp/ccnvT4sd.s:835    .text:000000000000054c .LFB18
     /tmp/ccnvT4sd.s:979    .text:0000000000000674 .LFE18
     /tmp/ccnvT4sd.s:5293   .debug_loc:0000000000000922 .LLST40
     /tmp/ccnvT4sd.s:5322   .debug_loc:0000000000000997 .LLST41
     /tmp/ccnvT4sd.s:5351   .debug_loc:0000000000000a0c .LLST42
     /tmp/ccnvT4sd.s:5380   .debug_loc:0000000000000a81 .LLST43
     /tmp/ccnvT4sd.s:5387   .debug_loc:0000000000000aa4 .LLST44
     /tmp/ccnvT4sd.s:859    .text:0000000000000578 .LBB63
     /tmp/ccnvT4sd.s:5398   .debug_loc:0000000000000ada .LLST45
     /tmp/ccnvT4sd.s:5413   .debug_loc:0000000000000b14 .LLST46
     /tmp/ccnvT4sd.s:5428   .debug_loc:0000000000000b5c .LLST47
     /tmp/ccnvT4sd.s:947    .text:0000000000000628 .LVL121
     /tmp/ccnvT4sd.s:952    .text:0000000000000638 .LVL122
     /tmp/ccnvT4sd.s:957    .text:0000000000000648 .LVL123
     /tmp/ccnvT4sd.s:962    .text:0000000000000654 .LVL124
     /tmp/ccnvT4sd.s:967    .text:0000000000000664 .LVL125
     /tmp/ccnvT4sd.s:971    .text:000000000000066c .LVL126
     /tmp/ccnvT4sd.s:975    .text:0000000000000674 .LVL127
     /tmp/ccnvT4sd.s:873    .text:0000000000000590 .LVL107
     /tmp/ccnvT4sd.s:876    .text:000000000000059c .LVL108
     /tmp/ccnvT4sd.s:892    .text:00000000000005c8 .LVL110
     /tmp/ccnvT4sd.s:902    .text:00000000000005e0 .LVL113
     /tmp/ccnvT4sd.s:912    .text:00000000000005f4 .LVL114
     /tmp/ccnvT4sd.s:106    .text:000000000000007c .LFB17
     /tmp/ccnvT4sd.s:134    .text:00000000000000a8 .LFE17
     /tmp/ccnvT4sd.s:5455   .debug_loc:0000000000000bd4 .LLST5
     /tmp/ccnvT4sd.s:332    .text:00000000000001b8 .LFB16
     /tmp/ccnvT4sd.s:516    .text:0000000000000324 .LFE16
     /tmp/ccnvT4sd.s:5854   .debug_str:000000000000009b .LASF107
     /tmp/ccnvT4sd.s:5467   .debug_loc:0000000000000c12 .LLST13
     /tmp/ccnvT4sd.s:6068   .debug_str:0000000000000778 .LASF108
     /tmp/ccnvT4sd.s:5474   .debug_loc:0000000000000c35 .LLST14
     /tmp/ccnvT4sd.s:363    .text:00000000000001e0 .LBB31
     /tmp/ccnvT4sd.s:5493   .debug_loc:0000000000000c73 .LLST15
     /tmp/ccnvT4sd.s:5508   .debug_loc:0000000000000cad .LLST16
     /tmp/ccnvT4sd.s:5523   .debug_loc:0000000000000cf5 .LLST17
     /tmp/ccnvT4sd.s:446    .text:000000000000027c .LVL46
     /tmp/ccnvT4sd.s:451    .text:000000000000028c .LVL47
     /tmp/ccnvT4sd.s:456    .text:000000000000029c .LVL48
     /tmp/ccnvT4sd.s:461    .text:00000000000002a8 .LVL49
     /tmp/ccnvT4sd.s:466    .text:00000000000002b8 .LVL50
     /tmp/ccnvT4sd.s:470    .text:00000000000002c0 .LVL51
     /tmp/ccnvT4sd.s:474    .text:00000000000002c8 .LVL52
     /tmp/ccnvT4sd.s:381    .text:00000000000001fc .LBB34
     /tmp/ccnvT4sd.s:5542   .debug_loc:0000000000000d33 .LLST18
GAS LISTING /tmp/ccnvT4sd.s 			page 51


     /tmp/ccnvT4sd.s:5557   .debug_loc:0000000000000d6d .LLST19
     /tmp/ccnvT4sd.s:5572   .debug_loc:0000000000000db5 .LLST20
     /tmp/ccnvT4sd.s:484    .text:00000000000002d8 .LVL53
     /tmp/ccnvT4sd.s:489    .text:00000000000002e8 .LVL54
     /tmp/ccnvT4sd.s:494    .text:00000000000002f8 .LVL55
     /tmp/ccnvT4sd.s:499    .text:0000000000000304 .LVL56
     /tmp/ccnvT4sd.s:504    .text:0000000000000314 .LVL57
     /tmp/ccnvT4sd.s:508    .text:000000000000031c .LVL58
     /tmp/ccnvT4sd.s:512    .text:0000000000000324 .LVL59
     /tmp/ccnvT4sd.s:401    .text:0000000000000210 .LBB37
     /tmp/ccnvT4sd.s:439    .text:000000000000026c .LBE37
     /tmp/ccnvT4sd.s:5591   .debug_loc:0000000000000df3 .LLST21
     /tmp/ccnvT4sd.s:5600   .debug_loc:0000000000000e18 .LLST22
     /tmp/ccnvT4sd.s:5609   .debug_loc:0000000000000e44 .LLST23
     /tmp/ccnvT4sd.s:408    .text:0000000000000220 .LVL39
     /tmp/ccnvT4sd.s:413    .text:0000000000000230 .LVL40
     /tmp/ccnvT4sd.s:418    .text:0000000000000240 .LVL41
     /tmp/ccnvT4sd.s:423    .text:000000000000024c .LVL42
     /tmp/ccnvT4sd.s:428    .text:000000000000025c .LVL43
     /tmp/ccnvT4sd.s:432    .text:0000000000000264 .LVL44
     /tmp/ccnvT4sd.s:436    .text:000000000000026c .LVL45
     /tmp/ccnvT4sd.s:374    .text:00000000000001ec .LVL35
     /tmp/ccnvT4sd.s:377    .text:00000000000001f4 .LVL36
     /tmp/ccnvT4sd.s:186    .text:00000000000000cc .LFB15
     /tmp/ccnvT4sd.s:326    .text:00000000000001b8 .LFE15
     /tmp/ccnvT4sd.s:5617   .debug_loc:0000000000000e68 .LLST6
     /tmp/ccnvT4sd.s:6104   .debug_str:0000000000000897 .LASF109
     /tmp/ccnvT4sd.s:5635   .debug_loc:0000000000000eb4 .LLST7
     /tmp/ccnvT4sd.s:5650   .debug_loc:0000000000000efd .LLST8
     /tmp/ccnvT4sd.s:239    .text:000000000000011c .LBB20
     /tmp/ccnvT4sd.s:251    .text:000000000000012c .LBE20
     /tmp/ccnvT4sd.s:5990   .debug_str:0000000000000494 .LASF110
     /tmp/ccnvT4sd.s:5670   .debug_loc:0000000000000f5a .LLST12
     /tmp/ccnvT4sd.s:217    .text:0000000000000108 .LBB16
     /tmp/ccnvT4sd.s:5681   .debug_loc:0000000000000f90 .LLST9
     /tmp/ccnvT4sd.s:5696   .debug_loc:0000000000000fca .LLST10
     /tmp/ccnvT4sd.s:5711   .debug_loc:0000000000001012 .LLST11
     /tmp/ccnvT4sd.s:287    .text:0000000000000164 .LVL23
     /tmp/ccnvT4sd.s:292    .text:0000000000000174 .LVL24
     /tmp/ccnvT4sd.s:297    .text:0000000000000184 .LVL25
     /tmp/ccnvT4sd.s:302    .text:0000000000000190 .LVL26
     /tmp/ccnvT4sd.s:307    .text:00000000000001a0 .LVL27
     /tmp/ccnvT4sd.s:311    .text:00000000000001a8 .LVL28
     /tmp/ccnvT4sd.s:315    .text:00000000000001b0 .LVL29
     /tmp/ccnvT4sd.s:204    .text:00000000000000ec .LVL12
     /tmp/ccnvT4sd.s:263    .text:0000000000000140 .LVL20
     /tmp/ccnvT4sd.s:49     .text:0000000000000030 .LFB14
     /tmp/ccnvT4sd.s:100    .text:000000000000007c .LFE14
     /tmp/ccnvT4sd.s:5736   .debug_loc:0000000000001056 .LLST3
     /tmp/ccnvT4sd.s:5750   .debug_loc:000000000000108f .LLST4
     /tmp/ccnvT4sd.s:79     .text:0000000000000060 .LVL6
     /tmp/ccnvT4sd.s:6024   .debug_str:0000000000000581 .LASF132
     /tmp/ccnvT4sd.s:5976   .debug_str:0000000000000421 .LASF133
     /tmp/ccnvT4sd.s:5896   .debug_str:00000000000001d2 .LASF134
     /tmp/ccnvT4sd.s:6032   .debug_str:00000000000005c3 .LASF111
     /tmp/ccnvT4sd.s:5886   .debug_str:000000000000017a .LASF112
     /tmp/ccnvT4sd.s:5840   .debug_str:0000000000000000 .LASF113
GAS LISTING /tmp/ccnvT4sd.s 			page 52


     /tmp/ccnvT4sd.s:5884   .debug_str:0000000000000175 .LASF114
     /tmp/ccnvT4sd.s:6036   .debug_str:00000000000005e1 .LASF115
     /tmp/ccnvT4sd.s:5870   .debug_str:00000000000000fd .LASF116
     /tmp/ccnvT4sd.s:6094   .debug_str:0000000000000844 .LASF118
     /tmp/ccnvT4sd.s:5926   .debug_str:00000000000002b5 .LASF117
     /tmp/ccnvT4sd.s:6100   .debug_str:0000000000000884 .LASF119
     /tmp/ccnvT4sd.s:6048   .debug_str:0000000000000633 .LASF120
     /tmp/ccnvT4sd.s:6038   .debug_str:00000000000005e6 .LASF121
     /tmp/ccnvT4sd.s:6022   .debug_str:0000000000000571 .LASF122
     /tmp/ccnvT4sd.s:5940   .debug_str:000000000000030d .LASF123
     /tmp/ccnvT4sd.s:6076   .debug_str:00000000000007b4 .LASF124
     /tmp/ccnvT4sd.s:6102   .debug_str:000000000000088b .LASF125
     /tmp/ccnvT4sd.s:1096   .text:0000000000000714 .LVL141
     /tmp/ccnvT4sd.s:1100   .text:000000000000071c .LVL142
     /tmp/ccnvT4sd.s:1108   .text:0000000000000724 .LVL143
     /tmp/ccnvT4sd.s:1074   .text:00000000000006f8 .LVL138
     /tmp/ccnvT4sd.s:1078   .text:00000000000006fc .LVL139
     /tmp/ccnvT4sd.s:1195   .text:00000000000007fc .LVL160
     /tmp/ccnvT4sd.s:1201   .text:0000000000000800 .LVL161
     /tmp/ccnvT4sd.s:1218   .text:0000000000000824 .LVL163
     /tmp/ccnvT4sd.s:1009   .text:0000000000000694 .LVL129
     /tmp/ccnvT4sd.s:1016   .text:000000000000069c .LVL130
     /tmp/ccnvT4sd.s:1022   .text:00000000000006a4 .LVL131
     /tmp/ccnvT4sd.s:1028   .text:00000000000006a8 .LVL132
     /tmp/ccnvT4sd.s:1055   .text:00000000000006dc .LVL136
     /tmp/ccnvT4sd.s:1061   .text:00000000000006e4 .LVL137
     /tmp/ccnvT4sd.s:645    .text:00000000000003f0 .LVL78
     /tmp/ccnvT4sd.s:731    .text:0000000000000470 .LVL87
     /tmp/ccnvT4sd.s:770    .text:00000000000004cc .LVL95
     /tmp/ccnvT4sd.s:704    .text:0000000000000448 .LVL83
     /tmp/ccnvT4sd.s:708    .text:000000000000044c .LVL84
     /tmp/ccnvT4sd.s:721    .text:0000000000000464 .LVL85
     /tmp/ccnvT4sd.s:813    .text:0000000000000530 .LVL103
     /tmp/ccnvT4sd.s:657    .text:000000000000040c .LVL79
     /tmp/ccnvT4sd.s:663    .text:0000000000000410 .LVL80
     /tmp/ccnvT4sd.s:723    .text:0000000000000468 .LVL86
     /tmp/ccnvT4sd.s:677    .text:000000000000042c .LVL81
     /tmp/ccnvT4sd.s:683    .text:0000000000000430 .LVL82
     /tmp/ccnvT4sd.s:14     .text:0000000000000000 .LVL0
     /tmp/ccnvT4sd.s:26     .text:0000000000000014 .LVL1
     /tmp/ccnvT4sd.s:525    .text:0000000000000324 .LVL60
     /tmp/ccnvT4sd.s:590    .text:000000000000038c .LVL68
     /tmp/ccnvT4sd.s:594    .text:0000000000000394 .LVL69
     /tmp/ccnvT4sd.s:602    .text:000000000000039c .LVL70
     /tmp/ccnvT4sd.s:564    .text:000000000000036c .LVL65
     /tmp/ccnvT4sd.s:573    .text:0000000000000378 .LVL66
     /tmp/ccnvT4sd.s:579    .text:000000000000037c .LVL67
     /tmp/ccnvT4sd.s:540    .text:0000000000000340 .LVL61
     /tmp/ccnvT4sd.s:547    .text:0000000000000348 .LVL62
     /tmp/ccnvT4sd.s:838    .text:000000000000054c .LVL104
     /tmp/ccnvT4sd.s:927    .text:0000000000000608 .LVL116
     /tmp/ccnvT4sd.s:937    .text:0000000000000618 .LVL119
     /tmp/ccnvT4sd.s:945    .text:0000000000000620 .LVL120
     /tmp/ccnvT4sd.s:930    .text:000000000000060c .LVL117
     /tmp/ccnvT4sd.s:933    .text:0000000000000610 .LVL118
     /tmp/ccnvT4sd.s:878    .text:00000000000005a0 .LVL109
     /tmp/ccnvT4sd.s:924    .text:0000000000000604 .LVL115
GAS LISTING /tmp/ccnvT4sd.s 			page 53


     /tmp/ccnvT4sd.s:894    .text:00000000000005cc .LVL111
     /tmp/ccnvT4sd.s:900    .text:00000000000005d8 .LVL112
     /tmp/ccnvT4sd.s:858    .text:0000000000000578 .LVL105
     /tmp/ccnvT4sd.s:867    .text:0000000000000588 .LVL106
     /tmp/ccnvT4sd.s:109    .text:000000000000007c .LVL9
     /tmp/ccnvT4sd.s:123    .text:0000000000000098 .LVL10
     /tmp/ccnvT4sd.s:350    .text:00000000000001cc .LVL30
     /tmp/ccnvT4sd.s:355    .text:00000000000001d0 .LVL31
     /tmp/ccnvT4sd.s:360    .text:00000000000001dc .LVL32
     /tmp/ccnvT4sd.s:397    .text:0000000000000210 .LVL38
     /tmp/ccnvT4sd.s:362    .text:00000000000001e0 .LVL33
     /tmp/ccnvT4sd.s:368    .text:00000000000001e4 .LVL34
     /tmp/ccnvT4sd.s:380    .text:00000000000001fc .LVL37
     /tmp/ccnvT4sd.s:189    .text:00000000000000cc .LVL11
     /tmp/ccnvT4sd.s:208    .text:00000000000000f0 .LVL13
     /tmp/ccnvT4sd.s:277    .text:0000000000000154 .LVL21
     /tmp/ccnvT4sd.s:285    .text:000000000000015c .LVL22
     /tmp/ccnvT4sd.s:212    .text:0000000000000100 .LVL14
     /tmp/ccnvT4sd.s:237    .text:000000000000011c .LVL17
     /tmp/ccnvT4sd.s:249    .text:000000000000012c .LVL19
     /tmp/ccnvT4sd.s:244    .text:0000000000000124 .LVL18
     /tmp/ccnvT4sd.s:216    .text:0000000000000108 .LVL15
     /tmp/ccnvT4sd.s:223    .text:000000000000010c .LVL16
     /tmp/ccnvT4sd.s:52     .text:0000000000000030 .LVL4
     /tmp/ccnvT4sd.s:66     .text:0000000000000048 .LVL5
     /tmp/ccnvT4sd.s:95     .text:0000000000000074 .LVL8
     /tmp/ccnvT4sd.s:1326   .debug_info:0000000000000000 .Ldebug_info0
     /tmp/ccnvT4sd.s:225    .text:000000000000010c .LBE16
     /tmp/ccnvT4sd.s:280    .text:0000000000000154 .LBB21
     /tmp/ccnvT4sd.s:318    .text:00000000000001b0 .LBE21
     /tmp/ccnvT4sd.s:370    .text:00000000000001e4 .LBE31
     /tmp/ccnvT4sd.s:440    .text:000000000000026c .LBB39
     /tmp/ccnvT4sd.s:477    .text:00000000000002c8 .LBE39
     /tmp/ccnvT4sd.s:386    .text:0000000000000200 .LBE34
     /tmp/ccnvT4sd.s:478    .text:00000000000002c8 .LBB40
     /tmp/ccnvT4sd.s:514    .text:0000000000000324 .LBE40
     /tmp/ccnvT4sd.s:549    .text:0000000000000348 .LBE43
     /tmp/ccnvT4sd.s:597    .text:0000000000000394 .LBB46
     /tmp/ccnvT4sd.s:634    .text:00000000000003f0 .LBE46
     /tmp/ccnvT4sd.s:665    .text:0000000000000410 .LBE52
     /tmp/ccnvT4sd.s:726    .text:0000000000000468 .LBB59
     /tmp/ccnvT4sd.s:764    .text:00000000000004c4 .LBE59
     /tmp/ccnvT4sd.s:685    .text:0000000000000430 .LBE55
     /tmp/ccnvT4sd.s:765    .text:00000000000004c4 .LBB60
     /tmp/ccnvT4sd.s:803    .text:0000000000000520 .LBE60
     /tmp/ccnvT4sd.s:869    .text:0000000000000588 .LBE63
     /tmp/ccnvT4sd.s:940    .text:0000000000000618 .LBB66
     /tmp/ccnvT4sd.s:977    .text:0000000000000674 .LBE66
     /tmp/ccnvT4sd.s:1018   .text:000000000000069c .LBE80
     /tmp/ccnvT4sd.s:1103   .text:000000000000071c .LBB98
     /tmp/ccnvT4sd.s:1141   .text:0000000000000778 .LBE98
     /tmp/ccnvT4sd.s:1030   .text:00000000000006a8 .LBE83
     /tmp/ccnvT4sd.s:1142   .text:0000000000000778 .LBB99
     /tmp/ccnvT4sd.s:1179   .text:00000000000007d4 .LBE99
     /tmp/ccnvT4sd.s:1181   .text:00000000000007d4 .LBB92
     /tmp/ccnvT4sd.s:1216   .text:0000000000000820 .LBE92
     /tmp/ccnvT4sd.s:1220   .text:0000000000000824 .LBB97
GAS LISTING /tmp/ccnvT4sd.s 			page 54


     /tmp/ccnvT4sd.s:1258   .text:0000000000000880 .LBE97
     /tmp/ccnvT4sd.s:1203   .text:0000000000000800 .LBE93
     /tmp/ccnvT4sd.s:1221   .text:0000000000000824 .LBB96
     /tmp/ccnvT4sd.s:1257   .text:0000000000000880 .LBE96

UNDEFINED SYMBOLS
_Z11thread_exitv
_ZN9Scheduler3putEP6Thread
kernelThread
_ZN9Scheduler14dispatchToNextEv
_Z9putStringPKc
_Z6putInti
_Z10putNewlinev
_Z10stopKernelv
_ZN8MemAlloc3getEv
_ZN8MemAlloc8allocMemEm
_ZN8MemAlloc7freeMemEPv
