GAS LISTING /tmp/ccYM4oX2.s 			page 1


   1              		.file	"trap.cpp"
   2              		.option pic
   3              		.option norelax
   4              		.text
   5              	.Ltext0:
   6              		.align	2
   7              		.globl	_Z8testCallm
   9              	_Z8testCallm:
  10              	.LFB13:
  11              		.file 1 "src/trap.cpp"
   1:src/trap.cpp  **** #include "../h/trap.h"
   2:src/trap.cpp  **** #include "../h/thread.h"
   3:src/trap.cpp  **** #include "../h/scheduler.h"
   4:src/trap.cpp  **** 
   5:src/trap.cpp  **** int gTimer = 0;
   6:src/trap.cpp  **** 
   7:src/trap.cpp  **** uint64 testCall(uint64 n)
   8:src/trap.cpp  **** {
  12              		.loc 1 8 1
  13              		.cfi_startproc
  14              	.LVL0:
  15 0000 130101FF 		addi	sp,sp,-16
  16              		.cfi_def_cfa_offset 16
  17 0004 23348100 		sd	s0,8(sp)
  18              		.cfi_offset 8, -8
  19 0008 13040101 		addi	s0,sp,16
  20              		.cfi_def_cfa 8, 0
   9:src/trap.cpp  ****     return n * 2;
  21              		.loc 1 9 5
  10:src/trap.cpp  **** }
  22              		.loc 1 10 1 is_stmt 0
  23 000c 13151500 		slli	a0,a0,1
  24              	.LVL1:
  25 0010 03348100 		ld	s0,8(sp)
  26              		.cfi_restore 8
  27              		.cfi_def_cfa 2, 16
  28 0014 13010101 		addi	sp,sp,16
  29              		.cfi_def_cfa_offset 0
  30 0018 67800000 		jr	ra
  31              		.cfi_endproc
  32              	.LFE13:
  34              		.section	.rodata.str1.8,"aMS",@progbits,1
  35              		.align	3
  36              	.LC0:
  37 0000 3D3D3D3D 		.string	"===================== ASSERT file: "
  37      3D3D3D3D 
  37      3D3D3D3D 
  37      3D3D3D3D 
  37      3D3D3D3D 
  38 0024 00000000 		.align	3
  39              	.LC1:
  40 0028 7372632F 		.string	"src/trap.cpp"
  40      74726170 
  40      2E637070 
  40      00
  41 0035 000000   		.align	3
  42              	.LC2:
GAS LISTING /tmp/ccYM4oX2.s 			page 2


  43 0038 20202020 		.string	"    line: "
  43      6C696E65 
  43      3A2000
  44 0043 00000000 		.align	3
  44      00
  45              	.LC3:
  46 0048 2020203D 		.string	"   ==========================="
  46      3D3D3D3D 
  46      3D3D3D3D 
  46      3D3D3D3D 
  46      3D3D3D3D 
  47 0067 00       		.align	3
  48              	.LC4:
  49 0068 54696D65 		.string	"Time: "
  49      3A2000
  50 006f 00       		.align	3
  51              	.LC5:
  52 0070 7300     		.string	"s"
  53 0072 00000000 		.align	3
  53      0000
  54              	.LC6:
  55 0078 3D3D3D20 		.string	"=== Error: unknown external interrupt"
  55      4572726F 
  55      723A2075 
  55      6E6B6E6F 
  55      776E2065 
  56              		.text
  57              		.align	2
  58              		.globl	_Z25cExternalInterruptRoutinev
  60              	_Z25cExternalInterruptRoutinev:
  61              	.LFB14:
  11:src/trap.cpp  **** 
  12:src/trap.cpp  **** void cExternalInterruptRoutine()
  13:src/trap.cpp  **** {
  62              		.loc 1 13 1 is_stmt 1
  63              		.cfi_startproc
  64 001c 130101FE 		addi	sp,sp,-32
  65              		.cfi_def_cfa_offset 32
  66 0020 233C1100 		sd	ra,24(sp)
  67 0024 23388100 		sd	s0,16(sp)
  68 0028 23349100 		sd	s1,8(sp)
  69              		.cfi_offset 1, -8
  70              		.cfi_offset 8, -16
  71              		.cfi_offset 9, -24
  72 002c 13040102 		addi	s0,sp,32
  73              		.cfi_def_cfa 8, 0
  14:src/trap.cpp  ****     uint64 scause;
  74              		.loc 1 14 5
  15:src/trap.cpp  ****     __asm__ volatile ("csrr %[name], scause" : [name] "=r"(scause));
  75              		.loc 1 15 5
  76              		.loc 1 15 68 is_stmt 0
  77              	#APP
  78              	# 15 "src/trap.cpp" 1
  16              	
  79              		csrr a5, scause
  80              	# 0 "" 2
  81              	.LVL2:
GAS LISTING /tmp/ccYM4oX2.s 			page 3


  17:src/trap.cpp  ****     int isExternal = (scause & (0x1UL << 63)) != 0;
  82              		.loc 1 17 5 is_stmt 1
  18:src/trap.cpp  ****     int cause = scause & (~(1UL << 63));
  83              		.loc 1 18 5
  84              		.loc 1 18 9 is_stmt 0
  85              	#NO_APP
  86 0034 9B840700 		sext.w	s1,a5
  87              	.LVL3:
  19:src/trap.cpp  **** 
  20:src/trap.cpp  ****     assert(isExternal == 1);
  88              		.loc 1 20 5 is_stmt 1
  89              	.LBB8:
  90              	.LBB9:
  91              		.file 2 "src/../h/../h/../h/my_console.h"
   1:src/../h/../h/../h/my_console.h **** #pragma once
   2:src/../h/../h/../h/my_console.h **** 
   3:src/../h/../h/../h/my_console.h **** #include "../h/risc.h"
   4:src/../h/../h/../h/my_console.h **** 
   5:src/../h/../h/../h/my_console.h **** #include "../lib/console.h"
   6:src/../h/../h/../h/my_console.h **** #include "../lib/hw.h"
   7:src/../h/../h/../h/my_console.h **** 
   8:src/../h/../h/../h/my_console.h **** #define __DEBUG_MODE
   9:src/../h/../h/../h/my_console.h **** 
  10:src/../h/../h/../h/my_console.h **** 
  11:src/../h/../h/../h/my_console.h **** void putString(const char* s);
  12:src/../h/../h/../h/my_console.h **** void putInt(int n);
  13:src/../h/../h/../h/my_console.h **** void putNewline();
  14:src/../h/../h/../h/my_console.h **** void putU64(uint64 n);
  15:src/../h/../h/../h/my_console.h **** void putBinary(uint64 n);
  16:src/../h/../h/../h/my_console.h **** void stopKernel();
  17:src/../h/../h/../h/my_console.h **** 
  18:src/../h/../h/../h/my_console.h **** inline void _assert(bool valid, const char* file, int line) // MUST be inline
  19:src/../h/../h/../h/my_console.h **** {
  20:src/../h/../h/../h/my_console.h ****     if(valid)
  92              		.loc 2 20 5
  93 0038 63DE0710 		bgez	a5,.L10
  94              	.LVL4:
  95              	.L4:
  96              	.LBE9:
  97              	.LBE8:
  21:src/trap.cpp  **** 
  22:src/trap.cpp  ****     __asm__ volatile ("csrc sip, 0xA"); // clears the 9th bit in register sip. (the bit signifies e
  98              		.loc 1 22 5
  99              		.loc 1 22 39 is_stmt 0
 100              	#APP
 101              	# 22 "src/trap.cpp" 1
  23              	
  24:src/trap.cpp  ****     if(&(Thread::pRunning->context[0]) != Thread::pRunningContext)
 102              		csrc sip, 0xA
 103              	# 0 "" 2
 104              		.loc 1 24 5 is_stmt 1
 105              		.loc 1 24 37 is_stmt 0
 106              	#NO_APP
 107 0040 97070000 		la	a5,_ZN6Thread8pRunningE
 107      83B70700 
 108 0048 83B70700 		ld	a5,0(a5)
 109              		.loc 1 24 8
GAS LISTING /tmp/ccYM4oX2.s 			page 4


 110 004c 93870701 		addi	a5,a5,16
 111              		.loc 1 24 40
 112 0050 17070000 		la	a4,_ZN6Thread15pRunningContextE
 112      03370700 
 113 0058 03370700 		ld	a4,0(a4)
 114              		.loc 1 24 5
 115 005c 6380E706 		beq	a5,a4,.L5
  25:src/trap.cpp  ****     {
  26:src/trap.cpp  ****         assert(false);
 116              		.loc 1 26 9 is_stmt 1
 117              	.LVL5:
 118              	.LBB11:
 119              	.LBB12:
 120              		.loc 2 20 5
  21:src/../h/../h/../h/my_console.h ****         return;
  22:src/../h/../h/../h/my_console.h **** 
  23:src/../h/../h/../h/my_console.h ****     putString("===================== ASSERT file: ");
 121              		.loc 2 23 5
 122              		.loc 2 23 14 is_stmt 0
 123 0060 17050000 		lla	a0,.LC0
 123      13050500 
 124 0068 97000000 		call	_Z9putStringPKc@plt
 124      E7800000 
 125              	.LVL6:
  24:src/../h/../h/../h/my_console.h ****     putString(file);
 126              		.loc 2 24 5 is_stmt 1
 127              		.loc 2 24 14 is_stmt 0
 128 0070 17050000 		lla	a0,.LC1
 128      13050500 
 129 0078 97000000 		call	_Z9putStringPKc@plt
 129      E7800000 
 130              	.LVL7:
  25:src/../h/../h/../h/my_console.h ****     putString("    line: ");
 131              		.loc 2 25 5 is_stmt 1
 132              		.loc 2 25 14 is_stmt 0
 133 0080 17050000 		lla	a0,.LC2
 133      13050500 
 134 0088 97000000 		call	_Z9putStringPKc@plt
 134      E7800000 
 135              	.LVL8:
  26:src/../h/../h/../h/my_console.h ****     putInt(line);
 136              		.loc 2 26 5 is_stmt 1
 137              		.loc 2 26 11 is_stmt 0
 138 0090 1305A001 		li	a0,26
 139 0094 97000000 		call	_Z6putInti@plt
 139      E7800000 
 140              	.LVL9:
  27:src/../h/../h/../h/my_console.h ****     putString("   ===========================");
 141              		.loc 2 27 5 is_stmt 1
 142              		.loc 2 27 14 is_stmt 0
 143 009c 17050000 		lla	a0,.LC3
 143      13050500 
 144 00a4 97000000 		call	_Z9putStringPKc@plt
 144      E7800000 
 145              	.LVL10:
  28:src/../h/../h/../h/my_console.h ****     putNewline();
 146              		.loc 2 28 5 is_stmt 1
GAS LISTING /tmp/ccYM4oX2.s 			page 5


 147              		.loc 2 28 15 is_stmt 0
 148 00ac 97000000 		call	_Z10putNewlinev@plt
 148      E7800000 
 149              	.LVL11:
  29:src/../h/../h/../h/my_console.h **** 
  30:src/../h/../h/../h/my_console.h ****     stopKernel();
 150              		.loc 2 30 5 is_stmt 1
 151              		.loc 2 30 15 is_stmt 0
 152 00b4 97000000 		call	_Z10stopKernelv@plt
 152      E7800000 
 153              	.LVL12:
 154              	.L5:
 155              	.LBE12:
 156              	.LBE11:
  27:src/trap.cpp  ****     }
  28:src/trap.cpp  **** 
  29:src/trap.cpp  ****     if (cause == 1)
 157              		.loc 1 29 5 is_stmt 1
 158 00bc 93071000 		li	a5,1
 159 00c0 638AF40E 		beq	s1,a5,.L11
  30:src/trap.cpp  ****     {
  31:src/trap.cpp  ****         Thread::timeSliceCounter++;
  32:src/trap.cpp  ****         gTimer++;
  33:src/trap.cpp  **** 
  34:src/trap.cpp  ****         if (gTimer % 10 == 0)
  35:src/trap.cpp  ****         {
  36:src/trap.cpp  ****             putString("Time: ");
  37:src/trap.cpp  ****             putInt(gTimer / 10);
  38:src/trap.cpp  ****             putString("s");
  39:src/trap.cpp  ****             putNewline();
  40:src/trap.cpp  ****         }
  41:src/trap.cpp  **** 
  42:src/trap.cpp  **** //        if (Thread::timeSliceCounter >= Thread::pRunning->getTimeSlice())
  43:src/trap.cpp  **** //        {
  44:src/trap.cpp  **** //            Thread::timeSliceCounter = 0;
  45:src/trap.cpp  **** //            Scheduler::dispatchToNext();
  46:src/trap.cpp  **** //        }
  47:src/trap.cpp  ****     }
  48:src/trap.cpp  ****     else if (cause == 9)
 160              		.loc 1 48 10
 161 00c4 93079000 		li	a5,9
 162 00c8 6382F416 		beq	s1,a5,.L12
  49:src/trap.cpp  ****     {
  50:src/trap.cpp  ****         console_handler();
  51:src/trap.cpp  ****     }
  52:src/trap.cpp  ****     else
  53:src/trap.cpp  ****     {
  54:src/trap.cpp  ****         putString("=== Error: unknown external interrupt");
 163              		.loc 1 54 9
 164              		.loc 1 54 18 is_stmt 0
 165 00cc 17050000 		lla	a0,.LC6
 165      13050500 
 166 00d4 97000000 		call	_Z9putStringPKc@plt
 166      E7800000 
 167              	.LVL13:
  55:src/trap.cpp  ****         putNewline();
 168              		.loc 1 55 9 is_stmt 1
GAS LISTING /tmp/ccYM4oX2.s 			page 6


 169              		.loc 1 55 19 is_stmt 0
 170 00dc 97000000 		call	_Z10putNewlinev@plt
 170      E7800000 
 171              	.LVL14:
  56:src/trap.cpp  ****         assert(false);
 172              		.loc 1 56 9 is_stmt 1
 173              	.LBB13:
 174              	.LBB14:
  20:src/../h/../h/../h/my_console.h ****         return;
 175              		.loc 2 20 5
  23:src/../h/../h/../h/my_console.h ****     putString(file);
 176              		.loc 2 23 5
  23:src/../h/../h/../h/my_console.h ****     putString(file);
 177              		.loc 2 23 14 is_stmt 0
 178 00e4 17050000 		lla	a0,.LC0
 178      13050500 
 179 00ec 97000000 		call	_Z9putStringPKc@plt
 179      E7800000 
 180              	.LVL15:
  24:src/../h/../h/../h/my_console.h ****     putString("    line: ");
 181              		.loc 2 24 5 is_stmt 1
  24:src/../h/../h/../h/my_console.h ****     putString("    line: ");
 182              		.loc 2 24 14 is_stmt 0
 183 00f4 17050000 		lla	a0,.LC1
 183      13050500 
 184 00fc 97000000 		call	_Z9putStringPKc@plt
 184      E7800000 
 185              	.LVL16:
  25:src/../h/../h/../h/my_console.h ****     putInt(line);
 186              		.loc 2 25 5 is_stmt 1
  25:src/../h/../h/../h/my_console.h ****     putInt(line);
 187              		.loc 2 25 14 is_stmt 0
 188 0104 17050000 		lla	a0,.LC2
 188      13050500 
 189 010c 97000000 		call	_Z9putStringPKc@plt
 189      E7800000 
 190              	.LVL17:
  26:src/../h/../h/../h/my_console.h ****     putString("   ===========================");
 191              		.loc 2 26 5 is_stmt 1
  26:src/../h/../h/../h/my_console.h ****     putString("   ===========================");
 192              		.loc 2 26 11 is_stmt 0
 193 0114 13058003 		li	a0,56
 194 0118 97000000 		call	_Z6putInti@plt
 194      E7800000 
 195              	.LVL18:
  27:src/../h/../h/../h/my_console.h ****     putNewline();
 196              		.loc 2 27 5 is_stmt 1
  27:src/../h/../h/../h/my_console.h ****     putNewline();
 197              		.loc 2 27 14 is_stmt 0
 198 0120 17050000 		lla	a0,.LC3
 198      13050500 
 199 0128 97000000 		call	_Z9putStringPKc@plt
 199      E7800000 
 200              	.LVL19:
  28:src/../h/../h/../h/my_console.h **** 
 201              		.loc 2 28 5 is_stmt 1
  28:src/../h/../h/../h/my_console.h **** 
GAS LISTING /tmp/ccYM4oX2.s 			page 7


 202              		.loc 2 28 15 is_stmt 0
 203 0130 97000000 		call	_Z10putNewlinev@plt
 203      E7800000 
 204              	.LVL20:
 205              		.loc 2 30 5 is_stmt 1
 206              		.loc 2 30 15 is_stmt 0
 207 0138 97000000 		call	_Z10stopKernelv@plt
 207      E7800000 
 208              	.LVL21:
 209              	.L3:
 210              	.LBE14:
 211              	.LBE13:
  57:src/trap.cpp  ****     }
  58:src/trap.cpp  **** }
 212              		.loc 1 58 1
 213 0140 83308101 		ld	ra,24(sp)
 214              		.cfi_remember_state
 215              		.cfi_restore 1
 216 0144 03340101 		ld	s0,16(sp)
 217              		.cfi_restore 8
 218              		.cfi_def_cfa 2, 32
 219 0148 83348100 		ld	s1,8(sp)
 220              		.cfi_restore 9
 221              	.LVL22:
 222 014c 13010102 		addi	sp,sp,32
 223              		.cfi_def_cfa_offset 0
 224 0150 67800000 		jr	ra
 225              	.LVL23:
 226              	.L10:
 227              		.cfi_restore_state
 228              	.LBB15:
 229              	.LBB10:
  23:src/../h/../h/../h/my_console.h ****     putString(file);
 230              		.loc 2 23 5 is_stmt 1
  23:src/../h/../h/../h/my_console.h ****     putString(file);
 231              		.loc 2 23 14 is_stmt 0
 232 0154 17050000 		lla	a0,.LC0
 232      13050500 
 233 015c 97000000 		call	_Z9putStringPKc@plt
 233      E7800000 
 234              	.LVL24:
  24:src/../h/../h/../h/my_console.h ****     putString("    line: ");
 235              		.loc 2 24 5 is_stmt 1
  24:src/../h/../h/../h/my_console.h ****     putString("    line: ");
 236              		.loc 2 24 14 is_stmt 0
 237 0164 17050000 		lla	a0,.LC1
 237      13050500 
 238 016c 97000000 		call	_Z9putStringPKc@plt
 238      E7800000 
 239              	.LVL25:
  25:src/../h/../h/../h/my_console.h ****     putInt(line);
 240              		.loc 2 25 5 is_stmt 1
  25:src/../h/../h/../h/my_console.h ****     putInt(line);
 241              		.loc 2 25 14 is_stmt 0
 242 0174 17050000 		lla	a0,.LC2
 242      13050500 
 243 017c 97000000 		call	_Z9putStringPKc@plt
GAS LISTING /tmp/ccYM4oX2.s 			page 8


 243      E7800000 
 244              	.LVL26:
  26:src/../h/../h/../h/my_console.h ****     putString("   ===========================");
 245              		.loc 2 26 5 is_stmt 1
  26:src/../h/../h/../h/my_console.h ****     putString("   ===========================");
 246              		.loc 2 26 11 is_stmt 0
 247 0184 13054001 		li	a0,20
 248 0188 97000000 		call	_Z6putInti@plt
 248      E7800000 
 249              	.LVL27:
  27:src/../h/../h/../h/my_console.h ****     putNewline();
 250              		.loc 2 27 5 is_stmt 1
  27:src/../h/../h/../h/my_console.h ****     putNewline();
 251              		.loc 2 27 14 is_stmt 0
 252 0190 17050000 		lla	a0,.LC3
 252      13050500 
 253 0198 97000000 		call	_Z9putStringPKc@plt
 253      E7800000 
 254              	.LVL28:
  28:src/../h/../h/../h/my_console.h **** 
 255              		.loc 2 28 5 is_stmt 1
  28:src/../h/../h/../h/my_console.h **** 
 256              		.loc 2 28 15 is_stmt 0
 257 01a0 97000000 		call	_Z10putNewlinev@plt
 257      E7800000 
 258              	.LVL29:
 259              		.loc 2 30 5 is_stmt 1
 260              		.loc 2 30 15 is_stmt 0
 261 01a8 97000000 		call	_Z10stopKernelv@plt
 261      E7800000 
 262              	.LVL30:
 263 01b0 6FF0DFE8 		j	.L4
 264              	.LVL31:
 265              	.L11:
 266              	.LBE10:
 267              	.LBE15:
  31:src/trap.cpp  ****         gTimer++;
 268              		.loc 1 31 9 is_stmt 1
  31:src/trap.cpp  ****         gTimer++;
 269              		.loc 1 31 33 is_stmt 0
 270 01b4 17070000 		la	a4,_ZN6Thread16timeSliceCounterE
 270      03370700 
 271 01bc 83370700 		ld	a5,0(a4)
 272 01c0 93871700 		addi	a5,a5,1
 273 01c4 2330F700 		sd	a5,0(a4)
  32:src/trap.cpp  **** 
 274              		.loc 1 32 9 is_stmt 1
  32:src/trap.cpp  **** 
 275              		.loc 1 32 15 is_stmt 0
 276 01c8 17070000 		lla	a4,.LANCHOR0
 276      13070700 
 277 01d0 83270700 		lw	a5,0(a4)
 278 01d4 9B871700 		addiw	a5,a5,1
 279 01d8 2320F700 		sw	a5,0(a4)
  34:src/trap.cpp  ****         {
 280              		.loc 1 34 9 is_stmt 1
  34:src/trap.cpp  ****         {
GAS LISTING /tmp/ccYM4oX2.s 			page 9


 281              		.loc 1 34 20 is_stmt 0
 282 01dc 1307A000 		li	a4,10
 283 01e0 BBE7E702 		remw	a5,a5,a4
  34:src/trap.cpp  ****         {
 284              		.loc 1 34 9
 285 01e4 E39E07F4 		bnez	a5,.L3
  36:src/trap.cpp  ****             putInt(gTimer / 10);
 286              		.loc 1 36 13 is_stmt 1
  36:src/trap.cpp  ****             putInt(gTimer / 10);
 287              		.loc 1 36 22 is_stmt 0
 288 01e8 17050000 		lla	a0,.LC4
 288      13050500 
 289 01f0 97000000 		call	_Z9putStringPKc@plt
 289      E7800000 
 290              	.LVL32:
  37:src/trap.cpp  ****             putString("s");
 291              		.loc 1 37 13 is_stmt 1
  37:src/trap.cpp  ****             putString("s");
 292              		.loc 1 37 19 is_stmt 0
 293 01f8 17050000 		lw	a0,.LANCHOR0
 293      03250500 
 294 0200 9307A000 		li	a5,10
 295 0204 3B45F502 		divw	a0,a0,a5
 296 0208 97000000 		call	_Z6putInti@plt
 296      E7800000 
 297              	.LVL33:
  38:src/trap.cpp  ****             putNewline();
 298              		.loc 1 38 13 is_stmt 1
  38:src/trap.cpp  ****             putNewline();
 299              		.loc 1 38 22 is_stmt 0
 300 0210 17050000 		lla	a0,.LC5
 300      13050500 
 301 0218 97000000 		call	_Z9putStringPKc@plt
 301      E7800000 
 302              	.LVL34:
  39:src/trap.cpp  ****         }
 303              		.loc 1 39 13 is_stmt 1
  39:src/trap.cpp  ****         }
 304              		.loc 1 39 23 is_stmt 0
 305 0220 97000000 		call	_Z10putNewlinev@plt
 305      E7800000 
 306              	.LVL35:
 307 0228 6FF09FF1 		j	.L3
 308              	.L12:
  50:src/trap.cpp  ****     }
 309              		.loc 1 50 9 is_stmt 1
  50:src/trap.cpp  ****     }
 310              		.loc 1 50 24 is_stmt 0
 311 022c 97000000 		call	console_handler@plt
 311      E7800000 
 312              	.LVL36:
 313 0234 6FF0DFF0 		j	.L3
 314              		.cfi_endproc
 315              	.LFE14:
 317              		.align	2
 318              		.globl	_Z25cInternalInterruptRoutinev
 320              	_Z25cInternalInterruptRoutinev:
GAS LISTING /tmp/ccYM4oX2.s 			page 10


 321              	.LFB15:
  59:src/trap.cpp  **** 
  60:src/trap.cpp  **** void cInternalInterruptRoutine()
  61:src/trap.cpp  **** {
 322              		.loc 1 61 1 is_stmt 1
 323              		.cfi_startproc
 324 0238 130101FE 		addi	sp,sp,-32
 325              		.cfi_def_cfa_offset 32
 326 023c 233C1100 		sd	ra,24(sp)
 327 0240 23388100 		sd	s0,16(sp)
 328 0244 23349100 		sd	s1,8(sp)
 329              		.cfi_offset 1, -8
 330              		.cfi_offset 8, -16
 331              		.cfi_offset 9, -24
 332 0248 13040102 		addi	s0,sp,32
 333              		.cfi_def_cfa 8, 0
  62:src/trap.cpp  ****     uint64 scause;
 334              		.loc 1 62 5
  63:src/trap.cpp  ****     __asm__ volatile ("csrr %[name], scause" : [name] "=r"(scause));
 335              		.loc 1 63 5
 336              		.loc 1 63 68 is_stmt 0
 337              	#APP
 338              	# 63 "src/trap.cpp" 1
  64              	
 339              		csrr a5, scause
 340              	# 0 "" 2
 341              	.LVL37:
  65:src/trap.cpp  **** //    int isExternal = (scause & (0x1UL << 63)) != 0;
  66:src/trap.cpp  **** //    int cause = scause & (~(1UL << 63));
  67:src/trap.cpp  **** 
  68:src/trap.cpp  ****     __asm__ volatile ("csrc sip, 0x2"); // clears the 1st bit in register sip. (the bit signifies i
 342              		.loc 1 68 5 is_stmt 1
 343              		.loc 1 68 39 is_stmt 0
 344              	# 68 "src/trap.cpp" 1
  69              	
  70:src/trap.cpp  ****     uint64 code, parameter1;
 345              		csrc sip, 0x2
 346              	# 0 "" 2
 347              		.loc 1 70 5 is_stmt 1
  71:src/trap.cpp  ****     __asm__ volatile ("mv %[name], a0" : [name] "=r"(code));
 348              		.loc 1 71 5
 349              		.loc 1 71 60 is_stmt 0
 350              	# 71 "src/trap.cpp" 1
  72              	    __asm__ volatile ("mv %[name], a1" : [name] "=r"(parameter1));
 351              		mv a5, a0
 352              	# 0 "" 2
 353              	.LVL38:
 354              		.loc 1 72 5 is_stmt 1
 355              		.loc 1 72 66 is_stmt 0
 356              	# 72 "src/trap.cpp" 1
  73              	
 357              		mv s1, a1
 358              	# 0 "" 2
 359              	.LVL39:
  74:src/trap.cpp  **** 
  75:src/trap.cpp  **** //    if(&(Thread::pRunning->context[0]) != Thread::pRunningContext)
  76:src/trap.cpp  **** //    {
GAS LISTING /tmp/ccYM4oX2.s 			page 11


  77:src/trap.cpp  **** //        assert(false);
  78:src/trap.cpp  **** //    }
  79:src/trap.cpp  **** 
  80:src/trap.cpp  **** //    if(cause != 8 && cause != 9)
  81:src/trap.cpp  **** //    {
  82:src/trap.cpp  **** //        putString("=== EXCEPETION occured: ");
  83:src/trap.cpp  **** //        if(cause == 2)
  84:src/trap.cpp  **** //        {
  85:src/trap.cpp  **** //            putString(" Illegal instruction");
  86:src/trap.cpp  **** //        }
  87:src/trap.cpp  **** //        else if (cause == 5)
  88:src/trap.cpp  **** //        {
  89:src/trap.cpp  **** //            putString("Unallowed read adress");
  90:src/trap.cpp  **** //        }
  91:src/trap.cpp  **** //        else if (cause == 7)
  92:src/trap.cpp  **** //        {
  93:src/trap.cpp  **** //            putString("Unallowed write adress");
  94:src/trap.cpp  **** //        }
  95:src/trap.cpp  **** //        else
  96:src/trap.cpp  **** //        {
  97:src/trap.cpp  **** //            putString("UKNOWN EXCEPTION. ??????????????");
  98:src/trap.cpp  **** //            assert(false);
  99:src/trap.cpp  **** //        }
 100:src/trap.cpp  **** //        putNewline();
 101:src/trap.cpp  **** //        putString("Terminating kernel");
 102:src/trap.cpp  **** //        putNewline();
 103:src/trap.cpp  **** //        assert(false);
 104:src/trap.cpp  **** //    }
 105:src/trap.cpp  **** 
 106:src/trap.cpp  **** 
 107:src/trap.cpp  ****     uint64 ret = -1;
 360              		.loc 1 107 5 is_stmt 1
 108:src/trap.cpp  ****     if(code == 1)
 361              		.loc 1 108 5
 362              	#NO_APP
 363 025c 13071000 		li	a4,1
 364 0260 638AE702 		beq	a5,a4,.L21
 109:src/trap.cpp  ****     {
 110:src/trap.cpp  ****         ret = (uint64)MemAlloc::get()->allocMem(parameter1);
 111:src/trap.cpp  ****     }
 112:src/trap.cpp  ****     else if (code == 2)
 365              		.loc 1 112 10
 366 0264 13072000 		li	a4,2
 367 0268 638CE704 		beq	a5,a4,.L22
 113:src/trap.cpp  ****     {
 114:src/trap.cpp  ****         ret = (uint64)MemAlloc::get()->freeMem((void*)parameter1);
 115:src/trap.cpp  ****     }
 116:src/trap.cpp  ****     else if (code == 0x12)
 368              		.loc 1 116 10
 369 026c 13072001 		li	a4,18
 370 0270 6384E706 		beq	a5,a4,.L23
 117:src/trap.cpp  ****     {
 118:src/trap.cpp  ****         ret = Thread::exit();
 119:src/trap.cpp  ****     }
 120:src/trap.cpp  ****     else if (code == 0x13)
 371              		.loc 1 120 10
 372 0274 13073001 		li	a4,19
GAS LISTING /tmp/ccYM4oX2.s 			page 12


 373 0278 6388E70C 		beq	a5,a4,.L19
 121:src/trap.cpp  ****     {
 122:src/trap.cpp  **** //        if(Thread::userThreadExists)
 123:src/trap.cpp  **** //        {
 124:src/trap.cpp  **** //            Scheduler::dispatchToNext();
 125:src/trap.cpp  **** //        }
 126:src/trap.cpp  ****     }
 127:src/trap.cpp  **** #ifdef __DEBUG_MODE
 128:src/trap.cpp  ****     else if (code == 3) // Test call
 374              		.loc 1 128 10
 375 027c 13073000 		li	a4,3
 376 0280 6392E706 		bne	a5,a4,.L18
 129:src/trap.cpp  ****     {
 130:src/trap.cpp  ****         ret = (uint64)testCall(parameter1);
 377              		.loc 1 130 9
 378              		.loc 1 130 31 is_stmt 0
 379 0284 13850400 		mv	a0,s1
 380 0288 97000000 		call	_Z8testCallm
 380      E7800000 
 381              	.LVL40:
 382 0290 6F008001 		j	.L15
 383              	.LVL41:
 384              	.L21:
 110:src/trap.cpp  ****     }
 385              		.loc 1 110 9 is_stmt 1
 110:src/trap.cpp  ****     }
 386              		.loc 1 110 48 is_stmt 0
 387 0294 97000000 		call	_ZN8MemAlloc3getEv@plt
 387      E7800000 
 388              	.LVL42:
 389 029c 93850400 		mv	a1,s1
 390 02a0 97000000 		call	_ZN8MemAlloc8allocMemEm@plt
 390      E7800000 
 391              	.LVL43:
 392              	.L15:
 131:src/trap.cpp  ****     }
 132:src/trap.cpp  **** #endif
 133:src/trap.cpp  ****     else
 134:src/trap.cpp  ****     {
 135:src/trap.cpp  ****         assert(false); // unknown code
 136:src/trap.cpp  ****     }
 137:src/trap.cpp  **** 
 138:src/trap.cpp  ****     __asm__ volatile ("mv a0, %[name]" : : [name] "r" (ret)); // upaliti ovo dole umesto ovoga (ovo
 393              		.loc 1 138 5 is_stmt 1
 394              		.loc 1 138 61 is_stmt 0
 395              	#APP
 396              	# 138 "src/trap.cpp" 1
 139              	
 140:src/trap.cpp  **** //    bool normalCallWithReturn = (code == 0x1 || code == 0x2 || code == 0x11 || code == 0x12 || co
 141:src/trap.cpp  **** //    bool customCallWithReturn = (code == 0x3);
 142:src/trap.cpp  **** //    bool normalCallWithoutReturn = (code == 0x13 && code != 0x14 && code != 0x42);
 143:src/trap.cpp  **** //    if(normalCallWithReturn || customCallWithReturn)
 144:src/trap.cpp  **** //    { // system call with a return (not necessariliy 64bit)
 145:src/trap.cpp  **** //        __asm__ volatile ("mv a0, %[name]" : : [name] "r" (ret));
 146:src/trap.cpp  **** //    }
 147:src/trap.cpp  **** //    else if(normalCallWithoutReturn) // this exists for safety reasons
 148:src/trap.cpp  **** //    {
GAS LISTING /tmp/ccYM4oX2.s 			page 13


 149:src/trap.cpp  **** //        ;
 150:src/trap.cpp  **** //    }
 151:src/trap.cpp  **** //    else
 152:src/trap.cpp  **** //    {
 153:src/trap.cpp  **** //        assert(false);
 154:src/trap.cpp  **** //    }
 155:src/trap.cpp  **** 
 156:src/trap.cpp  **** }...
 397              		mv a0, a0
 398              	# 0 "" 2
 399              		.loc 1 156 1
 400              	#NO_APP
 401 02ac 83308101 		ld	ra,24(sp)
 402              		.cfi_remember_state
 403              		.cfi_restore 1
 404 02b0 03340101 		ld	s0,16(sp)
 405              		.cfi_restore 8
 406              		.cfi_def_cfa 2, 32
 407 02b4 83348100 		ld	s1,8(sp)
 408              		.cfi_restore 9
 409              	.LVL44:
 410 02b8 13010102 		addi	sp,sp,32
 411              		.cfi_def_cfa_offset 0
 412 02bc 67800000 		jr	ra
 413              	.LVL45:
 414              	.L22:
 415              		.cfi_restore_state
 114:src/trap.cpp  ****         ret = (uint64)MemAlloc::get()->freeMem((void*)parameter1);
 416              		.loc 1 114 9 is_stmt 1
 114:src/trap.cpp  ****         ret = (uint64)MemAlloc::get()->freeMem((void*)parameter1);
 417              		.loc 1 114 47 is_stmt 0
 418 02c0 97000000 		call	_ZN8MemAlloc3getEv@plt
 418      E7800000 
 419              	.LVL46:
 420 02c8 93850400 		mv	a1,s1
 421 02cc 97000000 		call	_ZN8MemAlloc7freeMemEPv@plt
 421      E7800000 
 422              	.LVL47:
 423 02d4 6FF05FFD 		j	.L15
 424              	.LVL48:
 425              	.L23:
 118:src/trap.cpp  ****         ret = Thread::exit();
 426              		.loc 1 118 9 is_stmt 1
 118:src/trap.cpp  ****         ret = Thread::exit();
 427              		.loc 1 118 27 is_stmt 0
 428 02d8 97000000 		call	_ZN6Thread4exitEv@plt
 428      E7800000 
 429              	.LVL49:
 430 02e0 6FF09FFC 		j	.L15
 431              	.LVL50:
 432              	.L18:
 135:src/trap.cpp  ****         assert(false); // unknown code
 433              		.loc 1 135 9 is_stmt 1
 434              	.LBB18:
 435              	.LBB19:
  20:src/../h/../h/../h/my_console.h ****         return;
 436              		.loc 2 20 5
GAS LISTING /tmp/ccYM4oX2.s 			page 14


  23:src/../h/../h/../h/my_console.h ****     putString(file);
 437              		.loc 2 23 5
  23:src/../h/../h/../h/my_console.h ****     putString(file);
 438              		.loc 2 23 14 is_stmt 0
 439 02e4 17050000 		lla	a0,.LC0
 439      13050500 
 440 02ec 97000000 		call	_Z9putStringPKc@plt
 440      E7800000 
 441              	.LVL51:
  24:src/../h/../h/../h/my_console.h ****     putString("    line: ");
 442              		.loc 2 24 5 is_stmt 1
  24:src/../h/../h/../h/my_console.h ****     putString("    line: ");
 443              		.loc 2 24 14 is_stmt 0
 444 02f4 17050000 		lla	a0,.LC1
 444      13050500 
 445 02fc 97000000 		call	_Z9putStringPKc@plt
 445      E7800000 
 446              	.LVL52:
  25:src/../h/../h/../h/my_console.h ****     putInt(line);
 447              		.loc 2 25 5 is_stmt 1
  25:src/../h/../h/../h/my_console.h ****     putInt(line);
 448              		.loc 2 25 14 is_stmt 0
 449 0304 17050000 		lla	a0,.LC2
 449      13050500 
 450 030c 97000000 		call	_Z9putStringPKc@plt
 450      E7800000 
 451              	.LVL53:
  26:src/../h/../h/../h/my_console.h ****     putString("   ===========================");
 452              		.loc 2 26 5 is_stmt 1
  26:src/../h/../h/../h/my_console.h ****     putString("   ===========================");
 453              		.loc 2 26 11 is_stmt 0
 454 0314 13057008 		li	a0,135
 455 0318 97000000 		call	_Z6putInti@plt
 455      E7800000 
 456              	.LVL54:
  27:src/../h/../h/../h/my_console.h ****     putNewline();
 457              		.loc 2 27 5 is_stmt 1
  27:src/../h/../h/../h/my_console.h ****     putNewline();
 458              		.loc 2 27 14 is_stmt 0
 459 0320 17050000 		lla	a0,.LC3
 459      13050500 
 460 0328 97000000 		call	_Z9putStringPKc@plt
 460      E7800000 
 461              	.LVL55:
  28:src/../h/../h/../h/my_console.h **** 
 462              		.loc 2 28 5 is_stmt 1
  28:src/../h/../h/../h/my_console.h **** 
 463              		.loc 2 28 15 is_stmt 0
 464 0330 97000000 		call	_Z10putNewlinev@plt
 464      E7800000 
 465              	.LVL56:
 466              		.loc 2 30 5 is_stmt 1
 467              		.loc 2 30 15 is_stmt 0
 468 0338 97000000 		call	_Z10stopKernelv@plt
 468      E7800000 
 469              	.LVL57:
 470              	.LBE19:
GAS LISTING /tmp/ccYM4oX2.s 			page 15


 471              	.LBE18:
 107:src/trap.cpp  ****     uint64 ret = -1;
 472              		.loc 1 107 12
 473 0340 1305F0FF 		li	a0,-1
 474 0344 6FF05FF6 		j	.L15
 475              	.LVL58:
 476              	.L19:
 477 0348 1305F0FF 		li	a0,-1
 478 034c 6FF0DFF5 		j	.L15
 479              		.cfi_endproc
 480              	.LFE15:
 482              		.globl	gTimer
 483              		.bss
 484              		.align	2
 485              		.set	.LANCHOR0,. + 0
 488              	gTimer:
 489 0000 00000000 		.zero	4
 490              		.text
 491              	.Letext0:
 492              		.file 3 "src/../h/../h/../lib/hw.h"
 493              		.file 4 "src/../h/../h/alloc.h"
 494              		.file 5 "src/../h/thread.h"
 495              		.file 6 "src/../h/../h/../h/../lib/console.h"
GAS LISTING /tmp/ccYM4oX2.s 			page 16


DEFINED SYMBOLS
                            *ABS*:0000000000000000 trap.cpp
     /tmp/ccYM4oX2.s:9      .text:0000000000000000 _Z8testCallm
     /tmp/ccYM4oX2.s:13     .text:0000000000000000 .L0 
     /tmp/ccYM4oX2.s:15     .text:0000000000000000 .L0 
     /tmp/ccYM4oX2.s:16     .text:0000000000000004 .L0 
     /tmp/ccYM4oX2.s:18     .text:0000000000000008 .L0 
     /tmp/ccYM4oX2.s:20     .text:000000000000000c .L0 
     /tmp/ccYM4oX2.s:22     .text:000000000000000c .L0 
     /tmp/ccYM4oX2.s:23     .text:000000000000000c .L0 
     /tmp/ccYM4oX2.s:26     .text:0000000000000014 .L0 
     /tmp/ccYM4oX2.s:27     .text:0000000000000014 .L0 
     /tmp/ccYM4oX2.s:29     .text:0000000000000018 .L0 
     /tmp/ccYM4oX2.s:31     .text:000000000000001c .L0 
     /tmp/ccYM4oX2.s:60     .text:000000000000001c _Z25cExternalInterruptRoutinev
     /tmp/ccYM4oX2.s:63     .text:000000000000001c .L0 
     /tmp/ccYM4oX2.s:64     .text:000000000000001c .L0 
     /tmp/ccYM4oX2.s:65     .text:0000000000000020 .L0 
     /tmp/ccYM4oX2.s:69     .text:000000000000002c .L0 
     /tmp/ccYM4oX2.s:70     .text:000000000000002c .L0 
     /tmp/ccYM4oX2.s:71     .text:000000000000002c .L0 
     /tmp/ccYM4oX2.s:73     .text:0000000000000030 .L0 
     /tmp/ccYM4oX2.s:75     .text:0000000000000030 .L0 
     /tmp/ccYM4oX2.s:76     .text:0000000000000030 .L0 
        src/trap.cpp:15     .text:0000000000000030 .L0 
     /tmp/ccYM4oX2.s:83     .text:0000000000000034 .L0 
     /tmp/ccYM4oX2.s:84     .text:0000000000000034 .L0 
     /tmp/ccYM4oX2.s:86     .text:0000000000000034 .L0 
     /tmp/ccYM4oX2.s:92     .text:0000000000000038 .L0 
     /tmp/ccYM4oX2.s:93     .text:0000000000000038 .L0 
     /tmp/ccYM4oX2.s:99     .text:000000000000003c .L0 
        src/trap.cpp:22     .text:000000000000003c .L0 
     /tmp/ccYM4oX2.s:105    .text:0000000000000040 .L0 
     /tmp/ccYM4oX2.s:107    .text:0000000000000040 .L0 
     /tmp/ccYM4oX2.s:110    .text:000000000000004c .L0 
     /tmp/ccYM4oX2.s:112    .text:0000000000000050 .L0 
     /tmp/ccYM4oX2.s:115    .text:000000000000005c .L0 
     /tmp/ccYM4oX2.s:120    .text:0000000000000060 .L0 
     /tmp/ccYM4oX2.s:121    .text:0000000000000060 .L0 
     /tmp/ccYM4oX2.s:122    .text:0000000000000060 .L0 
     /tmp/ccYM4oX2.s:123    .text:0000000000000060 .L0 
     /tmp/ccYM4oX2.s:127    .text:0000000000000070 .L0 
     /tmp/ccYM4oX2.s:128    .text:0000000000000070 .L0 
     /tmp/ccYM4oX2.s:132    .text:0000000000000080 .L0 
     /tmp/ccYM4oX2.s:133    .text:0000000000000080 .L0 
     /tmp/ccYM4oX2.s:137    .text:0000000000000090 .L0 
     /tmp/ccYM4oX2.s:138    .text:0000000000000090 .L0 
     /tmp/ccYM4oX2.s:142    .text:000000000000009c .L0 
     /tmp/ccYM4oX2.s:143    .text:000000000000009c .L0 
     /tmp/ccYM4oX2.s:147    .text:00000000000000ac .L0 
     /tmp/ccYM4oX2.s:148    .text:00000000000000ac .L0 
     /tmp/ccYM4oX2.s:151    .text:00000000000000b4 .L0 
     /tmp/ccYM4oX2.s:152    .text:00000000000000b4 .L0 
     /tmp/ccYM4oX2.s:158    .text:00000000000000bc .L0 
     /tmp/ccYM4oX2.s:161    .text:00000000000000c4 .L0 
     /tmp/ccYM4oX2.s:164    .text:00000000000000cc .L0 
     /tmp/ccYM4oX2.s:165    .text:00000000000000cc .L0 
GAS LISTING /tmp/ccYM4oX2.s 			page 17


     /tmp/ccYM4oX2.s:169    .text:00000000000000dc .L0 
     /tmp/ccYM4oX2.s:170    .text:00000000000000dc .L0 
     /tmp/ccYM4oX2.s:175    .text:00000000000000e4 .L0 
     /tmp/ccYM4oX2.s:176    .text:00000000000000e4 .L0 
     /tmp/ccYM4oX2.s:177    .text:00000000000000e4 .L0 
     /tmp/ccYM4oX2.s:178    .text:00000000000000e4 .L0 
     /tmp/ccYM4oX2.s:182    .text:00000000000000f4 .L0 
     /tmp/ccYM4oX2.s:183    .text:00000000000000f4 .L0 
     /tmp/ccYM4oX2.s:187    .text:0000000000000104 .L0 
     /tmp/ccYM4oX2.s:188    .text:0000000000000104 .L0 
     /tmp/ccYM4oX2.s:192    .text:0000000000000114 .L0 
     /tmp/ccYM4oX2.s:193    .text:0000000000000114 .L0 
     /tmp/ccYM4oX2.s:197    .text:0000000000000120 .L0 
     /tmp/ccYM4oX2.s:198    .text:0000000000000120 .L0 
     /tmp/ccYM4oX2.s:202    .text:0000000000000130 .L0 
     /tmp/ccYM4oX2.s:203    .text:0000000000000130 .L0 
     /tmp/ccYM4oX2.s:206    .text:0000000000000138 .L0 
     /tmp/ccYM4oX2.s:207    .text:0000000000000138 .L0 
     /tmp/ccYM4oX2.s:213    .text:0000000000000140 .L0 
     /tmp/ccYM4oX2.s:214    .text:0000000000000144 .L0 
     /tmp/ccYM4oX2.s:215    .text:0000000000000144 .L0 
     /tmp/ccYM4oX2.s:217    .text:0000000000000148 .L0 
     /tmp/ccYM4oX2.s:218    .text:0000000000000148 .L0 
     /tmp/ccYM4oX2.s:220    .text:000000000000014c .L0 
     /tmp/ccYM4oX2.s:223    .text:0000000000000150 .L0 
     /tmp/ccYM4oX2.s:227    .text:0000000000000154 .L0 
     /tmp/ccYM4oX2.s:231    .text:0000000000000154 .L0 
     /tmp/ccYM4oX2.s:232    .text:0000000000000154 .L0 
     /tmp/ccYM4oX2.s:236    .text:0000000000000164 .L0 
     /tmp/ccYM4oX2.s:237    .text:0000000000000164 .L0 
     /tmp/ccYM4oX2.s:241    .text:0000000000000174 .L0 
     /tmp/ccYM4oX2.s:242    .text:0000000000000174 .L0 
     /tmp/ccYM4oX2.s:246    .text:0000000000000184 .L0 
     /tmp/ccYM4oX2.s:247    .text:0000000000000184 .L0 
     /tmp/ccYM4oX2.s:251    .text:0000000000000190 .L0 
     /tmp/ccYM4oX2.s:252    .text:0000000000000190 .L0 
     /tmp/ccYM4oX2.s:256    .text:00000000000001a0 .L0 
     /tmp/ccYM4oX2.s:257    .text:00000000000001a0 .L0 
     /tmp/ccYM4oX2.s:260    .text:00000000000001a8 .L0 
     /tmp/ccYM4oX2.s:261    .text:00000000000001a8 .L0 
     /tmp/ccYM4oX2.s:269    .text:00000000000001b4 .L0 
     /tmp/ccYM4oX2.s:270    .text:00000000000001b4 .L0 
     /tmp/ccYM4oX2.s:275    .text:00000000000001c8 .L0 
     /tmp/ccYM4oX2.s:276    .text:00000000000001c8 .L0 
     /tmp/ccYM4oX2.s:281    .text:00000000000001dc .L0 
     /tmp/ccYM4oX2.s:282    .text:00000000000001dc .L0 
     /tmp/ccYM4oX2.s:285    .text:00000000000001e4 .L0 
     /tmp/ccYM4oX2.s:287    .text:00000000000001e8 .L0 
     /tmp/ccYM4oX2.s:288    .text:00000000000001e8 .L0 
     /tmp/ccYM4oX2.s:292    .text:00000000000001f8 .L0 
     /tmp/ccYM4oX2.s:293    .text:00000000000001f8 .L0 
     /tmp/ccYM4oX2.s:299    .text:0000000000000210 .L0 
     /tmp/ccYM4oX2.s:300    .text:0000000000000210 .L0 
     /tmp/ccYM4oX2.s:304    .text:0000000000000220 .L0 
     /tmp/ccYM4oX2.s:305    .text:0000000000000220 .L0 
     /tmp/ccYM4oX2.s:310    .text:000000000000022c .L0 
     /tmp/ccYM4oX2.s:311    .text:000000000000022c .L0 
GAS LISTING /tmp/ccYM4oX2.s 			page 18


     /tmp/ccYM4oX2.s:314    .text:0000000000000238 .L0 
     /tmp/ccYM4oX2.s:320    .text:0000000000000238 _Z25cInternalInterruptRoutinev
     /tmp/ccYM4oX2.s:323    .text:0000000000000238 .L0 
     /tmp/ccYM4oX2.s:324    .text:0000000000000238 .L0 
     /tmp/ccYM4oX2.s:325    .text:000000000000023c .L0 
     /tmp/ccYM4oX2.s:329    .text:0000000000000248 .L0 
     /tmp/ccYM4oX2.s:330    .text:0000000000000248 .L0 
     /tmp/ccYM4oX2.s:331    .text:0000000000000248 .L0 
     /tmp/ccYM4oX2.s:333    .text:000000000000024c .L0 
     /tmp/ccYM4oX2.s:335    .text:000000000000024c .L0 
     /tmp/ccYM4oX2.s:336    .text:000000000000024c .L0 
        src/trap.cpp:63     .text:000000000000024c .L0 
     /tmp/ccYM4oX2.s:343    .text:0000000000000250 .L0 
        src/trap.cpp:68     .text:0000000000000250 .L0 
     /tmp/ccYM4oX2.s:348    .text:0000000000000254 .L0 
     /tmp/ccYM4oX2.s:349    .text:0000000000000254 .L0 
        src/trap.cpp:71     .text:0000000000000254 .L0 
     /tmp/ccYM4oX2.s:355    .text:0000000000000258 .L0 
        src/trap.cpp:72     .text:0000000000000258 .L0 
     /tmp/ccYM4oX2.s:361    .text:000000000000025c .L0 
     /tmp/ccYM4oX2.s:363    .text:000000000000025c .L0 
     /tmp/ccYM4oX2.s:366    .text:0000000000000264 .L0 
     /tmp/ccYM4oX2.s:369    .text:000000000000026c .L0 
     /tmp/ccYM4oX2.s:372    .text:0000000000000274 .L0 
     /tmp/ccYM4oX2.s:375    .text:000000000000027c .L0 
     /tmp/ccYM4oX2.s:378    .text:0000000000000284 .L0 
     /tmp/ccYM4oX2.s:379    .text:0000000000000284 .L0 
     /tmp/ccYM4oX2.s:386    .text:0000000000000294 .L0 
     /tmp/ccYM4oX2.s:387    .text:0000000000000294 .L0 
     /tmp/ccYM4oX2.s:394    .text:00000000000002a8 .L0 
        src/trap.cpp:138    .text:00000000000002a8 .L0 
     /tmp/ccYM4oX2.s:401    .text:00000000000002ac .L0 
     /tmp/ccYM4oX2.s:402    .text:00000000000002b0 .L0 
     /tmp/ccYM4oX2.s:403    .text:00000000000002b0 .L0 
     /tmp/ccYM4oX2.s:405    .text:00000000000002b4 .L0 
     /tmp/ccYM4oX2.s:406    .text:00000000000002b4 .L0 
     /tmp/ccYM4oX2.s:408    .text:00000000000002b8 .L0 
     /tmp/ccYM4oX2.s:411    .text:00000000000002bc .L0 
     /tmp/ccYM4oX2.s:415    .text:00000000000002c0 .L0 
     /tmp/ccYM4oX2.s:417    .text:00000000000002c0 .L0 
     /tmp/ccYM4oX2.s:418    .text:00000000000002c0 .L0 
     /tmp/ccYM4oX2.s:427    .text:00000000000002d8 .L0 
     /tmp/ccYM4oX2.s:428    .text:00000000000002d8 .L0 
     /tmp/ccYM4oX2.s:436    .text:00000000000002e4 .L0 
     /tmp/ccYM4oX2.s:437    .text:00000000000002e4 .L0 
     /tmp/ccYM4oX2.s:438    .text:00000000000002e4 .L0 
     /tmp/ccYM4oX2.s:439    .text:00000000000002e4 .L0 
     /tmp/ccYM4oX2.s:443    .text:00000000000002f4 .L0 
     /tmp/ccYM4oX2.s:444    .text:00000000000002f4 .L0 
     /tmp/ccYM4oX2.s:448    .text:0000000000000304 .L0 
     /tmp/ccYM4oX2.s:449    .text:0000000000000304 .L0 
     /tmp/ccYM4oX2.s:453    .text:0000000000000314 .L0 
     /tmp/ccYM4oX2.s:454    .text:0000000000000314 .L0 
     /tmp/ccYM4oX2.s:458    .text:0000000000000320 .L0 
     /tmp/ccYM4oX2.s:459    .text:0000000000000320 .L0 
     /tmp/ccYM4oX2.s:463    .text:0000000000000330 .L0 
     /tmp/ccYM4oX2.s:464    .text:0000000000000330 .L0 
GAS LISTING /tmp/ccYM4oX2.s 			page 19


     /tmp/ccYM4oX2.s:467    .text:0000000000000338 .L0 
     /tmp/ccYM4oX2.s:468    .text:0000000000000338 .L0 
     /tmp/ccYM4oX2.s:473    .text:0000000000000340 .L0 
     /tmp/ccYM4oX2.s:479    .text:0000000000000350 .L0 
     /tmp/ccYM4oX2.s:488    .bss:0000000000000000 gTimer
     /tmp/ccYM4oX2.s:485    .bss:0000000000000000 .LANCHOR0
     /tmp/ccYM4oX2.s:496    .text:0000000000000350 .L0 
     /tmp/ccYM4oX2.s:107    .text:0000000000000040 .L0 
     /tmp/ccYM4oX2.s:112    .text:0000000000000050 .L0 
     /tmp/ccYM4oX2.s:36     .rodata.str1.8:0000000000000000 .LC0
     /tmp/ccYM4oX2.s:123    .text:0000000000000060 .L0 
     /tmp/ccYM4oX2.s:39     .rodata.str1.8:0000000000000028 .LC1
     /tmp/ccYM4oX2.s:128    .text:0000000000000070 .L0 
     /tmp/ccYM4oX2.s:42     .rodata.str1.8:0000000000000038 .LC2
     /tmp/ccYM4oX2.s:133    .text:0000000000000080 .L0 
     /tmp/ccYM4oX2.s:45     .rodata.str1.8:0000000000000048 .LC3
     /tmp/ccYM4oX2.s:143    .text:000000000000009c .L0 
     /tmp/ccYM4oX2.s:54     .rodata.str1.8:0000000000000078 .LC6
     /tmp/ccYM4oX2.s:165    .text:00000000000000cc .L0 
     /tmp/ccYM4oX2.s:178    .text:00000000000000e4 .L0 
     /tmp/ccYM4oX2.s:183    .text:00000000000000f4 .L0 
     /tmp/ccYM4oX2.s:188    .text:0000000000000104 .L0 
     /tmp/ccYM4oX2.s:198    .text:0000000000000120 .L0 
     /tmp/ccYM4oX2.s:232    .text:0000000000000154 .L0 
     /tmp/ccYM4oX2.s:237    .text:0000000000000164 .L0 
     /tmp/ccYM4oX2.s:242    .text:0000000000000174 .L0 
     /tmp/ccYM4oX2.s:252    .text:0000000000000190 .L0 
     /tmp/ccYM4oX2.s:270    .text:00000000000001b4 .L0 
     /tmp/ccYM4oX2.s:276    .text:00000000000001c8 .L0 
     /tmp/ccYM4oX2.s:48     .rodata.str1.8:0000000000000068 .LC4
     /tmp/ccYM4oX2.s:288    .text:00000000000001e8 .L0 
     /tmp/ccYM4oX2.s:293    .text:00000000000001f8 .L0 
     /tmp/ccYM4oX2.s:51     .rodata.str1.8:0000000000000070 .LC5
     /tmp/ccYM4oX2.s:300    .text:0000000000000210 .L0 
     /tmp/ccYM4oX2.s:439    .text:00000000000002e4 .L0 
     /tmp/ccYM4oX2.s:444    .text:00000000000002f4 .L0 
     /tmp/ccYM4oX2.s:449    .text:0000000000000304 .L0 
     /tmp/ccYM4oX2.s:459    .text:0000000000000320 .L0 
     /tmp/ccYM4oX2.s:226    .text:0000000000000154 .L10
     /tmp/ccYM4oX2.s:154    .text:00000000000000bc .L5
     /tmp/ccYM4oX2.s:265    .text:00000000000001b4 .L11
     /tmp/ccYM4oX2.s:308    .text:000000000000022c .L12
     /tmp/ccYM4oX2.s:95     .text:000000000000003c .L4
     /tmp/ccYM4oX2.s:209    .text:0000000000000140 .L3
     /tmp/ccYM4oX2.s:384    .text:0000000000000294 .L21
     /tmp/ccYM4oX2.s:414    .text:00000000000002c0 .L22
     /tmp/ccYM4oX2.s:425    .text:00000000000002d8 .L23
     /tmp/ccYM4oX2.s:476    .text:0000000000000348 .L19
     /tmp/ccYM4oX2.s:432    .text:00000000000002e4 .L18
     /tmp/ccYM4oX2.s:392    .text:00000000000002a8 .L15
     /tmp/ccYM4oX2.s:1658   .debug_abbrev:0000000000000000 .Ldebug_abbrev0
     /tmp/ccYM4oX2.s:2959   .debug_str:00000000000004cf .LASF94
     /tmp/ccYM4oX2.s:2841   .debug_str:0000000000000191 .LASF95
     /tmp/ccYM4oX2.s:2927   .debug_str:00000000000003e0 .LASF96
     /tmp/ccYM4oX2.s:5      .text:0000000000000000 .Ltext0
     /tmp/ccYM4oX2.s:491    .text:0000000000000350 .Letext0
     /tmp/ccYM4oX2.s:2781   .debug_line:0000000000000000 .Ldebug_line0
GAS LISTING /tmp/ccYM4oX2.s 			page 20


     /tmp/ccYM4oX2.s:2895   .debug_str:00000000000002e9 .LASF0
     /tmp/ccYM4oX2.s:2905   .debug_str:000000000000031f .LASF1
     /tmp/ccYM4oX2.s:2879   .debug_str:000000000000027d .LASF2
     /tmp/ccYM4oX2.s:2857   .debug_str:00000000000001fc .LASF4
     /tmp/ccYM4oX2.s:2941   .debug_str:000000000000044e .LASF3
     /tmp/ccYM4oX2.s:2805   .debug_str:0000000000000096 .LASF5
     /tmp/ccYM4oX2.s:2909   .debug_str:0000000000000351 .LASF6
     /tmp/ccYM4oX2.s:2893   .debug_str:00000000000002d6 .LASF7
     /tmp/ccYM4oX2.s:2967   .debug_str:00000000000005ba .LASF8
     /tmp/ccYM4oX2.s:2847   .debug_str:00000000000001c0 .LASF9
     /tmp/ccYM4oX2.s:2921   .debug_str:000000000000038b .LASF10
     /tmp/ccYM4oX2.s:2961   .debug_str:0000000000000593 .LASF11
     /tmp/ccYM4oX2.s:2809   .debug_str:00000000000000a8 .LASF12
     /tmp/ccYM4oX2.s:2791   .debug_str:000000000000004e .LASF13
     /tmp/ccYM4oX2.s:2819   .debug_str:0000000000000114 .LASF14
     /tmp/ccYM4oX2.s:2937   .debug_str:000000000000042d .LASF15
     /tmp/ccYM4oX2.s:2827   .debug_str:000000000000013d .LASF16
     /tmp/ccYM4oX2.s:2881   .debug_str:000000000000028b .LASF33
     /tmp/ccYM4oX2.s:2843   .debug_str:000000000000019e .LASF97
     /tmp/ccYM4oX2.s:2949   .debug_str:000000000000049b .LASF20
     /tmp/ccYM4oX2.s:2849   .debug_str:00000000000001ce .LASF17
     /tmp/ccYM4oX2.s:2953   .debug_str:00000000000004b4 .LASF18
     /tmp/ccYM4oX2.s:2977   .debug_str:0000000000000605 .LASF19
     /tmp/ccYM4oX2.s:2787   .debug_str:0000000000000010 .LASF22
     /tmp/ccYM4oX2.s:2891   .debug_str:00000000000002cc .LASF24
     /tmp/ccYM4oX2.s:2855   .debug_str:00000000000001f2 .LASF21
     /tmp/ccYM4oX2.s:2877   .debug_str:000000000000025f .LASF23
     /tmp/ccYM4oX2.s:2837   .debug_str:0000000000000181 .LASF25
     /tmp/ccYM4oX2.s:2975   .debug_str:00000000000005fc .LASF26
     /tmp/ccYM4oX2.s:2817   .debug_str:00000000000000fc .LASF28
     /tmp/ccYM4oX2.s:2913   .debug_str:0000000000000369 .LASF27
     /tmp/ccYM4oX2.s:2853   .debug_str:00000000000001da .LASF29
     /tmp/ccYM4oX2.s:2965   .debug_str:00000000000005a9 .LASF30
     /tmp/ccYM4oX2.s:2789   .debug_str:000000000000002d .LASF31
     /tmp/ccYM4oX2.s:2981   .debug_str:0000000000000629 .LASF49
     /tmp/ccYM4oX2.s:2983   .debug_str:000000000000063c .LASF51
     /tmp/ccYM4oX2.s:2869   .debug_str:0000000000000233 .LASF32
     /tmp/ccYM4oX2.s:2903   .debug_str:000000000000030e .LASF34
     /tmp/ccYM4oX2.s:2911   .debug_str:0000000000000364 .LASF35
     /tmp/ccYM4oX2.s:2783   .debug_str:0000000000000000 .LASF36
     /tmp/ccYM4oX2.s:2963   .debug_str:00000000000005a2 .LASF37
     /tmp/ccYM4oX2.s:2851   .debug_str:00000000000001d4 .LASF98
     /tmp/ccYM4oX2.s:2915   .debug_str:0000000000000371 .LASF38
     /tmp/ccYM4oX2.s:2887   .debug_str:00000000000002a7 .LASF39
     /tmp/ccYM4oX2.s:2919   .debug_str:0000000000000385 .LASF40
     /tmp/ccYM4oX2.s:2885   .debug_str:000000000000029a .LASF41
     /tmp/ccYM4oX2.s:2871   .debug_str:0000000000000241 .LASF42
     /tmp/ccYM4oX2.s:2833   .debug_str:0000000000000170 .LASF43
     /tmp/ccYM4oX2.s:2973   .debug_str:00000000000005ee .LASF44
     /tmp/ccYM4oX2.s:2923   .debug_str:000000000000039a .LASF54
     /tmp/ccYM4oX2.s:2987   .debug_str:000000000000066b .LASF45
     /tmp/ccYM4oX2.s:2897   .debug_str:00000000000002f6 .LASF46
     /tmp/ccYM4oX2.s:2951   .debug_str:00000000000004a4 .LASF47
     /tmp/ccYM4oX2.s:2943   .debug_str:0000000000000460 .LASF48
     /tmp/ccYM4oX2.s:2865   .debug_str:000000000000021b .LASF50
     /tmp/ccYM4oX2.s:2925   .debug_str:00000000000003b6 .LASF52
     /tmp/ccYM4oX2.s:2931   .debug_str:0000000000000404 .LASF58
GAS LISTING /tmp/ccYM4oX2.s 			page 21


     /tmp/ccYM4oX2.s:2873   .debug_str:000000000000024d .LASF53
     /tmp/ccYM4oX2.s:2803   .debug_str:0000000000000084 .LASF55
     /tmp/ccYM4oX2.s:2917   .debug_str:0000000000000379 .LASF99
     /tmp/ccYM4oX2.s:2933   .debug_str:0000000000000409 .LASF100
     /tmp/ccYM4oX2.s:2799   .debug_str:0000000000000077 .LASF56
     /tmp/ccYM4oX2.s:2861   .debug_str:000000000000020e .LASF57
     /tmp/ccYM4oX2.s:2795   .debug_str:0000000000000065 .LASF59
     /tmp/ccYM4oX2.s:2863   .debug_str:0000000000000213 .LASF60
     /tmp/ccYM4oX2.s:2985   .debug_str:000000000000065f .LASF61
     /tmp/ccYM4oX2.s:2901   .debug_str:0000000000000304 .LASF62
     /tmp/ccYM4oX2.s:2821   .debug_str:0000000000000120 .LASF63
     /tmp/ccYM4oX2.s:2969   .debug_str:00000000000005ca .LASF64
     /tmp/ccYM4oX2.s:2875   .debug_str:0000000000000252 .LASF65
     /tmp/ccYM4oX2.s:2889   .debug_str:00000000000002b1 .LASF66
     /tmp/ccYM4oX2.s:2845   .debug_str:00000000000001b1 .LASF67
     /tmp/ccYM4oX2.s:2945   .debug_str:0000000000000471 .LASF68
     /tmp/ccYM4oX2.s:2839   .debug_str:000000000000018c .LASF69
     /tmp/ccYM4oX2.s:2801   .debug_str:000000000000007d .LASF70
     /tmp/ccYM4oX2.s:2813   .debug_str:00000000000000d2 .LASF71
     /tmp/ccYM4oX2.s:2979   .debug_str:000000000000060a .LASF72
     /tmp/ccYM4oX2.s:321    .text:0000000000000238 .LFB15
     /tmp/ccYM4oX2.s:480    .text:0000000000000350 .LFE15
     /tmp/ccYM4oX2.s:2793   .debug_str:000000000000005e .LASF77
     /tmp/ccYM4oX2.s:2899   .debug_str:00000000000002ff .LASF73
     /tmp/ccYM4oX2.s:2484   .debug_loc:0000000000000000 .LLST13
     /tmp/ccYM4oX2.s:2823   .debug_str:000000000000012d .LASF74
     /tmp/ccYM4oX2.s:2511   .debug_loc:0000000000000082 .LLST14
     /tmp/ccYM4oX2.s:2522   .debug_loc:00000000000000b8 .LLST15
     /tmp/ccYM4oX2.s:434    .text:00000000000002e4 .LBB18
     /tmp/ccYM4oX2.s:471    .text:0000000000000340 .LBE18
     /tmp/ccYM4oX2.s:2571   .debug_loc:000000000000017d .LLST16
     /tmp/ccYM4oX2.s:2580   .debug_loc:00000000000001a2 .LLST17
     /tmp/ccYM4oX2.s:2589   .debug_loc:00000000000001ce .LLST18
     /tmp/ccYM4oX2.s:441    .text:00000000000002f4 .LVL51
     /tmp/ccYM4oX2.s:446    .text:0000000000000304 .LVL52
     /tmp/ccYM4oX2.s:451    .text:0000000000000314 .LVL53
     /tmp/ccYM4oX2.s:456    .text:0000000000000320 .LVL54
     /tmp/ccYM4oX2.s:461    .text:0000000000000330 .LVL55
     /tmp/ccYM4oX2.s:465    .text:0000000000000338 .LVL56
     /tmp/ccYM4oX2.s:469    .text:0000000000000340 .LVL57
     /tmp/ccYM4oX2.s:381    .text:0000000000000290 .LVL40
     /tmp/ccYM4oX2.s:388    .text:000000000000029c .LVL42
     /tmp/ccYM4oX2.s:391    .text:00000000000002a8 .LVL43
     /tmp/ccYM4oX2.s:419    .text:00000000000002c8 .LVL46
     /tmp/ccYM4oX2.s:422    .text:00000000000002d4 .LVL47
     /tmp/ccYM4oX2.s:429    .text:00000000000002e0 .LVL49
     /tmp/ccYM4oX2.s:2811   .debug_str:00000000000000b8 .LASF75
     /tmp/ccYM4oX2.s:2907   .debug_str:0000000000000332 .LASF76
     /tmp/ccYM4oX2.s:61     .text:000000000000001c .LFB14
     /tmp/ccYM4oX2.s:315    .text:0000000000000238 .LFE14
     /tmp/ccYM4oX2.s:2597   .debug_loc:00000000000001f2 .LLST1
     /tmp/ccYM4oX2.s:2807   .debug_str:000000000000009d .LASF78
     /tmp/ccYM4oX2.s:2608   .debug_loc:0000000000000228 .LLST2
     /tmp/ccYM4oX2.s:2957   .debug_str:00000000000004c9 .LASF79
     /tmp/ccYM4oX2.s:2635   .debug_loc:000000000000026e .LLST3
     /tmp/ccYM4oX2.s:89     .text:0000000000000038 .LBB8
     /tmp/ccYM4oX2.s:2773   .debug_ranges:0000000000000000 .Ldebug_ranges0
GAS LISTING /tmp/ccYM4oX2.s 			page 22


     /tmp/ccYM4oX2.s:2646   .debug_loc:00000000000002a4 .LLST4
     /tmp/ccYM4oX2.s:2659   .debug_loc:00000000000002dc .LLST5
     /tmp/ccYM4oX2.s:2674   .debug_loc:0000000000000324 .LLST6
     /tmp/ccYM4oX2.s:234    .text:0000000000000164 .LVL24
     /tmp/ccYM4oX2.s:239    .text:0000000000000174 .LVL25
     /tmp/ccYM4oX2.s:244    .text:0000000000000184 .LVL26
     /tmp/ccYM4oX2.s:249    .text:0000000000000190 .LVL27
     /tmp/ccYM4oX2.s:254    .text:00000000000001a0 .LVL28
     /tmp/ccYM4oX2.s:258    .text:00000000000001a8 .LVL29
     /tmp/ccYM4oX2.s:262    .text:00000000000001b0 .LVL30
     /tmp/ccYM4oX2.s:118    .text:0000000000000060 .LBB11
     /tmp/ccYM4oX2.s:156    .text:00000000000000bc .LBE11
     /tmp/ccYM4oX2.s:2695   .debug_loc:0000000000000364 .LLST7
     /tmp/ccYM4oX2.s:2703   .debug_loc:0000000000000388 .LLST8
     /tmp/ccYM4oX2.s:2712   .debug_loc:00000000000003b4 .LLST9
     /tmp/ccYM4oX2.s:125    .text:0000000000000070 .LVL6
     /tmp/ccYM4oX2.s:130    .text:0000000000000080 .LVL7
     /tmp/ccYM4oX2.s:135    .text:0000000000000090 .LVL8
     /tmp/ccYM4oX2.s:140    .text:000000000000009c .LVL9
     /tmp/ccYM4oX2.s:145    .text:00000000000000ac .LVL10
     /tmp/ccYM4oX2.s:149    .text:00000000000000b4 .LVL11
     /tmp/ccYM4oX2.s:153    .text:00000000000000bc .LVL12
     /tmp/ccYM4oX2.s:173    .text:00000000000000e4 .LBB13
     /tmp/ccYM4oX2.s:211    .text:0000000000000140 .LBE13
     /tmp/ccYM4oX2.s:2720   .debug_loc:00000000000003d8 .LLST10
     /tmp/ccYM4oX2.s:2729   .debug_loc:00000000000003fd .LLST11
     /tmp/ccYM4oX2.s:2738   .debug_loc:0000000000000429 .LLST12
     /tmp/ccYM4oX2.s:180    .text:00000000000000f4 .LVL15
     /tmp/ccYM4oX2.s:185    .text:0000000000000104 .LVL16
     /tmp/ccYM4oX2.s:190    .text:0000000000000114 .LVL17
     /tmp/ccYM4oX2.s:195    .text:0000000000000120 .LVL18
     /tmp/ccYM4oX2.s:200    .text:0000000000000130 .LVL19
     /tmp/ccYM4oX2.s:204    .text:0000000000000138 .LVL20
     /tmp/ccYM4oX2.s:208    .text:0000000000000140 .LVL21
     /tmp/ccYM4oX2.s:167    .text:00000000000000dc .LVL13
     /tmp/ccYM4oX2.s:171    .text:00000000000000e4 .LVL14
     /tmp/ccYM4oX2.s:290    .text:00000000000001f8 .LVL32
     /tmp/ccYM4oX2.s:297    .text:0000000000000210 .LVL33
     /tmp/ccYM4oX2.s:302    .text:0000000000000220 .LVL34
     /tmp/ccYM4oX2.s:306    .text:0000000000000228 .LVL35
     /tmp/ccYM4oX2.s:312    .text:0000000000000234 .LVL36
     /tmp/ccYM4oX2.s:2971   .debug_str:00000000000005e5 .LASF101
     /tmp/ccYM4oX2.s:2829   .debug_str:0000000000000153 .LASF102
     /tmp/ccYM4oX2.s:10     .text:0000000000000000 .LFB13
     /tmp/ccYM4oX2.s:32     .text:000000000000001c .LFE13
     /tmp/ccYM4oX2.s:2746   .debug_loc:000000000000044d .LLST0
     /tmp/ccYM4oX2.s:2935   .debug_str:0000000000000425 .LASF80
     /tmp/ccYM4oX2.s:2955   .debug_str:00000000000004b9 .LASF81
     /tmp/ccYM4oX2.s:2883   .debug_str:0000000000000294 .LASF82
     /tmp/ccYM4oX2.s:2825   .debug_str:0000000000000138 .LASF83
     /tmp/ccYM4oX2.s:2835   .debug_str:000000000000017c .LASF84
     /tmp/ccYM4oX2.s:2815   .debug_str:00000000000000ec .LASF85
     /tmp/ccYM4oX2.s:2797   .debug_str:000000000000006d .LASF87
     /tmp/ccYM4oX2.s:2859   .debug_str:0000000000000203 .LASF86
     /tmp/ccYM4oX2.s:2785   .debug_str:0000000000000009 .LASF88
     /tmp/ccYM4oX2.s:2947   .debug_str:000000000000048b .LASF89
     /tmp/ccYM4oX2.s:2939   .debug_str:0000000000000443 .LASF90
GAS LISTING /tmp/ccYM4oX2.s 			page 23


     /tmp/ccYM4oX2.s:2929   .debug_str:00000000000003f4 .LASF91
     /tmp/ccYM4oX2.s:2867   .debug_str:0000000000000228 .LASF92
     /tmp/ccYM4oX2.s:2831   .debug_str:0000000000000160 .LASF93
     /tmp/ccYM4oX2.s:353    .text:0000000000000258 .LVL38
     /tmp/ccYM4oX2.s:383    .text:0000000000000294 .LVL41
     /tmp/ccYM4oX2.s:413    .text:00000000000002c0 .LVL45
     /tmp/ccYM4oX2.s:424    .text:00000000000002d8 .LVL48
     /tmp/ccYM4oX2.s:431    .text:00000000000002e4 .LVL50
     /tmp/ccYM4oX2.s:475    .text:0000000000000348 .LVL58
     /tmp/ccYM4oX2.s:359    .text:000000000000025c .LVL39
     /tmp/ccYM4oX2.s:409    .text:00000000000002b8 .LVL44
     /tmp/ccYM4oX2.s:81     .text:0000000000000034 .LVL2
     /tmp/ccYM4oX2.s:94     .text:000000000000003c .LVL4
     /tmp/ccYM4oX2.s:225    .text:0000000000000154 .LVL23
     /tmp/ccYM4oX2.s:87     .text:0000000000000038 .LVL3
     /tmp/ccYM4oX2.s:221    .text:000000000000014c .LVL22
     /tmp/ccYM4oX2.s:264    .text:00000000000001b4 .LVL31
     /tmp/ccYM4oX2.s:117    .text:0000000000000060 .LVL5
     /tmp/ccYM4oX2.s:14     .text:0000000000000000 .LVL0
     /tmp/ccYM4oX2.s:24     .text:0000000000000010 .LVL1
     /tmp/ccYM4oX2.s:497    .debug_info:0000000000000000 .Ldebug_info0
     /tmp/ccYM4oX2.s:97     .text:000000000000003c .LBE8
     /tmp/ccYM4oX2.s:228    .text:0000000000000154 .LBB15
     /tmp/ccYM4oX2.s:267    .text:00000000000001b4 .LBE15

UNDEFINED SYMBOLS
_ZN6Thread8pRunningE
_ZN6Thread15pRunningContextE
_Z9putStringPKc
_Z6putInti
_Z10putNewlinev
_Z10stopKernelv
_ZN6Thread16timeSliceCounterE
console_handler
_ZN8MemAlloc3getEv
_ZN8MemAlloc8allocMemEm
_ZN8MemAlloc7freeMemEPv
_ZN6Thread4exitEv
