GAS LISTING /tmp/ccloEkrr.s 			page 1


   1              		.file	"trap.cpp"
   2              		.option pic
   3              		.option norelax
   4              		.text
   5              	.Ltext0:
   6              		.align	2
   7              		.globl	_Z8testCallm
   9              	_Z8testCallm:
  10              	.LFB14:
  11              		.file 1 "src/trap.cpp"
   1:src/trap.cpp  **** #include "../h/thread.h"
   2:src/trap.cpp  **** #include "../h/scheduler.h"
   3:src/trap.cpp  **** #include "../h/alloc.h"
   4:src/trap.cpp  **** 
   5:src/trap.cpp  **** uint64 gTimer = 0;
   6:src/trap.cpp  **** 
   7:src/trap.cpp  **** uint64 fib(uint64 n);
   8:src/trap.cpp  **** 
   9:src/trap.cpp  **** uint64 testCall(uint64 n)
  10:src/trap.cpp  **** {
  12              		.loc 1 10 1
  13              		.cfi_startproc
  14              	.LVL0:
  15 0000 130101FF 		addi	sp,sp,-16
  16              		.cfi_def_cfa_offset 16
  17 0004 23341100 		sd	ra,8(sp)
  18 0008 23308100 		sd	s0,0(sp)
  19              		.cfi_offset 1, -8
  20              		.cfi_offset 8, -16
  21 000c 13040101 		addi	s0,sp,16
  22              		.cfi_def_cfa 8, 0
  11:src/trap.cpp  ****     return fib(n);
  23              		.loc 1 11 5
  24              		.loc 1 11 15 is_stmt 0
  25 0010 97000000 		call	_Z3fibm@plt
  25      E7800000 
  26              	.LVL1:
  12:src/trap.cpp  **** }
  27              		.loc 1 12 1
  28 0018 83308100 		ld	ra,8(sp)
  29              		.cfi_restore 1
  30 001c 03340100 		ld	s0,0(sp)
  31              		.cfi_restore 8
  32              		.cfi_def_cfa 2, 16
  33 0020 13010101 		addi	sp,sp,16
  34              		.cfi_def_cfa_offset 0
  35 0024 67800000 		jr	ra
  36              		.cfi_endproc
  37              	.LFE14:
  39              		.section	.rodata.str1.8,"aMS",@progbits,1
  40              		.align	3
  41              	.LC0:
  42 0000 3D3D3D3D 		.string	"===================== ASSERT file: "
  42      3D3D3D3D 
  42      3D3D3D3D 
  42      3D3D3D3D 
  42      3D3D3D3D 
GAS LISTING /tmp/ccloEkrr.s 			page 2


  43 0024 00000000 		.align	3
  44              	.LC1:
  45 0028 7372632F 		.string	"src/trap.cpp"
  45      74726170 
  45      2E637070 
  45      00
  46 0035 000000   		.align	3
  47              	.LC2:
  48 0038 20202020 		.string	"    line: "
  48      6C696E65 
  48      3A2000
  49 0043 00000000 		.align	3
  49      00
  50              	.LC3:
  51 0048 2020203D 		.string	"   ==========================="
  51      3D3D3D3D 
  51      3D3D3D3D 
  51      3D3D3D3D 
  51      3D3D3D3D 
  52 0067 00       		.align	3
  53              	.LC4:
  54 0068 3D3D3D20 		.string	"=== EXCEPETION occured: "
  54      45584345 
  54      50455449 
  54      4F4E206F 
  54      63637572 
  55 0081 00000000 		.align	3
  55      000000
  56              	.LC5:
  57 0088 20496C6C 		.string	" Illegal instruction"
  57      6567616C 
  57      20696E73 
  57      74727563 
  57      74696F6E 
  58 009d 000000   		.align	3
  59              	.LC6:
  60 00a0 556E616C 		.string	"Unallowed read adress"
  60      6C6F7765 
  60      64207265 
  60      61642061 
  60      64726573 
  61 00b6 0000     		.align	3
  62              	.LC7:
  63 00b8 556E616C 		.string	"Unallowed write adress"
  63      6C6F7765 
  63      64207772 
  63      69746520 
  63      61647265 
  64 00cf 00       		.align	3
  65              	.LC8:
  66 00d0 554B4E4F 		.string	"UKNOWN EXCEPTION. ??????????????"
  66      574E2045 
  66      58434550 
  66      54494F4E 
  66      2E203F3F 
  67 00f1 00000000 		.align	3
  67      000000
GAS LISTING /tmp/ccloEkrr.s 			page 3


  68              	.LC9:
  69 00f8 5465726D 		.string	"Terminating kernel"
  69      696E6174 
  69      696E6720 
  69      6B65726E 
  69      656C00
  70              		.text
  71              		.align	2
  72              		.globl	_Z25cInternalInterruptRoutinev
  74              	_Z25cInternalInterruptRoutinev:
  75              	.LFB15:
  13:src/trap.cpp  **** 
  14:src/trap.cpp  **** void cInternalInterruptRoutine()
  15:src/trap.cpp  **** {
  76              		.loc 1 15 1 is_stmt 1
  77              		.cfi_startproc
  78 0028 130101FB 		addi	sp,sp,-80
  79              		.cfi_def_cfa_offset 80
  80 002c 23341104 		sd	ra,72(sp)
  81 0030 23308104 		sd	s0,64(sp)
  82 0034 233C9102 		sd	s1,56(sp)
  83 0038 23382103 		sd	s2,48(sp)
  84 003c 23343103 		sd	s3,40(sp)
  85 0040 23304103 		sd	s4,32(sp)
  86 0044 233C5101 		sd	s5,24(sp)
  87 0048 23386101 		sd	s6,16(sp)
  88              		.cfi_offset 1, -8
  89              		.cfi_offset 8, -16
  90              		.cfi_offset 9, -24
  91              		.cfi_offset 18, -32
  92              		.cfi_offset 19, -40
  93              		.cfi_offset 20, -48
  94              		.cfi_offset 21, -56
  95              		.cfi_offset 22, -64
  96 004c 13040105 		addi	s0,sp,80
  97              		.cfi_def_cfa 8, 0
  16:src/trap.cpp  ****     uint64 scause;
  98              		.loc 1 16 5
  17:src/trap.cpp  ****     __asm__ volatile ("csrr %[name], scause" : [name] "=r"(scause));
  99              		.loc 1 17 5
 100              		.loc 1 17 68 is_stmt 0
 101              	#APP
 102              	# 17 "src/trap.cpp" 1
  18              	
 103              		csrr s1, scause
 104              	# 0 "" 2
 105              	.LVL2:
  19:src/trap.cpp  **** //    int isExternal = (scause & (0x1UL << 63)) != 0;
  20:src/trap.cpp  ****     int cause = scause & (~(1UL << 63));
 106              		.loc 1 20 5 is_stmt 1
  21:src/trap.cpp  **** 
  22:src/trap.cpp  ****     __asm__ volatile ("csrc sip, 0x2"); // clears the 1st bit in register sip. (the bit signifies i
 107              		.loc 1 22 5
 108              		.loc 1 22 39 is_stmt 0
 109              	# 22 "src/trap.cpp" 1
  23              	
  24:src/trap.cpp  ****     uint64 code, parameter1, parameter2, parameter3;
GAS LISTING /tmp/ccloEkrr.s 			page 4


 110              		csrc sip, 0x2
 111              	# 0 "" 2
 112              		.loc 1 24 5 is_stmt 1
  25:src/trap.cpp  ****     __asm__ volatile ("mv %[name], a0" : [name] "=r"(code));
 113              		.loc 1 25 5
 114              		.loc 1 25 60 is_stmt 0
 115              	# 25 "src/trap.cpp" 1
  26              	    __asm__ volatile ("mv %[name], a1" : [name] "=r"(parameter1));
 116              		mv s2, a0
 117              	# 0 "" 2
 118              	.LVL3:
 119              		.loc 1 26 5 is_stmt 1
 120              		.loc 1 26 66 is_stmt 0
 121              	# 26 "src/trap.cpp" 1
  27              	    __asm__ volatile ("mv %[name], a2" : [name] "=r"(parameter2));
 122              		mv s4, a1
 123              	# 0 "" 2
 124              	.LVL4:
 125              		.loc 1 27 5 is_stmt 1
 126              		.loc 1 27 66 is_stmt 0
 127              	# 27 "src/trap.cpp" 1
  28              	    __asm__ volatile ("mv %[name], a3" : [name] "=r"(parameter3));
 128              		mv s5, a2
 129              	# 0 "" 2
 130              	.LVL5:
 131              		.loc 1 28 5 is_stmt 1
 132              		.loc 1 28 66 is_stmt 0
 133              	# 28 "src/trap.cpp" 1
  29              	
 134              		mv s6, a3
 135              	# 0 "" 2
 136              	.LVL6:
  30:src/trap.cpp  **** 
  31:src/trap.cpp  ****     __asm__ volatile ("mv x1, x1");
 137              		.loc 1 31 5 is_stmt 1
 138              		.loc 1 31 35 is_stmt 0
 139              	# 31 "src/trap.cpp" 1
  32              	    if(&(Thread::getPRunning()->context[0]) != Thread::pRunningContext) // temp, maybe changes regi
 140              		mv x1, x1
 141              	# 0 "" 2
 142              		.loc 1 32 5 is_stmt 1
 143              		.loc 1 32 29 is_stmt 0
 144              	#NO_APP
 145 006c 97000000 		call	_ZN6Thread11getPRunningEv@plt
 145      E7800000 
 146              	.LVL7:
 147              		.loc 1 32 8
 148 0074 13050501 		addi	a0,a0,16
 149              		.loc 1 32 45
 150 0078 97070000 		la	a5,_ZN6Thread15pRunningContextE
 150      83B70700 
 151 0080 83B70700 		ld	a5,0(a5)
 152              		.loc 1 32 5
 153 0084 6302F506 		beq	a0,a5,.L4
  33:src/trap.cpp  ****     {
  34:src/trap.cpp  ****         __asm__ volatile ("mv x10, x10");
 154              		.loc 1 34 9 is_stmt 1
GAS LISTING /tmp/ccloEkrr.s 			page 5


 155              		.loc 1 34 41 is_stmt 0
 156              	#APP
 157              	# 34 "src/trap.cpp" 1
  35              	        assert(false);
 158              		mv x10, x10
 159              	# 0 "" 2
 160              		.loc 1 35 9 is_stmt 1
 161              	.LVL8:
 162              	#NO_APP
 163              	.LBB30:
 164              	.LBB31:
 165              		.file 2 "src/../h/../h/my_console.h"
   1:src/../h/../h/my_console.h **** #pragma once
   2:src/../h/../h/my_console.h **** 
   3:src/../h/../h/my_console.h **** #include "../h/risc.h"
   4:src/../h/../h/my_console.h **** 
   5:src/../h/../h/my_console.h **** #include "../lib/console.h"
   6:src/../h/../h/my_console.h **** #include "../lib/hw.h"
   7:src/../h/../h/my_console.h **** 
   8:src/../h/../h/my_console.h **** #define __DEBUG_MODE
   9:src/../h/../h/my_console.h **** 
  10:src/../h/../h/my_console.h **** 
  11:src/../h/../h/my_console.h **** void putString(const char* s);
  12:src/../h/../h/my_console.h **** void putInt(int n);
  13:src/../h/../h/my_console.h **** void putNewline();
  14:src/../h/../h/my_console.h **** void putU64(uint64 n);
  15:src/../h/../h/my_console.h **** void putBinary(uint64 n);
  16:src/../h/../h/my_console.h **** 
  17:src/../h/../h/my_console.h **** [[noreturn]] void stopKernel();
  18:src/../h/../h/my_console.h **** 
  19:src/../h/../h/my_console.h **** inline void _assert(bool valid, const char* file, int line) // MUST be inline
  20:src/../h/../h/my_console.h **** {
  21:src/../h/../h/my_console.h ****     if(valid)
 166              		.loc 2 21 5
  22:src/../h/../h/my_console.h ****         return;
  23:src/../h/../h/my_console.h **** 
  24:src/../h/../h/my_console.h ****     putString("===================== ASSERT file: ");
 167              		.loc 2 24 5
 168              		.loc 2 24 14 is_stmt 0
 169 008c 17050000 		lla	a0,.LC0
 169      13050500 
 170 0094 97000000 		call	_Z9putStringPKc@plt
 170      E7800000 
 171              	.LVL9:
  25:src/../h/../h/my_console.h ****     putString(file);
 172              		.loc 2 25 5 is_stmt 1
 173              		.loc 2 25 14 is_stmt 0
 174 009c 17050000 		lla	a0,.LC1
 174      13050500 
 175 00a4 97000000 		call	_Z9putStringPKc@plt
 175      E7800000 
 176              	.LVL10:
  26:src/../h/../h/my_console.h ****     putString("    line: ");
 177              		.loc 2 26 5 is_stmt 1
 178              		.loc 2 26 14 is_stmt 0
 179 00ac 17050000 		lla	a0,.LC2
 179      13050500 
GAS LISTING /tmp/ccloEkrr.s 			page 6


 180 00b4 97000000 		call	_Z9putStringPKc@plt
 180      E7800000 
 181              	.LVL11:
  27:src/../h/../h/my_console.h ****     putInt(line);
 182              		.loc 2 27 5 is_stmt 1
 183              		.loc 2 27 11 is_stmt 0
 184 00bc 13053002 		li	a0,35
 185 00c0 97000000 		call	_Z6putInti@plt
 185      E7800000 
 186              	.LVL12:
  28:src/../h/../h/my_console.h ****     putString("   ===========================");
 187              		.loc 2 28 5 is_stmt 1
 188              		.loc 2 28 14 is_stmt 0
 189 00c8 17050000 		lla	a0,.LC3
 189      13050500 
 190 00d0 97000000 		call	_Z9putStringPKc@plt
 190      E7800000 
 191              	.LVL13:
  29:src/../h/../h/my_console.h ****     putNewline();
 192              		.loc 2 29 5 is_stmt 1
 193              		.loc 2 29 15 is_stmt 0
 194 00d8 97000000 		call	_Z10putNewlinev@plt
 194      E7800000 
 195              	.LVL14:
  30:src/../h/../h/my_console.h **** 
  31:src/../h/../h/my_console.h ****     stopKernel();
 196              		.loc 2 31 5 is_stmt 1
 197              		.loc 2 31 15 is_stmt 0
 198 00e0 97000000 		call	_Z10stopKernelv@plt
 198      E7800000 
 199              	.LVL15:
 200              	.L4:
 201 00e8 9B890400 		sext.w	s3,s1
 202              	.LBE31:
 203              	.LBE30:
  36:src/trap.cpp  ****     }
  37:src/trap.cpp  ****     __asm__ volatile ("mv x1, x1");
 204              		.loc 1 37 5 is_stmt 1
 205              		.loc 1 37 35 is_stmt 0
 206              	#APP
 207              	# 37 "src/trap.cpp" 1
  38              	
  39:src/trap.cpp  ****     if(cause != 8 && cause != 9)
 208              		mv x1, x1
 209              	# 0 "" 2
 210              		.loc 1 39 5 is_stmt 1
 211              		.loc 1 39 19 is_stmt 0
 212              	#NO_APP
 213 00f0 9B8484FF 		addiw	s1,s1,-8
 214              	.LVL16:
 215              		.loc 1 39 5
 216 00f4 93071000 		li	a5,1
 217 00f8 63E4970A 		bgtu	s1,a5,.L38
  40:src/trap.cpp  ****     {
  41:src/trap.cpp  ****         putString("=== EXCEPETION occured: ");
  42:src/trap.cpp  ****         if(cause == 2)
  43:src/trap.cpp  ****         {
GAS LISTING /tmp/ccloEkrr.s 			page 7


  44:src/trap.cpp  ****             putString(" Illegal instruction");
  45:src/trap.cpp  ****         }
  46:src/trap.cpp  ****         else if (cause == 5)
  47:src/trap.cpp  ****         {
  48:src/trap.cpp  ****             putString("Unallowed read adress");
  49:src/trap.cpp  ****         }
  50:src/trap.cpp  ****         else if (cause == 7)
  51:src/trap.cpp  ****         {
  52:src/trap.cpp  ****             putString("Unallowed write adress");
  53:src/trap.cpp  ****         }
  54:src/trap.cpp  ****         else
  55:src/trap.cpp  ****         {
  56:src/trap.cpp  ****             putString("UKNOWN EXCEPTION. ??????????????");
  57:src/trap.cpp  ****             assert(false);
  58:src/trap.cpp  ****         }
  59:src/trap.cpp  ****         putNewline();
  60:src/trap.cpp  ****         putString("Terminating kernel");
  61:src/trap.cpp  ****         putNewline();
  62:src/trap.cpp  ****         assert(false);
  63:src/trap.cpp  ****     }
  64:src/trap.cpp  **** 
  65:src/trap.cpp  **** 
  66:src/trap.cpp  ****     uint64 ret = -1;
 218              		.loc 1 66 5 is_stmt 1
 219              		.loc 1 66 12 is_stmt 0
 220 00fc 9307F0FF 		li	a5,-1
 221 0100 233CF4FA 		sd	a5,-72(s0)
  67:src/trap.cpp  ****     if(code == 1)
 222              		.loc 1 67 5 is_stmt 1
 223              	.LBB32:
 224 0104 93071000 		li	a5,1
 225 0108 6300F91E 		beq	s2,a5,.L39
 226              	.LBE32:
  68:src/trap.cpp  ****     {
  69:src/trap.cpp  ****         ret = (uint64)MemAlloc::get()->allocMem(parameter1);
  70:src/trap.cpp  ****     }
  71:src/trap.cpp  ****     else if (code == 2)
 227              		.loc 1 71 10
 228              	.LBB67:
 229              	.LBB33:
 230 010c 93072000 		li	a5,2
 231 0110 6302F924 		beq	s2,a5,.L40
 232              	.LBE33:
 233              	.LBE67:
  72:src/trap.cpp  ****     {
  73:src/trap.cpp  ****         *((int*)&ret) = MemAlloc::get()->freeMem((void*)parameter1);
  74:src/trap.cpp  ****     }
  75:src/trap.cpp  **** #ifdef __DEBUG_MODE
  76:src/trap.cpp  ****     else if (code == 3) // Test call
 234              		.loc 1 76 10
 235              	.LBB68:
 236              	.LBB61:
 237              	.LBB34:
 238 0114 93073000 		li	a5,3
 239 0118 630CF924 		beq	s2,a5,.L41
 240              	.LBE34:
 241              	.LBE61:
GAS LISTING /tmp/ccloEkrr.s 			page 8


 242              	.LBE68:
  77:src/trap.cpp  ****     {
  78:src/trap.cpp  ****         ret = (uint64)testCall(parameter1);
  79:src/trap.cpp  ****     }
  80:src/trap.cpp  **** #endif
  81:src/trap.cpp  ****     else if (code == 4)
 243              		.loc 1 81 10
 244              	.LBB69:
 245              	.LBB62:
 246              	.LBB56:
 247              	.LBB35:
 248 011c 93074000 		li	a5,4
 249 0120 6302F926 		beq	s2,a5,.L42
 250              	.LBE35:
 251              	.LBE56:
 252              	.LBE62:
 253              	.LBE69:
  82:src/trap.cpp  ****     {
  83:src/trap.cpp  ****         Thread::switchToUser();
  84:src/trap.cpp  ****     }
  85:src/trap.cpp  ****     else if (code == 17) // 17
 254              		.loc 1 85 10
 255              	.LBB70:
 256              	.LBB63:
 257              	.LBB57:
 258              	.LBB52:
 259              	.LBB36:
 260 0124 93071001 		li	a5,17
 261 0128 6304F926 		beq	s2,a5,.L43
 262              	.LBE36:
 263              	.LBE52:
 264              	.LBE57:
 265              	.LBE63:
 266              	.LBE70:
  86:src/trap.cpp  ****     {
  87:src/trap.cpp  ****         *((int*)&ret) = Thread::createThread((uint64*)parameter1, (Thread::Body)parameter2, (void*)
  88:src/trap.cpp  ****     }
  89:src/trap.cpp  ****     else if (code == 18)
 267              		.loc 1 89 10
 268              	.LBB71:
 269              	.LBB64:
 270              	.LBB58:
 271              	.LBB53:
 272              	.LBB49:
 273              	.LBB37:
 274 012c 93072001 		li	a5,18
 275 0130 630EF926 		beq	s2,a5,.L44
 276              	.LBE37:
 277              	.LBE49:
 278              	.LBE53:
 279              	.LBE58:
 280              	.LBE64:
 281              	.LBE71:
  90:src/trap.cpp  ****     {
  91:src/trap.cpp  ****         *((int*)&ret) = Thread::exit();
  92:src/trap.cpp  ****     }
  93:src/trap.cpp  ****     else if (code == 19) // 19, thread_dispatch
GAS LISTING /tmp/ccloEkrr.s 			page 9


 282              		.loc 1 93 10
 283              	.LBB72:
 284              	.LBB65:
 285              	.LBB59:
 286              	.LBB54:
 287              	.LBB50:
 288              	.LBB47:
 289              	.LBB38:
 290 0134 93073001 		li	a5,19
 291 0138 6302F928 		beq	s2,a5,.L45
  94:src/trap.cpp  ****     {
  95:src/trap.cpp  ****         extern Thread kernelThread;
  96:src/trap.cpp  ****         assert(Thread::getPRunning() != &kernelThread); // you're only supposed to open user thread
  97:src/trap.cpp  **** 
  98:src/trap.cpp  ****         Thread::getPRunning()->state = Thread::READY;
  99:src/trap.cpp  ****         Scheduler::put(Thread::getPRunning());
 100:src/trap.cpp  **** 
 101:src/trap.cpp  ****         Scheduler::dispatchToNext();
 102:src/trap.cpp  ****     }
 103:src/trap.cpp  ****     else if (code == 20)
 292              		.loc 1 103 10
 293 013c 93074001 		li	a5,20
 294 0140 630CF930 		beq	s2,a5,.L46
 104:src/trap.cpp  ****     {
 105:src/trap.cpp  ****         Thread::join((uint64)parameter1);
 106:src/trap.cpp  ****     }
 107:src/trap.cpp  ****     else
 108:src/trap.cpp  ****     {
 109:src/trap.cpp  ****         assert(false); // unknown code
 295              		.loc 1 109 9
 296              	.LVL17:
 297              	.LBB39:
 298              	.LBB40:
  21:src/../h/../h/my_console.h ****         return;
 299              		.loc 2 21 5
  24:src/../h/../h/my_console.h ****     putString(file);
 300              		.loc 2 24 5
  24:src/../h/../h/my_console.h ****     putString(file);
 301              		.loc 2 24 14 is_stmt 0
 302 0144 17050000 		lla	a0,.LC0
 302      13050500 
 303 014c 97000000 		call	_Z9putStringPKc@plt
 303      E7800000 
 304              	.LVL18:
  25:src/../h/../h/my_console.h ****     putString("    line: ");
 305              		.loc 2 25 5 is_stmt 1
  25:src/../h/../h/my_console.h ****     putString("    line: ");
 306              		.loc 2 25 14 is_stmt 0
 307 0154 17050000 		lla	a0,.LC1
 307      13050500 
 308 015c 97000000 		call	_Z9putStringPKc@plt
 308      E7800000 
 309              	.LVL19:
  26:src/../h/../h/my_console.h ****     putInt(line);
 310              		.loc 2 26 5 is_stmt 1
  26:src/../h/../h/my_console.h ****     putInt(line);
 311              		.loc 2 26 14 is_stmt 0
GAS LISTING /tmp/ccloEkrr.s 			page 10


 312 0164 17050000 		lla	a0,.LC2
 312      13050500 
 313 016c 97000000 		call	_Z9putStringPKc@plt
 313      E7800000 
 314              	.LVL20:
  27:src/../h/../h/my_console.h ****     putString("   ===========================");
 315              		.loc 2 27 5 is_stmt 1
  27:src/../h/../h/my_console.h ****     putString("   ===========================");
 316              		.loc 2 27 11 is_stmt 0
 317 0174 1305D006 		li	a0,109
 318 0178 97000000 		call	_Z6putInti@plt
 318      E7800000 
 319              	.LVL21:
  28:src/../h/../h/my_console.h ****     putNewline();
 320              		.loc 2 28 5 is_stmt 1
  28:src/../h/../h/my_console.h ****     putNewline();
 321              		.loc 2 28 14 is_stmt 0
 322 0180 17050000 		lla	a0,.LC3
 322      13050500 
 323 0188 97000000 		call	_Z9putStringPKc@plt
 323      E7800000 
 324              	.LVL22:
  29:src/../h/../h/my_console.h **** 
 325              		.loc 2 29 5 is_stmt 1
  29:src/../h/../h/my_console.h **** 
 326              		.loc 2 29 15 is_stmt 0
 327 0190 97000000 		call	_Z10putNewlinev@plt
 327      E7800000 
 328              	.LVL23:
 329              		.loc 2 31 5 is_stmt 1
 330              		.loc 2 31 15 is_stmt 0
 331 0198 97000000 		call	_Z10stopKernelv@plt
 331      E7800000 
 332              	.LVL24:
 333              	.L38:
 334              	.LBE40:
 335              	.LBE39:
 336              	.LBE38:
 337              	.LBE47:
 338              	.LBE50:
 339              	.LBE54:
 340              	.LBE59:
 341              	.LBE65:
 342              	.LBE72:
  41:src/trap.cpp  ****         if(cause == 2)
 343              		.loc 1 41 9 is_stmt 1
  41:src/trap.cpp  ****         if(cause == 2)
 344              		.loc 1 41 18 is_stmt 0
 345 01a0 17050000 		lla	a0,.LC4
 345      13050500 
 346 01a8 97000000 		call	_Z9putStringPKc@plt
 346      E7800000 
 347              	.LVL25:
  42:src/trap.cpp  ****         {
 348              		.loc 1 42 9 is_stmt 1
 349 01b0 93072000 		li	a5,2
 350 01b4 6380F908 		beq	s3,a5,.L47
GAS LISTING /tmp/ccloEkrr.s 			page 11


  46:src/trap.cpp  ****         {
 351              		.loc 1 46 14
 352 01b8 93075000 		li	a5,5
 353 01bc 6386F908 		beq	s3,a5,.L48
  50:src/trap.cpp  ****         {
 354              		.loc 1 50 14
 355 01c0 93077000 		li	a5,7
 356 01c4 638CF908 		beq	s3,a5,.L49
  56:src/trap.cpp  ****             assert(false);
 357              		.loc 1 56 13
  56:src/trap.cpp  ****             assert(false);
 358              		.loc 1 56 22 is_stmt 0
 359 01c8 17050000 		lla	a0,.LC8
 359      13050500 
 360 01d0 97000000 		call	_Z9putStringPKc@plt
 360      E7800000 
 361              	.LVL26:
  57:src/trap.cpp  ****         }
 362              		.loc 1 57 13 is_stmt 1
 363              	.LBB73:
 364              	.LBB74:
  21:src/../h/../h/my_console.h ****         return;
 365              		.loc 2 21 5
  24:src/../h/../h/my_console.h ****     putString(file);
 366              		.loc 2 24 5
  24:src/../h/../h/my_console.h ****     putString(file);
 367              		.loc 2 24 14 is_stmt 0
 368 01d8 17050000 		lla	a0,.LC0
 368      13050500 
 369 01e0 97000000 		call	_Z9putStringPKc@plt
 369      E7800000 
 370              	.LVL27:
  25:src/../h/../h/my_console.h ****     putString("    line: ");
 371              		.loc 2 25 5 is_stmt 1
  25:src/../h/../h/my_console.h ****     putString("    line: ");
 372              		.loc 2 25 14 is_stmt 0
 373 01e8 17050000 		lla	a0,.LC1
 373      13050500 
 374 01f0 97000000 		call	_Z9putStringPKc@plt
 374      E7800000 
 375              	.LVL28:
  26:src/../h/../h/my_console.h ****     putInt(line);
 376              		.loc 2 26 5 is_stmt 1
  26:src/../h/../h/my_console.h ****     putInt(line);
 377              		.loc 2 26 14 is_stmt 0
 378 01f8 17050000 		lla	a0,.LC2
 378      13050500 
 379 0200 97000000 		call	_Z9putStringPKc@plt
 379      E7800000 
 380              	.LVL29:
  27:src/../h/../h/my_console.h ****     putString("   ===========================");
 381              		.loc 2 27 5 is_stmt 1
  27:src/../h/../h/my_console.h ****     putString("   ===========================");
 382              		.loc 2 27 11 is_stmt 0
 383 0208 13059003 		li	a0,57
 384 020c 97000000 		call	_Z6putInti@plt
 384      E7800000 
GAS LISTING /tmp/ccloEkrr.s 			page 12


 385              	.LVL30:
  28:src/../h/../h/my_console.h ****     putNewline();
 386              		.loc 2 28 5 is_stmt 1
  28:src/../h/../h/my_console.h ****     putNewline();
 387              		.loc 2 28 14 is_stmt 0
 388 0214 17050000 		lla	a0,.LC3
 388      13050500 
 389 021c 97000000 		call	_Z9putStringPKc@plt
 389      E7800000 
 390              	.LVL31:
  29:src/../h/../h/my_console.h **** 
 391              		.loc 2 29 5 is_stmt 1
  29:src/../h/../h/my_console.h **** 
 392              		.loc 2 29 15 is_stmt 0
 393 0224 97000000 		call	_Z10putNewlinev@plt
 393      E7800000 
 394              	.LVL32:
 395              		.loc 2 31 5 is_stmt 1
 396              		.loc 2 31 15 is_stmt 0
 397 022c 97000000 		call	_Z10stopKernelv@plt
 397      E7800000 
 398              	.LVL33:
 399              	.L47:
 400              	.LBE74:
 401              	.LBE73:
  44:src/trap.cpp  ****         }
 402              		.loc 1 44 13 is_stmt 1
  44:src/trap.cpp  ****         }
 403              		.loc 1 44 22 is_stmt 0
 404 0234 17050000 		lla	a0,.LC5
 404      13050500 
 405 023c 97000000 		call	_Z9putStringPKc@plt
 405      E7800000 
 406              	.LVL34:
 407 0244 6F008002 		j	.L7
 408              	.L48:
  48:src/trap.cpp  ****         }
 409              		.loc 1 48 13 is_stmt 1
  48:src/trap.cpp  ****         }
 410              		.loc 1 48 22 is_stmt 0
 411 0248 17050000 		lla	a0,.LC6
 411      13050500 
 412 0250 97000000 		call	_Z9putStringPKc@plt
 412      E7800000 
 413              	.LVL35:
 414 0258 6F004001 		j	.L7
 415              	.L49:
  52:src/trap.cpp  ****         }
 416              		.loc 1 52 13 is_stmt 1
  52:src/trap.cpp  ****         }
 417              		.loc 1 52 22 is_stmt 0
 418 025c 17050000 		lla	a0,.LC7
 418      13050500 
 419 0264 97000000 		call	_Z9putStringPKc@plt
 419      E7800000 
 420              	.LVL36:
 421              	.L7:
GAS LISTING /tmp/ccloEkrr.s 			page 13


  59:src/trap.cpp  ****         putString("Terminating kernel");
 422              		.loc 1 59 9 is_stmt 1
  59:src/trap.cpp  ****         putString("Terminating kernel");
 423              		.loc 1 59 19 is_stmt 0
 424 026c 97000000 		call	_Z10putNewlinev@plt
 424      E7800000 
 425              	.LVL37:
  60:src/trap.cpp  ****         putNewline();
 426              		.loc 1 60 9 is_stmt 1
  60:src/trap.cpp  ****         putNewline();
 427              		.loc 1 60 18 is_stmt 0
 428 0274 17050000 		lla	a0,.LC9
 428      13050500 
 429 027c 97000000 		call	_Z9putStringPKc@plt
 429      E7800000 
 430              	.LVL38:
  61:src/trap.cpp  ****         assert(false);
 431              		.loc 1 61 9 is_stmt 1
  61:src/trap.cpp  ****         assert(false);
 432              		.loc 1 61 19 is_stmt 0
 433 0284 97000000 		call	_Z10putNewlinev@plt
 433      E7800000 
 434              	.LVL39:
  62:src/trap.cpp  ****     }
 435              		.loc 1 62 9 is_stmt 1
 436              	.LBB75:
 437              	.LBB76:
  21:src/../h/../h/my_console.h ****         return;
 438              		.loc 2 21 5
  24:src/../h/../h/my_console.h ****     putString(file);
 439              		.loc 2 24 5
  24:src/../h/../h/my_console.h ****     putString(file);
 440              		.loc 2 24 14 is_stmt 0
 441 028c 17050000 		lla	a0,.LC0
 441      13050500 
 442 0294 97000000 		call	_Z9putStringPKc@plt
 442      E7800000 
 443              	.LVL40:
  25:src/../h/../h/my_console.h ****     putString("    line: ");
 444              		.loc 2 25 5 is_stmt 1
  25:src/../h/../h/my_console.h ****     putString("    line: ");
 445              		.loc 2 25 14 is_stmt 0
 446 029c 17050000 		lla	a0,.LC1
 446      13050500 
 447 02a4 97000000 		call	_Z9putStringPKc@plt
 447      E7800000 
 448              	.LVL41:
  26:src/../h/../h/my_console.h ****     putInt(line);
 449              		.loc 2 26 5 is_stmt 1
  26:src/../h/../h/my_console.h ****     putInt(line);
 450              		.loc 2 26 14 is_stmt 0
 451 02ac 17050000 		lla	a0,.LC2
 451      13050500 
 452 02b4 97000000 		call	_Z9putStringPKc@plt
 452      E7800000 
 453              	.LVL42:
  27:src/../h/../h/my_console.h ****     putString("   ===========================");
GAS LISTING /tmp/ccloEkrr.s 			page 14


 454              		.loc 2 27 5 is_stmt 1
  27:src/../h/../h/my_console.h ****     putString("   ===========================");
 455              		.loc 2 27 11 is_stmt 0
 456 02bc 1305E003 		li	a0,62
 457 02c0 97000000 		call	_Z6putInti@plt
 457      E7800000 
 458              	.LVL43:
  28:src/../h/../h/my_console.h ****     putNewline();
 459              		.loc 2 28 5 is_stmt 1
  28:src/../h/../h/my_console.h ****     putNewline();
 460              		.loc 2 28 14 is_stmt 0
 461 02c8 17050000 		lla	a0,.LC3
 461      13050500 
 462 02d0 97000000 		call	_Z9putStringPKc@plt
 462      E7800000 
 463              	.LVL44:
  29:src/../h/../h/my_console.h **** 
 464              		.loc 2 29 5 is_stmt 1
  29:src/../h/../h/my_console.h **** 
 465              		.loc 2 29 15 is_stmt 0
 466 02d8 97000000 		call	_Z10putNewlinev@plt
 466      E7800000 
 467              	.LVL45:
 468              		.loc 2 31 5 is_stmt 1
 469              		.loc 2 31 15 is_stmt 0
 470 02e0 97000000 		call	_Z10stopKernelv@plt
 470      E7800000 
 471              	.LVL46:
 472              	.L39:
 473              	.LBE76:
 474              	.LBE75:
 475              	.LBB77:
  69:src/trap.cpp  ****     }
 476              		.loc 1 69 9 is_stmt 1
  69:src/trap.cpp  ****     }
 477              		.loc 1 69 48 is_stmt 0
 478 02e8 97000000 		call	_ZN8MemAlloc3getEv@plt
 478      E7800000 
 479              	.LVL47:
 480 02f0 93050A00 		mv	a1,s4
 481 02f4 97000000 		call	_ZN8MemAlloc8allocMemEm@plt
 481      E7800000 
 482              	.LVL48:
  69:src/trap.cpp  ****     }
 483              		.loc 1 69 13
 484 02fc 233CA4FA 		sd	a0,-72(s0)
 485              	.L11:
 486              	.LBE77:
 110:src/trap.cpp  ****         assert(false); // unknown code
 111:src/trap.cpp  ****         assert(false); // unknown code
 112:src/trap.cpp  ****         assert(false); // unknown code
 113:src/trap.cpp  ****     }
 114:src/trap.cpp  **** 
 115:src/trap.cpp  **** //    __asm__ volatile ("mv a0, %[name]" : : [name] "r" (ret)); // upaliti ovo dole umesto ovoga (o
 116:src/trap.cpp  **** 
 117:src/trap.cpp  ****     bool normalCallWithReturn = (code == 0x1) || (code == 0x2) || (code == 0x11) || (code == 0x12) 
 487              		.loc 1 117 5 is_stmt 1
GAS LISTING /tmp/ccloEkrr.s 			page 15


 488              		.loc 1 117 47 is_stmt 0
 489 0300 9307F9FF 		addi	a5,s2,-1
 490              		.loc 1 117 190
 491 0304 13071000 		li	a4,1
 492 0308 6374F716 		bleu	a5,a4,.L26
 493              		.loc 1 117 64 discriminator 2
 494 030c 93071001 		li	a5,17
 495 0310 6300F918 		beq	s2,a5,.L27
 496              		.loc 1 117 82 discriminator 4
 497 0314 93072001 		li	a5,18
 498 0318 6300F918 		beq	s2,a5,.L28
 499              		.loc 1 117 100 discriminator 6
 500 031c 93071002 		li	a5,33
 501 0320 6300F918 		beq	s2,a5,.L29
 502              		.loc 1 117 118 discriminator 8
 503 0324 93072002 		li	a5,34
 504 0328 6300F918 		beq	s2,a5,.L30
 505              		.loc 1 117 136 discriminator 10
 506 032c 93073002 		li	a5,35
 507 0330 6300F918 		beq	s2,a5,.L31
 508              		.loc 1 117 154 discriminator 12
 509 0334 93074002 		li	a5,36
 510 0338 6300F918 		beq	s2,a5,.L32
 511              		.loc 1 117 172 discriminator 14
 512 033c 93071003 		li	a5,49
 513 0340 6300F918 		beq	s2,a5,.L33
 514              		.loc 1 117 190 discriminator 16
 515 0344 93071004 		li	a5,65
 516 0348 6300F912 		beq	s2,a5,.L50
 517              		.loc 1 117 190
 518 034c 93060000 		li	a3,0
 519 0350 6F004012 		j	.L20
 520              	.L40:
 521              	.LBB78:
 522              	.LBB66:
  73:src/trap.cpp  ****     }
 523              		.loc 1 73 9 is_stmt 1
  73:src/trap.cpp  ****     }
 524              		.loc 1 73 49 is_stmt 0
 525 0354 97000000 		call	_ZN8MemAlloc3getEv@plt
 525      E7800000 
 526              	.LVL49:
 527 035c 93050A00 		mv	a1,s4
 528 0360 97000000 		call	_ZN8MemAlloc7freeMemEPv@plt
 528      E7800000 
 529              	.LVL50:
  73:src/trap.cpp  ****     }
 530              		.loc 1 73 23
 531 0368 232CA4FA 		sw	a0,-72(s0)
 532 036c 6FF05FF9 		j	.L11
 533              	.L41:
 534              	.LBB60:
  78:src/trap.cpp  ****     }
 535              		.loc 1 78 9 is_stmt 1
  78:src/trap.cpp  ****     }
 536              		.loc 1 78 31 is_stmt 0
 537 0370 13050A00 		mv	a0,s4
GAS LISTING /tmp/ccloEkrr.s 			page 16


 538 0374 97000000 		call	_Z8testCallm
 538      E7800000 
 539              	.LVL51:
  78:src/trap.cpp  ****     }
 540              		.loc 1 78 13
 541 037c 233CA4FA 		sd	a0,-72(s0)
 542 0380 6FF01FF8 		j	.L11
 543              	.L42:
 544              	.LBB55:
  83:src/trap.cpp  ****     }
 545              		.loc 1 83 9 is_stmt 1
  83:src/trap.cpp  ****     }
 546              		.loc 1 83 29 is_stmt 0
 547 0384 97000000 		call	_ZN6Thread12switchToUserEv@plt
 547      E7800000 
 548              	.LVL52:
 549 038c 6FF05FF7 		j	.L11
 550              	.L43:
 551              	.LBB51:
  87:src/trap.cpp  ****     }
 552              		.loc 1 87 9 is_stmt 1
  87:src/trap.cpp  ****     }
 553              		.loc 1 87 45 is_stmt 0
 554 0390 13060B00 		mv	a2,s6
 555 0394 93850A00 		mv	a1,s5
 556 0398 13050A00 		mv	a0,s4
 557 039c 97000000 		call	_ZN6Thread12createThreadEPmPFvPvES1_@plt
 557      E7800000 
 558              	.LVL53:
  87:src/trap.cpp  ****     }
 559              		.loc 1 87 23
 560 03a4 232CA4FA 		sw	a0,-72(s0)
 561 03a8 6FF09FF5 		j	.L11
 562              	.L44:
 563              	.LBB48:
  91:src/trap.cpp  ****     }
 564              		.loc 1 91 9 is_stmt 1
  91:src/trap.cpp  ****     }
 565              		.loc 1 91 37 is_stmt 0
 566 03ac 97000000 		call	_ZN6Thread4exitEv@plt
 566      E7800000 
 567              	.LVL54:
  91:src/trap.cpp  ****     }
 568              		.loc 1 91 23
 569 03b4 232CA4FA 		sw	a0,-72(s0)
 570 03b8 6FF09FF4 		j	.L11
 571              	.L45:
 572              	.LBB46:
 573              	.LBB41:
  95:src/trap.cpp  ****         assert(Thread::getPRunning() != &kernelThread); // you're only supposed to open user thread
 574              		.loc 1 95 9 is_stmt 1
  96:src/trap.cpp  **** 
 575              		.loc 1 96 9
 576 03bc 97000000 		call	_ZN6Thread11getPRunningEv@plt
 576      E7800000 
 577              	.LVL55:
 578 03c4 97070000 		la	a5,kernelThread
GAS LISTING /tmp/ccloEkrr.s 			page 17


 578      83B70700 
 579              	.LVL56:
 580              	.LBB42:
 581              	.LBB43:
  21:src/../h/../h/my_console.h ****         return;
 582              		.loc 2 21 5
 583 03cc 6388A702 		beq	a5,a0,.L51
  22:src/../h/../h/my_console.h **** 
 584              		.loc 2 22 9
 585              	.LVL57:
 586              	.LBE43:
 587              	.LBE42:
  98:src/trap.cpp  ****         Scheduler::put(Thread::getPRunning());
 588              		.loc 1 98 9
  98:src/trap.cpp  ****         Scheduler::put(Thread::getPRunning());
 589              		.loc 1 98 28 is_stmt 0
 590 03d0 97000000 		call	_ZN6Thread11getPRunningEv@plt
 590      E7800000 
 591              	.LVL58:
  98:src/trap.cpp  ****         Scheduler::put(Thread::getPRunning());
 592              		.loc 1 98 38
 593 03d8 93072000 		li	a5,2
 594 03dc 2320F500 		sw	a5,0(a0)
  99:src/trap.cpp  **** 
 595              		.loc 1 99 9 is_stmt 1
  99:src/trap.cpp  **** 
 596              		.loc 1 99 23 is_stmt 0
 597 03e0 97000000 		call	_ZN6Thread11getPRunningEv@plt
 597      E7800000 
 598              	.LVL59:
 599 03e8 97000000 		call	_ZN9Scheduler3putEP6Thread@plt
 599      E7800000 
 600              	.LVL60:
 101:src/trap.cpp  ****     }
 601              		.loc 1 101 9 is_stmt 1
 101:src/trap.cpp  ****     }
 602              		.loc 1 101 34 is_stmt 0
 603 03f0 97000000 		call	_ZN9Scheduler14dispatchToNextEv@plt
 603      E7800000 
 604              	.LVL61:
 605 03f8 6FF09FF0 		j	.L11
 606              	.LVL62:
 607              	.L51:
 608              	.LBB45:
 609              	.LBB44:
  24:src/../h/../h/my_console.h ****     putString(file);
 610              		.loc 2 24 5 is_stmt 1
  24:src/../h/../h/my_console.h ****     putString(file);
 611              		.loc 2 24 14 is_stmt 0
 612 03fc 17050000 		lla	a0,.LC0
 612      13050500 
 613              	.LVL63:
 614 0404 97000000 		call	_Z9putStringPKc@plt
 614      E7800000 
 615              	.LVL64:
  25:src/../h/../h/my_console.h ****     putString("    line: ");
 616              		.loc 2 25 5 is_stmt 1
GAS LISTING /tmp/ccloEkrr.s 			page 18


  25:src/../h/../h/my_console.h ****     putString("    line: ");
 617              		.loc 2 25 14 is_stmt 0
 618 040c 17050000 		lla	a0,.LC1
 618      13050500 
 619 0414 97000000 		call	_Z9putStringPKc@plt
 619      E7800000 
 620              	.LVL65:
  26:src/../h/../h/my_console.h ****     putInt(line);
 621              		.loc 2 26 5 is_stmt 1
  26:src/../h/../h/my_console.h ****     putInt(line);
 622              		.loc 2 26 14 is_stmt 0
 623 041c 17050000 		lla	a0,.LC2
 623      13050500 
 624 0424 97000000 		call	_Z9putStringPKc@plt
 624      E7800000 
 625              	.LVL66:
  27:src/../h/../h/my_console.h ****     putString("   ===========================");
 626              		.loc 2 27 5 is_stmt 1
  27:src/../h/../h/my_console.h ****     putString("   ===========================");
 627              		.loc 2 27 11 is_stmt 0
 628 042c 13050006 		li	a0,96
 629 0430 97000000 		call	_Z6putInti@plt
 629      E7800000 
 630              	.LVL67:
  28:src/../h/../h/my_console.h ****     putNewline();
 631              		.loc 2 28 5 is_stmt 1
  28:src/../h/../h/my_console.h ****     putNewline();
 632              		.loc 2 28 14 is_stmt 0
 633 0438 17050000 		lla	a0,.LC3
 633      13050500 
 634 0440 97000000 		call	_Z9putStringPKc@plt
 634      E7800000 
 635              	.LVL68:
  29:src/../h/../h/my_console.h **** 
 636              		.loc 2 29 5 is_stmt 1
  29:src/../h/../h/my_console.h **** 
 637              		.loc 2 29 15 is_stmt 0
 638 0448 97000000 		call	_Z10putNewlinev@plt
 638      E7800000 
 639              	.LVL69:
 640              		.loc 2 31 5 is_stmt 1
 641              		.loc 2 31 15 is_stmt 0
 642 0450 97000000 		call	_Z10stopKernelv@plt
 642      E7800000 
 643              	.LVL70:
 644              	.L46:
 645              	.LBE44:
 646              	.LBE45:
 647              	.LBE41:
 105:src/trap.cpp  ****     }
 648              		.loc 1 105 9 is_stmt 1
 105:src/trap.cpp  ****     }
 649              		.loc 1 105 21 is_stmt 0
 650 0458 13050A00 		mv	a0,s4
 651 045c 97000000 		call	_ZN6Thread4joinEm@plt
 651      E7800000 
 652              	.LVL71:
GAS LISTING /tmp/ccloEkrr.s 			page 19


 653 0464 6FF0DFE9 		j	.L11
 654              	.L50:
 655              	.LBE46:
 656              	.LBE48:
 657              	.LBE51:
 658              	.LBE55:
 659              	.LBE60:
 660              	.LBE66:
 661              	.LBE78:
 662              		.loc 1 117 190
 663 0468 93061000 		li	a3,1
 664 046c 6F008000 		j	.L20
 665              	.L26:
 666 0470 93061000 		li	a3,1
 667              	.L20:
 668              	.LVL72:
 118:src/trap.cpp  ****     bool customCallWithReturn = (code == 0x3);
 669              		.loc 1 118 5 is_stmt 1 discriminator 20
 119:src/trap.cpp  ****     bool customCallWithoutReturn = (code == 0x4);
 670              		.loc 1 119 5 discriminator 20
 120:src/trap.cpp  ****     bool normalCallWithoutReturn = (code == 0x13) || (code == 0x14) || (code == 0x42);
 671              		.loc 1 120 5 discriminator 20
 672              		.loc 1 120 51 is_stmt 0 discriminator 20
 673 0474 9307D9FE 		addi	a5,s2,-19
 674              		.loc 1 120 69 discriminator 20
 675 0478 13071000 		li	a4,1
 676 047c 637AF704 		bleu	a5,a4,.L35
 677              		.loc 1 120 69 discriminator 2
 678 0480 93072004 		li	a5,66
 679 0484 6302F904 		beq	s2,a5,.L52
 680              		.loc 1 120 69
 681 0488 93070000 		li	a5,0
 682 048c 6F008004 		j	.L21
 683              	.LVL73:
 684              	.L27:
 117:src/trap.cpp  ****     bool customCallWithReturn = (code == 0x3);
 685              		.loc 1 117 190
 686 0490 93061000 		li	a3,1
 687 0494 6FF01FFE 		j	.L20
 688              	.L28:
 689 0498 93061000 		li	a3,1
 690 049c 6FF09FFD 		j	.L20
 691              	.L29:
 692 04a0 93061000 		li	a3,1
 693 04a4 6FF01FFD 		j	.L20
 694              	.L30:
 695 04a8 93061000 		li	a3,1
 696 04ac 6FF09FFC 		j	.L20
 697              	.L31:
 698 04b0 93061000 		li	a3,1
 699 04b4 6FF01FFC 		j	.L20
 700              	.L32:
 701 04b8 93061000 		li	a3,1
 702 04bc 6FF09FFB 		j	.L20
 703              	.L33:
 704 04c0 93061000 		li	a3,1
 705 04c4 6FF01FFB 		j	.L20
GAS LISTING /tmp/ccloEkrr.s 			page 20


 706              	.LVL74:
 707              	.L52:
 708              		.loc 1 120 69
 709 04c8 93071000 		li	a5,1
 710 04cc 6F008000 		j	.L21
 711              	.L35:
 712 04d0 93071000 		li	a5,1
 713              	.L21:
 714              	.LVL75:
 121:src/trap.cpp  ****     if(normalCallWithReturn || customCallWithReturn)
 715              		.loc 1 121 5 is_stmt 1 discriminator 6
 716 04d4 639A0606 		bnez	a3,.L22
 717              		.loc 1 121 29 is_stmt 0 discriminator 1
 718 04d8 13073000 		li	a4,3
 719 04dc 6306E906 		beq	s2,a4,.L22
 122:src/trap.cpp  ****     { // system call with a return (not necessariliy 64bit)
 123:src/trap.cpp  **** 
 124:src/trap.cpp  ****         assert(ret != (uint64)-1); // not 100% check
 125:src/trap.cpp  **** 
 126:src/trap.cpp  ****         __asm__ volatile ("mv a0, %[name]" : : [name] "r" (ret));
 127:src/trap.cpp  ****     }
 128:src/trap.cpp  ****     else if(normalCallWithoutReturn || customCallWithoutReturn) // this exists for safety reasons
 720              		.loc 1 128 10 is_stmt 1
 721 04e0 639E0706 		bnez	a5,.L3
 722              		.loc 1 128 37 is_stmt 0 discriminator 1
 723 04e4 93074000 		li	a5,4
 724              	.LVL76:
 725 04e8 630AF906 		beq	s2,a5,.L3
 129:src/trap.cpp  ****     {
 130:src/trap.cpp  ****         ;
 131:src/trap.cpp  ****     }
 132:src/trap.cpp  ****     else
 133:src/trap.cpp  ****     {
 134:src/trap.cpp  ****         assert(false);
 726              		.loc 1 134 9 is_stmt 1
 727              	.LVL77:
 728              	.LBB79:
 729              	.LBB80:
  21:src/../h/../h/my_console.h ****         return;
 730              		.loc 2 21 5
  24:src/../h/../h/my_console.h ****     putString(file);
 731              		.loc 2 24 5
  24:src/../h/../h/my_console.h ****     putString(file);
 732              		.loc 2 24 14 is_stmt 0
 733 04ec 17050000 		lla	a0,.LC0
 733      13050500 
 734 04f4 97000000 		call	_Z9putStringPKc@plt
 734      E7800000 
 735              	.LVL78:
  25:src/../h/../h/my_console.h ****     putString("    line: ");
 736              		.loc 2 25 5 is_stmt 1
  25:src/../h/../h/my_console.h ****     putString("    line: ");
 737              		.loc 2 25 14 is_stmt 0
 738 04fc 17050000 		lla	a0,.LC1
 738      13050500 
 739 0504 97000000 		call	_Z9putStringPKc@plt
 739      E7800000 
GAS LISTING /tmp/ccloEkrr.s 			page 21


 740              	.LVL79:
  26:src/../h/../h/my_console.h ****     putInt(line);
 741              		.loc 2 26 5 is_stmt 1
  26:src/../h/../h/my_console.h ****     putInt(line);
 742              		.loc 2 26 14 is_stmt 0
 743 050c 17050000 		lla	a0,.LC2
 743      13050500 
 744 0514 97000000 		call	_Z9putStringPKc@plt
 744      E7800000 
 745              	.LVL80:
  27:src/../h/../h/my_console.h ****     putString("   ===========================");
 746              		.loc 2 27 5 is_stmt 1
  27:src/../h/../h/my_console.h ****     putString("   ===========================");
 747              		.loc 2 27 11 is_stmt 0
 748 051c 13056008 		li	a0,134
 749 0520 97000000 		call	_Z6putInti@plt
 749      E7800000 
 750              	.LVL81:
  28:src/../h/../h/my_console.h ****     putNewline();
 751              		.loc 2 28 5 is_stmt 1
  28:src/../h/../h/my_console.h ****     putNewline();
 752              		.loc 2 28 14 is_stmt 0
 753 0528 17050000 		lla	a0,.LC3
 753      13050500 
 754 0530 97000000 		call	_Z9putStringPKc@plt
 754      E7800000 
 755              	.LVL82:
  29:src/../h/../h/my_console.h **** 
 756              		.loc 2 29 5 is_stmt 1
  29:src/../h/../h/my_console.h **** 
 757              		.loc 2 29 15 is_stmt 0
 758 0538 97000000 		call	_Z10putNewlinev@plt
 758      E7800000 
 759              	.LVL83:
 760              		.loc 2 31 5 is_stmt 1
 761              		.loc 2 31 15 is_stmt 0
 762 0540 97000000 		call	_Z10stopKernelv@plt
 762      E7800000 
 763              	.LVL84:
 764              	.L22:
 765              	.LBE80:
 766              	.LBE79:
 124:src/trap.cpp  **** 
 767              		.loc 1 124 9 is_stmt 1
 768 0548 833784FB 		ld	a5,-72(s0)
 769              	.LVL85:
 770 054c 93871700 		addi	a5,a5,1
 771              	.LVL86:
 772              	.LBB81:
 773              	.LBB82:
  21:src/../h/../h/my_console.h ****         return;
 774              		.loc 2 21 5
 775 0550 638A0702 		beqz	a5,.L53
  22:src/../h/../h/my_console.h **** 
 776              		.loc 2 22 9
 777              	.LVL87:
 778              	.LBE82:
GAS LISTING /tmp/ccloEkrr.s 			page 22


 779              	.LBE81:
 126:src/trap.cpp  ****     }
 780              		.loc 1 126 9
 126:src/trap.cpp  ****     }
 781              		.loc 1 126 65 is_stmt 0
 782 0554 833784FB 		ld	a5,-72(s0)
 783              	#APP
 784              	# 126 "src/trap.cpp" 1
 785              		mv a0, a5
 786              	# 0 "" 2
 787              	#NO_APP
 788              	.L3:
 135:src/trap.cpp  ****     }
 136:src/trap.cpp  **** 
 137:src/trap.cpp  **** }
 789              		.loc 1 137 1
 790 055c 83308104 		ld	ra,72(sp)
 791              		.cfi_remember_state
 792              		.cfi_restore 1
 793 0560 03340104 		ld	s0,64(sp)
 794              		.cfi_restore 8
 795              		.cfi_def_cfa 2, 80
 796 0564 83348103 		ld	s1,56(sp)
 797              		.cfi_restore 9
 798 0568 03390103 		ld	s2,48(sp)
 799              		.cfi_restore 18
 800              	.LVL88:
 801 056c 83398102 		ld	s3,40(sp)
 802              		.cfi_restore 19
 803              	.LVL89:
 804 0570 033A0102 		ld	s4,32(sp)
 805              		.cfi_restore 20
 806              	.LVL90:
 807 0574 833A8101 		ld	s5,24(sp)
 808              		.cfi_restore 21
 809              	.LVL91:
 810 0578 033B0101 		ld	s6,16(sp)
 811              		.cfi_restore 22
 812              	.LVL92:
 813 057c 13010105 		addi	sp,sp,80
 814              		.cfi_def_cfa_offset 0
 815 0580 67800000 		jr	ra
 816              	.LVL93:
 817              	.L53:
 818              		.cfi_restore_state
 819              	.LBB84:
 820              	.LBB83:
  24:src/../h/../h/my_console.h ****     putString(file);
 821              		.loc 2 24 5 is_stmt 1
  24:src/../h/../h/my_console.h ****     putString(file);
 822              		.loc 2 24 14 is_stmt 0
 823 0584 17050000 		lla	a0,.LC0
 823      13050500 
 824 058c 97000000 		call	_Z9putStringPKc@plt
 824      E7800000 
 825              	.LVL94:
  25:src/../h/../h/my_console.h ****     putString("    line: ");
GAS LISTING /tmp/ccloEkrr.s 			page 23


 826              		.loc 2 25 5 is_stmt 1
  25:src/../h/../h/my_console.h ****     putString("    line: ");
 827              		.loc 2 25 14 is_stmt 0
 828 0594 17050000 		lla	a0,.LC1
 828      13050500 
 829 059c 97000000 		call	_Z9putStringPKc@plt
 829      E7800000 
 830              	.LVL95:
  26:src/../h/../h/my_console.h ****     putInt(line);
 831              		.loc 2 26 5 is_stmt 1
  26:src/../h/../h/my_console.h ****     putInt(line);
 832              		.loc 2 26 14 is_stmt 0
 833 05a4 17050000 		lla	a0,.LC2
 833      13050500 
 834 05ac 97000000 		call	_Z9putStringPKc@plt
 834      E7800000 
 835              	.LVL96:
  27:src/../h/../h/my_console.h ****     putString("   ===========================");
 836              		.loc 2 27 5 is_stmt 1
  27:src/../h/../h/my_console.h ****     putString("   ===========================");
 837              		.loc 2 27 11 is_stmt 0
 838 05b4 1305C007 		li	a0,124
 839 05b8 97000000 		call	_Z6putInti@plt
 839      E7800000 
 840              	.LVL97:
  28:src/../h/../h/my_console.h ****     putNewline();
 841              		.loc 2 28 5 is_stmt 1
  28:src/../h/../h/my_console.h ****     putNewline();
 842              		.loc 2 28 14 is_stmt 0
 843 05c0 17050000 		lla	a0,.LC3
 843      13050500 
 844 05c8 97000000 		call	_Z9putStringPKc@plt
 844      E7800000 
 845              	.LVL98:
  29:src/../h/../h/my_console.h **** 
 846              		.loc 2 29 5 is_stmt 1
  29:src/../h/../h/my_console.h **** 
 847              		.loc 2 29 15 is_stmt 0
 848 05d0 97000000 		call	_Z10putNewlinev@plt
 848      E7800000 
 849              	.LVL99:
 850              		.loc 2 31 5 is_stmt 1
 851              		.loc 2 31 15 is_stmt 0
 852 05d8 97000000 		call	_Z10stopKernelv@plt
 852      E7800000 
 853              	.LVL100:
 854              	.LBE83:
 855              	.LBE84:
 856              		.cfi_endproc
 857              	.LFE15:
 859              		.align	2
 860              		.globl	_Z25cExternalInterruptRoutinev
 862              	_Z25cExternalInterruptRoutinev:
 863              	.LFB16:
 138:src/trap.cpp  **** 
 139:src/trap.cpp  **** 
 140:src/trap.cpp  **** void cExternalInterruptRoutine()
GAS LISTING /tmp/ccloEkrr.s 			page 24


 141:src/trap.cpp  **** {
 864              		.loc 1 141 1 is_stmt 1
 865              		.cfi_startproc
 866 05e0 130101FF 		addi	sp,sp,-16
 867              		.cfi_def_cfa_offset 16
 868 05e4 23341100 		sd	ra,8(sp)
 869 05e8 23308100 		sd	s0,0(sp)
 870              		.cfi_offset 1, -8
 871              		.cfi_offset 8, -16
 872 05ec 13040101 		addi	s0,sp,16
 873              		.cfi_def_cfa 8, 0
 142:src/trap.cpp  ****     assert(false);
 874              		.loc 1 142 5
 875              	.LVL101:
 876              	.LBB91:
 877              	.LBB92:
  21:src/../h/../h/my_console.h ****         return;
 878              		.loc 2 21 5
  24:src/../h/../h/my_console.h ****     putString(file);
 879              		.loc 2 24 5
  24:src/../h/../h/my_console.h ****     putString(file);
 880              		.loc 2 24 14 is_stmt 0
 881 05f0 17050000 		lla	a0,.LC0
 881      13050500 
 882 05f8 97000000 		call	_Z9putStringPKc@plt
 882      E7800000 
 883              	.LVL102:
  25:src/../h/../h/my_console.h ****     putString("    line: ");
 884              		.loc 2 25 5 is_stmt 1
  25:src/../h/../h/my_console.h ****     putString("    line: ");
 885              		.loc 2 25 14 is_stmt 0
 886 0600 17050000 		lla	a0,.LC1
 886      13050500 
 887 0608 97000000 		call	_Z9putStringPKc@plt
 887      E7800000 
 888              	.LVL103:
  26:src/../h/../h/my_console.h ****     putInt(line);
 889              		.loc 2 26 5 is_stmt 1
  26:src/../h/../h/my_console.h ****     putInt(line);
 890              		.loc 2 26 14 is_stmt 0
 891 0610 17050000 		lla	a0,.LC2
 891      13050500 
 892 0618 97000000 		call	_Z9putStringPKc@plt
 892      E7800000 
 893              	.LVL104:
  27:src/../h/../h/my_console.h ****     putString("   ===========================");
 894              		.loc 2 27 5 is_stmt 1
  27:src/../h/../h/my_console.h ****     putString("   ===========================");
 895              		.loc 2 27 11 is_stmt 0
 896 0620 1305E008 		li	a0,142
 897 0624 97000000 		call	_Z6putInti@plt
 897      E7800000 
 898              	.LVL105:
  28:src/../h/../h/my_console.h ****     putNewline();
 899              		.loc 2 28 5 is_stmt 1
  28:src/../h/../h/my_console.h ****     putNewline();
 900              		.loc 2 28 14 is_stmt 0
GAS LISTING /tmp/ccloEkrr.s 			page 25


 901 062c 17050000 		lla	a0,.LC3
 901      13050500 
 902 0634 97000000 		call	_Z9putStringPKc@plt
 902      E7800000 
 903              	.LVL106:
  29:src/../h/../h/my_console.h **** 
 904              		.loc 2 29 5 is_stmt 1
  29:src/../h/../h/my_console.h **** 
 905              		.loc 2 29 15 is_stmt 0
 906 063c 97000000 		call	_Z10putNewlinev@plt
 906      E7800000 
 907              	.LVL107:
 908              		.loc 2 31 5 is_stmt 1
 909              		.loc 2 31 15 is_stmt 0
 910 0644 97000000 		call	_Z10stopKernelv@plt
 910      E7800000 
 911              	.LVL108:
 912              	.LBE92:
 913              	.LBE91:
 914              		.cfi_endproc
 915              	.LFE16:
 917              		.globl	gTimer
 918              		.bss
 919              		.align	3
 922              	gTimer:
 923 0000 00000000 		.zero	8
 923      00000000 
 924              		.text
 925              	.Letext0:
 926              		.file 3 "src/../h/../lib/hw.h"
 927              		.file 4 "src/../h/thread.h"
 928              		.file 5 "src/../h/scheduler.h"
 929              		.file 6 "src/../h/alloc.h"
GAS LISTING /tmp/ccloEkrr.s 			page 26


DEFINED SYMBOLS
                            *ABS*:0000000000000000 trap.cpp
     /tmp/ccloEkrr.s:9      .text:0000000000000000 _Z8testCallm
     /tmp/ccloEkrr.s:13     .text:0000000000000000 .L0 
     /tmp/ccloEkrr.s:15     .text:0000000000000000 .L0 
     /tmp/ccloEkrr.s:16     .text:0000000000000004 .L0 
     /tmp/ccloEkrr.s:19     .text:000000000000000c .L0 
     /tmp/ccloEkrr.s:20     .text:000000000000000c .L0 
     /tmp/ccloEkrr.s:22     .text:0000000000000010 .L0 
     /tmp/ccloEkrr.s:24     .text:0000000000000010 .L0 
     /tmp/ccloEkrr.s:25     .text:0000000000000010 .L0 
     /tmp/ccloEkrr.s:28     .text:0000000000000018 .L0 
     /tmp/ccloEkrr.s:29     .text:000000000000001c .L0 
     /tmp/ccloEkrr.s:31     .text:0000000000000020 .L0 
     /tmp/ccloEkrr.s:32     .text:0000000000000020 .L0 
     /tmp/ccloEkrr.s:34     .text:0000000000000024 .L0 
     /tmp/ccloEkrr.s:36     .text:0000000000000028 .L0 
     /tmp/ccloEkrr.s:74     .text:0000000000000028 _Z25cInternalInterruptRoutinev
     /tmp/ccloEkrr.s:77     .text:0000000000000028 .L0 
     /tmp/ccloEkrr.s:78     .text:0000000000000028 .L0 
     /tmp/ccloEkrr.s:79     .text:000000000000002c .L0 
     /tmp/ccloEkrr.s:88     .text:000000000000004c .L0 
     /tmp/ccloEkrr.s:89     .text:000000000000004c .L0 
     /tmp/ccloEkrr.s:90     .text:000000000000004c .L0 
     /tmp/ccloEkrr.s:91     .text:000000000000004c .L0 
     /tmp/ccloEkrr.s:92     .text:000000000000004c .L0 
     /tmp/ccloEkrr.s:93     .text:000000000000004c .L0 
     /tmp/ccloEkrr.s:94     .text:000000000000004c .L0 
     /tmp/ccloEkrr.s:95     .text:000000000000004c .L0 
     /tmp/ccloEkrr.s:97     .text:0000000000000050 .L0 
     /tmp/ccloEkrr.s:99     .text:0000000000000050 .L0 
     /tmp/ccloEkrr.s:100    .text:0000000000000050 .L0 
        src/trap.cpp:17     .text:0000000000000050 .L0 
     /tmp/ccloEkrr.s:107    .text:0000000000000054 .L0 
     /tmp/ccloEkrr.s:108    .text:0000000000000054 .L0 
        src/trap.cpp:22     .text:0000000000000054 .L0 
     /tmp/ccloEkrr.s:113    .text:0000000000000058 .L0 
     /tmp/ccloEkrr.s:114    .text:0000000000000058 .L0 
        src/trap.cpp:25     .text:0000000000000058 .L0 
     /tmp/ccloEkrr.s:120    .text:000000000000005c .L0 
        src/trap.cpp:26     .text:000000000000005c .L0 
     /tmp/ccloEkrr.s:126    .text:0000000000000060 .L0 
        src/trap.cpp:27     .text:0000000000000060 .L0 
     /tmp/ccloEkrr.s:132    .text:0000000000000064 .L0 
        src/trap.cpp:28     .text:0000000000000064 .L0 
     /tmp/ccloEkrr.s:138    .text:0000000000000068 .L0 
        src/trap.cpp:31     .text:0000000000000068 .L0 
     /tmp/ccloEkrr.s:143    .text:000000000000006c .L0 
     /tmp/ccloEkrr.s:145    .text:000000000000006c .L0 
     /tmp/ccloEkrr.s:148    .text:0000000000000074 .L0 
     /tmp/ccloEkrr.s:150    .text:0000000000000078 .L0 
     /tmp/ccloEkrr.s:153    .text:0000000000000084 .L0 
     /tmp/ccloEkrr.s:155    .text:0000000000000088 .L0 
        src/trap.cpp:34     .text:0000000000000088 .L0 
     /tmp/ccloEkrr.s:166    .text:000000000000008c .L0 
     /tmp/ccloEkrr.s:167    .text:000000000000008c .L0 
     /tmp/ccloEkrr.s:168    .text:000000000000008c .L0 
GAS LISTING /tmp/ccloEkrr.s 			page 27


     /tmp/ccloEkrr.s:169    .text:000000000000008c .L0 
     /tmp/ccloEkrr.s:173    .text:000000000000009c .L0 
     /tmp/ccloEkrr.s:174    .text:000000000000009c .L0 
     /tmp/ccloEkrr.s:178    .text:00000000000000ac .L0 
     /tmp/ccloEkrr.s:179    .text:00000000000000ac .L0 
     /tmp/ccloEkrr.s:183    .text:00000000000000bc .L0 
     /tmp/ccloEkrr.s:184    .text:00000000000000bc .L0 
     /tmp/ccloEkrr.s:188    .text:00000000000000c8 .L0 
     /tmp/ccloEkrr.s:189    .text:00000000000000c8 .L0 
     /tmp/ccloEkrr.s:193    .text:00000000000000d8 .L0 
     /tmp/ccloEkrr.s:194    .text:00000000000000d8 .L0 
     /tmp/ccloEkrr.s:197    .text:00000000000000e0 .L0 
     /tmp/ccloEkrr.s:198    .text:00000000000000e0 .L0 
     /tmp/ccloEkrr.s:205    .text:00000000000000ec .L0 
        src/trap.cpp:37     .text:00000000000000ec .L0 
     /tmp/ccloEkrr.s:211    .text:00000000000000f0 .L0 
     /tmp/ccloEkrr.s:213    .text:00000000000000f0 .L0 
     /tmp/ccloEkrr.s:216    .text:00000000000000f4 .L0 
     /tmp/ccloEkrr.s:219    .text:00000000000000fc .L0 
     /tmp/ccloEkrr.s:220    .text:00000000000000fc .L0 
     /tmp/ccloEkrr.s:224    .text:0000000000000104 .L0 
     /tmp/ccloEkrr.s:230    .text:000000000000010c .L0 
     /tmp/ccloEkrr.s:238    .text:0000000000000114 .L0 
     /tmp/ccloEkrr.s:248    .text:000000000000011c .L0 
     /tmp/ccloEkrr.s:260    .text:0000000000000124 .L0 
     /tmp/ccloEkrr.s:274    .text:000000000000012c .L0 
     /tmp/ccloEkrr.s:290    .text:0000000000000134 .L0 
     /tmp/ccloEkrr.s:293    .text:000000000000013c .L0 
     /tmp/ccloEkrr.s:299    .text:0000000000000144 .L0 
     /tmp/ccloEkrr.s:300    .text:0000000000000144 .L0 
     /tmp/ccloEkrr.s:301    .text:0000000000000144 .L0 
     /tmp/ccloEkrr.s:302    .text:0000000000000144 .L0 
     /tmp/ccloEkrr.s:306    .text:0000000000000154 .L0 
     /tmp/ccloEkrr.s:307    .text:0000000000000154 .L0 
     /tmp/ccloEkrr.s:311    .text:0000000000000164 .L0 
     /tmp/ccloEkrr.s:312    .text:0000000000000164 .L0 
     /tmp/ccloEkrr.s:316    .text:0000000000000174 .L0 
     /tmp/ccloEkrr.s:317    .text:0000000000000174 .L0 
     /tmp/ccloEkrr.s:321    .text:0000000000000180 .L0 
     /tmp/ccloEkrr.s:322    .text:0000000000000180 .L0 
     /tmp/ccloEkrr.s:326    .text:0000000000000190 .L0 
     /tmp/ccloEkrr.s:327    .text:0000000000000190 .L0 
     /tmp/ccloEkrr.s:330    .text:0000000000000198 .L0 
     /tmp/ccloEkrr.s:331    .text:0000000000000198 .L0 
     /tmp/ccloEkrr.s:344    .text:00000000000001a0 .L0 
     /tmp/ccloEkrr.s:345    .text:00000000000001a0 .L0 
     /tmp/ccloEkrr.s:349    .text:00000000000001b0 .L0 
     /tmp/ccloEkrr.s:352    .text:00000000000001b8 .L0 
     /tmp/ccloEkrr.s:355    .text:00000000000001c0 .L0 
     /tmp/ccloEkrr.s:358    .text:00000000000001c8 .L0 
     /tmp/ccloEkrr.s:359    .text:00000000000001c8 .L0 
     /tmp/ccloEkrr.s:365    .text:00000000000001d8 .L0 
     /tmp/ccloEkrr.s:366    .text:00000000000001d8 .L0 
     /tmp/ccloEkrr.s:367    .text:00000000000001d8 .L0 
     /tmp/ccloEkrr.s:368    .text:00000000000001d8 .L0 
     /tmp/ccloEkrr.s:372    .text:00000000000001e8 .L0 
     /tmp/ccloEkrr.s:373    .text:00000000000001e8 .L0 
GAS LISTING /tmp/ccloEkrr.s 			page 28


     /tmp/ccloEkrr.s:377    .text:00000000000001f8 .L0 
     /tmp/ccloEkrr.s:378    .text:00000000000001f8 .L0 
     /tmp/ccloEkrr.s:382    .text:0000000000000208 .L0 
     /tmp/ccloEkrr.s:383    .text:0000000000000208 .L0 
     /tmp/ccloEkrr.s:387    .text:0000000000000214 .L0 
     /tmp/ccloEkrr.s:388    .text:0000000000000214 .L0 
     /tmp/ccloEkrr.s:392    .text:0000000000000224 .L0 
     /tmp/ccloEkrr.s:393    .text:0000000000000224 .L0 
     /tmp/ccloEkrr.s:396    .text:000000000000022c .L0 
     /tmp/ccloEkrr.s:397    .text:000000000000022c .L0 
     /tmp/ccloEkrr.s:403    .text:0000000000000234 .L0 
     /tmp/ccloEkrr.s:404    .text:0000000000000234 .L0 
     /tmp/ccloEkrr.s:410    .text:0000000000000248 .L0 
     /tmp/ccloEkrr.s:411    .text:0000000000000248 .L0 
     /tmp/ccloEkrr.s:417    .text:000000000000025c .L0 
     /tmp/ccloEkrr.s:418    .text:000000000000025c .L0 
     /tmp/ccloEkrr.s:423    .text:000000000000026c .L0 
     /tmp/ccloEkrr.s:424    .text:000000000000026c .L0 
     /tmp/ccloEkrr.s:427    .text:0000000000000274 .L0 
     /tmp/ccloEkrr.s:428    .text:0000000000000274 .L0 
     /tmp/ccloEkrr.s:432    .text:0000000000000284 .L0 
     /tmp/ccloEkrr.s:433    .text:0000000000000284 .L0 
     /tmp/ccloEkrr.s:438    .text:000000000000028c .L0 
     /tmp/ccloEkrr.s:439    .text:000000000000028c .L0 
     /tmp/ccloEkrr.s:440    .text:000000000000028c .L0 
     /tmp/ccloEkrr.s:441    .text:000000000000028c .L0 
     /tmp/ccloEkrr.s:445    .text:000000000000029c .L0 
     /tmp/ccloEkrr.s:446    .text:000000000000029c .L0 
     /tmp/ccloEkrr.s:450    .text:00000000000002ac .L0 
     /tmp/ccloEkrr.s:451    .text:00000000000002ac .L0 
     /tmp/ccloEkrr.s:455    .text:00000000000002bc .L0 
     /tmp/ccloEkrr.s:456    .text:00000000000002bc .L0 
     /tmp/ccloEkrr.s:460    .text:00000000000002c8 .L0 
     /tmp/ccloEkrr.s:461    .text:00000000000002c8 .L0 
     /tmp/ccloEkrr.s:465    .text:00000000000002d8 .L0 
     /tmp/ccloEkrr.s:466    .text:00000000000002d8 .L0 
     /tmp/ccloEkrr.s:469    .text:00000000000002e0 .L0 
     /tmp/ccloEkrr.s:470    .text:00000000000002e0 .L0 
     /tmp/ccloEkrr.s:477    .text:00000000000002e8 .L0 
     /tmp/ccloEkrr.s:478    .text:00000000000002e8 .L0 
     /tmp/ccloEkrr.s:484    .text:00000000000002fc .L0 
     /tmp/ccloEkrr.s:488    .text:0000000000000300 .L0 
     /tmp/ccloEkrr.s:489    .text:0000000000000300 .L0 
     /tmp/ccloEkrr.s:491    .text:0000000000000304 .L0 
     /tmp/ccloEkrr.s:494    .text:000000000000030c .L0 
     /tmp/ccloEkrr.s:497    .text:0000000000000314 .L0 
     /tmp/ccloEkrr.s:500    .text:000000000000031c .L0 
     /tmp/ccloEkrr.s:503    .text:0000000000000324 .L0 
     /tmp/ccloEkrr.s:506    .text:000000000000032c .L0 
     /tmp/ccloEkrr.s:509    .text:0000000000000334 .L0 
     /tmp/ccloEkrr.s:512    .text:000000000000033c .L0 
     /tmp/ccloEkrr.s:515    .text:0000000000000344 .L0 
     /tmp/ccloEkrr.s:518    .text:000000000000034c .L0 
     /tmp/ccloEkrr.s:524    .text:0000000000000354 .L0 
     /tmp/ccloEkrr.s:525    .text:0000000000000354 .L0 
     /tmp/ccloEkrr.s:531    .text:0000000000000368 .L0 
     /tmp/ccloEkrr.s:536    .text:0000000000000370 .L0 
GAS LISTING /tmp/ccloEkrr.s 			page 29


     /tmp/ccloEkrr.s:537    .text:0000000000000370 .L0 
     /tmp/ccloEkrr.s:541    .text:000000000000037c .L0 
     /tmp/ccloEkrr.s:546    .text:0000000000000384 .L0 
     /tmp/ccloEkrr.s:547    .text:0000000000000384 .L0 
     /tmp/ccloEkrr.s:553    .text:0000000000000390 .L0 
     /tmp/ccloEkrr.s:554    .text:0000000000000390 .L0 
     /tmp/ccloEkrr.s:560    .text:00000000000003a4 .L0 
     /tmp/ccloEkrr.s:565    .text:00000000000003ac .L0 
     /tmp/ccloEkrr.s:566    .text:00000000000003ac .L0 
     /tmp/ccloEkrr.s:569    .text:00000000000003b4 .L0 
     /tmp/ccloEkrr.s:575    .text:00000000000003bc .L0 
     /tmp/ccloEkrr.s:576    .text:00000000000003bc .L0 
     /tmp/ccloEkrr.s:583    .text:00000000000003cc .L0 
     /tmp/ccloEkrr.s:588    .text:00000000000003d0 .L0 
     /tmp/ccloEkrr.s:589    .text:00000000000003d0 .L0 
     /tmp/ccloEkrr.s:590    .text:00000000000003d0 .L0 
     /tmp/ccloEkrr.s:593    .text:00000000000003d8 .L0 
     /tmp/ccloEkrr.s:596    .text:00000000000003e0 .L0 
     /tmp/ccloEkrr.s:597    .text:00000000000003e0 .L0 
     /tmp/ccloEkrr.s:602    .text:00000000000003f0 .L0 
     /tmp/ccloEkrr.s:603    .text:00000000000003f0 .L0 
     /tmp/ccloEkrr.s:611    .text:00000000000003fc .L0 
     /tmp/ccloEkrr.s:612    .text:00000000000003fc .L0 
     /tmp/ccloEkrr.s:617    .text:000000000000040c .L0 
     /tmp/ccloEkrr.s:618    .text:000000000000040c .L0 
     /tmp/ccloEkrr.s:622    .text:000000000000041c .L0 
     /tmp/ccloEkrr.s:623    .text:000000000000041c .L0 
     /tmp/ccloEkrr.s:627    .text:000000000000042c .L0 
     /tmp/ccloEkrr.s:628    .text:000000000000042c .L0 
     /tmp/ccloEkrr.s:632    .text:0000000000000438 .L0 
     /tmp/ccloEkrr.s:633    .text:0000000000000438 .L0 
     /tmp/ccloEkrr.s:637    .text:0000000000000448 .L0 
     /tmp/ccloEkrr.s:638    .text:0000000000000448 .L0 
     /tmp/ccloEkrr.s:641    .text:0000000000000450 .L0 
     /tmp/ccloEkrr.s:642    .text:0000000000000450 .L0 
     /tmp/ccloEkrr.s:649    .text:0000000000000458 .L0 
     /tmp/ccloEkrr.s:650    .text:0000000000000458 .L0 
     /tmp/ccloEkrr.s:663    .text:0000000000000468 .L0 
     /tmp/ccloEkrr.s:670    .text:0000000000000474 .L0 
     /tmp/ccloEkrr.s:671    .text:0000000000000474 .L0 
     /tmp/ccloEkrr.s:672    .text:0000000000000474 .L0 
     /tmp/ccloEkrr.s:673    .text:0000000000000474 .L0 
     /tmp/ccloEkrr.s:675    .text:0000000000000478 .L0 
     /tmp/ccloEkrr.s:678    .text:0000000000000480 .L0 
     /tmp/ccloEkrr.s:681    .text:0000000000000488 .L0 
     /tmp/ccloEkrr.s:686    .text:0000000000000490 .L0 
     /tmp/ccloEkrr.s:709    .text:00000000000004c8 .L0 
     /tmp/ccloEkrr.s:716    .text:00000000000004d4 .L0 
     /tmp/ccloEkrr.s:718    .text:00000000000004d8 .L0 
     /tmp/ccloEkrr.s:721    .text:00000000000004e0 .L0 
     /tmp/ccloEkrr.s:723    .text:00000000000004e4 .L0 
     /tmp/ccloEkrr.s:730    .text:00000000000004ec .L0 
     /tmp/ccloEkrr.s:731    .text:00000000000004ec .L0 
     /tmp/ccloEkrr.s:732    .text:00000000000004ec .L0 
     /tmp/ccloEkrr.s:733    .text:00000000000004ec .L0 
     /tmp/ccloEkrr.s:737    .text:00000000000004fc .L0 
     /tmp/ccloEkrr.s:738    .text:00000000000004fc .L0 
GAS LISTING /tmp/ccloEkrr.s 			page 30


     /tmp/ccloEkrr.s:742    .text:000000000000050c .L0 
     /tmp/ccloEkrr.s:743    .text:000000000000050c .L0 
     /tmp/ccloEkrr.s:747    .text:000000000000051c .L0 
     /tmp/ccloEkrr.s:748    .text:000000000000051c .L0 
     /tmp/ccloEkrr.s:752    .text:0000000000000528 .L0 
     /tmp/ccloEkrr.s:753    .text:0000000000000528 .L0 
     /tmp/ccloEkrr.s:757    .text:0000000000000538 .L0 
     /tmp/ccloEkrr.s:758    .text:0000000000000538 .L0 
     /tmp/ccloEkrr.s:761    .text:0000000000000540 .L0 
     /tmp/ccloEkrr.s:762    .text:0000000000000540 .L0 
     /tmp/ccloEkrr.s:768    .text:0000000000000548 .L0 
     /tmp/ccloEkrr.s:775    .text:0000000000000550 .L0 
     /tmp/ccloEkrr.s:780    .text:0000000000000554 .L0 
     /tmp/ccloEkrr.s:781    .text:0000000000000554 .L0 
     /tmp/ccloEkrr.s:782    .text:0000000000000554 .L0 
     /tmp/ccloEkrr.s:790    .text:000000000000055c .L0 
     /tmp/ccloEkrr.s:791    .text:0000000000000560 .L0 
     /tmp/ccloEkrr.s:792    .text:0000000000000560 .L0 
     /tmp/ccloEkrr.s:794    .text:0000000000000564 .L0 
     /tmp/ccloEkrr.s:795    .text:0000000000000564 .L0 
     /tmp/ccloEkrr.s:797    .text:0000000000000568 .L0 
     /tmp/ccloEkrr.s:799    .text:000000000000056c .L0 
     /tmp/ccloEkrr.s:802    .text:0000000000000570 .L0 
     /tmp/ccloEkrr.s:805    .text:0000000000000574 .L0 
     /tmp/ccloEkrr.s:808    .text:0000000000000578 .L0 
     /tmp/ccloEkrr.s:811    .text:000000000000057c .L0 
     /tmp/ccloEkrr.s:814    .text:0000000000000580 .L0 
     /tmp/ccloEkrr.s:818    .text:0000000000000584 .L0 
     /tmp/ccloEkrr.s:822    .text:0000000000000584 .L0 
     /tmp/ccloEkrr.s:823    .text:0000000000000584 .L0 
     /tmp/ccloEkrr.s:827    .text:0000000000000594 .L0 
     /tmp/ccloEkrr.s:828    .text:0000000000000594 .L0 
     /tmp/ccloEkrr.s:832    .text:00000000000005a4 .L0 
     /tmp/ccloEkrr.s:833    .text:00000000000005a4 .L0 
     /tmp/ccloEkrr.s:837    .text:00000000000005b4 .L0 
     /tmp/ccloEkrr.s:838    .text:00000000000005b4 .L0 
     /tmp/ccloEkrr.s:842    .text:00000000000005c0 .L0 
     /tmp/ccloEkrr.s:843    .text:00000000000005c0 .L0 
     /tmp/ccloEkrr.s:847    .text:00000000000005d0 .L0 
     /tmp/ccloEkrr.s:848    .text:00000000000005d0 .L0 
     /tmp/ccloEkrr.s:851    .text:00000000000005d8 .L0 
     /tmp/ccloEkrr.s:852    .text:00000000000005d8 .L0 
     /tmp/ccloEkrr.s:856    .text:00000000000005e0 .L0 
     /tmp/ccloEkrr.s:862    .text:00000000000005e0 _Z25cExternalInterruptRoutinev
     /tmp/ccloEkrr.s:865    .text:00000000000005e0 .L0 
     /tmp/ccloEkrr.s:866    .text:00000000000005e0 .L0 
     /tmp/ccloEkrr.s:867    .text:00000000000005e4 .L0 
     /tmp/ccloEkrr.s:870    .text:00000000000005ec .L0 
     /tmp/ccloEkrr.s:871    .text:00000000000005ec .L0 
     /tmp/ccloEkrr.s:873    .text:00000000000005f0 .L0 
     /tmp/ccloEkrr.s:878    .text:00000000000005f0 .L0 
     /tmp/ccloEkrr.s:879    .text:00000000000005f0 .L0 
     /tmp/ccloEkrr.s:880    .text:00000000000005f0 .L0 
     /tmp/ccloEkrr.s:881    .text:00000000000005f0 .L0 
     /tmp/ccloEkrr.s:885    .text:0000000000000600 .L0 
     /tmp/ccloEkrr.s:886    .text:0000000000000600 .L0 
     /tmp/ccloEkrr.s:890    .text:0000000000000610 .L0 
GAS LISTING /tmp/ccloEkrr.s 			page 31


     /tmp/ccloEkrr.s:891    .text:0000000000000610 .L0 
     /tmp/ccloEkrr.s:895    .text:0000000000000620 .L0 
     /tmp/ccloEkrr.s:896    .text:0000000000000620 .L0 
     /tmp/ccloEkrr.s:900    .text:000000000000062c .L0 
     /tmp/ccloEkrr.s:901    .text:000000000000062c .L0 
     /tmp/ccloEkrr.s:905    .text:000000000000063c .L0 
     /tmp/ccloEkrr.s:906    .text:000000000000063c .L0 
     /tmp/ccloEkrr.s:909    .text:0000000000000644 .L0 
     /tmp/ccloEkrr.s:910    .text:0000000000000644 .L0 
     /tmp/ccloEkrr.s:914    .text:000000000000064c .L0 
     /tmp/ccloEkrr.s:922    .bss:0000000000000000 gTimer
     /tmp/ccloEkrr.s:930    .text:000000000000064c .L0 
     /tmp/ccloEkrr.s:150    .text:0000000000000078 .L0 
     /tmp/ccloEkrr.s:41     .rodata.str1.8:0000000000000000 .LC0
     /tmp/ccloEkrr.s:169    .text:000000000000008c .L0 
     /tmp/ccloEkrr.s:44     .rodata.str1.8:0000000000000028 .LC1
     /tmp/ccloEkrr.s:174    .text:000000000000009c .L0 
     /tmp/ccloEkrr.s:47     .rodata.str1.8:0000000000000038 .LC2
     /tmp/ccloEkrr.s:179    .text:00000000000000ac .L0 
     /tmp/ccloEkrr.s:50     .rodata.str1.8:0000000000000048 .LC3
     /tmp/ccloEkrr.s:189    .text:00000000000000c8 .L0 
     /tmp/ccloEkrr.s:302    .text:0000000000000144 .L0 
     /tmp/ccloEkrr.s:307    .text:0000000000000154 .L0 
     /tmp/ccloEkrr.s:312    .text:0000000000000164 .L0 
     /tmp/ccloEkrr.s:322    .text:0000000000000180 .L0 
     /tmp/ccloEkrr.s:53     .rodata.str1.8:0000000000000068 .LC4
     /tmp/ccloEkrr.s:345    .text:00000000000001a0 .L0 
     /tmp/ccloEkrr.s:65     .rodata.str1.8:00000000000000d0 .LC8
     /tmp/ccloEkrr.s:359    .text:00000000000001c8 .L0 
     /tmp/ccloEkrr.s:368    .text:00000000000001d8 .L0 
     /tmp/ccloEkrr.s:373    .text:00000000000001e8 .L0 
     /tmp/ccloEkrr.s:378    .text:00000000000001f8 .L0 
     /tmp/ccloEkrr.s:388    .text:0000000000000214 .L0 
     /tmp/ccloEkrr.s:56     .rodata.str1.8:0000000000000088 .LC5
     /tmp/ccloEkrr.s:404    .text:0000000000000234 .L0 
     /tmp/ccloEkrr.s:59     .rodata.str1.8:00000000000000a0 .LC6
     /tmp/ccloEkrr.s:411    .text:0000000000000248 .L0 
     /tmp/ccloEkrr.s:62     .rodata.str1.8:00000000000000b8 .LC7
     /tmp/ccloEkrr.s:418    .text:000000000000025c .L0 
     /tmp/ccloEkrr.s:68     .rodata.str1.8:00000000000000f8 .LC9
     /tmp/ccloEkrr.s:428    .text:0000000000000274 .L0 
     /tmp/ccloEkrr.s:441    .text:000000000000028c .L0 
     /tmp/ccloEkrr.s:446    .text:000000000000029c .L0 
     /tmp/ccloEkrr.s:451    .text:00000000000002ac .L0 
     /tmp/ccloEkrr.s:461    .text:00000000000002c8 .L0 
     /tmp/ccloEkrr.s:578    .text:00000000000003c4 .L0 
     /tmp/ccloEkrr.s:612    .text:00000000000003fc .L0 
     /tmp/ccloEkrr.s:618    .text:000000000000040c .L0 
     /tmp/ccloEkrr.s:623    .text:000000000000041c .L0 
     /tmp/ccloEkrr.s:633    .text:0000000000000438 .L0 
     /tmp/ccloEkrr.s:733    .text:00000000000004ec .L0 
     /tmp/ccloEkrr.s:738    .text:00000000000004fc .L0 
     /tmp/ccloEkrr.s:743    .text:000000000000050c .L0 
     /tmp/ccloEkrr.s:753    .text:0000000000000528 .L0 
     /tmp/ccloEkrr.s:823    .text:0000000000000584 .L0 
     /tmp/ccloEkrr.s:828    .text:0000000000000594 .L0 
     /tmp/ccloEkrr.s:833    .text:00000000000005a4 .L0 
GAS LISTING /tmp/ccloEkrr.s 			page 32


     /tmp/ccloEkrr.s:843    .text:00000000000005c0 .L0 
     /tmp/ccloEkrr.s:881    .text:00000000000005f0 .L0 
     /tmp/ccloEkrr.s:886    .text:0000000000000600 .L0 
     /tmp/ccloEkrr.s:891    .text:0000000000000610 .L0 
     /tmp/ccloEkrr.s:901    .text:000000000000062c .L0 
     /tmp/ccloEkrr.s:200    .text:00000000000000e8 .L4
     /tmp/ccloEkrr.s:333    .text:00000000000001a0 .L38
     /tmp/ccloEkrr.s:472    .text:00000000000002e8 .L39
     /tmp/ccloEkrr.s:520    .text:0000000000000354 .L40
     /tmp/ccloEkrr.s:533    .text:0000000000000370 .L41
     /tmp/ccloEkrr.s:543    .text:0000000000000384 .L42
     /tmp/ccloEkrr.s:550    .text:0000000000000390 .L43
     /tmp/ccloEkrr.s:562    .text:00000000000003ac .L44
     /tmp/ccloEkrr.s:571    .text:00000000000003bc .L45
     /tmp/ccloEkrr.s:644    .text:0000000000000458 .L46
     /tmp/ccloEkrr.s:399    .text:0000000000000234 .L47
     /tmp/ccloEkrr.s:408    .text:0000000000000248 .L48
     /tmp/ccloEkrr.s:415    .text:000000000000025c .L49
     /tmp/ccloEkrr.s:421    .text:000000000000026c .L7
     /tmp/ccloEkrr.s:665    .text:0000000000000470 .L26
     /tmp/ccloEkrr.s:684    .text:0000000000000490 .L27
     /tmp/ccloEkrr.s:688    .text:0000000000000498 .L28
     /tmp/ccloEkrr.s:691    .text:00000000000004a0 .L29
     /tmp/ccloEkrr.s:694    .text:00000000000004a8 .L30
     /tmp/ccloEkrr.s:697    .text:00000000000004b0 .L31
     /tmp/ccloEkrr.s:700    .text:00000000000004b8 .L32
     /tmp/ccloEkrr.s:703    .text:00000000000004c0 .L33
     /tmp/ccloEkrr.s:654    .text:0000000000000468 .L50
     /tmp/ccloEkrr.s:667    .text:0000000000000474 .L20
     /tmp/ccloEkrr.s:485    .text:0000000000000300 .L11
     /tmp/ccloEkrr.s:607    .text:00000000000003fc .L51
     /tmp/ccloEkrr.s:711    .text:00000000000004d0 .L35
     /tmp/ccloEkrr.s:707    .text:00000000000004c8 .L52
     /tmp/ccloEkrr.s:713    .text:00000000000004d4 .L21
     /tmp/ccloEkrr.s:764    .text:0000000000000548 .L22
     /tmp/ccloEkrr.s:788    .text:000000000000055c .L3
     /tmp/ccloEkrr.s:817    .text:0000000000000584 .L53
     /tmp/ccloEkrr.s:2717   .debug_abbrev:0000000000000000 .Ldebug_abbrev0
     /tmp/ccloEkrr.s:4344   .debug_str:000000000000068f .LASF124
     /tmp/ccloEkrr.s:4192   .debug_str:0000000000000267 .LASF125
     /tmp/ccloEkrr.s:4304   .debug_str:0000000000000565 .LASF126
     /tmp/ccloEkrr.s:5      .text:0000000000000000 .Ltext0
     /tmp/ccloEkrr.s:925    .text:000000000000064c .Letext0
     /tmp/ccloEkrr.s:4116   .debug_line:0000000000000000 .Ldebug_line0
     /tmp/ccloEkrr.s:4262   .debug_str:0000000000000439 .LASF0
     /tmp/ccloEkrr.s:4280   .debug_str:00000000000004bf .LASF1
     /tmp/ccloEkrr.s:4242   .debug_str:00000000000003a8 .LASF2
     /tmp/ccloEkrr.s:4214   .debug_str:00000000000002f7 .LASF4
     /tmp/ccloEkrr.s:4322   .debug_str:00000000000005e7 .LASF3
     /tmp/ccloEkrr.s:4150   .debug_str:0000000000000102 .LASF5
     /tmp/ccloEkrr.s:4284   .debug_str:00000000000004f1 .LASF6
     /tmp/ccloEkrr.s:4260   .debug_str:0000000000000426 .LASF7
     /tmp/ccloEkrr.s:4352   .debug_str:000000000000077a .LASF8
     /tmp/ccloEkrr.s:4198   .debug_str:0000000000000296 .LASF9
     /tmp/ccloEkrr.s:4300   .debug_str:000000000000053f .LASF10
     /tmp/ccloEkrr.s:4346   .debug_str:0000000000000753 .LASF11
     /tmp/ccloEkrr.s:4152   .debug_str:0000000000000109 .LASF12
GAS LISTING /tmp/ccloEkrr.s 			page 33


     /tmp/ccloEkrr.s:4130   .debug_str:0000000000000087 .LASF13
     /tmp/ccloEkrr.s:4164   .debug_str:000000000000018d .LASF14
     /tmp/ccloEkrr.s:4318   .debug_str:00000000000005c6 .LASF15
     /tmp/ccloEkrr.s:4172   .debug_str:00000000000001b7 .LASF16
     /tmp/ccloEkrr.s:4348   .debug_str:0000000000000762 .LASF48
     /tmp/ccloEkrr.s:4202   .debug_str:00000000000002aa .LASF127
     /tmp/ccloEkrr.s:4292   .debug_str:000000000000051b .LASF17
     /tmp/ccloEkrr.s:4254   .debug_str:00000000000003e1 .LASF18
     /tmp/ccloEkrr.s:4298   .debug_str:0000000000000539 .LASF19
     /tmp/ccloEkrr.s:4252   .debug_str:00000000000003d4 .LASF20
     /tmp/ccloEkrr.s:4232   .debug_str:0000000000000361 .LASF21
     /tmp/ccloEkrr.s:4290   .debug_str:000000000000050f .LASF22
     /tmp/ccloEkrr.s:4276   .debug_str:0000000000000499 .LASF23
     /tmp/ccloEkrr.s:4336   .debug_str:000000000000065e .LASF24
     /tmp/ccloEkrr.s:4324   .debug_str:00000000000005f9 .LASF25
     /tmp/ccloEkrr.s:4212   .debug_str:00000000000002eb .LASF26
     /tmp/ccloEkrr.s:4184   .debug_str:0000000000000225 .LASF27
     /tmp/ccloEkrr.s:4120   .debug_str:0000000000000006 .LASF28
     /tmp/ccloEkrr.s:4342   .debug_str:0000000000000683 .LASF29
     /tmp/ccloEkrr.s:4178   .debug_str:00000000000001f3 .LASF31
     /tmp/ccloEkrr.s:4296   .debug_str:000000000000052d .LASF33
     /tmp/ccloEkrr.s:4312   .debug_str:000000000000059d .LASF35
     /tmp/ccloEkrr.s:4224   .debug_str:000000000000031e .LASF47
     /tmp/ccloEkrr.s:4126   .debug_str:0000000000000041 .LASF49
     /tmp/ccloEkrr.s:4310   .debug_str:0000000000000598 .LASF39
     /tmp/ccloEkrr.s:4234   .debug_str:000000000000036d .LASF30
     /tmp/ccloEkrr.s:4148   .debug_str:00000000000000f0 .LASF32
     /tmp/ccloEkrr.s:4378   .debug_str:0000000000000846 .LASF60
     /tmp/ccloEkrr.s:4264   .debug_str:0000000000000446 .LASF62
     /tmp/ccloEkrr.s:4326   .debug_str:000000000000060a .LASF34
     /tmp/ccloEkrr.s:4140   .debug_str:00000000000000c6 .LASF36
     /tmp/ccloEkrr.s:4142   .debug_str:00000000000000d8 .LASF37
     /tmp/ccloEkrr.s:4218   .debug_str:0000000000000309 .LASF38
     /tmp/ccloEkrr.s:4136   .debug_str:00000000000000a9 .LASF40
     /tmp/ccloEkrr.s:4220   .debug_str:000000000000030e .LASF41
     /tmp/ccloEkrr.s:4376   .debug_str:000000000000083a .LASF42
     /tmp/ccloEkrr.s:4274   .debug_str:000000000000048f .LASF43
     /tmp/ccloEkrr.s:4200   .debug_str:00000000000002a4 .LASF44
     /tmp/ccloEkrr.s:4358   .debug_str:000000000000079f .LASF45
     /tmp/ccloEkrr.s:4250   .debug_str:00000000000003cf .LASF46
     /tmp/ccloEkrr.s:4302   .debug_str:000000000000054e .LASF50
     /tmp/ccloEkrr.s:4196   .debug_str:0000000000000287 .LASF51
     /tmp/ccloEkrr.s:4288   .debug_str:000000000000050a .LASF52
     /tmp/ccloEkrr.s:4226   .debug_str:000000000000032b .LASF53
     /tmp/ccloEkrr.s:4132   .debug_str:0000000000000097 .LASF81
     /tmp/ccloEkrr.s:4188   .debug_str:0000000000000239 .LASF83
     /tmp/ccloEkrr.s:4180   .debug_str:000000000000020d .LASF54
     /tmp/ccloEkrr.s:4176   .debug_str:00000000000001da .LASF55
     /tmp/ccloEkrr.s:4328   .debug_str:000000000000060f .LASF56
     /tmp/ccloEkrr.s:4266   .debug_str:0000000000000461 .LASF57
     /tmp/ccloEkrr.s:4186   .debug_str:0000000000000234 .LASF58
     /tmp/ccloEkrr.s:4294   .debug_str:0000000000000523 .LASF59
     /tmp/ccloEkrr.s:4208   .debug_str:00000000000002cd .LASF70
     /tmp/ccloEkrr.s:4306   .debug_str:0000000000000579 .LASF61
     /tmp/ccloEkrr.s:4258   .debug_str:0000000000000406 .LASF63
     /tmp/ccloEkrr.s:4168   .debug_str:00000000000001a4 .LASF64
     /tmp/ccloEkrr.s:4162   .debug_str:0000000000000175 .LASF65
GAS LISTING /tmp/ccloEkrr.s 			page 34


     /tmp/ccloEkrr.s:4256   .debug_str:00000000000003eb .LASF128
     /tmp/ccloEkrr.s:4146   .debug_str:00000000000000e5 .LASF66
     /tmp/ccloEkrr.s:4334   .debug_str:0000000000000642 .LASF67
     /tmp/ccloEkrr.s:4286   .debug_str:0000000000000504 .LASF68
     /tmp/ccloEkrr.s:4240   .debug_str:0000000000000396 .LASF75
     /tmp/ccloEkrr.s:4248   .debug_str:00000000000003c6 .LASF69
     /tmp/ccloEkrr.s:4194   .debug_str:0000000000000274 .LASF71
     /tmp/ccloEkrr.s:4332   .debug_str:0000000000000639 .LASF74
     /tmp/ccloEkrr.s:4338   .debug_str:000000000000066e .LASF72
     /tmp/ccloEkrr.s:4366   .debug_str:00000000000007c8 .LASF73
     /tmp/ccloEkrr.s:4124   .debug_str:0000000000000024 .LASF76
     /tmp/ccloEkrr.s:4364   .debug_str:00000000000007be .LASF77
     /tmp/ccloEkrr.s:4210   .debug_str:00000000000002e1 .LASF78
     /tmp/ccloEkrr.s:4238   .debug_str:0000000000000378 .LASF79
     /tmp/ccloEkrr.s:4354   .debug_str:000000000000078a .LASF80
     /tmp/ccloEkrr.s:4362   .debug_str:00000000000007b5 .LASF82
     /tmp/ccloEkrr.s:4160   .debug_str:000000000000015d .LASF84
     /tmp/ccloEkrr.s:4222   .debug_str:0000000000000316 .LASF85
     /tmp/ccloEkrr.s:4206   .debug_str:00000000000002b5 .LASF86
     /tmp/ccloEkrr.s:4350   .debug_str:0000000000000769 .LASF87
     /tmp/ccloEkrr.s:4128   .debug_str:0000000000000066 .LASF88
     /tmp/ccloEkrr.s:4370   .debug_str:00000000000007ec .LASF89
     /tmp/ccloEkrr.s:4372   .debug_str:00000000000007ff .LASF90
     /tmp/ccloEkrr.s:4230   .debug_str:0000000000000353 .LASF91
     /tmp/ccloEkrr.s:4278   .debug_str:00000000000004ae .LASF92
     /tmp/ccloEkrr.s:4204   .debug_str:00000000000002b0 .LASF93
     /tmp/ccloEkrr.s:4144   .debug_str:00000000000000de .LASF94
     /tmp/ccloEkrr.s:4154   .debug_str:0000000000000119 .LASF95
     /tmp/ccloEkrr.s:4282   .debug_str:00000000000004d2 .LASF96
     /tmp/ccloEkrr.s:863    .text:00000000000005e0 .LFB16
     /tmp/ccloEkrr.s:915    .text:000000000000064c .LFE16
     /tmp/ccloEkrr.s:4134   .debug_str:00000000000000a2 .LASF97
     /tmp/ccloEkrr.s:4236   .debug_str:0000000000000372 .LASF98
     /tmp/ccloEkrr.s:876    .text:00000000000005f0 .LBB91
     /tmp/ccloEkrr.s:913    .text:000000000000064c .LBE91
     /tmp/ccloEkrr.s:883    .text:0000000000000600 .LVL102
     /tmp/ccloEkrr.s:888    .text:0000000000000610 .LVL103
     /tmp/ccloEkrr.s:893    .text:0000000000000620 .LVL104
     /tmp/ccloEkrr.s:898    .text:000000000000062c .LVL105
     /tmp/ccloEkrr.s:903    .text:000000000000063c .LVL106
     /tmp/ccloEkrr.s:907    .text:0000000000000644 .LVL107
     /tmp/ccloEkrr.s:911    .text:000000000000064c .LVL108
     /tmp/ccloEkrr.s:4156   .debug_str:0000000000000133 .LASF99
     /tmp/ccloEkrr.s:4368   .debug_str:00000000000007cd .LASF100
     /tmp/ccloEkrr.s:75     .text:0000000000000028 .LFB15
     /tmp/ccloEkrr.s:857    .text:00000000000005e0 .LFE15
     /tmp/ccloEkrr.s:3695   .debug_loc:0000000000000000 .LLST1
     /tmp/ccloEkrr.s:3702   .debug_loc:0000000000000023 .LLST2
     /tmp/ccloEkrr.s:4270   .debug_str:0000000000000472 .LASF101
     /tmp/ccloEkrr.s:3717   .debug_loc:000000000000006c .LLST3
     /tmp/ccloEkrr.s:4166   .debug_str:0000000000000199 .LASF102
     /tmp/ccloEkrr.s:3728   .debug_loc:00000000000000a2 .LLST4
     /tmp/ccloEkrr.s:4246   .debug_str:00000000000003bb .LASF103
     /tmp/ccloEkrr.s:3739   .debug_loc:00000000000000d8 .LLST5
     /tmp/ccloEkrr.s:4170   .debug_str:00000000000001ac .LASF104
     /tmp/ccloEkrr.s:3750   .debug_loc:000000000000010e .LLST6
     /tmp/ccloEkrr.s:4190   .debug_str:0000000000000252 .LASF105
GAS LISTING /tmp/ccloEkrr.s 			page 35


     /tmp/ccloEkrr.s:3761   .debug_loc:0000000000000144 .LLST7
     /tmp/ccloEkrr.s:4138   .debug_str:00000000000000b1 .LASF106
     /tmp/ccloEkrr.s:3776   .debug_loc:000000000000018d .LLST8
     /tmp/ccloEkrr.s:4374   .debug_str:0000000000000822 .LASF107
     /tmp/ccloEkrr.s:3803   .debug_loc:00000000000001e2 .LLST9
     /tmp/ccloEkrr.s:4272   .debug_str:0000000000000477 .LASF108
     /tmp/ccloEkrr.s:3830   .debug_loc:0000000000000237 .LLST10
     /tmp/ccloEkrr.s:573    .text:00000000000003bc .LBB41
     /tmp/ccloEkrr.s:647    .text:0000000000000458 .LBE41
     /tmp/ccloEkrr.s:4182   .debug_str:0000000000000218 .LASF109
     /tmp/ccloEkrr.s:580    .text:00000000000003cc .LBB42
     /tmp/ccloEkrr.s:4102   .debug_ranges:0000000000000000 .Ldebug_ranges0
     /tmp/ccloEkrr.s:3841   .debug_loc:000000000000026d .LLST17
     /tmp/ccloEkrr.s:3856   .debug_loc:00000000000002a7 .LLST18
     /tmp/ccloEkrr.s:3871   .debug_loc:00000000000002ef .LLST19
     /tmp/ccloEkrr.s:615    .text:000000000000040c .LVL64
     /tmp/ccloEkrr.s:620    .text:000000000000041c .LVL65
     /tmp/ccloEkrr.s:625    .text:000000000000042c .LVL66
     /tmp/ccloEkrr.s:630    .text:0000000000000438 .LVL67
     /tmp/ccloEkrr.s:635    .text:0000000000000448 .LVL68
     /tmp/ccloEkrr.s:639    .text:0000000000000450 .LVL69
     /tmp/ccloEkrr.s:643    .text:0000000000000458 .LVL70
     /tmp/ccloEkrr.s:577    .text:00000000000003c4 .LVL55
     /tmp/ccloEkrr.s:591    .text:00000000000003d8 .LVL58
     /tmp/ccloEkrr.s:598    .text:00000000000003e8 .LVL59
     /tmp/ccloEkrr.s:600    .text:00000000000003f0 .LVL60
     /tmp/ccloEkrr.s:604    .text:00000000000003f8 .LVL61
     /tmp/ccloEkrr.s:163    .text:000000000000008c .LBB30
     /tmp/ccloEkrr.s:203    .text:00000000000000ec .LBE30
     /tmp/ccloEkrr.s:3896   .debug_loc:0000000000000333 .LLST11
     /tmp/ccloEkrr.s:3905   .debug_loc:0000000000000358 .LLST12
     /tmp/ccloEkrr.s:3914   .debug_loc:0000000000000384 .LLST13
     /tmp/ccloEkrr.s:171    .text:000000000000009c .LVL9
     /tmp/ccloEkrr.s:176    .text:00000000000000ac .LVL10
     /tmp/ccloEkrr.s:181    .text:00000000000000bc .LVL11
     /tmp/ccloEkrr.s:186    .text:00000000000000c8 .LVL12
     /tmp/ccloEkrr.s:191    .text:00000000000000d8 .LVL13
     /tmp/ccloEkrr.s:195    .text:00000000000000e0 .LVL14
     /tmp/ccloEkrr.s:199    .text:00000000000000e8 .LVL15
     /tmp/ccloEkrr.s:297    .text:0000000000000144 .LBB39
     /tmp/ccloEkrr.s:335    .text:00000000000001a0 .LBE39
     /tmp/ccloEkrr.s:3922   .debug_loc:00000000000003a8 .LLST14
     /tmp/ccloEkrr.s:3931   .debug_loc:00000000000003cd .LLST15
     /tmp/ccloEkrr.s:3940   .debug_loc:00000000000003f9 .LLST16
     /tmp/ccloEkrr.s:304    .text:0000000000000154 .LVL18
     /tmp/ccloEkrr.s:309    .text:0000000000000164 .LVL19
     /tmp/ccloEkrr.s:314    .text:0000000000000174 .LVL20
     /tmp/ccloEkrr.s:319    .text:0000000000000180 .LVL21
     /tmp/ccloEkrr.s:324    .text:0000000000000190 .LVL22
     /tmp/ccloEkrr.s:328    .text:0000000000000198 .LVL23
     /tmp/ccloEkrr.s:332    .text:00000000000001a0 .LVL24
     /tmp/ccloEkrr.s:363    .text:00000000000001d8 .LBB73
     /tmp/ccloEkrr.s:401    .text:0000000000000234 .LBE73
     /tmp/ccloEkrr.s:3948   .debug_loc:000000000000041d .LLST20
     /tmp/ccloEkrr.s:3957   .debug_loc:0000000000000442 .LLST21
     /tmp/ccloEkrr.s:3966   .debug_loc:000000000000046e .LLST22
     /tmp/ccloEkrr.s:370    .text:00000000000001e8 .LVL27
GAS LISTING /tmp/ccloEkrr.s 			page 36


     /tmp/ccloEkrr.s:375    .text:00000000000001f8 .LVL28
     /tmp/ccloEkrr.s:380    .text:0000000000000208 .LVL29
     /tmp/ccloEkrr.s:385    .text:0000000000000214 .LVL30
     /tmp/ccloEkrr.s:390    .text:0000000000000224 .LVL31
     /tmp/ccloEkrr.s:394    .text:000000000000022c .LVL32
     /tmp/ccloEkrr.s:398    .text:0000000000000234 .LVL33
     /tmp/ccloEkrr.s:436    .text:000000000000028c .LBB75
     /tmp/ccloEkrr.s:474    .text:00000000000002e8 .LBE75
     /tmp/ccloEkrr.s:3974   .debug_loc:0000000000000492 .LLST23
     /tmp/ccloEkrr.s:3983   .debug_loc:00000000000004b7 .LLST24
     /tmp/ccloEkrr.s:3992   .debug_loc:00000000000004e3 .LLST25
     /tmp/ccloEkrr.s:443    .text:000000000000029c .LVL40
     /tmp/ccloEkrr.s:448    .text:00000000000002ac .LVL41
     /tmp/ccloEkrr.s:453    .text:00000000000002bc .LVL42
     /tmp/ccloEkrr.s:458    .text:00000000000002c8 .LVL43
     /tmp/ccloEkrr.s:463    .text:00000000000002d8 .LVL44
     /tmp/ccloEkrr.s:467    .text:00000000000002e0 .LVL45
     /tmp/ccloEkrr.s:471    .text:00000000000002e8 .LVL46
     /tmp/ccloEkrr.s:728    .text:00000000000004ec .LBB79
     /tmp/ccloEkrr.s:766    .text:0000000000000548 .LBE79
     /tmp/ccloEkrr.s:4000   .debug_loc:0000000000000507 .LLST26
     /tmp/ccloEkrr.s:4009   .debug_loc:000000000000052c .LLST27
     /tmp/ccloEkrr.s:4018   .debug_loc:0000000000000558 .LLST28
     /tmp/ccloEkrr.s:735    .text:00000000000004fc .LVL78
     /tmp/ccloEkrr.s:740    .text:000000000000050c .LVL79
     /tmp/ccloEkrr.s:745    .text:000000000000051c .LVL80
     /tmp/ccloEkrr.s:750    .text:0000000000000528 .LVL81
     /tmp/ccloEkrr.s:755    .text:0000000000000538 .LVL82
     /tmp/ccloEkrr.s:759    .text:0000000000000540 .LVL83
     /tmp/ccloEkrr.s:763    .text:0000000000000548 .LVL84
     /tmp/ccloEkrr.s:772    .text:0000000000000550 .LBB81
     /tmp/ccloEkrr.s:4026   .debug_loc:000000000000057c .LLST29
     /tmp/ccloEkrr.s:4041   .debug_loc:00000000000005b6 .LLST30
     /tmp/ccloEkrr.s:4056   .debug_loc:00000000000005fe .LLST31
     /tmp/ccloEkrr.s:825    .text:0000000000000594 .LVL94
     /tmp/ccloEkrr.s:830    .text:00000000000005a4 .LVL95
     /tmp/ccloEkrr.s:835    .text:00000000000005b4 .LVL96
     /tmp/ccloEkrr.s:840    .text:00000000000005c0 .LVL97
     /tmp/ccloEkrr.s:845    .text:00000000000005d0 .LVL98
     /tmp/ccloEkrr.s:849    .text:00000000000005d8 .LVL99
     /tmp/ccloEkrr.s:853    .text:00000000000005e0 .LVL100
     /tmp/ccloEkrr.s:146    .text:0000000000000074 .LVL7
     /tmp/ccloEkrr.s:347    .text:00000000000001b0 .LVL25
     /tmp/ccloEkrr.s:361    .text:00000000000001d8 .LVL26
     /tmp/ccloEkrr.s:406    .text:0000000000000244 .LVL34
     /tmp/ccloEkrr.s:413    .text:0000000000000258 .LVL35
     /tmp/ccloEkrr.s:420    .text:000000000000026c .LVL36
     /tmp/ccloEkrr.s:425    .text:0000000000000274 .LVL37
     /tmp/ccloEkrr.s:430    .text:0000000000000284 .LVL38
     /tmp/ccloEkrr.s:434    .text:000000000000028c .LVL39
     /tmp/ccloEkrr.s:479    .text:00000000000002f0 .LVL47
     /tmp/ccloEkrr.s:482    .text:00000000000002fc .LVL48
     /tmp/ccloEkrr.s:526    .text:000000000000035c .LVL49
     /tmp/ccloEkrr.s:529    .text:0000000000000368 .LVL50
     /tmp/ccloEkrr.s:539    .text:000000000000037c .LVL51
     /tmp/ccloEkrr.s:548    .text:000000000000038c .LVL52
     /tmp/ccloEkrr.s:558    .text:00000000000003a4 .LVL53
GAS LISTING /tmp/ccloEkrr.s 			page 37


     /tmp/ccloEkrr.s:567    .text:00000000000003b4 .LVL54
     /tmp/ccloEkrr.s:652    .text:0000000000000464 .LVL71
     /tmp/ccloEkrr.s:4360   .debug_str:00000000000007ac .LASF129
     /tmp/ccloEkrr.s:4174   .debug_str:00000000000001cd .LASF130
     /tmp/ccloEkrr.s:10     .text:0000000000000000 .LFB14
     /tmp/ccloEkrr.s:37     .text:0000000000000028 .LFE14
     /tmp/ccloEkrr.s:4075   .debug_loc:000000000000063c .LLST0
     /tmp/ccloEkrr.s:26     .text:0000000000000018 .LVL1
     /tmp/ccloEkrr.s:4316   .debug_str:00000000000005be .LASF110
     /tmp/ccloEkrr.s:4340   .debug_str:0000000000000673 .LASF111
     /tmp/ccloEkrr.s:4118   .debug_str:0000000000000000 .LASF112
     /tmp/ccloEkrr.s:4244   .debug_str:00000000000003b6 .LASF113
     /tmp/ccloEkrr.s:4314   .debug_str:00000000000005b9 .LASF114
     /tmp/ccloEkrr.s:4158   .debug_str:000000000000014d .LASF115
     /tmp/ccloEkrr.s:4356   .debug_str:0000000000000795 .LASF117
     /tmp/ccloEkrr.s:4216   .debug_str:00000000000002fe .LASF116
     /tmp/ccloEkrr.s:4122   .debug_str:000000000000001d .LASF118
     /tmp/ccloEkrr.s:4330   .debug_str:0000000000000629 .LASF119
     /tmp/ccloEkrr.s:4320   .debug_str:00000000000005dc .LASF120
     /tmp/ccloEkrr.s:4308   .debug_str:0000000000000588 .LASF121
     /tmp/ccloEkrr.s:4228   .debug_str:0000000000000348 .LASF122
     /tmp/ccloEkrr.s:4268   .debug_str:000000000000046a .LASF123
     /tmp/ccloEkrr.s:105    .text:0000000000000054 .LVL2
     /tmp/ccloEkrr.s:214    .text:00000000000000f4 .LVL16
     /tmp/ccloEkrr.s:803    .text:0000000000000570 .LVL89
     /tmp/ccloEkrr.s:816    .text:0000000000000584 .LVL93
     /tmp/ccloEkrr.s:118    .text:000000000000005c .LVL3
     /tmp/ccloEkrr.s:800    .text:000000000000056c .LVL88
     /tmp/ccloEkrr.s:124    .text:0000000000000060 .LVL4
     /tmp/ccloEkrr.s:806    .text:0000000000000574 .LVL90
     /tmp/ccloEkrr.s:130    .text:0000000000000064 .LVL5
     /tmp/ccloEkrr.s:809    .text:0000000000000578 .LVL91
     /tmp/ccloEkrr.s:136    .text:0000000000000068 .LVL6
     /tmp/ccloEkrr.s:812    .text:000000000000057c .LVL92
     /tmp/ccloEkrr.s:668    .text:0000000000000474 .LVL72
     /tmp/ccloEkrr.s:683    .text:0000000000000490 .LVL73
     /tmp/ccloEkrr.s:706    .text:00000000000004c8 .LVL74
     /tmp/ccloEkrr.s:714    .text:00000000000004d4 .LVL75
     /tmp/ccloEkrr.s:724    .text:00000000000004e8 .LVL76
     /tmp/ccloEkrr.s:769    .text:000000000000054c .LVL85
     /tmp/ccloEkrr.s:579    .text:00000000000003cc .LVL56
     /tmp/ccloEkrr.s:585    .text:00000000000003d0 .LVL57
     /tmp/ccloEkrr.s:606    .text:00000000000003fc .LVL62
     /tmp/ccloEkrr.s:613    .text:0000000000000404 .LVL63
     /tmp/ccloEkrr.s:161    .text:000000000000008c .LVL8
     /tmp/ccloEkrr.s:296    .text:0000000000000144 .LVL17
     /tmp/ccloEkrr.s:727    .text:00000000000004ec .LVL77
     /tmp/ccloEkrr.s:771    .text:0000000000000550 .LVL86
     /tmp/ccloEkrr.s:777    .text:0000000000000554 .LVL87
     /tmp/ccloEkrr.s:14     .text:0000000000000000 .LVL0
     /tmp/ccloEkrr.s:931    .debug_info:0000000000000000 .Ldebug_info0
     /tmp/ccloEkrr.s:587    .text:00000000000003d0 .LBE42
     /tmp/ccloEkrr.s:608    .text:00000000000003fc .LBB45
     /tmp/ccloEkrr.s:646    .text:0000000000000458 .LBE45
     /tmp/ccloEkrr.s:779    .text:0000000000000554 .LBE81
     /tmp/ccloEkrr.s:819    .text:0000000000000584 .LBB84
     /tmp/ccloEkrr.s:855    .text:00000000000005e0 .LBE84
GAS LISTING /tmp/ccloEkrr.s 			page 38



UNDEFINED SYMBOLS
_Z3fibm
_ZN6Thread11getPRunningEv
_ZN6Thread15pRunningContextE
_Z9putStringPKc
_Z6putInti
_Z10putNewlinev
_Z10stopKernelv
_ZN8MemAlloc3getEv
_ZN8MemAlloc8allocMemEm
_ZN8MemAlloc7freeMemEPv
_ZN6Thread12switchToUserEv
_ZN6Thread12createThreadEPmPFvPvES1_
_ZN6Thread4exitEv
kernelThread
_ZN9Scheduler3putEP6Thread
_ZN9Scheduler14dispatchToNextEv
_ZN6Thread4joinEm
