GAS LISTING /tmp/ccg7MhpB.s 			page 1


   1              		.file	"trap.cpp"
   2              		.option pic
   3              		.option norelax
   4              		.text
   5              	.Ltext0:
   6              		.align	2
   7              		.globl	_Z8testCallm
   9              	_Z8testCallm:
  10              	.LFB18:
  11              		.file 1 "src/trap.cpp"
   1:src/trap.cpp  **** #include "../h/thread.h"
   2:src/trap.cpp  **** #include "../h/scheduler.h"
   3:src/trap.cpp  **** #include "../h/alloc.h"
   4:src/trap.cpp  **** #include "../h/0_console.h"
   5:src/trap.cpp  **** 
   6:src/trap.cpp  **** #include "../lib/console.h"
   7:src/trap.cpp  **** 
   8:src/trap.cpp  **** uint64 gTimer = 0;
   9:src/trap.cpp  **** 
  10:src/trap.cpp  **** uint64 fib(uint64 n);
  11:src/trap.cpp  **** 
  12:src/trap.cpp  **** uint64 testCall(uint64 n)
  13:src/trap.cpp  **** {
  12              		.loc 1 13 1
  13              		.cfi_startproc
  14              	.LVL0:
  15 0000 130101FF 		addi	sp,sp,-16
  16              		.cfi_def_cfa_offset 16
  17 0004 23341100 		sd	ra,8(sp)
  18 0008 23308100 		sd	s0,0(sp)
  19              		.cfi_offset 1, -8
  20              		.cfi_offset 8, -16
  21 000c 13040101 		addi	s0,sp,16
  22              		.cfi_def_cfa 8, 0
  14:src/trap.cpp  ****     return fib(n);
  23              		.loc 1 14 5
  24              		.loc 1 14 15 is_stmt 0
  25 0010 97000000 		call	_Z3fibm@plt
  25      E7800000 
  26              	.LVL1:
  15:src/trap.cpp  **** }
  27              		.loc 1 15 1
  28 0018 83308100 		ld	ra,8(sp)
  29              		.cfi_restore 1
  30 001c 03340100 		ld	s0,0(sp)
  31              		.cfi_restore 8
  32              		.cfi_def_cfa 2, 16
  33 0020 13010101 		addi	sp,sp,16
  34              		.cfi_def_cfa_offset 0
  35 0024 67800000 		jr	ra
  36              		.cfi_endproc
  37              	.LFE18:
  39              		.section	.rodata.str1.8,"aMS",@progbits,1
  40              		.align	3
  41              	.LC0:
  42 0000 54696D65 		.string	"Time: "
  42      3A2000
GAS LISTING /tmp/ccg7MhpB.s 			page 2


  43 0007 00       		.align	3
  44              	.LC1:
  45 0008 7300     		.string	"s"
  46              		.text
  47              		.align	2
  48              		.globl	_Z12doTimerStuffv
  50              	_Z12doTimerStuffv:
  51              	.LFB19:
  16:src/trap.cpp  **** 
  17:src/trap.cpp  **** void doTimerStuff()
  18:src/trap.cpp  **** {
  52              		.loc 1 18 1 is_stmt 1
  53              		.cfi_startproc
  54 0028 130101FF 		addi	sp,sp,-16
  55              		.cfi_def_cfa_offset 16
  56 002c 23341100 		sd	ra,8(sp)
  57 0030 23308100 		sd	s0,0(sp)
  58              		.cfi_offset 1, -8
  59              		.cfi_offset 8, -16
  60 0034 13040101 		addi	s0,sp,16
  61              		.cfi_def_cfa 8, 0
  19:src/trap.cpp  ****     IThread::timeSliceCounter++;
  62              		.loc 1 19 5
  63              		.loc 1 19 30 is_stmt 0
  64 0038 17070000 		la	a4,_ZN7IThread16timeSliceCounterE
  64      03370700 
  65 0040 83370700 		ld	a5,0(a4)
  66 0044 93871700 		addi	a5,a5,1
  67 0048 2330F700 		sd	a5,0(a4)
  20:src/trap.cpp  ****     if(IThread::timeSliceCounter == 2)
  68              		.loc 1 20 5 is_stmt 1
  69 004c 13072000 		li	a4,2
  70 0050 638AE702 		beq	a5,a4,.L7
  71              	.L4:
  21:src/trap.cpp  ****     {
  22:src/trap.cpp  ****         IThread::timeSliceCounter = 0;
  23:src/trap.cpp  ****         Scheduler::dispatchUserVersion();
  24:src/trap.cpp  ****     }
  25:src/trap.cpp  **** 
  26:src/trap.cpp  ****     gTimer++;
  72              		.loc 1 26 5
  73              		.loc 1 26 11 is_stmt 0
  74 0054 17070000 		lla	a4,.LANCHOR0
  74      13070700 
  75 005c 83370700 		ld	a5,0(a4)
  76 0060 93871700 		addi	a5,a5,1
  77 0064 2330F700 		sd	a5,0(a4)
  27:src/trap.cpp  ****     if (gTimer % 10 == 0)
  78              		.loc 1 27 5 is_stmt 1
  79              		.loc 1 27 16 is_stmt 0
  80 0068 1307A000 		li	a4,10
  81 006c B3F7E702 		remu	a5,a5,a4
  82              		.loc 1 27 5
  83 0070 63860702 		beqz	a5,.L8
  84              	.L3:
  28:src/trap.cpp  ****     {
  29:src/trap.cpp  ****         putString("Time: ");
GAS LISTING /tmp/ccg7MhpB.s 			page 3


  30:src/trap.cpp  ****         putInt(gTimer / 10);
  31:src/trap.cpp  ****         putString("s");
  32:src/trap.cpp  ****         putNewline();
  33:src/trap.cpp  ****     }
  34:src/trap.cpp  **** }
  85              		.loc 1 34 1
  86 0074 83308100 		ld	ra,8(sp)
  87              		.cfi_remember_state
  88              		.cfi_restore 1
  89 0078 03340100 		ld	s0,0(sp)
  90              		.cfi_restore 8
  91              		.cfi_def_cfa 2, 16
  92 007c 13010101 		addi	sp,sp,16
  93              		.cfi_def_cfa_offset 0
  94 0080 67800000 		jr	ra
  95              	.L7:
  96              		.cfi_restore_state
  22:src/trap.cpp  ****         Scheduler::dispatchUserVersion();
  97              		.loc 1 22 9 is_stmt 1
  22:src/trap.cpp  ****         Scheduler::dispatchUserVersion();
  98              		.loc 1 22 35 is_stmt 0
  99 0084 97070000 		la	a5,_ZN7IThread16timeSliceCounterE
  99      83B70700 
 100 008c 23B00700 		sd	zero,0(a5)
  23:src/trap.cpp  ****     }
 101              		.loc 1 23 9 is_stmt 1
  23:src/trap.cpp  ****     }
 102              		.loc 1 23 39 is_stmt 0
 103 0090 97000000 		call	_ZN9Scheduler19dispatchUserVersionEv@plt
 103      E7800000 
 104              	.LVL2:
 105 0098 6FF0DFFB 		j	.L4
 106              	.L8:
  29:src/trap.cpp  ****         putInt(gTimer / 10);
 107              		.loc 1 29 9 is_stmt 1
  29:src/trap.cpp  ****         putInt(gTimer / 10);
 108              		.loc 1 29 18 is_stmt 0
 109 009c 17050000 		lla	a0,.LC0
 109      13050500 
 110 00a4 97000000 		call	_Z9putStringPKc@plt
 110      E7800000 
 111              	.LVL3:
  30:src/trap.cpp  ****         putString("s");
 112              		.loc 1 30 9 is_stmt 1
  30:src/trap.cpp  ****         putString("s");
 113              		.loc 1 30 23 is_stmt 0
 114 00ac 17050000 		ld	a0,.LANCHOR0
 114      03350500 
 115 00b4 9307A000 		li	a5,10
 116 00b8 3355F502 		divu	a0,a0,a5
  30:src/trap.cpp  ****         putString("s");
 117              		.loc 1 30 15
 118 00bc 1B050500 		sext.w	a0,a0
 119 00c0 97000000 		call	_Z6putInti@plt
 119      E7800000 
 120              	.LVL4:
  31:src/trap.cpp  ****         putNewline();
GAS LISTING /tmp/ccg7MhpB.s 			page 4


 121              		.loc 1 31 9 is_stmt 1
  31:src/trap.cpp  ****         putNewline();
 122              		.loc 1 31 18 is_stmt 0
 123 00c8 17050000 		lla	a0,.LC1
 123      13050500 
 124 00d0 97000000 		call	_Z9putStringPKc@plt
 124      E7800000 
 125              	.LVL5:
  32:src/trap.cpp  ****     }
 126              		.loc 1 32 9 is_stmt 1
  32:src/trap.cpp  ****     }
 127              		.loc 1 32 19 is_stmt 0
 128 00d8 97000000 		call	_Z10putNewlinev@plt
 128      E7800000 
 129              	.LVL6:
 130              		.loc 1 34 1
 131 00e0 6FF05FF9 		j	.L3
 132              		.cfi_endproc
 133              	.LFE19:
 135              		.align	2
 136              		.globl	_Z12doSleepStuffv
 138              	_Z12doSleepStuffv:
 139              	.LFB20:
  35:src/trap.cpp  **** 
  36:src/trap.cpp  **** void doSleepStuff()
  37:src/trap.cpp  **** {
 140              		.loc 1 37 1 is_stmt 1
 141              		.cfi_startproc
 142 00e4 130101FE 		addi	sp,sp,-32
 143              		.cfi_def_cfa_offset 32
 144 00e8 233C1100 		sd	ra,24(sp)
 145 00ec 23388100 		sd	s0,16(sp)
 146 00f0 23349100 		sd	s1,8(sp)
 147              		.cfi_offset 1, -8
 148              		.cfi_offset 8, -16
 149              		.cfi_offset 9, -24
 150 00f4 13040102 		addi	s0,sp,32
 151              		.cfi_def_cfa 8, 0
  38:src/trap.cpp  ****     IThread* pCur = Scheduler::get()->pSleepHead;
 152              		.loc 1 38 5
 153              	.LBB41:
 154              	.LBB42:
 155              		.file 2 "src/../h/scheduler.h"
   1:src/../h/scheduler.h **** #pragma once
   2:src/../h/scheduler.h **** 
   3:src/../h/scheduler.h **** #include "../h/thread.h"
   4:src/../h/scheduler.h **** 
   5:src/../h/scheduler.h **** class Scheduler // singleton
   6:src/../h/scheduler.h **** {
   7:src/../h/scheduler.h **** public:
   8:src/../h/scheduler.h ****     static Scheduler* get()
   9:src/../h/scheduler.h ****     {
  10:src/../h/scheduler.h ****         static Scheduler instance;
 156              		.loc 2 10 9
 157              		.loc 2 10 26 is_stmt 0
 158 00f8 97070000 		lbu	a5,_ZGVZN9Scheduler3getEvE8instance
 158      83C70700 
GAS LISTING /tmp/ccg7MhpB.s 			page 5


 159 0100 63900702 		bnez	a5,.L10
 160              	.LVL7:
 161              	.LBB43:
 162              	.LBB44:
 163              	.LBB45:
  11:src/../h/scheduler.h ****         return &instance;
  12:src/../h/scheduler.h ****     }
  13:src/../h/scheduler.h **** 
  14:src/../h/scheduler.h ****     int sleep(time_t time);
  15:src/../h/scheduler.h **** 
  16:src/../h/scheduler.h ****     static void dispatchToNext(); // WARNING: different than sys. call dispatch()
  17:src/../h/scheduler.h ****     static void dispatchUserVersion();
  18:src/../h/scheduler.h ****     static IThread* getNext();
  19:src/../h/scheduler.h ****     static void put(IThread*);
  20:src/../h/scheduler.h ****     static void printState();
  21:src/../h/scheduler.h **** 
  22:src/../h/scheduler.h ****     IThread* pHead; // points to the one that is the next to be run
  23:src/../h/scheduler.h ****     IThread* pSleepHead;
  24:src/../h/scheduler.h **** 
  25:src/../h/scheduler.h **** private:
  26:src/../h/scheduler.h ****     Scheduler()
  27:src/../h/scheduler.h ****         : pHead(nullptr), pSleepHead(nullptr)
 164              		.loc 2 27 45
 165 0104 97070000 		lla	a5,_ZZN9Scheduler3getEvE8instance
 165      93870700 
 166 010c 23B00700 		sd	zero,0(a5)
 167 0110 23B40700 		sd	zero,8(a5)
 168              	.LVL8:
 169              	.LBE45:
 170              	.LBE44:
 171              	.LBE43:
  10:src/../h/scheduler.h ****         return &instance;
 172              		.loc 2 10 26
 173 0114 93071000 		li	a5,1
 174 0118 17070000 		sb	a5,_ZGVZN9Scheduler3getEvE8instance,a4
 174      2300F700 
 175              	.L10:
  11:src/../h/scheduler.h ****         return &instance;
 176              		.loc 2 11 9 is_stmt 1
 177              	.LBE42:
 178              	.LBE41:
 179              		.loc 1 38 39 is_stmt 0
 180 0120 97040000 		ld	s1,_ZZN9Scheduler3getEvE8instance+8
 180      83B40400 
 181              	.LVL9:
 182              	.L12:
  39:src/trap.cpp  **** 
  40:src/trap.cpp  ****     while(pCur)
 183              		.loc 1 40 5 is_stmt 1
 184              		.loc 1 40 11
 185 0128 638E0404 		beqz	s1,.L11
  41:src/trap.cpp  ****     {
  42:src/trap.cpp  ****         pCur->remainingSleep--;
 186              		.loc 1 42 9
 187              		.loc 1 42 15 is_stmt 0
 188 012c 83B78404 		ld	a5,72(s1)
 189              		.loc 1 42 29
GAS LISTING /tmp/ccg7MhpB.s 			page 6


 190 0130 9387F7FF 		addi	a5,a5,-1
 191 0134 23B4F404 		sd	a5,72(s1)
  43:src/trap.cpp  **** 
  44:src/trap.cpp  ****         assert(pCur->remainingSleep >= 0);
 192              		.loc 1 44 9 is_stmt 1
 193              	.LVL10:
 194              		.file 3 "src/../h/../h/my_console.h"
   1:src/../h/../h/my_console.h **** #pragma once
   2:src/../h/../h/my_console.h **** 
   3:src/../h/../h/my_console.h **** #include "../h/risc.h"
   4:src/../h/../h/my_console.h **** 
   5:src/../h/../h/my_console.h **** #include "../lib/hw.h"
   6:src/../h/../h/my_console.h **** 
   7:src/../h/../h/my_console.h **** #define __DEBUG_MODE
   8:src/../h/../h/my_console.h **** 
   9:src/../h/../h/my_console.h **** 
  10:src/../h/../h/my_console.h **** void putString(const char* s);
  11:src/../h/../h/my_console.h **** void putInt(int n);
  12:src/../h/../h/my_console.h **** void putNewline();
  13:src/../h/../h/my_console.h **** void putU64(uint64 n);
  14:src/../h/../h/my_console.h **** void putBinary(uint64 n);
  15:src/../h/../h/my_console.h **** 
  16:src/../h/../h/my_console.h **** [[noreturn]] void stopKernel();
  17:src/../h/../h/my_console.h **** 
  18:src/../h/../h/my_console.h **** inline void _assert(bool valid, const char* file, int line) // MUST be inline
  19:src/../h/../h/my_console.h **** {
  20:src/../h/../h/my_console.h ****     if(valid)
 195              		.loc 3 20 5
  21:src/../h/../h/my_console.h ****         return;
 196              		.loc 3 21 9
  45:src/trap.cpp  **** 
  46:src/trap.cpp  ****         pCur = pCur->pNext;
 197              		.loc 1 46 9
 198              		.loc 1 46 14 is_stmt 0
 199 0138 83B40403 		ld	s1,48(s1)
 200              	.LVL11:
  40:src/trap.cpp  ****     {
 201              		.loc 1 40 5
 202 013c 6FF0DFFE 		j	.L12
 203              	.LVL12:
 204              	.L23:
 205              	.LBB46:
  47:src/trap.cpp  ****     }
  48:src/trap.cpp  **** 
  49:src/trap.cpp  ****     while(true)
  50:src/trap.cpp  ****     {
  51:src/trap.cpp  ****         pCur = Scheduler::get()->pSleepHead;
  52:src/trap.cpp  ****         IThread* pPrev = nullptr;
  53:src/trap.cpp  ****         bool changedList = false;
  54:src/trap.cpp  **** 
  55:src/trap.cpp  ****         while (pCur)
  56:src/trap.cpp  ****         {
  57:src/trap.cpp  ****             if(pCur->remainingSleep == 0)
  58:src/trap.cpp  ****             {
  59:src/trap.cpp  ****                 if(pCur == Scheduler::get()->pSleepHead) // first in list
 206              		.loc 1 59 17 is_stmt 1
 207              	.LBB47:
GAS LISTING /tmp/ccg7MhpB.s 			page 7


 208              	.LBB48:
  10:src/../h/scheduler.h ****         return &instance;
 209              		.loc 2 10 9
  10:src/../h/scheduler.h ****         return &instance;
 210              		.loc 2 10 26 is_stmt 0
 211 0140 97070000 		lbu	a5,_ZGVZN9Scheduler3getEvE8instance
 211      83C70700 
 212 0148 63900702 		bnez	a5,.L16
 213              	.LVL13:
 214              	.LBB49:
 215              	.LBB50:
 216              	.LBB51:
 217              		.loc 2 27 45
 218 014c 97070000 		lla	a5,_ZZN9Scheduler3getEvE8instance
 218      93870700 
 219 0154 23B00700 		sd	zero,0(a5)
 220 0158 23B40700 		sd	zero,8(a5)
 221              	.LVL14:
 222              	.LBE51:
 223              	.LBE50:
 224              	.LBE49:
  10:src/../h/scheduler.h ****         return &instance;
 225              		.loc 2 10 26
 226 015c 93071000 		li	a5,1
 227 0160 97060000 		sb	a5,_ZGVZN9Scheduler3getEvE8instance,a3
 227      2380F600 
 228              	.L16:
  11:src/../h/scheduler.h ****     }
 229              		.loc 2 11 9 is_stmt 1
 230              	.LBE48:
 231              	.LBE47:
 232              		.loc 1 59 46 is_stmt 0
 233 0168 97070000 		ld	a5,_ZZN9Scheduler3getEvE8instance+8
 233      83B70700 
 234              		.loc 1 59 17
 235 0170 6380A706 		beq	a5,a0,.L22
  60:src/trap.cpp  ****                 {
  61:src/trap.cpp  ****                     Scheduler::get()->pSleepHead = pCur->pNext;
  62:src/trap.cpp  ****                 }
  63:src/trap.cpp  ****                 else // not first in list
  64:src/trap.cpp  ****                 {
  65:src/trap.cpp  ****                     pPrev->pNext = pCur->pNext;
 236              		.loc 1 65 21 is_stmt 1
 237              		.loc 1 65 42 is_stmt 0
 238 0174 83370503 		ld	a5,48(a0)
 239              		.loc 1 65 34
 240 0178 2338F702 		sd	a5,48(a4)
 241              	.LVL15:
 242              	.L19:
  66:src/trap.cpp  ****                 }
  67:src/trap.cpp  **** 
  68:src/trap.cpp  ****                 changedList = true;
 243              		.loc 1 68 17 is_stmt 1
  69:src/trap.cpp  ****                 Scheduler::put(pCur); // WARNING: must be last command to preserve the pCur->pNext
 244              		.loc 1 69 17
 245              		.loc 1 69 31 is_stmt 0
 246 017c 97000000 		call	_ZN9Scheduler3putEP7IThread@plt
GAS LISTING /tmp/ccg7MhpB.s 			page 8


 246      E7800000 
 247              	.LVL16:
  70:src/trap.cpp  ****                 break;
 248              		.loc 1 70 17 is_stmt 1
  71:src/trap.cpp  ****             }
  72:src/trap.cpp  **** 
  73:src/trap.cpp  ****             pPrev = pCur;
  74:src/trap.cpp  ****             pCur = pCur->pNext;
  75:src/trap.cpp  ****         }
  76:src/trap.cpp  **** 
  77:src/trap.cpp  ****         if(changedList == false) // this means there was one pass trough the loop and no changes we
 249              		.loc 1 77 9
 250              	.L11:
 251              	.LBE46:
  49:src/trap.cpp  ****     {
 252              		.loc 1 49 5
 253              	.LBB62:
  51:src/trap.cpp  ****         IThread* pPrev = nullptr;
 254              		.loc 1 51 9
 255              	.LBB52:
 256              	.LBB53:
  10:src/../h/scheduler.h ****         return &instance;
 257              		.loc 2 10 9
  10:src/../h/scheduler.h ****         return &instance;
 258              		.loc 2 10 26 is_stmt 0
 259 0184 97070000 		lbu	a5,_ZGVZN9Scheduler3getEvE8instance
 259      83C70700 
 260 018c 63900702 		bnez	a5,.L13
 261              	.LVL17:
 262              	.LBB54:
 263              	.LBB55:
 264              	.LBB56:
 265              		.loc 2 27 45
 266 0190 97070000 		lla	a5,_ZZN9Scheduler3getEvE8instance
 266      93870700 
 267 0198 23B00700 		sd	zero,0(a5)
 268 019c 23B40700 		sd	zero,8(a5)
 269              	.LVL18:
 270              	.LBE56:
 271              	.LBE55:
 272              	.LBE54:
  10:src/../h/scheduler.h ****         return &instance;
 273              		.loc 2 10 26
 274 01a0 93071000 		li	a5,1
 275 01a4 17070000 		sb	a5,_ZGVZN9Scheduler3getEvE8instance,a4
 275      2300F700 
 276              	.L13:
  11:src/../h/scheduler.h ****     }
 277              		.loc 2 11 9 is_stmt 1
 278              	.LBE53:
 279              	.LBE52:
  51:src/trap.cpp  ****         IThread* pPrev = nullptr;
 280              		.loc 1 51 14 is_stmt 0
 281 01ac 17050000 		ld	a0,_ZZN9Scheduler3getEvE8instance+8
 281      03350500 
 282              	.LVL19:
  52:src/trap.cpp  ****         bool changedList = false;
GAS LISTING /tmp/ccg7MhpB.s 			page 9


 283              		.loc 1 52 9 is_stmt 1
  53:src/trap.cpp  **** 
 284              		.loc 1 53 9
  52:src/trap.cpp  ****         bool changedList = false;
 285              		.loc 1 52 18 is_stmt 0
 286 01b4 13870400 		mv	a4,s1
 287              	.LVL20:
 288              	.L20:
  55:src/trap.cpp  ****         {
 289              		.loc 1 55 9 is_stmt 1
  55:src/trap.cpp  ****         {
 290              		.loc 1 55 16
 291 01b8 63040504 		beqz	a0,.L9
  57:src/trap.cpp  ****             {
 292              		.loc 1 57 13
  57:src/trap.cpp  ****             {
 293              		.loc 1 57 22 is_stmt 0
 294 01bc 83378504 		ld	a5,72(a0)
  57:src/trap.cpp  ****             {
 295              		.loc 1 57 13
 296 01c0 E38007F8 		beqz	a5,.L23
  73:src/trap.cpp  ****             pCur = pCur->pNext;
 297              		.loc 1 73 13 is_stmt 1
 298              	.LVL21:
  74:src/trap.cpp  ****         }
 299              		.loc 1 74 13
  73:src/trap.cpp  ****             pCur = pCur->pNext;
 300              		.loc 1 73 19 is_stmt 0
 301 01c4 13070500 		mv	a4,a0
  74:src/trap.cpp  ****         }
 302              		.loc 1 74 18
 303 01c8 03350503 		ld	a0,48(a0)
 304              	.LVL22:
  55:src/trap.cpp  ****         {
 305              		.loc 1 55 9
 306 01cc 6FF0DFFE 		j	.L20
 307              	.L22:
  61:src/trap.cpp  ****                 }
 308              		.loc 1 61 21 is_stmt 1
 309              	.LBB57:
 310              	.LBB58:
  10:src/../h/scheduler.h ****         return &instance;
 311              		.loc 2 10 9
  10:src/../h/scheduler.h ****         return &instance;
 312              		.loc 2 10 26 is_stmt 0
 313 01d0 97070000 		lbu	a5,_ZGVZN9Scheduler3getEvE8instance
 313      83C70700 
 314 01d8 639C0700 		bnez	a5,.L18
 315              	.LVL23:
 316              	.LBB59:
 317              	.LBB60:
 318              	.LBB61:
 319              		.loc 2 27 45
 320 01dc 97070000 		sd	zero,_ZZN9Scheduler3getEvE8instance,a5
 320      23B00700 
 321              	.LVL24:
 322              	.LBE61:
GAS LISTING /tmp/ccg7MhpB.s 			page 10


 323              	.LBE60:
 324              	.LBE59:
  10:src/../h/scheduler.h ****         return &instance;
 325              		.loc 2 10 26
 326 01e4 93071000 		li	a5,1
 327 01e8 17070000 		sb	a5,_ZGVZN9Scheduler3getEvE8instance,a4
 327      2300F700 
 328              	.LVL25:
 329              	.L18:
  11:src/../h/scheduler.h ****     }
 330              		.loc 2 11 9 is_stmt 1
 331              	.LBE58:
 332              	.LBE57:
  61:src/trap.cpp  ****                 }
 333              		.loc 1 61 58 is_stmt 0
 334 01f0 83370503 		ld	a5,48(a0)
  61:src/trap.cpp  ****                 }
 335              		.loc 1 61 50
 336 01f4 17070000 		sd	a5,_ZZN9Scheduler3getEvE8instance+8,a4
 336      2330F700 
 337 01fc 6FF01FF8 		j	.L19
 338              	.LVL26:
 339              	.L9:
 340              	.LBE62:
  78:src/trap.cpp  ****             break;
  79:src/trap.cpp  ****     }
  80:src/trap.cpp  **** }
 341              		.loc 1 80 1
 342 0200 83308101 		ld	ra,24(sp)
 343              		.cfi_restore 1
 344 0204 03340101 		ld	s0,16(sp)
 345              		.cfi_restore 8
 346              		.cfi_def_cfa 2, 32
 347 0208 83348100 		ld	s1,8(sp)
 348              		.cfi_restore 9
 349 020c 13010102 		addi	sp,sp,32
 350              		.cfi_def_cfa_offset 0
 351 0210 67800000 		jr	ra
 352              		.cfi_endproc
 353              	.LFE20:
 355              		.section	.rodata.str1.8
 356 000a 00000000 		.align	3
 356      0000
 357              	.LC2:
 358 0010 3D3D3D3D 		.string	"===================== ASSERT file: "
 358      3D3D3D3D 
 358      3D3D3D3D 
 358      3D3D3D3D 
 358      3D3D3D3D 
 359 0034 00000000 		.align	3
 360              	.LC3:
 361 0038 7372632F 		.string	"src/trap.cpp"
 361      74726170 
 361      2E637070 
 361      00
 362 0045 000000   		.align	3
 363              	.LC4:
GAS LISTING /tmp/ccg7MhpB.s 			page 11


 364 0048 20202020 		.string	"    line: "
 364      6C696E65 
 364      3A2000
 365 0053 00000000 		.align	3
 365      00
 366              	.LC5:
 367 0058 2020203D 		.string	"   ==========================="
 367      3D3D3D3D 
 367      3D3D3D3D 
 367      3D3D3D3D 
 367      3D3D3D3D 
 368              		.text
 369              		.align	2
 370              		.globl	_Z22cTimerInterruptRoutinev
 372              	_Z22cTimerInterruptRoutinev:
 373              	.LFB21:
  81:src/trap.cpp  **** 
  82:src/trap.cpp  **** void cTimerInterruptRoutine()
  83:src/trap.cpp  **** {
 374              		.loc 1 83 1 is_stmt 1
 375              		.cfi_startproc
 376 0214 130101FE 		addi	sp,sp,-32
 377              		.cfi_def_cfa_offset 32
 378 0218 233C1100 		sd	ra,24(sp)
 379 021c 23388100 		sd	s0,16(sp)
 380 0220 23349100 		sd	s1,8(sp)
 381              		.cfi_offset 1, -8
 382              		.cfi_offset 8, -16
 383              		.cfi_offset 9, -24
 384 0224 13040102 		addi	s0,sp,32
 385              		.cfi_def_cfa 8, 0
  84:src/trap.cpp  ****     __asm__ volatile ("mv x10, x10");
 386              		.loc 1 84 5
 387              		.loc 1 84 37 is_stmt 0
 388              	#APP
 389              	# 84 "src/trap.cpp" 1
  85              	
  86:src/trap.cpp  ****     uint64 scause;
 390              		mv x10, x10
 391              	# 0 "" 2
 392              		.loc 1 86 5 is_stmt 1
  87:src/trap.cpp  ****     __asm__ volatile ("csrr %[name], scause" : [name] "=r"(scause));
 393              		.loc 1 87 5
 394              		.loc 1 87 68 is_stmt 0
 395              	# 87 "src/trap.cpp" 1
  88              	
 396              		csrr s1, scause
 397              	# 0 "" 2
 398              	.LVL27:
  89:src/trap.cpp  ****     int cause = scause & (~(1UL << 63));
 399              		.loc 1 89 5 is_stmt 1
  90:src/trap.cpp  **** 
  91:src/trap.cpp  ****     __asm__ volatile ("csrc sip, 0xA"); // clears the 9th bit in register sip. (the bit signifies e
 400              		.loc 1 91 5
 401              		.loc 1 91 39 is_stmt 0
 402              	# 91 "src/trap.cpp" 1
  92              	//    __asm__ volatile ("csrc sstatus, 0x02");
GAS LISTING /tmp/ccg7MhpB.s 			page 12


  93:src/trap.cpp  **** 
  94:src/trap.cpp  ****     assert(&(IThread::getPRunning()->sp) == IThread::pRunningSp);
 403              		csrc sip, 0xA
 404              	# 0 "" 2
 405              		.loc 1 94 5 is_stmt 1
 406              	#NO_APP
 407 0234 97000000 		call	_ZN7IThread11getPRunningEv@plt
 407      E7800000 
 408              	.LVL28:
 409 023c 13050505 		addi	a0,a0,80
 410 0240 97070000 		la	a5,_ZN7IThread10pRunningSpE
 410      83B70700 
 411 0248 83B70700 		ld	a5,0(a5)
 412              	.LVL29:
 413              	.LBB72:
 414              	.LBB73:
  20:src/../h/../h/my_console.h ****         return;
 415              		.loc 3 20 5
 416 024c 6396A706 		bne	a5,a0,.L31
 417 0250 9B840400 		sext.w	s1,s1
 418              	.LVL30:
 419              		.loc 3 21 9
 420              	.LBE73:
 421              	.LBE72:
  95:src/trap.cpp  ****     if(cause == 1)
 422              		.loc 1 95 5
 423 0254 93071000 		li	a5,1
 424 0258 638EF40A 		beq	s1,a5,.L32
  96:src/trap.cpp  ****     {
  97:src/trap.cpp  ****         doTimerStuff();
  98:src/trap.cpp  ****         doSleepStuff();
  99:src/trap.cpp  ****     }
 100:src/trap.cpp  ****     else if (cause == 9)
 425              		.loc 1 100 10
 426 025c 93079000 		li	a5,9
 427 0260 6394F40C 		bne	s1,a5,.L28
 101:src/trap.cpp  ****     {
 102:src/trap.cpp  **** //        console_handler();
 103:src/trap.cpp  ****         IConsole::get()->consoleHandler();
 428              		.loc 1 103 9
 429              	.LBB75:
 430              	.LBB76:
 431              		.file 4 "src/../h/0_console.h"
   1:src/../h/0_console.h **** #pragma once
   2:src/../h/0_console.h **** 
   3:src/../h/0_console.h **** #include "../lib/hw.h"
   4:src/../h/0_console.h **** 
   5:src/../h/0_console.h **** #define BUFFER_SIZE 1000
   6:src/../h/0_console.h **** 
   7:src/../h/0_console.h **** class IConsole // singleton class
   8:src/../h/0_console.h **** {
   9:src/../h/0_console.h **** public:
  10:src/../h/0_console.h ****     static IConsole* get()
  11:src/../h/0_console.h ****     {
  12:src/../h/0_console.h ****         static IConsole instance;
 432              		.loc 4 12 9
 433              		.loc 4 12 25 is_stmt 0
GAS LISTING /tmp/ccg7MhpB.s 			page 13


 434 0264 97070000 		lbu	a5,_ZGVZN8IConsole3getEvE8instance
 434      83C70700 
 435 026c 63920702 		bnez	a5,.L29
 436              	.LVL31:
 437              	.LBB77:
 438              	.LBB78:
 439              	.LBB79:
  13:src/../h/0_console.h ****         return &instance;
  14:src/../h/0_console.h ****     }
  15:src/../h/0_console.h **** 
  16:src/../h/0_console.h ****     uint64 putBufferHead, putBufferTail;
  17:src/../h/0_console.h ****     char putBuffer[BUFFER_SIZE];
  18:src/../h/0_console.h ****     uint64 putBufferItems;
  19:src/../h/0_console.h **** 
  20:src/../h/0_console.h ****     char getBuffer[BUFFER_SIZE];
  21:src/../h/0_console.h ****     uint64 getBufferItems;
  22:src/../h/0_console.h ****     uint64 getBufferHead, getBufferTail;
  23:src/../h/0_console.h **** 
  24:src/../h/0_console.h ****     void putc(char c);
  25:src/../h/0_console.h ****     char getc();
  26:src/../h/0_console.h ****     void consoleHandler();
  27:src/../h/0_console.h **** 
  28:src/../h/0_console.h **** private:
  29:src/../h/0_console.h ****     IConsole()
  30:src/../h/0_console.h ****         : putBufferHead(0), putBufferTail(0), putBufferItems(0)
 440              		.loc 4 30 63
 441 0270 97070000 		lla	a5,_ZZN8IConsole3getEvE8instance
 441      93870700 
 442 0278 23B00700 		sd	zero,0(a5)
 443 027c 23B40700 		sd	zero,8(a5)
 444 0280 23BC073E 		sd	zero,1016(a5)
 445              	.LVL32:
 446              	.LBE79:
 447              	.LBE78:
 448              	.LBE77:
  12:src/../h/0_console.h ****         return &instance;
 449              		.loc 4 12 25
 450 0284 93071000 		li	a5,1
 451 0288 17070000 		sb	a5,_ZGVZN8IConsole3getEvE8instance,a4
 451      2300F700 
 452              	.L29:
  13:src/../h/0_console.h ****         return &instance;
 453              		.loc 4 13 9 is_stmt 1
 454              	.LBE76:
 455              	.LBE75:
 456              		.loc 1 103 40 is_stmt 0
 457 0290 17050000 		lla	a0,_ZZN8IConsole3getEvE8instance
 457      13050500 
 458 0298 97000000 		call	_ZN8IConsole14consoleHandlerEv@plt
 458      E7800000 
 459              	.LVL33:
 460              	.L27:
 104:src/trap.cpp  ****     }
 105:src/trap.cpp  ****     else
 106:src/trap.cpp  ****     {
 107:src/trap.cpp  ****         assert(false); // unknown interupt
 108:src/trap.cpp  ****     }
GAS LISTING /tmp/ccg7MhpB.s 			page 14


 109:src/trap.cpp  **** 
 110:src/trap.cpp  ****     __asm__ volatile("mv x10, x10");
 461              		.loc 1 110 5 is_stmt 1
 462              		.loc 1 110 36 is_stmt 0
 463              	#APP
 464              	# 110 "src/trap.cpp" 1
 111              	}
 465              		mv x10, x10
 466              	# 0 "" 2
 467              		.loc 1 111 1
 468              	#NO_APP
 469 02a4 83308101 		ld	ra,24(sp)
 470              		.cfi_remember_state
 471              		.cfi_restore 1
 472 02a8 03340101 		ld	s0,16(sp)
 473              		.cfi_restore 8
 474              		.cfi_def_cfa 2, 32
 475 02ac 83348100 		ld	s1,8(sp)
 476              		.cfi_restore 9
 477              	.LVL34:
 478 02b0 13010102 		addi	sp,sp,32
 479              		.cfi_def_cfa_offset 0
 480 02b4 67800000 		jr	ra
 481              	.LVL35:
 482              	.L31:
 483              		.cfi_restore_state
 484              	.LBB80:
 485              	.LBB74:
  22:src/../h/../h/my_console.h **** 
  23:src/../h/../h/my_console.h ****     putString("===================== ASSERT file: ");
 486              		.loc 3 23 5 is_stmt 1
 487              		.loc 3 23 14 is_stmt 0
 488 02b8 17050000 		lla	a0,.LC2
 488      13050500 
 489              	.LVL36:
 490 02c0 97000000 		call	_Z9putStringPKc@plt
 490      E7800000 
 491              	.LVL37:
  24:src/../h/../h/my_console.h ****     putString(file);
 492              		.loc 3 24 5 is_stmt 1
 493              		.loc 3 24 14 is_stmt 0
 494 02c8 17050000 		lla	a0,.LC3
 494      13050500 
 495 02d0 97000000 		call	_Z9putStringPKc@plt
 495      E7800000 
 496              	.LVL38:
  25:src/../h/../h/my_console.h ****     putString("    line: ");
 497              		.loc 3 25 5 is_stmt 1
 498              		.loc 3 25 14 is_stmt 0
 499 02d8 17050000 		lla	a0,.LC4
 499      13050500 
 500 02e0 97000000 		call	_Z9putStringPKc@plt
 500      E7800000 
 501              	.LVL39:
  26:src/../h/../h/my_console.h ****     putInt(line);
 502              		.loc 3 26 5 is_stmt 1
 503              		.loc 3 26 11 is_stmt 0
GAS LISTING /tmp/ccg7MhpB.s 			page 15


 504 02e8 1305E005 		li	a0,94
 505 02ec 97000000 		call	_Z6putInti@plt
 505      E7800000 
 506              	.LVL40:
  27:src/../h/../h/my_console.h ****     putString("   ===========================");
 507              		.loc 3 27 5 is_stmt 1
 508              		.loc 3 27 14 is_stmt 0
 509 02f4 17050000 		lla	a0,.LC5
 509      13050500 
 510 02fc 97000000 		call	_Z9putStringPKc@plt
 510      E7800000 
 511              	.LVL41:
  28:src/../h/../h/my_console.h ****     putNewline();
 512              		.loc 3 28 5 is_stmt 1
 513              		.loc 3 28 15 is_stmt 0
 514 0304 97000000 		call	_Z10putNewlinev@plt
 514      E7800000 
 515              	.LVL42:
  29:src/../h/../h/my_console.h **** 
  30:src/../h/../h/my_console.h ****     stopKernel();
 516              		.loc 3 30 5 is_stmt 1
 517              		.loc 3 30 15 is_stmt 0
 518 030c 97000000 		call	_Z10stopKernelv@plt
 518      E7800000 
 519              	.LVL43:
 520              	.L32:
 521              	.LBE74:
 522              	.LBE80:
  97:src/trap.cpp  ****         doSleepStuff();
 523              		.loc 1 97 9 is_stmt 1
  97:src/trap.cpp  ****         doSleepStuff();
 524              		.loc 1 97 21 is_stmt 0
 525 0314 97000000 		call	_Z12doTimerStuffv
 525      E7800000 
 526              	.LVL44:
  98:src/trap.cpp  ****     }
 527              		.loc 1 98 9 is_stmt 1
  98:src/trap.cpp  ****     }
 528              		.loc 1 98 21 is_stmt 0
 529 031c 97000000 		call	_Z12doSleepStuffv
 529      E7800000 
 530              	.LVL45:
 531 0324 6FF0DFF7 		j	.L27
 532              	.L28:
 107:src/trap.cpp  ****     }
 533              		.loc 1 107 9 is_stmt 1
 534              	.LVL46:
 535              	.LBB81:
 536              	.LBB82:
  20:src/../h/../h/my_console.h ****         return;
 537              		.loc 3 20 5
  23:src/../h/../h/my_console.h ****     putString(file);
 538              		.loc 3 23 5
  23:src/../h/../h/my_console.h ****     putString(file);
 539              		.loc 3 23 14 is_stmt 0
 540 0328 17050000 		lla	a0,.LC2
 540      13050500 
GAS LISTING /tmp/ccg7MhpB.s 			page 16


 541 0330 97000000 		call	_Z9putStringPKc@plt
 541      E7800000 
 542              	.LVL47:
  24:src/../h/../h/my_console.h ****     putString("    line: ");
 543              		.loc 3 24 5 is_stmt 1
  24:src/../h/../h/my_console.h ****     putString("    line: ");
 544              		.loc 3 24 14 is_stmt 0
 545 0338 17050000 		lla	a0,.LC3
 545      13050500 
 546 0340 97000000 		call	_Z9putStringPKc@plt
 546      E7800000 
 547              	.LVL48:
  25:src/../h/../h/my_console.h ****     putInt(line);
 548              		.loc 3 25 5 is_stmt 1
  25:src/../h/../h/my_console.h ****     putInt(line);
 549              		.loc 3 25 14 is_stmt 0
 550 0348 17050000 		lla	a0,.LC4
 550      13050500 
 551 0350 97000000 		call	_Z9putStringPKc@plt
 551      E7800000 
 552              	.LVL49:
  26:src/../h/../h/my_console.h ****     putString("   ===========================");
 553              		.loc 3 26 5 is_stmt 1
  26:src/../h/../h/my_console.h ****     putString("   ===========================");
 554              		.loc 3 26 11 is_stmt 0
 555 0358 1305B006 		li	a0,107
 556 035c 97000000 		call	_Z6putInti@plt
 556      E7800000 
 557              	.LVL50:
  27:src/../h/../h/my_console.h ****     putNewline();
 558              		.loc 3 27 5 is_stmt 1
  27:src/../h/../h/my_console.h ****     putNewline();
 559              		.loc 3 27 14 is_stmt 0
 560 0364 17050000 		lla	a0,.LC5
 560      13050500 
 561 036c 97000000 		call	_Z9putStringPKc@plt
 561      E7800000 
 562              	.LVL51:
  28:src/../h/../h/my_console.h **** 
 563              		.loc 3 28 5 is_stmt 1
  28:src/../h/../h/my_console.h **** 
 564              		.loc 3 28 15 is_stmt 0
 565 0374 97000000 		call	_Z10putNewlinev@plt
 565      E7800000 
 566              	.LVL52:
 567              		.loc 3 30 5 is_stmt 1
 568              		.loc 3 30 15 is_stmt 0
 569 037c 97000000 		call	_Z10stopKernelv@plt
 569      E7800000 
 570              	.LVL53:
 571              	.LBE82:
 572              	.LBE81:
 573              		.cfi_endproc
 574              	.LFE21:
 576              		.section	.rodata.str1.8
 577 0077 00       		.align	3
 578              	.LC6:
GAS LISTING /tmp/ccg7MhpB.s 			page 17


 579 0078 3D3D3D20 		.string	"=== EXCEPETION occured: "
 579      45584345 
 579      50455449 
 579      4F4E206F 
 579      63637572 
 580 0091 00000000 		.align	3
 580      000000
 581              	.LC7:
 582 0098 20496C6C 		.string	" Illegal instruction"
 582      6567616C 
 582      20696E73 
 582      74727563 
 582      74696F6E 
 583 00ad 000000   		.align	3
 584              	.LC8:
 585 00b0 556E616C 		.string	"Unallowed read adress"
 585      6C6F7765 
 585      64207265 
 585      61642061 
 585      64726573 
 586 00c6 0000     		.align	3
 587              	.LC9:
 588 00c8 556E616C 		.string	"Unallowed write adress"
 588      6C6F7765 
 588      64207772 
 588      69746520 
 588      61647265 
 589 00df 00       		.align	3
 590              	.LC10:
 591 00e0 554B4E4F 		.string	"UKNOWN EXCEPTION. ??????????????"
 591      574E2045 
 591      58434550 
 591      54494F4E 
 591      2E203F3F 
 592 0101 00000000 		.align	3
 592      000000
 593              	.LC11:
 594 0108 5465726D 		.string	"Terminating kernel"
 594      696E6174 
 594      696E6720 
 594      6B65726E 
 594      656C00
 595              		.text
 596              		.align	2
 597              		.globl	_Z25cInternalInterruptRoutinev
 599              	_Z25cInternalInterruptRoutinev:
 600              	.LFB22:
 112:src/trap.cpp  **** 
 113:src/trap.cpp  **** 
 114:src/trap.cpp  **** void cInternalInterruptRoutine()
 115:src/trap.cpp  **** {
 601              		.loc 1 115 1 is_stmt 1
 602              		.cfi_startproc
 603 0384 130101FA 		addi	sp,sp,-96
 604              		.cfi_def_cfa_offset 96
 605 0388 233C1104 		sd	ra,88(sp)
 606 038c 23388104 		sd	s0,80(sp)
GAS LISTING /tmp/ccg7MhpB.s 			page 18


 607 0390 23349104 		sd	s1,72(sp)
 608 0394 23302105 		sd	s2,64(sp)
 609 0398 233C3103 		sd	s3,56(sp)
 610 039c 23384103 		sd	s4,48(sp)
 611 03a0 23345103 		sd	s5,40(sp)
 612 03a4 23306103 		sd	s6,32(sp)
 613 03a8 233C7101 		sd	s7,24(sp)
 614              		.cfi_offset 1, -8
 615              		.cfi_offset 8, -16
 616              		.cfi_offset 9, -24
 617              		.cfi_offset 18, -32
 618              		.cfi_offset 19, -40
 619              		.cfi_offset 20, -48
 620              		.cfi_offset 21, -56
 621              		.cfi_offset 22, -64
 622              		.cfi_offset 23, -72
 623 03ac 13040106 		addi	s0,sp,96
 624              		.cfi_def_cfa 8, 0
 116:src/trap.cpp  ****     uint64 scause;
 625              		.loc 1 116 5
 117:src/trap.cpp  ****     __asm__ volatile ("csrr %[name], scause" : [name] "=r"(scause));
 626              		.loc 1 117 5
 627              		.loc 1 117 68 is_stmt 0
 628              	#APP
 629              	# 117 "src/trap.cpp" 1
 118              	
 630              		csrr s2, scause
 631              	# 0 "" 2
 632              	.LVL54:
 119:src/trap.cpp  **** //    int isExternal = (scause & (0x1UL << 63)) != 0;
 120:src/trap.cpp  ****     int cause = scause & (~(1UL << 63));
 633              		.loc 1 120 5 is_stmt 1
 121:src/trap.cpp  **** 
 122:src/trap.cpp  ****     __asm__ volatile ("csrc sip, 0x2"); // clears the 1st bit in register sip. (the bit signifies i
 634              		.loc 1 122 5
 635              		.loc 1 122 39 is_stmt 0
 636              	# 122 "src/trap.cpp" 1
 123              	
 124:src/trap.cpp  ****     uint64 code, parameter1, parameter2, parameter3;
 637              		csrc sip, 0x2
 638              	# 0 "" 2
 639              		.loc 1 124 5 is_stmt 1
 125:src/trap.cpp  ****     __asm__ volatile ("mv %[name], a0" : [name] "=r"(code));
 640              		.loc 1 125 5
 641              		.loc 1 125 60 is_stmt 0
 642              	# 125 "src/trap.cpp" 1
 126              	    __asm__ volatile ("mv %[name], a1" : [name] "=r"(parameter1));
 643              		mv s1, a0
 644              	# 0 "" 2
 645              	.LVL55:
 646              		.loc 1 126 5 is_stmt 1
 647              		.loc 1 126 66 is_stmt 0
 648              	# 126 "src/trap.cpp" 1
 127              	    __asm__ volatile ("mv %[name], a2" : [name] "=r"(parameter2));
 649              		mv s4, a1
 650              	# 0 "" 2
 651              	.LVL56:
GAS LISTING /tmp/ccg7MhpB.s 			page 19


 652              		.loc 1 127 5 is_stmt 1
 653              		.loc 1 127 66 is_stmt 0
 654              	# 127 "src/trap.cpp" 1
 128              	    __asm__ volatile ("mv %[name], a3" : [name] "=r"(parameter3));
 655              		mv s5, a2
 656              	# 0 "" 2
 657              	.LVL57:
 658              		.loc 1 128 5 is_stmt 1
 659              		.loc 1 128 66 is_stmt 0
 660              	# 128 "src/trap.cpp" 1
 129              	
 661              		mv s6, a3
 662              	# 0 "" 2
 663              	.LVL58:
 130:src/trap.cpp  **** 
 131:src/trap.cpp  ****     __asm__ volatile ("mv x1, x1");
 664              		.loc 1 131 5 is_stmt 1
 665              		.loc 1 131 35 is_stmt 0
 666              	# 131 "src/trap.cpp" 1
 132              	
 133:src/trap.cpp  **** //    IThread::getPRunning()->sp = IThread::runningSp;
 134:src/trap.cpp  **** //    uint64* sp = IThread::getPRunning()->sp;
 135:src/trap.cpp  **** //    uint64* runningSp = IThread::runningSp;
 136:src/trap.cpp  **** //    if(sp != runningSp) // temp, maybe changes registers?
 137:src/trap.cpp  **** //    {
 138:src/trap.cpp  **** //        __asm__ volatile ("mv x10, x10");
 139:src/trap.cpp  **** //        assert(false);
 140:src/trap.cpp  **** //    }
 141:src/trap.cpp  ****     assert(&(IThread::getPRunning()->sp) == IThread::pRunningSp);
 667              		mv x1, x1
 668              	# 0 "" 2
 669              		.loc 1 141 5 is_stmt 1
 670              	#NO_APP
 671 03cc 97000000 		call	_ZN7IThread11getPRunningEv@plt
 671      E7800000 
 672              	.LVL59:
 673 03d4 93070505 		addi	a5,a0,80
 674 03d8 17070000 		la	a4,_ZN7IThread10pRunningSpE
 674      03370700 
 675 03e0 03350700 		ld	a0,0(a4)
 676 03e4 3305F540 		sub	a0,a0,a5
 677              	.LVL60:
 678              	.LBB108:
 679              	.LBB109:
  20:src/../h/../h/my_console.h ****         return;
 680              		.loc 3 20 5
 681 03e8 6312050E 		bnez	a0,.L68
 682 03ec 9B090900 		sext.w	s3,s2
 683 03f0 933B1500 		seqz	s7,a0
  21:src/../h/../h/my_console.h **** 
 684              		.loc 3 21 9
 685              	.LVL61:
 686              	.LBE109:
 687              	.LBE108:
 142:src/trap.cpp  **** 
 143:src/trap.cpp  ****     __asm__ volatile ("mv x1, x1");
 688              		.loc 1 143 5
GAS LISTING /tmp/ccg7MhpB.s 			page 20


 689              		.loc 1 143 35 is_stmt 0
 690              	#APP
 691              	# 143 "src/trap.cpp" 1
 144              	
 145:src/trap.cpp  ****     if(cause != 8 && cause != 9)
 692              		mv x1, x1
 693              	# 0 "" 2
 694              		.loc 1 145 5 is_stmt 1
 695              		.loc 1 145 19 is_stmt 0
 696              	#NO_APP
 697 03f8 1B0989FF 		addiw	s2,s2,-8
 698              	.LVL62:
 699              		.loc 1 145 5
 700 03fc 93071000 		li	a5,1
 701 0400 63E42713 		bgtu	s2,a5,.L69
 146:src/trap.cpp  ****     {
 147:src/trap.cpp  ****         putString("=== EXCEPETION occured: ");
 148:src/trap.cpp  ****         if(cause == 2)
 149:src/trap.cpp  ****         {
 150:src/trap.cpp  ****             putString(" Illegal instruction");
 151:src/trap.cpp  ****         }
 152:src/trap.cpp  ****         else if (cause == 5)
 153:src/trap.cpp  ****         {
 154:src/trap.cpp  ****             putString("Unallowed read adress");
 155:src/trap.cpp  ****         }
 156:src/trap.cpp  ****         else if (cause == 7)
 157:src/trap.cpp  ****         {
 158:src/trap.cpp  ****             putString("Unallowed write adress");
 159:src/trap.cpp  ****         }
 160:src/trap.cpp  ****         else
 161:src/trap.cpp  ****         {
 162:src/trap.cpp  ****             putString("UKNOWN EXCEPTION. ??????????????");
 163:src/trap.cpp  ****             assert(false);
 164:src/trap.cpp  ****         }
 165:src/trap.cpp  ****         putNewline();
 166:src/trap.cpp  ****         putString("Terminating kernel");
 167:src/trap.cpp  ****         putNewline();
 168:src/trap.cpp  ****         assert(false);
 169:src/trap.cpp  ****     }
 170:src/trap.cpp  **** 
 171:src/trap.cpp  ****     IThread* pOld = IThread::getPRunning();
 702              		.loc 1 171 5 is_stmt 1
 703              		.loc 1 171 41 is_stmt 0
 704 0404 97000000 		call	_ZN7IThread11getPRunningEv@plt
 704      E7800000 
 705              	.LVL63:
 706 040c 13090500 		mv	s2,a0
 707              	.LVL64:
 172:src/trap.cpp  **** 
 173:src/trap.cpp  ****     uint64 ret = -1;
 708              		.loc 1 173 5 is_stmt 1
 709              		.loc 1 173 12 is_stmt 0
 710 0410 9307F0FF 		li	a5,-1
 711 0414 2334F4FA 		sd	a5,-88(s0)
 174:src/trap.cpp  ****     if(code == 1)
 712              		.loc 1 174 5 is_stmt 1
 713 0418 93071000 		li	a5,1
GAS LISTING /tmp/ccg7MhpB.s 			page 21


 714 041c 638AF424 		beq	s1,a5,.L70
 175:src/trap.cpp  ****     {
 176:src/trap.cpp  ****         ret = (uint64)MemAlloc::get()->allocMem(parameter1);
 177:src/trap.cpp  ****     }
 178:src/trap.cpp  ****     else if (code == 2)
 715              		.loc 1 178 10
 716 0420 93072000 		li	a5,2
 717 0424 638CF42A 		beq	s1,a5,.L71
 179:src/trap.cpp  ****     {
 180:src/trap.cpp  ****         *((int*)&ret) = MemAlloc::get()->freeMem((void*)parameter1);
 181:src/trap.cpp  ****     }
 182:src/trap.cpp  **** #ifdef __DEBUG_MODE
 183:src/trap.cpp  ****     else if (code == 3) // Test call
 718              		.loc 1 183 10
 719 0428 93073000 		li	a5,3
 720 042c 6386F42C 		beq	s1,a5,.L72
 184:src/trap.cpp  ****     {
 185:src/trap.cpp  ****         ret = (uint64)testCall(parameter1);
 186:src/trap.cpp  ****     }
 187:src/trap.cpp  **** #endif
 188:src/trap.cpp  ****     else if (code == 4)
 721              		.loc 1 188 10
 722 0430 93074000 		li	a5,4
 723 0434 638CF42C 		beq	s1,a5,.L73
 189:src/trap.cpp  ****     {
 190:src/trap.cpp  ****         IThread::switchToUser();
 191:src/trap.cpp  ****     }
 192:src/trap.cpp  ****     else if (code == 17) // 17
 724              		.loc 1 192 10
 725 0438 93071001 		li	a5,17
 726 043c 638EF42C 		beq	s1,a5,.L74
 193:src/trap.cpp  ****     {
 194:src/trap.cpp  ****         *((int*)&ret) = IThread::createThread((uint64*)parameter1, (IThread::Body)parameter2, (void
 195:src/trap.cpp  ****     }
 196:src/trap.cpp  ****     else if (code == 18)
 727              		.loc 1 196 10
 728 0440 93072001 		li	a5,18
 729 0444 6388F42E 		beq	s1,a5,.L75
 197:src/trap.cpp  ****     {
 198:src/trap.cpp  ****         __asm__ volatile("mv x10, x10");
 199:src/trap.cpp  ****         *((int*)&ret) = IThread::exit();
 200:src/trap.cpp  ****         assert(*((int*)&ret) == 0);
 201:src/trap.cpp  ****     }
 202:src/trap.cpp  ****     else if (code == 19) // 19, thread_dispatch
 730              		.loc 1 202 10
 731 0448 93073001 		li	a5,19
 732 044c 638CF434 		beq	s1,a5,.L76
 203:src/trap.cpp  ****     {
 204:src/trap.cpp  ****         Scheduler::dispatchUserVersion();
 205:src/trap.cpp  ****     }
 206:src/trap.cpp  ****     else if (code == 20)
 733              		.loc 1 206 10
 734 0450 93074001 		li	a5,20
 735 0454 638EF434 		beq	s1,a5,.L77
 207:src/trap.cpp  ****     {
 208:src/trap.cpp  ****         IThread::join((uint64)parameter1);
 209:src/trap.cpp  ****     }
GAS LISTING /tmp/ccg7MhpB.s 			page 22


 210:src/trap.cpp  ****     else if (code == 49)
 736              		.loc 1 210 10
 737 0458 93071003 		li	a5,49
 738 045c 6382F436 		beq	s1,a5,.L78
 211:src/trap.cpp  ****     {
 212:src/trap.cpp  ****         *((int*)&ret) = Scheduler::get()->sleep(parameter1);
 213:src/trap.cpp  ****     }
 214:src/trap.cpp  ****     else if (code == 65) // getc
 739              		.loc 1 214 10
 740 0460 93071004 		li	a5,65
 741 0464 6382F422 		beq	s1,a5,.L41
 215:src/trap.cpp  ****     {
 216:src/trap.cpp  **** 
 217:src/trap.cpp  ****     }
 218:src/trap.cpp  ****     else if (code == 66) // putc
 742              		.loc 1 218 10
 743 0468 93072004 		li	a5,66
 744 046c 638EF420 		beq	s1,a5,.L41
 219:src/trap.cpp  ****     {
 220:src/trap.cpp  **** 
 221:src/trap.cpp  ****     }
 222:src/trap.cpp  ****     else
 223:src/trap.cpp  ****     {
 224:src/trap.cpp  ****         assert(false); // unknown code
 745              		.loc 1 224 9
 746              	.LVL65:
 747              	.LBB111:
 748              	.LBB112:
  20:src/../h/../h/my_console.h ****         return;
 749              		.loc 3 20 5
  23:src/../h/../h/my_console.h ****     putString(file);
 750              		.loc 3 23 5
  23:src/../h/../h/my_console.h ****     putString(file);
 751              		.loc 3 23 14 is_stmt 0
 752 0470 17050000 		lla	a0,.LC2
 752      13050500 
 753              	.LVL66:
 754 0478 97000000 		call	_Z9putStringPKc@plt
 754      E7800000 
 755              	.LVL67:
  24:src/../h/../h/my_console.h ****     putString("    line: ");
 756              		.loc 3 24 5 is_stmt 1
  24:src/../h/../h/my_console.h ****     putString("    line: ");
 757              		.loc 3 24 14 is_stmt 0
 758 0480 17050000 		lla	a0,.LC3
 758      13050500 
 759 0488 97000000 		call	_Z9putStringPKc@plt
 759      E7800000 
 760              	.LVL68:
  25:src/../h/../h/my_console.h ****     putInt(line);
 761              		.loc 3 25 5 is_stmt 1
  25:src/../h/../h/my_console.h ****     putInt(line);
 762              		.loc 3 25 14 is_stmt 0
 763 0490 17050000 		lla	a0,.LC4
 763      13050500 
 764 0498 97000000 		call	_Z9putStringPKc@plt
 764      E7800000 
GAS LISTING /tmp/ccg7MhpB.s 			page 23


 765              	.LVL69:
  26:src/../h/../h/my_console.h ****     putString("   ===========================");
 766              		.loc 3 26 5 is_stmt 1
  26:src/../h/../h/my_console.h ****     putString("   ===========================");
 767              		.loc 3 26 11 is_stmt 0
 768 04a0 1305000E 		li	a0,224
 769 04a4 97000000 		call	_Z6putInti@plt
 769      E7800000 
 770              	.LVL70:
  27:src/../h/../h/my_console.h ****     putNewline();
 771              		.loc 3 27 5 is_stmt 1
  27:src/../h/../h/my_console.h ****     putNewline();
 772              		.loc 3 27 14 is_stmt 0
 773 04ac 17050000 		lla	a0,.LC5
 773      13050500 
 774 04b4 97000000 		call	_Z9putStringPKc@plt
 774      E7800000 
 775              	.LVL71:
  28:src/../h/../h/my_console.h **** 
 776              		.loc 3 28 5 is_stmt 1
  28:src/../h/../h/my_console.h **** 
 777              		.loc 3 28 15 is_stmt 0
 778 04bc 97000000 		call	_Z10putNewlinev@plt
 778      E7800000 
 779              	.LVL72:
 780              		.loc 3 30 5 is_stmt 1
 781              		.loc 3 30 15 is_stmt 0
 782 04c4 97000000 		call	_Z10stopKernelv@plt
 782      E7800000 
 783              	.LVL73:
 784              	.L68:
 785              	.LBE112:
 786              	.LBE111:
 787              	.LBB113:
 788              	.LBB110:
  23:src/../h/../h/my_console.h ****     putString(file);
 789              		.loc 3 23 5 is_stmt 1
  23:src/../h/../h/my_console.h ****     putString(file);
 790              		.loc 3 23 14 is_stmt 0
 791 04cc 17050000 		lla	a0,.LC2
 791      13050500 
 792              	.LVL74:
 793 04d4 97000000 		call	_Z9putStringPKc@plt
 793      E7800000 
 794              	.LVL75:
  24:src/../h/../h/my_console.h ****     putString("    line: ");
 795              		.loc 3 24 5 is_stmt 1
  24:src/../h/../h/my_console.h ****     putString("    line: ");
 796              		.loc 3 24 14 is_stmt 0
 797 04dc 17050000 		lla	a0,.LC3
 797      13050500 
 798 04e4 97000000 		call	_Z9putStringPKc@plt
 798      E7800000 
 799              	.LVL76:
  25:src/../h/../h/my_console.h ****     putInt(line);
 800              		.loc 3 25 5 is_stmt 1
  25:src/../h/../h/my_console.h ****     putInt(line);
GAS LISTING /tmp/ccg7MhpB.s 			page 24


 801              		.loc 3 25 14 is_stmt 0
 802 04ec 17050000 		lla	a0,.LC4
 802      13050500 
 803 04f4 97000000 		call	_Z9putStringPKc@plt
 803      E7800000 
 804              	.LVL77:
  26:src/../h/../h/my_console.h ****     putString("   ===========================");
 805              		.loc 3 26 5 is_stmt 1
  26:src/../h/../h/my_console.h ****     putString("   ===========================");
 806              		.loc 3 26 11 is_stmt 0
 807 04fc 1305D008 		li	a0,141
 808 0500 97000000 		call	_Z6putInti@plt
 808      E7800000 
 809              	.LVL78:
  27:src/../h/../h/my_console.h ****     putNewline();
 810              		.loc 3 27 5 is_stmt 1
  27:src/../h/../h/my_console.h ****     putNewline();
 811              		.loc 3 27 14 is_stmt 0
 812 0508 17050000 		lla	a0,.LC5
 812      13050500 
 813 0510 97000000 		call	_Z9putStringPKc@plt
 813      E7800000 
 814              	.LVL79:
  28:src/../h/../h/my_console.h **** 
 815              		.loc 3 28 5 is_stmt 1
  28:src/../h/../h/my_console.h **** 
 816              		.loc 3 28 15 is_stmt 0
 817 0518 97000000 		call	_Z10putNewlinev@plt
 817      E7800000 
 818              	.LVL80:
 819              		.loc 3 30 5 is_stmt 1
 820              		.loc 3 30 15 is_stmt 0
 821 0520 97000000 		call	_Z10stopKernelv@plt
 821      E7800000 
 822              	.LVL81:
 823              	.L69:
 824              	.LBE110:
 825              	.LBE113:
 147:src/trap.cpp  ****         if(cause == 2)
 826              		.loc 1 147 9 is_stmt 1
 147:src/trap.cpp  ****         if(cause == 2)
 827              		.loc 1 147 18 is_stmt 0
 828 0528 17050000 		lla	a0,.LC6
 828      13050500 
 829 0530 97000000 		call	_Z9putStringPKc@plt
 829      E7800000 
 830              	.LVL82:
 148:src/trap.cpp  ****         {
 831              		.loc 1 148 9 is_stmt 1
 832 0538 93072000 		li	a5,2
 833 053c 6380F908 		beq	s3,a5,.L79
 152:src/trap.cpp  ****         {
 834              		.loc 1 152 14
 835 0540 93075000 		li	a5,5
 836 0544 6386F908 		beq	s3,a5,.L80
 156:src/trap.cpp  ****         {
 837              		.loc 1 156 14
GAS LISTING /tmp/ccg7MhpB.s 			page 25


 838 0548 93077000 		li	a5,7
 839 054c 638CF908 		beq	s3,a5,.L81
 162:src/trap.cpp  ****             assert(false);
 840              		.loc 1 162 13
 162:src/trap.cpp  ****             assert(false);
 841              		.loc 1 162 22 is_stmt 0
 842 0550 17050000 		lla	a0,.LC10
 842      13050500 
 843 0558 97000000 		call	_Z9putStringPKc@plt
 843      E7800000 
 844              	.LVL83:
 163:src/trap.cpp  ****         }
 845              		.loc 1 163 13 is_stmt 1
 846              	.LBB114:
 847              	.LBB115:
  20:src/../h/../h/my_console.h ****         return;
 848              		.loc 3 20 5
  23:src/../h/../h/my_console.h ****     putString(file);
 849              		.loc 3 23 5
  23:src/../h/../h/my_console.h ****     putString(file);
 850              		.loc 3 23 14 is_stmt 0
 851 0560 17050000 		lla	a0,.LC2
 851      13050500 
 852 0568 97000000 		call	_Z9putStringPKc@plt
 852      E7800000 
 853              	.LVL84:
  24:src/../h/../h/my_console.h ****     putString("    line: ");
 854              		.loc 3 24 5 is_stmt 1
  24:src/../h/../h/my_console.h ****     putString("    line: ");
 855              		.loc 3 24 14 is_stmt 0
 856 0570 17050000 		lla	a0,.LC3
 856      13050500 
 857 0578 97000000 		call	_Z9putStringPKc@plt
 857      E7800000 
 858              	.LVL85:
  25:src/../h/../h/my_console.h ****     putInt(line);
 859              		.loc 3 25 5 is_stmt 1
  25:src/../h/../h/my_console.h ****     putInt(line);
 860              		.loc 3 25 14 is_stmt 0
 861 0580 17050000 		lla	a0,.LC4
 861      13050500 
 862 0588 97000000 		call	_Z9putStringPKc@plt
 862      E7800000 
 863              	.LVL86:
  26:src/../h/../h/my_console.h ****     putString("   ===========================");
 864              		.loc 3 26 5 is_stmt 1
  26:src/../h/../h/my_console.h ****     putString("   ===========================");
 865              		.loc 3 26 11 is_stmt 0
 866 0590 1305300A 		li	a0,163
 867 0594 97000000 		call	_Z6putInti@plt
 867      E7800000 
 868              	.LVL87:
  27:src/../h/../h/my_console.h ****     putNewline();
 869              		.loc 3 27 5 is_stmt 1
  27:src/../h/../h/my_console.h ****     putNewline();
 870              		.loc 3 27 14 is_stmt 0
 871 059c 17050000 		lla	a0,.LC5
GAS LISTING /tmp/ccg7MhpB.s 			page 26


 871      13050500 
 872 05a4 97000000 		call	_Z9putStringPKc@plt
 872      E7800000 
 873              	.LVL88:
  28:src/../h/../h/my_console.h **** 
 874              		.loc 3 28 5 is_stmt 1
  28:src/../h/../h/my_console.h **** 
 875              		.loc 3 28 15 is_stmt 0
 876 05ac 97000000 		call	_Z10putNewlinev@plt
 876      E7800000 
 877              	.LVL89:
 878              		.loc 3 30 5 is_stmt 1
 879              		.loc 3 30 15 is_stmt 0
 880 05b4 97000000 		call	_Z10stopKernelv@plt
 880      E7800000 
 881              	.LVL90:
 882              	.L79:
 883              	.LBE115:
 884              	.LBE114:
 150:src/trap.cpp  ****         }
 885              		.loc 1 150 13 is_stmt 1
 150:src/trap.cpp  ****         }
 886              		.loc 1 150 22 is_stmt 0
 887 05bc 17050000 		lla	a0,.LC7
 887      13050500 
 888 05c4 97000000 		call	_Z9putStringPKc@plt
 888      E7800000 
 889              	.LVL91:
 890 05cc 6F008002 		j	.L37
 891              	.L80:
 154:src/trap.cpp  ****         }
 892              		.loc 1 154 13 is_stmt 1
 154:src/trap.cpp  ****         }
 893              		.loc 1 154 22 is_stmt 0
 894 05d0 17050000 		lla	a0,.LC8
 894      13050500 
 895 05d8 97000000 		call	_Z9putStringPKc@plt
 895      E7800000 
 896              	.LVL92:
 897 05e0 6F004001 		j	.L37
 898              	.L81:
 158:src/trap.cpp  ****         }
 899              		.loc 1 158 13 is_stmt 1
 158:src/trap.cpp  ****         }
 900              		.loc 1 158 22 is_stmt 0
 901 05e4 17050000 		lla	a0,.LC9
 901      13050500 
 902 05ec 97000000 		call	_Z9putStringPKc@plt
 902      E7800000 
 903              	.LVL93:
 904              	.L37:
 165:src/trap.cpp  ****         putString("Terminating kernel");
 905              		.loc 1 165 9 is_stmt 1
 165:src/trap.cpp  ****         putString("Terminating kernel");
 906              		.loc 1 165 19 is_stmt 0
 907 05f4 97000000 		call	_Z10putNewlinev@plt
 907      E7800000 
GAS LISTING /tmp/ccg7MhpB.s 			page 27


 908              	.LVL94:
 166:src/trap.cpp  ****         putNewline();
 909              		.loc 1 166 9 is_stmt 1
 166:src/trap.cpp  ****         putNewline();
 910              		.loc 1 166 18 is_stmt 0
 911 05fc 17050000 		lla	a0,.LC11
 911      13050500 
 912 0604 97000000 		call	_Z9putStringPKc@plt
 912      E7800000 
 913              	.LVL95:
 167:src/trap.cpp  ****         assert(false);
 914              		.loc 1 167 9 is_stmt 1
 167:src/trap.cpp  ****         assert(false);
 915              		.loc 1 167 19 is_stmt 0
 916 060c 97000000 		call	_Z10putNewlinev@plt
 916      E7800000 
 917              	.LVL96:
 168:src/trap.cpp  ****     }
 918              		.loc 1 168 9 is_stmt 1
 919              	.LBB116:
 920              	.LBB117:
  20:src/../h/../h/my_console.h ****         return;
 921              		.loc 3 20 5
  23:src/../h/../h/my_console.h ****     putString(file);
 922              		.loc 3 23 5
  23:src/../h/../h/my_console.h ****     putString(file);
 923              		.loc 3 23 14 is_stmt 0
 924 0614 17050000 		lla	a0,.LC2
 924      13050500 
 925 061c 97000000 		call	_Z9putStringPKc@plt
 925      E7800000 
 926              	.LVL97:
  24:src/../h/../h/my_console.h ****     putString("    line: ");
 927              		.loc 3 24 5 is_stmt 1
  24:src/../h/../h/my_console.h ****     putString("    line: ");
 928              		.loc 3 24 14 is_stmt 0
 929 0624 17050000 		lla	a0,.LC3
 929      13050500 
 930 062c 97000000 		call	_Z9putStringPKc@plt
 930      E7800000 
 931              	.LVL98:
  25:src/../h/../h/my_console.h ****     putInt(line);
 932              		.loc 3 25 5 is_stmt 1
  25:src/../h/../h/my_console.h ****     putInt(line);
 933              		.loc 3 25 14 is_stmt 0
 934 0634 17050000 		lla	a0,.LC4
 934      13050500 
 935 063c 97000000 		call	_Z9putStringPKc@plt
 935      E7800000 
 936              	.LVL99:
  26:src/../h/../h/my_console.h ****     putString("   ===========================");
 937              		.loc 3 26 5 is_stmt 1
  26:src/../h/../h/my_console.h ****     putString("   ===========================");
 938              		.loc 3 26 11 is_stmt 0
 939 0644 1305800A 		li	a0,168
 940 0648 97000000 		call	_Z6putInti@plt
 940      E7800000 
GAS LISTING /tmp/ccg7MhpB.s 			page 28


 941              	.LVL100:
  27:src/../h/../h/my_console.h ****     putNewline();
 942              		.loc 3 27 5 is_stmt 1
  27:src/../h/../h/my_console.h ****     putNewline();
 943              		.loc 3 27 14 is_stmt 0
 944 0650 17050000 		lla	a0,.LC5
 944      13050500 
 945 0658 97000000 		call	_Z9putStringPKc@plt
 945      E7800000 
 946              	.LVL101:
  28:src/../h/../h/my_console.h **** 
 947              		.loc 3 28 5 is_stmt 1
  28:src/../h/../h/my_console.h **** 
 948              		.loc 3 28 15 is_stmt 0
 949 0660 97000000 		call	_Z10putNewlinev@plt
 949      E7800000 
 950              	.LVL102:
 951              		.loc 3 30 5 is_stmt 1
 952              		.loc 3 30 15 is_stmt 0
 953 0668 97000000 		call	_Z10stopKernelv@plt
 953      E7800000 
 954              	.LVL103:
 955              	.L70:
 956              	.LBE117:
 957              	.LBE116:
 176:src/trap.cpp  ****     }
 958              		.loc 1 176 9 is_stmt 1
 176:src/trap.cpp  ****     }
 959              		.loc 1 176 48 is_stmt 0
 960 0670 97000000 		call	_ZN8MemAlloc3getEv@plt
 960      E7800000 
 961              	.LVL104:
 962 0678 93050A00 		mv	a1,s4
 963 067c 97000000 		call	_ZN8MemAlloc8allocMemEm@plt
 963      E7800000 
 964              	.LVL105:
 176:src/trap.cpp  ****     }
 965              		.loc 1 176 13
 966 0684 2334A4FA 		sd	a0,-88(s0)
 967              	.L41:
 225:src/trap.cpp  ****         assert(false); // unknown code
 226:src/trap.cpp  ****         assert(false); // unknown code
 227:src/trap.cpp  ****         assert(false); // unknown code
 228:src/trap.cpp  ****     }
 229:src/trap.cpp  **** 
 230:src/trap.cpp  **** //    __asm__ volatile ("mv a0, %[name]" : : [name] "r" (ret)); // upaliti ovo dole umesto ovoga (o
 231:src/trap.cpp  **** 
 232:src/trap.cpp  ****     bool normalCallWithReturn = (code == 0x1) || (code == 0x2) || (code == 0x11) || (code == 0x12) 
 968              		.loc 1 232 5 is_stmt 1
 969              		.loc 1 232 47 is_stmt 0
 970 0688 9387F4FF 		addi	a5,s1,-1
 971              		.loc 1 232 190
 972 068c 13071000 		li	a4,1
 973 0690 637EF716 		bleu	a5,a4,.L57
 974              		.loc 1 232 64 discriminator 2
 975 0694 93071001 		li	a5,17
 976 0698 6382F420 		beq	s1,a5,.L58
GAS LISTING /tmp/ccg7MhpB.s 			page 29


 977              		.loc 1 232 82 discriminator 4
 978 069c 93072001 		li	a5,18
 979 06a0 6382F420 		beq	s1,a5,.L59
 980              		.loc 1 232 100 discriminator 6
 981 06a4 93071002 		li	a5,33
 982 06a8 6382F420 		beq	s1,a5,.L60
 983              		.loc 1 232 118 discriminator 8
 984 06ac 93072002 		li	a5,34
 985 06b0 6382F420 		beq	s1,a5,.L61
 986              		.loc 1 232 136 discriminator 10
 987 06b4 93073002 		li	a5,35
 988 06b8 6382F420 		beq	s1,a5,.L62
 989              		.loc 1 232 154 discriminator 12
 990 06bc 93074002 		li	a5,36
 991 06c0 6382F420 		beq	s1,a5,.L63
 992              		.loc 1 232 172 discriminator 14
 993 06c4 93071003 		li	a5,49
 994 06c8 6382F420 		beq	s1,a5,.L64
 995              		.loc 1 232 190 discriminator 16
 996 06cc 93071004 		li	a5,65
 997 06d0 638AF412 		beq	s1,a5,.L82
 998              		.loc 1 232 190
 999 06d4 93060000 		li	a3,0
 1000 06d8 6F008013 		j	.L51
 1001              	.LVL106:
 1002              	.L71:
 180:src/trap.cpp  ****     }
 1003              		.loc 1 180 9 is_stmt 1
 180:src/trap.cpp  ****     }
 1004              		.loc 1 180 49 is_stmt 0
 1005 06dc 97000000 		call	_ZN8MemAlloc3getEv@plt
 1005      E7800000 
 1006              	.LVL107:
 1007 06e4 93050A00 		mv	a1,s4
 1008 06e8 97000000 		call	_ZN8MemAlloc7freeMemEPv@plt
 1008      E7800000 
 1009              	.LVL108:
 180:src/trap.cpp  ****     }
 1010              		.loc 1 180 23
 1011 06f0 2324A4FA 		sw	a0,-88(s0)
 1012 06f4 6FF05FF9 		j	.L41
 1013              	.LVL109:
 1014              	.L72:
 185:src/trap.cpp  ****     }
 1015              		.loc 1 185 9 is_stmt 1
 185:src/trap.cpp  ****     }
 1016              		.loc 1 185 31 is_stmt 0
 1017 06f8 13050A00 		mv	a0,s4
 1018              	.LVL110:
 1019 06fc 97000000 		call	_Z8testCallm
 1019      E7800000 
 1020              	.LVL111:
 185:src/trap.cpp  ****     }
 1021              		.loc 1 185 13
 1022 0704 2334A4FA 		sd	a0,-88(s0)
 1023 0708 6FF01FF8 		j	.L41
 1024              	.LVL112:
GAS LISTING /tmp/ccg7MhpB.s 			page 30


 1025              	.L73:
 190:src/trap.cpp  ****     }
 1026              		.loc 1 190 9 is_stmt 1
 190:src/trap.cpp  ****     }
 1027              		.loc 1 190 30 is_stmt 0
 1028 070c 97000000 		call	_ZN7IThread12switchToUserEv@plt
 1028      E7800000 
 1029              	.LVL113:
 1030 0714 6FF05FF7 		j	.L41
 1031              	.LVL114:
 1032              	.L74:
 194:src/trap.cpp  ****     }
 1033              		.loc 1 194 9 is_stmt 1
 194:src/trap.cpp  ****     }
 1034              		.loc 1 194 46 is_stmt 0
 1035 0718 13060B00 		mv	a2,s6
 1036 071c 93850A00 		mv	a1,s5
 1037 0720 13050A00 		mv	a0,s4
 1038              	.LVL115:
 1039 0724 97000000 		call	_ZN7IThread12createThreadEPmPFvPvES1_@plt
 1039      E7800000 
 1040              	.LVL116:
 194:src/trap.cpp  ****     }
 1041              		.loc 1 194 23
 1042 072c 2324A4FA 		sw	a0,-88(s0)
 1043 0730 6FF09FF5 		j	.L41
 1044              	.LVL117:
 1045              	.L75:
 198:src/trap.cpp  ****         *((int*)&ret) = IThread::exit();
 1046              		.loc 1 198 9 is_stmt 1
 198:src/trap.cpp  ****         *((int*)&ret) = IThread::exit();
 1047              		.loc 1 198 40 is_stmt 0
 1048              	#APP
 1049              	# 198 "src/trap.cpp" 1
 199:src/trap.cpp  ****         assert(*((int*)&ret) == 0);
 1050              		mv x10, x10
 1051              	# 0 "" 2
 1052              		.loc 1 199 9 is_stmt 1
 199:src/trap.cpp  ****         assert(*((int*)&ret) == 0);
 1053              		.loc 1 199 38 is_stmt 0
 1054              	#NO_APP
 1055 0738 97000000 		call	_ZN7IThread4exitEv@plt
 1055      E7800000 
 1056              	.LVL118:
 199:src/trap.cpp  ****         assert(*((int*)&ret) == 0);
 1057              		.loc 1 199 23
 1058 0740 2324A4FA 		sw	a0,-88(s0)
 200:src/trap.cpp  ****     }
 1059              		.loc 1 200 9 is_stmt 1
 1060              	.LVL119:
 1061              	.LBB118:
 1062              	.LBB119:
  20:src/../h/../h/my_console.h ****         return;
 1063              		.loc 3 20 5
 1064 0744 E30205F4 		beqz	a0,.L41
  23:src/../h/../h/my_console.h ****     putString(file);
 1065              		.loc 3 23 5
GAS LISTING /tmp/ccg7MhpB.s 			page 31


  23:src/../h/../h/my_console.h ****     putString(file);
 1066              		.loc 3 23 14 is_stmt 0
 1067 0748 17050000 		lla	a0,.LC2
 1067      13050500 
 1068              	.LVL120:
 1069 0750 97000000 		call	_Z9putStringPKc@plt
 1069      E7800000 
 1070              	.LVL121:
  24:src/../h/../h/my_console.h ****     putString("    line: ");
 1071              		.loc 3 24 5 is_stmt 1
  24:src/../h/../h/my_console.h ****     putString("    line: ");
 1072              		.loc 3 24 14 is_stmt 0
 1073 0758 17050000 		lla	a0,.LC3
 1073      13050500 
 1074 0760 97000000 		call	_Z9putStringPKc@plt
 1074      E7800000 
 1075              	.LVL122:
  25:src/../h/../h/my_console.h ****     putInt(line);
 1076              		.loc 3 25 5 is_stmt 1
  25:src/../h/../h/my_console.h ****     putInt(line);
 1077              		.loc 3 25 14 is_stmt 0
 1078 0768 17050000 		lla	a0,.LC4
 1078      13050500 
 1079 0770 97000000 		call	_Z9putStringPKc@plt
 1079      E7800000 
 1080              	.LVL123:
  26:src/../h/../h/my_console.h ****     putString("   ===========================");
 1081              		.loc 3 26 5 is_stmt 1
  26:src/../h/../h/my_console.h ****     putString("   ===========================");
 1082              		.loc 3 26 11 is_stmt 0
 1083 0778 1305800C 		li	a0,200
 1084 077c 97000000 		call	_Z6putInti@plt
 1084      E7800000 
 1085              	.LVL124:
  27:src/../h/../h/my_console.h ****     putNewline();
 1086              		.loc 3 27 5 is_stmt 1
  27:src/../h/../h/my_console.h ****     putNewline();
 1087              		.loc 3 27 14 is_stmt 0
 1088 0784 17050000 		lla	a0,.LC5
 1088      13050500 
 1089 078c 97000000 		call	_Z9putStringPKc@plt
 1089      E7800000 
 1090              	.LVL125:
  28:src/../h/../h/my_console.h **** 
 1091              		.loc 3 28 5 is_stmt 1
  28:src/../h/../h/my_console.h **** 
 1092              		.loc 3 28 15 is_stmt 0
 1093 0794 97000000 		call	_Z10putNewlinev@plt
 1093      E7800000 
 1094              	.LVL126:
 1095              		.loc 3 30 5 is_stmt 1
 1096              		.loc 3 30 15 is_stmt 0
 1097 079c 97000000 		call	_Z10stopKernelv@plt
 1097      E7800000 
 1098              	.LVL127:
 1099              	.L76:
 1100              	.LBE119:
GAS LISTING /tmp/ccg7MhpB.s 			page 32


 1101              	.LBE118:
 204:src/trap.cpp  ****     }
 1102              		.loc 1 204 9 is_stmt 1
 204:src/trap.cpp  ****     }
 1103              		.loc 1 204 39 is_stmt 0
 1104 07a4 97000000 		call	_ZN9Scheduler19dispatchUserVersionEv@plt
 1104      E7800000 
 1105              	.LVL128:
 1106 07ac 6FF0DFED 		j	.L41
 1107              	.LVL129:
 1108              	.L77:
 208:src/trap.cpp  ****     }
 1109              		.loc 1 208 9 is_stmt 1
 208:src/trap.cpp  ****     }
 1110              		.loc 1 208 22 is_stmt 0
 1111 07b0 13050A00 		mv	a0,s4
 1112              	.LVL130:
 1113 07b4 97000000 		call	_ZN7IThread4joinEm@plt
 1113      E7800000 
 1114              	.LVL131:
 1115 07bc 6FF0DFEC 		j	.L41
 1116              	.LVL132:
 1117              	.L78:
 212:src/trap.cpp  ****     }
 1118              		.loc 1 212 9 is_stmt 1
 1119              	.LBB120:
 1120              	.LBB121:
  10:src/../h/scheduler.h ****         return &instance;
 1121              		.loc 2 10 9
  10:src/../h/scheduler.h ****         return &instance;
 1122              		.loc 2 10 26 is_stmt 0
 1123 07c0 97070000 		lbu	a5,_ZGVZN9Scheduler3getEvE8instance
 1123      83C70700 
 1124 07c8 63900702 		bnez	a5,.L50
 1125              	.LVL133:
 1126              	.LBB122:
 1127              	.LBB123:
 1128              	.LBB124:
 1129              		.loc 2 27 45
 1130 07cc 97070000 		lla	a5,_ZZN9Scheduler3getEvE8instance
 1130      93870700 
 1131 07d4 23B00700 		sd	zero,0(a5)
 1132 07d8 23B40700 		sd	zero,8(a5)
 1133              	.LVL134:
 1134              	.LBE124:
 1135              	.LBE123:
 1136              	.LBE122:
  10:src/../h/scheduler.h ****         return &instance;
 1137              		.loc 2 10 26
 1138 07dc 93071000 		li	a5,1
 1139 07e0 17070000 		sb	a5,_ZGVZN9Scheduler3getEvE8instance,a4
 1139      2300F700 
 1140              	.L50:
  11:src/../h/scheduler.h ****     }
 1141              		.loc 2 11 9 is_stmt 1
 1142              	.LBE121:
 1143              	.LBE120:
GAS LISTING /tmp/ccg7MhpB.s 			page 33


 212:src/trap.cpp  ****     }
 1144              		.loc 1 212 48 is_stmt 0
 1145 07e8 93050A00 		mv	a1,s4
 1146 07ec 17050000 		lla	a0,_ZZN9Scheduler3getEvE8instance
 1146      13050500 
 1147              	.LVL135:
 1148 07f4 97000000 		call	_ZN9Scheduler5sleepEm@plt
 1148      E7800000 
 1149              	.LVL136:
 212:src/trap.cpp  ****     }
 1150              		.loc 1 212 23
 1151 07fc 2324A4FA 		sw	a0,-88(s0)
 1152 0800 6FF09FE8 		j	.L41
 1153              	.L82:
 1154              		.loc 1 232 190
 1155 0804 93860B00 		mv	a3,s7
 1156 0808 6F008000 		j	.L51
 1157              	.L57:
 1158 080c 93860B00 		mv	a3,s7
 1159              	.L51:
 1160              	.LVL137:
 233:src/trap.cpp  ****     bool customCallWithReturn = (code == 0x3);
 1161              		.loc 1 233 5 is_stmt 1 discriminator 20
 234:src/trap.cpp  ****     bool customCallWithoutReturn = (code == 0x4);
 1162              		.loc 1 234 5 discriminator 20
 235:src/trap.cpp  ****     bool normalCallWithoutReturn = (code == 0x13) || (code == 0x14) || (code == 0x42);
 1163              		.loc 1 235 5 discriminator 20
 1164              		.loc 1 235 51 is_stmt 0 discriminator 20
 1165 0810 9387D4FE 		addi	a5,s1,-19
 1166              		.loc 1 235 69 discriminator 20
 1167 0814 13071000 		li	a4,1
 1168 0818 6378F700 		bleu	a5,a4,.L52
 1169              		.loc 1 235 69 discriminator 2
 1170 081c 93072004 		li	a5,66
 1171 0820 6384F400 		beq	s1,a5,.L52
 1172              		.loc 1 235 69
 1173 0824 930B0000 		li	s7,0
 1174              	.L52:
 1175              	.LVL138:
 236:src/trap.cpp  ****     if(normalCallWithReturn || customCallWithReturn)
 1176              		.loc 1 236 5 is_stmt 1 discriminator 6
 1177 0828 6396060A 		bnez	a3,.L53
 1178              		.loc 1 236 29 is_stmt 0 discriminator 1
 1179 082c 93073000 		li	a5,3
 1180 0830 6382F40A 		beq	s1,a5,.L53
 237:src/trap.cpp  ****     { // system call with a return (not necessariliy 64bit)
 238:src/trap.cpp  **** 
 239:src/trap.cpp  ****         assert(ret != (uint64)-1); // not 100% check
 240:src/trap.cpp  **** 
 241:src/trap.cpp  ****         *(((uint64*)(pOld->sp))+10) = ret; // set r0, or x10, to the return value
 242:src/trap.cpp  **** 
 243:src/trap.cpp  **** //        __asm__ volatile ("mv a0, %[name]" : : [name] "r" (ret));
 244:src/trap.cpp  ****     }
 245:src/trap.cpp  ****     else if(normalCallWithoutReturn || customCallWithoutReturn) // this exists for safety reasons
 1181              		.loc 1 245 10 is_stmt 1
 1182 0834 639C0B0A 		bnez	s7,.L56
 1183              		.loc 1 245 37 is_stmt 0 discriminator 1
GAS LISTING /tmp/ccg7MhpB.s 			page 34


 1184 0838 93074000 		li	a5,4
 1185 083c 6388F40A 		beq	s1,a5,.L56
 246:src/trap.cpp  ****     {
 247:src/trap.cpp  ****         ;
 248:src/trap.cpp  ****     }
 249:src/trap.cpp  ****     else
 250:src/trap.cpp  ****     {
 251:src/trap.cpp  ****         assert(false);
 1186              		.loc 1 251 9 is_stmt 1
 1187              	.LVL139:
 1188              	.LBB125:
 1189              	.LBB126:
  20:src/../h/../h/my_console.h ****         return;
 1190              		.loc 3 20 5
  23:src/../h/../h/my_console.h ****     putString(file);
 1191              		.loc 3 23 5
  23:src/../h/../h/my_console.h ****     putString(file);
 1192              		.loc 3 23 14 is_stmt 0
 1193 0840 17050000 		lla	a0,.LC2
 1193      13050500 
 1194 0848 97000000 		call	_Z9putStringPKc@plt
 1194      E7800000 
 1195              	.LVL140:
  24:src/../h/../h/my_console.h ****     putString("    line: ");
 1196              		.loc 3 24 5 is_stmt 1
  24:src/../h/../h/my_console.h ****     putString("    line: ");
 1197              		.loc 3 24 14 is_stmt 0
 1198 0850 17050000 		lla	a0,.LC3
 1198      13050500 
 1199 0858 97000000 		call	_Z9putStringPKc@plt
 1199      E7800000 
 1200              	.LVL141:
  25:src/../h/../h/my_console.h ****     putInt(line);
 1201              		.loc 3 25 5 is_stmt 1
  25:src/../h/../h/my_console.h ****     putInt(line);
 1202              		.loc 3 25 14 is_stmt 0
 1203 0860 17050000 		lla	a0,.LC4
 1203      13050500 
 1204 0868 97000000 		call	_Z9putStringPKc@plt
 1204      E7800000 
 1205              	.LVL142:
  26:src/../h/../h/my_console.h ****     putString("   ===========================");
 1206              		.loc 3 26 5 is_stmt 1
  26:src/../h/../h/my_console.h ****     putString("   ===========================");
 1207              		.loc 3 26 11 is_stmt 0
 1208 0870 1305B00F 		li	a0,251
 1209 0874 97000000 		call	_Z6putInti@plt
 1209      E7800000 
 1210              	.LVL143:
  27:src/../h/../h/my_console.h ****     putNewline();
 1211              		.loc 3 27 5 is_stmt 1
  27:src/../h/../h/my_console.h ****     putNewline();
 1212              		.loc 3 27 14 is_stmt 0
 1213 087c 17050000 		lla	a0,.LC5
 1213      13050500 
 1214 0884 97000000 		call	_Z9putStringPKc@plt
 1214      E7800000 
GAS LISTING /tmp/ccg7MhpB.s 			page 35


 1215              	.LVL144:
  28:src/../h/../h/my_console.h **** 
 1216              		.loc 3 28 5 is_stmt 1
  28:src/../h/../h/my_console.h **** 
 1217              		.loc 3 28 15 is_stmt 0
 1218 088c 97000000 		call	_Z10putNewlinev@plt
 1218      E7800000 
 1219              	.LVL145:
 1220              		.loc 3 30 5 is_stmt 1
 1221              		.loc 3 30 15 is_stmt 0
 1222 0894 97000000 		call	_Z10stopKernelv@plt
 1222      E7800000 
 1223              	.LVL146:
 1224              	.L58:
 1225              	.LBE126:
 1226              	.LBE125:
 232:src/trap.cpp  ****     bool customCallWithReturn = (code == 0x3);
 1227              		.loc 1 232 190
 1228 089c 93860B00 		mv	a3,s7
 1229 08a0 6FF01FF7 		j	.L51
 1230              	.L59:
 1231 08a4 93860B00 		mv	a3,s7
 1232 08a8 6FF09FF6 		j	.L51
 1233              	.L60:
 1234 08ac 93860B00 		mv	a3,s7
 1235 08b0 6FF01FF6 		j	.L51
 1236              	.L61:
 1237 08b4 93860B00 		mv	a3,s7
 1238 08b8 6FF09FF5 		j	.L51
 1239              	.L62:
 1240 08bc 93860B00 		mv	a3,s7
 1241 08c0 6FF01FF5 		j	.L51
 1242              	.L63:
 1243 08c4 93860B00 		mv	a3,s7
 1244 08c8 6FF09FF4 		j	.L51
 1245              	.L64:
 1246 08cc 93860B00 		mv	a3,s7
 1247 08d0 6FF01FF4 		j	.L51
 1248              	.LVL147:
 1249              	.L53:
 239:src/trap.cpp  **** 
 1250              		.loc 1 239 9 is_stmt 1
 1251 08d4 833784FA 		ld	a5,-88(s0)
 1252 08d8 93871700 		addi	a5,a5,1
 1253              	.LVL148:
 1254              	.LBB127:
 1255              	.LBB128:
  20:src/../h/../h/my_console.h ****         return;
 1256              		.loc 3 20 5
 1257 08dc 63800704 		beqz	a5,.L83
  21:src/../h/../h/my_console.h **** 
 1258              		.loc 3 21 9
 1259              	.LVL149:
 1260              	.LBE128:
 1261              	.LBE127:
 241:src/trap.cpp  **** 
 1262              		.loc 1 241 9
GAS LISTING /tmp/ccg7MhpB.s 			page 36


 241:src/trap.cpp  **** 
 1263              		.loc 1 241 28 is_stmt 0
 1264 08e0 83370905 		ld	a5,80(s2)
 241:src/trap.cpp  **** 
 1265              		.loc 1 241 37
 1266 08e4 033784FA 		ld	a4,-88(s0)
 1267 08e8 23B8E704 		sd	a4,80(a5)
 1268              	.L56:
 252:src/trap.cpp  ****     }
 253:src/trap.cpp  **** 
 254:src/trap.cpp  ****     __asm__ volatile ("mv x10, x10");
 1269              		.loc 1 254 5 is_stmt 1
 1270              		.loc 1 254 37 is_stmt 0
 1271              	#APP
 1272              	# 254 "src/trap.cpp" 1
 255              	}
 1273              		mv x10, x10
 1274              	# 0 "" 2
 1275              		.loc 1 255 1
 1276              	#NO_APP
 1277 08f0 83308105 		ld	ra,88(sp)
 1278              		.cfi_remember_state
 1279              		.cfi_restore 1
 1280 08f4 03340105 		ld	s0,80(sp)
 1281              		.cfi_restore 8
 1282              		.cfi_def_cfa 2, 96
 1283 08f8 83348104 		ld	s1,72(sp)
 1284              		.cfi_restore 9
 1285              	.LVL150:
 1286 08fc 03390104 		ld	s2,64(sp)
 1287              		.cfi_restore 18
 1288              	.LVL151:
 1289 0900 83398103 		ld	s3,56(sp)
 1290              		.cfi_restore 19
 1291              	.LVL152:
 1292 0904 033A0103 		ld	s4,48(sp)
 1293              		.cfi_restore 20
 1294              	.LVL153:
 1295 0908 833A8102 		ld	s5,40(sp)
 1296              		.cfi_restore 21
 1297              	.LVL154:
 1298 090c 033B0102 		ld	s6,32(sp)
 1299              		.cfi_restore 22
 1300              	.LVL155:
 1301 0910 833B8101 		ld	s7,24(sp)
 1302              		.cfi_restore 23
 1303              	.LVL156:
 1304 0914 13010106 		addi	sp,sp,96
 1305              		.cfi_def_cfa_offset 0
 1306 0918 67800000 		jr	ra
 1307              	.LVL157:
 1308              	.L83:
 1309              		.cfi_restore_state
 1310              	.LBB130:
 1311              	.LBB129:
  23:src/../h/../h/my_console.h ****     putString(file);
 1312              		.loc 3 23 5 is_stmt 1
GAS LISTING /tmp/ccg7MhpB.s 			page 37


  23:src/../h/../h/my_console.h ****     putString(file);
 1313              		.loc 3 23 14 is_stmt 0
 1314 091c 17050000 		lla	a0,.LC2
 1314      13050500 
 1315 0924 97000000 		call	_Z9putStringPKc@plt
 1315      E7800000 
 1316              	.LVL158:
  24:src/../h/../h/my_console.h ****     putString("    line: ");
 1317              		.loc 3 24 5 is_stmt 1
  24:src/../h/../h/my_console.h ****     putString("    line: ");
 1318              		.loc 3 24 14 is_stmt 0
 1319 092c 17050000 		lla	a0,.LC3
 1319      13050500 
 1320 0934 97000000 		call	_Z9putStringPKc@plt
 1320      E7800000 
 1321              	.LVL159:
  25:src/../h/../h/my_console.h ****     putInt(line);
 1322              		.loc 3 25 5 is_stmt 1
  25:src/../h/../h/my_console.h ****     putInt(line);
 1323              		.loc 3 25 14 is_stmt 0
 1324 093c 17050000 		lla	a0,.LC4
 1324      13050500 
 1325 0944 97000000 		call	_Z9putStringPKc@plt
 1325      E7800000 
 1326              	.LVL160:
  26:src/../h/../h/my_console.h ****     putString("   ===========================");
 1327              		.loc 3 26 5 is_stmt 1
  26:src/../h/../h/my_console.h ****     putString("   ===========================");
 1328              		.loc 3 26 11 is_stmt 0
 1329 094c 1305F00E 		li	a0,239
 1330 0950 97000000 		call	_Z6putInti@plt
 1330      E7800000 
 1331              	.LVL161:
  27:src/../h/../h/my_console.h ****     putNewline();
 1332              		.loc 3 27 5 is_stmt 1
  27:src/../h/../h/my_console.h ****     putNewline();
 1333              		.loc 3 27 14 is_stmt 0
 1334 0958 17050000 		lla	a0,.LC5
 1334      13050500 
 1335 0960 97000000 		call	_Z9putStringPKc@plt
 1335      E7800000 
 1336              	.LVL162:
  28:src/../h/../h/my_console.h **** 
 1337              		.loc 3 28 5 is_stmt 1
  28:src/../h/../h/my_console.h **** 
 1338              		.loc 3 28 15 is_stmt 0
 1339 0968 97000000 		call	_Z10putNewlinev@plt
 1339      E7800000 
 1340              	.LVL163:
 1341              		.loc 3 30 5 is_stmt 1
 1342              		.loc 3 30 15 is_stmt 0
 1343 0970 97000000 		call	_Z10stopKernelv@plt
 1343      E7800000 
 1344              	.LVL164:
 1345              	.LBE129:
 1346              	.LBE130:
 1347              		.cfi_endproc
GAS LISTING /tmp/ccg7MhpB.s 			page 38


 1348              	.LFE22:
 1350              		.align	2
 1351              		.globl	_Z24cConsoleInterruptRoutinev
 1353              	_Z24cConsoleInterruptRoutinev:
 1354              	.LFB23:
 256:src/trap.cpp  **** 
 257:src/trap.cpp  **** 
 258:src/trap.cpp  **** 
 259:src/trap.cpp  **** //    IThread::timeSliceCounter++;
 260:src/trap.cpp  **** 
 261:src/trap.cpp  **** //        if (IThread::timeSliceCounter >= IThread::pRunning->getTimeSlice())
 262:src/trap.cpp  **** //        {
 263:src/trap.cpp  **** //            IThread::timeSliceCounter = 0;
 264:src/trap.cpp  **** //            Scheduler::dispatchToNext();
 265:src/trap.cpp  **** //        }
 266:src/trap.cpp  **** 
 267:src/trap.cpp  **** void  cConsoleInterruptRoutine()
 268:src/trap.cpp  **** {
 1355              		.loc 1 268 1 is_stmt 1
 1356              		.cfi_startproc
 1357 0978 130101FF 		addi	sp,sp,-16
 1358              		.cfi_def_cfa_offset 16
 1359 097c 23341100 		sd	ra,8(sp)
 1360 0980 23308100 		sd	s0,0(sp)
 1361              		.cfi_offset 1, -8
 1362              		.cfi_offset 8, -16
 1363 0984 13040101 		addi	s0,sp,16
 1364              		.cfi_def_cfa 8, 0
 269:src/trap.cpp  ****     assert(false);
 1365              		.loc 1 269 5
 1366              	.LVL165:
 1367              	.LBB137:
 1368              	.LBB138:
  20:src/../h/../h/my_console.h ****         return;
 1369              		.loc 3 20 5
  23:src/../h/../h/my_console.h ****     putString(file);
 1370              		.loc 3 23 5
  23:src/../h/../h/my_console.h ****     putString(file);
 1371              		.loc 3 23 14 is_stmt 0
 1372 0988 17050000 		lla	a0,.LC2
 1372      13050500 
 1373 0990 97000000 		call	_Z9putStringPKc@plt
 1373      E7800000 
 1374              	.LVL166:
  24:src/../h/../h/my_console.h ****     putString("    line: ");
 1375              		.loc 3 24 5 is_stmt 1
  24:src/../h/../h/my_console.h ****     putString("    line: ");
 1376              		.loc 3 24 14 is_stmt 0
 1377 0998 17050000 		lla	a0,.LC3
 1377      13050500 
 1378 09a0 97000000 		call	_Z9putStringPKc@plt
 1378      E7800000 
 1379              	.LVL167:
  25:src/../h/../h/my_console.h ****     putInt(line);
 1380              		.loc 3 25 5 is_stmt 1
  25:src/../h/../h/my_console.h ****     putInt(line);
 1381              		.loc 3 25 14 is_stmt 0
GAS LISTING /tmp/ccg7MhpB.s 			page 39


 1382 09a8 17050000 		lla	a0,.LC4
 1382      13050500 
 1383 09b0 97000000 		call	_Z9putStringPKc@plt
 1383      E7800000 
 1384              	.LVL168:
  26:src/../h/../h/my_console.h ****     putString("   ===========================");
 1385              		.loc 3 26 5 is_stmt 1
  26:src/../h/../h/my_console.h ****     putString("   ===========================");
 1386              		.loc 3 26 11 is_stmt 0
 1387 09b8 1305D010 		li	a0,269
 1388 09bc 97000000 		call	_Z6putInti@plt
 1388      E7800000 
 1389              	.LVL169:
  27:src/../h/../h/my_console.h ****     putNewline();
 1390              		.loc 3 27 5 is_stmt 1
  27:src/../h/../h/my_console.h ****     putNewline();
 1391              		.loc 3 27 14 is_stmt 0
 1392 09c4 17050000 		lla	a0,.LC5
 1392      13050500 
 1393 09cc 97000000 		call	_Z9putStringPKc@plt
 1393      E7800000 
 1394              	.LVL170:
  28:src/../h/../h/my_console.h **** 
 1395              		.loc 3 28 5 is_stmt 1
  28:src/../h/../h/my_console.h **** 
 1396              		.loc 3 28 15 is_stmt 0
 1397 09d4 97000000 		call	_Z10putNewlinev@plt
 1397      E7800000 
 1398              	.LVL171:
 1399              		.loc 3 30 5 is_stmt 1
 1400              		.loc 3 30 15 is_stmt 0
 1401 09dc 97000000 		call	_Z10stopKernelv@plt
 1401      E7800000 
 1402              	.LVL172:
 1403              	.LBE138:
 1404              	.LBE137:
 1405              		.cfi_endproc
 1406              	.LFE23:
 1408              		.globl	gTimer
 1409              		.weak	_ZGVZN8IConsole3getEvE8instance
 1410              		.section	.bss._ZGVZN8IConsole3getEvE8instance,"awG",@nobits,_ZGVZN8IConsole3getEvE8instance,comdat
 1411              		.align	3
 1414              	_ZGVZN8IConsole3getEvE8instance:
 1415 0000 00000000 		.zero	8
 1415      00000000 
 1416              		.weak	_ZZN8IConsole3getEvE8instance
 1417              		.section	.bss._ZZN8IConsole3getEvE8instance,"awG",@nobits,_ZZN8IConsole3getEvE8instance,comdat
 1418              		.align	3
 1421              	_ZZN8IConsole3getEvE8instance:
 1422 0000 00000000 		.zero	2048
 1422      00000000 
 1422      00000000 
 1422      00000000 
 1422      00000000 
 1423              		.weak	_ZGVZN9Scheduler3getEvE8instance
 1424              		.section	.bss._ZGVZN9Scheduler3getEvE8instance,"awG",@nobits,_ZGVZN9Scheduler3getEvE8instance,comd
 1425              		.align	3
GAS LISTING /tmp/ccg7MhpB.s 			page 40


 1428              	_ZGVZN9Scheduler3getEvE8instance:
 1429 0000 00000000 		.zero	8
 1429      00000000 
 1430              		.weak	_ZZN9Scheduler3getEvE8instance
 1431              		.section	.bss._ZZN9Scheduler3getEvE8instance,"awG",@nobits,_ZZN9Scheduler3getEvE8instance,comdat
 1432              		.align	3
 1435              	_ZZN9Scheduler3getEvE8instance:
 1436 0000 00000000 		.zero	16
 1436      00000000 
 1436      00000000 
 1436      00000000 
 1437              		.bss
 1438              		.align	3
 1439              		.set	.LANCHOR0,. + 0
 1442              	gTimer:
 1443 0000 00000000 		.zero	8
 1443      00000000 
 1444              		.text
 1445              	.Letext0:
 1446              		.file 5 "src/../h/../lib/hw.h"
 1447              		.file 6 "src/../h/thread.h"
 1448              		.file 7 "src/../h/alloc.h"
 1449              		.file 8 "src/../h/../h/syscall_c.hpp"
GAS LISTING /tmp/ccg7MhpB.s 			page 41


DEFINED SYMBOLS
                            *ABS*:0000000000000000 trap.cpp
     /tmp/ccg7MhpB.s:9      .text:0000000000000000 _Z8testCallm
     /tmp/ccg7MhpB.s:13     .text:0000000000000000 .L0 
     /tmp/ccg7MhpB.s:15     .text:0000000000000000 .L0 
     /tmp/ccg7MhpB.s:16     .text:0000000000000004 .L0 
     /tmp/ccg7MhpB.s:19     .text:000000000000000c .L0 
     /tmp/ccg7MhpB.s:20     .text:000000000000000c .L0 
     /tmp/ccg7MhpB.s:22     .text:0000000000000010 .L0 
     /tmp/ccg7MhpB.s:24     .text:0000000000000010 .L0 
     /tmp/ccg7MhpB.s:25     .text:0000000000000010 .L0 
     /tmp/ccg7MhpB.s:28     .text:0000000000000018 .L0 
     /tmp/ccg7MhpB.s:29     .text:000000000000001c .L0 
     /tmp/ccg7MhpB.s:31     .text:0000000000000020 .L0 
     /tmp/ccg7MhpB.s:32     .text:0000000000000020 .L0 
     /tmp/ccg7MhpB.s:34     .text:0000000000000024 .L0 
     /tmp/ccg7MhpB.s:36     .text:0000000000000028 .L0 
     /tmp/ccg7MhpB.s:50     .text:0000000000000028 _Z12doTimerStuffv
     /tmp/ccg7MhpB.s:53     .text:0000000000000028 .L0 
     /tmp/ccg7MhpB.s:54     .text:0000000000000028 .L0 
     /tmp/ccg7MhpB.s:55     .text:000000000000002c .L0 
     /tmp/ccg7MhpB.s:58     .text:0000000000000034 .L0 
     /tmp/ccg7MhpB.s:59     .text:0000000000000034 .L0 
     /tmp/ccg7MhpB.s:61     .text:0000000000000038 .L0 
     /tmp/ccg7MhpB.s:63     .text:0000000000000038 .L0 
     /tmp/ccg7MhpB.s:64     .text:0000000000000038 .L0 
     /tmp/ccg7MhpB.s:69     .text:000000000000004c .L0 
     /tmp/ccg7MhpB.s:73     .text:0000000000000054 .L0 
     /tmp/ccg7MhpB.s:74     .text:0000000000000054 .L0 
     /tmp/ccg7MhpB.s:79     .text:0000000000000068 .L0 
     /tmp/ccg7MhpB.s:80     .text:0000000000000068 .L0 
     /tmp/ccg7MhpB.s:83     .text:0000000000000070 .L0 
     /tmp/ccg7MhpB.s:86     .text:0000000000000074 .L0 
     /tmp/ccg7MhpB.s:87     .text:0000000000000078 .L0 
     /tmp/ccg7MhpB.s:88     .text:0000000000000078 .L0 
     /tmp/ccg7MhpB.s:90     .text:000000000000007c .L0 
     /tmp/ccg7MhpB.s:91     .text:000000000000007c .L0 
     /tmp/ccg7MhpB.s:93     .text:0000000000000080 .L0 
     /tmp/ccg7MhpB.s:96     .text:0000000000000084 .L0 
     /tmp/ccg7MhpB.s:98     .text:0000000000000084 .L0 
     /tmp/ccg7MhpB.s:99     .text:0000000000000084 .L0 
     /tmp/ccg7MhpB.s:102    .text:0000000000000090 .L0 
     /tmp/ccg7MhpB.s:103    .text:0000000000000090 .L0 
     /tmp/ccg7MhpB.s:108    .text:000000000000009c .L0 
     /tmp/ccg7MhpB.s:109    .text:000000000000009c .L0 
     /tmp/ccg7MhpB.s:113    .text:00000000000000ac .L0 
     /tmp/ccg7MhpB.s:114    .text:00000000000000ac .L0 
     /tmp/ccg7MhpB.s:118    .text:00000000000000bc .L0 
     /tmp/ccg7MhpB.s:122    .text:00000000000000c8 .L0 
     /tmp/ccg7MhpB.s:123    .text:00000000000000c8 .L0 
     /tmp/ccg7MhpB.s:127    .text:00000000000000d8 .L0 
     /tmp/ccg7MhpB.s:128    .text:00000000000000d8 .L0 
     /tmp/ccg7MhpB.s:131    .text:00000000000000e0 .L0 
     /tmp/ccg7MhpB.s:132    .text:00000000000000e4 .L0 
     /tmp/ccg7MhpB.s:138    .text:00000000000000e4 _Z12doSleepStuffv
     /tmp/ccg7MhpB.s:141    .text:00000000000000e4 .L0 
     /tmp/ccg7MhpB.s:142    .text:00000000000000e4 .L0 
GAS LISTING /tmp/ccg7MhpB.s 			page 42


     /tmp/ccg7MhpB.s:143    .text:00000000000000e8 .L0 
     /tmp/ccg7MhpB.s:147    .text:00000000000000f4 .L0 
     /tmp/ccg7MhpB.s:148    .text:00000000000000f4 .L0 
     /tmp/ccg7MhpB.s:149    .text:00000000000000f4 .L0 
     /tmp/ccg7MhpB.s:151    .text:00000000000000f8 .L0 
     /tmp/ccg7MhpB.s:156    .text:00000000000000f8 .L0 
     /tmp/ccg7MhpB.s:157    .text:00000000000000f8 .L0 
     /tmp/ccg7MhpB.s:1428   .bss._ZGVZN9Scheduler3getEvE8instance:0000000000000000 _ZGVZN9Scheduler3getEvE8instance
     /tmp/ccg7MhpB.s:158    .text:00000000000000f8 .L0 
     /tmp/ccg7MhpB.s:1435   .bss._ZZN9Scheduler3getEvE8instance:0000000000000000 _ZZN9Scheduler3getEvE8instance
     /tmp/ccg7MhpB.s:165    .text:0000000000000104 .L0 
     /tmp/ccg7MhpB.s:173    .text:0000000000000114 .L0 
     /tmp/ccg7MhpB.s:179    .text:0000000000000120 .L0 
     /tmp/ccg7MhpB.s:180    .text:0000000000000120 .L0 
     /tmp/ccg7MhpB.s:184    .text:0000000000000128 .L0 
     /tmp/ccg7MhpB.s:185    .text:0000000000000128 .L0 
     /tmp/ccg7MhpB.s:187    .text:000000000000012c .L0 
     /tmp/ccg7MhpB.s:188    .text:000000000000012c .L0 
     /tmp/ccg7MhpB.s:190    .text:0000000000000130 .L0 
     /tmp/ccg7MhpB.s:195    .text:0000000000000138 .L0 
     /tmp/ccg7MhpB.s:196    .text:0000000000000138 .L0 
     /tmp/ccg7MhpB.s:197    .text:0000000000000138 .L0 
     /tmp/ccg7MhpB.s:198    .text:0000000000000138 .L0 
     /tmp/ccg7MhpB.s:199    .text:0000000000000138 .L0 
     /tmp/ccg7MhpB.s:202    .text:000000000000013c .L0 
     /tmp/ccg7MhpB.s:209    .text:0000000000000140 .L0 
     /tmp/ccg7MhpB.s:210    .text:0000000000000140 .L0 
     /tmp/ccg7MhpB.s:211    .text:0000000000000140 .L0 
     /tmp/ccg7MhpB.s:218    .text:000000000000014c .L0 
     /tmp/ccg7MhpB.s:226    .text:000000000000015c .L0 
     /tmp/ccg7MhpB.s:232    .text:0000000000000168 .L0 
     /tmp/ccg7MhpB.s:233    .text:0000000000000168 .L0 
     /tmp/ccg7MhpB.s:235    .text:0000000000000170 .L0 
     /tmp/ccg7MhpB.s:237    .text:0000000000000174 .L0 
     /tmp/ccg7MhpB.s:238    .text:0000000000000174 .L0 
     /tmp/ccg7MhpB.s:240    .text:0000000000000178 .L0 
     /tmp/ccg7MhpB.s:244    .text:000000000000017c .L0 
     /tmp/ccg7MhpB.s:245    .text:000000000000017c .L0 
     /tmp/ccg7MhpB.s:246    .text:000000000000017c .L0 
     /tmp/ccg7MhpB.s:249    .text:0000000000000184 .L0 
     /tmp/ccg7MhpB.s:252    .text:0000000000000184 .L0 
     /tmp/ccg7MhpB.s:254    .text:0000000000000184 .L0 
     /tmp/ccg7MhpB.s:257    .text:0000000000000184 .L0 
     /tmp/ccg7MhpB.s:258    .text:0000000000000184 .L0 
     /tmp/ccg7MhpB.s:259    .text:0000000000000184 .L0 
     /tmp/ccg7MhpB.s:266    .text:0000000000000190 .L0 
     /tmp/ccg7MhpB.s:274    .text:00000000000001a0 .L0 
     /tmp/ccg7MhpB.s:280    .text:00000000000001ac .L0 
     /tmp/ccg7MhpB.s:281    .text:00000000000001ac .L0 
     /tmp/ccg7MhpB.s:284    .text:00000000000001b4 .L0 
     /tmp/ccg7MhpB.s:285    .text:00000000000001b4 .L0 
     /tmp/ccg7MhpB.s:286    .text:00000000000001b4 .L0 
     /tmp/ccg7MhpB.s:290    .text:00000000000001b8 .L0 
     /tmp/ccg7MhpB.s:291    .text:00000000000001b8 .L0 
     /tmp/ccg7MhpB.s:293    .text:00000000000001bc .L0 
     /tmp/ccg7MhpB.s:294    .text:00000000000001bc .L0 
     /tmp/ccg7MhpB.s:296    .text:00000000000001c0 .L0 
GAS LISTING /tmp/ccg7MhpB.s 			page 43


     /tmp/ccg7MhpB.s:299    .text:00000000000001c4 .L0 
     /tmp/ccg7MhpB.s:300    .text:00000000000001c4 .L0 
     /tmp/ccg7MhpB.s:301    .text:00000000000001c4 .L0 
     /tmp/ccg7MhpB.s:303    .text:00000000000001c8 .L0 
     /tmp/ccg7MhpB.s:306    .text:00000000000001cc .L0 
     /tmp/ccg7MhpB.s:311    .text:00000000000001d0 .L0 
     /tmp/ccg7MhpB.s:312    .text:00000000000001d0 .L0 
     /tmp/ccg7MhpB.s:313    .text:00000000000001d0 .L0 
     /tmp/ccg7MhpB.s:320    .text:00000000000001dc .L0 
     /tmp/ccg7MhpB.s:326    .text:00000000000001e4 .L0 
     /tmp/ccg7MhpB.s:333    .text:00000000000001f0 .L0 
     /tmp/ccg7MhpB.s:334    .text:00000000000001f0 .L0 
     /tmp/ccg7MhpB.s:336    .text:00000000000001f4 .L0 
     /tmp/ccg7MhpB.s:342    .text:0000000000000200 .L0 
     /tmp/ccg7MhpB.s:343    .text:0000000000000204 .L0 
     /tmp/ccg7MhpB.s:345    .text:0000000000000208 .L0 
     /tmp/ccg7MhpB.s:346    .text:0000000000000208 .L0 
     /tmp/ccg7MhpB.s:348    .text:000000000000020c .L0 
     /tmp/ccg7MhpB.s:350    .text:0000000000000210 .L0 
     /tmp/ccg7MhpB.s:352    .text:0000000000000214 .L0 
     /tmp/ccg7MhpB.s:372    .text:0000000000000214 _Z22cTimerInterruptRoutinev
     /tmp/ccg7MhpB.s:375    .text:0000000000000214 .L0 
     /tmp/ccg7MhpB.s:376    .text:0000000000000214 .L0 
     /tmp/ccg7MhpB.s:377    .text:0000000000000218 .L0 
     /tmp/ccg7MhpB.s:381    .text:0000000000000224 .L0 
     /tmp/ccg7MhpB.s:382    .text:0000000000000224 .L0 
     /tmp/ccg7MhpB.s:383    .text:0000000000000224 .L0 
     /tmp/ccg7MhpB.s:385    .text:0000000000000228 .L0 
     /tmp/ccg7MhpB.s:387    .text:0000000000000228 .L0 
        src/trap.cpp:84     .text:0000000000000228 .L0 
     /tmp/ccg7MhpB.s:393    .text:000000000000022c .L0 
     /tmp/ccg7MhpB.s:394    .text:000000000000022c .L0 
        src/trap.cpp:87     .text:000000000000022c .L0 
     /tmp/ccg7MhpB.s:400    .text:0000000000000230 .L0 
     /tmp/ccg7MhpB.s:401    .text:0000000000000230 .L0 
        src/trap.cpp:91     .text:0000000000000230 .L0 
     /tmp/ccg7MhpB.s:407    .text:0000000000000234 .L0 
     /tmp/ccg7MhpB.s:416    .text:000000000000024c .L0 
     /tmp/ccg7MhpB.s:422    .text:0000000000000254 .L0 
     /tmp/ccg7MhpB.s:423    .text:0000000000000254 .L0 
     /tmp/ccg7MhpB.s:426    .text:000000000000025c .L0 
     /tmp/ccg7MhpB.s:432    .text:0000000000000264 .L0 
     /tmp/ccg7MhpB.s:433    .text:0000000000000264 .L0 
     /tmp/ccg7MhpB.s:1414   .bss._ZGVZN8IConsole3getEvE8instance:0000000000000000 _ZGVZN8IConsole3getEvE8instance
     /tmp/ccg7MhpB.s:434    .text:0000000000000264 .L0 
     /tmp/ccg7MhpB.s:1421   .bss._ZZN8IConsole3getEvE8instance:0000000000000000 _ZZN8IConsole3getEvE8instance
     /tmp/ccg7MhpB.s:441    .text:0000000000000270 .L0 
     /tmp/ccg7MhpB.s:450    .text:0000000000000284 .L0 
     /tmp/ccg7MhpB.s:456    .text:0000000000000290 .L0 
     /tmp/ccg7MhpB.s:457    .text:0000000000000290 .L0 
     /tmp/ccg7MhpB.s:462    .text:00000000000002a0 .L0 
        src/trap.cpp:110    .text:00000000000002a0 .L0 
     /tmp/ccg7MhpB.s:469    .text:00000000000002a4 .L0 
     /tmp/ccg7MhpB.s:470    .text:00000000000002a8 .L0 
     /tmp/ccg7MhpB.s:471    .text:00000000000002a8 .L0 
     /tmp/ccg7MhpB.s:473    .text:00000000000002ac .L0 
     /tmp/ccg7MhpB.s:474    .text:00000000000002ac .L0 
GAS LISTING /tmp/ccg7MhpB.s 			page 44


     /tmp/ccg7MhpB.s:476    .text:00000000000002b0 .L0 
     /tmp/ccg7MhpB.s:479    .text:00000000000002b4 .L0 
     /tmp/ccg7MhpB.s:483    .text:00000000000002b8 .L0 
     /tmp/ccg7MhpB.s:487    .text:00000000000002b8 .L0 
     /tmp/ccg7MhpB.s:488    .text:00000000000002b8 .L0 
     /tmp/ccg7MhpB.s:493    .text:00000000000002c8 .L0 
     /tmp/ccg7MhpB.s:494    .text:00000000000002c8 .L0 
     /tmp/ccg7MhpB.s:498    .text:00000000000002d8 .L0 
     /tmp/ccg7MhpB.s:499    .text:00000000000002d8 .L0 
     /tmp/ccg7MhpB.s:503    .text:00000000000002e8 .L0 
     /tmp/ccg7MhpB.s:504    .text:00000000000002e8 .L0 
     /tmp/ccg7MhpB.s:508    .text:00000000000002f4 .L0 
     /tmp/ccg7MhpB.s:509    .text:00000000000002f4 .L0 
     /tmp/ccg7MhpB.s:513    .text:0000000000000304 .L0 
     /tmp/ccg7MhpB.s:514    .text:0000000000000304 .L0 
     /tmp/ccg7MhpB.s:517    .text:000000000000030c .L0 
     /tmp/ccg7MhpB.s:518    .text:000000000000030c .L0 
     /tmp/ccg7MhpB.s:524    .text:0000000000000314 .L0 
     /tmp/ccg7MhpB.s:525    .text:0000000000000314 .L0 
     /tmp/ccg7MhpB.s:528    .text:000000000000031c .L0 
     /tmp/ccg7MhpB.s:529    .text:000000000000031c .L0 
     /tmp/ccg7MhpB.s:537    .text:0000000000000328 .L0 
     /tmp/ccg7MhpB.s:538    .text:0000000000000328 .L0 
     /tmp/ccg7MhpB.s:539    .text:0000000000000328 .L0 
     /tmp/ccg7MhpB.s:540    .text:0000000000000328 .L0 
     /tmp/ccg7MhpB.s:544    .text:0000000000000338 .L0 
     /tmp/ccg7MhpB.s:545    .text:0000000000000338 .L0 
     /tmp/ccg7MhpB.s:549    .text:0000000000000348 .L0 
     /tmp/ccg7MhpB.s:550    .text:0000000000000348 .L0 
     /tmp/ccg7MhpB.s:554    .text:0000000000000358 .L0 
     /tmp/ccg7MhpB.s:555    .text:0000000000000358 .L0 
     /tmp/ccg7MhpB.s:559    .text:0000000000000364 .L0 
     /tmp/ccg7MhpB.s:560    .text:0000000000000364 .L0 
     /tmp/ccg7MhpB.s:564    .text:0000000000000374 .L0 
     /tmp/ccg7MhpB.s:565    .text:0000000000000374 .L0 
     /tmp/ccg7MhpB.s:568    .text:000000000000037c .L0 
     /tmp/ccg7MhpB.s:569    .text:000000000000037c .L0 
     /tmp/ccg7MhpB.s:573    .text:0000000000000384 .L0 
     /tmp/ccg7MhpB.s:599    .text:0000000000000384 _Z25cInternalInterruptRoutinev
     /tmp/ccg7MhpB.s:602    .text:0000000000000384 .L0 
     /tmp/ccg7MhpB.s:603    .text:0000000000000384 .L0 
     /tmp/ccg7MhpB.s:604    .text:0000000000000388 .L0 
     /tmp/ccg7MhpB.s:614    .text:00000000000003ac .L0 
     /tmp/ccg7MhpB.s:615    .text:00000000000003ac .L0 
     /tmp/ccg7MhpB.s:616    .text:00000000000003ac .L0 
     /tmp/ccg7MhpB.s:617    .text:00000000000003ac .L0 
     /tmp/ccg7MhpB.s:618    .text:00000000000003ac .L0 
     /tmp/ccg7MhpB.s:619    .text:00000000000003ac .L0 
     /tmp/ccg7MhpB.s:620    .text:00000000000003ac .L0 
     /tmp/ccg7MhpB.s:621    .text:00000000000003ac .L0 
     /tmp/ccg7MhpB.s:622    .text:00000000000003ac .L0 
     /tmp/ccg7MhpB.s:624    .text:00000000000003b0 .L0 
     /tmp/ccg7MhpB.s:626    .text:00000000000003b0 .L0 
     /tmp/ccg7MhpB.s:627    .text:00000000000003b0 .L0 
        src/trap.cpp:117    .text:00000000000003b0 .L0 
     /tmp/ccg7MhpB.s:634    .text:00000000000003b4 .L0 
     /tmp/ccg7MhpB.s:635    .text:00000000000003b4 .L0 
GAS LISTING /tmp/ccg7MhpB.s 			page 45


        src/trap.cpp:122    .text:00000000000003b4 .L0 
     /tmp/ccg7MhpB.s:640    .text:00000000000003b8 .L0 
     /tmp/ccg7MhpB.s:641    .text:00000000000003b8 .L0 
        src/trap.cpp:125    .text:00000000000003b8 .L0 
     /tmp/ccg7MhpB.s:647    .text:00000000000003bc .L0 
        src/trap.cpp:126    .text:00000000000003bc .L0 
     /tmp/ccg7MhpB.s:653    .text:00000000000003c0 .L0 
        src/trap.cpp:127    .text:00000000000003c0 .L0 
     /tmp/ccg7MhpB.s:659    .text:00000000000003c4 .L0 
        src/trap.cpp:128    .text:00000000000003c4 .L0 
     /tmp/ccg7MhpB.s:665    .text:00000000000003c8 .L0 
        src/trap.cpp:131    .text:00000000000003c8 .L0 
     /tmp/ccg7MhpB.s:671    .text:00000000000003cc .L0 
     /tmp/ccg7MhpB.s:681    .text:00000000000003e8 .L0 
     /tmp/ccg7MhpB.s:688    .text:00000000000003f4 .L0 
     /tmp/ccg7MhpB.s:689    .text:00000000000003f4 .L0 
        src/trap.cpp:143    .text:00000000000003f4 .L0 
     /tmp/ccg7MhpB.s:695    .text:00000000000003f8 .L0 
     /tmp/ccg7MhpB.s:697    .text:00000000000003f8 .L0 
     /tmp/ccg7MhpB.s:700    .text:00000000000003fc .L0 
     /tmp/ccg7MhpB.s:703    .text:0000000000000404 .L0 
     /tmp/ccg7MhpB.s:704    .text:0000000000000404 .L0 
     /tmp/ccg7MhpB.s:709    .text:0000000000000410 .L0 
     /tmp/ccg7MhpB.s:710    .text:0000000000000410 .L0 
     /tmp/ccg7MhpB.s:713    .text:0000000000000418 .L0 
     /tmp/ccg7MhpB.s:716    .text:0000000000000420 .L0 
     /tmp/ccg7MhpB.s:719    .text:0000000000000428 .L0 
     /tmp/ccg7MhpB.s:722    .text:0000000000000430 .L0 
     /tmp/ccg7MhpB.s:725    .text:0000000000000438 .L0 
     /tmp/ccg7MhpB.s:728    .text:0000000000000440 .L0 
     /tmp/ccg7MhpB.s:731    .text:0000000000000448 .L0 
     /tmp/ccg7MhpB.s:734    .text:0000000000000450 .L0 
     /tmp/ccg7MhpB.s:737    .text:0000000000000458 .L0 
     /tmp/ccg7MhpB.s:740    .text:0000000000000460 .L0 
     /tmp/ccg7MhpB.s:743    .text:0000000000000468 .L0 
     /tmp/ccg7MhpB.s:749    .text:0000000000000470 .L0 
     /tmp/ccg7MhpB.s:750    .text:0000000000000470 .L0 
     /tmp/ccg7MhpB.s:751    .text:0000000000000470 .L0 
     /tmp/ccg7MhpB.s:752    .text:0000000000000470 .L0 
     /tmp/ccg7MhpB.s:757    .text:0000000000000480 .L0 
     /tmp/ccg7MhpB.s:758    .text:0000000000000480 .L0 
     /tmp/ccg7MhpB.s:762    .text:0000000000000490 .L0 
     /tmp/ccg7MhpB.s:763    .text:0000000000000490 .L0 
     /tmp/ccg7MhpB.s:767    .text:00000000000004a0 .L0 
     /tmp/ccg7MhpB.s:768    .text:00000000000004a0 .L0 
     /tmp/ccg7MhpB.s:772    .text:00000000000004ac .L0 
     /tmp/ccg7MhpB.s:773    .text:00000000000004ac .L0 
     /tmp/ccg7MhpB.s:777    .text:00000000000004bc .L0 
     /tmp/ccg7MhpB.s:778    .text:00000000000004bc .L0 
     /tmp/ccg7MhpB.s:781    .text:00000000000004c4 .L0 
     /tmp/ccg7MhpB.s:782    .text:00000000000004c4 .L0 
     /tmp/ccg7MhpB.s:790    .text:00000000000004cc .L0 
     /tmp/ccg7MhpB.s:791    .text:00000000000004cc .L0 
     /tmp/ccg7MhpB.s:796    .text:00000000000004dc .L0 
     /tmp/ccg7MhpB.s:797    .text:00000000000004dc .L0 
     /tmp/ccg7MhpB.s:801    .text:00000000000004ec .L0 
     /tmp/ccg7MhpB.s:802    .text:00000000000004ec .L0 
GAS LISTING /tmp/ccg7MhpB.s 			page 46


     /tmp/ccg7MhpB.s:806    .text:00000000000004fc .L0 
     /tmp/ccg7MhpB.s:807    .text:00000000000004fc .L0 
     /tmp/ccg7MhpB.s:811    .text:0000000000000508 .L0 
     /tmp/ccg7MhpB.s:812    .text:0000000000000508 .L0 
     /tmp/ccg7MhpB.s:816    .text:0000000000000518 .L0 
     /tmp/ccg7MhpB.s:817    .text:0000000000000518 .L0 
     /tmp/ccg7MhpB.s:820    .text:0000000000000520 .L0 
     /tmp/ccg7MhpB.s:821    .text:0000000000000520 .L0 
     /tmp/ccg7MhpB.s:827    .text:0000000000000528 .L0 
     /tmp/ccg7MhpB.s:828    .text:0000000000000528 .L0 
     /tmp/ccg7MhpB.s:832    .text:0000000000000538 .L0 
     /tmp/ccg7MhpB.s:835    .text:0000000000000540 .L0 
     /tmp/ccg7MhpB.s:838    .text:0000000000000548 .L0 
     /tmp/ccg7MhpB.s:841    .text:0000000000000550 .L0 
     /tmp/ccg7MhpB.s:842    .text:0000000000000550 .L0 
     /tmp/ccg7MhpB.s:848    .text:0000000000000560 .L0 
     /tmp/ccg7MhpB.s:849    .text:0000000000000560 .L0 
     /tmp/ccg7MhpB.s:850    .text:0000000000000560 .L0 
     /tmp/ccg7MhpB.s:851    .text:0000000000000560 .L0 
     /tmp/ccg7MhpB.s:855    .text:0000000000000570 .L0 
     /tmp/ccg7MhpB.s:856    .text:0000000000000570 .L0 
     /tmp/ccg7MhpB.s:860    .text:0000000000000580 .L0 
     /tmp/ccg7MhpB.s:861    .text:0000000000000580 .L0 
     /tmp/ccg7MhpB.s:865    .text:0000000000000590 .L0 
     /tmp/ccg7MhpB.s:866    .text:0000000000000590 .L0 
     /tmp/ccg7MhpB.s:870    .text:000000000000059c .L0 
     /tmp/ccg7MhpB.s:871    .text:000000000000059c .L0 
     /tmp/ccg7MhpB.s:875    .text:00000000000005ac .L0 
     /tmp/ccg7MhpB.s:876    .text:00000000000005ac .L0 
     /tmp/ccg7MhpB.s:879    .text:00000000000005b4 .L0 
     /tmp/ccg7MhpB.s:880    .text:00000000000005b4 .L0 
     /tmp/ccg7MhpB.s:886    .text:00000000000005bc .L0 
     /tmp/ccg7MhpB.s:887    .text:00000000000005bc .L0 
     /tmp/ccg7MhpB.s:893    .text:00000000000005d0 .L0 
     /tmp/ccg7MhpB.s:894    .text:00000000000005d0 .L0 
     /tmp/ccg7MhpB.s:900    .text:00000000000005e4 .L0 
     /tmp/ccg7MhpB.s:901    .text:00000000000005e4 .L0 
     /tmp/ccg7MhpB.s:906    .text:00000000000005f4 .L0 
     /tmp/ccg7MhpB.s:907    .text:00000000000005f4 .L0 
     /tmp/ccg7MhpB.s:910    .text:00000000000005fc .L0 
     /tmp/ccg7MhpB.s:911    .text:00000000000005fc .L0 
     /tmp/ccg7MhpB.s:915    .text:000000000000060c .L0 
     /tmp/ccg7MhpB.s:916    .text:000000000000060c .L0 
     /tmp/ccg7MhpB.s:921    .text:0000000000000614 .L0 
     /tmp/ccg7MhpB.s:922    .text:0000000000000614 .L0 
     /tmp/ccg7MhpB.s:923    .text:0000000000000614 .L0 
     /tmp/ccg7MhpB.s:924    .text:0000000000000614 .L0 
     /tmp/ccg7MhpB.s:928    .text:0000000000000624 .L0 
     /tmp/ccg7MhpB.s:929    .text:0000000000000624 .L0 
     /tmp/ccg7MhpB.s:933    .text:0000000000000634 .L0 
     /tmp/ccg7MhpB.s:934    .text:0000000000000634 .L0 
     /tmp/ccg7MhpB.s:938    .text:0000000000000644 .L0 
     /tmp/ccg7MhpB.s:939    .text:0000000000000644 .L0 
     /tmp/ccg7MhpB.s:943    .text:0000000000000650 .L0 
     /tmp/ccg7MhpB.s:944    .text:0000000000000650 .L0 
     /tmp/ccg7MhpB.s:948    .text:0000000000000660 .L0 
     /tmp/ccg7MhpB.s:949    .text:0000000000000660 .L0 
GAS LISTING /tmp/ccg7MhpB.s 			page 47


     /tmp/ccg7MhpB.s:952    .text:0000000000000668 .L0 
     /tmp/ccg7MhpB.s:953    .text:0000000000000668 .L0 
     /tmp/ccg7MhpB.s:959    .text:0000000000000670 .L0 
     /tmp/ccg7MhpB.s:960    .text:0000000000000670 .L0 
     /tmp/ccg7MhpB.s:966    .text:0000000000000684 .L0 
     /tmp/ccg7MhpB.s:969    .text:0000000000000688 .L0 
     /tmp/ccg7MhpB.s:970    .text:0000000000000688 .L0 
     /tmp/ccg7MhpB.s:972    .text:000000000000068c .L0 
     /tmp/ccg7MhpB.s:975    .text:0000000000000694 .L0 
     /tmp/ccg7MhpB.s:978    .text:000000000000069c .L0 
     /tmp/ccg7MhpB.s:981    .text:00000000000006a4 .L0 
     /tmp/ccg7MhpB.s:984    .text:00000000000006ac .L0 
     /tmp/ccg7MhpB.s:987    .text:00000000000006b4 .L0 
     /tmp/ccg7MhpB.s:990    .text:00000000000006bc .L0 
     /tmp/ccg7MhpB.s:993    .text:00000000000006c4 .L0 
     /tmp/ccg7MhpB.s:996    .text:00000000000006cc .L0 
     /tmp/ccg7MhpB.s:999    .text:00000000000006d4 .L0 
     /tmp/ccg7MhpB.s:1004   .text:00000000000006dc .L0 
     /tmp/ccg7MhpB.s:1005   .text:00000000000006dc .L0 
     /tmp/ccg7MhpB.s:1011   .text:00000000000006f0 .L0 
     /tmp/ccg7MhpB.s:1016   .text:00000000000006f8 .L0 
     /tmp/ccg7MhpB.s:1017   .text:00000000000006f8 .L0 
     /tmp/ccg7MhpB.s:1022   .text:0000000000000704 .L0 
     /tmp/ccg7MhpB.s:1027   .text:000000000000070c .L0 
     /tmp/ccg7MhpB.s:1028   .text:000000000000070c .L0 
     /tmp/ccg7MhpB.s:1034   .text:0000000000000718 .L0 
     /tmp/ccg7MhpB.s:1035   .text:0000000000000718 .L0 
     /tmp/ccg7MhpB.s:1042   .text:000000000000072c .L0 
     /tmp/ccg7MhpB.s:1047   .text:0000000000000734 .L0 
        src/trap.cpp:198    .text:0000000000000734 .L0 
     /tmp/ccg7MhpB.s:1053   .text:0000000000000738 .L0 
     /tmp/ccg7MhpB.s:1055   .text:0000000000000738 .L0 
     /tmp/ccg7MhpB.s:1058   .text:0000000000000740 .L0 
     /tmp/ccg7MhpB.s:1063   .text:0000000000000744 .L0 
     /tmp/ccg7MhpB.s:1064   .text:0000000000000744 .L0 
     /tmp/ccg7MhpB.s:1066   .text:0000000000000748 .L0 
     /tmp/ccg7MhpB.s:1067   .text:0000000000000748 .L0 
     /tmp/ccg7MhpB.s:1072   .text:0000000000000758 .L0 
     /tmp/ccg7MhpB.s:1073   .text:0000000000000758 .L0 
     /tmp/ccg7MhpB.s:1077   .text:0000000000000768 .L0 
     /tmp/ccg7MhpB.s:1078   .text:0000000000000768 .L0 
     /tmp/ccg7MhpB.s:1082   .text:0000000000000778 .L0 
     /tmp/ccg7MhpB.s:1083   .text:0000000000000778 .L0 
     /tmp/ccg7MhpB.s:1087   .text:0000000000000784 .L0 
     /tmp/ccg7MhpB.s:1088   .text:0000000000000784 .L0 
     /tmp/ccg7MhpB.s:1092   .text:0000000000000794 .L0 
     /tmp/ccg7MhpB.s:1093   .text:0000000000000794 .L0 
     /tmp/ccg7MhpB.s:1096   .text:000000000000079c .L0 
     /tmp/ccg7MhpB.s:1097   .text:000000000000079c .L0 
     /tmp/ccg7MhpB.s:1103   .text:00000000000007a4 .L0 
     /tmp/ccg7MhpB.s:1104   .text:00000000000007a4 .L0 
     /tmp/ccg7MhpB.s:1110   .text:00000000000007b0 .L0 
     /tmp/ccg7MhpB.s:1111   .text:00000000000007b0 .L0 
     /tmp/ccg7MhpB.s:1121   .text:00000000000007c0 .L0 
     /tmp/ccg7MhpB.s:1122   .text:00000000000007c0 .L0 
     /tmp/ccg7MhpB.s:1123   .text:00000000000007c0 .L0 
     /tmp/ccg7MhpB.s:1130   .text:00000000000007cc .L0 
GAS LISTING /tmp/ccg7MhpB.s 			page 48


     /tmp/ccg7MhpB.s:1138   .text:00000000000007dc .L0 
     /tmp/ccg7MhpB.s:1144   .text:00000000000007e8 .L0 
     /tmp/ccg7MhpB.s:1145   .text:00000000000007e8 .L0 
     /tmp/ccg7MhpB.s:1151   .text:00000000000007fc .L0 
     /tmp/ccg7MhpB.s:1155   .text:0000000000000804 .L0 
     /tmp/ccg7MhpB.s:1162   .text:0000000000000810 .L0 
     /tmp/ccg7MhpB.s:1163   .text:0000000000000810 .L0 
     /tmp/ccg7MhpB.s:1164   .text:0000000000000810 .L0 
     /tmp/ccg7MhpB.s:1165   .text:0000000000000810 .L0 
     /tmp/ccg7MhpB.s:1167   .text:0000000000000814 .L0 
     /tmp/ccg7MhpB.s:1170   .text:000000000000081c .L0 
     /tmp/ccg7MhpB.s:1173   .text:0000000000000824 .L0 
     /tmp/ccg7MhpB.s:1177   .text:0000000000000828 .L0 
     /tmp/ccg7MhpB.s:1179   .text:000000000000082c .L0 
     /tmp/ccg7MhpB.s:1182   .text:0000000000000834 .L0 
     /tmp/ccg7MhpB.s:1184   .text:0000000000000838 .L0 
     /tmp/ccg7MhpB.s:1190   .text:0000000000000840 .L0 
     /tmp/ccg7MhpB.s:1191   .text:0000000000000840 .L0 
     /tmp/ccg7MhpB.s:1192   .text:0000000000000840 .L0 
     /tmp/ccg7MhpB.s:1193   .text:0000000000000840 .L0 
     /tmp/ccg7MhpB.s:1197   .text:0000000000000850 .L0 
     /tmp/ccg7MhpB.s:1198   .text:0000000000000850 .L0 
     /tmp/ccg7MhpB.s:1202   .text:0000000000000860 .L0 
     /tmp/ccg7MhpB.s:1203   .text:0000000000000860 .L0 
     /tmp/ccg7MhpB.s:1207   .text:0000000000000870 .L0 
     /tmp/ccg7MhpB.s:1208   .text:0000000000000870 .L0 
     /tmp/ccg7MhpB.s:1212   .text:000000000000087c .L0 
     /tmp/ccg7MhpB.s:1213   .text:000000000000087c .L0 
     /tmp/ccg7MhpB.s:1217   .text:000000000000088c .L0 
     /tmp/ccg7MhpB.s:1218   .text:000000000000088c .L0 
     /tmp/ccg7MhpB.s:1221   .text:0000000000000894 .L0 
     /tmp/ccg7MhpB.s:1222   .text:0000000000000894 .L0 
     /tmp/ccg7MhpB.s:1228   .text:000000000000089c .L0 
     /tmp/ccg7MhpB.s:1251   .text:00000000000008d4 .L0 
     /tmp/ccg7MhpB.s:1257   .text:00000000000008dc .L0 
     /tmp/ccg7MhpB.s:1262   .text:00000000000008e0 .L0 
     /tmp/ccg7MhpB.s:1263   .text:00000000000008e0 .L0 
     /tmp/ccg7MhpB.s:1264   .text:00000000000008e0 .L0 
     /tmp/ccg7MhpB.s:1266   .text:00000000000008e4 .L0 
     /tmp/ccg7MhpB.s:1270   .text:00000000000008ec .L0 
        src/trap.cpp:254    .text:00000000000008ec .L0 
     /tmp/ccg7MhpB.s:1277   .text:00000000000008f0 .L0 
     /tmp/ccg7MhpB.s:1278   .text:00000000000008f4 .L0 
     /tmp/ccg7MhpB.s:1279   .text:00000000000008f4 .L0 
     /tmp/ccg7MhpB.s:1281   .text:00000000000008f8 .L0 
     /tmp/ccg7MhpB.s:1282   .text:00000000000008f8 .L0 
     /tmp/ccg7MhpB.s:1284   .text:00000000000008fc .L0 
     /tmp/ccg7MhpB.s:1287   .text:0000000000000900 .L0 
     /tmp/ccg7MhpB.s:1290   .text:0000000000000904 .L0 
     /tmp/ccg7MhpB.s:1293   .text:0000000000000908 .L0 
     /tmp/ccg7MhpB.s:1296   .text:000000000000090c .L0 
     /tmp/ccg7MhpB.s:1299   .text:0000000000000910 .L0 
     /tmp/ccg7MhpB.s:1302   .text:0000000000000914 .L0 
     /tmp/ccg7MhpB.s:1305   .text:0000000000000918 .L0 
     /tmp/ccg7MhpB.s:1309   .text:000000000000091c .L0 
     /tmp/ccg7MhpB.s:1313   .text:000000000000091c .L0 
     /tmp/ccg7MhpB.s:1314   .text:000000000000091c .L0 
GAS LISTING /tmp/ccg7MhpB.s 			page 49


     /tmp/ccg7MhpB.s:1318   .text:000000000000092c .L0 
     /tmp/ccg7MhpB.s:1319   .text:000000000000092c .L0 
     /tmp/ccg7MhpB.s:1323   .text:000000000000093c .L0 
     /tmp/ccg7MhpB.s:1324   .text:000000000000093c .L0 
     /tmp/ccg7MhpB.s:1328   .text:000000000000094c .L0 
     /tmp/ccg7MhpB.s:1329   .text:000000000000094c .L0 
     /tmp/ccg7MhpB.s:1333   .text:0000000000000958 .L0 
     /tmp/ccg7MhpB.s:1334   .text:0000000000000958 .L0 
     /tmp/ccg7MhpB.s:1338   .text:0000000000000968 .L0 
     /tmp/ccg7MhpB.s:1339   .text:0000000000000968 .L0 
     /tmp/ccg7MhpB.s:1342   .text:0000000000000970 .L0 
     /tmp/ccg7MhpB.s:1343   .text:0000000000000970 .L0 
     /tmp/ccg7MhpB.s:1347   .text:0000000000000978 .L0 
     /tmp/ccg7MhpB.s:1353   .text:0000000000000978 _Z24cConsoleInterruptRoutinev
     /tmp/ccg7MhpB.s:1356   .text:0000000000000978 .L0 
     /tmp/ccg7MhpB.s:1357   .text:0000000000000978 .L0 
     /tmp/ccg7MhpB.s:1358   .text:000000000000097c .L0 
     /tmp/ccg7MhpB.s:1361   .text:0000000000000984 .L0 
     /tmp/ccg7MhpB.s:1362   .text:0000000000000984 .L0 
     /tmp/ccg7MhpB.s:1364   .text:0000000000000988 .L0 
     /tmp/ccg7MhpB.s:1369   .text:0000000000000988 .L0 
     /tmp/ccg7MhpB.s:1370   .text:0000000000000988 .L0 
     /tmp/ccg7MhpB.s:1371   .text:0000000000000988 .L0 
     /tmp/ccg7MhpB.s:1372   .text:0000000000000988 .L0 
     /tmp/ccg7MhpB.s:1376   .text:0000000000000998 .L0 
     /tmp/ccg7MhpB.s:1377   .text:0000000000000998 .L0 
     /tmp/ccg7MhpB.s:1381   .text:00000000000009a8 .L0 
     /tmp/ccg7MhpB.s:1382   .text:00000000000009a8 .L0 
     /tmp/ccg7MhpB.s:1386   .text:00000000000009b8 .L0 
     /tmp/ccg7MhpB.s:1387   .text:00000000000009b8 .L0 
     /tmp/ccg7MhpB.s:1391   .text:00000000000009c4 .L0 
     /tmp/ccg7MhpB.s:1392   .text:00000000000009c4 .L0 
     /tmp/ccg7MhpB.s:1396   .text:00000000000009d4 .L0 
     /tmp/ccg7MhpB.s:1397   .text:00000000000009d4 .L0 
     /tmp/ccg7MhpB.s:1400   .text:00000000000009dc .L0 
     /tmp/ccg7MhpB.s:1401   .text:00000000000009dc .L0 
     /tmp/ccg7MhpB.s:1405   .text:00000000000009e4 .L0 
     /tmp/ccg7MhpB.s:1442   .bss:0000000000000000 gTimer
     /tmp/ccg7MhpB.s:1439   .bss:0000000000000000 .LANCHOR0
     /tmp/ccg7MhpB.s:1450   .text:00000000000009e4 .L0 
     /tmp/ccg7MhpB.s:64     .text:0000000000000038 .L0 
     /tmp/ccg7MhpB.s:74     .text:0000000000000054 .L0 
     /tmp/ccg7MhpB.s:99     .text:0000000000000084 .L0 
     /tmp/ccg7MhpB.s:41     .rodata.str1.8:0000000000000000 .LC0
     /tmp/ccg7MhpB.s:109    .text:000000000000009c .L0 
     /tmp/ccg7MhpB.s:114    .text:00000000000000ac .L0 
     /tmp/ccg7MhpB.s:44     .rodata.str1.8:0000000000000008 .LC1
     /tmp/ccg7MhpB.s:123    .text:00000000000000c8 .L0 
     /tmp/ccg7MhpB.s:158    .text:00000000000000f8 .L0 
     /tmp/ccg7MhpB.s:165    .text:0000000000000104 .L0 
     /tmp/ccg7MhpB.s:174    .text:0000000000000118 .L0 
     /tmp/ccg7MhpB.s:180    .text:0000000000000120 .L0 
     /tmp/ccg7MhpB.s:211    .text:0000000000000140 .L0 
     /tmp/ccg7MhpB.s:218    .text:000000000000014c .L0 
     /tmp/ccg7MhpB.s:227    .text:0000000000000160 .L0 
     /tmp/ccg7MhpB.s:233    .text:0000000000000168 .L0 
     /tmp/ccg7MhpB.s:259    .text:0000000000000184 .L0 
GAS LISTING /tmp/ccg7MhpB.s 			page 50


     /tmp/ccg7MhpB.s:266    .text:0000000000000190 .L0 
     /tmp/ccg7MhpB.s:275    .text:00000000000001a4 .L0 
     /tmp/ccg7MhpB.s:281    .text:00000000000001ac .L0 
     /tmp/ccg7MhpB.s:313    .text:00000000000001d0 .L0 
     /tmp/ccg7MhpB.s:320    .text:00000000000001dc .L0 
     /tmp/ccg7MhpB.s:327    .text:00000000000001e8 .L0 
     /tmp/ccg7MhpB.s:336    .text:00000000000001f4 .L0 
     /tmp/ccg7MhpB.s:410    .text:0000000000000240 .L0 
     /tmp/ccg7MhpB.s:434    .text:0000000000000264 .L0 
     /tmp/ccg7MhpB.s:441    .text:0000000000000270 .L0 
     /tmp/ccg7MhpB.s:451    .text:0000000000000288 .L0 
     /tmp/ccg7MhpB.s:457    .text:0000000000000290 .L0 
     /tmp/ccg7MhpB.s:357    .rodata.str1.8:0000000000000010 .LC2
     /tmp/ccg7MhpB.s:488    .text:00000000000002b8 .L0 
     /tmp/ccg7MhpB.s:360    .rodata.str1.8:0000000000000038 .LC3
     /tmp/ccg7MhpB.s:494    .text:00000000000002c8 .L0 
     /tmp/ccg7MhpB.s:363    .rodata.str1.8:0000000000000048 .LC4
     /tmp/ccg7MhpB.s:499    .text:00000000000002d8 .L0 
     /tmp/ccg7MhpB.s:366    .rodata.str1.8:0000000000000058 .LC5
     /tmp/ccg7MhpB.s:509    .text:00000000000002f4 .L0 
     /tmp/ccg7MhpB.s:540    .text:0000000000000328 .L0 
     /tmp/ccg7MhpB.s:545    .text:0000000000000338 .L0 
     /tmp/ccg7MhpB.s:550    .text:0000000000000348 .L0 
     /tmp/ccg7MhpB.s:560    .text:0000000000000364 .L0 
     /tmp/ccg7MhpB.s:674    .text:00000000000003d8 .L0 
     /tmp/ccg7MhpB.s:752    .text:0000000000000470 .L0 
     /tmp/ccg7MhpB.s:758    .text:0000000000000480 .L0 
     /tmp/ccg7MhpB.s:763    .text:0000000000000490 .L0 
     /tmp/ccg7MhpB.s:773    .text:00000000000004ac .L0 
     /tmp/ccg7MhpB.s:791    .text:00000000000004cc .L0 
     /tmp/ccg7MhpB.s:797    .text:00000000000004dc .L0 
     /tmp/ccg7MhpB.s:802    .text:00000000000004ec .L0 
     /tmp/ccg7MhpB.s:812    .text:0000000000000508 .L0 
     /tmp/ccg7MhpB.s:578    .rodata.str1.8:0000000000000078 .LC6
     /tmp/ccg7MhpB.s:828    .text:0000000000000528 .L0 
     /tmp/ccg7MhpB.s:590    .rodata.str1.8:00000000000000e0 .LC10
     /tmp/ccg7MhpB.s:842    .text:0000000000000550 .L0 
     /tmp/ccg7MhpB.s:851    .text:0000000000000560 .L0 
     /tmp/ccg7MhpB.s:856    .text:0000000000000570 .L0 
     /tmp/ccg7MhpB.s:861    .text:0000000000000580 .L0 
     /tmp/ccg7MhpB.s:871    .text:000000000000059c .L0 
     /tmp/ccg7MhpB.s:581    .rodata.str1.8:0000000000000098 .LC7
     /tmp/ccg7MhpB.s:887    .text:00000000000005bc .L0 
     /tmp/ccg7MhpB.s:584    .rodata.str1.8:00000000000000b0 .LC8
     /tmp/ccg7MhpB.s:894    .text:00000000000005d0 .L0 
     /tmp/ccg7MhpB.s:587    .rodata.str1.8:00000000000000c8 .LC9
     /tmp/ccg7MhpB.s:901    .text:00000000000005e4 .L0 
     /tmp/ccg7MhpB.s:593    .rodata.str1.8:0000000000000108 .LC11
     /tmp/ccg7MhpB.s:911    .text:00000000000005fc .L0 
     /tmp/ccg7MhpB.s:924    .text:0000000000000614 .L0 
     /tmp/ccg7MhpB.s:929    .text:0000000000000624 .L0 
     /tmp/ccg7MhpB.s:934    .text:0000000000000634 .L0 
     /tmp/ccg7MhpB.s:944    .text:0000000000000650 .L0 
     /tmp/ccg7MhpB.s:1067   .text:0000000000000748 .L0 
     /tmp/ccg7MhpB.s:1073   .text:0000000000000758 .L0 
     /tmp/ccg7MhpB.s:1078   .text:0000000000000768 .L0 
     /tmp/ccg7MhpB.s:1088   .text:0000000000000784 .L0 
GAS LISTING /tmp/ccg7MhpB.s 			page 51


     /tmp/ccg7MhpB.s:1123   .text:00000000000007c0 .L0 
     /tmp/ccg7MhpB.s:1130   .text:00000000000007cc .L0 
     /tmp/ccg7MhpB.s:1139   .text:00000000000007e0 .L0 
     /tmp/ccg7MhpB.s:1146   .text:00000000000007ec .L0 
     /tmp/ccg7MhpB.s:1193   .text:0000000000000840 .L0 
     /tmp/ccg7MhpB.s:1198   .text:0000000000000850 .L0 
     /tmp/ccg7MhpB.s:1203   .text:0000000000000860 .L0 
     /tmp/ccg7MhpB.s:1213   .text:000000000000087c .L0 
     /tmp/ccg7MhpB.s:1314   .text:000000000000091c .L0 
     /tmp/ccg7MhpB.s:1319   .text:000000000000092c .L0 
     /tmp/ccg7MhpB.s:1324   .text:000000000000093c .L0 
     /tmp/ccg7MhpB.s:1334   .text:0000000000000958 .L0 
     /tmp/ccg7MhpB.s:1372   .text:0000000000000988 .L0 
     /tmp/ccg7MhpB.s:1377   .text:0000000000000998 .L0 
     /tmp/ccg7MhpB.s:1382   .text:00000000000009a8 .L0 
     /tmp/ccg7MhpB.s:1392   .text:00000000000009c4 .L0 
     /tmp/ccg7MhpB.s:95     .text:0000000000000084 .L7
     /tmp/ccg7MhpB.s:106    .text:000000000000009c .L8
     /tmp/ccg7MhpB.s:71     .text:0000000000000054 .L4
     /tmp/ccg7MhpB.s:84     .text:0000000000000074 .L3
     /tmp/ccg7MhpB.s:175    .text:0000000000000120 .L10
     /tmp/ccg7MhpB.s:250    .text:0000000000000184 .L11
     /tmp/ccg7MhpB.s:182    .text:0000000000000128 .L12
     /tmp/ccg7MhpB.s:228    .text:0000000000000168 .L16
     /tmp/ccg7MhpB.s:307    .text:00000000000001d0 .L22
     /tmp/ccg7MhpB.s:276    .text:00000000000001ac .L13
     /tmp/ccg7MhpB.s:339    .text:0000000000000200 .L9
     /tmp/ccg7MhpB.s:204    .text:0000000000000140 .L23
     /tmp/ccg7MhpB.s:288    .text:00000000000001b8 .L20
     /tmp/ccg7MhpB.s:329    .text:00000000000001f0 .L18
     /tmp/ccg7MhpB.s:242    .text:000000000000017c .L19
     /tmp/ccg7MhpB.s:482    .text:00000000000002b8 .L31
     /tmp/ccg7MhpB.s:520    .text:0000000000000314 .L32
     /tmp/ccg7MhpB.s:532    .text:0000000000000328 .L28
     /tmp/ccg7MhpB.s:452    .text:0000000000000290 .L29
     /tmp/ccg7MhpB.s:460    .text:00000000000002a0 .L27
     /tmp/ccg7MhpB.s:784    .text:00000000000004cc .L68
     /tmp/ccg7MhpB.s:823    .text:0000000000000528 .L69
     /tmp/ccg7MhpB.s:955    .text:0000000000000670 .L70
     /tmp/ccg7MhpB.s:1002   .text:00000000000006dc .L71
     /tmp/ccg7MhpB.s:1014   .text:00000000000006f8 .L72
     /tmp/ccg7MhpB.s:1025   .text:000000000000070c .L73
     /tmp/ccg7MhpB.s:1032   .text:0000000000000718 .L74
     /tmp/ccg7MhpB.s:1045   .text:0000000000000734 .L75
     /tmp/ccg7MhpB.s:1099   .text:00000000000007a4 .L76
     /tmp/ccg7MhpB.s:1108   .text:00000000000007b0 .L77
     /tmp/ccg7MhpB.s:1117   .text:00000000000007c0 .L78
     /tmp/ccg7MhpB.s:967    .text:0000000000000688 .L41
     /tmp/ccg7MhpB.s:882    .text:00000000000005bc .L79
     /tmp/ccg7MhpB.s:891    .text:00000000000005d0 .L80
     /tmp/ccg7MhpB.s:898    .text:00000000000005e4 .L81
     /tmp/ccg7MhpB.s:904    .text:00000000000005f4 .L37
     /tmp/ccg7MhpB.s:1157   .text:000000000000080c .L57
     /tmp/ccg7MhpB.s:1224   .text:000000000000089c .L58
     /tmp/ccg7MhpB.s:1230   .text:00000000000008a4 .L59
     /tmp/ccg7MhpB.s:1233   .text:00000000000008ac .L60
     /tmp/ccg7MhpB.s:1236   .text:00000000000008b4 .L61
GAS LISTING /tmp/ccg7MhpB.s 			page 52


     /tmp/ccg7MhpB.s:1239   .text:00000000000008bc .L62
     /tmp/ccg7MhpB.s:1242   .text:00000000000008c4 .L63
     /tmp/ccg7MhpB.s:1245   .text:00000000000008cc .L64
     /tmp/ccg7MhpB.s:1153   .text:0000000000000804 .L82
     /tmp/ccg7MhpB.s:1159   .text:0000000000000810 .L51
     /tmp/ccg7MhpB.s:1140   .text:00000000000007e8 .L50
     /tmp/ccg7MhpB.s:1174   .text:0000000000000828 .L52
     /tmp/ccg7MhpB.s:1249   .text:00000000000008d4 .L53
     /tmp/ccg7MhpB.s:1268   .text:00000000000008ec .L56
     /tmp/ccg7MhpB.s:1308   .text:000000000000091c .L83
     /tmp/ccg7MhpB.s:3914   .debug_abbrev:0000000000000000 .Ldebug_abbrev0
     /tmp/ccg7MhpB.s:6057   .debug_str:0000000000000815 .LASF160
     /tmp/ccg7MhpB.s:5873   .debug_str:000000000000031b .LASF161
     /tmp/ccg7MhpB.s:6011   .debug_str:00000000000006de .LASF162
     /tmp/ccg7MhpB.s:5      .text:0000000000000000 .Ltext0
     /tmp/ccg7MhpB.s:1445   .text:00000000000009e4 .Letext0
     /tmp/ccg7MhpB.s:5775   .debug_line:0000000000000000 .Ldebug_line0
     /tmp/ccg7MhpB.s:5955   .debug_str:000000000000051d .LASF0
     /tmp/ccg7MhpB.s:5981   .debug_str:00000000000005fb .LASF1
     /tmp/ccg7MhpB.s:5933   .debug_str:0000000000000488 .LASF2
     /tmp/ccg7MhpB.s:5899   .debug_str:00000000000003c3 .LASF4
     /tmp/ccg7MhpB.s:6035   .debug_str:0000000000000793 .LASF3
     /tmp/ccg7MhpB.s:5811   .debug_str:000000000000010c .LASF5
     /tmp/ccg7MhpB.s:5849   .debug_str:000000000000026c .LASF6
     /tmp/ccg7MhpB.s:5987   .debug_str:000000000000062e .LASF7
     /tmp/ccg7MhpB.s:5953   .debug_str:000000000000050a .LASF8
     /tmp/ccg7MhpB.s:6073   .debug_str:0000000000000952 .LASF9
     /tmp/ccg7MhpB.s:5879   .debug_str:0000000000000345 .LASF10
     /tmp/ccg7MhpB.s:6005   .debug_str:00000000000006ad .LASF11
     /tmp/ccg7MhpB.s:6063   .debug_str:00000000000008f4 .LASF12
     /tmp/ccg7MhpB.s:5815   .debug_str:000000000000011e .LASF13
     /tmp/ccg7MhpB.s:5787   .debug_str:0000000000000062 .LASF14
     /tmp/ccg7MhpB.s:5829   .debug_str:00000000000001b6 .LASF15
     /tmp/ccg7MhpB.s:6025   .debug_str:0000000000000735 .LASF16
     /tmp/ccg7MhpB.s:5841   .debug_str:000000000000020e .LASF17
     /tmp/ccg7MhpB.s:5831   .debug_str:00000000000001c2 .LASF49
     /tmp/ccg7MhpB.s:5885   .debug_str:0000000000000368 .LASF163
     /tmp/ccg7MhpB.s:5995   .debug_str:0000000000000679 .LASF18
     /tmp/ccg7MhpB.s:5947   .debug_str:00000000000004d0 .LASF19
     /tmp/ccg7MhpB.s:6003   .debug_str:00000000000006a7 .LASF20
     /tmp/ccg7MhpB.s:5943   .debug_str:00000000000004bd .LASF21
     /tmp/ccg7MhpB.s:5919   .debug_str:0000000000000420 .LASF22
     /tmp/ccg7MhpB.s:5993   .debug_str:000000000000066d .LASF23
     /tmp/ccg7MhpB.s:6105   .debug_str:0000000000000a71 .LASF24
     /tmp/ccg7MhpB.s:6037   .debug_str:00000000000007a5 .LASF25
     /tmp/ccg7MhpB.s:5973   .debug_str:00000000000005b1 .LASF26
     /tmp/ccg7MhpB.s:6053   .debug_str:00000000000007fe .LASF27
     /tmp/ccg7MhpB.s:5897   .debug_str:00000000000003b7 .LASF28
     /tmp/ccg7MhpB.s:5863   .debug_str:00000000000002bf .LASF29
     /tmp/ccg7MhpB.s:5779   .debug_str:0000000000000006 .LASF30
     /tmp/ccg7MhpB.s:6055   .debug_str:0000000000000809 .LASF31
     /tmp/ccg7MhpB.s:5965   .debug_str:000000000000056b .LASF33
     /tmp/ccg7MhpB.s:6001   .debug_str:000000000000069b .LASF35
     /tmp/ccg7MhpB.s:5869   .debug_str:00000000000002ef .LASF37
     /tmp/ccg7MhpB.s:5909   .debug_str:00000000000003ea .LASF48
     /tmp/ccg7MhpB.s:5991   .debug_str:0000000000000647 .LASF50
     /tmp/ccg7MhpB.s:6019   .debug_str:0000000000000718 .LASF164
GAS LISTING /tmp/ccg7MhpB.s 			page 53


     /tmp/ccg7MhpB.s:5921   .debug_str:000000000000042c .LASF32
     /tmp/ccg7MhpB.s:5801   .debug_str:00000000000000c5 .LASF34
     /tmp/ccg7MhpB.s:6113   .debug_str:0000000000000a9d .LASF65
     /tmp/ccg7MhpB.s:5971   .debug_str:0000000000000595 .LASF67
     /tmp/ccg7MhpB.s:6039   .debug_str:00000000000007b6 .LASF36
     /tmp/ccg7MhpB.s:5795   .debug_str:0000000000000092 .LASF38
     /tmp/ccg7MhpB.s:5805   .debug_str:00000000000000f4 .LASF39
     /tmp/ccg7MhpB.s:5903   .debug_str:00000000000003d5 .LASF40
     /tmp/ccg7MhpB.s:5967   .debug_str:0000000000000586 .LASF41
     /tmp/ccg7MhpB.s:6109   .debug_str:0000000000000a8c .LASF42
     /tmp/ccg7MhpB.s:5969   .debug_str:000000000000058b .LASF43
     /tmp/ccg7MhpB.s:5883   .debug_str:0000000000000362 .LASF44
     /tmp/ccg7MhpB.s:6081   .debug_str:0000000000000996 .LASF45
     /tmp/ccg7MhpB.s:5939   .debug_str:00000000000004a4 .LASF46
     /tmp/ccg7MhpB.s:5871   .debug_str:000000000000030c .LASF47
     /tmp/ccg7MhpB.s:5961   .debug_str:000000000000054a .LASF51
     /tmp/ccg7MhpB.s:5997   .debug_str:0000000000000681 .LASF52
     /tmp/ccg7MhpB.s:6111   .debug_str:0000000000000a98 .LASF53
     /tmp/ccg7MhpB.s:6085   .debug_str:00000000000009ac .LASF54
     /tmp/ccg7MhpB.s:5789   .debug_str:0000000000000072 .LASF61
     /tmp/ccg7MhpB.s:6027   .debug_str:000000000000074b .LASF63
     /tmp/ccg7MhpB.s:5857   .debug_str:0000000000000297 .LASF55
     /tmp/ccg7MhpB.s:5851   .debug_str:0000000000000273 .LASF56
     /tmp/ccg7MhpB.s:5817   .debug_str:000000000000012e .LASF57
     /tmp/ccg7MhpB.s:6009   .debug_str:00000000000006d5 .LASF58
     /tmp/ccg7MhpB.s:5865   .debug_str:00000000000002ce .LASF59
     /tmp/ccg7MhpB.s:5999   .debug_str:0000000000000691 .LASF60
     /tmp/ccg7MhpB.s:5893   .debug_str:0000000000000399 .LASF77
     /tmp/ccg7MhpB.s:6051   .debug_str:00000000000007f8 .LASF62
     /tmp/ccg7MhpB.s:5847   .debug_str:0000000000000256 .LASF64
     /tmp/ccg7MhpB.s:6013   .debug_str:00000000000006f2 .LASF66
     /tmp/ccg7MhpB.s:5951   .debug_str:00000000000004ea .LASF68
     /tmp/ccg7MhpB.s:5941   .debug_str:00000000000004a9 .LASF69
     /tmp/ccg7MhpB.s:5843   .debug_str:0000000000000224 .LASF70
     /tmp/ccg7MhpB.s:5905   .debug_str:00000000000003da .LASF71
     /tmp/ccg7MhpB.s:5827   .debug_str:000000000000019e .LASF72
     /tmp/ccg7MhpB.s:5867   .debug_str:00000000000002d3 .LASF165
     /tmp/ccg7MhpB.s:5809   .debug_str:0000000000000101 .LASF73
     /tmp/ccg7MhpB.s:6047   .debug_str:00000000000007d7 .LASF74
     /tmp/ccg7MhpB.s:5989   .debug_str:0000000000000641 .LASF75
     /tmp/ccg7MhpB.s:5927   .debug_str:0000000000000455 .LASF82
     /tmp/ccg7MhpB.s:5937   .debug_str:000000000000049b .LASF76
     /tmp/ccg7MhpB.s:5877   .debug_str:0000000000000332 .LASF78
     /tmp/ccg7MhpB.s:6045   .debug_str:00000000000007ce .LASF81
     /tmp/ccg7MhpB.s:6049   .debug_str:00000000000007f3 .LASF79
     /tmp/ccg7MhpB.s:6091   .debug_str:00000000000009dd .LASF80
     /tmp/ccg7MhpB.s:5783   .debug_str:0000000000000024 .LASF83
     /tmp/ccg7MhpB.s:6089   .debug_str:00000000000009d3 .LASF84
     /tmp/ccg7MhpB.s:5895   .debug_str:00000000000003ad .LASF85
     /tmp/ccg7MhpB.s:5925   .debug_str:0000000000000437 .LASF86
     /tmp/ccg7MhpB.s:6075   .debug_str:0000000000000962 .LASF87
     /tmp/ccg7MhpB.s:6087   .debug_str:00000000000009ca .LASF88
     /tmp/ccg7MhpB.s:5825   .debug_str:0000000000000186 .LASF89
     /tmp/ccg7MhpB.s:5907   .debug_str:00000000000003e2 .LASF90
     /tmp/ccg7MhpB.s:5889   .debug_str:0000000000000373 .LASF91
     /tmp/ccg7MhpB.s:6069   .debug_str:0000000000000937 .LASF92
     /tmp/ccg7MhpB.s:5785   .debug_str:0000000000000041 .LASF93
GAS LISTING /tmp/ccg7MhpB.s 			page 54


     /tmp/ccg7MhpB.s:6095   .debug_str:00000000000009f6 .LASF94
     /tmp/ccg7MhpB.s:6097   .debug_str:0000000000000a09 .LASF95
     /tmp/ccg7MhpB.s:5915   .debug_str:000000000000040a .LASF96
     /tmp/ccg7MhpB.s:5977   .debug_str:00000000000005d8 .LASF97
     /tmp/ccg7MhpB.s:5887   .debug_str:000000000000036e .LASF98
     /tmp/ccg7MhpB.s:5957   .debug_str:000000000000052a .LASF99
     /tmp/ccg7MhpB.s:6023   .debug_str:0000000000000722 .LASF100
     /tmp/ccg7MhpB.s:5891   .debug_str:000000000000038b .LASF101
     /tmp/ccg7MhpB.s:6043   .debug_str:00000000000007c0 .LASF102
     /tmp/ccg7MhpB.s:6077   .debug_str:000000000000096d .LASF103
     /tmp/ccg7MhpB.s:5881   .debug_str:0000000000000353 .LASF104
     /tmp/ccg7MhpB.s:5875   .debug_str:0000000000000328 .LASF105
     /tmp/ccg7MhpB.s:5839   .debug_str:00000000000001ff .LASF106
     /tmp/ccg7MhpB.s:5793   .debug_str:0000000000000084 .LASF107
     /tmp/ccg7MhpB.s:6059   .debug_str:00000000000008d9 .LASF108
     /tmp/ccg7MhpB.s:5823   .debug_str:0000000000000181 .LASF109
     /tmp/ccg7MhpB.s:6093   .debug_str:00000000000009e2 .LASF110
     /tmp/ccg7MhpB.s:5855   .debug_str:0000000000000292 .LASF111
     /tmp/ccg7MhpB.s:5985   .debug_str:000000000000061a .LASF112
     /tmp/ccg7MhpB.s:6101   .debug_str:0000000000000a4a .LASF113
     /tmp/ccg7MhpB.s:5833   .debug_str:00000000000001ca .LASF114
     /tmp/ccg7MhpB.s:6033   .debug_str:0000000000000782 .LASF115
     /tmp/ccg7MhpB.s:5807   .debug_str:00000000000000fa .LASF116
     /tmp/ccg7MhpB.s:6007   .debug_str:00000000000006bc .LASF117
     /tmp/ccg7MhpB.s:5819   .debug_str:0000000000000149 .LASF166
     /tmp/ccg7MhpB.s:1354   .text:0000000000000978 .LFB23
     /tmp/ccg7MhpB.s:1406   .text:00000000000009e4 .LFE23
     /tmp/ccg7MhpB.s:5791   .debug_str:000000000000007d .LASF118
     /tmp/ccg7MhpB.s:5923   .debug_str:0000000000000431 .LASF119
     /tmp/ccg7MhpB.s:1367   .text:0000000000000988 .LBB137
     /tmp/ccg7MhpB.s:1404   .text:00000000000009e4 .LBE137
     /tmp/ccg7MhpB.s:1374   .text:0000000000000998 .LVL166
     /tmp/ccg7MhpB.s:1379   .text:00000000000009a8 .LVL167
     /tmp/ccg7MhpB.s:1384   .text:00000000000009b8 .LVL168
     /tmp/ccg7MhpB.s:1389   .text:00000000000009c4 .LVL169
     /tmp/ccg7MhpB.s:1394   .text:00000000000009d4 .LVL170
     /tmp/ccg7MhpB.s:1398   .text:00000000000009dc .LVL171
     /tmp/ccg7MhpB.s:1402   .text:00000000000009e4 .LVL172
     /tmp/ccg7MhpB.s:5821   .debug_str:0000000000000167 .LASF120
     /tmp/ccg7MhpB.s:6067   .debug_str:0000000000000918 .LASF121
     /tmp/ccg7MhpB.s:600    .text:0000000000000384 .LFB22
     /tmp/ccg7MhpB.s:1348   .text:0000000000000978 .LFE22
     /tmp/ccg7MhpB.s:5045   .debug_loc:0000000000000000 .LLST14
     /tmp/ccg7MhpB.s:5056   .debug_loc:0000000000000036 .LLST15
     /tmp/ccg7MhpB.s:5853   .debug_str:000000000000028d .LASF122
     /tmp/ccg7MhpB.s:5079   .debug_loc:00000000000000a5 .LLST16
     /tmp/ccg7MhpB.s:5813   .debug_str:0000000000000113 .LASF123
     /tmp/ccg7MhpB.s:5090   .debug_loc:00000000000000db .LLST17
     /tmp/ccg7MhpB.s:5835   .debug_str:00000000000001e9 .LASF124
     /tmp/ccg7MhpB.s:5101   .debug_loc:0000000000000111 .LLST18
     /tmp/ccg7MhpB.s:5837   .debug_str:00000000000001f4 .LASF125
     /tmp/ccg7MhpB.s:5112   .debug_loc:0000000000000147 .LLST19
     /tmp/ccg7MhpB.s:6041   .debug_str:00000000000007bb .LASF126
     /tmp/ccg7MhpB.s:5123   .debug_loc:000000000000017d .LLST20
     /tmp/ccg7MhpB.s:6065   .debug_str:0000000000000903 .LASF127
     /tmp/ccg7MhpB.s:5210   .debug_loc:000000000000031c .LLST21
     /tmp/ccg7MhpB.s:5799   .debug_str:00000000000000b0 .LASF128
GAS LISTING /tmp/ccg7MhpB.s 			page 55


     /tmp/ccg7MhpB.s:5221   .debug_loc:0000000000000352 .LLST22
     /tmp/ccg7MhpB.s:6103   .debug_str:0000000000000a59 .LASF129
     /tmp/ccg7MhpB.s:5248   .debug_loc:00000000000003a7 .LLST23
     /tmp/ccg7MhpB.s:5859   .debug_str:00000000000002a2 .LASF130
     /tmp/ccg7MhpB.s:5275   .debug_loc:00000000000003fc .LLST24
     /tmp/ccg7MhpB.s:678    .text:00000000000003e8 .LBB108
     /tmp/ccg7MhpB.s:5749   .debug_ranges:0000000000000000 .Ldebug_ranges0
     /tmp/ccg7MhpB.s:5290   .debug_loc:0000000000000445 .LLST25
     /tmp/ccg7MhpB.s:5305   .debug_loc:000000000000047f .LLST26
     /tmp/ccg7MhpB.s:5320   .debug_loc:00000000000004c7 .LLST27
     /tmp/ccg7MhpB.s:794    .text:00000000000004dc .LVL75
     /tmp/ccg7MhpB.s:799    .text:00000000000004ec .LVL76
     /tmp/ccg7MhpB.s:804    .text:00000000000004fc .LVL77
     /tmp/ccg7MhpB.s:809    .text:0000000000000508 .LVL78
     /tmp/ccg7MhpB.s:814    .text:0000000000000518 .LVL79
     /tmp/ccg7MhpB.s:818    .text:0000000000000520 .LVL80
     /tmp/ccg7MhpB.s:822    .text:0000000000000528 .LVL81
     /tmp/ccg7MhpB.s:747    .text:0000000000000470 .LBB111
     /tmp/ccg7MhpB.s:786    .text:00000000000004cc .LBE111
     /tmp/ccg7MhpB.s:5339   .debug_loc:0000000000000505 .LLST28
     /tmp/ccg7MhpB.s:5348   .debug_loc:000000000000052a .LLST29
     /tmp/ccg7MhpB.s:5357   .debug_loc:0000000000000556 .LLST30
     /tmp/ccg7MhpB.s:755    .text:0000000000000480 .LVL67
     /tmp/ccg7MhpB.s:760    .text:0000000000000490 .LVL68
     /tmp/ccg7MhpB.s:765    .text:00000000000004a0 .LVL69
     /tmp/ccg7MhpB.s:770    .text:00000000000004ac .LVL70
     /tmp/ccg7MhpB.s:775    .text:00000000000004bc .LVL71
     /tmp/ccg7MhpB.s:779    .text:00000000000004c4 .LVL72
     /tmp/ccg7MhpB.s:783    .text:00000000000004cc .LVL73
     /tmp/ccg7MhpB.s:846    .text:0000000000000560 .LBB114
     /tmp/ccg7MhpB.s:884    .text:00000000000005bc .LBE114
     /tmp/ccg7MhpB.s:5365   .debug_loc:000000000000057a .LLST31
     /tmp/ccg7MhpB.s:5374   .debug_loc:000000000000059f .LLST32
     /tmp/ccg7MhpB.s:5383   .debug_loc:00000000000005cb .LLST33
     /tmp/ccg7MhpB.s:853    .text:0000000000000570 .LVL84
     /tmp/ccg7MhpB.s:858    .text:0000000000000580 .LVL85
     /tmp/ccg7MhpB.s:863    .text:0000000000000590 .LVL86
     /tmp/ccg7MhpB.s:868    .text:000000000000059c .LVL87
     /tmp/ccg7MhpB.s:873    .text:00000000000005ac .LVL88
     /tmp/ccg7MhpB.s:877    .text:00000000000005b4 .LVL89
     /tmp/ccg7MhpB.s:881    .text:00000000000005bc .LVL90
     /tmp/ccg7MhpB.s:919    .text:0000000000000614 .LBB116
     /tmp/ccg7MhpB.s:957    .text:0000000000000670 .LBE116
     /tmp/ccg7MhpB.s:5391   .debug_loc:00000000000005ef .LLST34
     /tmp/ccg7MhpB.s:5400   .debug_loc:0000000000000614 .LLST35
     /tmp/ccg7MhpB.s:5409   .debug_loc:0000000000000640 .LLST36
     /tmp/ccg7MhpB.s:926    .text:0000000000000624 .LVL97
     /tmp/ccg7MhpB.s:931    .text:0000000000000634 .LVL98
     /tmp/ccg7MhpB.s:936    .text:0000000000000644 .LVL99
     /tmp/ccg7MhpB.s:941    .text:0000000000000650 .LVL100
     /tmp/ccg7MhpB.s:946    .text:0000000000000660 .LVL101
     /tmp/ccg7MhpB.s:950    .text:0000000000000668 .LVL102
     /tmp/ccg7MhpB.s:954    .text:0000000000000670 .LVL103
     /tmp/ccg7MhpB.s:1061   .text:0000000000000744 .LBB118
     /tmp/ccg7MhpB.s:1101   .text:00000000000007a4 .LBE118
     /tmp/ccg7MhpB.s:5417   .debug_loc:0000000000000664 .LLST37
     /tmp/ccg7MhpB.s:5426   .debug_loc:0000000000000689 .LLST38
GAS LISTING /tmp/ccg7MhpB.s 			page 56


     /tmp/ccg7MhpB.s:5435   .debug_loc:00000000000006b5 .LLST39
     /tmp/ccg7MhpB.s:1070   .text:0000000000000758 .LVL121
     /tmp/ccg7MhpB.s:1075   .text:0000000000000768 .LVL122
     /tmp/ccg7MhpB.s:1080   .text:0000000000000778 .LVL123
     /tmp/ccg7MhpB.s:1085   .text:0000000000000784 .LVL124
     /tmp/ccg7MhpB.s:1090   .text:0000000000000794 .LVL125
     /tmp/ccg7MhpB.s:1094   .text:000000000000079c .LVL126
     /tmp/ccg7MhpB.s:1098   .text:00000000000007a4 .LVL127
     /tmp/ccg7MhpB.s:1119   .text:00000000000007c0 .LBB120
     /tmp/ccg7MhpB.s:1143   .text:00000000000007e8 .LBE120
     /tmp/ccg7MhpB.s:1126   .text:00000000000007cc .LBB122
     /tmp/ccg7MhpB.s:1136   .text:00000000000007dc .LBE122
     /tmp/ccg7MhpB.s:5446   .debug_loc:00000000000006dc .LLST40
     /tmp/ccg7MhpB.s:1188   .text:0000000000000840 .LBB125
     /tmp/ccg7MhpB.s:1226   .text:000000000000089c .LBE125
     /tmp/ccg7MhpB.s:5455   .debug_loc:0000000000000708 .LLST41
     /tmp/ccg7MhpB.s:5464   .debug_loc:000000000000072d .LLST42
     /tmp/ccg7MhpB.s:5473   .debug_loc:0000000000000759 .LLST43
     /tmp/ccg7MhpB.s:1195   .text:0000000000000850 .LVL140
     /tmp/ccg7MhpB.s:1200   .text:0000000000000860 .LVL141
     /tmp/ccg7MhpB.s:1205   .text:0000000000000870 .LVL142
     /tmp/ccg7MhpB.s:1210   .text:000000000000087c .LVL143
     /tmp/ccg7MhpB.s:1215   .text:000000000000088c .LVL144
     /tmp/ccg7MhpB.s:1219   .text:0000000000000894 .LVL145
     /tmp/ccg7MhpB.s:1223   .text:000000000000089c .LVL146
     /tmp/ccg7MhpB.s:1254   .text:00000000000008dc .LBB127
     /tmp/ccg7MhpB.s:5481   .debug_loc:000000000000077d .LLST44
     /tmp/ccg7MhpB.s:5496   .debug_loc:00000000000007b7 .LLST45
     /tmp/ccg7MhpB.s:5511   .debug_loc:00000000000007ff .LLST46
     /tmp/ccg7MhpB.s:1316   .text:000000000000092c .LVL158
     /tmp/ccg7MhpB.s:1321   .text:000000000000093c .LVL159
     /tmp/ccg7MhpB.s:1326   .text:000000000000094c .LVL160
     /tmp/ccg7MhpB.s:1331   .text:0000000000000958 .LVL161
     /tmp/ccg7MhpB.s:1336   .text:0000000000000968 .LVL162
     /tmp/ccg7MhpB.s:1340   .text:0000000000000970 .LVL163
     /tmp/ccg7MhpB.s:1344   .text:0000000000000978 .LVL164
     /tmp/ccg7MhpB.s:672    .text:00000000000003d4 .LVL59
     /tmp/ccg7MhpB.s:705    .text:000000000000040c .LVL63
     /tmp/ccg7MhpB.s:830    .text:0000000000000538 .LVL82
     /tmp/ccg7MhpB.s:844    .text:0000000000000560 .LVL83
     /tmp/ccg7MhpB.s:889    .text:00000000000005cc .LVL91
     /tmp/ccg7MhpB.s:896    .text:00000000000005e0 .LVL92
     /tmp/ccg7MhpB.s:903    .text:00000000000005f4 .LVL93
     /tmp/ccg7MhpB.s:908    .text:00000000000005fc .LVL94
     /tmp/ccg7MhpB.s:913    .text:000000000000060c .LVL95
     /tmp/ccg7MhpB.s:917    .text:0000000000000614 .LVL96
     /tmp/ccg7MhpB.s:961    .text:0000000000000678 .LVL104
     /tmp/ccg7MhpB.s:964    .text:0000000000000684 .LVL105
     /tmp/ccg7MhpB.s:1006   .text:00000000000006e4 .LVL107
     /tmp/ccg7MhpB.s:1009   .text:00000000000006f0 .LVL108
     /tmp/ccg7MhpB.s:1020   .text:0000000000000704 .LVL111
     /tmp/ccg7MhpB.s:1029   .text:0000000000000714 .LVL113
     /tmp/ccg7MhpB.s:1040   .text:000000000000072c .LVL116
     /tmp/ccg7MhpB.s:1056   .text:0000000000000740 .LVL118
     /tmp/ccg7MhpB.s:1105   .text:00000000000007ac .LVL128
     /tmp/ccg7MhpB.s:1114   .text:00000000000007bc .LVL131
     /tmp/ccg7MhpB.s:1149   .text:00000000000007fc .LVL136
GAS LISTING /tmp/ccg7MhpB.s 			page 57


     /tmp/ccg7MhpB.s:5959   .debug_str:0000000000000533 .LASF131
     /tmp/ccg7MhpB.s:5803   .debug_str:00000000000000d8 .LASF132
     /tmp/ccg7MhpB.s:373    .text:0000000000000214 .LFB21
     /tmp/ccg7MhpB.s:574    .text:0000000000000384 .LFE21
     /tmp/ccg7MhpB.s:5530   .debug_loc:000000000000083d .LLST8
     /tmp/ccg7MhpB.s:5541   .debug_loc:0000000000000873 .LLST9
     /tmp/ccg7MhpB.s:413    .text:000000000000024c .LBB72
     /tmp/ccg7MhpB.s:5552   .debug_loc:00000000000008a9 .LLST10
     /tmp/ccg7MhpB.s:5567   .debug_loc:00000000000008e3 .LLST11
     /tmp/ccg7MhpB.s:5582   .debug_loc:000000000000092b .LLST12
     /tmp/ccg7MhpB.s:491    .text:00000000000002c8 .LVL37
     /tmp/ccg7MhpB.s:496    .text:00000000000002d8 .LVL38
     /tmp/ccg7MhpB.s:501    .text:00000000000002e8 .LVL39
     /tmp/ccg7MhpB.s:506    .text:00000000000002f4 .LVL40
     /tmp/ccg7MhpB.s:511    .text:0000000000000304 .LVL41
     /tmp/ccg7MhpB.s:515    .text:000000000000030c .LVL42
     /tmp/ccg7MhpB.s:519    .text:0000000000000314 .LVL43
     /tmp/ccg7MhpB.s:429    .text:0000000000000264 .LBB75
     /tmp/ccg7MhpB.s:455    .text:0000000000000290 .LBE75
     /tmp/ccg7MhpB.s:437    .text:0000000000000270 .LBB77
     /tmp/ccg7MhpB.s:448    .text:0000000000000284 .LBE77
     /tmp/ccg7MhpB.s:5607   .debug_loc:000000000000096f .LLST13
     /tmp/ccg7MhpB.s:535    .text:0000000000000328 .LBB81
     /tmp/ccg7MhpB.s:572    .text:0000000000000384 .LBE81
     /tmp/ccg7MhpB.s:542    .text:0000000000000338 .LVL47
     /tmp/ccg7MhpB.s:547    .text:0000000000000348 .LVL48
     /tmp/ccg7MhpB.s:552    .text:0000000000000358 .LVL49
     /tmp/ccg7MhpB.s:557    .text:0000000000000364 .LVL50
     /tmp/ccg7MhpB.s:562    .text:0000000000000374 .LVL51
     /tmp/ccg7MhpB.s:566    .text:000000000000037c .LVL52
     /tmp/ccg7MhpB.s:570    .text:0000000000000384 .LVL53
     /tmp/ccg7MhpB.s:408    .text:000000000000023c .LVL28
     /tmp/ccg7MhpB.s:459    .text:00000000000002a0 .LVL33
     /tmp/ccg7MhpB.s:526    .text:000000000000031c .LVL44
     /tmp/ccg7MhpB.s:530    .text:0000000000000324 .LVL45
     /tmp/ccg7MhpB.s:6061   .debug_str:00000000000008e7 .LASF133
     /tmp/ccg7MhpB.s:5975   .debug_str:00000000000005c6 .LASF134
     /tmp/ccg7MhpB.s:139    .text:00000000000000e4 .LFB20
     /tmp/ccg7MhpB.s:353    .text:0000000000000214 .LFE20
     /tmp/ccg7MhpB.s:6021   .debug_str:000000000000071d .LASF135
     /tmp/ccg7MhpB.s:5616   .debug_loc:000000000000099b .LLST1
     /tmp/ccg7MhpB.s:5945   .debug_str:00000000000004ca .LASF136
     /tmp/ccg7MhpB.s:5640   .debug_loc:0000000000000a0b .LLST3
     /tmp/ccg7MhpB.s:5983   .debug_str:000000000000060e .LASF137
     /tmp/ccg7MhpB.s:5668   .debug_loc:0000000000000a8e .LLST4
     /tmp/ccg7MhpB.s:207    .text:0000000000000140 .LBB47
     /tmp/ccg7MhpB.s:231    .text:0000000000000168 .LBE47
     /tmp/ccg7MhpB.s:214    .text:000000000000014c .LBB49
     /tmp/ccg7MhpB.s:224    .text:000000000000015c .LBE49
     /tmp/ccg7MhpB.s:5686   .debug_loc:0000000000000ada .LLST5
     /tmp/ccg7MhpB.s:255    .text:0000000000000184 .LBB52
     /tmp/ccg7MhpB.s:279    .text:00000000000001ac .LBE52
     /tmp/ccg7MhpB.s:262    .text:0000000000000190 .LBB54
     /tmp/ccg7MhpB.s:272    .text:00000000000001a0 .LBE54
     /tmp/ccg7MhpB.s:5695   .debug_loc:0000000000000b06 .LLST6
     /tmp/ccg7MhpB.s:309    .text:00000000000001d0 .LBB57
     /tmp/ccg7MhpB.s:332    .text:00000000000001f0 .LBE57
GAS LISTING /tmp/ccg7MhpB.s 			page 58


     /tmp/ccg7MhpB.s:316    .text:00000000000001dc .LBB59
     /tmp/ccg7MhpB.s:324    .text:00000000000001e4 .LBE59
     /tmp/ccg7MhpB.s:5704   .debug_loc:0000000000000b32 .LLST7
     /tmp/ccg7MhpB.s:247    .text:0000000000000184 .LVL16
     /tmp/ccg7MhpB.s:153    .text:00000000000000f8 .LBB41
     /tmp/ccg7MhpB.s:178    .text:0000000000000120 .LBE41
     /tmp/ccg7MhpB.s:161    .text:0000000000000104 .LBB43
     /tmp/ccg7MhpB.s:171    .text:0000000000000114 .LBE43
     /tmp/ccg7MhpB.s:5713   .debug_loc:0000000000000b5e .LLST2
     /tmp/ccg7MhpB.s:6029   .debug_str:0000000000000765 .LASF138
     /tmp/ccg7MhpB.s:5979   .debug_str:00000000000005e9 .LASF139
     /tmp/ccg7MhpB.s:51     .text:0000000000000028 .LFB19
     /tmp/ccg7MhpB.s:133    .text:00000000000000e4 .LFE19
     /tmp/ccg7MhpB.s:104    .text:0000000000000098 .LVL2
     /tmp/ccg7MhpB.s:111    .text:00000000000000ac .LVL3
     /tmp/ccg7MhpB.s:120    .text:00000000000000c8 .LVL4
     /tmp/ccg7MhpB.s:125    .text:00000000000000d8 .LVL5
     /tmp/ccg7MhpB.s:129    .text:00000000000000e0 .LVL6
     /tmp/ccg7MhpB.s:6083   .debug_str:00000000000009a3 .LASF167
     /tmp/ccg7MhpB.s:5845   .debug_str:0000000000000249 .LASF168
     /tmp/ccg7MhpB.s:10     .text:0000000000000000 .LFB18
     /tmp/ccg7MhpB.s:37     .text:0000000000000028 .LFE18
     /tmp/ccg7MhpB.s:5722   .debug_loc:0000000000000b8a .LLST0
     /tmp/ccg7MhpB.s:26     .text:0000000000000018 .LVL1
     /tmp/ccg7MhpB.s:6015   .debug_str:0000000000000701 .LASF140
     /tmp/ccg7MhpB.s:5929   .debug_str:0000000000000467 .LASF141
     /tmp/ccg7MhpB.s:5963   .debug_str:0000000000000562 .LASF143
     /tmp/ccg7MhpB.s:6099   .debug_str:0000000000000a2c .LASF144
     /tmp/ccg7MhpB.s:6017   .debug_str:0000000000000706 .LASF142
     /tmp/ccg7MhpB.s:6079   .debug_str:0000000000000977 .LASF145
     /tmp/ccg7MhpB.s:5911   .debug_str:00000000000003f7 .LASF146
     /tmp/ccg7MhpB.s:6031   .debug_str:0000000000000772 .LASF147
     /tmp/ccg7MhpB.s:5777   .debug_str:0000000000000000 .LASF148
     /tmp/ccg7MhpB.s:5935   .debug_str:0000000000000496 .LASF149
     /tmp/ccg7MhpB.s:5861   .debug_str:00000000000002ba .LASF150
     /tmp/ccg7MhpB.s:6107   .debug_str:0000000000000a7c .LASF151
     /tmp/ccg7MhpB.s:6071   .debug_str:0000000000000948 .LASF153
     /tmp/ccg7MhpB.s:5901   .debug_str:00000000000003ca .LASF152
     /tmp/ccg7MhpB.s:5781   .debug_str:000000000000001d .LASF154
     /tmp/ccg7MhpB.s:5931   .debug_str:0000000000000478 .LASF155
     /tmp/ccg7MhpB.s:5797   .debug_str:00000000000000a5 .LASF156
     /tmp/ccg7MhpB.s:5949   .debug_str:00000000000004da .LASF157
     /tmp/ccg7MhpB.s:5913   .debug_str:00000000000003ff .LASF158
     /tmp/ccg7MhpB.s:5917   .debug_str:0000000000000418 .LASF159
     /tmp/ccg7MhpB.s:632    .text:00000000000003b4 .LVL54
     /tmp/ccg7MhpB.s:698    .text:00000000000003fc .LVL62
     /tmp/ccg7MhpB.s:1291   .text:0000000000000904 .LVL152
     /tmp/ccg7MhpB.s:1307   .text:000000000000091c .LVL157
     /tmp/ccg7MhpB.s:645    .text:00000000000003bc .LVL55
     /tmp/ccg7MhpB.s:1285   .text:00000000000008fc .LVL150
     /tmp/ccg7MhpB.s:651    .text:00000000000003c0 .LVL56
     /tmp/ccg7MhpB.s:1294   .text:0000000000000908 .LVL153
     /tmp/ccg7MhpB.s:657    .text:00000000000003c4 .LVL57
     /tmp/ccg7MhpB.s:1297   .text:000000000000090c .LVL154
     /tmp/ccg7MhpB.s:663    .text:00000000000003c8 .LVL58
     /tmp/ccg7MhpB.s:1300   .text:0000000000000910 .LVL155
     /tmp/ccg7MhpB.s:707    .text:0000000000000410 .LVL64
GAS LISTING /tmp/ccg7MhpB.s 			page 59


     /tmp/ccg7MhpB.s:753    .text:0000000000000478 .LVL66
     /tmp/ccg7MhpB.s:1001   .text:00000000000006dc .LVL106
     /tmp/ccg7MhpB.s:1013   .text:00000000000006f8 .LVL109
     /tmp/ccg7MhpB.s:1018   .text:00000000000006fc .LVL110
     /tmp/ccg7MhpB.s:1024   .text:000000000000070c .LVL112
     /tmp/ccg7MhpB.s:1031   .text:0000000000000718 .LVL114
     /tmp/ccg7MhpB.s:1038   .text:0000000000000724 .LVL115
     /tmp/ccg7MhpB.s:1044   .text:0000000000000734 .LVL117
     /tmp/ccg7MhpB.s:1107   .text:00000000000007b0 .LVL129
     /tmp/ccg7MhpB.s:1112   .text:00000000000007b4 .LVL130
     /tmp/ccg7MhpB.s:1116   .text:00000000000007c0 .LVL132
     /tmp/ccg7MhpB.s:1147   .text:00000000000007f4 .LVL135
     /tmp/ccg7MhpB.s:1288   .text:0000000000000900 .LVL151
     /tmp/ccg7MhpB.s:1160   .text:0000000000000810 .LVL137
     /tmp/ccg7MhpB.s:1248   .text:00000000000008d4 .LVL147
     /tmp/ccg7MhpB.s:1175   .text:0000000000000828 .LVL138
     /tmp/ccg7MhpB.s:1303   .text:0000000000000914 .LVL156
     /tmp/ccg7MhpB.s:677    .text:00000000000003e8 .LVL60
     /tmp/ccg7MhpB.s:685    .text:00000000000003f4 .LVL61
     /tmp/ccg7MhpB.s:792    .text:00000000000004d4 .LVL74
     /tmp/ccg7MhpB.s:746    .text:0000000000000470 .LVL65
     /tmp/ccg7MhpB.s:1060   .text:0000000000000744 .LVL119
     /tmp/ccg7MhpB.s:1068   .text:0000000000000750 .LVL120
     /tmp/ccg7MhpB.s:1125   .text:00000000000007cc .LVL133
     /tmp/ccg7MhpB.s:1133   .text:00000000000007dc .LVL134
     /tmp/ccg7MhpB.s:1187   .text:0000000000000840 .LVL139
     /tmp/ccg7MhpB.s:1253   .text:00000000000008dc .LVL148
     /tmp/ccg7MhpB.s:1259   .text:00000000000008e0 .LVL149
     /tmp/ccg7MhpB.s:398    .text:0000000000000230 .LVL27
     /tmp/ccg7MhpB.s:418    .text:0000000000000254 .LVL30
     /tmp/ccg7MhpB.s:481    .text:00000000000002b8 .LVL35
     /tmp/ccg7MhpB.s:477    .text:00000000000002b0 .LVL34
     /tmp/ccg7MhpB.s:412    .text:000000000000024c .LVL29
     /tmp/ccg7MhpB.s:489    .text:00000000000002c0 .LVL36
     /tmp/ccg7MhpB.s:436    .text:0000000000000270 .LVL31
     /tmp/ccg7MhpB.s:445    .text:0000000000000284 .LVL32
     /tmp/ccg7MhpB.s:181    .text:0000000000000128 .LVL9
     /tmp/ccg7MhpB.s:203    .text:0000000000000140 .LVL12
     /tmp/ccg7MhpB.s:282    .text:00000000000001b4 .LVL19
     /tmp/ccg7MhpB.s:298    .text:00000000000001c4 .LVL21
     /tmp/ccg7MhpB.s:304    .text:00000000000001cc .LVL22
     /tmp/ccg7MhpB.s:241    .text:000000000000017c .LVL15
     /tmp/ccg7MhpB.s:287    .text:00000000000001b8 .LVL20
     /tmp/ccg7MhpB.s:328    .text:00000000000001f0 .LVL25
     /tmp/ccg7MhpB.s:338    .text:0000000000000200 .LVL26
     /tmp/ccg7MhpB.s:213    .text:000000000000014c .LVL13
     /tmp/ccg7MhpB.s:221    .text:000000000000015c .LVL14
     /tmp/ccg7MhpB.s:261    .text:0000000000000190 .LVL17
     /tmp/ccg7MhpB.s:269    .text:00000000000001a0 .LVL18
     /tmp/ccg7MhpB.s:315    .text:00000000000001dc .LVL23
     /tmp/ccg7MhpB.s:321    .text:00000000000001e4 .LVL24
     /tmp/ccg7MhpB.s:160    .text:0000000000000104 .LVL7
     /tmp/ccg7MhpB.s:168    .text:0000000000000114 .LVL8
     /tmp/ccg7MhpB.s:14     .text:0000000000000000 .LVL0
     /tmp/ccg7MhpB.s:1451   .debug_info:0000000000000000 .Ldebug_info0
     /tmp/ccg7MhpB.s:205    .text:0000000000000140 .LBB46
     /tmp/ccg7MhpB.s:251    .text:0000000000000184 .LBE46
GAS LISTING /tmp/ccg7MhpB.s 			page 60


     /tmp/ccg7MhpB.s:253    .text:0000000000000184 .LBB62
     /tmp/ccg7MhpB.s:340    .text:0000000000000200 .LBE62
     /tmp/ccg7MhpB.s:421    .text:0000000000000254 .LBE72
     /tmp/ccg7MhpB.s:484    .text:00000000000002b8 .LBB80
     /tmp/ccg7MhpB.s:522    .text:0000000000000314 .LBE80
     /tmp/ccg7MhpB.s:687    .text:00000000000003f4 .LBE108
     /tmp/ccg7MhpB.s:787    .text:00000000000004cc .LBB113
     /tmp/ccg7MhpB.s:825    .text:0000000000000528 .LBE113
     /tmp/ccg7MhpB.s:1261   .text:00000000000008e0 .LBE127
     /tmp/ccg7MhpB.s:1310   .text:000000000000091c .LBB130
     /tmp/ccg7MhpB.s:1346   .text:0000000000000978 .LBE130

UNDEFINED SYMBOLS
_Z3fibm
_ZN7IThread16timeSliceCounterE
_ZN9Scheduler19dispatchUserVersionEv
_Z9putStringPKc
_Z6putInti
_Z10putNewlinev
_ZN9Scheduler3putEP7IThread
_ZN7IThread11getPRunningEv
_ZN7IThread10pRunningSpE
_ZN8IConsole14consoleHandlerEv
_Z10stopKernelv
_ZN8MemAlloc3getEv
_ZN8MemAlloc8allocMemEm
_ZN8MemAlloc7freeMemEPv
_ZN7IThread12switchToUserEv
_ZN7IThread12createThreadEPmPFvPvES1_
_ZN7IThread4exitEv
_ZN7IThread4joinEm
_ZN9Scheduler5sleepEm
