GAS LISTING /tmp/ccq1AqqY.s 			page 1


   1              		.file	"trap.cpp"
   2              		.option pic
   3              		.option norelax
   4              		.text
   5              	.Ltext0:
   6              		.align	2
   7              		.globl	_Z8testCallm
   9              	_Z8testCallm:
  10              	.LFB18:
  11              		.file 1 "src/trap.cpp"
   1:src/trap.cpp  **** #include "../h/thread.h"
   2:src/trap.cpp  **** #include "../h/scheduler.h"
   3:src/trap.cpp  **** #include "../h/alloc.h"
   4:src/trap.cpp  **** #include "../h/0_console.h"
   5:src/trap.cpp  **** 
   6:src/trap.cpp  **** uint64 gTimer = 0;
   7:src/trap.cpp  **** 
   8:src/trap.cpp  **** uint64 fib(uint64 n);
   9:src/trap.cpp  **** 
  10:src/trap.cpp  **** uint64 testCall(uint64 n)
  11:src/trap.cpp  **** {
  12              		.loc 1 11 1
  13              		.cfi_startproc
  14              	.LVL0:
  15 0000 130101FF 		addi	sp,sp,-16
  16              		.cfi_def_cfa_offset 16
  17 0004 23341100 		sd	ra,8(sp)
  18 0008 23308100 		sd	s0,0(sp)
  19              		.cfi_offset 1, -8
  20              		.cfi_offset 8, -16
  21 000c 13040101 		addi	s0,sp,16
  22              		.cfi_def_cfa 8, 0
  12:src/trap.cpp  ****     return fib(n);
  23              		.loc 1 12 5
  24              		.loc 1 12 15 is_stmt 0
  25 0010 97000000 		call	_Z3fibm@plt
  25      E7800000 
  26              	.LVL1:
  13:src/trap.cpp  **** }
  27              		.loc 1 13 1
  28 0018 83308100 		ld	ra,8(sp)
  29              		.cfi_restore 1
  30 001c 03340100 		ld	s0,0(sp)
  31              		.cfi_restore 8
  32              		.cfi_def_cfa 2, 16
  33 0020 13010101 		addi	sp,sp,16
  34              		.cfi_def_cfa_offset 0
  35 0024 67800000 		jr	ra
  36              		.cfi_endproc
  37              	.LFE18:
  39              		.section	.rodata.str1.8,"aMS",@progbits,1
  40              		.align	3
  41              	.LC0:
  42 0000 3D3D3D3D 		.string	"===================== ASSERT file: "
  42      3D3D3D3D 
  42      3D3D3D3D 
  42      3D3D3D3D 
GAS LISTING /tmp/ccq1AqqY.s 			page 2


  42      3D3D3D3D 
  43 0024 00000000 		.align	3
  44              	.LC1:
  45 0028 7372632F 		.string	"src/trap.cpp"
  45      74726170 
  45      2E637070 
  45      00
  46 0035 000000   		.align	3
  47              	.LC2:
  48 0038 20202020 		.string	"    line: "
  48      6C696E65 
  48      3A2000
  49 0043 00000000 		.align	3
  49      00
  50              	.LC3:
  51 0048 2020203D 		.string	"   ==========================="
  51      3D3D3D3D 
  51      3D3D3D3D 
  51      3D3D3D3D 
  51      3D3D3D3D 
  52              		.text
  53              		.align	2
  54              		.globl	_Z24cConsoleInterruptRoutinev
  56              	_Z24cConsoleInterruptRoutinev:
  57              	.LFB19:
  14:src/trap.cpp  **** 
  15:src/trap.cpp  **** void  cConsoleInterruptRoutine()
  16:src/trap.cpp  **** {
  58              		.loc 1 16 1 is_stmt 1
  59              		.cfi_startproc
  60 0028 130101FE 		addi	sp,sp,-32
  61              		.cfi_def_cfa_offset 32
  62 002c 233C1100 		sd	ra,24(sp)
  63 0030 23388100 		sd	s0,16(sp)
  64 0034 23349100 		sd	s1,8(sp)
  65              		.cfi_offset 1, -8
  66              		.cfi_offset 8, -16
  67              		.cfi_offset 9, -24
  68 0038 13040102 		addi	s0,sp,32
  69              		.cfi_def_cfa 8, 0
  17:src/trap.cpp  ****     uint64 scause;
  70              		.loc 1 17 5
  18:src/trap.cpp  ****     __asm__ volatile ("csrr %[name], scause" : [name] "=r"(scause));
  71              		.loc 1 18 5
  72              		.loc 1 18 68 is_stmt 0
  73              	#APP
  74              	# 18 "src/trap.cpp" 1
  19              	
  75              		csrr a5, scause
  76              	# 0 "" 2
  77              	.LVL2:
  20:src/trap.cpp  **** //    int isExternal = (scause & (0x1UL << 63)) != 0;
  21:src/trap.cpp  ****     int cause = scause & (~(1UL << 63));
  78              		.loc 1 21 5 is_stmt 1
  79              		.loc 1 21 9 is_stmt 0
  80              	#NO_APP
  81 0040 9B840700 		sext.w	s1,a5
GAS LISTING /tmp/ccq1AqqY.s 			page 3


  82              	.LVL3:
  22:src/trap.cpp  **** 
  23:src/trap.cpp  **** 
  24:src/trap.cpp  ****     assert(&(Thread::getPRunning()->sp) == Thread::pRunningSp);
  83              		.loc 1 24 5 is_stmt 1
  84 0044 97000000 		call	_ZN6Thread11getPRunningEv@plt
  84      E7800000 
  85              	.LVL4:
  86 004c 13058504 		addi	a0,a0,72
  87 0050 97070000 		la	a5,_ZN6Thread10pRunningSpE
  87      83B70700 
  88 0058 83B70700 		ld	a5,0(a5)
  89              	.LVL5:
  90              	.LBB6:
  91              	.LBB7:
  92              		.file 2 "src/../h/../h/my_console.h"
   1:src/../h/../h/my_console.h **** #pragma once
   2:src/../h/../h/my_console.h **** 
   3:src/../h/../h/my_console.h **** #include "../h/risc.h"
   4:src/../h/../h/my_console.h **** 
   5:src/../h/../h/my_console.h **** #include "../lib/console.h"
   6:src/../h/../h/my_console.h **** #include "../lib/hw.h"
   7:src/../h/../h/my_console.h **** 
   8:src/../h/../h/my_console.h **** #define __DEBUG_MODE
   9:src/../h/../h/my_console.h **** 
  10:src/../h/../h/my_console.h **** 
  11:src/../h/../h/my_console.h **** void putString(const char* s);
  12:src/../h/../h/my_console.h **** void putInt(int n);
  13:src/../h/../h/my_console.h **** void putNewline();
  14:src/../h/../h/my_console.h **** void putU64(uint64 n);
  15:src/../h/../h/my_console.h **** void putBinary(uint64 n);
  16:src/../h/../h/my_console.h **** 
  17:src/../h/../h/my_console.h **** [[noreturn]] void stopKernel();
  18:src/../h/../h/my_console.h **** 
  19:src/../h/../h/my_console.h **** inline void _assert(bool valid, const char* file, int line) // MUST be inline
  20:src/../h/../h/my_console.h **** {
  21:src/../h/../h/my_console.h ****     if(valid)
  93              		.loc 2 21 5
  94 005c 6398A702 		bne	a5,a0,.L7
  22:src/../h/../h/my_console.h ****         return;
  95              		.loc 2 22 9
  96              	.LVL6:
  97              	.LBE7:
  98              	.LBE6:
  25:src/trap.cpp  **** 
  26:src/trap.cpp  ****     assert(cause == 9);
  99              		.loc 1 26 5
 100 0060 938774FF 		addi	a5,s1,-9
 101              	.LVL7:
 102              	.LBB9:
 103              	.LBB10:
  21:src/../h/../h/my_console.h ****         return;
 104              		.loc 2 21 5
 105 0064 63920708 		bnez	a5,.L8
 106              		.loc 2 22 9
 107              	.LVL8:
 108              	.LBE10:
GAS LISTING /tmp/ccq1AqqY.s 			page 4


 109              	.LBE9:
  27:src/trap.cpp  **** 
  28:src/trap.cpp  ****     __asm__ volatile ("csrc sip, 0xA"); // clears the 9th bit in register sip. (the bit signifies e
 110              		.loc 1 28 5
 111              		.loc 1 28 39 is_stmt 0
 112              	#APP
 113              	# 28 "src/trap.cpp" 1
  29              	
  30:src/trap.cpp  ****     console_handler();
 114              		csrc sip, 0xA
 115              	# 0 "" 2
 116              		.loc 1 30 5 is_stmt 1
 117              		.loc 1 30 20 is_stmt 0
 118              	#NO_APP
 119 006c 97000000 		call	console_handler@plt
 119      E7800000 
 120              	.LVL9:
  31:src/trap.cpp  ****     __asm__ volatile ("mv x10, x10");
 121              		.loc 1 31 5 is_stmt 1
 122              		.loc 1 31 37 is_stmt 0
 123              	#APP
 124              	# 31 "src/trap.cpp" 1
  32              	
  33:src/trap.cpp  **** //    Console::get()->consoleHandler();
  34:src/trap.cpp  **** 
  35:src/trap.cpp  **** }
 125              		mv x10, x10
 126              	# 0 "" 2
 127              		.loc 1 35 1
 128              	#NO_APP
 129 0078 83308101 		ld	ra,24(sp)
 130              		.cfi_remember_state
 131              		.cfi_restore 1
 132 007c 03340101 		ld	s0,16(sp)
 133              		.cfi_restore 8
 134              		.cfi_def_cfa 2, 32
 135 0080 83348100 		ld	s1,8(sp)
 136              		.cfi_restore 9
 137              	.LVL10:
 138 0084 13010102 		addi	sp,sp,32
 139              		.cfi_def_cfa_offset 0
 140 0088 67800000 		jr	ra
 141              	.LVL11:
 142              	.L7:
 143              		.cfi_restore_state
 144              	.LBB12:
 145              	.LBB8:
  23:src/../h/../h/my_console.h **** 
  24:src/../h/../h/my_console.h ****     putString("===================== ASSERT file: ");
 146              		.loc 2 24 5 is_stmt 1
 147              		.loc 2 24 14 is_stmt 0
 148 008c 17050000 		lla	a0,.LC0
 148      13050500 
 149              	.LVL12:
 150 0094 97000000 		call	_Z9putStringPKc@plt
 150      E7800000 
 151              	.LVL13:
GAS LISTING /tmp/ccq1AqqY.s 			page 5


  25:src/../h/../h/my_console.h ****     putString(file);
 152              		.loc 2 25 5 is_stmt 1
 153              		.loc 2 25 14 is_stmt 0
 154 009c 17050000 		lla	a0,.LC1
 154      13050500 
 155 00a4 97000000 		call	_Z9putStringPKc@plt
 155      E7800000 
 156              	.LVL14:
  26:src/../h/../h/my_console.h ****     putString("    line: ");
 157              		.loc 2 26 5 is_stmt 1
 158              		.loc 2 26 14 is_stmt 0
 159 00ac 17050000 		lla	a0,.LC2
 159      13050500 
 160 00b4 97000000 		call	_Z9putStringPKc@plt
 160      E7800000 
 161              	.LVL15:
  27:src/../h/../h/my_console.h ****     putInt(line);
 162              		.loc 2 27 5 is_stmt 1
 163              		.loc 2 27 11 is_stmt 0
 164 00bc 13058001 		li	a0,24
 165 00c0 97000000 		call	_Z6putInti@plt
 165      E7800000 
 166              	.LVL16:
  28:src/../h/../h/my_console.h ****     putString("   ===========================");
 167              		.loc 2 28 5 is_stmt 1
 168              		.loc 2 28 14 is_stmt 0
 169 00c8 17050000 		lla	a0,.LC3
 169      13050500 
 170 00d0 97000000 		call	_Z9putStringPKc@plt
 170      E7800000 
 171              	.LVL17:
  29:src/../h/../h/my_console.h ****     putNewline();
 172              		.loc 2 29 5 is_stmt 1
 173              		.loc 2 29 15 is_stmt 0
 174 00d8 97000000 		call	_Z10putNewlinev@plt
 174      E7800000 
 175              	.LVL18:
  30:src/../h/../h/my_console.h **** 
  31:src/../h/../h/my_console.h ****     stopKernel();
 176              		.loc 2 31 5 is_stmt 1
 177              		.loc 2 31 15 is_stmt 0
 178 00e0 97000000 		call	_Z10stopKernelv@plt
 178      E7800000 
 179              	.LVL19:
 180              	.L8:
 181              	.LBE8:
 182              	.LBE12:
 183              	.LBB13:
 184              	.LBB11:
  24:src/../h/../h/my_console.h ****     putString(file);
 185              		.loc 2 24 5 is_stmt 1
  24:src/../h/../h/my_console.h ****     putString(file);
 186              		.loc 2 24 14 is_stmt 0
 187 00e8 17050000 		lla	a0,.LC0
 187      13050500 
 188 00f0 97000000 		call	_Z9putStringPKc@plt
 188      E7800000 
GAS LISTING /tmp/ccq1AqqY.s 			page 6


 189              	.LVL20:
  25:src/../h/../h/my_console.h ****     putString("    line: ");
 190              		.loc 2 25 5 is_stmt 1
  25:src/../h/../h/my_console.h ****     putString("    line: ");
 191              		.loc 2 25 14 is_stmt 0
 192 00f8 17050000 		lla	a0,.LC1
 192      13050500 
 193 0100 97000000 		call	_Z9putStringPKc@plt
 193      E7800000 
 194              	.LVL21:
  26:src/../h/../h/my_console.h ****     putInt(line);
 195              		.loc 2 26 5 is_stmt 1
  26:src/../h/../h/my_console.h ****     putInt(line);
 196              		.loc 2 26 14 is_stmt 0
 197 0108 17050000 		lla	a0,.LC2
 197      13050500 
 198 0110 97000000 		call	_Z9putStringPKc@plt
 198      E7800000 
 199              	.LVL22:
  27:src/../h/../h/my_console.h ****     putString("   ===========================");
 200              		.loc 2 27 5 is_stmt 1
  27:src/../h/../h/my_console.h ****     putString("   ===========================");
 201              		.loc 2 27 11 is_stmt 0
 202 0118 1305A001 		li	a0,26
 203 011c 97000000 		call	_Z6putInti@plt
 203      E7800000 
 204              	.LVL23:
  28:src/../h/../h/my_console.h ****     putNewline();
 205              		.loc 2 28 5 is_stmt 1
  28:src/../h/../h/my_console.h ****     putNewline();
 206              		.loc 2 28 14 is_stmt 0
 207 0124 17050000 		lla	a0,.LC3
 207      13050500 
 208 012c 97000000 		call	_Z9putStringPKc@plt
 208      E7800000 
 209              	.LVL24:
  29:src/../h/../h/my_console.h **** 
 210              		.loc 2 29 5 is_stmt 1
  29:src/../h/../h/my_console.h **** 
 211              		.loc 2 29 15 is_stmt 0
 212 0134 97000000 		call	_Z10putNewlinev@plt
 212      E7800000 
 213              	.LVL25:
 214              		.loc 2 31 5 is_stmt 1
 215              		.loc 2 31 15 is_stmt 0
 216 013c 97000000 		call	_Z10stopKernelv@plt
 216      E7800000 
 217              	.LVL26:
 218              	.LBE11:
 219              	.LBE13:
 220              		.cfi_endproc
 221              	.LFE19:
 223              		.align	2
 224              		.globl	_Z22cTimerInterruptRoutinev
 226              	_Z22cTimerInterruptRoutinev:
 227              	.LFB20:
  36:src/trap.cpp  **** 
GAS LISTING /tmp/ccq1AqqY.s 			page 7


  37:src/trap.cpp  **** void cTimerInterruptRoutine()
  38:src/trap.cpp  **** {
 228              		.loc 1 38 1 is_stmt 1
 229              		.cfi_startproc
 230 0144 130101FE 		addi	sp,sp,-32
 231              		.cfi_def_cfa_offset 32
 232 0148 233C1100 		sd	ra,24(sp)
 233 014c 23388100 		sd	s0,16(sp)
 234 0150 23349100 		sd	s1,8(sp)
 235              		.cfi_offset 1, -8
 236              		.cfi_offset 8, -16
 237              		.cfi_offset 9, -24
 238 0154 13040102 		addi	s0,sp,32
 239              		.cfi_def_cfa 8, 0
  39:src/trap.cpp  ****     uint64 scause;
 240              		.loc 1 39 5
  40:src/trap.cpp  ****     __asm__ volatile ("csrr %[name], scause" : [name] "=r"(scause));
 241              		.loc 1 40 5
 242              		.loc 1 40 68 is_stmt 0
 243              	#APP
 244              	# 40 "src/trap.cpp" 1
  41              	
 245              		csrr s1, scause
 246              	# 0 "" 2
 247              	.LVL27:
  42:src/trap.cpp  ****     int cause = scause & (~(1UL << 63));
 248              		.loc 1 42 5 is_stmt 1
  43:src/trap.cpp  **** 
  44:src/trap.cpp  ****     __asm__ volatile ("csrc sip, 0xA"); // clears the 9th bit in register sip. (the bit signifies e
 249              		.loc 1 44 5
 250              		.loc 1 44 39 is_stmt 0
 251              	# 44 "src/trap.cpp" 1
  45              	//    __asm__ volatile ("csrc sstatus, 0x02");
  46:src/trap.cpp  **** 
  47:src/trap.cpp  ****     assert(&(Thread::getPRunning()->sp) == Thread::pRunningSp);
 252              		csrc sip, 0xA
 253              	# 0 "" 2
 254              		.loc 1 47 5 is_stmt 1
 255              	#NO_APP
 256 0160 97000000 		call	_ZN6Thread11getPRunningEv@plt
 256      E7800000 
 257              	.LVL28:
 258 0168 13058504 		addi	a0,a0,72
 259 016c 97070000 		la	a5,_ZN6Thread10pRunningSpE
 259      83B70700 
 260 0174 83B70700 		ld	a5,0(a5)
 261              	.LVL29:
 262              	.LBB16:
 263              	.LBB17:
  21:src/../h/../h/my_console.h ****         return;
 264              		.loc 2 21 5
 265 0178 6398A702 		bne	a5,a0,.L14
 266 017c 9B840400 		sext.w	s1,s1
 267              	.LVL30:
  22:src/../h/../h/my_console.h **** 
 268              		.loc 2 22 9
 269              	.LBE17:
GAS LISTING /tmp/ccq1AqqY.s 			page 8


 270              	.LBE16:
  48:src/trap.cpp  ****     if(cause == 1)
 271              		.loc 1 48 5
 272 0180 93071000 		li	a5,1
 273 0184 6380F408 		beq	s1,a5,.L15
  49:src/trap.cpp  ****     { // timer
  50:src/trap.cpp  ****         __asm__ volatile("mv x10, x10");
  51:src/trap.cpp  ****     }
  52:src/trap.cpp  ****     else if (cause == 9)
 274              		.loc 1 52 10
 275 0188 93079000 		li	a5,9
 276 018c 6380F408 		beq	s1,a5,.L16
 277              	.L12:
  53:src/trap.cpp  ****     { // console
  54:src/trap.cpp  ****         plic_claim();
  55:src/trap.cpp  **** //        Console::get()->consoleHandler();
  56:src/trap.cpp  **** //        console_handler();
  57:src/trap.cpp  **** //        __asm__ volatile("mv x10, x10");
  58:src/trap.cpp  ****     }
  59:src/trap.cpp  **** 
  60:src/trap.cpp  ****     __asm__ volatile("mv x10, x10");
 278              		.loc 1 60 5
 279              		.loc 1 60 36 is_stmt 0
 280              	#APP
 281              	# 60 "src/trap.cpp" 1
  61              	}
 282              		mv x10, x10
 283              	# 0 "" 2
 284              		.loc 1 61 1
 285              	#NO_APP
 286 0194 83308101 		ld	ra,24(sp)
 287              		.cfi_remember_state
 288              		.cfi_restore 1
 289 0198 03340101 		ld	s0,16(sp)
 290              		.cfi_restore 8
 291              		.cfi_def_cfa 2, 32
 292 019c 83348100 		ld	s1,8(sp)
 293              		.cfi_restore 9
 294              	.LVL31:
 295 01a0 13010102 		addi	sp,sp,32
 296              		.cfi_def_cfa_offset 0
 297 01a4 67800000 		jr	ra
 298              	.LVL32:
 299              	.L14:
 300              		.cfi_restore_state
 301              	.LBB19:
 302              	.LBB18:
  24:src/../h/../h/my_console.h ****     putString(file);
 303              		.loc 2 24 5 is_stmt 1
  24:src/../h/../h/my_console.h ****     putString(file);
 304              		.loc 2 24 14 is_stmt 0
 305 01a8 17050000 		lla	a0,.LC0
 305      13050500 
 306              	.LVL33:
 307 01b0 97000000 		call	_Z9putStringPKc@plt
 307      E7800000 
 308              	.LVL34:
GAS LISTING /tmp/ccq1AqqY.s 			page 9


  25:src/../h/../h/my_console.h ****     putString("    line: ");
 309              		.loc 2 25 5 is_stmt 1
  25:src/../h/../h/my_console.h ****     putString("    line: ");
 310              		.loc 2 25 14 is_stmt 0
 311 01b8 17050000 		lla	a0,.LC1
 311      13050500 
 312 01c0 97000000 		call	_Z9putStringPKc@plt
 312      E7800000 
 313              	.LVL35:
  26:src/../h/../h/my_console.h ****     putInt(line);
 314              		.loc 2 26 5 is_stmt 1
  26:src/../h/../h/my_console.h ****     putInt(line);
 315              		.loc 2 26 14 is_stmt 0
 316 01c8 17050000 		lla	a0,.LC2
 316      13050500 
 317 01d0 97000000 		call	_Z9putStringPKc@plt
 317      E7800000 
 318              	.LVL36:
  27:src/../h/../h/my_console.h ****     putString("   ===========================");
 319              		.loc 2 27 5 is_stmt 1
  27:src/../h/../h/my_console.h ****     putString("   ===========================");
 320              		.loc 2 27 11 is_stmt 0
 321 01d8 1305F002 		li	a0,47
 322 01dc 97000000 		call	_Z6putInti@plt
 322      E7800000 
 323              	.LVL37:
  28:src/../h/../h/my_console.h ****     putNewline();
 324              		.loc 2 28 5 is_stmt 1
  28:src/../h/../h/my_console.h ****     putNewline();
 325              		.loc 2 28 14 is_stmt 0
 326 01e4 17050000 		lla	a0,.LC3
 326      13050500 
 327 01ec 97000000 		call	_Z9putStringPKc@plt
 327      E7800000 
 328              	.LVL38:
  29:src/../h/../h/my_console.h **** 
 329              		.loc 2 29 5 is_stmt 1
  29:src/../h/../h/my_console.h **** 
 330              		.loc 2 29 15 is_stmt 0
 331 01f4 97000000 		call	_Z10putNewlinev@plt
 331      E7800000 
 332              	.LVL39:
 333              		.loc 2 31 5 is_stmt 1
 334              		.loc 2 31 15 is_stmt 0
 335 01fc 97000000 		call	_Z10stopKernelv@plt
 335      E7800000 
 336              	.LVL40:
 337              	.L15:
 338              	.LBE18:
 339              	.LBE19:
  50:src/trap.cpp  ****     }
 340              		.loc 1 50 9 is_stmt 1
  50:src/trap.cpp  ****     }
 341              		.loc 1 50 40 is_stmt 0
 342              	#APP
 343              	# 50 "src/trap.cpp" 1
 344              		mv x10, x10
GAS LISTING /tmp/ccq1AqqY.s 			page 10


 345              	# 0 "" 2
 346              	#NO_APP
 347 0208 6FF09FF8 		j	.L12
 348              	.L16:
  54:src/trap.cpp  **** //        Console::get()->consoleHandler();
 349              		.loc 1 54 9 is_stmt 1
  54:src/trap.cpp  **** //        Console::get()->consoleHandler();
 350              		.loc 1 54 19 is_stmt 0
 351 020c 97000000 		call	plic_claim@plt
 351      E7800000 
 352              	.LVL41:
 353 0214 6FF0DFF7 		j	.L12
 354              		.cfi_endproc
 355              	.LFE20:
 357              		.section	.rodata.str1.8
 358 0067 00       		.align	3
 359              	.LC4:
 360 0068 3D3D3D20 		.string	"=== EXCEPETION occured: "
 360      45584345 
 360      50455449 
 360      4F4E206F 
 360      63637572 
 361 0081 00000000 		.align	3
 361      000000
 362              	.LC5:
 363 0088 20496C6C 		.string	" Illegal instruction"
 363      6567616C 
 363      20696E73 
 363      74727563 
 363      74696F6E 
 364 009d 000000   		.align	3
 365              	.LC6:
 366 00a0 556E616C 		.string	"Unallowed read adress"
 366      6C6F7765 
 366      64207265 
 366      61642061 
 366      64726573 
 367 00b6 0000     		.align	3
 368              	.LC7:
 369 00b8 556E616C 		.string	"Unallowed write adress"
 369      6C6F7765 
 369      64207772 
 369      69746520 
 369      61647265 
 370 00cf 00       		.align	3
 371              	.LC8:
 372 00d0 554B4E4F 		.string	"UKNOWN EXCEPTION. ??????????????"
 372      574E2045 
 372      58434550 
 372      54494F4E 
 372      2E203F3F 
 373 00f1 00000000 		.align	3
 373      000000
 374              	.LC9:
 375 00f8 5465726D 		.string	"Terminating kernel"
 375      696E6174 
 375      696E6720 
GAS LISTING /tmp/ccq1AqqY.s 			page 11


 375      6B65726E 
 375      656C00
 376              		.text
 377              		.align	2
 378              		.globl	_Z25cInternalInterruptRoutinev
 380              	_Z25cInternalInterruptRoutinev:
 381              	.LFB21:
  62:src/trap.cpp  **** 
  63:src/trap.cpp  **** 
  64:src/trap.cpp  **** void cInternalInterruptRoutine()
  65:src/trap.cpp  **** {
 382              		.loc 1 65 1 is_stmt 1
 383              		.cfi_startproc
 384 0218 130101FA 		addi	sp,sp,-96
 385              		.cfi_def_cfa_offset 96
 386 021c 233C1104 		sd	ra,88(sp)
 387 0220 23388104 		sd	s0,80(sp)
 388 0224 23349104 		sd	s1,72(sp)
 389 0228 23302105 		sd	s2,64(sp)
 390 022c 233C3103 		sd	s3,56(sp)
 391 0230 23384103 		sd	s4,48(sp)
 392 0234 23345103 		sd	s5,40(sp)
 393 0238 23306103 		sd	s6,32(sp)
 394 023c 233C7101 		sd	s7,24(sp)
 395              		.cfi_offset 1, -8
 396              		.cfi_offset 8, -16
 397              		.cfi_offset 9, -24
 398              		.cfi_offset 18, -32
 399              		.cfi_offset 19, -40
 400              		.cfi_offset 20, -48
 401              		.cfi_offset 21, -56
 402              		.cfi_offset 22, -64
 403              		.cfi_offset 23, -72
 404 0240 13040106 		addi	s0,sp,96
 405              		.cfi_def_cfa 8, 0
  66:src/trap.cpp  ****     uint64 scause;
 406              		.loc 1 66 5
  67:src/trap.cpp  ****     __asm__ volatile ("csrr %[name], scause" : [name] "=r"(scause));
 407              		.loc 1 67 5
 408              		.loc 1 67 68 is_stmt 0
 409              	#APP
 410              	# 67 "src/trap.cpp" 1
  68              	
 411              		csrr s2, scause
 412              	# 0 "" 2
 413              	.LVL42:
  69:src/trap.cpp  **** //    int isExternal = (scause & (0x1UL << 63)) != 0;
  70:src/trap.cpp  ****     int cause = scause & (~(1UL << 63));
 414              		.loc 1 70 5 is_stmt 1
  71:src/trap.cpp  **** 
  72:src/trap.cpp  ****     __asm__ volatile ("csrc sip, 0x2"); // clears the 1st bit in register sip. (the bit signifies i
 415              		.loc 1 72 5
 416              		.loc 1 72 39 is_stmt 0
 417              	# 72 "src/trap.cpp" 1
  73              	
  74:src/trap.cpp  ****     uint64 code, parameter1, parameter2, parameter3;
 418              		csrc sip, 0x2
GAS LISTING /tmp/ccq1AqqY.s 			page 12


 419              	# 0 "" 2
 420              		.loc 1 74 5 is_stmt 1
  75:src/trap.cpp  ****     __asm__ volatile ("mv %[name], a0" : [name] "=r"(code));
 421              		.loc 1 75 5
 422              		.loc 1 75 60 is_stmt 0
 423              	# 75 "src/trap.cpp" 1
  76              	    __asm__ volatile ("mv %[name], a1" : [name] "=r"(parameter1));
 424              		mv s1, a0
 425              	# 0 "" 2
 426              	.LVL43:
 427              		.loc 1 76 5 is_stmt 1
 428              		.loc 1 76 66 is_stmt 0
 429              	# 76 "src/trap.cpp" 1
  77              	    __asm__ volatile ("mv %[name], a2" : [name] "=r"(parameter2));
 430              		mv s4, a1
 431              	# 0 "" 2
 432              	.LVL44:
 433              		.loc 1 77 5 is_stmt 1
 434              		.loc 1 77 66 is_stmt 0
 435              	# 77 "src/trap.cpp" 1
  78              	    __asm__ volatile ("mv %[name], a3" : [name] "=r"(parameter3));
 436              		mv s5, a2
 437              	# 0 "" 2
 438              	.LVL45:
 439              		.loc 1 78 5 is_stmt 1
 440              		.loc 1 78 66 is_stmt 0
 441              	# 78 "src/trap.cpp" 1
  79              	
 442              		mv s6, a3
 443              	# 0 "" 2
 444              	.LVL46:
  80:src/trap.cpp  **** 
  81:src/trap.cpp  ****     __asm__ volatile ("mv x1, x1");
 445              		.loc 1 81 5 is_stmt 1
 446              		.loc 1 81 35 is_stmt 0
 447              	# 81 "src/trap.cpp" 1
  82              	
  83:src/trap.cpp  **** //    Thread::getPRunning()->sp = Thread::runningSp;
  84:src/trap.cpp  **** //    uint64* sp = Thread::getPRunning()->sp;
  85:src/trap.cpp  **** //    uint64* runningSp = Thread::runningSp;
  86:src/trap.cpp  **** //    if(sp != runningSp) // temp, maybe changes registers?
  87:src/trap.cpp  **** //    {
  88:src/trap.cpp  **** //        __asm__ volatile ("mv x10, x10");
  89:src/trap.cpp  **** //        assert(false);
  90:src/trap.cpp  **** //    }
  91:src/trap.cpp  ****     assert(&(Thread::getPRunning()->sp) == Thread::pRunningSp);
 448              		mv x1, x1
 449              	# 0 "" 2
 450              		.loc 1 91 5 is_stmt 1
 451              	#NO_APP
 452 0260 97000000 		call	_ZN6Thread11getPRunningEv@plt
 452      E7800000 
 453              	.LVL47:
 454 0268 93078504 		addi	a5,a0,72
 455 026c 17070000 		la	a4,_ZN6Thread10pRunningSpE
 455      03370700 
 456 0274 03350700 		ld	a0,0(a4)
GAS LISTING /tmp/ccq1AqqY.s 			page 13


 457 0278 3305F540 		sub	a0,a0,a5
 458              	.LVL48:
 459              	.LBB48:
 460              	.LBB49:
  21:src/../h/../h/my_console.h ****         return;
 461              		.loc 2 21 5
 462 027c 6318050C 		bnez	a0,.L51
 463 0280 9B090900 		sext.w	s3,s2
 464 0284 933B1500 		seqz	s7,a0
  22:src/../h/../h/my_console.h **** 
 465              		.loc 2 22 9
 466              	.LVL49:
 467              	.LBE49:
 468              	.LBE48:
  92:src/trap.cpp  **** 
  93:src/trap.cpp  ****     __asm__ volatile ("mv x1, x1");
 469              		.loc 1 93 5
 470              		.loc 1 93 35 is_stmt 0
 471              	#APP
 472              	# 93 "src/trap.cpp" 1
  94              	
  95:src/trap.cpp  ****     if(cause != 8 && cause != 9)
 473              		mv x1, x1
 474              	# 0 "" 2
 475              		.loc 1 95 5 is_stmt 1
 476              		.loc 1 95 19 is_stmt 0
 477              	#NO_APP
 478 028c 1B0989FF 		addiw	s2,s2,-8
 479              	.LVL50:
 480              		.loc 1 95 5
 481 0290 93071000 		li	a5,1
 482 0294 63EA2711 		bgtu	s2,a5,.L52
  96:src/trap.cpp  ****     {
  97:src/trap.cpp  ****         putString("=== EXCEPETION occured: ");
  98:src/trap.cpp  ****         if(cause == 2)
  99:src/trap.cpp  ****         {
 100:src/trap.cpp  ****             putString(" Illegal instruction");
 101:src/trap.cpp  ****         }
 102:src/trap.cpp  ****         else if (cause == 5)
 103:src/trap.cpp  ****         {
 104:src/trap.cpp  ****             putString("Unallowed read adress");
 105:src/trap.cpp  ****         }
 106:src/trap.cpp  ****         else if (cause == 7)
 107:src/trap.cpp  ****         {
 108:src/trap.cpp  ****             putString("Unallowed write adress");
 109:src/trap.cpp  ****         }
 110:src/trap.cpp  ****         else
 111:src/trap.cpp  ****         {
 112:src/trap.cpp  ****             putString("UKNOWN EXCEPTION. ??????????????");
 113:src/trap.cpp  ****             assert(false);
 114:src/trap.cpp  ****         }
 115:src/trap.cpp  ****         putNewline();
 116:src/trap.cpp  ****         putString("Terminating kernel");
 117:src/trap.cpp  ****         putNewline();
 118:src/trap.cpp  ****         assert(false);
 119:src/trap.cpp  ****     }
 120:src/trap.cpp  **** 
GAS LISTING /tmp/ccq1AqqY.s 			page 14


 121:src/trap.cpp  **** 
 122:src/trap.cpp  ****     uint64 ret = -1;
 483              		.loc 1 122 5 is_stmt 1
 484              		.loc 1 122 12 is_stmt 0
 485 0298 9307F0FF 		li	a5,-1
 486 029c 2334F4FA 		sd	a5,-88(s0)
 123:src/trap.cpp  ****     if(code == 1)
 487              		.loc 1 123 5 is_stmt 1
 488              	.LBB51:
 489 02a0 93071000 		li	a5,1
 490 02a4 6386F424 		beq	s1,a5,.L53
 491              	.LBE51:
 124:src/trap.cpp  ****     {
 125:src/trap.cpp  ****         ret = (uint64)MemAlloc::get()->allocMem(parameter1);
 126:src/trap.cpp  ****     }
 127:src/trap.cpp  ****     else if (code == 2)
 492              		.loc 1 127 10
 493              	.LBB86:
 494              	.LBB52:
 495 02a8 93072000 		li	a5,2
 496 02ac 6388F42A 		beq	s1,a5,.L54
 497              	.LBE52:
 498              	.LBE86:
 128:src/trap.cpp  ****     {
 129:src/trap.cpp  ****         *((int*)&ret) = MemAlloc::get()->freeMem((void*)parameter1);
 130:src/trap.cpp  ****     }
 131:src/trap.cpp  **** #ifdef __DEBUG_MODE
 132:src/trap.cpp  ****     else if (code == 3) // Test call
 499              		.loc 1 132 10
 500              	.LBB87:
 501              	.LBB80:
 502              	.LBB53:
 503 02b0 93073000 		li	a5,3
 504 02b4 6382F42C 		beq	s1,a5,.L55
 505              	.LBE53:
 506              	.LBE80:
 507              	.LBE87:
 133:src/trap.cpp  ****     {
 134:src/trap.cpp  ****         ret = (uint64)testCall(parameter1);
 135:src/trap.cpp  ****     }
 136:src/trap.cpp  **** #endif
 137:src/trap.cpp  ****     else if (code == 4)
 508              		.loc 1 137 10
 509              	.LBB88:
 510              	.LBB81:
 511              	.LBB75:
 512              	.LBB54:
 513 02b8 93074000 		li	a5,4
 514 02bc 6388F42C 		beq	s1,a5,.L56
 515              	.LBE54:
 516              	.LBE75:
 517              	.LBE81:
 518              	.LBE88:
 138:src/trap.cpp  ****     {
 139:src/trap.cpp  ****         Thread::switchToUser();
 140:src/trap.cpp  ****     }
 141:src/trap.cpp  ****     else if (code == 17) // 17
GAS LISTING /tmp/ccq1AqqY.s 			page 15


 519              		.loc 1 141 10
 520              	.LBB89:
 521              	.LBB82:
 522              	.LBB76:
 523              	.LBB71:
 524              	.LBB55:
 525 02c0 93071001 		li	a5,17
 526 02c4 638AF42C 		beq	s1,a5,.L57
 527              	.LBE55:
 528              	.LBE71:
 529              	.LBE76:
 530              	.LBE82:
 531              	.LBE89:
 142:src/trap.cpp  ****     {
 143:src/trap.cpp  ****         *((int*)&ret) = Thread::createThread((uint64*)parameter1, (Thread::Body)parameter2, (void*)
 144:src/trap.cpp  ****     }
 145:src/trap.cpp  ****     else if (code == 18)
 532              		.loc 1 145 10
 533              	.LBB90:
 534              	.LBB83:
 535              	.LBB77:
 536              	.LBB72:
 537              	.LBB68:
 538              	.LBB56:
 539 02c8 93072001 		li	a5,18
 540 02cc 6384F42E 		beq	s1,a5,.L58
 541              	.LBE56:
 542              	.LBE68:
 543              	.LBE72:
 544              	.LBE77:
 545              	.LBE83:
 546              	.LBE90:
 146:src/trap.cpp  ****     {
 147:src/trap.cpp  ****         *((int*)&ret) = Thread::exit();
 148:src/trap.cpp  ****     }
 149:src/trap.cpp  ****     else if (code == 19) // 19, thread_dispatch
 547              		.loc 1 149 10
 548              	.LBB91:
 549              	.LBB84:
 550              	.LBB78:
 551              	.LBB73:
 552              	.LBB69:
 553              	.LBB66:
 554              	.LBB57:
 555 02d0 93073001 		li	a5,19
 556 02d4 6388F42E 		beq	s1,a5,.L59
 150:src/trap.cpp  ****     {
 151:src/trap.cpp  ****         extern Thread kernelThread;
 152:src/trap.cpp  ****         assert(Thread::getPRunning() != &kernelThread); // you're only supposed to open user thread
 153:src/trap.cpp  **** 
 154:src/trap.cpp  ****         Thread::getPRunning()->state = Thread::READY;
 155:src/trap.cpp  ****         Scheduler::put(Thread::getPRunning());
 156:src/trap.cpp  **** 
 157:src/trap.cpp  ****         Scheduler::dispatchToNext();
 158:src/trap.cpp  ****     }
 159:src/trap.cpp  ****     else if (code == 20)
 557              		.loc 1 159 10
GAS LISTING /tmp/ccq1AqqY.s 			page 16


 558 02d8 93074001 		li	a5,20
 559 02dc 6382F438 		beq	s1,a5,.L60
 160:src/trap.cpp  ****     {
 161:src/trap.cpp  ****         Thread::join((uint64)parameter1);
 162:src/trap.cpp  ****     }
 163:src/trap.cpp  ****     else if (code == 65) // getc
 560              		.loc 1 163 10
 561 02e0 93071004 		li	a5,65
 562 02e4 6382F422 		beq	s1,a5,.L25
 164:src/trap.cpp  ****     {
 165:src/trap.cpp  **** 
 166:src/trap.cpp  ****     }
 167:src/trap.cpp  ****     else if (code == 66) // putc
 563              		.loc 1 167 10
 564 02e8 93072004 		li	a5,66
 565 02ec 638EF420 		beq	s1,a5,.L25
 168:src/trap.cpp  ****     {
 169:src/trap.cpp  **** 
 170:src/trap.cpp  ****     }
 171:src/trap.cpp  ****     else
 172:src/trap.cpp  ****     {
 173:src/trap.cpp  ****         assert(false); // unknown code
 566              		.loc 1 173 9
 567              	.LVL51:
 568              	.LBB58:
 569              	.LBB59:
  21:src/../h/../h/my_console.h ****         return;
 570              		.loc 2 21 5
  24:src/../h/../h/my_console.h ****     putString(file);
 571              		.loc 2 24 5
  24:src/../h/../h/my_console.h ****     putString(file);
 572              		.loc 2 24 14 is_stmt 0
 573 02f0 17050000 		lla	a0,.LC0
 573      13050500 
 574 02f8 97000000 		call	_Z9putStringPKc@plt
 574      E7800000 
 575              	.LVL52:
  25:src/../h/../h/my_console.h ****     putString("    line: ");
 576              		.loc 2 25 5 is_stmt 1
  25:src/../h/../h/my_console.h ****     putString("    line: ");
 577              		.loc 2 25 14 is_stmt 0
 578 0300 17050000 		lla	a0,.LC1
 578      13050500 
 579 0308 97000000 		call	_Z9putStringPKc@plt
 579      E7800000 
 580              	.LVL53:
  26:src/../h/../h/my_console.h ****     putInt(line);
 581              		.loc 2 26 5 is_stmt 1
  26:src/../h/../h/my_console.h ****     putInt(line);
 582              		.loc 2 26 14 is_stmt 0
 583 0310 17050000 		lla	a0,.LC2
 583      13050500 
 584 0318 97000000 		call	_Z9putStringPKc@plt
 584      E7800000 
 585              	.LVL54:
  27:src/../h/../h/my_console.h ****     putString("   ===========================");
 586              		.loc 2 27 5 is_stmt 1
GAS LISTING /tmp/ccq1AqqY.s 			page 17


  27:src/../h/../h/my_console.h ****     putString("   ===========================");
 587              		.loc 2 27 11 is_stmt 0
 588 0320 1305D00A 		li	a0,173
 589 0324 97000000 		call	_Z6putInti@plt
 589      E7800000 
 590              	.LVL55:
  28:src/../h/../h/my_console.h ****     putNewline();
 591              		.loc 2 28 5 is_stmt 1
  28:src/../h/../h/my_console.h ****     putNewline();
 592              		.loc 2 28 14 is_stmt 0
 593 032c 17050000 		lla	a0,.LC3
 593      13050500 
 594 0334 97000000 		call	_Z9putStringPKc@plt
 594      E7800000 
 595              	.LVL56:
  29:src/../h/../h/my_console.h **** 
 596              		.loc 2 29 5 is_stmt 1
  29:src/../h/../h/my_console.h **** 
 597              		.loc 2 29 15 is_stmt 0
 598 033c 97000000 		call	_Z10putNewlinev@plt
 598      E7800000 
 599              	.LVL57:
 600              		.loc 2 31 5 is_stmt 1
 601              		.loc 2 31 15 is_stmt 0
 602 0344 97000000 		call	_Z10stopKernelv@plt
 602      E7800000 
 603              	.LVL58:
 604              	.L51:
 605              	.LBE59:
 606              	.LBE58:
 607              	.LBE57:
 608              	.LBE66:
 609              	.LBE69:
 610              	.LBE73:
 611              	.LBE78:
 612              	.LBE84:
 613              	.LBE91:
 614              	.LBB92:
 615              	.LBB50:
  24:src/../h/../h/my_console.h ****     putString(file);
 616              		.loc 2 24 5 is_stmt 1
  24:src/../h/../h/my_console.h ****     putString(file);
 617              		.loc 2 24 14 is_stmt 0
 618 034c 17050000 		lla	a0,.LC0
 618      13050500 
 619              	.LVL59:
 620 0354 97000000 		call	_Z9putStringPKc@plt
 620      E7800000 
 621              	.LVL60:
  25:src/../h/../h/my_console.h ****     putString("    line: ");
 622              		.loc 2 25 5 is_stmt 1
  25:src/../h/../h/my_console.h ****     putString("    line: ");
 623              		.loc 2 25 14 is_stmt 0
 624 035c 17050000 		lla	a0,.LC1
 624      13050500 
 625 0364 97000000 		call	_Z9putStringPKc@plt
 625      E7800000 
GAS LISTING /tmp/ccq1AqqY.s 			page 18


 626              	.LVL61:
  26:src/../h/../h/my_console.h ****     putInt(line);
 627              		.loc 2 26 5 is_stmt 1
  26:src/../h/../h/my_console.h ****     putInt(line);
 628              		.loc 2 26 14 is_stmt 0
 629 036c 17050000 		lla	a0,.LC2
 629      13050500 
 630 0374 97000000 		call	_Z9putStringPKc@plt
 630      E7800000 
 631              	.LVL62:
  27:src/../h/../h/my_console.h ****     putString("   ===========================");
 632              		.loc 2 27 5 is_stmt 1
  27:src/../h/../h/my_console.h ****     putString("   ===========================");
 633              		.loc 2 27 11 is_stmt 0
 634 037c 1305B005 		li	a0,91
 635 0380 97000000 		call	_Z6putInti@plt
 635      E7800000 
 636              	.LVL63:
  28:src/../h/../h/my_console.h ****     putNewline();
 637              		.loc 2 28 5 is_stmt 1
  28:src/../h/../h/my_console.h ****     putNewline();
 638              		.loc 2 28 14 is_stmt 0
 639 0388 17050000 		lla	a0,.LC3
 639      13050500 
 640 0390 97000000 		call	_Z9putStringPKc@plt
 640      E7800000 
 641              	.LVL64:
  29:src/../h/../h/my_console.h **** 
 642              		.loc 2 29 5 is_stmt 1
  29:src/../h/../h/my_console.h **** 
 643              		.loc 2 29 15 is_stmt 0
 644 0398 97000000 		call	_Z10putNewlinev@plt
 644      E7800000 
 645              	.LVL65:
 646              		.loc 2 31 5 is_stmt 1
 647              		.loc 2 31 15 is_stmt 0
 648 03a0 97000000 		call	_Z10stopKernelv@plt
 648      E7800000 
 649              	.LVL66:
 650              	.L52:
 651              	.LBE50:
 652              	.LBE92:
  97:src/trap.cpp  ****         if(cause == 2)
 653              		.loc 1 97 9 is_stmt 1
  97:src/trap.cpp  ****         if(cause == 2)
 654              		.loc 1 97 18 is_stmt 0
 655 03a8 17050000 		lla	a0,.LC4
 655      13050500 
 656 03b0 97000000 		call	_Z9putStringPKc@plt
 656      E7800000 
 657              	.LVL67:
  98:src/trap.cpp  ****         {
 658              		.loc 1 98 9 is_stmt 1
 659 03b8 93072000 		li	a5,2
 660 03bc 6380F908 		beq	s3,a5,.L61
 102:src/trap.cpp  ****         {
 661              		.loc 1 102 14
GAS LISTING /tmp/ccq1AqqY.s 			page 19


 662 03c0 93075000 		li	a5,5
 663 03c4 6386F908 		beq	s3,a5,.L62
 106:src/trap.cpp  ****         {
 664              		.loc 1 106 14
 665 03c8 93077000 		li	a5,7
 666 03cc 638CF908 		beq	s3,a5,.L63
 112:src/trap.cpp  ****             assert(false);
 667              		.loc 1 112 13
 112:src/trap.cpp  ****             assert(false);
 668              		.loc 1 112 22 is_stmt 0
 669 03d0 17050000 		lla	a0,.LC8
 669      13050500 
 670 03d8 97000000 		call	_Z9putStringPKc@plt
 670      E7800000 
 671              	.LVL68:
 113:src/trap.cpp  ****         }
 672              		.loc 1 113 13 is_stmt 1
 673              	.LBB93:
 674              	.LBB94:
  21:src/../h/../h/my_console.h ****         return;
 675              		.loc 2 21 5
  24:src/../h/../h/my_console.h ****     putString(file);
 676              		.loc 2 24 5
  24:src/../h/../h/my_console.h ****     putString(file);
 677              		.loc 2 24 14 is_stmt 0
 678 03e0 17050000 		lla	a0,.LC0
 678      13050500 
 679 03e8 97000000 		call	_Z9putStringPKc@plt
 679      E7800000 
 680              	.LVL69:
  25:src/../h/../h/my_console.h ****     putString("    line: ");
 681              		.loc 2 25 5 is_stmt 1
  25:src/../h/../h/my_console.h ****     putString("    line: ");
 682              		.loc 2 25 14 is_stmt 0
 683 03f0 17050000 		lla	a0,.LC1
 683      13050500 
 684 03f8 97000000 		call	_Z9putStringPKc@plt
 684      E7800000 
 685              	.LVL70:
  26:src/../h/../h/my_console.h ****     putInt(line);
 686              		.loc 2 26 5 is_stmt 1
  26:src/../h/../h/my_console.h ****     putInt(line);
 687              		.loc 2 26 14 is_stmt 0
 688 0400 17050000 		lla	a0,.LC2
 688      13050500 
 689 0408 97000000 		call	_Z9putStringPKc@plt
 689      E7800000 
 690              	.LVL71:
  27:src/../h/../h/my_console.h ****     putString("   ===========================");
 691              		.loc 2 27 5 is_stmt 1
  27:src/../h/../h/my_console.h ****     putString("   ===========================");
 692              		.loc 2 27 11 is_stmt 0
 693 0410 13051007 		li	a0,113
 694 0414 97000000 		call	_Z6putInti@plt
 694      E7800000 
 695              	.LVL72:
  28:src/../h/../h/my_console.h ****     putNewline();
GAS LISTING /tmp/ccq1AqqY.s 			page 20


 696              		.loc 2 28 5 is_stmt 1
  28:src/../h/../h/my_console.h ****     putNewline();
 697              		.loc 2 28 14 is_stmt 0
 698 041c 17050000 		lla	a0,.LC3
 698      13050500 
 699 0424 97000000 		call	_Z9putStringPKc@plt
 699      E7800000 
 700              	.LVL73:
  29:src/../h/../h/my_console.h **** 
 701              		.loc 2 29 5 is_stmt 1
  29:src/../h/../h/my_console.h **** 
 702              		.loc 2 29 15 is_stmt 0
 703 042c 97000000 		call	_Z10putNewlinev@plt
 703      E7800000 
 704              	.LVL74:
 705              		.loc 2 31 5 is_stmt 1
 706              		.loc 2 31 15 is_stmt 0
 707 0434 97000000 		call	_Z10stopKernelv@plt
 707      E7800000 
 708              	.LVL75:
 709              	.L61:
 710              	.LBE94:
 711              	.LBE93:
 100:src/trap.cpp  ****         }
 712              		.loc 1 100 13 is_stmt 1
 100:src/trap.cpp  ****         }
 713              		.loc 1 100 22 is_stmt 0
 714 043c 17050000 		lla	a0,.LC5
 714      13050500 
 715 0444 97000000 		call	_Z9putStringPKc@plt
 715      E7800000 
 716              	.LVL76:
 717 044c 6F008002 		j	.L21
 718              	.L62:
 104:src/trap.cpp  ****         }
 719              		.loc 1 104 13 is_stmt 1
 104:src/trap.cpp  ****         }
 720              		.loc 1 104 22 is_stmt 0
 721 0450 17050000 		lla	a0,.LC6
 721      13050500 
 722 0458 97000000 		call	_Z9putStringPKc@plt
 722      E7800000 
 723              	.LVL77:
 724 0460 6F004001 		j	.L21
 725              	.L63:
 108:src/trap.cpp  ****         }
 726              		.loc 1 108 13 is_stmt 1
 108:src/trap.cpp  ****         }
 727              		.loc 1 108 22 is_stmt 0
 728 0464 17050000 		lla	a0,.LC7
 728      13050500 
 729 046c 97000000 		call	_Z9putStringPKc@plt
 729      E7800000 
 730              	.LVL78:
 731              	.L21:
 115:src/trap.cpp  ****         putString("Terminating kernel");
 732              		.loc 1 115 9 is_stmt 1
GAS LISTING /tmp/ccq1AqqY.s 			page 21


 115:src/trap.cpp  ****         putString("Terminating kernel");
 733              		.loc 1 115 19 is_stmt 0
 734 0474 97000000 		call	_Z10putNewlinev@plt
 734      E7800000 
 735              	.LVL79:
 116:src/trap.cpp  ****         putNewline();
 736              		.loc 1 116 9 is_stmt 1
 116:src/trap.cpp  ****         putNewline();
 737              		.loc 1 116 18 is_stmt 0
 738 047c 17050000 		lla	a0,.LC9
 738      13050500 
 739 0484 97000000 		call	_Z9putStringPKc@plt
 739      E7800000 
 740              	.LVL80:
 117:src/trap.cpp  ****         assert(false);
 741              		.loc 1 117 9 is_stmt 1
 117:src/trap.cpp  ****         assert(false);
 742              		.loc 1 117 19 is_stmt 0
 743 048c 97000000 		call	_Z10putNewlinev@plt
 743      E7800000 
 744              	.LVL81:
 118:src/trap.cpp  ****     }
 745              		.loc 1 118 9 is_stmt 1
 746              	.LBB95:
 747              	.LBB96:
  21:src/../h/../h/my_console.h ****         return;
 748              		.loc 2 21 5
  24:src/../h/../h/my_console.h ****     putString(file);
 749              		.loc 2 24 5
  24:src/../h/../h/my_console.h ****     putString(file);
 750              		.loc 2 24 14 is_stmt 0
 751 0494 17050000 		lla	a0,.LC0
 751      13050500 
 752 049c 97000000 		call	_Z9putStringPKc@plt
 752      E7800000 
 753              	.LVL82:
  25:src/../h/../h/my_console.h ****     putString("    line: ");
 754              		.loc 2 25 5 is_stmt 1
  25:src/../h/../h/my_console.h ****     putString("    line: ");
 755              		.loc 2 25 14 is_stmt 0
 756 04a4 17050000 		lla	a0,.LC1
 756      13050500 
 757 04ac 97000000 		call	_Z9putStringPKc@plt
 757      E7800000 
 758              	.LVL83:
  26:src/../h/../h/my_console.h ****     putInt(line);
 759              		.loc 2 26 5 is_stmt 1
  26:src/../h/../h/my_console.h ****     putInt(line);
 760              		.loc 2 26 14 is_stmt 0
 761 04b4 17050000 		lla	a0,.LC2
 761      13050500 
 762 04bc 97000000 		call	_Z9putStringPKc@plt
 762      E7800000 
 763              	.LVL84:
  27:src/../h/../h/my_console.h ****     putString("   ===========================");
 764              		.loc 2 27 5 is_stmt 1
  27:src/../h/../h/my_console.h ****     putString("   ===========================");
GAS LISTING /tmp/ccq1AqqY.s 			page 22


 765              		.loc 2 27 11 is_stmt 0
 766 04c4 13056007 		li	a0,118
 767 04c8 97000000 		call	_Z6putInti@plt
 767      E7800000 
 768              	.LVL85:
  28:src/../h/../h/my_console.h ****     putNewline();
 769              		.loc 2 28 5 is_stmt 1
  28:src/../h/../h/my_console.h ****     putNewline();
 770              		.loc 2 28 14 is_stmt 0
 771 04d0 17050000 		lla	a0,.LC3
 771      13050500 
 772 04d8 97000000 		call	_Z9putStringPKc@plt
 772      E7800000 
 773              	.LVL86:
  29:src/../h/../h/my_console.h **** 
 774              		.loc 2 29 5 is_stmt 1
  29:src/../h/../h/my_console.h **** 
 775              		.loc 2 29 15 is_stmt 0
 776 04e0 97000000 		call	_Z10putNewlinev@plt
 776      E7800000 
 777              	.LVL87:
 778              		.loc 2 31 5 is_stmt 1
 779              		.loc 2 31 15 is_stmt 0
 780 04e8 97000000 		call	_Z10stopKernelv@plt
 780      E7800000 
 781              	.LVL88:
 782              	.L53:
 783              	.LBE96:
 784              	.LBE95:
 785              	.LBB97:
 125:src/trap.cpp  ****     }
 786              		.loc 1 125 9 is_stmt 1
 125:src/trap.cpp  ****     }
 787              		.loc 1 125 48 is_stmt 0
 788 04f0 97000000 		call	_ZN8MemAlloc3getEv@plt
 788      E7800000 
 789              	.LVL89:
 790 04f8 93050A00 		mv	a1,s4
 791 04fc 97000000 		call	_ZN8MemAlloc8allocMemEm@plt
 791      E7800000 
 792              	.LVL90:
 125:src/trap.cpp  ****     }
 793              		.loc 1 125 13
 794 0504 2334A4FA 		sd	a0,-88(s0)
 795              	.L25:
 796              	.LBE97:
 174:src/trap.cpp  ****         assert(false); // unknown code
 175:src/trap.cpp  ****         assert(false); // unknown code
 176:src/trap.cpp  ****         assert(false); // unknown code
 177:src/trap.cpp  ****     }
 178:src/trap.cpp  **** 
 179:src/trap.cpp  **** //    __asm__ volatile ("mv a0, %[name]" : : [name] "r" (ret)); // upaliti ovo dole umesto ovoga (o
 180:src/trap.cpp  **** 
 181:src/trap.cpp  ****     bool normalCallWithReturn = (code == 0x1) || (code == 0x2) || (code == 0x11) || (code == 0x12) 
 797              		.loc 1 181 5 is_stmt 1
 798              		.loc 1 181 47 is_stmt 0
 799 0508 9387F4FF 		addi	a5,s1,-1
GAS LISTING /tmp/ccq1AqqY.s 			page 23


 800              		.loc 1 181 190
 801 050c 13071000 		li	a4,1
 802 0510 6374F716 		bleu	a5,a4,.L40
 803              		.loc 1 181 64 discriminator 2
 804 0514 93071001 		li	a5,17
 805 0518 6388F41E 		beq	s1,a5,.L41
 806              		.loc 1 181 82 discriminator 4
 807 051c 93072001 		li	a5,18
 808 0520 6388F41E 		beq	s1,a5,.L42
 809              		.loc 1 181 100 discriminator 6
 810 0524 93071002 		li	a5,33
 811 0528 6388F41E 		beq	s1,a5,.L43
 812              		.loc 1 181 118 discriminator 8
 813 052c 93072002 		li	a5,34
 814 0530 6388F41E 		beq	s1,a5,.L44
 815              		.loc 1 181 136 discriminator 10
 816 0534 93073002 		li	a5,35
 817 0538 6388F41E 		beq	s1,a5,.L45
 818              		.loc 1 181 154 discriminator 12
 819 053c 93074002 		li	a5,36
 820 0540 6388F41E 		beq	s1,a5,.L46
 821              		.loc 1 181 172 discriminator 14
 822 0544 93071003 		li	a5,49
 823 0548 6388F41E 		beq	s1,a5,.L47
 824              		.loc 1 181 190 discriminator 16
 825 054c 93071004 		li	a5,65
 826 0550 6380F412 		beq	s1,a5,.L64
 827              		.loc 1 181 190
 828 0554 93060000 		li	a3,0
 829 0558 6F004012 		j	.L34
 830              	.L54:
 831              	.LBB98:
 832              	.LBB85:
 129:src/trap.cpp  ****     }
 833              		.loc 1 129 9 is_stmt 1
 129:src/trap.cpp  ****     }
 834              		.loc 1 129 49 is_stmt 0
 835 055c 97000000 		call	_ZN8MemAlloc3getEv@plt
 835      E7800000 
 836              	.LVL91:
 837 0564 93050A00 		mv	a1,s4
 838 0568 97000000 		call	_ZN8MemAlloc7freeMemEPv@plt
 838      E7800000 
 839              	.LVL92:
 129:src/trap.cpp  ****     }
 840              		.loc 1 129 23
 841 0570 2324A4FA 		sw	a0,-88(s0)
 842 0574 6FF05FF9 		j	.L25
 843              	.L55:
 844              	.LBB79:
 134:src/trap.cpp  ****     }
 845              		.loc 1 134 9 is_stmt 1
 134:src/trap.cpp  ****     }
 846              		.loc 1 134 31 is_stmt 0
 847 0578 13050A00 		mv	a0,s4
 848 057c 97000000 		call	_Z8testCallm
 848      E7800000 
GAS LISTING /tmp/ccq1AqqY.s 			page 24


 849              	.LVL93:
 134:src/trap.cpp  ****     }
 850              		.loc 1 134 13
 851 0584 2334A4FA 		sd	a0,-88(s0)
 852 0588 6FF01FF8 		j	.L25
 853              	.L56:
 854              	.LBB74:
 139:src/trap.cpp  ****     }
 855              		.loc 1 139 9 is_stmt 1
 139:src/trap.cpp  ****     }
 856              		.loc 1 139 29 is_stmt 0
 857 058c 97000000 		call	_ZN6Thread12switchToUserEv@plt
 857      E7800000 
 858              	.LVL94:
 859 0594 6FF05FF7 		j	.L25
 860              	.L57:
 861              	.LBB70:
 143:src/trap.cpp  ****     }
 862              		.loc 1 143 9 is_stmt 1
 143:src/trap.cpp  ****     }
 863              		.loc 1 143 45 is_stmt 0
 864 0598 13060B00 		mv	a2,s6
 865 059c 93850A00 		mv	a1,s5
 866 05a0 13050A00 		mv	a0,s4
 867 05a4 97000000 		call	_ZN6Thread12createThreadEPmPFvPvES1_@plt
 867      E7800000 
 868              	.LVL95:
 143:src/trap.cpp  ****     }
 869              		.loc 1 143 23
 870 05ac 2324A4FA 		sw	a0,-88(s0)
 871 05b0 6FF09FF5 		j	.L25
 872              	.L58:
 873              	.LBB67:
 147:src/trap.cpp  ****     }
 874              		.loc 1 147 9 is_stmt 1
 147:src/trap.cpp  ****     }
 875              		.loc 1 147 37 is_stmt 0
 876 05b4 97000000 		call	_ZN6Thread4exitEv@plt
 876      E7800000 
 877              	.LVL96:
 147:src/trap.cpp  ****     }
 878              		.loc 1 147 23
 879 05bc 2324A4FA 		sw	a0,-88(s0)
 880 05c0 6FF09FF4 		j	.L25
 881              	.L59:
 882              	.LBB65:
 883              	.LBB60:
 151:src/trap.cpp  ****         assert(Thread::getPRunning() != &kernelThread); // you're only supposed to open user thread
 884              		.loc 1 151 9 is_stmt 1
 152:src/trap.cpp  **** 
 885              		.loc 1 152 9
 886 05c4 97000000 		call	_ZN6Thread11getPRunningEv@plt
 886      E7800000 
 887              	.LVL97:
 888 05cc 97070000 		la	a5,kernelThread
 888      83B70700 
 889              	.LVL98:
GAS LISTING /tmp/ccq1AqqY.s 			page 25


 890              	.LBB61:
 891              	.LBB62:
  21:src/../h/../h/my_console.h ****         return;
 892              		.loc 2 21 5
 893 05d4 6388A702 		beq	a5,a0,.L65
  22:src/../h/../h/my_console.h **** 
 894              		.loc 2 22 9
 895              	.LVL99:
 896              	.LBE62:
 897              	.LBE61:
 154:src/trap.cpp  ****         Scheduler::put(Thread::getPRunning());
 898              		.loc 1 154 9
 154:src/trap.cpp  ****         Scheduler::put(Thread::getPRunning());
 899              		.loc 1 154 28 is_stmt 0
 900 05d8 97000000 		call	_ZN6Thread11getPRunningEv@plt
 900      E7800000 
 901              	.LVL100:
 154:src/trap.cpp  ****         Scheduler::put(Thread::getPRunning());
 902              		.loc 1 154 38
 903 05e0 93072000 		li	a5,2
 904 05e4 2320F500 		sw	a5,0(a0)
 155:src/trap.cpp  **** 
 905              		.loc 1 155 9 is_stmt 1
 155:src/trap.cpp  **** 
 906              		.loc 1 155 23 is_stmt 0
 907 05e8 97000000 		call	_ZN6Thread11getPRunningEv@plt
 907      E7800000 
 908              	.LVL101:
 909 05f0 97000000 		call	_ZN9Scheduler3putEP6Thread@plt
 909      E7800000 
 910              	.LVL102:
 157:src/trap.cpp  ****     }
 911              		.loc 1 157 9 is_stmt 1
 157:src/trap.cpp  ****     }
 912              		.loc 1 157 34 is_stmt 0
 913 05f8 97000000 		call	_ZN9Scheduler14dispatchToNextEv@plt
 913      E7800000 
 914              	.LVL103:
 915 0600 6FF09FF0 		j	.L25
 916              	.LVL104:
 917              	.L65:
 918              	.LBB64:
 919              	.LBB63:
  24:src/../h/../h/my_console.h ****     putString(file);
 920              		.loc 2 24 5 is_stmt 1
  24:src/../h/../h/my_console.h ****     putString(file);
 921              		.loc 2 24 14 is_stmt 0
 922 0604 17050000 		lla	a0,.LC0
 922      13050500 
 923              	.LVL105:
 924 060c 97000000 		call	_Z9putStringPKc@plt
 924      E7800000 
 925              	.LVL106:
  25:src/../h/../h/my_console.h ****     putString("    line: ");
 926              		.loc 2 25 5 is_stmt 1
  25:src/../h/../h/my_console.h ****     putString("    line: ");
 927              		.loc 2 25 14 is_stmt 0
GAS LISTING /tmp/ccq1AqqY.s 			page 26


 928 0614 17050000 		lla	a0,.LC1
 928      13050500 
 929 061c 97000000 		call	_Z9putStringPKc@plt
 929      E7800000 
 930              	.LVL107:
  26:src/../h/../h/my_console.h ****     putInt(line);
 931              		.loc 2 26 5 is_stmt 1
  26:src/../h/../h/my_console.h ****     putInt(line);
 932              		.loc 2 26 14 is_stmt 0
 933 0624 17050000 		lla	a0,.LC2
 933      13050500 
 934 062c 97000000 		call	_Z9putStringPKc@plt
 934      E7800000 
 935              	.LVL108:
  27:src/../h/../h/my_console.h ****     putString("   ===========================");
 936              		.loc 2 27 5 is_stmt 1
  27:src/../h/../h/my_console.h ****     putString("   ===========================");
 937              		.loc 2 27 11 is_stmt 0
 938 0634 13058009 		li	a0,152
 939 0638 97000000 		call	_Z6putInti@plt
 939      E7800000 
 940              	.LVL109:
  28:src/../h/../h/my_console.h ****     putNewline();
 941              		.loc 2 28 5 is_stmt 1
  28:src/../h/../h/my_console.h ****     putNewline();
 942              		.loc 2 28 14 is_stmt 0
 943 0640 17050000 		lla	a0,.LC3
 943      13050500 
 944 0648 97000000 		call	_Z9putStringPKc@plt
 944      E7800000 
 945              	.LVL110:
  29:src/../h/../h/my_console.h **** 
 946              		.loc 2 29 5 is_stmt 1
  29:src/../h/../h/my_console.h **** 
 947              		.loc 2 29 15 is_stmt 0
 948 0650 97000000 		call	_Z10putNewlinev@plt
 948      E7800000 
 949              	.LVL111:
 950              		.loc 2 31 5 is_stmt 1
 951              		.loc 2 31 15 is_stmt 0
 952 0658 97000000 		call	_Z10stopKernelv@plt
 952      E7800000 
 953              	.LVL112:
 954              	.L60:
 955              	.LBE63:
 956              	.LBE64:
 957              	.LBE60:
 161:src/trap.cpp  ****     }
 958              		.loc 1 161 9 is_stmt 1
 161:src/trap.cpp  ****     }
 959              		.loc 1 161 21 is_stmt 0
 960 0660 13050A00 		mv	a0,s4
 961 0664 97000000 		call	_ZN6Thread4joinEm@plt
 961      E7800000 
 962              	.LVL113:
 963 066c 6FF0DFE9 		j	.L25
 964              	.L64:
GAS LISTING /tmp/ccq1AqqY.s 			page 27


 965              	.LBE65:
 966              	.LBE67:
 967              	.LBE70:
 968              	.LBE74:
 969              	.LBE79:
 970              	.LBE85:
 971              	.LBE98:
 972              		.loc 1 181 190
 973 0670 93860B00 		mv	a3,s7
 974 0674 6F008000 		j	.L34
 975              	.L40:
 976 0678 93860B00 		mv	a3,s7
 977              	.L34:
 978              	.LVL114:
 182:src/trap.cpp  ****     bool customCallWithReturn = (code == 0x3);
 979              		.loc 1 182 5 is_stmt 1 discriminator 20
 183:src/trap.cpp  ****     bool customCallWithoutReturn = (code == 0x4);
 980              		.loc 1 183 5 discriminator 20
 184:src/trap.cpp  ****     bool normalCallWithoutReturn = (code == 0x13) || (code == 0x14) || (code == 0x42);
 981              		.loc 1 184 5 discriminator 20
 982              		.loc 1 184 51 is_stmt 0 discriminator 20
 983 067c 9387D4FE 		addi	a5,s1,-19
 984              		.loc 1 184 69 discriminator 20
 985 0680 13071000 		li	a4,1
 986 0684 6378F700 		bleu	a5,a4,.L35
 987              		.loc 1 184 69 discriminator 2
 988 0688 93072004 		li	a5,66
 989 068c 6384F400 		beq	s1,a5,.L35
 990              		.loc 1 184 69
 991 0690 930B0000 		li	s7,0
 992              	.L35:
 993              	.LVL115:
 185:src/trap.cpp  ****     if(normalCallWithReturn || customCallWithReturn)
 994              		.loc 1 185 5 is_stmt 1 discriminator 6
 995 0694 6396060A 		bnez	a3,.L36
 996              		.loc 1 185 29 is_stmt 0 discriminator 1
 997 0698 93073000 		li	a5,3
 998 069c 6382F40A 		beq	s1,a5,.L36
 186:src/trap.cpp  ****     { // system call with a return (not necessariliy 64bit)
 187:src/trap.cpp  **** 
 188:src/trap.cpp  ****         assert(ret != (uint64)-1); // not 100% check
 189:src/trap.cpp  **** 
 190:src/trap.cpp  ****         __asm__ volatile ("mv a0, %[name]" : : [name] "r" (ret));
 191:src/trap.cpp  ****     }
 192:src/trap.cpp  ****     else if(normalCallWithoutReturn || customCallWithoutReturn) // this exists for safety reasons
 999              		.loc 1 192 10 is_stmt 1
 1000 06a0 639A0B0A 		bnez	s7,.L39
 1001              		.loc 1 192 37 is_stmt 0 discriminator 1
 1002 06a4 93074000 		li	a5,4
 1003 06a8 6386F40A 		beq	s1,a5,.L39
 193:src/trap.cpp  ****     {
 194:src/trap.cpp  ****         ;
 195:src/trap.cpp  ****     }
 196:src/trap.cpp  ****     else
 197:src/trap.cpp  ****     {
 198:src/trap.cpp  ****         assert(false);
 1004              		.loc 1 198 9 is_stmt 1
GAS LISTING /tmp/ccq1AqqY.s 			page 28


 1005              	.LVL116:
 1006              	.LBB99:
 1007              	.LBB100:
  21:src/../h/../h/my_console.h ****         return;
 1008              		.loc 2 21 5
  24:src/../h/../h/my_console.h ****     putString(file);
 1009              		.loc 2 24 5
  24:src/../h/../h/my_console.h ****     putString(file);
 1010              		.loc 2 24 14 is_stmt 0
 1011 06ac 17050000 		lla	a0,.LC0
 1011      13050500 
 1012 06b4 97000000 		call	_Z9putStringPKc@plt
 1012      E7800000 
 1013              	.LVL117:
  25:src/../h/../h/my_console.h ****     putString("    line: ");
 1014              		.loc 2 25 5 is_stmt 1
  25:src/../h/../h/my_console.h ****     putString("    line: ");
 1015              		.loc 2 25 14 is_stmt 0
 1016 06bc 17050000 		lla	a0,.LC1
 1016      13050500 
 1017 06c4 97000000 		call	_Z9putStringPKc@plt
 1017      E7800000 
 1018              	.LVL118:
  26:src/../h/../h/my_console.h ****     putInt(line);
 1019              		.loc 2 26 5 is_stmt 1
  26:src/../h/../h/my_console.h ****     putInt(line);
 1020              		.loc 2 26 14 is_stmt 0
 1021 06cc 17050000 		lla	a0,.LC2
 1021      13050500 
 1022 06d4 97000000 		call	_Z9putStringPKc@plt
 1022      E7800000 
 1023              	.LVL119:
  27:src/../h/../h/my_console.h ****     putString("   ===========================");
 1024              		.loc 2 27 5 is_stmt 1
  27:src/../h/../h/my_console.h ****     putString("   ===========================");
 1025              		.loc 2 27 11 is_stmt 0
 1026 06dc 1305600C 		li	a0,198
 1027 06e0 97000000 		call	_Z6putInti@plt
 1027      E7800000 
 1028              	.LVL120:
  28:src/../h/../h/my_console.h ****     putNewline();
 1029              		.loc 2 28 5 is_stmt 1
  28:src/../h/../h/my_console.h ****     putNewline();
 1030              		.loc 2 28 14 is_stmt 0
 1031 06e8 17050000 		lla	a0,.LC3
 1031      13050500 
 1032 06f0 97000000 		call	_Z9putStringPKc@plt
 1032      E7800000 
 1033              	.LVL121:
  29:src/../h/../h/my_console.h **** 
 1034              		.loc 2 29 5 is_stmt 1
  29:src/../h/../h/my_console.h **** 
 1035              		.loc 2 29 15 is_stmt 0
 1036 06f8 97000000 		call	_Z10putNewlinev@plt
 1036      E7800000 
 1037              	.LVL122:
 1038              		.loc 2 31 5 is_stmt 1
GAS LISTING /tmp/ccq1AqqY.s 			page 29


 1039              		.loc 2 31 15 is_stmt 0
 1040 0700 97000000 		call	_Z10stopKernelv@plt
 1040      E7800000 
 1041              	.LVL123:
 1042              	.L41:
 1043              	.LBE100:
 1044              	.LBE99:
 181:src/trap.cpp  ****     bool customCallWithReturn = (code == 0x3);
 1045              		.loc 1 181 190
 1046 0708 93860B00 		mv	a3,s7
 1047 070c 6FF01FF7 		j	.L34
 1048              	.L42:
 1049 0710 93860B00 		mv	a3,s7
 1050 0714 6FF09FF6 		j	.L34
 1051              	.L43:
 1052 0718 93860B00 		mv	a3,s7
 1053 071c 6FF01FF6 		j	.L34
 1054              	.L44:
 1055 0720 93860B00 		mv	a3,s7
 1056 0724 6FF09FF5 		j	.L34
 1057              	.L45:
 1058 0728 93860B00 		mv	a3,s7
 1059 072c 6FF01FF5 		j	.L34
 1060              	.L46:
 1061 0730 93860B00 		mv	a3,s7
 1062 0734 6FF09FF4 		j	.L34
 1063              	.L47:
 1064 0738 93860B00 		mv	a3,s7
 1065 073c 6FF01FF4 		j	.L34
 1066              	.LVL124:
 1067              	.L36:
 188:src/trap.cpp  **** 
 1068              		.loc 1 188 9 is_stmt 1
 1069 0740 833784FA 		ld	a5,-88(s0)
 1070 0744 93871700 		addi	a5,a5,1
 1071              	.LVL125:
 1072              	.LBB101:
 1073              	.LBB102:
  21:src/../h/../h/my_console.h ****         return;
 1074              		.loc 2 21 5
 1075 0748 638E0702 		beqz	a5,.L66
  22:src/../h/../h/my_console.h **** 
 1076              		.loc 2 22 9
 1077              	.LVL126:
 1078              	.LBE102:
 1079              	.LBE101:
 190:src/trap.cpp  ****     }
 1080              		.loc 1 190 9
 190:src/trap.cpp  ****     }
 1081              		.loc 1 190 65 is_stmt 0
 1082 074c 833784FA 		ld	a5,-88(s0)
 1083              	#APP
 1084              	# 190 "src/trap.cpp" 1
 1085              		mv a0, a5
 1086              	# 0 "" 2
 1087              	#NO_APP
 1088              	.L39:
GAS LISTING /tmp/ccq1AqqY.s 			page 30


 199:src/trap.cpp  ****     }
 200:src/trap.cpp  **** 
 201:src/trap.cpp  ****     __asm__ volatile ("mv x10, x10");
 1089              		.loc 1 201 5 is_stmt 1
 1090              		.loc 1 201 37 is_stmt 0
 1091              	#APP
 1092              	# 201 "src/trap.cpp" 1
 202              	}
 1093              		mv x10, x10
 1094              	# 0 "" 2
 1095              		.loc 1 202 1
 1096              	#NO_APP
 1097 0758 83308105 		ld	ra,88(sp)
 1098              		.cfi_remember_state
 1099              		.cfi_restore 1
 1100 075c 03340105 		ld	s0,80(sp)
 1101              		.cfi_restore 8
 1102              		.cfi_def_cfa 2, 96
 1103 0760 83348104 		ld	s1,72(sp)
 1104              		.cfi_restore 9
 1105              	.LVL127:
 1106 0764 03390104 		ld	s2,64(sp)
 1107              		.cfi_restore 18
 1108 0768 83398103 		ld	s3,56(sp)
 1109              		.cfi_restore 19
 1110              	.LVL128:
 1111 076c 033A0103 		ld	s4,48(sp)
 1112              		.cfi_restore 20
 1113              	.LVL129:
 1114 0770 833A8102 		ld	s5,40(sp)
 1115              		.cfi_restore 21
 1116              	.LVL130:
 1117 0774 033B0102 		ld	s6,32(sp)
 1118              		.cfi_restore 22
 1119              	.LVL131:
 1120 0778 833B8101 		ld	s7,24(sp)
 1121              		.cfi_restore 23
 1122              	.LVL132:
 1123 077c 13010106 		addi	sp,sp,96
 1124              		.cfi_def_cfa_offset 0
 1125 0780 67800000 		jr	ra
 1126              	.LVL133:
 1127              	.L66:
 1128              		.cfi_restore_state
 1129              	.LBB104:
 1130              	.LBB103:
  24:src/../h/../h/my_console.h ****     putString(file);
 1131              		.loc 2 24 5 is_stmt 1
  24:src/../h/../h/my_console.h ****     putString(file);
 1132              		.loc 2 24 14 is_stmt 0
 1133 0784 17050000 		lla	a0,.LC0
 1133      13050500 
 1134 078c 97000000 		call	_Z9putStringPKc@plt
 1134      E7800000 
 1135              	.LVL134:
  25:src/../h/../h/my_console.h ****     putString("    line: ");
 1136              		.loc 2 25 5 is_stmt 1
GAS LISTING /tmp/ccq1AqqY.s 			page 31


  25:src/../h/../h/my_console.h ****     putString("    line: ");
 1137              		.loc 2 25 14 is_stmt 0
 1138 0794 17050000 		lla	a0,.LC1
 1138      13050500 
 1139 079c 97000000 		call	_Z9putStringPKc@plt
 1139      E7800000 
 1140              	.LVL135:
  26:src/../h/../h/my_console.h ****     putInt(line);
 1141              		.loc 2 26 5 is_stmt 1
  26:src/../h/../h/my_console.h ****     putInt(line);
 1142              		.loc 2 26 14 is_stmt 0
 1143 07a4 17050000 		lla	a0,.LC2
 1143      13050500 
 1144 07ac 97000000 		call	_Z9putStringPKc@plt
 1144      E7800000 
 1145              	.LVL136:
  27:src/../h/../h/my_console.h ****     putString("   ===========================");
 1146              		.loc 2 27 5 is_stmt 1
  27:src/../h/../h/my_console.h ****     putString("   ===========================");
 1147              		.loc 2 27 11 is_stmt 0
 1148 07b4 1305C00B 		li	a0,188
 1149 07b8 97000000 		call	_Z6putInti@plt
 1149      E7800000 
 1150              	.LVL137:
  28:src/../h/../h/my_console.h ****     putNewline();
 1151              		.loc 2 28 5 is_stmt 1
  28:src/../h/../h/my_console.h ****     putNewline();
 1152              		.loc 2 28 14 is_stmt 0
 1153 07c0 17050000 		lla	a0,.LC3
 1153      13050500 
 1154 07c8 97000000 		call	_Z9putStringPKc@plt
 1154      E7800000 
 1155              	.LVL138:
  29:src/../h/../h/my_console.h **** 
 1156              		.loc 2 29 5 is_stmt 1
  29:src/../h/../h/my_console.h **** 
 1157              		.loc 2 29 15 is_stmt 0
 1158 07d0 97000000 		call	_Z10putNewlinev@plt
 1158      E7800000 
 1159              	.LVL139:
 1160              		.loc 2 31 5 is_stmt 1
 1161              		.loc 2 31 15 is_stmt 0
 1162 07d8 97000000 		call	_Z10stopKernelv@plt
 1162      E7800000 
 1163              	.LVL140:
 1164              	.LBE103:
 1165              	.LBE104:
 1166              		.cfi_endproc
 1167              	.LFE21:
 1169              		.globl	gTimer
 1170              		.bss
 1171              		.align	3
 1174              	gTimer:
 1175 0000 00000000 		.zero	8
 1175      00000000 
 1176              		.text
 1177              	.Letext0:
GAS LISTING /tmp/ccq1AqqY.s 			page 32


 1178              		.file 3 "src/../h/../lib/hw.h"
 1179              		.file 4 "src/../h/thread.h"
 1180              		.file 5 "src/../h/scheduler.h"
 1181              		.file 6 "src/../h/alloc.h"
 1182              		.file 7 "src/../h/../h/c_api.h"
 1183              		.file 8 "src/../h/../h/../lib/console.h"
GAS LISTING /tmp/ccq1AqqY.s 			page 33


DEFINED SYMBOLS
                            *ABS*:0000000000000000 trap.cpp
     /tmp/ccq1AqqY.s:9      .text:0000000000000000 _Z8testCallm
     /tmp/ccq1AqqY.s:13     .text:0000000000000000 .L0 
     /tmp/ccq1AqqY.s:15     .text:0000000000000000 .L0 
     /tmp/ccq1AqqY.s:16     .text:0000000000000004 .L0 
     /tmp/ccq1AqqY.s:19     .text:000000000000000c .L0 
     /tmp/ccq1AqqY.s:20     .text:000000000000000c .L0 
     /tmp/ccq1AqqY.s:22     .text:0000000000000010 .L0 
     /tmp/ccq1AqqY.s:24     .text:0000000000000010 .L0 
     /tmp/ccq1AqqY.s:25     .text:0000000000000010 .L0 
     /tmp/ccq1AqqY.s:28     .text:0000000000000018 .L0 
     /tmp/ccq1AqqY.s:29     .text:000000000000001c .L0 
     /tmp/ccq1AqqY.s:31     .text:0000000000000020 .L0 
     /tmp/ccq1AqqY.s:32     .text:0000000000000020 .L0 
     /tmp/ccq1AqqY.s:34     .text:0000000000000024 .L0 
     /tmp/ccq1AqqY.s:36     .text:0000000000000028 .L0 
     /tmp/ccq1AqqY.s:56     .text:0000000000000028 _Z24cConsoleInterruptRoutinev
     /tmp/ccq1AqqY.s:59     .text:0000000000000028 .L0 
     /tmp/ccq1AqqY.s:60     .text:0000000000000028 .L0 
     /tmp/ccq1AqqY.s:61     .text:000000000000002c .L0 
     /tmp/ccq1AqqY.s:65     .text:0000000000000038 .L0 
     /tmp/ccq1AqqY.s:66     .text:0000000000000038 .L0 
     /tmp/ccq1AqqY.s:67     .text:0000000000000038 .L0 
     /tmp/ccq1AqqY.s:69     .text:000000000000003c .L0 
     /tmp/ccq1AqqY.s:71     .text:000000000000003c .L0 
     /tmp/ccq1AqqY.s:72     .text:000000000000003c .L0 
        src/trap.cpp:18     .text:000000000000003c .L0 
     /tmp/ccq1AqqY.s:79     .text:0000000000000040 .L0 
     /tmp/ccq1AqqY.s:81     .text:0000000000000040 .L0 
     /tmp/ccq1AqqY.s:84     .text:0000000000000044 .L0 
     /tmp/ccq1AqqY.s:94     .text:000000000000005c .L0 
     /tmp/ccq1AqqY.s:99     .text:0000000000000060 .L0 
     /tmp/ccq1AqqY.s:100    .text:0000000000000060 .L0 
     /tmp/ccq1AqqY.s:105    .text:0000000000000064 .L0 
     /tmp/ccq1AqqY.s:110    .text:0000000000000068 .L0 
     /tmp/ccq1AqqY.s:111    .text:0000000000000068 .L0 
        src/trap.cpp:28     .text:0000000000000068 .L0 
     /tmp/ccq1AqqY.s:117    .text:000000000000006c .L0 
     /tmp/ccq1AqqY.s:119    .text:000000000000006c .L0 
     /tmp/ccq1AqqY.s:122    .text:0000000000000074 .L0 
        src/trap.cpp:31     .text:0000000000000074 .L0 
     /tmp/ccq1AqqY.s:129    .text:0000000000000078 .L0 
     /tmp/ccq1AqqY.s:130    .text:000000000000007c .L0 
     /tmp/ccq1AqqY.s:131    .text:000000000000007c .L0 
     /tmp/ccq1AqqY.s:133    .text:0000000000000080 .L0 
     /tmp/ccq1AqqY.s:134    .text:0000000000000080 .L0 
     /tmp/ccq1AqqY.s:136    .text:0000000000000084 .L0 
     /tmp/ccq1AqqY.s:139    .text:0000000000000088 .L0 
     /tmp/ccq1AqqY.s:143    .text:000000000000008c .L0 
     /tmp/ccq1AqqY.s:147    .text:000000000000008c .L0 
     /tmp/ccq1AqqY.s:148    .text:000000000000008c .L0 
     /tmp/ccq1AqqY.s:153    .text:000000000000009c .L0 
     /tmp/ccq1AqqY.s:154    .text:000000000000009c .L0 
     /tmp/ccq1AqqY.s:158    .text:00000000000000ac .L0 
     /tmp/ccq1AqqY.s:159    .text:00000000000000ac .L0 
     /tmp/ccq1AqqY.s:163    .text:00000000000000bc .L0 
GAS LISTING /tmp/ccq1AqqY.s 			page 34


     /tmp/ccq1AqqY.s:164    .text:00000000000000bc .L0 
     /tmp/ccq1AqqY.s:168    .text:00000000000000c8 .L0 
     /tmp/ccq1AqqY.s:169    .text:00000000000000c8 .L0 
     /tmp/ccq1AqqY.s:173    .text:00000000000000d8 .L0 
     /tmp/ccq1AqqY.s:174    .text:00000000000000d8 .L0 
     /tmp/ccq1AqqY.s:177    .text:00000000000000e0 .L0 
     /tmp/ccq1AqqY.s:178    .text:00000000000000e0 .L0 
     /tmp/ccq1AqqY.s:186    .text:00000000000000e8 .L0 
     /tmp/ccq1AqqY.s:187    .text:00000000000000e8 .L0 
     /tmp/ccq1AqqY.s:191    .text:00000000000000f8 .L0 
     /tmp/ccq1AqqY.s:192    .text:00000000000000f8 .L0 
     /tmp/ccq1AqqY.s:196    .text:0000000000000108 .L0 
     /tmp/ccq1AqqY.s:197    .text:0000000000000108 .L0 
     /tmp/ccq1AqqY.s:201    .text:0000000000000118 .L0 
     /tmp/ccq1AqqY.s:202    .text:0000000000000118 .L0 
     /tmp/ccq1AqqY.s:206    .text:0000000000000124 .L0 
     /tmp/ccq1AqqY.s:207    .text:0000000000000124 .L0 
     /tmp/ccq1AqqY.s:211    .text:0000000000000134 .L0 
     /tmp/ccq1AqqY.s:212    .text:0000000000000134 .L0 
     /tmp/ccq1AqqY.s:215    .text:000000000000013c .L0 
     /tmp/ccq1AqqY.s:216    .text:000000000000013c .L0 
     /tmp/ccq1AqqY.s:220    .text:0000000000000144 .L0 
     /tmp/ccq1AqqY.s:226    .text:0000000000000144 _Z22cTimerInterruptRoutinev
     /tmp/ccq1AqqY.s:229    .text:0000000000000144 .L0 
     /tmp/ccq1AqqY.s:230    .text:0000000000000144 .L0 
     /tmp/ccq1AqqY.s:231    .text:0000000000000148 .L0 
     /tmp/ccq1AqqY.s:235    .text:0000000000000154 .L0 
     /tmp/ccq1AqqY.s:236    .text:0000000000000154 .L0 
     /tmp/ccq1AqqY.s:237    .text:0000000000000154 .L0 
     /tmp/ccq1AqqY.s:239    .text:0000000000000158 .L0 
     /tmp/ccq1AqqY.s:241    .text:0000000000000158 .L0 
     /tmp/ccq1AqqY.s:242    .text:0000000000000158 .L0 
        src/trap.cpp:40     .text:0000000000000158 .L0 
     /tmp/ccq1AqqY.s:249    .text:000000000000015c .L0 
     /tmp/ccq1AqqY.s:250    .text:000000000000015c .L0 
        src/trap.cpp:44     .text:000000000000015c .L0 
     /tmp/ccq1AqqY.s:256    .text:0000000000000160 .L0 
     /tmp/ccq1AqqY.s:265    .text:0000000000000178 .L0 
     /tmp/ccq1AqqY.s:271    .text:0000000000000180 .L0 
     /tmp/ccq1AqqY.s:272    .text:0000000000000180 .L0 
     /tmp/ccq1AqqY.s:275    .text:0000000000000188 .L0 
     /tmp/ccq1AqqY.s:279    .text:0000000000000190 .L0 
        src/trap.cpp:60     .text:0000000000000190 .L0 
     /tmp/ccq1AqqY.s:286    .text:0000000000000194 .L0 
     /tmp/ccq1AqqY.s:287    .text:0000000000000198 .L0 
     /tmp/ccq1AqqY.s:288    .text:0000000000000198 .L0 
     /tmp/ccq1AqqY.s:290    .text:000000000000019c .L0 
     /tmp/ccq1AqqY.s:291    .text:000000000000019c .L0 
     /tmp/ccq1AqqY.s:293    .text:00000000000001a0 .L0 
     /tmp/ccq1AqqY.s:296    .text:00000000000001a4 .L0 
     /tmp/ccq1AqqY.s:300    .text:00000000000001a8 .L0 
     /tmp/ccq1AqqY.s:304    .text:00000000000001a8 .L0 
     /tmp/ccq1AqqY.s:305    .text:00000000000001a8 .L0 
     /tmp/ccq1AqqY.s:310    .text:00000000000001b8 .L0 
     /tmp/ccq1AqqY.s:311    .text:00000000000001b8 .L0 
     /tmp/ccq1AqqY.s:315    .text:00000000000001c8 .L0 
     /tmp/ccq1AqqY.s:316    .text:00000000000001c8 .L0 
GAS LISTING /tmp/ccq1AqqY.s 			page 35


     /tmp/ccq1AqqY.s:320    .text:00000000000001d8 .L0 
     /tmp/ccq1AqqY.s:321    .text:00000000000001d8 .L0 
     /tmp/ccq1AqqY.s:325    .text:00000000000001e4 .L0 
     /tmp/ccq1AqqY.s:326    .text:00000000000001e4 .L0 
     /tmp/ccq1AqqY.s:330    .text:00000000000001f4 .L0 
     /tmp/ccq1AqqY.s:331    .text:00000000000001f4 .L0 
     /tmp/ccq1AqqY.s:334    .text:00000000000001fc .L0 
     /tmp/ccq1AqqY.s:335    .text:00000000000001fc .L0 
     /tmp/ccq1AqqY.s:341    .text:0000000000000204 .L0 
        src/trap.cpp:50     .text:0000000000000204 .L0 
     /tmp/ccq1AqqY.s:350    .text:000000000000020c .L0 
     /tmp/ccq1AqqY.s:351    .text:000000000000020c .L0 
     /tmp/ccq1AqqY.s:354    .text:0000000000000218 .L0 
     /tmp/ccq1AqqY.s:380    .text:0000000000000218 _Z25cInternalInterruptRoutinev
     /tmp/ccq1AqqY.s:383    .text:0000000000000218 .L0 
     /tmp/ccq1AqqY.s:384    .text:0000000000000218 .L0 
     /tmp/ccq1AqqY.s:385    .text:000000000000021c .L0 
     /tmp/ccq1AqqY.s:395    .text:0000000000000240 .L0 
     /tmp/ccq1AqqY.s:396    .text:0000000000000240 .L0 
     /tmp/ccq1AqqY.s:397    .text:0000000000000240 .L0 
     /tmp/ccq1AqqY.s:398    .text:0000000000000240 .L0 
     /tmp/ccq1AqqY.s:399    .text:0000000000000240 .L0 
     /tmp/ccq1AqqY.s:400    .text:0000000000000240 .L0 
     /tmp/ccq1AqqY.s:401    .text:0000000000000240 .L0 
     /tmp/ccq1AqqY.s:402    .text:0000000000000240 .L0 
     /tmp/ccq1AqqY.s:403    .text:0000000000000240 .L0 
     /tmp/ccq1AqqY.s:405    .text:0000000000000244 .L0 
     /tmp/ccq1AqqY.s:407    .text:0000000000000244 .L0 
     /tmp/ccq1AqqY.s:408    .text:0000000000000244 .L0 
        src/trap.cpp:67     .text:0000000000000244 .L0 
     /tmp/ccq1AqqY.s:415    .text:0000000000000248 .L0 
     /tmp/ccq1AqqY.s:416    .text:0000000000000248 .L0 
        src/trap.cpp:72     .text:0000000000000248 .L0 
     /tmp/ccq1AqqY.s:421    .text:000000000000024c .L0 
     /tmp/ccq1AqqY.s:422    .text:000000000000024c .L0 
        src/trap.cpp:75     .text:000000000000024c .L0 
     /tmp/ccq1AqqY.s:428    .text:0000000000000250 .L0 
        src/trap.cpp:76     .text:0000000000000250 .L0 
     /tmp/ccq1AqqY.s:434    .text:0000000000000254 .L0 
        src/trap.cpp:77     .text:0000000000000254 .L0 
     /tmp/ccq1AqqY.s:440    .text:0000000000000258 .L0 
        src/trap.cpp:78     .text:0000000000000258 .L0 
     /tmp/ccq1AqqY.s:446    .text:000000000000025c .L0 
        src/trap.cpp:81     .text:000000000000025c .L0 
     /tmp/ccq1AqqY.s:452    .text:0000000000000260 .L0 
     /tmp/ccq1AqqY.s:462    .text:000000000000027c .L0 
     /tmp/ccq1AqqY.s:469    .text:0000000000000288 .L0 
     /tmp/ccq1AqqY.s:470    .text:0000000000000288 .L0 
        src/trap.cpp:93     .text:0000000000000288 .L0 
     /tmp/ccq1AqqY.s:476    .text:000000000000028c .L0 
     /tmp/ccq1AqqY.s:478    .text:000000000000028c .L0 
     /tmp/ccq1AqqY.s:481    .text:0000000000000290 .L0 
     /tmp/ccq1AqqY.s:484    .text:0000000000000298 .L0 
     /tmp/ccq1AqqY.s:485    .text:0000000000000298 .L0 
     /tmp/ccq1AqqY.s:489    .text:00000000000002a0 .L0 
     /tmp/ccq1AqqY.s:495    .text:00000000000002a8 .L0 
     /tmp/ccq1AqqY.s:503    .text:00000000000002b0 .L0 
GAS LISTING /tmp/ccq1AqqY.s 			page 36


     /tmp/ccq1AqqY.s:513    .text:00000000000002b8 .L0 
     /tmp/ccq1AqqY.s:525    .text:00000000000002c0 .L0 
     /tmp/ccq1AqqY.s:539    .text:00000000000002c8 .L0 
     /tmp/ccq1AqqY.s:555    .text:00000000000002d0 .L0 
     /tmp/ccq1AqqY.s:558    .text:00000000000002d8 .L0 
     /tmp/ccq1AqqY.s:561    .text:00000000000002e0 .L0 
     /tmp/ccq1AqqY.s:564    .text:00000000000002e8 .L0 
     /tmp/ccq1AqqY.s:570    .text:00000000000002f0 .L0 
     /tmp/ccq1AqqY.s:571    .text:00000000000002f0 .L0 
     /tmp/ccq1AqqY.s:572    .text:00000000000002f0 .L0 
     /tmp/ccq1AqqY.s:573    .text:00000000000002f0 .L0 
     /tmp/ccq1AqqY.s:577    .text:0000000000000300 .L0 
     /tmp/ccq1AqqY.s:578    .text:0000000000000300 .L0 
     /tmp/ccq1AqqY.s:582    .text:0000000000000310 .L0 
     /tmp/ccq1AqqY.s:583    .text:0000000000000310 .L0 
     /tmp/ccq1AqqY.s:587    .text:0000000000000320 .L0 
     /tmp/ccq1AqqY.s:588    .text:0000000000000320 .L0 
     /tmp/ccq1AqqY.s:592    .text:000000000000032c .L0 
     /tmp/ccq1AqqY.s:593    .text:000000000000032c .L0 
     /tmp/ccq1AqqY.s:597    .text:000000000000033c .L0 
     /tmp/ccq1AqqY.s:598    .text:000000000000033c .L0 
     /tmp/ccq1AqqY.s:601    .text:0000000000000344 .L0 
     /tmp/ccq1AqqY.s:602    .text:0000000000000344 .L0 
     /tmp/ccq1AqqY.s:617    .text:000000000000034c .L0 
     /tmp/ccq1AqqY.s:618    .text:000000000000034c .L0 
     /tmp/ccq1AqqY.s:623    .text:000000000000035c .L0 
     /tmp/ccq1AqqY.s:624    .text:000000000000035c .L0 
     /tmp/ccq1AqqY.s:628    .text:000000000000036c .L0 
     /tmp/ccq1AqqY.s:629    .text:000000000000036c .L0 
     /tmp/ccq1AqqY.s:633    .text:000000000000037c .L0 
     /tmp/ccq1AqqY.s:634    .text:000000000000037c .L0 
     /tmp/ccq1AqqY.s:638    .text:0000000000000388 .L0 
     /tmp/ccq1AqqY.s:639    .text:0000000000000388 .L0 
     /tmp/ccq1AqqY.s:643    .text:0000000000000398 .L0 
     /tmp/ccq1AqqY.s:644    .text:0000000000000398 .L0 
     /tmp/ccq1AqqY.s:647    .text:00000000000003a0 .L0 
     /tmp/ccq1AqqY.s:648    .text:00000000000003a0 .L0 
     /tmp/ccq1AqqY.s:654    .text:00000000000003a8 .L0 
     /tmp/ccq1AqqY.s:655    .text:00000000000003a8 .L0 
     /tmp/ccq1AqqY.s:659    .text:00000000000003b8 .L0 
     /tmp/ccq1AqqY.s:662    .text:00000000000003c0 .L0 
     /tmp/ccq1AqqY.s:665    .text:00000000000003c8 .L0 
     /tmp/ccq1AqqY.s:668    .text:00000000000003d0 .L0 
     /tmp/ccq1AqqY.s:669    .text:00000000000003d0 .L0 
     /tmp/ccq1AqqY.s:675    .text:00000000000003e0 .L0 
     /tmp/ccq1AqqY.s:676    .text:00000000000003e0 .L0 
     /tmp/ccq1AqqY.s:677    .text:00000000000003e0 .L0 
     /tmp/ccq1AqqY.s:678    .text:00000000000003e0 .L0 
     /tmp/ccq1AqqY.s:682    .text:00000000000003f0 .L0 
     /tmp/ccq1AqqY.s:683    .text:00000000000003f0 .L0 
     /tmp/ccq1AqqY.s:687    .text:0000000000000400 .L0 
     /tmp/ccq1AqqY.s:688    .text:0000000000000400 .L0 
     /tmp/ccq1AqqY.s:692    .text:0000000000000410 .L0 
     /tmp/ccq1AqqY.s:693    .text:0000000000000410 .L0 
     /tmp/ccq1AqqY.s:697    .text:000000000000041c .L0 
     /tmp/ccq1AqqY.s:698    .text:000000000000041c .L0 
     /tmp/ccq1AqqY.s:702    .text:000000000000042c .L0 
GAS LISTING /tmp/ccq1AqqY.s 			page 37


     /tmp/ccq1AqqY.s:703    .text:000000000000042c .L0 
     /tmp/ccq1AqqY.s:706    .text:0000000000000434 .L0 
     /tmp/ccq1AqqY.s:707    .text:0000000000000434 .L0 
     /tmp/ccq1AqqY.s:713    .text:000000000000043c .L0 
     /tmp/ccq1AqqY.s:714    .text:000000000000043c .L0 
     /tmp/ccq1AqqY.s:720    .text:0000000000000450 .L0 
     /tmp/ccq1AqqY.s:721    .text:0000000000000450 .L0 
     /tmp/ccq1AqqY.s:727    .text:0000000000000464 .L0 
     /tmp/ccq1AqqY.s:728    .text:0000000000000464 .L0 
     /tmp/ccq1AqqY.s:733    .text:0000000000000474 .L0 
     /tmp/ccq1AqqY.s:734    .text:0000000000000474 .L0 
     /tmp/ccq1AqqY.s:737    .text:000000000000047c .L0 
     /tmp/ccq1AqqY.s:738    .text:000000000000047c .L0 
     /tmp/ccq1AqqY.s:742    .text:000000000000048c .L0 
     /tmp/ccq1AqqY.s:743    .text:000000000000048c .L0 
     /tmp/ccq1AqqY.s:748    .text:0000000000000494 .L0 
     /tmp/ccq1AqqY.s:749    .text:0000000000000494 .L0 
     /tmp/ccq1AqqY.s:750    .text:0000000000000494 .L0 
     /tmp/ccq1AqqY.s:751    .text:0000000000000494 .L0 
     /tmp/ccq1AqqY.s:755    .text:00000000000004a4 .L0 
     /tmp/ccq1AqqY.s:756    .text:00000000000004a4 .L0 
     /tmp/ccq1AqqY.s:760    .text:00000000000004b4 .L0 
     /tmp/ccq1AqqY.s:761    .text:00000000000004b4 .L0 
     /tmp/ccq1AqqY.s:765    .text:00000000000004c4 .L0 
     /tmp/ccq1AqqY.s:766    .text:00000000000004c4 .L0 
     /tmp/ccq1AqqY.s:770    .text:00000000000004d0 .L0 
     /tmp/ccq1AqqY.s:771    .text:00000000000004d0 .L0 
     /tmp/ccq1AqqY.s:775    .text:00000000000004e0 .L0 
     /tmp/ccq1AqqY.s:776    .text:00000000000004e0 .L0 
     /tmp/ccq1AqqY.s:779    .text:00000000000004e8 .L0 
     /tmp/ccq1AqqY.s:780    .text:00000000000004e8 .L0 
     /tmp/ccq1AqqY.s:787    .text:00000000000004f0 .L0 
     /tmp/ccq1AqqY.s:788    .text:00000000000004f0 .L0 
     /tmp/ccq1AqqY.s:794    .text:0000000000000504 .L0 
     /tmp/ccq1AqqY.s:798    .text:0000000000000508 .L0 
     /tmp/ccq1AqqY.s:799    .text:0000000000000508 .L0 
     /tmp/ccq1AqqY.s:801    .text:000000000000050c .L0 
     /tmp/ccq1AqqY.s:804    .text:0000000000000514 .L0 
     /tmp/ccq1AqqY.s:807    .text:000000000000051c .L0 
     /tmp/ccq1AqqY.s:810    .text:0000000000000524 .L0 
     /tmp/ccq1AqqY.s:813    .text:000000000000052c .L0 
     /tmp/ccq1AqqY.s:816    .text:0000000000000534 .L0 
     /tmp/ccq1AqqY.s:819    .text:000000000000053c .L0 
     /tmp/ccq1AqqY.s:822    .text:0000000000000544 .L0 
     /tmp/ccq1AqqY.s:825    .text:000000000000054c .L0 
     /tmp/ccq1AqqY.s:828    .text:0000000000000554 .L0 
     /tmp/ccq1AqqY.s:834    .text:000000000000055c .L0 
     /tmp/ccq1AqqY.s:835    .text:000000000000055c .L0 
     /tmp/ccq1AqqY.s:841    .text:0000000000000570 .L0 
     /tmp/ccq1AqqY.s:846    .text:0000000000000578 .L0 
     /tmp/ccq1AqqY.s:847    .text:0000000000000578 .L0 
     /tmp/ccq1AqqY.s:851    .text:0000000000000584 .L0 
     /tmp/ccq1AqqY.s:856    .text:000000000000058c .L0 
     /tmp/ccq1AqqY.s:857    .text:000000000000058c .L0 
     /tmp/ccq1AqqY.s:863    .text:0000000000000598 .L0 
     /tmp/ccq1AqqY.s:864    .text:0000000000000598 .L0 
     /tmp/ccq1AqqY.s:870    .text:00000000000005ac .L0 
GAS LISTING /tmp/ccq1AqqY.s 			page 38


     /tmp/ccq1AqqY.s:875    .text:00000000000005b4 .L0 
     /tmp/ccq1AqqY.s:876    .text:00000000000005b4 .L0 
     /tmp/ccq1AqqY.s:879    .text:00000000000005bc .L0 
     /tmp/ccq1AqqY.s:885    .text:00000000000005c4 .L0 
     /tmp/ccq1AqqY.s:886    .text:00000000000005c4 .L0 
     /tmp/ccq1AqqY.s:893    .text:00000000000005d4 .L0 
     /tmp/ccq1AqqY.s:898    .text:00000000000005d8 .L0 
     /tmp/ccq1AqqY.s:899    .text:00000000000005d8 .L0 
     /tmp/ccq1AqqY.s:900    .text:00000000000005d8 .L0 
     /tmp/ccq1AqqY.s:903    .text:00000000000005e0 .L0 
     /tmp/ccq1AqqY.s:906    .text:00000000000005e8 .L0 
     /tmp/ccq1AqqY.s:907    .text:00000000000005e8 .L0 
     /tmp/ccq1AqqY.s:912    .text:00000000000005f8 .L0 
     /tmp/ccq1AqqY.s:913    .text:00000000000005f8 .L0 
     /tmp/ccq1AqqY.s:921    .text:0000000000000604 .L0 
     /tmp/ccq1AqqY.s:922    .text:0000000000000604 .L0 
     /tmp/ccq1AqqY.s:927    .text:0000000000000614 .L0 
     /tmp/ccq1AqqY.s:928    .text:0000000000000614 .L0 
     /tmp/ccq1AqqY.s:932    .text:0000000000000624 .L0 
     /tmp/ccq1AqqY.s:933    .text:0000000000000624 .L0 
     /tmp/ccq1AqqY.s:937    .text:0000000000000634 .L0 
     /tmp/ccq1AqqY.s:938    .text:0000000000000634 .L0 
     /tmp/ccq1AqqY.s:942    .text:0000000000000640 .L0 
     /tmp/ccq1AqqY.s:943    .text:0000000000000640 .L0 
     /tmp/ccq1AqqY.s:947    .text:0000000000000650 .L0 
     /tmp/ccq1AqqY.s:948    .text:0000000000000650 .L0 
     /tmp/ccq1AqqY.s:951    .text:0000000000000658 .L0 
     /tmp/ccq1AqqY.s:952    .text:0000000000000658 .L0 
     /tmp/ccq1AqqY.s:959    .text:0000000000000660 .L0 
     /tmp/ccq1AqqY.s:960    .text:0000000000000660 .L0 
     /tmp/ccq1AqqY.s:973    .text:0000000000000670 .L0 
     /tmp/ccq1AqqY.s:980    .text:000000000000067c .L0 
     /tmp/ccq1AqqY.s:981    .text:000000000000067c .L0 
     /tmp/ccq1AqqY.s:982    .text:000000000000067c .L0 
     /tmp/ccq1AqqY.s:983    .text:000000000000067c .L0 
     /tmp/ccq1AqqY.s:985    .text:0000000000000680 .L0 
     /tmp/ccq1AqqY.s:988    .text:0000000000000688 .L0 
     /tmp/ccq1AqqY.s:991    .text:0000000000000690 .L0 
     /tmp/ccq1AqqY.s:995    .text:0000000000000694 .L0 
     /tmp/ccq1AqqY.s:997    .text:0000000000000698 .L0 
     /tmp/ccq1AqqY.s:1000   .text:00000000000006a0 .L0 
     /tmp/ccq1AqqY.s:1002   .text:00000000000006a4 .L0 
     /tmp/ccq1AqqY.s:1008   .text:00000000000006ac .L0 
     /tmp/ccq1AqqY.s:1009   .text:00000000000006ac .L0 
     /tmp/ccq1AqqY.s:1010   .text:00000000000006ac .L0 
     /tmp/ccq1AqqY.s:1011   .text:00000000000006ac .L0 
     /tmp/ccq1AqqY.s:1015   .text:00000000000006bc .L0 
     /tmp/ccq1AqqY.s:1016   .text:00000000000006bc .L0 
     /tmp/ccq1AqqY.s:1020   .text:00000000000006cc .L0 
     /tmp/ccq1AqqY.s:1021   .text:00000000000006cc .L0 
     /tmp/ccq1AqqY.s:1025   .text:00000000000006dc .L0 
     /tmp/ccq1AqqY.s:1026   .text:00000000000006dc .L0 
     /tmp/ccq1AqqY.s:1030   .text:00000000000006e8 .L0 
     /tmp/ccq1AqqY.s:1031   .text:00000000000006e8 .L0 
     /tmp/ccq1AqqY.s:1035   .text:00000000000006f8 .L0 
     /tmp/ccq1AqqY.s:1036   .text:00000000000006f8 .L0 
     /tmp/ccq1AqqY.s:1039   .text:0000000000000700 .L0 
GAS LISTING /tmp/ccq1AqqY.s 			page 39


     /tmp/ccq1AqqY.s:1040   .text:0000000000000700 .L0 
     /tmp/ccq1AqqY.s:1046   .text:0000000000000708 .L0 
     /tmp/ccq1AqqY.s:1069   .text:0000000000000740 .L0 
     /tmp/ccq1AqqY.s:1075   .text:0000000000000748 .L0 
     /tmp/ccq1AqqY.s:1080   .text:000000000000074c .L0 
     /tmp/ccq1AqqY.s:1081   .text:000000000000074c .L0 
     /tmp/ccq1AqqY.s:1082   .text:000000000000074c .L0 
     /tmp/ccq1AqqY.s:1090   .text:0000000000000754 .L0 
        src/trap.cpp:201    .text:0000000000000754 .L0 
     /tmp/ccq1AqqY.s:1097   .text:0000000000000758 .L0 
     /tmp/ccq1AqqY.s:1098   .text:000000000000075c .L0 
     /tmp/ccq1AqqY.s:1099   .text:000000000000075c .L0 
     /tmp/ccq1AqqY.s:1101   .text:0000000000000760 .L0 
     /tmp/ccq1AqqY.s:1102   .text:0000000000000760 .L0 
     /tmp/ccq1AqqY.s:1104   .text:0000000000000764 .L0 
     /tmp/ccq1AqqY.s:1107   .text:0000000000000768 .L0 
     /tmp/ccq1AqqY.s:1109   .text:000000000000076c .L0 
     /tmp/ccq1AqqY.s:1112   .text:0000000000000770 .L0 
     /tmp/ccq1AqqY.s:1115   .text:0000000000000774 .L0 
     /tmp/ccq1AqqY.s:1118   .text:0000000000000778 .L0 
     /tmp/ccq1AqqY.s:1121   .text:000000000000077c .L0 
     /tmp/ccq1AqqY.s:1124   .text:0000000000000780 .L0 
     /tmp/ccq1AqqY.s:1128   .text:0000000000000784 .L0 
     /tmp/ccq1AqqY.s:1132   .text:0000000000000784 .L0 
     /tmp/ccq1AqqY.s:1133   .text:0000000000000784 .L0 
     /tmp/ccq1AqqY.s:1137   .text:0000000000000794 .L0 
     /tmp/ccq1AqqY.s:1138   .text:0000000000000794 .L0 
     /tmp/ccq1AqqY.s:1142   .text:00000000000007a4 .L0 
     /tmp/ccq1AqqY.s:1143   .text:00000000000007a4 .L0 
     /tmp/ccq1AqqY.s:1147   .text:00000000000007b4 .L0 
     /tmp/ccq1AqqY.s:1148   .text:00000000000007b4 .L0 
     /tmp/ccq1AqqY.s:1152   .text:00000000000007c0 .L0 
     /tmp/ccq1AqqY.s:1153   .text:00000000000007c0 .L0 
     /tmp/ccq1AqqY.s:1157   .text:00000000000007d0 .L0 
     /tmp/ccq1AqqY.s:1158   .text:00000000000007d0 .L0 
     /tmp/ccq1AqqY.s:1161   .text:00000000000007d8 .L0 
     /tmp/ccq1AqqY.s:1162   .text:00000000000007d8 .L0 
     /tmp/ccq1AqqY.s:1166   .text:00000000000007e0 .L0 
     /tmp/ccq1AqqY.s:1174   .bss:0000000000000000 gTimer
     /tmp/ccq1AqqY.s:1184   .text:00000000000007e0 .L0 
     /tmp/ccq1AqqY.s:87     .text:0000000000000050 .L0 
     /tmp/ccq1AqqY.s:41     .rodata.str1.8:0000000000000000 .LC0
     /tmp/ccq1AqqY.s:148    .text:000000000000008c .L0 
     /tmp/ccq1AqqY.s:44     .rodata.str1.8:0000000000000028 .LC1
     /tmp/ccq1AqqY.s:154    .text:000000000000009c .L0 
     /tmp/ccq1AqqY.s:47     .rodata.str1.8:0000000000000038 .LC2
     /tmp/ccq1AqqY.s:159    .text:00000000000000ac .L0 
     /tmp/ccq1AqqY.s:50     .rodata.str1.8:0000000000000048 .LC3
     /tmp/ccq1AqqY.s:169    .text:00000000000000c8 .L0 
     /tmp/ccq1AqqY.s:187    .text:00000000000000e8 .L0 
     /tmp/ccq1AqqY.s:192    .text:00000000000000f8 .L0 
     /tmp/ccq1AqqY.s:197    .text:0000000000000108 .L0 
     /tmp/ccq1AqqY.s:207    .text:0000000000000124 .L0 
     /tmp/ccq1AqqY.s:259    .text:000000000000016c .L0 
     /tmp/ccq1AqqY.s:305    .text:00000000000001a8 .L0 
     /tmp/ccq1AqqY.s:311    .text:00000000000001b8 .L0 
     /tmp/ccq1AqqY.s:316    .text:00000000000001c8 .L0 
GAS LISTING /tmp/ccq1AqqY.s 			page 40


     /tmp/ccq1AqqY.s:326    .text:00000000000001e4 .L0 
     /tmp/ccq1AqqY.s:455    .text:000000000000026c .L0 
     /tmp/ccq1AqqY.s:573    .text:00000000000002f0 .L0 
     /tmp/ccq1AqqY.s:578    .text:0000000000000300 .L0 
     /tmp/ccq1AqqY.s:583    .text:0000000000000310 .L0 
     /tmp/ccq1AqqY.s:593    .text:000000000000032c .L0 
     /tmp/ccq1AqqY.s:618    .text:000000000000034c .L0 
     /tmp/ccq1AqqY.s:624    .text:000000000000035c .L0 
     /tmp/ccq1AqqY.s:629    .text:000000000000036c .L0 
     /tmp/ccq1AqqY.s:639    .text:0000000000000388 .L0 
     /tmp/ccq1AqqY.s:359    .rodata.str1.8:0000000000000068 .LC4
     /tmp/ccq1AqqY.s:655    .text:00000000000003a8 .L0 
     /tmp/ccq1AqqY.s:371    .rodata.str1.8:00000000000000d0 .LC8
     /tmp/ccq1AqqY.s:669    .text:00000000000003d0 .L0 
     /tmp/ccq1AqqY.s:678    .text:00000000000003e0 .L0 
     /tmp/ccq1AqqY.s:683    .text:00000000000003f0 .L0 
     /tmp/ccq1AqqY.s:688    .text:0000000000000400 .L0 
     /tmp/ccq1AqqY.s:698    .text:000000000000041c .L0 
     /tmp/ccq1AqqY.s:362    .rodata.str1.8:0000000000000088 .LC5
     /tmp/ccq1AqqY.s:714    .text:000000000000043c .L0 
     /tmp/ccq1AqqY.s:365    .rodata.str1.8:00000000000000a0 .LC6
     /tmp/ccq1AqqY.s:721    .text:0000000000000450 .L0 
     /tmp/ccq1AqqY.s:368    .rodata.str1.8:00000000000000b8 .LC7
     /tmp/ccq1AqqY.s:728    .text:0000000000000464 .L0 
     /tmp/ccq1AqqY.s:374    .rodata.str1.8:00000000000000f8 .LC9
     /tmp/ccq1AqqY.s:738    .text:000000000000047c .L0 
     /tmp/ccq1AqqY.s:751    .text:0000000000000494 .L0 
     /tmp/ccq1AqqY.s:756    .text:00000000000004a4 .L0 
     /tmp/ccq1AqqY.s:761    .text:00000000000004b4 .L0 
     /tmp/ccq1AqqY.s:771    .text:00000000000004d0 .L0 
     /tmp/ccq1AqqY.s:888    .text:00000000000005cc .L0 
     /tmp/ccq1AqqY.s:922    .text:0000000000000604 .L0 
     /tmp/ccq1AqqY.s:928    .text:0000000000000614 .L0 
     /tmp/ccq1AqqY.s:933    .text:0000000000000624 .L0 
     /tmp/ccq1AqqY.s:943    .text:0000000000000640 .L0 
     /tmp/ccq1AqqY.s:1011   .text:00000000000006ac .L0 
     /tmp/ccq1AqqY.s:1016   .text:00000000000006bc .L0 
     /tmp/ccq1AqqY.s:1021   .text:00000000000006cc .L0 
     /tmp/ccq1AqqY.s:1031   .text:00000000000006e8 .L0 
     /tmp/ccq1AqqY.s:1133   .text:0000000000000784 .L0 
     /tmp/ccq1AqqY.s:1138   .text:0000000000000794 .L0 
     /tmp/ccq1AqqY.s:1143   .text:00000000000007a4 .L0 
     /tmp/ccq1AqqY.s:1153   .text:00000000000007c0 .L0 
     /tmp/ccq1AqqY.s:142    .text:000000000000008c .L7
     /tmp/ccq1AqqY.s:180    .text:00000000000000e8 .L8
     /tmp/ccq1AqqY.s:299    .text:00000000000001a8 .L14
     /tmp/ccq1AqqY.s:337    .text:0000000000000204 .L15
     /tmp/ccq1AqqY.s:348    .text:000000000000020c .L16
     /tmp/ccq1AqqY.s:277    .text:0000000000000190 .L12
     /tmp/ccq1AqqY.s:604    .text:000000000000034c .L51
     /tmp/ccq1AqqY.s:650    .text:00000000000003a8 .L52
     /tmp/ccq1AqqY.s:782    .text:00000000000004f0 .L53
     /tmp/ccq1AqqY.s:830    .text:000000000000055c .L54
     /tmp/ccq1AqqY.s:843    .text:0000000000000578 .L55
     /tmp/ccq1AqqY.s:853    .text:000000000000058c .L56
     /tmp/ccq1AqqY.s:860    .text:0000000000000598 .L57
     /tmp/ccq1AqqY.s:872    .text:00000000000005b4 .L58
GAS LISTING /tmp/ccq1AqqY.s 			page 41


     /tmp/ccq1AqqY.s:881    .text:00000000000005c4 .L59
     /tmp/ccq1AqqY.s:954    .text:0000000000000660 .L60
     /tmp/ccq1AqqY.s:795    .text:0000000000000508 .L25
     /tmp/ccq1AqqY.s:709    .text:000000000000043c .L61
     /tmp/ccq1AqqY.s:718    .text:0000000000000450 .L62
     /tmp/ccq1AqqY.s:725    .text:0000000000000464 .L63
     /tmp/ccq1AqqY.s:731    .text:0000000000000474 .L21
     /tmp/ccq1AqqY.s:975    .text:0000000000000678 .L40
     /tmp/ccq1AqqY.s:1042   .text:0000000000000708 .L41
     /tmp/ccq1AqqY.s:1048   .text:0000000000000710 .L42
     /tmp/ccq1AqqY.s:1051   .text:0000000000000718 .L43
     /tmp/ccq1AqqY.s:1054   .text:0000000000000720 .L44
     /tmp/ccq1AqqY.s:1057   .text:0000000000000728 .L45
     /tmp/ccq1AqqY.s:1060   .text:0000000000000730 .L46
     /tmp/ccq1AqqY.s:1063   .text:0000000000000738 .L47
     /tmp/ccq1AqqY.s:964    .text:0000000000000670 .L64
     /tmp/ccq1AqqY.s:977    .text:000000000000067c .L34
     /tmp/ccq1AqqY.s:917    .text:0000000000000604 .L65
     /tmp/ccq1AqqY.s:992    .text:0000000000000694 .L35
     /tmp/ccq1AqqY.s:1067   .text:0000000000000740 .L36
     /tmp/ccq1AqqY.s:1088   .text:0000000000000754 .L39
     /tmp/ccq1AqqY.s:1127   .text:0000000000000784 .L66
     /tmp/ccq1AqqY.s:3183   .debug_abbrev:0000000000000000 .Ldebug_abbrev0
     /tmp/ccq1AqqY.s:5009   .debug_str:00000000000006cb .LASF126
     /tmp/ccq1AqqY.s:4857   .debug_str:00000000000002ac .LASF127
     /tmp/ccq1AqqY.s:4967   .debug_str:000000000000058e .LASF128
     /tmp/ccq1AqqY.s:5      .text:0000000000000000 .Ltext0
     /tmp/ccq1AqqY.s:1177   .text:00000000000007e0 .Letext0
     /tmp/ccq1AqqY.s:4775   .debug_line:0000000000000000 .Ldebug_line0
     /tmp/ccq1AqqY.s:4923   .debug_str:0000000000000464 .LASF0
     /tmp/ccq1AqqY.s:4943   .debug_str:00000000000004ee .LASF1
     /tmp/ccq1AqqY.s:4905   .debug_str:00000000000003de .LASF2
     /tmp/ccq1AqqY.s:4877   .debug_str:000000000000032d .LASF4
     /tmp/ccq1AqqY.s:4987   .debug_str:000000000000061f .LASF3
     /tmp/ccq1AqqY.s:4809   .debug_str:0000000000000116 .LASF5
     /tmp/ccq1AqqY.s:4945   .debug_str:0000000000000501 .LASF6
     /tmp/ccq1AqqY.s:4921   .debug_str:0000000000000451 .LASF7
     /tmp/ccq1AqqY.s:5017   .debug_str:00000000000007b6 .LASF8
     /tmp/ccq1AqqY.s:4861   .debug_str:00000000000002cc .LASF9
     /tmp/ccq1AqqY.s:4961   .debug_str:000000000000054f .LASF10
     /tmp/ccq1AqqY.s:5011   .debug_str:000000000000078f .LASF11
     /tmp/ccq1AqqY.s:4811   .debug_str:000000000000011d .LASF12
     /tmp/ccq1AqqY.s:4789   .debug_str:0000000000000087 .LASF13
     /tmp/ccq1AqqY.s:4823   .debug_str:00000000000001a5 .LASF14
     /tmp/ccq1AqqY.s:4981   .debug_str:00000000000005f9 .LASF15
     /tmp/ccq1AqqY.s:4835   .debug_str:00000000000001ed .LASF16
     /tmp/ccq1AqqY.s:5013   .debug_str:000000000000079e .LASF46
     /tmp/ccq1AqqY.s:4865   .debug_str:00000000000002e0 .LASF129
     /tmp/ccq1AqqY.s:4953   .debug_str:000000000000052b .LASF17
     /tmp/ccq1AqqY.s:4915   .debug_str:000000000000040c .LASF18
     /tmp/ccq1AqqY.s:4959   .debug_str:0000000000000549 .LASF19
     /tmp/ccq1AqqY.s:4913   .debug_str:00000000000003ff .LASF20
     /tmp/ccq1AqqY.s:4895   .debug_str:0000000000000397 .LASF21
     /tmp/ccq1AqqY.s:4951   .debug_str:000000000000051f .LASF22
     /tmp/ccq1AqqY.s:4939   .debug_str:00000000000004c8 .LASF23
     /tmp/ccq1AqqY.s:5005   .debug_str:00000000000006b4 .LASF24
     /tmp/ccq1AqqY.s:4989   .debug_str:0000000000000631 .LASF25
GAS LISTING /tmp/ccq1AqqY.s 			page 42


     /tmp/ccq1AqqY.s:4875   .debug_str:0000000000000321 .LASF26
     /tmp/ccq1AqqY.s:4849   .debug_str:000000000000026a .LASF27
     /tmp/ccq1AqqY.s:4779   .debug_str:0000000000000006 .LASF28
     /tmp/ccq1AqqY.s:5007   .debug_str:00000000000006bf .LASF29
     /tmp/ccq1AqqY.s:4839   .debug_str:0000000000000210 .LASF31
     /tmp/ccq1AqqY.s:4957   .debug_str:000000000000053d .LASF33
     /tmp/ccq1AqqY.s:4975   .debug_str:00000000000005c6 .LASF35
     /tmp/ccq1AqqY.s:4887   .debug_str:0000000000000354 .LASF45
     /tmp/ccq1AqqY.s:4785   .debug_str:0000000000000041 .LASF47
     /tmp/ccq1AqqY.s:4973   .debug_str:00000000000005c1 .LASF130
     /tmp/ccq1AqqY.s:4897   .debug_str:00000000000003a3 .LASF30
     /tmp/ccq1AqqY.s:4807   .debug_str:0000000000000104 .LASF32
     /tmp/ccq1AqqY.s:5043   .debug_str:0000000000000882 .LASF58
     /tmp/ccq1AqqY.s:4925   .debug_str:0000000000000471 .LASF60
     /tmp/ccq1AqqY.s:4991   .debug_str:0000000000000642 .LASF34
     /tmp/ccq1AqqY.s:4797   .debug_str:00000000000000be .LASF36
     /tmp/ccq1AqqY.s:4801   .debug_str:00000000000000ec .LASF37
     /tmp/ccq1AqqY.s:4881   .debug_str:000000000000033f .LASF38
     /tmp/ccq1AqqY.s:4935   .debug_str:00000000000004b9 .LASF39
     /tmp/ccq1AqqY.s:5041   .debug_str:0000000000000876 .LASF40
     /tmp/ccq1AqqY.s:4937   .debug_str:00000000000004be .LASF41
     /tmp/ccq1AqqY.s:4863   .debug_str:00000000000002da .LASF42
     /tmp/ccq1AqqY.s:5023   .debug_str:00000000000007db .LASF43
     /tmp/ccq1AqqY.s:4911   .debug_str:00000000000003fa .LASF44
     /tmp/ccq1AqqY.s:4965   .debug_str:0000000000000577 .LASF48
     /tmp/ccq1AqqY.s:4977   .debug_str:00000000000005e2 .LASF49
     /tmp/ccq1AqqY.s:4949   .debug_str:000000000000051a .LASF50
     /tmp/ccq1AqqY.s:4889   .debug_str:0000000000000361 .LASF51
     /tmp/ccq1AqqY.s:4791   .debug_str:0000000000000097 .LASF79
     /tmp/ccq1AqqY.s:4853   .debug_str:000000000000027e .LASF81
     /tmp/ccq1AqqY.s:4843   .debug_str:000000000000023a .LASF52
     /tmp/ccq1AqqY.s:5001   .debug_str:0000000000000696 .LASF53
     /tmp/ccq1AqqY.s:4993   .debug_str:0000000000000647 .LASF54
     /tmp/ccq1AqqY.s:4929   .debug_str:00000000000004a3 .LASF55
     /tmp/ccq1AqqY.s:4851   .debug_str:0000000000000279 .LASF56
     /tmp/ccq1AqqY.s:4955   .debug_str:0000000000000533 .LASF57
     /tmp/ccq1AqqY.s:4871   .debug_str:0000000000000303 .LASF68
     /tmp/ccq1AqqY.s:4969   .debug_str:00000000000005a2 .LASF59
     /tmp/ccq1AqqY.s:4919   .debug_str:0000000000000431 .LASF61
     /tmp/ccq1AqqY.s:4883   .debug_str:0000000000000344 .LASF62
     /tmp/ccq1AqqY.s:4821   .debug_str:000000000000018d .LASF63
     /tmp/ccq1AqqY.s:4917   .debug_str:0000000000000416 .LASF131
     /tmp/ccq1AqqY.s:4805   .debug_str:00000000000000f9 .LASF64
     /tmp/ccq1AqqY.s:4999   .debug_str:000000000000067a .LASF65
     /tmp/ccq1AqqY.s:4947   .debug_str:0000000000000514 .LASF66
     /tmp/ccq1AqqY.s:4903   .debug_str:00000000000003cc .LASF73
     /tmp/ccq1AqqY.s:4909   .debug_str:00000000000003f1 .LASF67
     /tmp/ccq1AqqY.s:4859   .debug_str:00000000000002b9 .LASF69
     /tmp/ccq1AqqY.s:4997   .debug_str:0000000000000671 .LASF72
     /tmp/ccq1AqqY.s:5003   .debug_str:00000000000006af .LASF70
     /tmp/ccq1AqqY.s:5031   .debug_str:0000000000000804 .LASF71
     /tmp/ccq1AqqY.s:4783   .debug_str:0000000000000024 .LASF74
     /tmp/ccq1AqqY.s:5029   .debug_str:00000000000007fa .LASF75
     /tmp/ccq1AqqY.s:4873   .debug_str:0000000000000317 .LASF76
     /tmp/ccq1AqqY.s:4901   .debug_str:00000000000003ae .LASF77
     /tmp/ccq1AqqY.s:5019   .debug_str:00000000000007c6 .LASF78
     /tmp/ccq1AqqY.s:5027   .debug_str:00000000000007f1 .LASF80
GAS LISTING /tmp/ccq1AqqY.s 			page 43


     /tmp/ccq1AqqY.s:4819   .debug_str:0000000000000175 .LASF82
     /tmp/ccq1AqqY.s:4885   .debug_str:000000000000034c .LASF83
     /tmp/ccq1AqqY.s:4869   .debug_str:00000000000002eb .LASF84
     /tmp/ccq1AqqY.s:5015   .debug_str:00000000000007a5 .LASF85
     /tmp/ccq1AqqY.s:4787   .debug_str:0000000000000066 .LASF86
     /tmp/ccq1AqqY.s:5035   .debug_str:0000000000000828 .LASF87
     /tmp/ccq1AqqY.s:5037   .debug_str:000000000000083b .LASF88
     /tmp/ccq1AqqY.s:4893   .debug_str:0000000000000389 .LASF89
     /tmp/ccq1AqqY.s:4941   .debug_str:00000000000004dd .LASF90
     /tmp/ccq1AqqY.s:4867   .debug_str:00000000000002e6 .LASF91
     /tmp/ccq1AqqY.s:4803   .debug_str:00000000000000f2 .LASF92
     /tmp/ccq1AqqY.s:4815   .debug_str:000000000000014b .LASF93
     /tmp/ccq1AqqY.s:5033   .debug_str:0000000000000809 .LASF94
     /tmp/ccq1AqqY.s:381    .text:0000000000000218 .LFB21
     /tmp/ccq1AqqY.s:1167   .text:00000000000007e0 .LFE21
     /tmp/ccq1AqqY.s:4793   .debug_str:00000000000000a2 .LASF95
     /tmp/ccq1AqqY.s:4092   .debug_loc:0000000000000000 .LLST14
     /tmp/ccq1AqqY.s:4899   .debug_str:00000000000003a8 .LASF96
     /tmp/ccq1AqqY.s:4103   .debug_loc:0000000000000036 .LLST15
     /tmp/ccq1AqqY.s:4933   .debug_str:00000000000004b4 .LASF97
     /tmp/ccq1AqqY.s:4126   .debug_loc:00000000000000a5 .LLST16
     /tmp/ccq1AqqY.s:4827   .debug_str:00000000000001bc .LASF98
     /tmp/ccq1AqqY.s:4137   .debug_loc:00000000000000db .LLST17
     /tmp/ccq1AqqY.s:4829   .debug_str:00000000000001c7 .LASF99
     /tmp/ccq1AqqY.s:4148   .debug_loc:0000000000000111 .LLST18
     /tmp/ccq1AqqY.s:4831   .debug_str:00000000000001d2 .LASF100
     /tmp/ccq1AqqY.s:4159   .debug_loc:0000000000000147 .LLST19
     /tmp/ccq1AqqY.s:4855   .debug_str:0000000000000297 .LASF101
     /tmp/ccq1AqqY.s:4170   .debug_loc:000000000000017d .LLST20
     /tmp/ccq1AqqY.s:4795   .debug_str:00000000000000a9 .LASF102
     /tmp/ccq1AqqY.s:4181   .debug_loc:00000000000001b3 .LLST21
     /tmp/ccq1AqqY.s:5039   .debug_str:000000000000085e .LASF103
     /tmp/ccq1AqqY.s:4208   .debug_loc:0000000000000208 .LLST22
     /tmp/ccq1AqqY.s:4845   .debug_str:0000000000000245 .LASF104
     /tmp/ccq1AqqY.s:4235   .debug_loc:000000000000025d .LLST23
     /tmp/ccq1AqqY.s:883    .text:00000000000005c4 .LBB60
     /tmp/ccq1AqqY.s:957    .text:0000000000000660 .LBE60
     /tmp/ccq1AqqY.s:4847   .debug_str:000000000000025d .LASF105
     /tmp/ccq1AqqY.s:890    .text:00000000000005d4 .LBB61
     /tmp/ccq1AqqY.s:4737   .debug_ranges:0000000000000000 .Ldebug_ranges0
     /tmp/ccq1AqqY.s:4250   .debug_loc:00000000000002a6 .LLST30
     /tmp/ccq1AqqY.s:4265   .debug_loc:00000000000002e0 .LLST31
     /tmp/ccq1AqqY.s:4280   .debug_loc:0000000000000328 .LLST32
     /tmp/ccq1AqqY.s:925    .text:0000000000000614 .LVL106
     /tmp/ccq1AqqY.s:930    .text:0000000000000624 .LVL107
     /tmp/ccq1AqqY.s:935    .text:0000000000000634 .LVL108
     /tmp/ccq1AqqY.s:940    .text:0000000000000640 .LVL109
     /tmp/ccq1AqqY.s:945    .text:0000000000000650 .LVL110
     /tmp/ccq1AqqY.s:949    .text:0000000000000658 .LVL111
     /tmp/ccq1AqqY.s:953    .text:0000000000000660 .LVL112
     /tmp/ccq1AqqY.s:887    .text:00000000000005cc .LVL97
     /tmp/ccq1AqqY.s:901    .text:00000000000005e0 .LVL100
     /tmp/ccq1AqqY.s:908    .text:00000000000005f0 .LVL101
     /tmp/ccq1AqqY.s:910    .text:00000000000005f8 .LVL102
     /tmp/ccq1AqqY.s:914    .text:0000000000000600 .LVL103
     /tmp/ccq1AqqY.s:459    .text:000000000000027c .LBB48
     /tmp/ccq1AqqY.s:4305   .debug_loc:000000000000036c .LLST24
GAS LISTING /tmp/ccq1AqqY.s 			page 44


     /tmp/ccq1AqqY.s:4320   .debug_loc:00000000000003a6 .LLST25
     /tmp/ccq1AqqY.s:4335   .debug_loc:00000000000003ee .LLST26
     /tmp/ccq1AqqY.s:621    .text:000000000000035c .LVL60
     /tmp/ccq1AqqY.s:626    .text:000000000000036c .LVL61
     /tmp/ccq1AqqY.s:631    .text:000000000000037c .LVL62
     /tmp/ccq1AqqY.s:636    .text:0000000000000388 .LVL63
     /tmp/ccq1AqqY.s:641    .text:0000000000000398 .LVL64
     /tmp/ccq1AqqY.s:645    .text:00000000000003a0 .LVL65
     /tmp/ccq1AqqY.s:649    .text:00000000000003a8 .LVL66
     /tmp/ccq1AqqY.s:568    .text:00000000000002f0 .LBB58
     /tmp/ccq1AqqY.s:606    .text:000000000000034c .LBE58
     /tmp/ccq1AqqY.s:4354   .debug_loc:000000000000042c .LLST27
     /tmp/ccq1AqqY.s:4363   .debug_loc:0000000000000451 .LLST28
     /tmp/ccq1AqqY.s:4372   .debug_loc:000000000000047d .LLST29
     /tmp/ccq1AqqY.s:575    .text:0000000000000300 .LVL52
     /tmp/ccq1AqqY.s:580    .text:0000000000000310 .LVL53
     /tmp/ccq1AqqY.s:585    .text:0000000000000320 .LVL54
     /tmp/ccq1AqqY.s:590    .text:000000000000032c .LVL55
     /tmp/ccq1AqqY.s:595    .text:000000000000033c .LVL56
     /tmp/ccq1AqqY.s:599    .text:0000000000000344 .LVL57
     /tmp/ccq1AqqY.s:603    .text:000000000000034c .LVL58
     /tmp/ccq1AqqY.s:673    .text:00000000000003e0 .LBB93
     /tmp/ccq1AqqY.s:711    .text:000000000000043c .LBE93
     /tmp/ccq1AqqY.s:4380   .debug_loc:00000000000004a1 .LLST33
     /tmp/ccq1AqqY.s:4389   .debug_loc:00000000000004c6 .LLST34
     /tmp/ccq1AqqY.s:4398   .debug_loc:00000000000004f2 .LLST35
     /tmp/ccq1AqqY.s:680    .text:00000000000003f0 .LVL69
     /tmp/ccq1AqqY.s:685    .text:0000000000000400 .LVL70
     /tmp/ccq1AqqY.s:690    .text:0000000000000410 .LVL71
     /tmp/ccq1AqqY.s:695    .text:000000000000041c .LVL72
     /tmp/ccq1AqqY.s:700    .text:000000000000042c .LVL73
     /tmp/ccq1AqqY.s:704    .text:0000000000000434 .LVL74
     /tmp/ccq1AqqY.s:708    .text:000000000000043c .LVL75
     /tmp/ccq1AqqY.s:746    .text:0000000000000494 .LBB95
     /tmp/ccq1AqqY.s:784    .text:00000000000004f0 .LBE95
     /tmp/ccq1AqqY.s:4406   .debug_loc:0000000000000516 .LLST36
     /tmp/ccq1AqqY.s:4415   .debug_loc:000000000000053b .LLST37
     /tmp/ccq1AqqY.s:4424   .debug_loc:0000000000000567 .LLST38
     /tmp/ccq1AqqY.s:753    .text:00000000000004a4 .LVL82
     /tmp/ccq1AqqY.s:758    .text:00000000000004b4 .LVL83
     /tmp/ccq1AqqY.s:763    .text:00000000000004c4 .LVL84
     /tmp/ccq1AqqY.s:768    .text:00000000000004d0 .LVL85
     /tmp/ccq1AqqY.s:773    .text:00000000000004e0 .LVL86
     /tmp/ccq1AqqY.s:777    .text:00000000000004e8 .LVL87
     /tmp/ccq1AqqY.s:781    .text:00000000000004f0 .LVL88
     /tmp/ccq1AqqY.s:1006   .text:00000000000006ac .LBB99
     /tmp/ccq1AqqY.s:1044   .text:0000000000000708 .LBE99
     /tmp/ccq1AqqY.s:4432   .debug_loc:000000000000058b .LLST39
     /tmp/ccq1AqqY.s:4441   .debug_loc:00000000000005b0 .LLST40
     /tmp/ccq1AqqY.s:4450   .debug_loc:00000000000005dc .LLST41
     /tmp/ccq1AqqY.s:1013   .text:00000000000006bc .LVL117
     /tmp/ccq1AqqY.s:1018   .text:00000000000006cc .LVL118
     /tmp/ccq1AqqY.s:1023   .text:00000000000006dc .LVL119
     /tmp/ccq1AqqY.s:1028   .text:00000000000006e8 .LVL120
     /tmp/ccq1AqqY.s:1033   .text:00000000000006f8 .LVL121
     /tmp/ccq1AqqY.s:1037   .text:0000000000000700 .LVL122
     /tmp/ccq1AqqY.s:1041   .text:0000000000000708 .LVL123
GAS LISTING /tmp/ccq1AqqY.s 			page 45


     /tmp/ccq1AqqY.s:1072   .text:0000000000000748 .LBB101
     /tmp/ccq1AqqY.s:4458   .debug_loc:0000000000000600 .LLST42
     /tmp/ccq1AqqY.s:4473   .debug_loc:000000000000063a .LLST43
     /tmp/ccq1AqqY.s:4488   .debug_loc:0000000000000682 .LLST44
     /tmp/ccq1AqqY.s:1135   .text:0000000000000794 .LVL134
     /tmp/ccq1AqqY.s:1140   .text:00000000000007a4 .LVL135
     /tmp/ccq1AqqY.s:1145   .text:00000000000007b4 .LVL136
     /tmp/ccq1AqqY.s:1150   .text:00000000000007c0 .LVL137
     /tmp/ccq1AqqY.s:1155   .text:00000000000007d0 .LVL138
     /tmp/ccq1AqqY.s:1159   .text:00000000000007d8 .LVL139
     /tmp/ccq1AqqY.s:1163   .text:00000000000007e0 .LVL140
     /tmp/ccq1AqqY.s:453    .text:0000000000000268 .LVL47
     /tmp/ccq1AqqY.s:657    .text:00000000000003b8 .LVL67
     /tmp/ccq1AqqY.s:671    .text:00000000000003e0 .LVL68
     /tmp/ccq1AqqY.s:716    .text:000000000000044c .LVL76
     /tmp/ccq1AqqY.s:723    .text:0000000000000460 .LVL77
     /tmp/ccq1AqqY.s:730    .text:0000000000000474 .LVL78
     /tmp/ccq1AqqY.s:735    .text:000000000000047c .LVL79
     /tmp/ccq1AqqY.s:740    .text:000000000000048c .LVL80
     /tmp/ccq1AqqY.s:744    .text:0000000000000494 .LVL81
     /tmp/ccq1AqqY.s:789    .text:00000000000004f8 .LVL89
     /tmp/ccq1AqqY.s:792    .text:0000000000000504 .LVL90
     /tmp/ccq1AqqY.s:836    .text:0000000000000564 .LVL91
     /tmp/ccq1AqqY.s:839    .text:0000000000000570 .LVL92
     /tmp/ccq1AqqY.s:849    .text:0000000000000584 .LVL93
     /tmp/ccq1AqqY.s:858    .text:0000000000000594 .LVL94
     /tmp/ccq1AqqY.s:868    .text:00000000000005ac .LVL95
     /tmp/ccq1AqqY.s:877    .text:00000000000005bc .LVL96
     /tmp/ccq1AqqY.s:962    .text:000000000000066c .LVL113
     /tmp/ccq1AqqY.s:4927   .debug_str:000000000000048c .LASF106
     /tmp/ccq1AqqY.s:4799   .debug_str:00000000000000d0 .LASF107
     /tmp/ccq1AqqY.s:227    .text:0000000000000144 .LFB20
     /tmp/ccq1AqqY.s:355    .text:0000000000000218 .LFE20
     /tmp/ccq1AqqY.s:4507   .debug_loc:00000000000006c0 .LLST9
     /tmp/ccq1AqqY.s:4518   .debug_loc:00000000000006f6 .LLST10
     /tmp/ccq1AqqY.s:262    .text:0000000000000178 .LBB16
     /tmp/ccq1AqqY.s:4529   .debug_loc:000000000000072c .LLST11
     /tmp/ccq1AqqY.s:4544   .debug_loc:0000000000000766 .LLST12
     /tmp/ccq1AqqY.s:4559   .debug_loc:00000000000007ae .LLST13
     /tmp/ccq1AqqY.s:308    .text:00000000000001b8 .LVL34
     /tmp/ccq1AqqY.s:313    .text:00000000000001c8 .LVL35
     /tmp/ccq1AqqY.s:318    .text:00000000000001d8 .LVL36
     /tmp/ccq1AqqY.s:323    .text:00000000000001e4 .LVL37
     /tmp/ccq1AqqY.s:328    .text:00000000000001f4 .LVL38
     /tmp/ccq1AqqY.s:332    .text:00000000000001fc .LVL39
     /tmp/ccq1AqqY.s:336    .text:0000000000000204 .LVL40
     /tmp/ccq1AqqY.s:257    .text:0000000000000168 .LVL28
     /tmp/ccq1AqqY.s:352    .text:0000000000000214 .LVL41
     /tmp/ccq1AqqY.s:4963   .debug_str:000000000000055e .LASF108
     /tmp/ccq1AqqY.s:4813   .debug_str:000000000000012d .LASF109
     /tmp/ccq1AqqY.s:57     .text:0000000000000028 .LFB19
     /tmp/ccq1AqqY.s:221    .text:0000000000000144 .LFE19
     /tmp/ccq1AqqY.s:4584   .debug_loc:00000000000007f2 .LLST1
     /tmp/ccq1AqqY.s:4591   .debug_loc:0000000000000815 .LLST2
     /tmp/ccq1AqqY.s:90     .text:000000000000005c .LBB6
     /tmp/ccq1AqqY.s:4602   .debug_loc:000000000000084b .LLST3
     /tmp/ccq1AqqY.s:4615   .debug_loc:0000000000000883 .LLST4
GAS LISTING /tmp/ccq1AqqY.s 			page 46


     /tmp/ccq1AqqY.s:4630   .debug_loc:00000000000008cb .LLST5
     /tmp/ccq1AqqY.s:151    .text:000000000000009c .LVL13
     /tmp/ccq1AqqY.s:156    .text:00000000000000ac .LVL14
     /tmp/ccq1AqqY.s:161    .text:00000000000000bc .LVL15
     /tmp/ccq1AqqY.s:166    .text:00000000000000c8 .LVL16
     /tmp/ccq1AqqY.s:171    .text:00000000000000d8 .LVL17
     /tmp/ccq1AqqY.s:175    .text:00000000000000e0 .LVL18
     /tmp/ccq1AqqY.s:179    .text:00000000000000e8 .LVL19
     /tmp/ccq1AqqY.s:102    .text:0000000000000064 .LBB9
     /tmp/ccq1AqqY.s:4655   .debug_loc:000000000000090f .LLST6
     /tmp/ccq1AqqY.s:4668   .debug_loc:0000000000000947 .LLST7
     /tmp/ccq1AqqY.s:4683   .debug_loc:000000000000098f .LLST8
     /tmp/ccq1AqqY.s:189    .text:00000000000000f8 .LVL20
     /tmp/ccq1AqqY.s:194    .text:0000000000000108 .LVL21
     /tmp/ccq1AqqY.s:199    .text:0000000000000118 .LVL22
     /tmp/ccq1AqqY.s:204    .text:0000000000000124 .LVL23
     /tmp/ccq1AqqY.s:209    .text:0000000000000134 .LVL24
     /tmp/ccq1AqqY.s:213    .text:000000000000013c .LVL25
     /tmp/ccq1AqqY.s:217    .text:0000000000000144 .LVL26
     /tmp/ccq1AqqY.s:85     .text:000000000000004c .LVL4
     /tmp/ccq1AqqY.s:120    .text:0000000000000074 .LVL9
     /tmp/ccq1AqqY.s:5025   .debug_str:00000000000007e8 .LASF132
     /tmp/ccq1AqqY.s:4837   .debug_str:0000000000000203 .LASF133
     /tmp/ccq1AqqY.s:10     .text:0000000000000000 .LFB18
     /tmp/ccq1AqqY.s:37     .text:0000000000000028 .LFE18
     /tmp/ccq1AqqY.s:4710   .debug_loc:00000000000009e4 .LLST0
     /tmp/ccq1AqqY.s:26     .text:0000000000000018 .LVL1
     /tmp/ccq1AqqY.s:4979   .debug_str:00000000000005f1 .LASF110
     /tmp/ccq1AqqY.s:4833   .debug_str:00000000000001dd .LASF111
     /tmp/ccq1AqqY.s:4777   .debug_str:0000000000000000 .LASF112
     /tmp/ccq1AqqY.s:4907   .debug_str:00000000000003ec .LASF113
     /tmp/ccq1AqqY.s:4983   .debug_str:000000000000060f .LASF114
     /tmp/ccq1AqqY.s:4817   .debug_str:0000000000000165 .LASF115
     /tmp/ccq1AqqY.s:5021   .debug_str:00000000000007d1 .LASF117
     /tmp/ccq1AqqY.s:4879   .debug_str:0000000000000334 .LASF116
     /tmp/ccq1AqqY.s:4781   .debug_str:000000000000001d .LASF118
     /tmp/ccq1AqqY.s:4995   .debug_str:0000000000000661 .LASF119
     /tmp/ccq1AqqY.s:4985   .debug_str:0000000000000614 .LASF120
     /tmp/ccq1AqqY.s:4971   .debug_str:00000000000005b1 .LASF121
     /tmp/ccq1AqqY.s:4891   .debug_str:000000000000037e .LASF122
     /tmp/ccq1AqqY.s:4825   .debug_str:00000000000001b1 .LASF123
     /tmp/ccq1AqqY.s:4841   .debug_str:000000000000022a .LASF124
     /tmp/ccq1AqqY.s:4931   .debug_str:00000000000004ac .LASF125
     /tmp/ccq1AqqY.s:413    .text:0000000000000248 .LVL42
     /tmp/ccq1AqqY.s:479    .text:0000000000000290 .LVL50
     /tmp/ccq1AqqY.s:1110   .text:000000000000076c .LVL128
     /tmp/ccq1AqqY.s:1126   .text:0000000000000784 .LVL133
     /tmp/ccq1AqqY.s:426    .text:0000000000000250 .LVL43
     /tmp/ccq1AqqY.s:1105   .text:0000000000000764 .LVL127
     /tmp/ccq1AqqY.s:432    .text:0000000000000254 .LVL44
     /tmp/ccq1AqqY.s:1113   .text:0000000000000770 .LVL129
     /tmp/ccq1AqqY.s:438    .text:0000000000000258 .LVL45
     /tmp/ccq1AqqY.s:1116   .text:0000000000000774 .LVL130
     /tmp/ccq1AqqY.s:444    .text:000000000000025c .LVL46
     /tmp/ccq1AqqY.s:1119   .text:0000000000000778 .LVL131
     /tmp/ccq1AqqY.s:978    .text:000000000000067c .LVL114
     /tmp/ccq1AqqY.s:1066   .text:0000000000000740 .LVL124
GAS LISTING /tmp/ccq1AqqY.s 			page 47


     /tmp/ccq1AqqY.s:993    .text:0000000000000694 .LVL115
     /tmp/ccq1AqqY.s:1122   .text:000000000000077c .LVL132
     /tmp/ccq1AqqY.s:889    .text:00000000000005d4 .LVL98
     /tmp/ccq1AqqY.s:895    .text:00000000000005d8 .LVL99
     /tmp/ccq1AqqY.s:916    .text:0000000000000604 .LVL104
     /tmp/ccq1AqqY.s:923    .text:000000000000060c .LVL105
     /tmp/ccq1AqqY.s:458    .text:000000000000027c .LVL48
     /tmp/ccq1AqqY.s:466    .text:0000000000000288 .LVL49
     /tmp/ccq1AqqY.s:619    .text:0000000000000354 .LVL59
     /tmp/ccq1AqqY.s:567    .text:00000000000002f0 .LVL51
     /tmp/ccq1AqqY.s:1005   .text:00000000000006ac .LVL116
     /tmp/ccq1AqqY.s:1071   .text:0000000000000748 .LVL125
     /tmp/ccq1AqqY.s:1077   .text:000000000000074c .LVL126
     /tmp/ccq1AqqY.s:247    .text:000000000000015c .LVL27
     /tmp/ccq1AqqY.s:267    .text:0000000000000180 .LVL30
     /tmp/ccq1AqqY.s:298    .text:00000000000001a8 .LVL32
     /tmp/ccq1AqqY.s:294    .text:00000000000001a0 .LVL31
     /tmp/ccq1AqqY.s:261    .text:0000000000000178 .LVL29
     /tmp/ccq1AqqY.s:306    .text:00000000000001b0 .LVL33
     /tmp/ccq1AqqY.s:77     .text:0000000000000040 .LVL2
     /tmp/ccq1AqqY.s:82     .text:0000000000000044 .LVL3
     /tmp/ccq1AqqY.s:137    .text:0000000000000084 .LVL10
     /tmp/ccq1AqqY.s:141    .text:000000000000008c .LVL11
     /tmp/ccq1AqqY.s:89     .text:000000000000005c .LVL5
     /tmp/ccq1AqqY.s:96     .text:0000000000000060 .LVL6
     /tmp/ccq1AqqY.s:149    .text:0000000000000094 .LVL12
     /tmp/ccq1AqqY.s:101    .text:0000000000000064 .LVL7
     /tmp/ccq1AqqY.s:107    .text:0000000000000068 .LVL8
     /tmp/ccq1AqqY.s:14     .text:0000000000000000 .LVL0
     /tmp/ccq1AqqY.s:1185   .debug_info:0000000000000000 .Ldebug_info0
     /tmp/ccq1AqqY.s:98     .text:0000000000000060 .LBE6
     /tmp/ccq1AqqY.s:144    .text:000000000000008c .LBB12
     /tmp/ccq1AqqY.s:182    .text:00000000000000e8 .LBE12
     /tmp/ccq1AqqY.s:109    .text:0000000000000068 .LBE9
     /tmp/ccq1AqqY.s:183    .text:00000000000000e8 .LBB13
     /tmp/ccq1AqqY.s:219    .text:0000000000000144 .LBE13
     /tmp/ccq1AqqY.s:270    .text:0000000000000180 .LBE16
     /tmp/ccq1AqqY.s:301    .text:00000000000001a8 .LBB19
     /tmp/ccq1AqqY.s:339    .text:0000000000000204 .LBE19
     /tmp/ccq1AqqY.s:468    .text:0000000000000288 .LBE48
     /tmp/ccq1AqqY.s:614    .text:000000000000034c .LBB92
     /tmp/ccq1AqqY.s:652    .text:00000000000003a8 .LBE92
     /tmp/ccq1AqqY.s:897    .text:00000000000005d8 .LBE61
     /tmp/ccq1AqqY.s:918    .text:0000000000000604 .LBB64
     /tmp/ccq1AqqY.s:956    .text:0000000000000660 .LBE64
     /tmp/ccq1AqqY.s:1079   .text:000000000000074c .LBE101
     /tmp/ccq1AqqY.s:1129   .text:0000000000000784 .LBB104
     /tmp/ccq1AqqY.s:1165   .text:00000000000007e0 .LBE104

UNDEFINED SYMBOLS
_Z3fibm
_ZN6Thread11getPRunningEv
_ZN6Thread10pRunningSpE
console_handler
_Z9putStringPKc
_Z6putInti
_Z10putNewlinev
GAS LISTING /tmp/ccq1AqqY.s 			page 48


_Z10stopKernelv
plic_claim
_ZN8MemAlloc3getEv
_ZN8MemAlloc8allocMemEm
_ZN8MemAlloc7freeMemEPv
_ZN6Thread12switchToUserEv
_ZN6Thread12createThreadEPmPFvPvES1_
_ZN6Thread4exitEv
kernelThread
_ZN9Scheduler3putEP6Thread
_ZN9Scheduler14dispatchToNextEv
_ZN6Thread4joinEm
