GAS LISTING /tmp/cc0UNFF2.s 			page 1


   1              		.file	"trap.cpp"
   2              		.option pic
   3              		.option norelax
   4              		.text
   5              	.Ltext0:
   6              		.align	2
   7              		.globl	_Z8testCallm
   9              	_Z8testCallm:
  10              	.LFB18:
  11              		.file 1 "src/trap.cpp"
   1:src/trap.cpp  **** #include "../h/thread.h"
   2:src/trap.cpp  **** #include "../h/scheduler.h"
   3:src/trap.cpp  **** #include "../h/alloc.h"
   4:src/trap.cpp  **** #include "../h/0_console.h"
   5:src/trap.cpp  **** 
   6:src/trap.cpp  **** #include "../lib/console.h"
   7:src/trap.cpp  **** 
   8:src/trap.cpp  **** uint64 gTimer = 0;
   9:src/trap.cpp  **** uint64 fib(uint64 n);
  10:src/trap.cpp  **** uint64 testCall(uint64 n)
  11:src/trap.cpp  **** {
  12              		.loc 1 11 1
  13              		.cfi_startproc
  14              	.LVL0:
  15 0000 130101FF 		addi	sp,sp,-16
  16              		.cfi_def_cfa_offset 16
  17 0004 23341100 		sd	ra,8(sp)
  18 0008 23308100 		sd	s0,0(sp)
  19              		.cfi_offset 1, -8
  20              		.cfi_offset 8, -16
  21 000c 13040101 		addi	s0,sp,16
  22              		.cfi_def_cfa 8, 0
  12:src/trap.cpp  ****     return fib(n);
  23              		.loc 1 12 5
  24              		.loc 1 12 15 is_stmt 0
  25 0010 97000000 		call	_Z3fibm@plt
  25      E7800000 
  26              	.LVL1:
  13:src/trap.cpp  **** }
  27              		.loc 1 13 1
  28 0018 83308100 		ld	ra,8(sp)
  29              		.cfi_restore 1
  30 001c 03340100 		ld	s0,0(sp)
  31              		.cfi_restore 8
  32              		.cfi_def_cfa 2, 16
  33 0020 13010101 		addi	sp,sp,16
  34              		.cfi_def_cfa_offset 0
  35 0024 67800000 		jr	ra
  36              		.cfi_endproc
  37              	.LFE18:
  39              		.section	.rodata.str1.8,"aMS",@progbits,1
  40              		.align	3
  41              	.LC0:
  42 0000 3D3D3D3D 		.string	"===================== ASSERT file: "
  42      3D3D3D3D 
  42      3D3D3D3D 
  42      3D3D3D3D 
GAS LISTING /tmp/cc0UNFF2.s 			page 2


  42      3D3D3D3D 
  43 0024 00000000 		.align	3
  44              	.LC1:
  45 0028 7372632F 		.string	"src/trap.cpp"
  45      74726170 
  45      2E637070 
  45      00
  46 0035 000000   		.align	3
  47              	.LC2:
  48 0038 20202020 		.string	"    line: "
  48      6C696E65 
  48      3A2000
  49 0043 00000000 		.align	3
  49      00
  50              	.LC3:
  51 0048 2020203D 		.string	"   ==========================="
  51      3D3D3D3D 
  51      3D3D3D3D 
  51      3D3D3D3D 
  51      3D3D3D3D 
  52 0067 00       		.align	3
  53              	.LC4:
  54 0068 3D3D3D20 		.string	"=== EXCEPETION occured: "
  54      45584345 
  54      50455449 
  54      4F4E206F 
  54      63637572 
  55 0081 00000000 		.align	3
  55      000000
  56              	.LC5:
  57 0088 20496C6C 		.string	" Illegal instruction"
  57      6567616C 
  57      20696E73 
  57      74727563 
  57      74696F6E 
  58 009d 000000   		.align	3
  59              	.LC6:
  60 00a0 556E616C 		.string	"Unallowed read adress"
  60      6C6F7765 
  60      64207265 
  60      61642061 
  60      64726573 
  61 00b6 0000     		.align	3
  62              	.LC7:
  63 00b8 556E616C 		.string	"Unallowed write adress"
  63      6C6F7765 
  63      64207772 
  63      69746520 
  63      61647265 
  64 00cf 00       		.align	3
  65              	.LC8:
  66 00d0 554B4E4F 		.string	"UKNOWN EXCEPTION. ??????????????"
  66      574E2045 
  66      58434550 
  66      54494F4E 
  66      2E203F3F 
  67 00f1 00000000 		.align	3
GAS LISTING /tmp/cc0UNFF2.s 			page 3


  67      000000
  68              	.LC9:
  69 00f8 5465726D 		.string	"Terminating kernel"
  69      696E6174 
  69      696E6720 
  69      6B65726E 
  69      656C00
  70              		.text
  71              		.align	2
  72              		.globl	_Z25cInternalInterruptRoutinev
  74              	_Z25cInternalInterruptRoutinev:
  75              	.LFB20:
  14:src/trap.cpp  **** 
  15:src/trap.cpp  **** void doTimerStuff();
  16:src/trap.cpp  **** void doSleepStuff();
  17:src/trap.cpp  **** void cTimerInterruptRoutine()
  18:src/trap.cpp  **** {
  19:src/trap.cpp  ****     uint64 scause;
  20:src/trap.cpp  ****     __asm__ volatile ("csrr %[name], scause" : [name] "=r"(scause));
  21:src/trap.cpp  **** 
  22:src/trap.cpp  ****     int cause = scause & (~(1UL << 63));
  23:src/trap.cpp  **** 
  24:src/trap.cpp  ****     assert(&(IThread::getPRunning()->sp) == IThread::pRunningSp);
  25:src/trap.cpp  ****     if(cause == 1)
  26:src/trap.cpp  ****     {
  27:src/trap.cpp  ****         __asm__ volatile ("csrc sip, 0x2"); // clears the 2nd bit which signifies software interrup
  28:src/trap.cpp  ****         doTimerStuff();
  29:src/trap.cpp  ****         doSleepStuff();
  30:src/trap.cpp  ****     }
  31:src/trap.cpp  ****     else if (cause == 9)
  32:src/trap.cpp  ****     {
  33:src/trap.cpp  ****         __asm__ volatile("mv x10, x10");
  34:src/trap.cpp  **** //        int a = plic_claim();
  35:src/trap.cpp  **** //        plic_complete(a);
  36:src/trap.cpp  **** //        console_handler();
  37:src/trap.cpp  ****         IConsole::get()->consoleHandler();
  38:src/trap.cpp  ****         __asm__ volatile("mv x10, x10");
  39:src/trap.cpp  ****     }
  40:src/trap.cpp  ****     else
  41:src/trap.cpp  ****     {
  42:src/trap.cpp  ****         assert(false); // unknown interupt
  43:src/trap.cpp  ****     }
  44:src/trap.cpp  **** }
  45:src/trap.cpp  **** 
  46:src/trap.cpp  **** 
  47:src/trap.cpp  **** void cInternalInterruptRoutine()
  48:src/trap.cpp  **** {
  76              		.loc 1 48 1 is_stmt 1
  77              		.cfi_startproc
  78 0028 130101FA 		addi	sp,sp,-96
  79              		.cfi_def_cfa_offset 96
  80 002c 233C1104 		sd	ra,88(sp)
  81 0030 23388104 		sd	s0,80(sp)
  82 0034 23349104 		sd	s1,72(sp)
  83 0038 23302105 		sd	s2,64(sp)
  84 003c 233C3103 		sd	s3,56(sp)
  85 0040 23384103 		sd	s4,48(sp)
GAS LISTING /tmp/cc0UNFF2.s 			page 4


  86 0044 23345103 		sd	s5,40(sp)
  87 0048 23306103 		sd	s6,32(sp)
  88 004c 233C7101 		sd	s7,24(sp)
  89              		.cfi_offset 1, -8
  90              		.cfi_offset 8, -16
  91              		.cfi_offset 9, -24
  92              		.cfi_offset 18, -32
  93              		.cfi_offset 19, -40
  94              		.cfi_offset 20, -48
  95              		.cfi_offset 21, -56
  96              		.cfi_offset 22, -64
  97              		.cfi_offset 23, -72
  98 0050 13040106 		addi	s0,sp,96
  99              		.cfi_def_cfa 8, 0
  49:src/trap.cpp  ****     uint64 scause;
 100              		.loc 1 49 5
  50:src/trap.cpp  ****     __asm__ volatile ("csrr %[name], scause" : [name] "=r"(scause));
 101              		.loc 1 50 5
 102              		.loc 1 50 68 is_stmt 0
 103              	#APP
 104              	# 50 "src/trap.cpp" 1
  51              	
 105              		csrr s2, scause
 106              	# 0 "" 2
 107              	.LVL2:
  52:src/trap.cpp  **** //    int isExternal = (scause & (0x1UL << 63)) != 0;
  53:src/trap.cpp  ****     int cause = scause & (~(1UL << 63));
 108              		.loc 1 53 5 is_stmt 1
  54:src/trap.cpp  **** 
  55:src/trap.cpp  ****     uint64 code, parameter1, parameter2, parameter3;
 109              		.loc 1 55 5
  56:src/trap.cpp  ****     __asm__ volatile ("mv %[name], a0" : [name] "=r"(code));
 110              		.loc 1 56 5
 111              		.loc 1 56 60 is_stmt 0
 112              	# 56 "src/trap.cpp" 1
  57              	    __asm__ volatile ("mv %[name], a1" : [name] "=r"(parameter1));
 113              		mv s1, a0
 114              	# 0 "" 2
 115              	.LVL3:
 116              		.loc 1 57 5 is_stmt 1
 117              		.loc 1 57 66 is_stmt 0
 118              	# 57 "src/trap.cpp" 1
  58              	    __asm__ volatile ("mv %[name], a2" : [name] "=r"(parameter2));
 119              		mv s4, a1
 120              	# 0 "" 2
 121              	.LVL4:
 122              		.loc 1 58 5 is_stmt 1
 123              		.loc 1 58 66 is_stmt 0
 124              	# 58 "src/trap.cpp" 1
  59              	    __asm__ volatile ("mv %[name], a3" : [name] "=r"(parameter3));
 125              		mv s5, a2
 126              	# 0 "" 2
 127              	.LVL5:
 128              		.loc 1 59 5 is_stmt 1
 129              		.loc 1 59 66 is_stmt 0
 130              	# 59 "src/trap.cpp" 1
  60              	
GAS LISTING /tmp/cc0UNFF2.s 			page 5


 131              		mv s6, a3
 132              	# 0 "" 2
 133              	.LVL6:
  61:src/trap.cpp  **** 
  62:src/trap.cpp  ****     __asm__ volatile ("mv x1, x1");
 134              		.loc 1 62 5 is_stmt 1
 135              		.loc 1 62 35 is_stmt 0
 136              	# 62 "src/trap.cpp" 1
  63              	
  64:src/trap.cpp  **** //    IThread::getPRunning()->sp = IThread::runningSp;
  65:src/trap.cpp  **** //    uint64* sp = IThread::getPRunning()->sp;
  66:src/trap.cpp  **** //    uint64* runningSp = IThread::runningSp;
  67:src/trap.cpp  **** //    if(sp != runningSp) // temp, maybe changes registers?
  68:src/trap.cpp  **** //    {
  69:src/trap.cpp  **** //        __asm__ volatile ("mv x10, x10");
  70:src/trap.cpp  **** //        assert(false);
  71:src/trap.cpp  **** //    }
  72:src/trap.cpp  ****     assert(&(IThread::getPRunning()->sp) == IThread::pRunningSp);
 137              		mv x1, x1
 138              	# 0 "" 2
 139              		.loc 1 72 5 is_stmt 1
 140              	#NO_APP
 141 006c 97000000 		call	_ZN7IThread11getPRunningEv@plt
 141      E7800000 
 142              	.LVL7:
 143 0074 93070505 		addi	a5,a0,80
 144 0078 17070000 		la	a4,_ZN7IThread10pRunningSpE
 144      03370700 
 145 0080 03350700 		ld	a0,0(a4)
 146 0084 3305F540 		sub	a0,a0,a5
 147              	.LVL8:
 148              	.LBB126:
 149              	.LBB127:
 150              		.file 2 "src/../h/../h/my_console.h"
   1:src/../h/../h/my_console.h **** #pragma once
   2:src/../h/../h/my_console.h **** 
   3:src/../h/../h/my_console.h **** #include "../h/risc.h"
   4:src/../h/../h/my_console.h **** #include "../lib/hw.h"
   5:src/../h/../h/my_console.h **** 
   6:src/../h/../h/my_console.h **** #include "../h/0_console.h"
   7:src/../h/../h/my_console.h **** 
   8:src/../h/../h/my_console.h **** #define __DEBUG_MODE
   9:src/../h/../h/my_console.h **** 
  10:src/../h/../h/my_console.h **** 
  11:src/../h/../h/my_console.h **** void putString(const char* s);
  12:src/../h/../h/my_console.h **** void putInt(int n);
  13:src/../h/../h/my_console.h **** void putNewline();
  14:src/../h/../h/my_console.h **** void putU64(uint64 n);
  15:src/../h/../h/my_console.h **** void putBinary(uint64 n);
  16:src/../h/../h/my_console.h **** 
  17:src/../h/../h/my_console.h **** [[noreturn]] void stopKernel();
  18:src/../h/../h/my_console.h **** 
  19:src/../h/../h/my_console.h **** inline void _assert(bool valid, const char* file, int line) // MUST be inline
  20:src/../h/../h/my_console.h **** {
  21:src/../h/../h/my_console.h ****     if(valid)
 151              		.loc 2 21 5
 152 0088 63100512 		bnez	a0,.L45
GAS LISTING /tmp/cc0UNFF2.s 			page 6


 153 008c 9B090900 		sext.w	s3,s2
 154 0090 933B1500 		seqz	s7,a0
  22:src/../h/../h/my_console.h ****         return;
 155              		.loc 2 22 9
 156              	.LVL9:
 157              	.LBE127:
 158              	.LBE126:
  73:src/trap.cpp  **** 
  74:src/trap.cpp  ****     __asm__ volatile ("mv x1, x1");
 159              		.loc 1 74 5
 160              		.loc 1 74 35 is_stmt 0
 161              	#APP
 162              	# 74 "src/trap.cpp" 1
  75              	
  76:src/trap.cpp  ****     if(cause != 8 && cause != 9)
 163              		mv x1, x1
 164              	# 0 "" 2
 165              		.loc 1 76 5 is_stmt 1
 166              		.loc 1 76 19 is_stmt 0
 167              	#NO_APP
 168 0098 1B0989FF 		addiw	s2,s2,-8
 169              	.LVL10:
 170              		.loc 1 76 5
 171 009c 93071000 		li	a5,1
 172 00a0 63E0271B 		bgtu	s2,a5,.L46
  77:src/trap.cpp  ****     {
  78:src/trap.cpp  ****         putString("=== EXCEPETION occured: ");
  79:src/trap.cpp  ****         if(cause == 2)
  80:src/trap.cpp  ****         {
  81:src/trap.cpp  ****             putString(" Illegal instruction");
  82:src/trap.cpp  ****         }
  83:src/trap.cpp  ****         else if (cause == 5)
  84:src/trap.cpp  ****         {
  85:src/trap.cpp  ****             putString("Unallowed read adress");
  86:src/trap.cpp  ****         }
  87:src/trap.cpp  ****         else if (cause == 7)
  88:src/trap.cpp  ****         {
  89:src/trap.cpp  ****             putString("Unallowed write adress");
  90:src/trap.cpp  ****         }
  91:src/trap.cpp  ****         else
  92:src/trap.cpp  ****         {
  93:src/trap.cpp  ****             putString("UKNOWN EXCEPTION. ??????????????");
  94:src/trap.cpp  ****             assert(false);
  95:src/trap.cpp  ****         }
  96:src/trap.cpp  ****         putNewline();
  97:src/trap.cpp  ****         putString("Terminating kernel");
  98:src/trap.cpp  ****         putNewline();
  99:src/trap.cpp  ****         assert(false);
 100:src/trap.cpp  ****     }
 101:src/trap.cpp  **** 
 102:src/trap.cpp  ****     IThread* pOld = IThread::getPRunning();
 173              		.loc 1 102 5 is_stmt 1
 174              		.loc 1 102 41 is_stmt 0
 175 00a4 97000000 		call	_ZN7IThread11getPRunningEv@plt
 175      E7800000 
 176              	.LVL11:
 177 00ac 13090500 		mv	s2,a0
GAS LISTING /tmp/cc0UNFF2.s 			page 7


 178              	.LVL12:
 103:src/trap.cpp  **** 
 104:src/trap.cpp  ****     uint64 ret = -1;
 179              		.loc 1 104 5 is_stmt 1
 180              		.loc 1 104 12 is_stmt 0
 181 00b0 9307F0FF 		li	a5,-1
 182 00b4 2334F4FA 		sd	a5,-88(s0)
 105:src/trap.cpp  ****     if(code == 1)
 183              		.loc 1 105 5 is_stmt 1
 184 00b8 93071000 		li	a5,1
 185 00bc 6382F434 		beq	s1,a5,.L47
 106:src/trap.cpp  ****     {
 107:src/trap.cpp  ****         ret = (uint64)MemAlloc::get()->allocMem(parameter1);
 108:src/trap.cpp  ****     }
 109:src/trap.cpp  ****     else if (code == 2)
 186              		.loc 1 109 10
 187 00c0 93072000 		li	a5,2
 188 00c4 6384F43A 		beq	s1,a5,.L48
 110:src/trap.cpp  ****     {
 111:src/trap.cpp  ****         *((int*)&ret) = MemAlloc::get()->freeMem((void*)parameter1);
 112:src/trap.cpp  ****     }
 113:src/trap.cpp  **** #ifdef __DEBUG_MODE
 114:src/trap.cpp  ****     else if (code == 3) // Test call
 189              		.loc 1 114 10
 190 00c8 93073000 		li	a5,3
 191 00cc 638EF43A 		beq	s1,a5,.L49
 115:src/trap.cpp  ****     {
 116:src/trap.cpp  ****         ret = (uint64)testCall(parameter1);
 117:src/trap.cpp  ****     }
 118:src/trap.cpp  **** #endif
 119:src/trap.cpp  ****     else if (code == 4)
 192              		.loc 1 119 10
 193 00d0 93074000 		li	a5,4
 194 00d4 6384F43C 		beq	s1,a5,.L50
 120:src/trap.cpp  ****     {
 121:src/trap.cpp  ****         IThread::switchToUser();
 122:src/trap.cpp  ****     }
 123:src/trap.cpp  ****     else if (code == 17) // 17
 195              		.loc 1 123 10
 196 00d8 93071001 		li	a5,17
 197 00dc 6386F43C 		beq	s1,a5,.L51
 124:src/trap.cpp  ****     {
 125:src/trap.cpp  ****         *((int*)&ret) = IThread::createThread((uint64*)parameter1, (IThread::Body)parameter2, (void
 126:src/trap.cpp  ****     }
 127:src/trap.cpp  ****     else if (code == 18)
 198              		.loc 1 127 10
 199 00e0 93072001 		li	a5,18
 200 00e4 6380F43E 		beq	s1,a5,.L52
 128:src/trap.cpp  ****     {
 129:src/trap.cpp  ****         __asm__ volatile("mv x10, x10");
 130:src/trap.cpp  ****         *((int*)&ret) = IThread::exit();
 131:src/trap.cpp  ****         assert(*((int*)&ret) == 0);
 132:src/trap.cpp  ****     }
 133:src/trap.cpp  ****     else if (code == 19) // 19, thread_dispatch
 201              		.loc 1 133 10
 202 00e8 93073001 		li	a5,19
 203 00ec 6382F448 		beq	s1,a5,.L53
GAS LISTING /tmp/cc0UNFF2.s 			page 8


 134:src/trap.cpp  ****     {
 135:src/trap.cpp  ****         Scheduler::dispatchUserVersion();
 136:src/trap.cpp  ****     }
 137:src/trap.cpp  ****     else if (code == 20)
 204              		.loc 1 137 10
 205 00f0 93074001 		li	a5,20
 206 00f4 6384F448 		beq	s1,a5,.L54
 138:src/trap.cpp  ****     {
 139:src/trap.cpp  ****         IThread::join((uint64)parameter1);
 140:src/trap.cpp  ****     }
 141:src/trap.cpp  ****     else if (code == 49)
 207              		.loc 1 141 10
 208 00f8 93071003 		li	a5,49
 209 00fc 6388F448 		beq	s1,a5,.L55
 142:src/trap.cpp  ****     {
 143:src/trap.cpp  ****         *((int*)&ret) = Scheduler::get()->sleep(parameter1);
 144:src/trap.cpp  ****     }
 145:src/trap.cpp  ****     else if (code == 65) // getc
 210              		.loc 1 145 10
 211 0100 93071004 		li	a5,65
 212 0104 638AF430 		beq	s1,a5,.L14
 146:src/trap.cpp  ****     {
 147:src/trap.cpp  **** 
 148:src/trap.cpp  ****     }
 149:src/trap.cpp  ****     else if (code == 66) // putc
 213              		.loc 1 149 10
 214 0108 93072004 		li	a5,66
 215 010c 6386F430 		beq	s1,a5,.L14
 150:src/trap.cpp  ****     {
 151:src/trap.cpp  **** 
 152:src/trap.cpp  ****     }
 153:src/trap.cpp  ****     else
 154:src/trap.cpp  ****     {
 155:src/trap.cpp  ****         assert(false); // unknown code
 216              		.loc 1 155 9
 217              	.LVL13:
 218              	.LBB134:
 219              	.LBB135:
  21:src/../h/../h/my_console.h ****         return;
 220              		.loc 2 21 5
  23:src/../h/../h/my_console.h **** 
  24:src/../h/../h/my_console.h ****     putString("===================== ASSERT file: ");
 221              		.loc 2 24 5
 222              		.loc 2 24 14 is_stmt 0
 223 0110 17050000 		lla	a0,.LC0
 223      13050500 
 224              	.LVL14:
 225 0118 97000000 		call	_Z9putStringPKc@plt
 225      E7800000 
 226              	.LVL15:
  25:src/../h/../h/my_console.h ****     putString(file);
 227              		.loc 2 25 5 is_stmt 1
 228              		.loc 2 25 14 is_stmt 0
 229 0120 17050000 		lla	a0,.LC1
 229      13050500 
 230 0128 97000000 		call	_Z9putStringPKc@plt
 230      E7800000 
GAS LISTING /tmp/cc0UNFF2.s 			page 9


 231              	.LVL16:
  26:src/../h/../h/my_console.h ****     putString("    line: ");
 232              		.loc 2 26 5 is_stmt 1
 233              		.loc 2 26 14 is_stmt 0
 234 0130 17050000 		lla	a0,.LC2
 234      13050500 
 235 0138 97000000 		call	_Z9putStringPKc@plt
 235      E7800000 
 236              	.LVL17:
  27:src/../h/../h/my_console.h ****     putInt(line);
 237              		.loc 2 27 5 is_stmt 1
 238              		.loc 2 27 11 is_stmt 0
 239 0140 1305B009 		li	a0,155
 240 0144 97000000 		call	_Z6putInti@plt
 240      E7800000 
 241              	.LVL18:
  28:src/../h/../h/my_console.h ****     putString("   ===========================");
 242              		.loc 2 28 5 is_stmt 1
 243              		.loc 2 28 14 is_stmt 0
 244 014c 17050000 		lla	a0,.LC3
 244      13050500 
 245 0154 97000000 		call	_Z9putStringPKc@plt
 245      E7800000 
 246              	.LVL19:
  29:src/../h/../h/my_console.h ****     putNewline();
 247              		.loc 2 29 5 is_stmt 1
 248              		.loc 2 29 15 is_stmt 0
 249 015c 97000000 		call	_Z10putNewlinev@plt
 249      E7800000 
 250              	.LVL20:
  30:src/../h/../h/my_console.h **** 
  31:src/../h/../h/my_console.h ****     IConsole::get()->writeToConsole();
 251              		.loc 2 31 5 is_stmt 1
 252              	.LBB136:
 253              	.LBB137:
 254              		.file 3 "src/../h/../h/../h/0_console.h"
   1:src/../h/../h/../h/0_console.h **** #pragma once
   2:src/../h/../h/../h/0_console.h **** 
   3:src/../h/../h/../h/0_console.h **** #include "../lib/hw.h"
   4:src/../h/../h/../h/0_console.h **** 
   5:src/../h/../h/../h/0_console.h **** #define BUFFER_SIZE 1000
   6:src/../h/../h/../h/0_console.h **** 
   7:src/../h/../h/../h/0_console.h **** class IConsole // singleton class
   8:src/../h/../h/../h/0_console.h **** {
   9:src/../h/../h/../h/0_console.h **** public:
  10:src/../h/../h/../h/0_console.h ****     static IConsole* get()
  11:src/../h/../h/../h/0_console.h ****     {
  12:src/../h/../h/../h/0_console.h ****         static IConsole instance;
 255              		.loc 3 12 9
 256              		.loc 3 12 25 is_stmt 0
 257 0164 97070000 		lbu	a5,_ZGVZN8IConsole3getEvE8instance
 257      83C70700 
 258 016c 63920702 		bnez	a5,.L25
 259              	.LVL21:
 260              	.LBB138:
 261              	.LBB139:
 262              	.LBB140:
GAS LISTING /tmp/cc0UNFF2.s 			page 10


  13:src/../h/../h/../h/0_console.h ****         return &instance;
  14:src/../h/../h/../h/0_console.h ****     }
  15:src/../h/../h/../h/0_console.h **** 
  16:src/../h/../h/../h/0_console.h ****     void writeToConsole();
  17:src/../h/../h/../h/0_console.h ****     uint64 putBufferHead, putBufferTail;
  18:src/../h/../h/../h/0_console.h ****     char putBuffer[BUFFER_SIZE];
  19:src/../h/../h/../h/0_console.h ****     uint64 putBufferItems;
  20:src/../h/../h/../h/0_console.h **** 
  21:src/../h/../h/../h/0_console.h ****     char getBuffer[BUFFER_SIZE];
  22:src/../h/../h/../h/0_console.h ****     uint64 getBufferItems;
  23:src/../h/../h/../h/0_console.h ****     uint64 getBufferHead, getBufferTail;
  24:src/../h/../h/../h/0_console.h **** 
  25:src/../h/../h/../h/0_console.h ****     void putc(char c);
  26:src/../h/../h/../h/0_console.h ****     char getc();
  27:src/../h/../h/../h/0_console.h ****     void consoleHandler();
  28:src/../h/../h/../h/0_console.h ****     void actualWriteToConsole();
  29:src/../h/../h/../h/0_console.h **** 
  30:src/../h/../h/../h/0_console.h **** private:
  31:src/../h/../h/../h/0_console.h ****     IConsole()
  32:src/../h/../h/../h/0_console.h ****         : putBufferHead(0), putBufferTail(0), putBufferItems(0)
 263              		.loc 3 32 63
 264 0170 97070000 		lla	a5,_ZZN8IConsole3getEvE8instance
 264      93870700 
 265 0178 23B00700 		sd	zero,0(a5)
 266 017c 23B40700 		sd	zero,8(a5)
 267 0180 23BC073E 		sd	zero,1016(a5)
 268              	.LVL22:
 269              	.LBE140:
 270              	.LBE139:
 271              	.LBE138:
  12:src/../h/../h/../h/0_console.h ****         return &instance;
 272              		.loc 3 12 25
 273 0184 93071000 		li	a5,1
 274 0188 17070000 		sb	a5,_ZGVZN8IConsole3getEvE8instance,a4
 274      2300F700 
 275              	.L25:
  13:src/../h/../h/../h/0_console.h ****         return &instance;
 276              		.loc 3 13 9 is_stmt 1
 277              	.LBE137:
 278              	.LBE136:
 279              		.loc 2 31 36 is_stmt 0
 280 0190 17050000 		lla	a0,_ZZN8IConsole3getEvE8instance
 280      13050500 
 281 0198 97000000 		call	_ZN8IConsole14writeToConsoleEv@plt
 281      E7800000 
 282              	.LVL23:
  32:src/../h/../h/my_console.h **** 
  33:src/../h/../h/my_console.h **** 
  34:src/../h/../h/my_console.h ****     stopKernel();
 283              		.loc 2 34 5 is_stmt 1
 284              		.loc 2 34 15 is_stmt 0
 285 01a0 97000000 		call	_Z10stopKernelv@plt
 285      E7800000 
 286              	.LVL24:
 287              	.L45:
 288              	.LBE135:
 289              	.LBE134:
GAS LISTING /tmp/cc0UNFF2.s 			page 11


 290              	.LBB141:
 291              	.LBB133:
  24:src/../h/../h/my_console.h ****     putString(file);
 292              		.loc 2 24 5 is_stmt 1
  24:src/../h/../h/my_console.h ****     putString(file);
 293              		.loc 2 24 14 is_stmt 0
 294 01a8 17050000 		lla	a0,.LC0
 294      13050500 
 295              	.LVL25:
 296 01b0 97000000 		call	_Z9putStringPKc@plt
 296      E7800000 
 297              	.LVL26:
  25:src/../h/../h/my_console.h ****     putString("    line: ");
 298              		.loc 2 25 5 is_stmt 1
  25:src/../h/../h/my_console.h ****     putString("    line: ");
 299              		.loc 2 25 14 is_stmt 0
 300 01b8 17050000 		lla	a0,.LC1
 300      13050500 
 301 01c0 97000000 		call	_Z9putStringPKc@plt
 301      E7800000 
 302              	.LVL27:
  26:src/../h/../h/my_console.h ****     putInt(line);
 303              		.loc 2 26 5 is_stmt 1
  26:src/../h/../h/my_console.h ****     putInt(line);
 304              		.loc 2 26 14 is_stmt 0
 305 01c8 17050000 		lla	a0,.LC2
 305      13050500 
 306 01d0 97000000 		call	_Z9putStringPKc@plt
 306      E7800000 
 307              	.LVL28:
  27:src/../h/../h/my_console.h ****     putString("   ===========================");
 308              		.loc 2 27 5 is_stmt 1
  27:src/../h/../h/my_console.h ****     putString("   ===========================");
 309              		.loc 2 27 11 is_stmt 0
 310 01d8 13058004 		li	a0,72
 311 01dc 97000000 		call	_Z6putInti@plt
 311      E7800000 
 312              	.LVL29:
  28:src/../h/../h/my_console.h ****     putNewline();
 313              		.loc 2 28 5 is_stmt 1
  28:src/../h/../h/my_console.h ****     putNewline();
 314              		.loc 2 28 14 is_stmt 0
 315 01e4 17050000 		lla	a0,.LC3
 315      13050500 
 316 01ec 97000000 		call	_Z9putStringPKc@plt
 316      E7800000 
 317              	.LVL30:
  29:src/../h/../h/my_console.h **** 
 318              		.loc 2 29 5 is_stmt 1
  29:src/../h/../h/my_console.h **** 
 319              		.loc 2 29 15 is_stmt 0
 320 01f4 97000000 		call	_Z10putNewlinev@plt
 320      E7800000 
 321              	.LVL31:
  31:src/../h/../h/my_console.h **** 
 322              		.loc 2 31 5 is_stmt 1
 323              	.LBB128:
GAS LISTING /tmp/cc0UNFF2.s 			page 12


 324              	.LBB129:
  12:src/../h/../h/../h/0_console.h ****         return &instance;
 325              		.loc 3 12 9
  12:src/../h/../h/../h/0_console.h ****         return &instance;
 326              		.loc 3 12 25 is_stmt 0
 327 01fc 97070000 		lbu	a5,_ZGVZN8IConsole3getEvE8instance
 327      83C70700 
 328 0204 63920702 		bnez	a5,.L5
 329              	.LVL32:
 330              	.LBB130:
 331              	.LBB131:
 332              	.LBB132:
 333              		.loc 3 32 63
 334 0208 97070000 		lla	a5,_ZZN8IConsole3getEvE8instance
 334      93870700 
 335 0210 23B00700 		sd	zero,0(a5)
 336 0214 23B40700 		sd	zero,8(a5)
 337 0218 23BC073E 		sd	zero,1016(a5)
 338              	.LVL33:
 339              	.LBE132:
 340              	.LBE131:
 341              	.LBE130:
  12:src/../h/../h/../h/0_console.h ****         return &instance;
 342              		.loc 3 12 25
 343 021c 93071000 		li	a5,1
 344 0220 17070000 		sb	a5,_ZGVZN8IConsole3getEvE8instance,a4
 344      2300F700 
 345              	.L5:
  13:src/../h/../h/../h/0_console.h ****     }
 346              		.loc 3 13 9 is_stmt 1
 347              	.LBE129:
 348              	.LBE128:
  31:src/../h/../h/my_console.h **** 
 349              		.loc 2 31 36 is_stmt 0
 350 0228 17050000 		lla	a0,_ZZN8IConsole3getEvE8instance
 350      13050500 
 351 0230 97000000 		call	_ZN8IConsole14writeToConsoleEv@plt
 351      E7800000 
 352              	.LVL34:
 353              		.loc 2 34 5 is_stmt 1
 354              		.loc 2 34 15 is_stmt 0
 355 0238 97000000 		call	_Z10stopKernelv@plt
 355      E7800000 
 356              	.LVL35:
 357              	.L46:
 358              	.LBE133:
 359              	.LBE141:
  78:src/trap.cpp  ****         if(cause == 2)
 360              		.loc 1 78 9 is_stmt 1
  78:src/trap.cpp  ****         if(cause == 2)
 361              		.loc 1 78 18 is_stmt 0
 362 0240 17050000 		lla	a0,.LC4
 362      13050500 
 363 0248 97000000 		call	_Z9putStringPKc@plt
 363      E7800000 
 364              	.LVL36:
  79:src/trap.cpp  ****         {
GAS LISTING /tmp/cc0UNFF2.s 			page 13


 365              		.loc 1 79 9 is_stmt 1
 366 0250 93072000 		li	a5,2
 367 0254 638EF90A 		beq	s3,a5,.L56
  83:src/trap.cpp  ****         {
 368              		.loc 1 83 14
 369 0258 93075000 		li	a5,5
 370 025c 6384F90C 		beq	s3,a5,.L57
  87:src/trap.cpp  ****         {
 371              		.loc 1 87 14
 372 0260 93077000 		li	a5,7
 373 0264 638AF90C 		beq	s3,a5,.L58
  93:src/trap.cpp  ****             assert(false);
 374              		.loc 1 93 13
  93:src/trap.cpp  ****             assert(false);
 375              		.loc 1 93 22 is_stmt 0
 376 0268 17050000 		lla	a0,.LC8
 376      13050500 
 377 0270 97000000 		call	_Z9putStringPKc@plt
 377      E7800000 
 378              	.LVL37:
  94:src/trap.cpp  ****         }
 379              		.loc 1 94 13 is_stmt 1
 380              	.LBB142:
 381              	.LBB143:
  21:src/../h/../h/my_console.h ****         return;
 382              		.loc 2 21 5
  24:src/../h/../h/my_console.h ****     putString(file);
 383              		.loc 2 24 5
  24:src/../h/../h/my_console.h ****     putString(file);
 384              		.loc 2 24 14 is_stmt 0
 385 0278 17050000 		lla	a0,.LC0
 385      13050500 
 386 0280 97000000 		call	_Z9putStringPKc@plt
 386      E7800000 
 387              	.LVL38:
  25:src/../h/../h/my_console.h ****     putString("    line: ");
 388              		.loc 2 25 5 is_stmt 1
  25:src/../h/../h/my_console.h ****     putString("    line: ");
 389              		.loc 2 25 14 is_stmt 0
 390 0288 17050000 		lla	a0,.LC1
 390      13050500 
 391 0290 97000000 		call	_Z9putStringPKc@plt
 391      E7800000 
 392              	.LVL39:
  26:src/../h/../h/my_console.h ****     putInt(line);
 393              		.loc 2 26 5 is_stmt 1
  26:src/../h/../h/my_console.h ****     putInt(line);
 394              		.loc 2 26 14 is_stmt 0
 395 0298 17050000 		lla	a0,.LC2
 395      13050500 
 396 02a0 97000000 		call	_Z9putStringPKc@plt
 396      E7800000 
 397              	.LVL40:
  27:src/../h/../h/my_console.h ****     putString("   ===========================");
 398              		.loc 2 27 5 is_stmt 1
  27:src/../h/../h/my_console.h ****     putString("   ===========================");
 399              		.loc 2 27 11 is_stmt 0
GAS LISTING /tmp/cc0UNFF2.s 			page 14


 400 02a8 1305E005 		li	a0,94
 401 02ac 97000000 		call	_Z6putInti@plt
 401      E7800000 
 402              	.LVL41:
  28:src/../h/../h/my_console.h ****     putNewline();
 403              		.loc 2 28 5 is_stmt 1
  28:src/../h/../h/my_console.h ****     putNewline();
 404              		.loc 2 28 14 is_stmt 0
 405 02b4 17050000 		lla	a0,.LC3
 405      13050500 
 406 02bc 97000000 		call	_Z9putStringPKc@plt
 406      E7800000 
 407              	.LVL42:
  29:src/../h/../h/my_console.h **** 
 408              		.loc 2 29 5 is_stmt 1
  29:src/../h/../h/my_console.h **** 
 409              		.loc 2 29 15 is_stmt 0
 410 02c4 97000000 		call	_Z10putNewlinev@plt
 410      E7800000 
 411              	.LVL43:
  31:src/../h/../h/my_console.h **** 
 412              		.loc 2 31 5 is_stmt 1
 413              	.LBB144:
 414              	.LBB145:
  12:src/../h/../h/../h/0_console.h ****         return &instance;
 415              		.loc 3 12 9
  12:src/../h/../h/../h/0_console.h ****         return &instance;
 416              		.loc 3 12 25 is_stmt 0
 417 02cc 97070000 		lbu	a5,_ZGVZN8IConsole3getEvE8instance
 417      83C70700 
 418 02d4 63920702 		bnez	a5,.L11
 419              	.LVL44:
 420              	.LBB146:
 421              	.LBB147:
 422              	.LBB148:
 423              		.loc 3 32 63
 424 02d8 97070000 		lla	a5,_ZZN8IConsole3getEvE8instance
 424      93870700 
 425 02e0 23B00700 		sd	zero,0(a5)
 426 02e4 23B40700 		sd	zero,8(a5)
 427 02e8 23BC073E 		sd	zero,1016(a5)
 428              	.LVL45:
 429              	.LBE148:
 430              	.LBE147:
 431              	.LBE146:
  12:src/../h/../h/../h/0_console.h ****         return &instance;
 432              		.loc 3 12 25
 433 02ec 93071000 		li	a5,1
 434 02f0 17070000 		sb	a5,_ZGVZN8IConsole3getEvE8instance,a4
 434      2300F700 
 435              	.L11:
  13:src/../h/../h/../h/0_console.h ****     }
 436              		.loc 3 13 9 is_stmt 1
 437              	.LBE145:
 438              	.LBE144:
  31:src/../h/../h/my_console.h **** 
 439              		.loc 2 31 36 is_stmt 0
GAS LISTING /tmp/cc0UNFF2.s 			page 15


 440 02f8 17050000 		lla	a0,_ZZN8IConsole3getEvE8instance
 440      13050500 
 441 0300 97000000 		call	_ZN8IConsole14writeToConsoleEv@plt
 441      E7800000 
 442              	.LVL46:
 443              		.loc 2 34 5 is_stmt 1
 444              		.loc 2 34 15 is_stmt 0
 445 0308 97000000 		call	_Z10stopKernelv@plt
 445      E7800000 
 446              	.LVL47:
 447              	.L56:
 448              	.LBE143:
 449              	.LBE142:
  81:src/trap.cpp  ****         }
 450              		.loc 1 81 13 is_stmt 1
  81:src/trap.cpp  ****         }
 451              		.loc 1 81 22 is_stmt 0
 452 0310 17050000 		lla	a0,.LC5
 452      13050500 
 453 0318 97000000 		call	_Z9putStringPKc@plt
 453      E7800000 
 454              	.LVL48:
 455 0320 6F008002 		j	.L8
 456              	.L57:
  85:src/trap.cpp  ****         }
 457              		.loc 1 85 13 is_stmt 1
  85:src/trap.cpp  ****         }
 458              		.loc 1 85 22 is_stmt 0
 459 0324 17050000 		lla	a0,.LC6
 459      13050500 
 460 032c 97000000 		call	_Z9putStringPKc@plt
 460      E7800000 
 461              	.LVL49:
 462 0334 6F004001 		j	.L8
 463              	.L58:
  89:src/trap.cpp  ****         }
 464              		.loc 1 89 13 is_stmt 1
  89:src/trap.cpp  ****         }
 465              		.loc 1 89 22 is_stmt 0
 466 0338 17050000 		lla	a0,.LC7
 466      13050500 
 467 0340 97000000 		call	_Z9putStringPKc@plt
 467      E7800000 
 468              	.LVL50:
 469              	.L8:
  96:src/trap.cpp  ****         putString("Terminating kernel");
 470              		.loc 1 96 9 is_stmt 1
  96:src/trap.cpp  ****         putString("Terminating kernel");
 471              		.loc 1 96 19 is_stmt 0
 472 0348 97000000 		call	_Z10putNewlinev@plt
 472      E7800000 
 473              	.LVL51:
  97:src/trap.cpp  ****         putNewline();
 474              		.loc 1 97 9 is_stmt 1
  97:src/trap.cpp  ****         putNewline();
 475              		.loc 1 97 18 is_stmt 0
 476 0350 17050000 		lla	a0,.LC9
GAS LISTING /tmp/cc0UNFF2.s 			page 16


 476      13050500 
 477 0358 97000000 		call	_Z9putStringPKc@plt
 477      E7800000 
 478              	.LVL52:
  98:src/trap.cpp  ****         assert(false);
 479              		.loc 1 98 9 is_stmt 1
  98:src/trap.cpp  ****         assert(false);
 480              		.loc 1 98 19 is_stmt 0
 481 0360 97000000 		call	_Z10putNewlinev@plt
 481      E7800000 
 482              	.LVL53:
  99:src/trap.cpp  ****     }
 483              		.loc 1 99 9 is_stmt 1
 484              	.LBB149:
 485              	.LBB150:
  21:src/../h/../h/my_console.h ****         return;
 486              		.loc 2 21 5
  24:src/../h/../h/my_console.h ****     putString(file);
 487              		.loc 2 24 5
  24:src/../h/../h/my_console.h ****     putString(file);
 488              		.loc 2 24 14 is_stmt 0
 489 0368 17050000 		lla	a0,.LC0
 489      13050500 
 490 0370 97000000 		call	_Z9putStringPKc@plt
 490      E7800000 
 491              	.LVL54:
  25:src/../h/../h/my_console.h ****     putString("    line: ");
 492              		.loc 2 25 5 is_stmt 1
  25:src/../h/../h/my_console.h ****     putString("    line: ");
 493              		.loc 2 25 14 is_stmt 0
 494 0378 17050000 		lla	a0,.LC1
 494      13050500 
 495 0380 97000000 		call	_Z9putStringPKc@plt
 495      E7800000 
 496              	.LVL55:
  26:src/../h/../h/my_console.h ****     putInt(line);
 497              		.loc 2 26 5 is_stmt 1
  26:src/../h/../h/my_console.h ****     putInt(line);
 498              		.loc 2 26 14 is_stmt 0
 499 0388 17050000 		lla	a0,.LC2
 499      13050500 
 500 0390 97000000 		call	_Z9putStringPKc@plt
 500      E7800000 
 501              	.LVL56:
  27:src/../h/../h/my_console.h ****     putString("   ===========================");
 502              		.loc 2 27 5 is_stmt 1
  27:src/../h/../h/my_console.h ****     putString("   ===========================");
 503              		.loc 2 27 11 is_stmt 0
 504 0398 13053006 		li	a0,99
 505 039c 97000000 		call	_Z6putInti@plt
 505      E7800000 
 506              	.LVL57:
  28:src/../h/../h/my_console.h ****     putNewline();
 507              		.loc 2 28 5 is_stmt 1
  28:src/../h/../h/my_console.h ****     putNewline();
 508              		.loc 2 28 14 is_stmt 0
 509 03a4 17050000 		lla	a0,.LC3
GAS LISTING /tmp/cc0UNFF2.s 			page 17


 509      13050500 
 510 03ac 97000000 		call	_Z9putStringPKc@plt
 510      E7800000 
 511              	.LVL58:
  29:src/../h/../h/my_console.h **** 
 512              		.loc 2 29 5 is_stmt 1
  29:src/../h/../h/my_console.h **** 
 513              		.loc 2 29 15 is_stmt 0
 514 03b4 97000000 		call	_Z10putNewlinev@plt
 514      E7800000 
 515              	.LVL59:
  31:src/../h/../h/my_console.h **** 
 516              		.loc 2 31 5 is_stmt 1
 517              	.LBB151:
 518              	.LBB152:
  12:src/../h/../h/../h/0_console.h ****         return &instance;
 519              		.loc 3 12 9
  12:src/../h/../h/../h/0_console.h ****         return &instance;
 520              		.loc 3 12 25 is_stmt 0
 521 03bc 97070000 		lbu	a5,_ZGVZN8IConsole3getEvE8instance
 521      83C70700 
 522 03c4 63920702 		bnez	a5,.L12
 523              	.LVL60:
 524              	.LBB153:
 525              	.LBB154:
 526              	.LBB155:
 527              		.loc 3 32 63
 528 03c8 97070000 		lla	a5,_ZZN8IConsole3getEvE8instance
 528      93870700 
 529 03d0 23B00700 		sd	zero,0(a5)
 530 03d4 23B40700 		sd	zero,8(a5)
 531 03d8 23BC073E 		sd	zero,1016(a5)
 532              	.LVL61:
 533              	.LBE155:
 534              	.LBE154:
 535              	.LBE153:
  12:src/../h/../h/../h/0_console.h ****         return &instance;
 536              		.loc 3 12 25
 537 03dc 93071000 		li	a5,1
 538 03e0 17070000 		sb	a5,_ZGVZN8IConsole3getEvE8instance,a4
 538      2300F700 
 539              	.L12:
  13:src/../h/../h/../h/0_console.h ****     }
 540              		.loc 3 13 9 is_stmt 1
 541              	.LBE152:
 542              	.LBE151:
  31:src/../h/../h/my_console.h **** 
 543              		.loc 2 31 36 is_stmt 0
 544 03e8 17050000 		lla	a0,_ZZN8IConsole3getEvE8instance
 544      13050500 
 545 03f0 97000000 		call	_ZN8IConsole14writeToConsoleEv@plt
 545      E7800000 
 546              	.LVL62:
 547              		.loc 2 34 5 is_stmt 1
 548              		.loc 2 34 15 is_stmt 0
 549 03f8 97000000 		call	_Z10stopKernelv@plt
 549      E7800000 
GAS LISTING /tmp/cc0UNFF2.s 			page 18


 550              	.LVL63:
 551              	.L47:
 552              	.LBE150:
 553              	.LBE149:
 107:src/trap.cpp  ****     }
 554              		.loc 1 107 9 is_stmt 1
 107:src/trap.cpp  ****     }
 555              		.loc 1 107 48 is_stmt 0
 556 0400 97000000 		call	_ZN8MemAlloc3getEv@plt
 556      E7800000 
 557              	.LVL64:
 558 0408 93050A00 		mv	a1,s4
 559 040c 97000000 		call	_ZN8MemAlloc8allocMemEm@plt
 559      E7800000 
 560              	.LVL65:
 107:src/trap.cpp  ****     }
 561              		.loc 1 107 13
 562 0414 2334A4FA 		sd	a0,-88(s0)
 563              	.L14:
 156:src/trap.cpp  ****         assert(false); // unknown code
 157:src/trap.cpp  ****         assert(false); // unknown code
 158:src/trap.cpp  ****         assert(false); // unknown code
 159:src/trap.cpp  ****     }
 160:src/trap.cpp  **** 
 161:src/trap.cpp  **** //    __asm__ volatile ("mv a0, %[name]" : : [name] "r" (ret)); // upaliti ovo dole umesto ovoga (o
 162:src/trap.cpp  **** 
 163:src/trap.cpp  ****     bool normalCallWithReturn = (code == 0x1) || (code == 0x2) || (code == 0x11) || (code == 0x12) 
 564              		.loc 1 163 5 is_stmt 1
 565              		.loc 1 163 47 is_stmt 0
 566 0418 9387F4FF 		addi	a5,s1,-1
 567              		.loc 1 163 190
 568 041c 13071000 		li	a4,1
 569 0420 637CF71A 		bleu	a5,a4,.L34
 570              		.loc 1 163 64 discriminator 2
 571 0424 93071001 		li	a5,17
 572 0428 638EF426 		beq	s1,a5,.L35
 573              		.loc 1 163 82 discriminator 4
 574 042c 93072001 		li	a5,18
 575 0430 638EF426 		beq	s1,a5,.L36
 576              		.loc 1 163 100 discriminator 6
 577 0434 93071002 		li	a5,33
 578 0438 638EF426 		beq	s1,a5,.L37
 579              		.loc 1 163 118 discriminator 8
 580 043c 93072002 		li	a5,34
 581 0440 638EF426 		beq	s1,a5,.L38
 582              		.loc 1 163 136 discriminator 10
 583 0444 93073002 		li	a5,35
 584 0448 638EF426 		beq	s1,a5,.L39
 585              		.loc 1 163 154 discriminator 12
 586 044c 93074002 		li	a5,36
 587 0450 638EF426 		beq	s1,a5,.L40
 588              		.loc 1 163 172 discriminator 14
 589 0454 93071003 		li	a5,49
 590 0458 638EF426 		beq	s1,a5,.L41
 591              		.loc 1 163 190 discriminator 16
 592 045c 93071004 		li	a5,65
 593 0460 6388F416 		beq	s1,a5,.L59
GAS LISTING /tmp/cc0UNFF2.s 			page 19


 594              		.loc 1 163 190
 595 0464 93060000 		li	a3,0
 596 0468 6F004017 		j	.L26
 597              	.LVL66:
 598              	.L48:
 111:src/trap.cpp  ****     }
 599              		.loc 1 111 9 is_stmt 1
 111:src/trap.cpp  ****     }
 600              		.loc 1 111 49 is_stmt 0
 601 046c 97000000 		call	_ZN8MemAlloc3getEv@plt
 601      E7800000 
 602              	.LVL67:
 603 0474 93050A00 		mv	a1,s4
 604 0478 97000000 		call	_ZN8MemAlloc7freeMemEPv@plt
 604      E7800000 
 605              	.LVL68:
 111:src/trap.cpp  ****     }
 606              		.loc 1 111 23
 607 0480 2324A4FA 		sw	a0,-88(s0)
 608 0484 6FF05FF9 		j	.L14
 609              	.LVL69:
 610              	.L49:
 116:src/trap.cpp  ****     }
 611              		.loc 1 116 9 is_stmt 1
 116:src/trap.cpp  ****     }
 612              		.loc 1 116 31 is_stmt 0
 613 0488 13050A00 		mv	a0,s4
 614              	.LVL70:
 615 048c 97000000 		call	_Z8testCallm
 615      E7800000 
 616              	.LVL71:
 116:src/trap.cpp  ****     }
 617              		.loc 1 116 13
 618 0494 2334A4FA 		sd	a0,-88(s0)
 619 0498 6FF01FF8 		j	.L14
 620              	.LVL72:
 621              	.L50:
 121:src/trap.cpp  ****     }
 622              		.loc 1 121 9 is_stmt 1
 121:src/trap.cpp  ****     }
 623              		.loc 1 121 30 is_stmt 0
 624 049c 97000000 		call	_ZN7IThread12switchToUserEv@plt
 624      E7800000 
 625              	.LVL73:
 626 04a4 6FF05FF7 		j	.L14
 627              	.LVL74:
 628              	.L51:
 125:src/trap.cpp  ****     }
 629              		.loc 1 125 9 is_stmt 1
 125:src/trap.cpp  ****     }
 630              		.loc 1 125 46 is_stmt 0
 631 04a8 13060B00 		mv	a2,s6
 632 04ac 93850A00 		mv	a1,s5
 633 04b0 13050A00 		mv	a0,s4
 634              	.LVL75:
 635 04b4 97000000 		call	_ZN7IThread12createThreadEPmPFvPvES1_@plt
 635      E7800000 
GAS LISTING /tmp/cc0UNFF2.s 			page 20


 636              	.LVL76:
 125:src/trap.cpp  ****     }
 637              		.loc 1 125 23
 638 04bc 2324A4FA 		sw	a0,-88(s0)
 639 04c0 6FF09FF5 		j	.L14
 640              	.LVL77:
 641              	.L52:
 129:src/trap.cpp  ****         *((int*)&ret) = IThread::exit();
 642              		.loc 1 129 9 is_stmt 1
 129:src/trap.cpp  ****         *((int*)&ret) = IThread::exit();
 643              		.loc 1 129 40 is_stmt 0
 644              	#APP
 645              	# 129 "src/trap.cpp" 1
 130:src/trap.cpp  ****         assert(*((int*)&ret) == 0);
 646              		mv x10, x10
 647              	# 0 "" 2
 648              		.loc 1 130 9 is_stmt 1
 130:src/trap.cpp  ****         assert(*((int*)&ret) == 0);
 649              		.loc 1 130 38 is_stmt 0
 650              	#NO_APP
 651 04c8 97000000 		call	_ZN7IThread4exitEv@plt
 651      E7800000 
 652              	.LVL78:
 130:src/trap.cpp  ****         assert(*((int*)&ret) == 0);
 653              		.loc 1 130 23
 654 04d0 2324A4FA 		sw	a0,-88(s0)
 131:src/trap.cpp  ****     }
 655              		.loc 1 131 9 is_stmt 1
 656              	.LVL79:
 657              	.LBB156:
 658              	.LBB157:
  21:src/../h/../h/my_console.h ****         return;
 659              		.loc 2 21 5
 660 04d4 E30205F4 		beqz	a0,.L14
  24:src/../h/../h/my_console.h ****     putString(file);
 661              		.loc 2 24 5
  24:src/../h/../h/my_console.h ****     putString(file);
 662              		.loc 2 24 14 is_stmt 0
 663 04d8 17050000 		lla	a0,.LC0
 663      13050500 
 664              	.LVL80:
 665 04e0 97000000 		call	_Z9putStringPKc@plt
 665      E7800000 
 666              	.LVL81:
  25:src/../h/../h/my_console.h ****     putString("    line: ");
 667              		.loc 2 25 5 is_stmt 1
  25:src/../h/../h/my_console.h ****     putString("    line: ");
 668              		.loc 2 25 14 is_stmt 0
 669 04e8 17050000 		lla	a0,.LC1
 669      13050500 
 670 04f0 97000000 		call	_Z9putStringPKc@plt
 670      E7800000 
 671              	.LVL82:
  26:src/../h/../h/my_console.h ****     putInt(line);
 672              		.loc 2 26 5 is_stmt 1
  26:src/../h/../h/my_console.h ****     putInt(line);
 673              		.loc 2 26 14 is_stmt 0
GAS LISTING /tmp/cc0UNFF2.s 			page 21


 674 04f8 17050000 		lla	a0,.LC2
 674      13050500 
 675 0500 97000000 		call	_Z9putStringPKc@plt
 675      E7800000 
 676              	.LVL83:
  27:src/../h/../h/my_console.h ****     putString("   ===========================");
 677              		.loc 2 27 5 is_stmt 1
  27:src/../h/../h/my_console.h ****     putString("   ===========================");
 678              		.loc 2 27 11 is_stmt 0
 679 0508 13053008 		li	a0,131
 680 050c 97000000 		call	_Z6putInti@plt
 680      E7800000 
 681              	.LVL84:
  28:src/../h/../h/my_console.h ****     putNewline();
 682              		.loc 2 28 5 is_stmt 1
  28:src/../h/../h/my_console.h ****     putNewline();
 683              		.loc 2 28 14 is_stmt 0
 684 0514 17050000 		lla	a0,.LC3
 684      13050500 
 685 051c 97000000 		call	_Z9putStringPKc@plt
 685      E7800000 
 686              	.LVL85:
  29:src/../h/../h/my_console.h **** 
 687              		.loc 2 29 5 is_stmt 1
  29:src/../h/../h/my_console.h **** 
 688              		.loc 2 29 15 is_stmt 0
 689 0524 97000000 		call	_Z10putNewlinev@plt
 689      E7800000 
 690              	.LVL86:
  31:src/../h/../h/my_console.h **** 
 691              		.loc 2 31 5 is_stmt 1
 692              	.LBB158:
 693              	.LBB159:
  12:src/../h/../h/../h/0_console.h ****         return &instance;
 694              		.loc 3 12 9
  12:src/../h/../h/../h/0_console.h ****         return &instance;
 695              		.loc 3 12 25 is_stmt 0
 696 052c 97070000 		lbu	a5,_ZGVZN8IConsole3getEvE8instance
 696      83C70700 
 697 0534 63920702 		bnez	a5,.L20
 698              	.LVL87:
 699              	.LBB160:
 700              	.LBB161:
 701              	.LBB162:
 702              		.loc 3 32 63
 703 0538 97070000 		lla	a5,_ZZN8IConsole3getEvE8instance
 703      93870700 
 704 0540 23B00700 		sd	zero,0(a5)
 705 0544 23B40700 		sd	zero,8(a5)
 706 0548 23BC073E 		sd	zero,1016(a5)
 707              	.LVL88:
 708              	.LBE162:
 709              	.LBE161:
 710              	.LBE160:
  12:src/../h/../h/../h/0_console.h ****         return &instance;
 711              		.loc 3 12 25
 712 054c 93071000 		li	a5,1
GAS LISTING /tmp/cc0UNFF2.s 			page 22


 713 0550 17070000 		sb	a5,_ZGVZN8IConsole3getEvE8instance,a4
 713      2300F700 
 714              	.L20:
  13:src/../h/../h/../h/0_console.h ****     }
 715              		.loc 3 13 9 is_stmt 1
 716              	.LBE159:
 717              	.LBE158:
  31:src/../h/../h/my_console.h **** 
 718              		.loc 2 31 36 is_stmt 0
 719 0558 17050000 		lla	a0,_ZZN8IConsole3getEvE8instance
 719      13050500 
 720 0560 97000000 		call	_ZN8IConsole14writeToConsoleEv@plt
 720      E7800000 
 721              	.LVL89:
 722              		.loc 2 34 5 is_stmt 1
 723              		.loc 2 34 15 is_stmt 0
 724 0568 97000000 		call	_Z10stopKernelv@plt
 724      E7800000 
 725              	.LVL90:
 726              	.L53:
 727              	.LBE157:
 728              	.LBE156:
 135:src/trap.cpp  ****     }
 729              		.loc 1 135 9 is_stmt 1
 135:src/trap.cpp  ****     }
 730              		.loc 1 135 39 is_stmt 0
 731 0570 97000000 		call	_ZN9Scheduler19dispatchUserVersionEv@plt
 731      E7800000 
 732              	.LVL91:
 733 0578 6FF01FEA 		j	.L14
 734              	.LVL92:
 735              	.L54:
 139:src/trap.cpp  ****     }
 736              		.loc 1 139 9 is_stmt 1
 139:src/trap.cpp  ****     }
 737              		.loc 1 139 22 is_stmt 0
 738 057c 13050A00 		mv	a0,s4
 739              	.LVL93:
 740 0580 97000000 		call	_ZN7IThread4joinEm@plt
 740      E7800000 
 741              	.LVL94:
 742 0588 6FF01FE9 		j	.L14
 743              	.LVL95:
 744              	.L55:
 143:src/trap.cpp  ****     }
 745              		.loc 1 143 9 is_stmt 1
 746              	.LBB163:
 747              	.LBB164:
 748              		.file 4 "src/../h/scheduler.h"
   1:src/../h/scheduler.h **** #pragma once
   2:src/../h/scheduler.h **** 
   3:src/../h/scheduler.h **** #include "../h/thread.h"
   4:src/../h/scheduler.h **** 
   5:src/../h/scheduler.h **** class Scheduler // singleton
   6:src/../h/scheduler.h **** {
   7:src/../h/scheduler.h **** public:
   8:src/../h/scheduler.h ****     static Scheduler* get()
GAS LISTING /tmp/cc0UNFF2.s 			page 23


   9:src/../h/scheduler.h ****     {
  10:src/../h/scheduler.h ****         static Scheduler instance;
 749              		.loc 4 10 9
 750              		.loc 4 10 26 is_stmt 0
 751 058c 97070000 		lbu	a5,_ZGVZN9Scheduler3getEvE8instance
 751      83C70700 
 752 0594 63900702 		bnez	a5,.L24
 753              	.LVL96:
 754              	.LBB165:
 755              	.LBB166:
 756              	.LBB167:
  11:src/../h/scheduler.h ****         return &instance;
  12:src/../h/scheduler.h ****     }
  13:src/../h/scheduler.h **** 
  14:src/../h/scheduler.h ****     int sleep(time_t time);
  15:src/../h/scheduler.h **** 
  16:src/../h/scheduler.h ****     static void dispatchToNext(); // WARNING: different than sys. call dispatch()
  17:src/../h/scheduler.h ****     static void dispatchUserVersion();
  18:src/../h/scheduler.h ****     static IThread* getNext();
  19:src/../h/scheduler.h ****     static void put(IThread*);
  20:src/../h/scheduler.h ****     static void printState();
  21:src/../h/scheduler.h **** 
  22:src/../h/scheduler.h ****     IThread* pHead; // points to the one that is the next to be run
  23:src/../h/scheduler.h ****     IThread* pSleepHead;
  24:src/../h/scheduler.h **** 
  25:src/../h/scheduler.h **** private:
  26:src/../h/scheduler.h ****     Scheduler()
  27:src/../h/scheduler.h ****         : pHead(nullptr), pSleepHead(nullptr)
 757              		.loc 4 27 45
 758 0598 97070000 		lla	a5,_ZZN9Scheduler3getEvE8instance
 758      93870700 
 759 05a0 23B00700 		sd	zero,0(a5)
 760 05a4 23B40700 		sd	zero,8(a5)
 761              	.LVL97:
 762              	.LBE167:
 763              	.LBE166:
 764              	.LBE165:
  10:src/../h/scheduler.h ****         return &instance;
 765              		.loc 4 10 26
 766 05a8 93071000 		li	a5,1
 767 05ac 17070000 		sb	a5,_ZGVZN9Scheduler3getEvE8instance,a4
 767      2300F700 
 768              	.L24:
  11:src/../h/scheduler.h ****         return &instance;
 769              		.loc 4 11 9 is_stmt 1
 770              	.LBE164:
 771              	.LBE163:
 143:src/trap.cpp  ****     }
 772              		.loc 1 143 48 is_stmt 0
 773 05b4 93050A00 		mv	a1,s4
 774 05b8 17050000 		lla	a0,_ZZN9Scheduler3getEvE8instance
 774      13050500 
 775              	.LVL98:
 776 05c0 97000000 		call	_ZN9Scheduler5sleepEm@plt
 776      E7800000 
 777              	.LVL99:
 143:src/trap.cpp  ****     }
GAS LISTING /tmp/cc0UNFF2.s 			page 24


 778              		.loc 1 143 23
 779 05c8 2324A4FA 		sw	a0,-88(s0)
 780 05cc 6FF0DFE4 		j	.L14
 781              	.L59:
 782              		.loc 1 163 190
 783 05d0 93860B00 		mv	a3,s7
 784 05d4 6F008000 		j	.L26
 785              	.L34:
 786 05d8 93860B00 		mv	a3,s7
 787              	.L26:
 788              	.LVL100:
 164:src/trap.cpp  ****     bool customCallWithReturn = (code == 0x3);
 789              		.loc 1 164 5 is_stmt 1 discriminator 20
 165:src/trap.cpp  ****     bool customCallWithoutReturn = (code == 0x4);
 790              		.loc 1 165 5 discriminator 20
 166:src/trap.cpp  ****     bool normalCallWithoutReturn = (code == 0x13) || (code == 0x14) || (code == 0x42);
 791              		.loc 1 166 5 discriminator 20
 792              		.loc 1 166 51 is_stmt 0 discriminator 20
 793 05dc 9387D4FE 		addi	a5,s1,-19
 794              		.loc 1 166 69 discriminator 20
 795 05e0 13071000 		li	a4,1
 796 05e4 6378F700 		bleu	a5,a4,.L27
 797              		.loc 1 166 69 discriminator 2
 798 05e8 93072004 		li	a5,66
 799 05ec 6384F400 		beq	s1,a5,.L27
 800              		.loc 1 166 69
 801 05f0 930B0000 		li	s7,0
 802              	.L27:
 803              	.LVL101:
 167:src/trap.cpp  ****     if(normalCallWithReturn || customCallWithReturn)
 804              		.loc 1 167 5 is_stmt 1 discriminator 6
 805 05f4 6394060E 		bnez	a3,.L28
 806              		.loc 1 167 29 is_stmt 0 discriminator 1
 807 05f8 93073000 		li	a5,3
 808 05fc 6380F40E 		beq	s1,a5,.L28
 168:src/trap.cpp  ****     { // system call with a return (not necessariliy 64bit)
 169:src/trap.cpp  **** 
 170:src/trap.cpp  ****         assert(ret != (uint64)-1); // not 100% check
 171:src/trap.cpp  **** 
 172:src/trap.cpp  ****         *(((uint64*)(pOld->sp))+10) = ret; // set r0, or x10, to the return value
 173:src/trap.cpp  **** 
 174:src/trap.cpp  **** //        __asm__ volatile ("mv a0, %[name]" : : [name] "r" (ret));
 175:src/trap.cpp  ****     }
 176:src/trap.cpp  ****     else if(normalCallWithoutReturn || customCallWithoutReturn) // this exists for safety reasons
 809              		.loc 1 176 10 is_stmt 1
 810 0600 639A0B0E 		bnez	s7,.L32
 811              		.loc 1 176 37 is_stmt 0 discriminator 1
 812 0604 93074000 		li	a5,4
 813 0608 6386F40E 		beq	s1,a5,.L32
 177:src/trap.cpp  ****     {
 178:src/trap.cpp  ****         ;
 179:src/trap.cpp  ****     }
 180:src/trap.cpp  ****     else
 181:src/trap.cpp  ****     {
 182:src/trap.cpp  ****         assert(false);
 814              		.loc 1 182 9 is_stmt 1
 815              	.LVL102:
GAS LISTING /tmp/cc0UNFF2.s 			page 25


 816              	.LBB168:
 817              	.LBB169:
  21:src/../h/../h/my_console.h ****         return;
 818              		.loc 2 21 5
  24:src/../h/../h/my_console.h ****     putString(file);
 819              		.loc 2 24 5
  24:src/../h/../h/my_console.h ****     putString(file);
 820              		.loc 2 24 14 is_stmt 0
 821 060c 17050000 		lla	a0,.LC0
 821      13050500 
 822 0614 97000000 		call	_Z9putStringPKc@plt
 822      E7800000 
 823              	.LVL103:
  25:src/../h/../h/my_console.h ****     putString("    line: ");
 824              		.loc 2 25 5 is_stmt 1
  25:src/../h/../h/my_console.h ****     putString("    line: ");
 825              		.loc 2 25 14 is_stmt 0
 826 061c 17050000 		lla	a0,.LC1
 826      13050500 
 827 0624 97000000 		call	_Z9putStringPKc@plt
 827      E7800000 
 828              	.LVL104:
  26:src/../h/../h/my_console.h ****     putInt(line);
 829              		.loc 2 26 5 is_stmt 1
  26:src/../h/../h/my_console.h ****     putInt(line);
 830              		.loc 2 26 14 is_stmt 0
 831 062c 17050000 		lla	a0,.LC2
 831      13050500 
 832 0634 97000000 		call	_Z9putStringPKc@plt
 832      E7800000 
 833              	.LVL105:
  27:src/../h/../h/my_console.h ****     putString("   ===========================");
 834              		.loc 2 27 5 is_stmt 1
  27:src/../h/../h/my_console.h ****     putString("   ===========================");
 835              		.loc 2 27 11 is_stmt 0
 836 063c 1305600B 		li	a0,182
 837 0640 97000000 		call	_Z6putInti@plt
 837      E7800000 
 838              	.LVL106:
  28:src/../h/../h/my_console.h ****     putNewline();
 839              		.loc 2 28 5 is_stmt 1
  28:src/../h/../h/my_console.h ****     putNewline();
 840              		.loc 2 28 14 is_stmt 0
 841 0648 17050000 		lla	a0,.LC3
 841      13050500 
 842 0650 97000000 		call	_Z9putStringPKc@plt
 842      E7800000 
 843              	.LVL107:
  29:src/../h/../h/my_console.h **** 
 844              		.loc 2 29 5 is_stmt 1
  29:src/../h/../h/my_console.h **** 
 845              		.loc 2 29 15 is_stmt 0
 846 0658 97000000 		call	_Z10putNewlinev@plt
 846      E7800000 
 847              	.LVL108:
  31:src/../h/../h/my_console.h **** 
 848              		.loc 2 31 5 is_stmt 1
GAS LISTING /tmp/cc0UNFF2.s 			page 26


 849              	.LBB170:
 850              	.LBB171:
  12:src/../h/../h/../h/0_console.h ****         return &instance;
 851              		.loc 3 12 9
  12:src/../h/../h/../h/0_console.h ****         return &instance;
 852              		.loc 3 12 25 is_stmt 0
 853 0660 97070000 		lbu	a5,_ZGVZN8IConsole3getEvE8instance
 853      83C70700 
 854 0668 63920702 		bnez	a5,.L33
 855              	.LVL109:
 856              	.LBB172:
 857              	.LBB173:
 858              	.LBB174:
 859              		.loc 3 32 63
 860 066c 97070000 		lla	a5,_ZZN8IConsole3getEvE8instance
 860      93870700 
 861 0674 23B00700 		sd	zero,0(a5)
 862 0678 23B40700 		sd	zero,8(a5)
 863 067c 23BC073E 		sd	zero,1016(a5)
 864              	.LVL110:
 865              	.LBE174:
 866              	.LBE173:
 867              	.LBE172:
  12:src/../h/../h/../h/0_console.h ****         return &instance;
 868              		.loc 3 12 25
 869 0680 93071000 		li	a5,1
 870 0684 17070000 		sb	a5,_ZGVZN8IConsole3getEvE8instance,a4
 870      2300F700 
 871              	.L33:
  13:src/../h/../h/../h/0_console.h ****     }
 872              		.loc 3 13 9 is_stmt 1
 873              	.LBE171:
 874              	.LBE170:
  31:src/../h/../h/my_console.h **** 
 875              		.loc 2 31 36 is_stmt 0
 876 068c 17050000 		lla	a0,_ZZN8IConsole3getEvE8instance
 876      13050500 
 877 0694 97000000 		call	_ZN8IConsole14writeToConsoleEv@plt
 877      E7800000 
 878              	.LVL111:
 879              		.loc 2 34 5 is_stmt 1
 880              		.loc 2 34 15 is_stmt 0
 881 069c 97000000 		call	_Z10stopKernelv@plt
 881      E7800000 
 882              	.LVL112:
 883              	.L35:
 884              	.LBE169:
 885              	.LBE168:
 163:src/trap.cpp  ****     bool customCallWithReturn = (code == 0x3);
 886              		.loc 1 163 190
 887 06a4 93860B00 		mv	a3,s7
 888 06a8 6FF05FF3 		j	.L26
 889              	.L36:
 890 06ac 93860B00 		mv	a3,s7
 891 06b0 6FF0DFF2 		j	.L26
 892              	.L37:
 893 06b4 93860B00 		mv	a3,s7
GAS LISTING /tmp/cc0UNFF2.s 			page 27


 894 06b8 6FF05FF2 		j	.L26
 895              	.L38:
 896 06bc 93860B00 		mv	a3,s7
 897 06c0 6FF0DFF1 		j	.L26
 898              	.L39:
 899 06c4 93860B00 		mv	a3,s7
 900 06c8 6FF05FF1 		j	.L26
 901              	.L40:
 902 06cc 93860B00 		mv	a3,s7
 903 06d0 6FF0DFF0 		j	.L26
 904              	.L41:
 905 06d4 93860B00 		mv	a3,s7
 906 06d8 6FF05FF0 		j	.L26
 907              	.LVL113:
 908              	.L28:
 170:src/trap.cpp  **** 
 909              		.loc 1 170 9 is_stmt 1
 910 06dc 833784FA 		ld	a5,-88(s0)
 911 06e0 93871700 		addi	a5,a5,1
 912              	.LVL114:
 913              	.LBB175:
 914              	.LBB176:
  21:src/../h/../h/my_console.h ****         return;
 915              		.loc 2 21 5
 916 06e4 63800704 		beqz	a5,.L60
  22:src/../h/../h/my_console.h **** 
 917              		.loc 2 22 9
 918              	.LVL115:
 919              	.LBE176:
 920              	.LBE175:
 172:src/trap.cpp  **** 
 921              		.loc 1 172 9
 172:src/trap.cpp  **** 
 922              		.loc 1 172 28 is_stmt 0
 923 06e8 83370905 		ld	a5,80(s2)
 172:src/trap.cpp  **** 
 924              		.loc 1 172 37
 925 06ec 033784FA 		ld	a4,-88(s0)
 926 06f0 23B8E704 		sd	a4,80(a5)
 927              	.L32:
 183:src/trap.cpp  ****     }
 184:src/trap.cpp  **** 
 185:src/trap.cpp  ****     __asm__ volatile ("mv x10, x10");
 928              		.loc 1 185 5 is_stmt 1
 929              		.loc 1 185 37 is_stmt 0
 930              	#APP
 931              	# 185 "src/trap.cpp" 1
 186              	}
 932              		mv x10, x10
 933              	# 0 "" 2
 934              		.loc 1 186 1
 935              	#NO_APP
 936 06f8 83308105 		ld	ra,88(sp)
 937              		.cfi_remember_state
 938              		.cfi_restore 1
 939 06fc 03340105 		ld	s0,80(sp)
 940              		.cfi_restore 8
GAS LISTING /tmp/cc0UNFF2.s 			page 28


 941              		.cfi_def_cfa 2, 96
 942 0700 83348104 		ld	s1,72(sp)
 943              		.cfi_restore 9
 944              	.LVL116:
 945 0704 03390104 		ld	s2,64(sp)
 946              		.cfi_restore 18
 947              	.LVL117:
 948 0708 83398103 		ld	s3,56(sp)
 949              		.cfi_restore 19
 950              	.LVL118:
 951 070c 033A0103 		ld	s4,48(sp)
 952              		.cfi_restore 20
 953              	.LVL119:
 954 0710 833A8102 		ld	s5,40(sp)
 955              		.cfi_restore 21
 956              	.LVL120:
 957 0714 033B0102 		ld	s6,32(sp)
 958              		.cfi_restore 22
 959              	.LVL121:
 960 0718 833B8101 		ld	s7,24(sp)
 961              		.cfi_restore 23
 962              	.LVL122:
 963 071c 13010106 		addi	sp,sp,96
 964              		.cfi_def_cfa_offset 0
 965 0720 67800000 		jr	ra
 966              	.LVL123:
 967              	.L60:
 968              		.cfi_restore_state
 969              	.LBB183:
 970              	.LBB182:
  24:src/../h/../h/my_console.h ****     putString(file);
 971              		.loc 2 24 5 is_stmt 1
  24:src/../h/../h/my_console.h ****     putString(file);
 972              		.loc 2 24 14 is_stmt 0
 973 0724 17050000 		lla	a0,.LC0
 973      13050500 
 974 072c 97000000 		call	_Z9putStringPKc@plt
 974      E7800000 
 975              	.LVL124:
  25:src/../h/../h/my_console.h ****     putString("    line: ");
 976              		.loc 2 25 5 is_stmt 1
  25:src/../h/../h/my_console.h ****     putString("    line: ");
 977              		.loc 2 25 14 is_stmt 0
 978 0734 17050000 		lla	a0,.LC1
 978      13050500 
 979 073c 97000000 		call	_Z9putStringPKc@plt
 979      E7800000 
 980              	.LVL125:
  26:src/../h/../h/my_console.h ****     putInt(line);
 981              		.loc 2 26 5 is_stmt 1
  26:src/../h/../h/my_console.h ****     putInt(line);
 982              		.loc 2 26 14 is_stmt 0
 983 0744 17050000 		lla	a0,.LC2
 983      13050500 
 984 074c 97000000 		call	_Z9putStringPKc@plt
 984      E7800000 
 985              	.LVL126:
GAS LISTING /tmp/cc0UNFF2.s 			page 29


  27:src/../h/../h/my_console.h ****     putString("   ===========================");
 986              		.loc 2 27 5 is_stmt 1
  27:src/../h/../h/my_console.h ****     putString("   ===========================");
 987              		.loc 2 27 11 is_stmt 0
 988 0754 1305A00A 		li	a0,170
 989 0758 97000000 		call	_Z6putInti@plt
 989      E7800000 
 990              	.LVL127:
  28:src/../h/../h/my_console.h ****     putNewline();
 991              		.loc 2 28 5 is_stmt 1
  28:src/../h/../h/my_console.h ****     putNewline();
 992              		.loc 2 28 14 is_stmt 0
 993 0760 17050000 		lla	a0,.LC3
 993      13050500 
 994 0768 97000000 		call	_Z9putStringPKc@plt
 994      E7800000 
 995              	.LVL128:
  29:src/../h/../h/my_console.h **** 
 996              		.loc 2 29 5 is_stmt 1
  29:src/../h/../h/my_console.h **** 
 997              		.loc 2 29 15 is_stmt 0
 998 0770 97000000 		call	_Z10putNewlinev@plt
 998      E7800000 
 999              	.LVL129:
  31:src/../h/../h/my_console.h **** 
 1000              		.loc 2 31 5 is_stmt 1
 1001              	.LBB177:
 1002              	.LBB178:
  12:src/../h/../h/../h/0_console.h ****         return &instance;
 1003              		.loc 3 12 9
  12:src/../h/../h/../h/0_console.h ****         return &instance;
 1004              		.loc 3 12 25 is_stmt 0
 1005 0778 97070000 		lbu	a5,_ZGVZN8IConsole3getEvE8instance
 1005      83C70700 
 1006 0780 63920702 		bnez	a5,.L31
 1007              	.LVL130:
 1008              	.LBB179:
 1009              	.LBB180:
 1010              	.LBB181:
 1011              		.loc 3 32 63
 1012 0784 97070000 		lla	a5,_ZZN8IConsole3getEvE8instance
 1012      93870700 
 1013 078c 23B00700 		sd	zero,0(a5)
 1014 0790 23B40700 		sd	zero,8(a5)
 1015 0794 23BC073E 		sd	zero,1016(a5)
 1016              	.LVL131:
 1017              	.LBE181:
 1018              	.LBE180:
 1019              	.LBE179:
  12:src/../h/../h/../h/0_console.h ****         return &instance;
 1020              		.loc 3 12 25
 1021 0798 93071000 		li	a5,1
 1022 079c 17070000 		sb	a5,_ZGVZN8IConsole3getEvE8instance,a4
 1022      2300F700 
 1023              	.L31:
  13:src/../h/../h/../h/0_console.h ****     }
 1024              		.loc 3 13 9 is_stmt 1
GAS LISTING /tmp/cc0UNFF2.s 			page 30


 1025              	.LBE178:
 1026              	.LBE177:
  31:src/../h/../h/my_console.h **** 
 1027              		.loc 2 31 36 is_stmt 0
 1028 07a4 17050000 		lla	a0,_ZZN8IConsole3getEvE8instance
 1028      13050500 
 1029 07ac 97000000 		call	_ZN8IConsole14writeToConsoleEv@plt
 1029      E7800000 
 1030              	.LVL132:
 1031              		.loc 2 34 5 is_stmt 1
 1032              		.loc 2 34 15 is_stmt 0
 1033 07b4 97000000 		call	_Z10stopKernelv@plt
 1033      E7800000 
 1034              	.LVL133:
 1035              	.LBE182:
 1036              	.LBE183:
 1037              		.cfi_endproc
 1038              	.LFE20:
 1040              		.align	2
 1041              		.globl	_Z24cConsoleInterruptRoutinev
 1043              	_Z24cConsoleInterruptRoutinev:
 1044              	.LFB21:
 187:src/trap.cpp  **** 
 188:src/trap.cpp  **** void  cConsoleInterruptRoutine()
 189:src/trap.cpp  **** {
 1045              		.loc 1 189 1 is_stmt 1
 1046              		.cfi_startproc
 1047 07bc 130101FF 		addi	sp,sp,-16
 1048              		.cfi_def_cfa_offset 16
 1049 07c0 23341100 		sd	ra,8(sp)
 1050 07c4 23308100 		sd	s0,0(sp)
 1051              		.cfi_offset 1, -8
 1052              		.cfi_offset 8, -16
 1053 07c8 13040101 		addi	s0,sp,16
 1054              		.cfi_def_cfa 8, 0
 190:src/trap.cpp  ****     assert(false);
 1055              		.loc 1 190 5
 1056              	.LVL134:
 1057              	.LBB205:
 1058              	.LBB206:
  21:src/../h/../h/my_console.h ****         return;
 1059              		.loc 2 21 5
  24:src/../h/../h/my_console.h ****     putString(file);
 1060              		.loc 2 24 5
  24:src/../h/../h/my_console.h ****     putString(file);
 1061              		.loc 2 24 14 is_stmt 0
 1062 07cc 17050000 		lla	a0,.LC0
 1062      13050500 
 1063 07d4 97000000 		call	_Z9putStringPKc@plt
 1063      E7800000 
 1064              	.LVL135:
  25:src/../h/../h/my_console.h ****     putString("    line: ");
 1065              		.loc 2 25 5 is_stmt 1
  25:src/../h/../h/my_console.h ****     putString("    line: ");
 1066              		.loc 2 25 14 is_stmt 0
 1067 07dc 17050000 		lla	a0,.LC1
 1067      13050500 
GAS LISTING /tmp/cc0UNFF2.s 			page 31


 1068 07e4 97000000 		call	_Z9putStringPKc@plt
 1068      E7800000 
 1069              	.LVL136:
  26:src/../h/../h/my_console.h ****     putInt(line);
 1070              		.loc 2 26 5 is_stmt 1
  26:src/../h/../h/my_console.h ****     putInt(line);
 1071              		.loc 2 26 14 is_stmt 0
 1072 07ec 17050000 		lla	a0,.LC2
 1072      13050500 
 1073 07f4 97000000 		call	_Z9putStringPKc@plt
 1073      E7800000 
 1074              	.LVL137:
  27:src/../h/../h/my_console.h ****     putString("   ===========================");
 1075              		.loc 2 27 5 is_stmt 1
  27:src/../h/../h/my_console.h ****     putString("   ===========================");
 1076              		.loc 2 27 11 is_stmt 0
 1077 07fc 1305E00B 		li	a0,190
 1078 0800 97000000 		call	_Z6putInti@plt
 1078      E7800000 
 1079              	.LVL138:
  28:src/../h/../h/my_console.h ****     putNewline();
 1080              		.loc 2 28 5 is_stmt 1
  28:src/../h/../h/my_console.h ****     putNewline();
 1081              		.loc 2 28 14 is_stmt 0
 1082 0808 17050000 		lla	a0,.LC3
 1082      13050500 
 1083 0810 97000000 		call	_Z9putStringPKc@plt
 1083      E7800000 
 1084              	.LVL139:
  29:src/../h/../h/my_console.h **** 
 1085              		.loc 2 29 5 is_stmt 1
  29:src/../h/../h/my_console.h **** 
 1086              		.loc 2 29 15 is_stmt 0
 1087 0818 97000000 		call	_Z10putNewlinev@plt
 1087      E7800000 
 1088              	.LVL140:
  31:src/../h/../h/my_console.h **** 
 1089              		.loc 2 31 5 is_stmt 1
 1090              	.LBB207:
 1091              	.LBB208:
  12:src/../h/../h/../h/0_console.h ****         return &instance;
 1092              		.loc 3 12 9
  12:src/../h/../h/../h/0_console.h ****         return &instance;
 1093              		.loc 3 12 25 is_stmt 0
 1094 0820 97070000 		lbu	a5,_ZGVZN8IConsole3getEvE8instance
 1094      83C70700 
 1095 0828 63920702 		bnez	a5,.L62
 1096              	.LVL141:
 1097              	.LBB209:
 1098              	.LBB210:
 1099              	.LBB211:
 1100              		.loc 3 32 63
 1101 082c 97070000 		lla	a5,_ZZN8IConsole3getEvE8instance
 1101      93870700 
 1102 0834 23B00700 		sd	zero,0(a5)
 1103 0838 23B40700 		sd	zero,8(a5)
 1104 083c 23BC073E 		sd	zero,1016(a5)
GAS LISTING /tmp/cc0UNFF2.s 			page 32


 1105              	.LVL142:
 1106              	.LBE211:
 1107              	.LBE210:
 1108              	.LBE209:
  12:src/../h/../h/../h/0_console.h ****         return &instance;
 1109              		.loc 3 12 25
 1110 0840 93071000 		li	a5,1
 1111 0844 17070000 		sb	a5,_ZGVZN8IConsole3getEvE8instance,a4
 1111      2300F700 
 1112              	.L62:
  13:src/../h/../h/../h/0_console.h ****     }
 1113              		.loc 3 13 9 is_stmt 1
 1114              	.LBE208:
 1115              	.LBE207:
  31:src/../h/../h/my_console.h **** 
 1116              		.loc 2 31 36 is_stmt 0
 1117 084c 17050000 		lla	a0,_ZZN8IConsole3getEvE8instance
 1117      13050500 
 1118 0854 97000000 		call	_ZN8IConsole14writeToConsoleEv@plt
 1118      E7800000 
 1119              	.LVL143:
 1120              		.loc 2 34 5 is_stmt 1
 1121              		.loc 2 34 15 is_stmt 0
 1122 085c 97000000 		call	_Z10stopKernelv@plt
 1122      E7800000 
 1123              	.LVL144:
 1124              	.LBE206:
 1125              	.LBE205:
 1126              		.cfi_endproc
 1127              	.LFE21:
 1129              		.section	.rodata.str1.8
 1130 010b 00000000 		.align	3
 1130      00
 1131              	.LC10:
 1132 0110 54696D65 		.string	"Time: "
 1132      3A2000
 1133 0117 00       		.align	3
 1134              	.LC11:
 1135 0118 7300     		.string	"s"
 1136              		.text
 1137              		.align	2
 1138              		.globl	_Z12doTimerStuffv
 1140              	_Z12doTimerStuffv:
 1141              	.LFB22:
 191:src/trap.cpp  ****     uint64 scause;
 192:src/trap.cpp  ****     __asm__ volatile ("csrr %[name], scause" : [name] "=r"(scause));
 193:src/trap.cpp  **** 
 194:src/trap.cpp  **** //    int isExternal = (scause & (0x1UL << 63)) != 0;
 195:src/trap.cpp  ****     int cause = scause & (~(1UL << 63));
 196:src/trap.cpp  **** 
 197:src/trap.cpp  **** 
 198:src/trap.cpp  ****     assert(&(IThread::getPRunning()->sp) == IThread::pRunningSp);
 199:src/trap.cpp  **** 
 200:src/trap.cpp  ****     assert(cause == 9);
 201:src/trap.cpp  **** 
 202:src/trap.cpp  **** //    console_handler();
 203:src/trap.cpp  ****     __asm__ volatile ("mv x10, x10");
GAS LISTING /tmp/cc0UNFF2.s 			page 33


 204:src/trap.cpp  **** 
 205:src/trap.cpp  **** //    IConsole::get()->consoleHandler();
 206:src/trap.cpp  **** 
 207:src/trap.cpp  **** }
 208:src/trap.cpp  **** 
 209:src/trap.cpp  **** void doTimerStuff()
 210:src/trap.cpp  **** {
 1142              		.loc 1 210 1 is_stmt 1
 1143              		.cfi_startproc
 1144 0864 130101FF 		addi	sp,sp,-16
 1145              		.cfi_def_cfa_offset 16
 1146 0868 23341100 		sd	ra,8(sp)
 1147 086c 23308100 		sd	s0,0(sp)
 1148              		.cfi_offset 1, -8
 1149              		.cfi_offset 8, -16
 1150 0870 13040101 		addi	s0,sp,16
 1151              		.cfi_def_cfa 8, 0
 211:src/trap.cpp  ****     IThread::timeSliceCounter++;
 1152              		.loc 1 211 5
 1153              		.loc 1 211 30 is_stmt 0
 1154 0874 17070000 		la	a4,_ZN7IThread16timeSliceCounterE
 1154      03370700 
 1155 087c 83370700 		ld	a5,0(a4)
 1156 0880 93871700 		addi	a5,a5,1
 1157 0884 2330F700 		sd	a5,0(a4)
 212:src/trap.cpp  ****     if(IThread::timeSliceCounter == 2)
 1158              		.loc 1 212 5 is_stmt 1
 1159 0888 13072000 		li	a4,2
 1160 088c 638AE702 		beq	a5,a4,.L68
 1161              	.L65:
 213:src/trap.cpp  ****     {
 214:src/trap.cpp  ****         IThread::timeSliceCounter = 0;
 215:src/trap.cpp  ****         Scheduler::dispatchUserVersion();
 216:src/trap.cpp  ****     }
 217:src/trap.cpp  **** 
 218:src/trap.cpp  ****     gTimer++;
 1162              		.loc 1 218 5
 1163              		.loc 1 218 11 is_stmt 0
 1164 0890 17070000 		lla	a4,.LANCHOR0
 1164      13070700 
 1165 0898 83370700 		ld	a5,0(a4)
 1166 089c 93871700 		addi	a5,a5,1
 1167 08a0 2330F700 		sd	a5,0(a4)
 219:src/trap.cpp  ****     if (gTimer % 10 == 0)
 1168              		.loc 1 219 5 is_stmt 1
 1169              		.loc 1 219 16 is_stmt 0
 1170 08a4 1307A000 		li	a4,10
 1171 08a8 B3F7E702 		remu	a5,a5,a4
 1172              		.loc 1 219 5
 1173 08ac 63860702 		beqz	a5,.L69
 1174              	.L64:
 220:src/trap.cpp  ****     {
 221:src/trap.cpp  ****         putString("Time: ");
 222:src/trap.cpp  ****         putInt(gTimer / 10);
 223:src/trap.cpp  ****         putString("s");
 224:src/trap.cpp  ****         putNewline();
 225:src/trap.cpp  ****     }
GAS LISTING /tmp/cc0UNFF2.s 			page 34


 226:src/trap.cpp  **** }
 1175              		.loc 1 226 1
 1176 08b0 83308100 		ld	ra,8(sp)
 1177              		.cfi_remember_state
 1178              		.cfi_restore 1
 1179 08b4 03340100 		ld	s0,0(sp)
 1180              		.cfi_restore 8
 1181              		.cfi_def_cfa 2, 16
 1182 08b8 13010101 		addi	sp,sp,16
 1183              		.cfi_def_cfa_offset 0
 1184 08bc 67800000 		jr	ra
 1185              	.L68:
 1186              		.cfi_restore_state
 214:src/trap.cpp  ****         Scheduler::dispatchUserVersion();
 1187              		.loc 1 214 9 is_stmt 1
 214:src/trap.cpp  ****         Scheduler::dispatchUserVersion();
 1188              		.loc 1 214 35 is_stmt 0
 1189 08c0 97070000 		la	a5,_ZN7IThread16timeSliceCounterE
 1189      83B70700 
 1190 08c8 23B00700 		sd	zero,0(a5)
 215:src/trap.cpp  ****     }
 1191              		.loc 1 215 9 is_stmt 1
 215:src/trap.cpp  ****     }
 1192              		.loc 1 215 39 is_stmt 0
 1193 08cc 97000000 		call	_ZN9Scheduler19dispatchUserVersionEv@plt
 1193      E7800000 
 1194              	.LVL145:
 1195 08d4 6FF0DFFB 		j	.L65
 1196              	.L69:
 221:src/trap.cpp  ****         putInt(gTimer / 10);
 1197              		.loc 1 221 9 is_stmt 1
 221:src/trap.cpp  ****         putInt(gTimer / 10);
 1198              		.loc 1 221 18 is_stmt 0
 1199 08d8 17050000 		lla	a0,.LC10
 1199      13050500 
 1200 08e0 97000000 		call	_Z9putStringPKc@plt
 1200      E7800000 
 1201              	.LVL146:
 222:src/trap.cpp  ****         putString("s");
 1202              		.loc 1 222 9 is_stmt 1
 222:src/trap.cpp  ****         putString("s");
 1203              		.loc 1 222 23 is_stmt 0
 1204 08e8 17050000 		ld	a0,.LANCHOR0
 1204      03350500 
 1205 08f0 9307A000 		li	a5,10
 1206 08f4 3355F502 		divu	a0,a0,a5
 222:src/trap.cpp  ****         putString("s");
 1207              		.loc 1 222 15
 1208 08f8 1B050500 		sext.w	a0,a0
 1209 08fc 97000000 		call	_Z6putInti@plt
 1209      E7800000 
 1210              	.LVL147:
 223:src/trap.cpp  ****         putNewline();
 1211              		.loc 1 223 9 is_stmt 1
 223:src/trap.cpp  ****         putNewline();
 1212              		.loc 1 223 18 is_stmt 0
 1213 0904 17050000 		lla	a0,.LC11
GAS LISTING /tmp/cc0UNFF2.s 			page 35


 1213      13050500 
 1214 090c 97000000 		call	_Z9putStringPKc@plt
 1214      E7800000 
 1215              	.LVL148:
 224:src/trap.cpp  ****     }
 1216              		.loc 1 224 9 is_stmt 1
 224:src/trap.cpp  ****     }
 1217              		.loc 1 224 19 is_stmt 0
 1218 0914 97000000 		call	_Z10putNewlinev@plt
 1218      E7800000 
 1219              	.LVL149:
 1220              		.loc 1 226 1
 1221 091c 6FF05FF9 		j	.L64
 1222              		.cfi_endproc
 1223              	.LFE22:
 1225              		.align	2
 1226              		.globl	_Z12doSleepStuffv
 1228              	_Z12doSleepStuffv:
 1229              	.LFB23:
 227:src/trap.cpp  **** 
 228:src/trap.cpp  **** void doSleepStuff()
 229:src/trap.cpp  **** {
 1230              		.loc 1 229 1 is_stmt 1
 1231              		.cfi_startproc
 1232 0920 130101FE 		addi	sp,sp,-32
 1233              		.cfi_def_cfa_offset 32
 1234 0924 233C1100 		sd	ra,24(sp)
 1235 0928 23388100 		sd	s0,16(sp)
 1236 092c 23349100 		sd	s1,8(sp)
 1237              		.cfi_offset 1, -8
 1238              		.cfi_offset 8, -16
 1239              		.cfi_offset 9, -24
 1240 0930 13040102 		addi	s0,sp,32
 1241              		.cfi_def_cfa 8, 0
 230:src/trap.cpp  ****     IThread* pCur = Scheduler::get()->pSleepHead;
 1242              		.loc 1 230 5
 1243              	.LBB212:
 1244              	.LBB213:
  10:src/../h/scheduler.h ****         return &instance;
 1245              		.loc 4 10 9
  10:src/../h/scheduler.h ****         return &instance;
 1246              		.loc 4 10 26 is_stmt 0
 1247 0934 97070000 		lbu	a5,_ZGVZN9Scheduler3getEvE8instance
 1247      83C70700 
 1248 093c 63900702 		bnez	a5,.L71
 1249              	.LVL150:
 1250              	.LBB214:
 1251              	.LBB215:
 1252              	.LBB216:
 1253              		.loc 4 27 45
 1254 0940 97070000 		lla	a5,_ZZN9Scheduler3getEvE8instance
 1254      93870700 
 1255 0948 23B00700 		sd	zero,0(a5)
 1256 094c 23B40700 		sd	zero,8(a5)
 1257              	.LVL151:
 1258              	.LBE216:
 1259              	.LBE215:
GAS LISTING /tmp/cc0UNFF2.s 			page 36


 1260              	.LBE214:
  10:src/../h/scheduler.h ****         return &instance;
 1261              		.loc 4 10 26
 1262 0950 93071000 		li	a5,1
 1263 0954 17070000 		sb	a5,_ZGVZN9Scheduler3getEvE8instance,a4
 1263      2300F700 
 1264              	.L71:
  11:src/../h/scheduler.h ****     }
 1265              		.loc 4 11 9 is_stmt 1
 1266              	.LBE213:
 1267              	.LBE212:
 1268              		.loc 1 230 39 is_stmt 0
 1269 095c 97040000 		ld	s1,_ZZN9Scheduler3getEvE8instance+8
 1269      83B40400 
 1270              	.LVL152:
 1271              	.L73:
 231:src/trap.cpp  **** 
 232:src/trap.cpp  ****     while(pCur)
 1272              		.loc 1 232 5 is_stmt 1
 1273              		.loc 1 232 11
 1274 0964 638E0404 		beqz	s1,.L72
 233:src/trap.cpp  ****     {
 234:src/trap.cpp  ****         pCur->remainingSleep--;
 1275              		.loc 1 234 9
 1276              		.loc 1 234 15 is_stmt 0
 1277 0968 83B78404 		ld	a5,72(s1)
 1278              		.loc 1 234 29
 1279 096c 9387F7FF 		addi	a5,a5,-1
 1280 0970 23B4F404 		sd	a5,72(s1)
 235:src/trap.cpp  **** 
 236:src/trap.cpp  ****         assert(pCur->remainingSleep >= 0);
 1281              		.loc 1 236 9 is_stmt 1
 1282              	.LVL153:
  21:src/../h/../h/my_console.h ****         return;
 1283              		.loc 2 21 5
  22:src/../h/../h/my_console.h **** 
 1284              		.loc 2 22 9
 237:src/trap.cpp  **** 
 238:src/trap.cpp  ****         pCur = pCur->pNext;
 1285              		.loc 1 238 9
 1286              		.loc 1 238 14 is_stmt 0
 1287 0974 83B40403 		ld	s1,48(s1)
 1288              	.LVL154:
 232:src/trap.cpp  ****     {
 1289              		.loc 1 232 5
 1290 0978 6FF0DFFE 		j	.L73
 1291              	.LVL155:
 1292              	.L84:
 1293              	.LBB217:
 239:src/trap.cpp  ****     }
 240:src/trap.cpp  **** 
 241:src/trap.cpp  ****     while(true)
 242:src/trap.cpp  ****     {
 243:src/trap.cpp  ****         pCur = Scheduler::get()->pSleepHead;
 244:src/trap.cpp  ****         IThread* pPrev = nullptr;
 245:src/trap.cpp  ****         bool changedList = false;
 246:src/trap.cpp  **** 
GAS LISTING /tmp/cc0UNFF2.s 			page 37


 247:src/trap.cpp  ****         while (pCur)
 248:src/trap.cpp  ****         {
 249:src/trap.cpp  ****             if(pCur->remainingSleep == 0)
 250:src/trap.cpp  ****             {
 251:src/trap.cpp  ****                 if(pCur == Scheduler::get()->pSleepHead) // first in list
 1294              		.loc 1 251 17 is_stmt 1
 1295              	.LBB218:
 1296              	.LBB219:
  10:src/../h/scheduler.h ****         return &instance;
 1297              		.loc 4 10 9
  10:src/../h/scheduler.h ****         return &instance;
 1298              		.loc 4 10 26 is_stmt 0
 1299 097c 97070000 		lbu	a5,_ZGVZN9Scheduler3getEvE8instance
 1299      83C70700 
 1300 0984 63900702 		bnez	a5,.L77
 1301              	.LVL156:
 1302              	.LBB220:
 1303              	.LBB221:
 1304              	.LBB222:
 1305              		.loc 4 27 45
 1306 0988 97070000 		lla	a5,_ZZN9Scheduler3getEvE8instance
 1306      93870700 
 1307 0990 23B00700 		sd	zero,0(a5)
 1308 0994 23B40700 		sd	zero,8(a5)
 1309              	.LVL157:
 1310              	.LBE222:
 1311              	.LBE221:
 1312              	.LBE220:
  10:src/../h/scheduler.h ****         return &instance;
 1313              		.loc 4 10 26
 1314 0998 93071000 		li	a5,1
 1315 099c 97060000 		sb	a5,_ZGVZN9Scheduler3getEvE8instance,a3
 1315      2380F600 
 1316              	.L77:
  11:src/../h/scheduler.h ****     }
 1317              		.loc 4 11 9 is_stmt 1
 1318              	.LBE219:
 1319              	.LBE218:
 1320              		.loc 1 251 46 is_stmt 0
 1321 09a4 97070000 		ld	a5,_ZZN9Scheduler3getEvE8instance+8
 1321      83B70700 
 1322              		.loc 1 251 17
 1323 09ac 6380A706 		beq	a5,a0,.L83
 252:src/trap.cpp  ****                 {
 253:src/trap.cpp  ****                     Scheduler::get()->pSleepHead = pCur->pNext;
 254:src/trap.cpp  ****                 }
 255:src/trap.cpp  ****                 else // not first in list
 256:src/trap.cpp  ****                 {
 257:src/trap.cpp  ****                     pPrev->pNext = pCur->pNext;
 1324              		.loc 1 257 21 is_stmt 1
 1325              		.loc 1 257 42 is_stmt 0
 1326 09b0 83370503 		ld	a5,48(a0)
 1327              		.loc 1 257 34
 1328 09b4 2338F702 		sd	a5,48(a4)
 1329              	.LVL158:
 1330              	.L80:
 258:src/trap.cpp  ****                 }
GAS LISTING /tmp/cc0UNFF2.s 			page 38


 259:src/trap.cpp  **** 
 260:src/trap.cpp  ****                 changedList = true;
 1331              		.loc 1 260 17 is_stmt 1
 261:src/trap.cpp  ****                 Scheduler::put(pCur); // WARNING: must be last command to preserve the pCur->pNext
 1332              		.loc 1 261 17
 1333              		.loc 1 261 31 is_stmt 0
 1334 09b8 97000000 		call	_ZN9Scheduler3putEP7IThread@plt
 1334      E7800000 
 1335              	.LVL159:
 262:src/trap.cpp  ****                 break;
 1336              		.loc 1 262 17 is_stmt 1
 263:src/trap.cpp  ****             }
 264:src/trap.cpp  **** 
 265:src/trap.cpp  ****             pPrev = pCur;
 266:src/trap.cpp  ****             pCur = pCur->pNext;
 267:src/trap.cpp  ****         }
 268:src/trap.cpp  **** 
 269:src/trap.cpp  ****         if(changedList == false) // this means there was one pass trough the loop and no changes we
 1337              		.loc 1 269 9
 1338              	.L72:
 1339              	.LBE217:
 241:src/trap.cpp  ****     {
 1340              		.loc 1 241 5
 1341              	.LBB233:
 243:src/trap.cpp  ****         IThread* pPrev = nullptr;
 1342              		.loc 1 243 9
 1343              	.LBB223:
 1344              	.LBB224:
  10:src/../h/scheduler.h ****         return &instance;
 1345              		.loc 4 10 9
  10:src/../h/scheduler.h ****         return &instance;
 1346              		.loc 4 10 26 is_stmt 0
 1347 09c0 97070000 		lbu	a5,_ZGVZN9Scheduler3getEvE8instance
 1347      83C70700 
 1348 09c8 63900702 		bnez	a5,.L74
 1349              	.LVL160:
 1350              	.LBB225:
 1351              	.LBB226:
 1352              	.LBB227:
 1353              		.loc 4 27 45
 1354 09cc 97070000 		lla	a5,_ZZN9Scheduler3getEvE8instance
 1354      93870700 
 1355 09d4 23B00700 		sd	zero,0(a5)
 1356 09d8 23B40700 		sd	zero,8(a5)
 1357              	.LVL161:
 1358              	.LBE227:
 1359              	.LBE226:
 1360              	.LBE225:
  10:src/../h/scheduler.h ****         return &instance;
 1361              		.loc 4 10 26
 1362 09dc 93071000 		li	a5,1
 1363 09e0 17070000 		sb	a5,_ZGVZN9Scheduler3getEvE8instance,a4
 1363      2300F700 
 1364              	.L74:
  11:src/../h/scheduler.h ****     }
 1365              		.loc 4 11 9 is_stmt 1
 1366              	.LBE224:
GAS LISTING /tmp/cc0UNFF2.s 			page 39


 1367              	.LBE223:
 243:src/trap.cpp  ****         IThread* pPrev = nullptr;
 1368              		.loc 1 243 14 is_stmt 0
 1369 09e8 17050000 		ld	a0,_ZZN9Scheduler3getEvE8instance+8
 1369      03350500 
 1370              	.LVL162:
 244:src/trap.cpp  ****         bool changedList = false;
 1371              		.loc 1 244 9 is_stmt 1
 245:src/trap.cpp  **** 
 1372              		.loc 1 245 9
 244:src/trap.cpp  ****         bool changedList = false;
 1373              		.loc 1 244 18 is_stmt 0
 1374 09f0 13870400 		mv	a4,s1
 1375              	.LVL163:
 1376              	.L81:
 247:src/trap.cpp  ****         {
 1377              		.loc 1 247 9 is_stmt 1
 247:src/trap.cpp  ****         {
 1378              		.loc 1 247 16
 1379 09f4 63040504 		beqz	a0,.L70
 249:src/trap.cpp  ****             {
 1380              		.loc 1 249 13
 249:src/trap.cpp  ****             {
 1381              		.loc 1 249 22 is_stmt 0
 1382 09f8 83378504 		ld	a5,72(a0)
 249:src/trap.cpp  ****             {
 1383              		.loc 1 249 13
 1384 09fc E38007F8 		beqz	a5,.L84
 265:src/trap.cpp  ****             pCur = pCur->pNext;
 1385              		.loc 1 265 13 is_stmt 1
 1386              	.LVL164:
 266:src/trap.cpp  ****         }
 1387              		.loc 1 266 13
 265:src/trap.cpp  ****             pCur = pCur->pNext;
 1388              		.loc 1 265 19 is_stmt 0
 1389 0a00 13070500 		mv	a4,a0
 266:src/trap.cpp  ****         }
 1390              		.loc 1 266 18
 1391 0a04 03350503 		ld	a0,48(a0)
 1392              	.LVL165:
 247:src/trap.cpp  ****         {
 1393              		.loc 1 247 9
 1394 0a08 6FF0DFFE 		j	.L81
 1395              	.L83:
 253:src/trap.cpp  ****                 }
 1396              		.loc 1 253 21 is_stmt 1
 1397              	.LBB228:
 1398              	.LBB229:
  10:src/../h/scheduler.h ****         return &instance;
 1399              		.loc 4 10 9
  10:src/../h/scheduler.h ****         return &instance;
 1400              		.loc 4 10 26 is_stmt 0
 1401 0a0c 97070000 		lbu	a5,_ZGVZN9Scheduler3getEvE8instance
 1401      83C70700 
 1402 0a14 639C0700 		bnez	a5,.L79
 1403              	.LVL166:
 1404              	.LBB230:
GAS LISTING /tmp/cc0UNFF2.s 			page 40


 1405              	.LBB231:
 1406              	.LBB232:
 1407              		.loc 4 27 45
 1408 0a18 97070000 		sd	zero,_ZZN9Scheduler3getEvE8instance,a5
 1408      23B00700 
 1409              	.LVL167:
 1410              	.LBE232:
 1411              	.LBE231:
 1412              	.LBE230:
  10:src/../h/scheduler.h ****         return &instance;
 1413              		.loc 4 10 26
 1414 0a20 93071000 		li	a5,1
 1415 0a24 17070000 		sb	a5,_ZGVZN9Scheduler3getEvE8instance,a4
 1415      2300F700 
 1416              	.LVL168:
 1417              	.L79:
  11:src/../h/scheduler.h ****     }
 1418              		.loc 4 11 9 is_stmt 1
 1419              	.LBE229:
 1420              	.LBE228:
 253:src/trap.cpp  ****                 }
 1421              		.loc 1 253 58 is_stmt 0
 1422 0a2c 83370503 		ld	a5,48(a0)
 253:src/trap.cpp  ****                 }
 1423              		.loc 1 253 50
 1424 0a30 17070000 		sd	a5,_ZZN9Scheduler3getEvE8instance+8,a4
 1424      2330F700 
 1425 0a38 6FF01FF8 		j	.L80
 1426              	.LVL169:
 1427              	.L70:
 1428              	.LBE233:
 270:src/trap.cpp  ****             break;
 271:src/trap.cpp  ****     }
 272:src/trap.cpp  **** }
 1429              		.loc 1 272 1
 1430 0a3c 83308101 		ld	ra,24(sp)
 1431              		.cfi_restore 1
 1432 0a40 03340101 		ld	s0,16(sp)
 1433              		.cfi_restore 8
 1434              		.cfi_def_cfa 2, 32
 1435 0a44 83348100 		ld	s1,8(sp)
 1436              		.cfi_restore 9
 1437 0a48 13010102 		addi	sp,sp,32
 1438              		.cfi_def_cfa_offset 0
 1439 0a4c 67800000 		jr	ra
 1440              		.cfi_endproc
 1441              	.LFE23:
 1443              		.align	2
 1444              		.globl	_Z22cTimerInterruptRoutinev
 1446              	_Z22cTimerInterruptRoutinev:
 1447              	.LFB19:
  18:src/trap.cpp  ****     uint64 scause;
 1448              		.loc 1 18 1 is_stmt 1
 1449              		.cfi_startproc
 1450 0a50 130101FE 		addi	sp,sp,-32
 1451              		.cfi_def_cfa_offset 32
 1452 0a54 233C1100 		sd	ra,24(sp)
GAS LISTING /tmp/cc0UNFF2.s 			page 41


 1453 0a58 23388100 		sd	s0,16(sp)
 1454 0a5c 23349100 		sd	s1,8(sp)
 1455              		.cfi_offset 1, -8
 1456              		.cfi_offset 8, -16
 1457              		.cfi_offset 9, -24
 1458 0a60 13040102 		addi	s0,sp,32
 1459              		.cfi_def_cfa 8, 0
  19:src/trap.cpp  ****     __asm__ volatile ("csrr %[name], scause" : [name] "=r"(scause));
 1460              		.loc 1 19 5
  20:src/trap.cpp  **** 
 1461              		.loc 1 20 5
  20:src/trap.cpp  **** 
 1462              		.loc 1 20 68 is_stmt 0
 1463              	#APP
 1464              	# 20 "src/trap.cpp" 1
 1465              		csrr s1, scause
 1466              	# 0 "" 2
 1467              	.LVL170:
  22:src/trap.cpp  **** 
 1468              		.loc 1 22 5 is_stmt 1
  24:src/trap.cpp  ****     if(cause == 1)
 1469              		.loc 1 24 5
 1470              	#NO_APP
 1471 0a68 97000000 		call	_ZN7IThread11getPRunningEv@plt
 1471      E7800000 
 1472              	.LVL171:
 1473 0a70 13050505 		addi	a0,a0,80
 1474 0a74 97070000 		la	a5,_ZN7IThread10pRunningSpE
 1474      83B70700 
 1475 0a7c 83B70700 		ld	a5,0(a5)
 1476              	.LVL172:
 1477              	.LBB253:
 1478              	.LBB254:
  21:src/../h/../h/my_console.h ****         return;
 1479              		.loc 2 21 5
 1480 0a80 6398A706 		bne	a5,a0,.L94
 1481 0a84 9B840400 		sext.w	s1,s1
 1482              	.LVL173:
  22:src/../h/../h/my_console.h **** 
 1483              		.loc 2 22 9
 1484              	.LBE254:
 1485              	.LBE253:
  25:src/trap.cpp  ****     {
 1486              		.loc 1 25 5
 1487 0a88 93071000 		li	a5,1
 1488 0a8c 638EF40E 		beq	s1,a5,.L95
  31:src/trap.cpp  ****     {
 1489              		.loc 1 31 10
 1490 0a90 93079000 		li	a5,9
 1491 0a94 6396F410 		bne	s1,a5,.L90
  33:src/trap.cpp  **** //        int a = plic_claim();
 1492              		.loc 1 33 9
  33:src/trap.cpp  **** //        int a = plic_claim();
 1493              		.loc 1 33 40 is_stmt 0
 1494              	#APP
 1495              	# 33 "src/trap.cpp" 1
  37:src/trap.cpp  ****         __asm__ volatile("mv x10, x10");
GAS LISTING /tmp/cc0UNFF2.s 			page 42


 1496              		mv x10, x10
 1497              	# 0 "" 2
 1498              		.loc 1 37 9 is_stmt 1
 1499              	#NO_APP
 1500              	.LBB261:
 1501              	.LBB262:
  12:src/../h/../h/../h/0_console.h ****         return &instance;
 1502              		.loc 3 12 9
  12:src/../h/../h/../h/0_console.h ****         return &instance;
 1503              		.loc 3 12 25 is_stmt 0
 1504 0a9c 97070000 		lbu	a5,_ZGVZN8IConsole3getEvE8instance
 1504      83C70700 
 1505 0aa4 63920702 		bnez	a5,.L91
 1506              	.LVL174:
 1507              	.LBB263:
 1508              	.LBB264:
 1509              	.LBB265:
 1510              		.loc 3 32 63
 1511 0aa8 97070000 		lla	a5,_ZZN8IConsole3getEvE8instance
 1511      93870700 
 1512 0ab0 23B00700 		sd	zero,0(a5)
 1513 0ab4 23B40700 		sd	zero,8(a5)
 1514 0ab8 23BC073E 		sd	zero,1016(a5)
 1515              	.LVL175:
 1516              	.LBE265:
 1517              	.LBE264:
 1518              	.LBE263:
  12:src/../h/../h/../h/0_console.h ****         return &instance;
 1519              		.loc 3 12 25
 1520 0abc 93071000 		li	a5,1
 1521 0ac0 17070000 		sb	a5,_ZGVZN8IConsole3getEvE8instance,a4
 1521      2300F700 
 1522              	.L91:
  13:src/../h/../h/../h/0_console.h ****     }
 1523              		.loc 3 13 9 is_stmt 1
 1524              	.LBE262:
 1525              	.LBE261:
  37:src/trap.cpp  ****         __asm__ volatile("mv x10, x10");
 1526              		.loc 1 37 40 is_stmt 0
 1527 0ac8 17050000 		lla	a0,_ZZN8IConsole3getEvE8instance
 1527      13050500 
 1528 0ad0 97000000 		call	_ZN8IConsole14consoleHandlerEv@plt
 1528      E7800000 
 1529              	.LVL176:
  38:src/trap.cpp  ****     }
 1530              		.loc 1 38 9 is_stmt 1
  38:src/trap.cpp  ****     }
 1531              		.loc 1 38 40 is_stmt 0
 1532              	#APP
 1533              	# 38 "src/trap.cpp" 1
 1534              		mv x10, x10
 1535              	# 0 "" 2
 1536              	#NO_APP
 1537              	.L85:
  44:src/trap.cpp  **** 
 1538              		.loc 1 44 1
 1539 0adc 83308101 		ld	ra,24(sp)
GAS LISTING /tmp/cc0UNFF2.s 			page 43


 1540              		.cfi_remember_state
 1541              		.cfi_restore 1
 1542 0ae0 03340101 		ld	s0,16(sp)
 1543              		.cfi_restore 8
 1544              		.cfi_def_cfa 2, 32
 1545 0ae4 83348100 		ld	s1,8(sp)
 1546              		.cfi_restore 9
 1547              	.LVL177:
 1548 0ae8 13010102 		addi	sp,sp,32
 1549              		.cfi_def_cfa_offset 0
 1550 0aec 67800000 		jr	ra
 1551              	.LVL178:
 1552              	.L94:
 1553              		.cfi_restore_state
 1554              	.LBB266:
 1555              	.LBB260:
  24:src/../h/../h/my_console.h ****     putString(file);
 1556              		.loc 2 24 5 is_stmt 1
  24:src/../h/../h/my_console.h ****     putString(file);
 1557              		.loc 2 24 14 is_stmt 0
 1558 0af0 17050000 		lla	a0,.LC0
 1558      13050500 
 1559              	.LVL179:
 1560 0af8 97000000 		call	_Z9putStringPKc@plt
 1560      E7800000 
 1561              	.LVL180:
  25:src/../h/../h/my_console.h ****     putString("    line: ");
 1562              		.loc 2 25 5 is_stmt 1
  25:src/../h/../h/my_console.h ****     putString("    line: ");
 1563              		.loc 2 25 14 is_stmt 0
 1564 0b00 17050000 		lla	a0,.LC1
 1564      13050500 
 1565 0b08 97000000 		call	_Z9putStringPKc@plt
 1565      E7800000 
 1566              	.LVL181:
  26:src/../h/../h/my_console.h ****     putInt(line);
 1567              		.loc 2 26 5 is_stmt 1
  26:src/../h/../h/my_console.h ****     putInt(line);
 1568              		.loc 2 26 14 is_stmt 0
 1569 0b10 17050000 		lla	a0,.LC2
 1569      13050500 
 1570 0b18 97000000 		call	_Z9putStringPKc@plt
 1570      E7800000 
 1571              	.LVL182:
  27:src/../h/../h/my_console.h ****     putString("   ===========================");
 1572              		.loc 2 27 5 is_stmt 1
  27:src/../h/../h/my_console.h ****     putString("   ===========================");
 1573              		.loc 2 27 11 is_stmt 0
 1574 0b20 13058001 		li	a0,24
 1575 0b24 97000000 		call	_Z6putInti@plt
 1575      E7800000 
 1576              	.LVL183:
  28:src/../h/../h/my_console.h ****     putNewline();
 1577              		.loc 2 28 5 is_stmt 1
  28:src/../h/../h/my_console.h ****     putNewline();
 1578              		.loc 2 28 14 is_stmt 0
 1579 0b2c 17050000 		lla	a0,.LC3
GAS LISTING /tmp/cc0UNFF2.s 			page 44


 1579      13050500 
 1580 0b34 97000000 		call	_Z9putStringPKc@plt
 1580      E7800000 
 1581              	.LVL184:
  29:src/../h/../h/my_console.h **** 
 1582              		.loc 2 29 5 is_stmt 1
  29:src/../h/../h/my_console.h **** 
 1583              		.loc 2 29 15 is_stmt 0
 1584 0b3c 97000000 		call	_Z10putNewlinev@plt
 1584      E7800000 
 1585              	.LVL185:
  31:src/../h/../h/my_console.h **** 
 1586              		.loc 2 31 5 is_stmt 1
 1587              	.LBB255:
 1588              	.LBB256:
  12:src/../h/../h/../h/0_console.h ****         return &instance;
 1589              		.loc 3 12 9
  12:src/../h/../h/../h/0_console.h ****         return &instance;
 1590              		.loc 3 12 25 is_stmt 0
 1591 0b44 97070000 		lbu	a5,_ZGVZN8IConsole3getEvE8instance
 1591      83C70700 
 1592 0b4c 63920702 		bnez	a5,.L87
 1593              	.LVL186:
 1594              	.LBB257:
 1595              	.LBB258:
 1596              	.LBB259:
 1597              		.loc 3 32 63
 1598 0b50 97070000 		lla	a5,_ZZN8IConsole3getEvE8instance
 1598      93870700 
 1599 0b58 23B00700 		sd	zero,0(a5)
 1600 0b5c 23B40700 		sd	zero,8(a5)
 1601 0b60 23BC073E 		sd	zero,1016(a5)
 1602              	.LVL187:
 1603              	.LBE259:
 1604              	.LBE258:
 1605              	.LBE257:
  12:src/../h/../h/../h/0_console.h ****         return &instance;
 1606              		.loc 3 12 25
 1607 0b64 93071000 		li	a5,1
 1608 0b68 17070000 		sb	a5,_ZGVZN8IConsole3getEvE8instance,a4
 1608      2300F700 
 1609              	.L87:
  13:src/../h/../h/../h/0_console.h ****     }
 1610              		.loc 3 13 9 is_stmt 1
 1611              	.LBE256:
 1612              	.LBE255:
  31:src/../h/../h/my_console.h **** 
 1613              		.loc 2 31 36 is_stmt 0
 1614 0b70 17050000 		lla	a0,_ZZN8IConsole3getEvE8instance
 1614      13050500 
 1615 0b78 97000000 		call	_ZN8IConsole14writeToConsoleEv@plt
 1615      E7800000 
 1616              	.LVL188:
 1617              		.loc 2 34 5 is_stmt 1
 1618              		.loc 2 34 15 is_stmt 0
 1619 0b80 97000000 		call	_Z10stopKernelv@plt
 1619      E7800000 
GAS LISTING /tmp/cc0UNFF2.s 			page 45


 1620              	.LVL189:
 1621              	.L95:
 1622              	.LBE260:
 1623              	.LBE266:
  27:src/trap.cpp  ****         doTimerStuff();
 1624              		.loc 1 27 9 is_stmt 1
  27:src/trap.cpp  ****         doTimerStuff();
 1625              		.loc 1 27 43 is_stmt 0
 1626              	#APP
 1627              	# 27 "src/trap.cpp" 1
  28:src/trap.cpp  ****         doSleepStuff();
 1628              		csrc sip, 0x2
 1629              	# 0 "" 2
 1630              		.loc 1 28 9 is_stmt 1
  28:src/trap.cpp  ****         doSleepStuff();
 1631              		.loc 1 28 21 is_stmt 0
 1632              	#NO_APP
 1633 0b8c 97000000 		call	_Z12doTimerStuffv
 1633      E7800000 
 1634              	.LVL190:
  29:src/trap.cpp  ****     }
 1635              		.loc 1 29 9 is_stmt 1
  29:src/trap.cpp  ****     }
 1636              		.loc 1 29 21 is_stmt 0
 1637 0b94 97000000 		call	_Z12doSleepStuffv
 1637      E7800000 
 1638              	.LVL191:
 1639 0b9c 6FF01FF4 		j	.L85
 1640              	.L90:
  42:src/trap.cpp  ****     }
 1641              		.loc 1 42 9 is_stmt 1
 1642              	.LVL192:
 1643              	.LBB267:
 1644              	.LBB268:
  21:src/../h/../h/my_console.h ****         return;
 1645              		.loc 2 21 5
  24:src/../h/../h/my_console.h ****     putString(file);
 1646              		.loc 2 24 5
  24:src/../h/../h/my_console.h ****     putString(file);
 1647              		.loc 2 24 14 is_stmt 0
 1648 0ba0 17050000 		lla	a0,.LC0
 1648      13050500 
 1649 0ba8 97000000 		call	_Z9putStringPKc@plt
 1649      E7800000 
 1650              	.LVL193:
  25:src/../h/../h/my_console.h ****     putString("    line: ");
 1651              		.loc 2 25 5 is_stmt 1
  25:src/../h/../h/my_console.h ****     putString("    line: ");
 1652              		.loc 2 25 14 is_stmt 0
 1653 0bb0 17050000 		lla	a0,.LC1
 1653      13050500 
 1654 0bb8 97000000 		call	_Z9putStringPKc@plt
 1654      E7800000 
 1655              	.LVL194:
  26:src/../h/../h/my_console.h ****     putInt(line);
 1656              		.loc 2 26 5 is_stmt 1
  26:src/../h/../h/my_console.h ****     putInt(line);
GAS LISTING /tmp/cc0UNFF2.s 			page 46


 1657              		.loc 2 26 14 is_stmt 0
 1658 0bc0 17050000 		lla	a0,.LC2
 1658      13050500 
 1659 0bc8 97000000 		call	_Z9putStringPKc@plt
 1659      E7800000 
 1660              	.LVL195:
  27:src/../h/../h/my_console.h ****     putString("   ===========================");
 1661              		.loc 2 27 5 is_stmt 1
  27:src/../h/../h/my_console.h ****     putString("   ===========================");
 1662              		.loc 2 27 11 is_stmt 0
 1663 0bd0 1305A002 		li	a0,42
 1664 0bd4 97000000 		call	_Z6putInti@plt
 1664      E7800000 
 1665              	.LVL196:
  28:src/../h/../h/my_console.h ****     putNewline();
 1666              		.loc 2 28 5 is_stmt 1
  28:src/../h/../h/my_console.h ****     putNewline();
 1667              		.loc 2 28 14 is_stmt 0
 1668 0bdc 17050000 		lla	a0,.LC3
 1668      13050500 
 1669 0be4 97000000 		call	_Z9putStringPKc@plt
 1669      E7800000 
 1670              	.LVL197:
  29:src/../h/../h/my_console.h **** 
 1671              		.loc 2 29 5 is_stmt 1
  29:src/../h/../h/my_console.h **** 
 1672              		.loc 2 29 15 is_stmt 0
 1673 0bec 97000000 		call	_Z10putNewlinev@plt
 1673      E7800000 
 1674              	.LVL198:
  31:src/../h/../h/my_console.h **** 
 1675              		.loc 2 31 5 is_stmt 1
 1676              	.LBB269:
 1677              	.LBB270:
  12:src/../h/../h/../h/0_console.h ****         return &instance;
 1678              		.loc 3 12 9
  12:src/../h/../h/../h/0_console.h ****         return &instance;
 1679              		.loc 3 12 25 is_stmt 0
 1680 0bf4 97070000 		lbu	a5,_ZGVZN8IConsole3getEvE8instance
 1680      83C70700 
 1681 0bfc 63920702 		bnez	a5,.L92
 1682              	.LVL199:
 1683              	.LBB271:
 1684              	.LBB272:
 1685              	.LBB273:
 1686              		.loc 3 32 63
 1687 0c00 97070000 		lla	a5,_ZZN8IConsole3getEvE8instance
 1687      93870700 
 1688 0c08 23B00700 		sd	zero,0(a5)
 1689 0c0c 23B40700 		sd	zero,8(a5)
 1690 0c10 23BC073E 		sd	zero,1016(a5)
 1691              	.LVL200:
 1692              	.LBE273:
 1693              	.LBE272:
 1694              	.LBE271:
  12:src/../h/../h/../h/0_console.h ****         return &instance;
 1695              		.loc 3 12 25
GAS LISTING /tmp/cc0UNFF2.s 			page 47


 1696 0c14 93071000 		li	a5,1
 1697 0c18 17070000 		sb	a5,_ZGVZN8IConsole3getEvE8instance,a4
 1697      2300F700 
 1698              	.L92:
  13:src/../h/../h/../h/0_console.h ****     }
 1699              		.loc 3 13 9 is_stmt 1
 1700              	.LBE270:
 1701              	.LBE269:
  31:src/../h/../h/my_console.h **** 
 1702              		.loc 2 31 36 is_stmt 0
 1703 0c20 17050000 		lla	a0,_ZZN8IConsole3getEvE8instance
 1703      13050500 
 1704 0c28 97000000 		call	_ZN8IConsole14writeToConsoleEv@plt
 1704      E7800000 
 1705              	.LVL201:
 1706              		.loc 2 34 5 is_stmt 1
 1707              		.loc 2 34 15 is_stmt 0
 1708 0c30 97000000 		call	_Z10stopKernelv@plt
 1708      E7800000 
 1709              	.LVL202:
 1710              	.LBE268:
 1711              	.LBE267:
 1712              		.cfi_endproc
 1713              	.LFE19:
 1715              		.globl	gTimer
 1716              		.weak	_ZGVZN9Scheduler3getEvE8instance
 1717              		.section	.bss._ZGVZN9Scheduler3getEvE8instance,"awG",@nobits,_ZGVZN9Scheduler3getEvE8instance,comd
 1718              		.align	3
 1721              	_ZGVZN9Scheduler3getEvE8instance:
 1722 0000 00000000 		.zero	8
 1722      00000000 
 1723              		.weak	_ZZN9Scheduler3getEvE8instance
 1724              		.section	.bss._ZZN9Scheduler3getEvE8instance,"awG",@nobits,_ZZN9Scheduler3getEvE8instance,comdat
 1725              		.align	3
 1728              	_ZZN9Scheduler3getEvE8instance:
 1729 0000 00000000 		.zero	16
 1729      00000000 
 1729      00000000 
 1729      00000000 
 1730              		.weak	_ZGVZN8IConsole3getEvE8instance
 1731              		.section	.bss._ZGVZN8IConsole3getEvE8instance,"awG",@nobits,_ZGVZN8IConsole3getEvE8instance,comdat
 1732              		.align	3
 1735              	_ZGVZN8IConsole3getEvE8instance:
 1736 0000 00000000 		.zero	8
 1736      00000000 
 1737              		.weak	_ZZN8IConsole3getEvE8instance
 1738              		.section	.bss._ZZN8IConsole3getEvE8instance,"awG",@nobits,_ZZN8IConsole3getEvE8instance,comdat
 1739              		.align	3
 1742              	_ZZN8IConsole3getEvE8instance:
 1743 0000 00000000 		.zero	2048
 1743      00000000 
 1743      00000000 
 1743      00000000 
 1743      00000000 
 1744              		.bss
 1745              		.align	3
 1746              		.set	.LANCHOR0,. + 0
GAS LISTING /tmp/cc0UNFF2.s 			page 48


 1749              	gTimer:
 1750 0000 00000000 		.zero	8
 1750      00000000 
 1751              		.text
 1752              	.Letext0:
 1753              		.file 5 "src/../h/../lib/hw.h"
 1754              		.file 6 "src/../h/thread.h"
 1755              		.file 7 "src/../h/alloc.h"
 1756              		.file 8 "src/../h/../h/syscall_c.hpp"
GAS LISTING /tmp/cc0UNFF2.s 			page 49

