GAS LISTING /tmp/ccnCQAdl.s 			page 1


   1              		.file	"trap.cpp"
   2              		.option pic
   3              		.option norelax
   4              		.text
   5              	.Ltext0:
   6              		.align	2
   7              		.globl	_Z8testCallm
   9              	_Z8testCallm:
  10              	.LFB18:
  11              		.file 1 "src/trap.cpp"
   1:src/trap.cpp  **** #include "../h/thread.h"
   2:src/trap.cpp  **** #include "../h/scheduler.h"
   3:src/trap.cpp  **** #include "../h/alloc.h"
   4:src/trap.cpp  **** #include "../h/0_console.h"
   5:src/trap.cpp  **** 
   6:src/trap.cpp  **** uint64 gTimer = 0;
   7:src/trap.cpp  **** 
   8:src/trap.cpp  **** uint64 fib(uint64 n);
   9:src/trap.cpp  **** 
  10:src/trap.cpp  **** uint64 testCall(uint64 n)
  11:src/trap.cpp  **** {
  12              		.loc 1 11 1
  13              		.cfi_startproc
  14              	.LVL0:
  15 0000 130101FF 		addi	sp,sp,-16
  16              		.cfi_def_cfa_offset 16
  17 0004 23341100 		sd	ra,8(sp)
  18 0008 23308100 		sd	s0,0(sp)
  19              		.cfi_offset 1, -8
  20              		.cfi_offset 8, -16
  21 000c 13040101 		addi	s0,sp,16
  22              		.cfi_def_cfa 8, 0
  12:src/trap.cpp  ****     return fib(n);
  23              		.loc 1 12 5
  24              		.loc 1 12 15 is_stmt 0
  25 0010 97000000 		call	_Z3fibm@plt
  25      E7800000 
  26              	.LVL1:
  13:src/trap.cpp  **** }
  27              		.loc 1 13 1
  28 0018 83308100 		ld	ra,8(sp)
  29              		.cfi_restore 1
  30 001c 03340100 		ld	s0,0(sp)
  31              		.cfi_restore 8
  32              		.cfi_def_cfa 2, 16
  33 0020 13010101 		addi	sp,sp,16
  34              		.cfi_def_cfa_offset 0
  35 0024 67800000 		jr	ra
  36              		.cfi_endproc
  37              	.LFE18:
  39              		.section	.rodata.str1.8,"aMS",@progbits,1
  40              		.align	3
  41              	.LC0:
  42 0000 3D3D3D3D 		.string	"===================== ASSERT file: "
  42      3D3D3D3D 
  42      3D3D3D3D 
  42      3D3D3D3D 
GAS LISTING /tmp/ccnCQAdl.s 			page 2


  42      3D3D3D3D 
  43 0024 00000000 		.align	3
  44              	.LC1:
  45 0028 7372632F 		.string	"src/trap.cpp"
  45      74726170 
  45      2E637070 
  45      00
  46 0035 000000   		.align	3
  47              	.LC2:
  48 0038 20202020 		.string	"    line: "
  48      6C696E65 
  48      3A2000
  49 0043 00000000 		.align	3
  49      00
  50              	.LC3:
  51 0048 2020203D 		.string	"   ==========================="
  51      3D3D3D3D 
  51      3D3D3D3D 
  51      3D3D3D3D 
  51      3D3D3D3D 
  52              		.text
  53              		.align	2
  54              		.globl	_Z24cConsoleInterruptRoutinev
  56              	_Z24cConsoleInterruptRoutinev:
  57              	.LFB19:
  14:src/trap.cpp  **** 
  15:src/trap.cpp  **** void  cConsoleInterruptRoutine()
  16:src/trap.cpp  **** {
  58              		.loc 1 16 1 is_stmt 1
  59              		.cfi_startproc
  60 0028 130101FF 		addi	sp,sp,-16
  61              		.cfi_def_cfa_offset 16
  62 002c 23341100 		sd	ra,8(sp)
  63 0030 23308100 		sd	s0,0(sp)
  64              		.cfi_offset 1, -8
  65              		.cfi_offset 8, -16
  66 0034 13040101 		addi	s0,sp,16
  67              		.cfi_def_cfa 8, 0
  17:src/trap.cpp  ****     assert(false);
  68              		.loc 1 17 5
  69              	.LVL2:
  70              	.LBB16:
  71              	.LBB17:
  72              		.file 2 "src/../h/../h/my_console.h"
   1:src/../h/../h/my_console.h **** #pragma once
   2:src/../h/../h/my_console.h **** 
   3:src/../h/../h/my_console.h **** #include "../h/risc.h"
   4:src/../h/../h/my_console.h **** 
   5:src/../h/../h/my_console.h **** #include "../lib/hw.h"
   6:src/../h/../h/my_console.h **** 
   7:src/../h/../h/my_console.h **** #define __DEBUG_MODE
   8:src/../h/../h/my_console.h **** 
   9:src/../h/../h/my_console.h **** 
  10:src/../h/../h/my_console.h **** void putString(const char* s);
  11:src/../h/../h/my_console.h **** void putInt(int n);
  12:src/../h/../h/my_console.h **** void putNewline();
  13:src/../h/../h/my_console.h **** void putU64(uint64 n);
GAS LISTING /tmp/ccnCQAdl.s 			page 3


  14:src/../h/../h/my_console.h **** void putBinary(uint64 n);
  15:src/../h/../h/my_console.h **** 
  16:src/../h/../h/my_console.h **** [[noreturn]] void stopKernel();
  17:src/../h/../h/my_console.h **** 
  18:src/../h/../h/my_console.h **** inline void _assert(bool valid, const char* file, int line) // MUST be inline
  19:src/../h/../h/my_console.h **** {
  20:src/../h/../h/my_console.h ****     if(valid)
  73              		.loc 2 20 5
  21:src/../h/../h/my_console.h ****         return;
  22:src/../h/../h/my_console.h **** 
  23:src/../h/../h/my_console.h ****     putString("===================== ASSERT file: ");
  74              		.loc 2 23 5
  75              		.loc 2 23 14 is_stmt 0
  76 0038 17050000 		lla	a0,.LC0
  76      13050500 
  77 0040 97000000 		call	_Z9putStringPKc@plt
  77      E7800000 
  78              	.LVL3:
  24:src/../h/../h/my_console.h ****     putString(file);
  79              		.loc 2 24 5 is_stmt 1
  80              		.loc 2 24 14 is_stmt 0
  81 0048 17050000 		lla	a0,.LC1
  81      13050500 
  82 0050 97000000 		call	_Z9putStringPKc@plt
  82      E7800000 
  83              	.LVL4:
  25:src/../h/../h/my_console.h ****     putString("    line: ");
  84              		.loc 2 25 5 is_stmt 1
  85              		.loc 2 25 14 is_stmt 0
  86 0058 17050000 		lla	a0,.LC2
  86      13050500 
  87 0060 97000000 		call	_Z9putStringPKc@plt
  87      E7800000 
  88              	.LVL5:
  26:src/../h/../h/my_console.h ****     putInt(line);
  89              		.loc 2 26 5 is_stmt 1
  90              		.loc 2 26 11 is_stmt 0
  91 0068 13051001 		li	a0,17
  92 006c 97000000 		call	_Z6putInti@plt
  92      E7800000 
  93              	.LVL6:
  27:src/../h/../h/my_console.h ****     putString("   ===========================");
  94              		.loc 2 27 5 is_stmt 1
  95              		.loc 2 27 14 is_stmt 0
  96 0074 17050000 		lla	a0,.LC3
  96      13050500 
  97 007c 97000000 		call	_Z9putStringPKc@plt
  97      E7800000 
  98              	.LVL7:
  28:src/../h/../h/my_console.h ****     putNewline();
  99              		.loc 2 28 5 is_stmt 1
 100              		.loc 2 28 15 is_stmt 0
 101 0084 97000000 		call	_Z10putNewlinev@plt
 101      E7800000 
 102              	.LVL8:
  29:src/../h/../h/my_console.h **** 
  30:src/../h/../h/my_console.h ****     stopKernel();
GAS LISTING /tmp/ccnCQAdl.s 			page 4


 103              		.loc 2 30 5 is_stmt 1
 104              		.loc 2 30 15 is_stmt 0
 105 008c 97000000 		call	_Z10stopKernelv@plt
 105      E7800000 
 106              	.LVL9:
 107              	.LBE17:
 108              	.LBE16:
 109              		.cfi_endproc
 110              	.LFE19:
 112              		.align	2
 113              		.globl	_Z22cTimerInterruptRoutinev
 115              	_Z22cTimerInterruptRoutinev:
 116              	.LFB20:
  18:src/trap.cpp  ****     uint64 scause;
  19:src/trap.cpp  ****     __asm__ volatile ("csrr %[name], scause" : [name] "=r"(scause));
  20:src/trap.cpp  **** 
  21:src/trap.cpp  **** //    int isExternal = (scause & (0x1UL << 63)) != 0;
  22:src/trap.cpp  ****     int cause = scause & (~(1UL << 63));
  23:src/trap.cpp  **** 
  24:src/trap.cpp  **** 
  25:src/trap.cpp  ****     assert(&(Thread::getPRunning()->sp) == Thread::pRunningSp);
  26:src/trap.cpp  **** 
  27:src/trap.cpp  ****     assert(cause == 9);
  28:src/trap.cpp  **** 
  29:src/trap.cpp  ****     __asm__ volatile ("csrc sip, 0xA"); // clears the 9th bit in register sip. (the bit signifies e
  30:src/trap.cpp  **** 
  31:src/trap.cpp  **** //    console_handler();
  32:src/trap.cpp  ****     __asm__ volatile ("mv x10, x10");
  33:src/trap.cpp  **** 
  34:src/trap.cpp  **** //    Console::get()->consoleHandler();
  35:src/trap.cpp  **** 
  36:src/trap.cpp  **** }
  37:src/trap.cpp  **** 
  38:src/trap.cpp  **** void cTimerInterruptRoutine()
  39:src/trap.cpp  **** {
 117              		.loc 1 39 1 is_stmt 1
 118              		.cfi_startproc
 119 0094 130101FE 		addi	sp,sp,-32
 120              		.cfi_def_cfa_offset 32
 121 0098 233C1100 		sd	ra,24(sp)
 122 009c 23388100 		sd	s0,16(sp)
 123 00a0 23349100 		sd	s1,8(sp)
 124              		.cfi_offset 1, -8
 125              		.cfi_offset 8, -16
 126              		.cfi_offset 9, -24
 127 00a4 13040102 		addi	s0,sp,32
 128              		.cfi_def_cfa 8, 0
  40:src/trap.cpp  ****     __asm__ volatile ("mv x10, x10");
 129              		.loc 1 40 5
 130              		.loc 1 40 37 is_stmt 0
 131              	#APP
 132              	# 40 "src/trap.cpp" 1
  41              	
  42:src/trap.cpp  ****     uint64 scause;
 133              		mv x10, x10
 134              	# 0 "" 2
 135              		.loc 1 42 5 is_stmt 1
GAS LISTING /tmp/ccnCQAdl.s 			page 5


  43:src/trap.cpp  ****     __asm__ volatile ("csrr %[name], scause" : [name] "=r"(scause));
 136              		.loc 1 43 5
 137              		.loc 1 43 68 is_stmt 0
 138              	# 43 "src/trap.cpp" 1
  44              	
 139              		csrr s1, scause
 140              	# 0 "" 2
 141              	.LVL10:
  45:src/trap.cpp  ****     int cause = scause & (~(1UL << 63));
 142              		.loc 1 45 5 is_stmt 1
  46:src/trap.cpp  **** 
  47:src/trap.cpp  ****     __asm__ volatile ("csrc sip, 0xA"); // clears the 9th bit in register sip. (the bit signifies e
 143              		.loc 1 47 5
 144              		.loc 1 47 39 is_stmt 0
 145              	# 47 "src/trap.cpp" 1
  48              	//    __asm__ volatile ("csrc sstatus, 0x02");
  49:src/trap.cpp  **** 
  50:src/trap.cpp  ****     assert(&(Thread::getPRunning()->sp) == Thread::pRunningSp);
 146              		csrc sip, 0xA
 147              	# 0 "" 2
 148              		.loc 1 50 5 is_stmt 1
 149              	#NO_APP
 150 00b4 97000000 		call	_ZN6Thread11getPRunningEv@plt
 150      E7800000 
 151              	.LVL11:
 152 00bc 13058504 		addi	a0,a0,72
 153 00c0 97070000 		la	a5,_ZN6Thread10pRunningSpE
 153      83B70700 
 154 00c8 83B70700 		ld	a5,0(a5)
 155              	.LVL12:
 156              	.LBB27:
 157              	.LBB28:
  20:src/../h/../h/my_console.h ****         return;
 158              		.loc 2 20 5
 159 00cc 639CA704 		bne	a5,a0,.L12
 160 00d0 9B840400 		sext.w	s1,s1
 161              	.LVL13:
  21:src/../h/../h/my_console.h **** 
 162              		.loc 2 21 9
 163              	.LBE28:
 164              	.LBE27:
  51:src/trap.cpp  ****     if(cause == 1)
 165              		.loc 1 51 5
 166 00d4 93071000 		li	a5,1
 167 00d8 6384F40A 		beq	s1,a5,.L13
  52:src/trap.cpp  ****     { // timer
  53:src/trap.cpp  ****         __asm__ volatile("mv x10, x10");
  54:src/trap.cpp  ****     }
  55:src/trap.cpp  ****     else if (cause == 9)
 168              		.loc 1 55 10
 169 00dc 93079000 		li	a5,9
 170 00e0 639EF40A 		bne	s1,a5,.L9
  56:src/trap.cpp  ****     { // console
  57:src/trap.cpp  ****         Console::get()->consoleHandler();
 171              		.loc 1 57 9
 172              	.LBB30:
 173              	.LBB31:
GAS LISTING /tmp/ccnCQAdl.s 			page 6


 174              		.file 3 "src/../h/0_console.h"
   1:src/../h/0_console.h **** #pragma once
   2:src/../h/0_console.h **** 
   3:src/../h/0_console.h **** #include "../lib/hw.h"
   4:src/../h/0_console.h **** 
   5:src/../h/0_console.h **** #define PUT_BUFFER_SIZE 1000
   6:src/../h/0_console.h **** 
   7:src/../h/0_console.h **** class Console // singleton class
   8:src/../h/0_console.h **** {
   9:src/../h/0_console.h **** public:
  10:src/../h/0_console.h ****     static Console* get()
  11:src/../h/0_console.h ****     {
  12:src/../h/0_console.h ****         static Console instance;
 175              		.loc 3 12 9
 176              		.loc 3 12 24 is_stmt 0
 177 00e4 97070000 		lbu	a5,_ZGVZN7Console3getEvE8instance
 177      83C70700 
 178 00ec 63920702 		bnez	a5,.L10
 179              	.LVL14:
 180              	.LBB32:
 181              	.LBB33:
 182              	.LBB34:
  13:src/../h/0_console.h ****         return &instance;
  14:src/../h/0_console.h ****     }
  15:src/../h/0_console.h **** 
  16:src/../h/0_console.h ****     uint64 putBufferHead, putBufferTail;
  17:src/../h/0_console.h ****     char putBuffer[PUT_BUFFER_SIZE];
  18:src/../h/0_console.h ****     uint64 putBufferItems;
  19:src/../h/0_console.h **** 
  20:src/../h/0_console.h ****     void putc(char c);
  21:src/../h/0_console.h ****     char getc();
  22:src/../h/0_console.h ****     void consoleHandler();
  23:src/../h/0_console.h **** 
  24:src/../h/0_console.h **** private:
  25:src/../h/0_console.h ****     Console()
  26:src/../h/0_console.h ****         : putBufferHead(0), putBufferTail(0), putBufferItems(0)
 183              		.loc 3 26 63
 184 00f0 97070000 		lla	a5,_ZZN7Console3getEvE8instance
 184      93870700 
 185 00f8 23B00700 		sd	zero,0(a5)
 186 00fc 23B40700 		sd	zero,8(a5)
 187 0100 23BC073E 		sd	zero,1016(a5)
 188              	.LVL15:
 189              	.LBE34:
 190              	.LBE33:
 191              	.LBE32:
  12:src/../h/0_console.h ****         return &instance;
 192              		.loc 3 12 24
 193 0104 93071000 		li	a5,1
 194 0108 17070000 		sb	a5,_ZGVZN7Console3getEvE8instance,a4
 194      2300F700 
 195              	.L10:
  13:src/../h/0_console.h ****         return &instance;
 196              		.loc 3 13 9 is_stmt 1
 197              	.LBE31:
 198              	.LBE30:
 199              		.loc 1 57 39 is_stmt 0
GAS LISTING /tmp/ccnCQAdl.s 			page 7


 200 0110 17050000 		lla	a0,_ZZN7Console3getEvE8instance
 200      13050500 
 201 0118 97000000 		call	_ZN7Console14consoleHandlerEv@plt
 201      E7800000 
 202              	.LVL16:
 203 0120 6F004006 		j	.L8
 204              	.LVL17:
 205              	.L12:
 206              	.LBB35:
 207              	.LBB29:
  23:src/../h/../h/my_console.h ****     putString(file);
 208              		.loc 2 23 5 is_stmt 1
  23:src/../h/../h/my_console.h ****     putString(file);
 209              		.loc 2 23 14 is_stmt 0
 210 0124 17050000 		lla	a0,.LC0
 210      13050500 
 211              	.LVL18:
 212 012c 97000000 		call	_Z9putStringPKc@plt
 212      E7800000 
 213              	.LVL19:
  24:src/../h/../h/my_console.h ****     putString("    line: ");
 214              		.loc 2 24 5 is_stmt 1
  24:src/../h/../h/my_console.h ****     putString("    line: ");
 215              		.loc 2 24 14 is_stmt 0
 216 0134 17050000 		lla	a0,.LC1
 216      13050500 
 217 013c 97000000 		call	_Z9putStringPKc@plt
 217      E7800000 
 218              	.LVL20:
  25:src/../h/../h/my_console.h ****     putInt(line);
 219              		.loc 2 25 5 is_stmt 1
  25:src/../h/../h/my_console.h ****     putInt(line);
 220              		.loc 2 25 14 is_stmt 0
 221 0144 17050000 		lla	a0,.LC2
 221      13050500 
 222 014c 97000000 		call	_Z9putStringPKc@plt
 222      E7800000 
 223              	.LVL21:
  26:src/../h/../h/my_console.h ****     putString("   ===========================");
 224              		.loc 2 26 5 is_stmt 1
  26:src/../h/../h/my_console.h ****     putString("   ===========================");
 225              		.loc 2 26 11 is_stmt 0
 226 0154 13052003 		li	a0,50
 227 0158 97000000 		call	_Z6putInti@plt
 227      E7800000 
 228              	.LVL22:
  27:src/../h/../h/my_console.h ****     putNewline();
 229              		.loc 2 27 5 is_stmt 1
  27:src/../h/../h/my_console.h ****     putNewline();
 230              		.loc 2 27 14 is_stmt 0
 231 0160 17050000 		lla	a0,.LC3
 231      13050500 
 232 0168 97000000 		call	_Z9putStringPKc@plt
 232      E7800000 
 233              	.LVL23:
  28:src/../h/../h/my_console.h **** 
 234              		.loc 2 28 5 is_stmt 1
GAS LISTING /tmp/ccnCQAdl.s 			page 8


  28:src/../h/../h/my_console.h **** 
 235              		.loc 2 28 15 is_stmt 0
 236 0170 97000000 		call	_Z10putNewlinev@plt
 236      E7800000 
 237              	.LVL24:
 238              		.loc 2 30 5 is_stmt 1
 239              		.loc 2 30 15 is_stmt 0
 240 0178 97000000 		call	_Z10stopKernelv@plt
 240      E7800000 
 241              	.LVL25:
 242              	.L13:
 243              	.LBE29:
 244              	.LBE35:
  53:src/trap.cpp  ****     }
 245              		.loc 1 53 9 is_stmt 1
  53:src/trap.cpp  ****     }
 246              		.loc 1 53 40 is_stmt 0
 247              	#APP
 248              	# 53 "src/trap.cpp" 1
 249              		mv x10, x10
 250              	# 0 "" 2
 251              	#NO_APP
 252              	.L8:
  58:src/trap.cpp  **** //        plic_claim();
  59:src/trap.cpp  **** //        plic_complete(10);
  60:src/trap.cpp  **** 
  61:src/trap.cpp  **** //        Console::get()->consoleHandler();
  62:src/trap.cpp  **** //        console_handler();
  63:src/trap.cpp  **** //        plic_claim();
  64:src/trap.cpp  **** //        Console::get()->consoleHandler();
  65:src/trap.cpp  **** //        console_handler();
  66:src/trap.cpp  **** //        __asm__ volatile("mv x10, x10");
  67:src/trap.cpp  **** //        plic_complete(10);
  68:src/trap.cpp  ****     }
  69:src/trap.cpp  ****     else
  70:src/trap.cpp  ****     {
  71:src/trap.cpp  ****         assert(false); // unknown interupt
  72:src/trap.cpp  ****     }
  73:src/trap.cpp  **** 
  74:src/trap.cpp  ****     __asm__ volatile("mv x10, x10");
 253              		.loc 1 74 5 is_stmt 1
 254              		.loc 1 74 36 is_stmt 0
 255              	#APP
 256              	# 74 "src/trap.cpp" 1
  75              	}
 257              		mv x10, x10
 258              	# 0 "" 2
 259              		.loc 1 75 1
 260              	#NO_APP
 261 0188 83308101 		ld	ra,24(sp)
 262              		.cfi_remember_state
 263              		.cfi_restore 1
 264 018c 03340101 		ld	s0,16(sp)
 265              		.cfi_restore 8
 266              		.cfi_def_cfa 2, 32
 267 0190 83348100 		ld	s1,8(sp)
 268              		.cfi_restore 9
GAS LISTING /tmp/ccnCQAdl.s 			page 9


 269              	.LVL26:
 270 0194 13010102 		addi	sp,sp,32
 271              		.cfi_def_cfa_offset 0
 272 0198 67800000 		jr	ra
 273              	.LVL27:
 274              	.L9:
 275              		.cfi_restore_state
  71:src/trap.cpp  ****     }
 276              		.loc 1 71 9 is_stmt 1
 277              	.LBB36:
 278              	.LBB37:
  20:src/../h/../h/my_console.h ****         return;
 279              		.loc 2 20 5
  23:src/../h/../h/my_console.h ****     putString(file);
 280              		.loc 2 23 5
  23:src/../h/../h/my_console.h ****     putString(file);
 281              		.loc 2 23 14 is_stmt 0
 282 019c 17050000 		lla	a0,.LC0
 282      13050500 
 283 01a4 97000000 		call	_Z9putStringPKc@plt
 283      E7800000 
 284              	.LVL28:
  24:src/../h/../h/my_console.h ****     putString("    line: ");
 285              		.loc 2 24 5 is_stmt 1
  24:src/../h/../h/my_console.h ****     putString("    line: ");
 286              		.loc 2 24 14 is_stmt 0
 287 01ac 17050000 		lla	a0,.LC1
 287      13050500 
 288 01b4 97000000 		call	_Z9putStringPKc@plt
 288      E7800000 
 289              	.LVL29:
  25:src/../h/../h/my_console.h ****     putInt(line);
 290              		.loc 2 25 5 is_stmt 1
  25:src/../h/../h/my_console.h ****     putInt(line);
 291              		.loc 2 25 14 is_stmt 0
 292 01bc 17050000 		lla	a0,.LC2
 292      13050500 
 293 01c4 97000000 		call	_Z9putStringPKc@plt
 293      E7800000 
 294              	.LVL30:
  26:src/../h/../h/my_console.h ****     putString("   ===========================");
 295              		.loc 2 26 5 is_stmt 1
  26:src/../h/../h/my_console.h ****     putString("   ===========================");
 296              		.loc 2 26 11 is_stmt 0
 297 01cc 13057004 		li	a0,71
 298 01d0 97000000 		call	_Z6putInti@plt
 298      E7800000 
 299              	.LVL31:
  27:src/../h/../h/my_console.h ****     putNewline();
 300              		.loc 2 27 5 is_stmt 1
  27:src/../h/../h/my_console.h ****     putNewline();
 301              		.loc 2 27 14 is_stmt 0
 302 01d8 17050000 		lla	a0,.LC3
 302      13050500 
 303 01e0 97000000 		call	_Z9putStringPKc@plt
 303      E7800000 
 304              	.LVL32:
GAS LISTING /tmp/ccnCQAdl.s 			page 10


  28:src/../h/../h/my_console.h **** 
 305              		.loc 2 28 5 is_stmt 1
  28:src/../h/../h/my_console.h **** 
 306              		.loc 2 28 15 is_stmt 0
 307 01e8 97000000 		call	_Z10putNewlinev@plt
 307      E7800000 
 308              	.LVL33:
 309              		.loc 2 30 5 is_stmt 1
 310              		.loc 2 30 15 is_stmt 0
 311 01f0 97000000 		call	_Z10stopKernelv@plt
 311      E7800000 
 312              	.LVL34:
 313              	.LBE37:
 314              	.LBE36:
 315              		.cfi_endproc
 316              	.LFE20:
 318              		.section	.rodata.str1.8
 319 0067 00       		.align	3
 320              	.LC4:
 321 0068 3D3D3D20 		.string	"=== EXCEPETION occured: "
 321      45584345 
 321      50455449 
 321      4F4E206F 
 321      63637572 
 322 0081 00000000 		.align	3
 322      000000
 323              	.LC5:
 324 0088 20496C6C 		.string	" Illegal instruction"
 324      6567616C 
 324      20696E73 
 324      74727563 
 324      74696F6E 
 325 009d 000000   		.align	3
 326              	.LC6:
 327 00a0 556E616C 		.string	"Unallowed read adress"
 327      6C6F7765 
 327      64207265 
 327      61642061 
 327      64726573 
 328 00b6 0000     		.align	3
 329              	.LC7:
 330 00b8 556E616C 		.string	"Unallowed write adress"
 330      6C6F7765 
 330      64207772 
 330      69746520 
 330      61647265 
 331 00cf 00       		.align	3
 332              	.LC8:
 333 00d0 554B4E4F 		.string	"UKNOWN EXCEPTION. ??????????????"
 333      574E2045 
 333      58434550 
 333      54494F4E 
 333      2E203F3F 
 334 00f1 00000000 		.align	3
 334      000000
 335              	.LC9:
 336 00f8 5465726D 		.string	"Terminating kernel"
GAS LISTING /tmp/ccnCQAdl.s 			page 11


 336      696E6174 
 336      696E6720 
 336      6B65726E 
 336      656C00
 337              		.text
 338              		.align	2
 339              		.globl	_Z25cInternalInterruptRoutinev
 341              	_Z25cInternalInterruptRoutinev:
 342              	.LFB21:
  76:src/trap.cpp  **** 
  77:src/trap.cpp  **** 
  78:src/trap.cpp  **** void cInternalInterruptRoutine()
  79:src/trap.cpp  **** {
 343              		.loc 1 79 1 is_stmt 1
 344              		.cfi_startproc
 345 01f8 130101FA 		addi	sp,sp,-96
 346              		.cfi_def_cfa_offset 96
 347 01fc 233C1104 		sd	ra,88(sp)
 348 0200 23388104 		sd	s0,80(sp)
 349 0204 23349104 		sd	s1,72(sp)
 350 0208 23302105 		sd	s2,64(sp)
 351 020c 233C3103 		sd	s3,56(sp)
 352 0210 23384103 		sd	s4,48(sp)
 353 0214 23345103 		sd	s5,40(sp)
 354 0218 23306103 		sd	s6,32(sp)
 355 021c 233C7101 		sd	s7,24(sp)
 356              		.cfi_offset 1, -8
 357              		.cfi_offset 8, -16
 358              		.cfi_offset 9, -24
 359              		.cfi_offset 18, -32
 360              		.cfi_offset 19, -40
 361              		.cfi_offset 20, -48
 362              		.cfi_offset 21, -56
 363              		.cfi_offset 22, -64
 364              		.cfi_offset 23, -72
 365 0220 13040106 		addi	s0,sp,96
 366              		.cfi_def_cfa 8, 0
  80:src/trap.cpp  ****     uint64 scause;
 367              		.loc 1 80 5
  81:src/trap.cpp  ****     __asm__ volatile ("csrr %[name], scause" : [name] "=r"(scause));
 368              		.loc 1 81 5
 369              		.loc 1 81 68 is_stmt 0
 370              	#APP
 371              	# 81 "src/trap.cpp" 1
  82              	
 372              		csrr s2, scause
 373              	# 0 "" 2
 374              	.LVL35:
  83:src/trap.cpp  **** //    int isExternal = (scause & (0x1UL << 63)) != 0;
  84:src/trap.cpp  ****     int cause = scause & (~(1UL << 63));
 375              		.loc 1 84 5 is_stmt 1
  85:src/trap.cpp  **** 
  86:src/trap.cpp  ****     __asm__ volatile ("csrc sip, 0x2"); // clears the 1st bit in register sip. (the bit signifies i
 376              		.loc 1 86 5
 377              		.loc 1 86 39 is_stmt 0
 378              	# 86 "src/trap.cpp" 1
  87              	
GAS LISTING /tmp/ccnCQAdl.s 			page 12


  88:src/trap.cpp  ****     uint64 code, parameter1, parameter2, parameter3;
 379              		csrc sip, 0x2
 380              	# 0 "" 2
 381              		.loc 1 88 5 is_stmt 1
  89:src/trap.cpp  ****     __asm__ volatile ("mv %[name], a0" : [name] "=r"(code));
 382              		.loc 1 89 5
 383              		.loc 1 89 60 is_stmt 0
 384              	# 89 "src/trap.cpp" 1
  90              	    __asm__ volatile ("mv %[name], a1" : [name] "=r"(parameter1));
 385              		mv s1, a0
 386              	# 0 "" 2
 387              	.LVL36:
 388              		.loc 1 90 5 is_stmt 1
 389              		.loc 1 90 66 is_stmt 0
 390              	# 90 "src/trap.cpp" 1
  91              	    __asm__ volatile ("mv %[name], a2" : [name] "=r"(parameter2));
 391              		mv s4, a1
 392              	# 0 "" 2
 393              	.LVL37:
 394              		.loc 1 91 5 is_stmt 1
 395              		.loc 1 91 66 is_stmt 0
 396              	# 91 "src/trap.cpp" 1
  92              	    __asm__ volatile ("mv %[name], a3" : [name] "=r"(parameter3));
 397              		mv s5, a2
 398              	# 0 "" 2
 399              	.LVL38:
 400              		.loc 1 92 5 is_stmt 1
 401              		.loc 1 92 66 is_stmt 0
 402              	# 92 "src/trap.cpp" 1
  93              	
 403              		mv s6, a3
 404              	# 0 "" 2
 405              	.LVL39:
  94:src/trap.cpp  **** 
  95:src/trap.cpp  ****     __asm__ volatile ("mv x1, x1");
 406              		.loc 1 95 5 is_stmt 1
 407              		.loc 1 95 35 is_stmt 0
 408              	# 95 "src/trap.cpp" 1
  96              	
  97:src/trap.cpp  **** //    Thread::getPRunning()->sp = Thread::runningSp;
  98:src/trap.cpp  **** //    uint64* sp = Thread::getPRunning()->sp;
  99:src/trap.cpp  **** //    uint64* runningSp = Thread::runningSp;
 100:src/trap.cpp  **** //    if(sp != runningSp) // temp, maybe changes registers?
 101:src/trap.cpp  **** //    {
 102:src/trap.cpp  **** //        __asm__ volatile ("mv x10, x10");
 103:src/trap.cpp  **** //        assert(false);
 104:src/trap.cpp  **** //    }
 105:src/trap.cpp  ****     assert(&(Thread::getPRunning()->sp) == Thread::pRunningSp);
 409              		mv x1, x1
 410              	# 0 "" 2
 411              		.loc 1 105 5 is_stmt 1
 412              	#NO_APP
 413 0240 97000000 		call	_ZN6Thread11getPRunningEv@plt
 413      E7800000 
 414              	.LVL40:
 415 0248 93078504 		addi	a5,a0,72
 416 024c 17070000 		la	a4,_ZN6Thread10pRunningSpE
GAS LISTING /tmp/ccnCQAdl.s 			page 13


 416      03370700 
 417 0254 03350700 		ld	a0,0(a4)
 418 0258 3305F540 		sub	a0,a0,a5
 419              	.LVL41:
 420              	.LBB66:
 421              	.LBB67:
  20:src/../h/../h/my_console.h ****         return;
 422              		.loc 2 20 5
 423 025c 6318050C 		bnez	a0,.L48
 424 0260 9B090900 		sext.w	s3,s2
 425 0264 933B1500 		seqz	s7,a0
  21:src/../h/../h/my_console.h **** 
 426              		.loc 2 21 9
 427              	.LVL42:
 428              	.LBE67:
 429              	.LBE66:
 106:src/trap.cpp  **** 
 107:src/trap.cpp  ****     __asm__ volatile ("mv x1, x1");
 430              		.loc 1 107 5
 431              		.loc 1 107 35 is_stmt 0
 432              	#APP
 433              	# 107 "src/trap.cpp" 1
 108              	
 109:src/trap.cpp  ****     if(cause != 8 && cause != 9)
 434              		mv x1, x1
 435              	# 0 "" 2
 436              		.loc 1 109 5 is_stmt 1
 437              		.loc 1 109 19 is_stmt 0
 438              	#NO_APP
 439 026c 1B0989FF 		addiw	s2,s2,-8
 440              	.LVL43:
 441              		.loc 1 109 5
 442 0270 93071000 		li	a5,1
 443 0274 63EA2711 		bgtu	s2,a5,.L49
 110:src/trap.cpp  ****     {
 111:src/trap.cpp  ****         putString("=== EXCEPETION occured: ");
 112:src/trap.cpp  ****         if(cause == 2)
 113:src/trap.cpp  ****         {
 114:src/trap.cpp  ****             putString(" Illegal instruction");
 115:src/trap.cpp  ****         }
 116:src/trap.cpp  ****         else if (cause == 5)
 117:src/trap.cpp  ****         {
 118:src/trap.cpp  ****             putString("Unallowed read adress");
 119:src/trap.cpp  ****         }
 120:src/trap.cpp  ****         else if (cause == 7)
 121:src/trap.cpp  ****         {
 122:src/trap.cpp  ****             putString("Unallowed write adress");
 123:src/trap.cpp  ****         }
 124:src/trap.cpp  ****         else
 125:src/trap.cpp  ****         {
 126:src/trap.cpp  ****             putString("UKNOWN EXCEPTION. ??????????????");
 127:src/trap.cpp  ****             assert(false);
 128:src/trap.cpp  ****         }
 129:src/trap.cpp  ****         putNewline();
 130:src/trap.cpp  ****         putString("Terminating kernel");
 131:src/trap.cpp  ****         putNewline();
 132:src/trap.cpp  ****         assert(false);
GAS LISTING /tmp/ccnCQAdl.s 			page 14


 133:src/trap.cpp  ****     }
 134:src/trap.cpp  **** 
 135:src/trap.cpp  **** 
 136:src/trap.cpp  ****     uint64 ret = -1;
 444              		.loc 1 136 5 is_stmt 1
 445              		.loc 1 136 12 is_stmt 0
 446 0278 9307F0FF 		li	a5,-1
 447 027c 2334F4FA 		sd	a5,-88(s0)
 137:src/trap.cpp  ****     if(code == 1)
 448              		.loc 1 137 5 is_stmt 1
 449              	.LBB69:
 450 0280 93071000 		li	a5,1
 451 0284 6386F424 		beq	s1,a5,.L50
 452              	.LBE69:
 138:src/trap.cpp  ****     {
 139:src/trap.cpp  ****         ret = (uint64)MemAlloc::get()->allocMem(parameter1);
 140:src/trap.cpp  ****     }
 141:src/trap.cpp  ****     else if (code == 2)
 453              		.loc 1 141 10
 454              	.LBB104:
 455              	.LBB70:
 456 0288 93072000 		li	a5,2
 457 028c 6388F42A 		beq	s1,a5,.L51
 458              	.LBE70:
 459              	.LBE104:
 142:src/trap.cpp  ****     {
 143:src/trap.cpp  ****         *((int*)&ret) = MemAlloc::get()->freeMem((void*)parameter1);
 144:src/trap.cpp  ****     }
 145:src/trap.cpp  **** #ifdef __DEBUG_MODE
 146:src/trap.cpp  ****     else if (code == 3) // Test call
 460              		.loc 1 146 10
 461              	.LBB105:
 462              	.LBB98:
 463              	.LBB71:
 464 0290 93073000 		li	a5,3
 465 0294 6382F42C 		beq	s1,a5,.L52
 466              	.LBE71:
 467              	.LBE98:
 468              	.LBE105:
 147:src/trap.cpp  ****     {
 148:src/trap.cpp  ****         ret = (uint64)testCall(parameter1);
 149:src/trap.cpp  ****     }
 150:src/trap.cpp  **** #endif
 151:src/trap.cpp  ****     else if (code == 4)
 469              		.loc 1 151 10
 470              	.LBB106:
 471              	.LBB99:
 472              	.LBB93:
 473              	.LBB72:
 474 0298 93074000 		li	a5,4
 475 029c 6388F42C 		beq	s1,a5,.L53
 476              	.LBE72:
 477              	.LBE93:
 478              	.LBE99:
 479              	.LBE106:
 152:src/trap.cpp  ****     {
 153:src/trap.cpp  ****         Thread::switchToUser();
GAS LISTING /tmp/ccnCQAdl.s 			page 15


 154:src/trap.cpp  ****     }
 155:src/trap.cpp  ****     else if (code == 17) // 17
 480              		.loc 1 155 10
 481              	.LBB107:
 482              	.LBB100:
 483              	.LBB94:
 484              	.LBB89:
 485              	.LBB73:
 486 02a0 93071001 		li	a5,17
 487 02a4 638AF42C 		beq	s1,a5,.L54
 488              	.LBE73:
 489              	.LBE89:
 490              	.LBE94:
 491              	.LBE100:
 492              	.LBE107:
 156:src/trap.cpp  ****     {
 157:src/trap.cpp  ****         *((int*)&ret) = Thread::createThread((uint64*)parameter1, (Thread::Body)parameter2, (void*)
 158:src/trap.cpp  ****     }
 159:src/trap.cpp  ****     else if (code == 18)
 493              		.loc 1 159 10
 494              	.LBB108:
 495              	.LBB101:
 496              	.LBB95:
 497              	.LBB90:
 498              	.LBB86:
 499              	.LBB74:
 500 02a8 93072001 		li	a5,18
 501 02ac 6384F42E 		beq	s1,a5,.L55
 502              	.LBE74:
 503              	.LBE86:
 504              	.LBE90:
 505              	.LBE95:
 506              	.LBE101:
 507              	.LBE108:
 160:src/trap.cpp  ****     {
 161:src/trap.cpp  ****         *((int*)&ret) = Thread::exit();
 162:src/trap.cpp  ****     }
 163:src/trap.cpp  ****     else if (code == 19) // 19, thread_dispatch
 508              		.loc 1 163 10
 509              	.LBB109:
 510              	.LBB102:
 511              	.LBB96:
 512              	.LBB91:
 513              	.LBB87:
 514              	.LBB84:
 515              	.LBB75:
 516 02b0 93073001 		li	a5,19
 517 02b4 6388F42E 		beq	s1,a5,.L56
 164:src/trap.cpp  ****     {
 165:src/trap.cpp  ****         extern Thread kernelThread;
 166:src/trap.cpp  ****         assert(Thread::getPRunning() != &kernelThread); // you're only supposed to open user thread
 167:src/trap.cpp  **** 
 168:src/trap.cpp  ****         Thread::getPRunning()->state = Thread::READY;
 169:src/trap.cpp  ****         Scheduler::put(Thread::getPRunning());
 170:src/trap.cpp  **** 
 171:src/trap.cpp  ****         Scheduler::dispatchToNext();
 172:src/trap.cpp  ****     }
GAS LISTING /tmp/ccnCQAdl.s 			page 16


 173:src/trap.cpp  ****     else if (code == 20)
 518              		.loc 1 173 10
 519 02b8 93074001 		li	a5,20
 520 02bc 6382F438 		beq	s1,a5,.L57
 174:src/trap.cpp  ****     {
 175:src/trap.cpp  ****         Thread::join((uint64)parameter1);
 176:src/trap.cpp  ****     }
 177:src/trap.cpp  ****     else if (code == 65) // getc
 521              		.loc 1 177 10
 522 02c0 93071004 		li	a5,65
 523 02c4 6382F422 		beq	s1,a5,.L22
 178:src/trap.cpp  ****     {
 179:src/trap.cpp  **** 
 180:src/trap.cpp  ****     }
 181:src/trap.cpp  ****     else if (code == 66) // putc
 524              		.loc 1 181 10
 525 02c8 93072004 		li	a5,66
 526 02cc 638EF420 		beq	s1,a5,.L22
 182:src/trap.cpp  ****     {
 183:src/trap.cpp  **** 
 184:src/trap.cpp  ****     }
 185:src/trap.cpp  ****     else
 186:src/trap.cpp  ****     {
 187:src/trap.cpp  ****         assert(false); // unknown code
 527              		.loc 1 187 9
 528              	.LVL44:
 529              	.LBB76:
 530              	.LBB77:
  20:src/../h/../h/my_console.h ****         return;
 531              		.loc 2 20 5
  23:src/../h/../h/my_console.h ****     putString(file);
 532              		.loc 2 23 5
  23:src/../h/../h/my_console.h ****     putString(file);
 533              		.loc 2 23 14 is_stmt 0
 534 02d0 17050000 		lla	a0,.LC0
 534      13050500 
 535 02d8 97000000 		call	_Z9putStringPKc@plt
 535      E7800000 
 536              	.LVL45:
  24:src/../h/../h/my_console.h ****     putString("    line: ");
 537              		.loc 2 24 5 is_stmt 1
  24:src/../h/../h/my_console.h ****     putString("    line: ");
 538              		.loc 2 24 14 is_stmt 0
 539 02e0 17050000 		lla	a0,.LC1
 539      13050500 
 540 02e8 97000000 		call	_Z9putStringPKc@plt
 540      E7800000 
 541              	.LVL46:
  25:src/../h/../h/my_console.h ****     putInt(line);
 542              		.loc 2 25 5 is_stmt 1
  25:src/../h/../h/my_console.h ****     putInt(line);
 543              		.loc 2 25 14 is_stmt 0
 544 02f0 17050000 		lla	a0,.LC2
 544      13050500 
 545 02f8 97000000 		call	_Z9putStringPKc@plt
 545      E7800000 
 546              	.LVL47:
GAS LISTING /tmp/ccnCQAdl.s 			page 17


  26:src/../h/../h/my_console.h ****     putString("   ===========================");
 547              		.loc 2 26 5 is_stmt 1
  26:src/../h/../h/my_console.h ****     putString("   ===========================");
 548              		.loc 2 26 11 is_stmt 0
 549 0300 1305B00B 		li	a0,187
 550 0304 97000000 		call	_Z6putInti@plt
 550      E7800000 
 551              	.LVL48:
  27:src/../h/../h/my_console.h ****     putNewline();
 552              		.loc 2 27 5 is_stmt 1
  27:src/../h/../h/my_console.h ****     putNewline();
 553              		.loc 2 27 14 is_stmt 0
 554 030c 17050000 		lla	a0,.LC3
 554      13050500 
 555 0314 97000000 		call	_Z9putStringPKc@plt
 555      E7800000 
 556              	.LVL49:
  28:src/../h/../h/my_console.h **** 
 557              		.loc 2 28 5 is_stmt 1
  28:src/../h/../h/my_console.h **** 
 558              		.loc 2 28 15 is_stmt 0
 559 031c 97000000 		call	_Z10putNewlinev@plt
 559      E7800000 
 560              	.LVL50:
 561              		.loc 2 30 5 is_stmt 1
 562              		.loc 2 30 15 is_stmt 0
 563 0324 97000000 		call	_Z10stopKernelv@plt
 563      E7800000 
 564              	.LVL51:
 565              	.L48:
 566              	.LBE77:
 567              	.LBE76:
 568              	.LBE75:
 569              	.LBE84:
 570              	.LBE87:
 571              	.LBE91:
 572              	.LBE96:
 573              	.LBE102:
 574              	.LBE109:
 575              	.LBB110:
 576              	.LBB68:
  23:src/../h/../h/my_console.h ****     putString(file);
 577              		.loc 2 23 5 is_stmt 1
  23:src/../h/../h/my_console.h ****     putString(file);
 578              		.loc 2 23 14 is_stmt 0
 579 032c 17050000 		lla	a0,.LC0
 579      13050500 
 580              	.LVL52:
 581 0334 97000000 		call	_Z9putStringPKc@plt
 581      E7800000 
 582              	.LVL53:
  24:src/../h/../h/my_console.h ****     putString("    line: ");
 583              		.loc 2 24 5 is_stmt 1
  24:src/../h/../h/my_console.h ****     putString("    line: ");
 584              		.loc 2 24 14 is_stmt 0
 585 033c 17050000 		lla	a0,.LC1
 585      13050500 
GAS LISTING /tmp/ccnCQAdl.s 			page 18


 586 0344 97000000 		call	_Z9putStringPKc@plt
 586      E7800000 
 587              	.LVL54:
  25:src/../h/../h/my_console.h ****     putInt(line);
 588              		.loc 2 25 5 is_stmt 1
  25:src/../h/../h/my_console.h ****     putInt(line);
 589              		.loc 2 25 14 is_stmt 0
 590 034c 17050000 		lla	a0,.LC2
 590      13050500 
 591 0354 97000000 		call	_Z9putStringPKc@plt
 591      E7800000 
 592              	.LVL55:
  26:src/../h/../h/my_console.h ****     putString("   ===========================");
 593              		.loc 2 26 5 is_stmt 1
  26:src/../h/../h/my_console.h ****     putString("   ===========================");
 594              		.loc 2 26 11 is_stmt 0
 595 035c 13059006 		li	a0,105
 596 0360 97000000 		call	_Z6putInti@plt
 596      E7800000 
 597              	.LVL56:
  27:src/../h/../h/my_console.h ****     putNewline();
 598              		.loc 2 27 5 is_stmt 1
  27:src/../h/../h/my_console.h ****     putNewline();
 599              		.loc 2 27 14 is_stmt 0
 600 0368 17050000 		lla	a0,.LC3
 600      13050500 
 601 0370 97000000 		call	_Z9putStringPKc@plt
 601      E7800000 
 602              	.LVL57:
  28:src/../h/../h/my_console.h **** 
 603              		.loc 2 28 5 is_stmt 1
  28:src/../h/../h/my_console.h **** 
 604              		.loc 2 28 15 is_stmt 0
 605 0378 97000000 		call	_Z10putNewlinev@plt
 605      E7800000 
 606              	.LVL58:
 607              		.loc 2 30 5 is_stmt 1
 608              		.loc 2 30 15 is_stmt 0
 609 0380 97000000 		call	_Z10stopKernelv@plt
 609      E7800000 
 610              	.LVL59:
 611              	.L49:
 612              	.LBE68:
 613              	.LBE110:
 111:src/trap.cpp  ****         if(cause == 2)
 614              		.loc 1 111 9 is_stmt 1
 111:src/trap.cpp  ****         if(cause == 2)
 615              		.loc 1 111 18 is_stmt 0
 616 0388 17050000 		lla	a0,.LC4
 616      13050500 
 617 0390 97000000 		call	_Z9putStringPKc@plt
 617      E7800000 
 618              	.LVL60:
 112:src/trap.cpp  ****         {
 619              		.loc 1 112 9 is_stmt 1
 620 0398 93072000 		li	a5,2
 621 039c 6380F908 		beq	s3,a5,.L58
GAS LISTING /tmp/ccnCQAdl.s 			page 19


 116:src/trap.cpp  ****         {
 622              		.loc 1 116 14
 623 03a0 93075000 		li	a5,5
 624 03a4 6386F908 		beq	s3,a5,.L59
 120:src/trap.cpp  ****         {
 625              		.loc 1 120 14
 626 03a8 93077000 		li	a5,7
 627 03ac 638CF908 		beq	s3,a5,.L60
 126:src/trap.cpp  ****             assert(false);
 628              		.loc 1 126 13
 126:src/trap.cpp  ****             assert(false);
 629              		.loc 1 126 22 is_stmt 0
 630 03b0 17050000 		lla	a0,.LC8
 630      13050500 
 631 03b8 97000000 		call	_Z9putStringPKc@plt
 631      E7800000 
 632              	.LVL61:
 127:src/trap.cpp  ****         }
 633              		.loc 1 127 13 is_stmt 1
 634              	.LBB111:
 635              	.LBB112:
  20:src/../h/../h/my_console.h ****         return;
 636              		.loc 2 20 5
  23:src/../h/../h/my_console.h ****     putString(file);
 637              		.loc 2 23 5
  23:src/../h/../h/my_console.h ****     putString(file);
 638              		.loc 2 23 14 is_stmt 0
 639 03c0 17050000 		lla	a0,.LC0
 639      13050500 
 640 03c8 97000000 		call	_Z9putStringPKc@plt
 640      E7800000 
 641              	.LVL62:
  24:src/../h/../h/my_console.h ****     putString("    line: ");
 642              		.loc 2 24 5 is_stmt 1
  24:src/../h/../h/my_console.h ****     putString("    line: ");
 643              		.loc 2 24 14 is_stmt 0
 644 03d0 17050000 		lla	a0,.LC1
 644      13050500 
 645 03d8 97000000 		call	_Z9putStringPKc@plt
 645      E7800000 
 646              	.LVL63:
  25:src/../h/../h/my_console.h ****     putInt(line);
 647              		.loc 2 25 5 is_stmt 1
  25:src/../h/../h/my_console.h ****     putInt(line);
 648              		.loc 2 25 14 is_stmt 0
 649 03e0 17050000 		lla	a0,.LC2
 649      13050500 
 650 03e8 97000000 		call	_Z9putStringPKc@plt
 650      E7800000 
 651              	.LVL64:
  26:src/../h/../h/my_console.h ****     putString("   ===========================");
 652              		.loc 2 26 5 is_stmt 1
  26:src/../h/../h/my_console.h ****     putString("   ===========================");
 653              		.loc 2 26 11 is_stmt 0
 654 03f0 1305F007 		li	a0,127
 655 03f4 97000000 		call	_Z6putInti@plt
 655      E7800000 
GAS LISTING /tmp/ccnCQAdl.s 			page 20


 656              	.LVL65:
  27:src/../h/../h/my_console.h ****     putNewline();
 657              		.loc 2 27 5 is_stmt 1
  27:src/../h/../h/my_console.h ****     putNewline();
 658              		.loc 2 27 14 is_stmt 0
 659 03fc 17050000 		lla	a0,.LC3
 659      13050500 
 660 0404 97000000 		call	_Z9putStringPKc@plt
 660      E7800000 
 661              	.LVL66:
  28:src/../h/../h/my_console.h **** 
 662              		.loc 2 28 5 is_stmt 1
  28:src/../h/../h/my_console.h **** 
 663              		.loc 2 28 15 is_stmt 0
 664 040c 97000000 		call	_Z10putNewlinev@plt
 664      E7800000 
 665              	.LVL67:
 666              		.loc 2 30 5 is_stmt 1
 667              		.loc 2 30 15 is_stmt 0
 668 0414 97000000 		call	_Z10stopKernelv@plt
 668      E7800000 
 669              	.LVL68:
 670              	.L58:
 671              	.LBE112:
 672              	.LBE111:
 114:src/trap.cpp  ****         }
 673              		.loc 1 114 13 is_stmt 1
 114:src/trap.cpp  ****         }
 674              		.loc 1 114 22 is_stmt 0
 675 041c 17050000 		lla	a0,.LC5
 675      13050500 
 676 0424 97000000 		call	_Z9putStringPKc@plt
 676      E7800000 
 677              	.LVL69:
 678 042c 6F008002 		j	.L18
 679              	.L59:
 118:src/trap.cpp  ****         }
 680              		.loc 1 118 13 is_stmt 1
 118:src/trap.cpp  ****         }
 681              		.loc 1 118 22 is_stmt 0
 682 0430 17050000 		lla	a0,.LC6
 682      13050500 
 683 0438 97000000 		call	_Z9putStringPKc@plt
 683      E7800000 
 684              	.LVL70:
 685 0440 6F004001 		j	.L18
 686              	.L60:
 122:src/trap.cpp  ****         }
 687              		.loc 1 122 13 is_stmt 1
 122:src/trap.cpp  ****         }
 688              		.loc 1 122 22 is_stmt 0
 689 0444 17050000 		lla	a0,.LC7
 689      13050500 
 690 044c 97000000 		call	_Z9putStringPKc@plt
 690      E7800000 
 691              	.LVL71:
 692              	.L18:
GAS LISTING /tmp/ccnCQAdl.s 			page 21


 129:src/trap.cpp  ****         putString("Terminating kernel");
 693              		.loc 1 129 9 is_stmt 1
 129:src/trap.cpp  ****         putString("Terminating kernel");
 694              		.loc 1 129 19 is_stmt 0
 695 0454 97000000 		call	_Z10putNewlinev@plt
 695      E7800000 
 696              	.LVL72:
 130:src/trap.cpp  ****         putNewline();
 697              		.loc 1 130 9 is_stmt 1
 130:src/trap.cpp  ****         putNewline();
 698              		.loc 1 130 18 is_stmt 0
 699 045c 17050000 		lla	a0,.LC9
 699      13050500 
 700 0464 97000000 		call	_Z9putStringPKc@plt
 700      E7800000 
 701              	.LVL73:
 131:src/trap.cpp  ****         assert(false);
 702              		.loc 1 131 9 is_stmt 1
 131:src/trap.cpp  ****         assert(false);
 703              		.loc 1 131 19 is_stmt 0
 704 046c 97000000 		call	_Z10putNewlinev@plt
 704      E7800000 
 705              	.LVL74:
 132:src/trap.cpp  ****     }
 706              		.loc 1 132 9 is_stmt 1
 707              	.LBB113:
 708              	.LBB114:
  20:src/../h/../h/my_console.h ****         return;
 709              		.loc 2 20 5
  23:src/../h/../h/my_console.h ****     putString(file);
 710              		.loc 2 23 5
  23:src/../h/../h/my_console.h ****     putString(file);
 711              		.loc 2 23 14 is_stmt 0
 712 0474 17050000 		lla	a0,.LC0
 712      13050500 
 713 047c 97000000 		call	_Z9putStringPKc@plt
 713      E7800000 
 714              	.LVL75:
  24:src/../h/../h/my_console.h ****     putString("    line: ");
 715              		.loc 2 24 5 is_stmt 1
  24:src/../h/../h/my_console.h ****     putString("    line: ");
 716              		.loc 2 24 14 is_stmt 0
 717 0484 17050000 		lla	a0,.LC1
 717      13050500 
 718 048c 97000000 		call	_Z9putStringPKc@plt
 718      E7800000 
 719              	.LVL76:
  25:src/../h/../h/my_console.h ****     putInt(line);
 720              		.loc 2 25 5 is_stmt 1
  25:src/../h/../h/my_console.h ****     putInt(line);
 721              		.loc 2 25 14 is_stmt 0
 722 0494 17050000 		lla	a0,.LC2
 722      13050500 
 723 049c 97000000 		call	_Z9putStringPKc@plt
 723      E7800000 
 724              	.LVL77:
  26:src/../h/../h/my_console.h ****     putString("   ===========================");
GAS LISTING /tmp/ccnCQAdl.s 			page 22


 725              		.loc 2 26 5 is_stmt 1
  26:src/../h/../h/my_console.h ****     putString("   ===========================");
 726              		.loc 2 26 11 is_stmt 0
 727 04a4 13054008 		li	a0,132
 728 04a8 97000000 		call	_Z6putInti@plt
 728      E7800000 
 729              	.LVL78:
  27:src/../h/../h/my_console.h ****     putNewline();
 730              		.loc 2 27 5 is_stmt 1
  27:src/../h/../h/my_console.h ****     putNewline();
 731              		.loc 2 27 14 is_stmt 0
 732 04b0 17050000 		lla	a0,.LC3
 732      13050500 
 733 04b8 97000000 		call	_Z9putStringPKc@plt
 733      E7800000 
 734              	.LVL79:
  28:src/../h/../h/my_console.h **** 
 735              		.loc 2 28 5 is_stmt 1
  28:src/../h/../h/my_console.h **** 
 736              		.loc 2 28 15 is_stmt 0
 737 04c0 97000000 		call	_Z10putNewlinev@plt
 737      E7800000 
 738              	.LVL80:
 739              		.loc 2 30 5 is_stmt 1
 740              		.loc 2 30 15 is_stmt 0
 741 04c8 97000000 		call	_Z10stopKernelv@plt
 741      E7800000 
 742              	.LVL81:
 743              	.L50:
 744              	.LBE114:
 745              	.LBE113:
 746              	.LBB115:
 139:src/trap.cpp  ****     }
 747              		.loc 1 139 9 is_stmt 1
 139:src/trap.cpp  ****     }
 748              		.loc 1 139 48 is_stmt 0
 749 04d0 97000000 		call	_ZN8MemAlloc3getEv@plt
 749      E7800000 
 750              	.LVL82:
 751 04d8 93050A00 		mv	a1,s4
 752 04dc 97000000 		call	_ZN8MemAlloc8allocMemEm@plt
 752      E7800000 
 753              	.LVL83:
 139:src/trap.cpp  ****     }
 754              		.loc 1 139 13
 755 04e4 2334A4FA 		sd	a0,-88(s0)
 756              	.L22:
 757              	.LBE115:
 188:src/trap.cpp  ****         assert(false); // unknown code
 189:src/trap.cpp  ****         assert(false); // unknown code
 190:src/trap.cpp  ****         assert(false); // unknown code
 191:src/trap.cpp  ****     }
 192:src/trap.cpp  **** 
 193:src/trap.cpp  **** //    __asm__ volatile ("mv a0, %[name]" : : [name] "r" (ret)); // upaliti ovo dole umesto ovoga (o
 194:src/trap.cpp  **** 
 195:src/trap.cpp  ****     bool normalCallWithReturn = (code == 0x1) || (code == 0x2) || (code == 0x11) || (code == 0x12) 
 758              		.loc 1 195 5 is_stmt 1
GAS LISTING /tmp/ccnCQAdl.s 			page 23


 759              		.loc 1 195 47 is_stmt 0
 760 04e8 9387F4FF 		addi	a5,s1,-1
 761              		.loc 1 195 190
 762 04ec 13071000 		li	a4,1
 763 04f0 6374F716 		bleu	a5,a4,.L37
 764              		.loc 1 195 64 discriminator 2
 765 04f4 93071001 		li	a5,17
 766 04f8 6388F41E 		beq	s1,a5,.L38
 767              		.loc 1 195 82 discriminator 4
 768 04fc 93072001 		li	a5,18
 769 0500 6388F41E 		beq	s1,a5,.L39
 770              		.loc 1 195 100 discriminator 6
 771 0504 93071002 		li	a5,33
 772 0508 6388F41E 		beq	s1,a5,.L40
 773              		.loc 1 195 118 discriminator 8
 774 050c 93072002 		li	a5,34
 775 0510 6388F41E 		beq	s1,a5,.L41
 776              		.loc 1 195 136 discriminator 10
 777 0514 93073002 		li	a5,35
 778 0518 6388F41E 		beq	s1,a5,.L42
 779              		.loc 1 195 154 discriminator 12
 780 051c 93074002 		li	a5,36
 781 0520 6388F41E 		beq	s1,a5,.L43
 782              		.loc 1 195 172 discriminator 14
 783 0524 93071003 		li	a5,49
 784 0528 6388F41E 		beq	s1,a5,.L44
 785              		.loc 1 195 190 discriminator 16
 786 052c 93071004 		li	a5,65
 787 0530 6380F412 		beq	s1,a5,.L61
 788              		.loc 1 195 190
 789 0534 93060000 		li	a3,0
 790 0538 6F004012 		j	.L31
 791              	.L51:
 792              	.LBB116:
 793              	.LBB103:
 143:src/trap.cpp  ****     }
 794              		.loc 1 143 9 is_stmt 1
 143:src/trap.cpp  ****     }
 795              		.loc 1 143 49 is_stmt 0
 796 053c 97000000 		call	_ZN8MemAlloc3getEv@plt
 796      E7800000 
 797              	.LVL84:
 798 0544 93050A00 		mv	a1,s4
 799 0548 97000000 		call	_ZN8MemAlloc7freeMemEPv@plt
 799      E7800000 
 800              	.LVL85:
 143:src/trap.cpp  ****     }
 801              		.loc 1 143 23
 802 0550 2324A4FA 		sw	a0,-88(s0)
 803 0554 6FF05FF9 		j	.L22
 804              	.L52:
 805              	.LBB97:
 148:src/trap.cpp  ****     }
 806              		.loc 1 148 9 is_stmt 1
 148:src/trap.cpp  ****     }
 807              		.loc 1 148 31 is_stmt 0
 808 0558 13050A00 		mv	a0,s4
GAS LISTING /tmp/ccnCQAdl.s 			page 24


 809 055c 97000000 		call	_Z8testCallm
 809      E7800000 
 810              	.LVL86:
 148:src/trap.cpp  ****     }
 811              		.loc 1 148 13
 812 0564 2334A4FA 		sd	a0,-88(s0)
 813 0568 6FF01FF8 		j	.L22
 814              	.L53:
 815              	.LBB92:
 153:src/trap.cpp  ****     }
 816              		.loc 1 153 9 is_stmt 1
 153:src/trap.cpp  ****     }
 817              		.loc 1 153 29 is_stmt 0
 818 056c 97000000 		call	_ZN6Thread12switchToUserEv@plt
 818      E7800000 
 819              	.LVL87:
 820 0574 6FF05FF7 		j	.L22
 821              	.L54:
 822              	.LBB88:
 157:src/trap.cpp  ****     }
 823              		.loc 1 157 9 is_stmt 1
 157:src/trap.cpp  ****     }
 824              		.loc 1 157 45 is_stmt 0
 825 0578 13060B00 		mv	a2,s6
 826 057c 93850A00 		mv	a1,s5
 827 0580 13050A00 		mv	a0,s4
 828 0584 97000000 		call	_ZN6Thread12createThreadEPmPFvPvES1_@plt
 828      E7800000 
 829              	.LVL88:
 157:src/trap.cpp  ****     }
 830              		.loc 1 157 23
 831 058c 2324A4FA 		sw	a0,-88(s0)
 832 0590 6FF09FF5 		j	.L22
 833              	.L55:
 834              	.LBB85:
 161:src/trap.cpp  ****     }
 835              		.loc 1 161 9 is_stmt 1
 161:src/trap.cpp  ****     }
 836              		.loc 1 161 37 is_stmt 0
 837 0594 97000000 		call	_ZN6Thread4exitEv@plt
 837      E7800000 
 838              	.LVL89:
 161:src/trap.cpp  ****     }
 839              		.loc 1 161 23
 840 059c 2324A4FA 		sw	a0,-88(s0)
 841 05a0 6FF09FF4 		j	.L22
 842              	.L56:
 843              	.LBB83:
 844              	.LBB78:
 165:src/trap.cpp  ****         assert(Thread::getPRunning() != &kernelThread); // you're only supposed to open user thread
 845              		.loc 1 165 9 is_stmt 1
 166:src/trap.cpp  **** 
 846              		.loc 1 166 9
 847 05a4 97000000 		call	_ZN6Thread11getPRunningEv@plt
 847      E7800000 
 848              	.LVL90:
 849 05ac 97070000 		la	a5,kernelThread
GAS LISTING /tmp/ccnCQAdl.s 			page 25


 849      83B70700 
 850              	.LVL91:
 851              	.LBB79:
 852              	.LBB80:
  20:src/../h/../h/my_console.h ****         return;
 853              		.loc 2 20 5
 854 05b4 6388A702 		beq	a5,a0,.L62
  21:src/../h/../h/my_console.h **** 
 855              		.loc 2 21 9
 856              	.LVL92:
 857              	.LBE80:
 858              	.LBE79:
 168:src/trap.cpp  ****         Scheduler::put(Thread::getPRunning());
 859              		.loc 1 168 9
 168:src/trap.cpp  ****         Scheduler::put(Thread::getPRunning());
 860              		.loc 1 168 28 is_stmt 0
 861 05b8 97000000 		call	_ZN6Thread11getPRunningEv@plt
 861      E7800000 
 862              	.LVL93:
 168:src/trap.cpp  ****         Scheduler::put(Thread::getPRunning());
 863              		.loc 1 168 38
 864 05c0 93072000 		li	a5,2
 865 05c4 2320F500 		sw	a5,0(a0)
 169:src/trap.cpp  **** 
 866              		.loc 1 169 9 is_stmt 1
 169:src/trap.cpp  **** 
 867              		.loc 1 169 23 is_stmt 0
 868 05c8 97000000 		call	_ZN6Thread11getPRunningEv@plt
 868      E7800000 
 869              	.LVL94:
 870 05d0 97000000 		call	_ZN9Scheduler3putEP6Thread@plt
 870      E7800000 
 871              	.LVL95:
 171:src/trap.cpp  ****     }
 872              		.loc 1 171 9 is_stmt 1
 171:src/trap.cpp  ****     }
 873              		.loc 1 171 34 is_stmt 0
 874 05d8 97000000 		call	_ZN9Scheduler14dispatchToNextEv@plt
 874      E7800000 
 875              	.LVL96:
 876 05e0 6FF09FF0 		j	.L22
 877              	.LVL97:
 878              	.L62:
 879              	.LBB82:
 880              	.LBB81:
  23:src/../h/../h/my_console.h ****     putString(file);
 881              		.loc 2 23 5 is_stmt 1
  23:src/../h/../h/my_console.h ****     putString(file);
 882              		.loc 2 23 14 is_stmt 0
 883 05e4 17050000 		lla	a0,.LC0
 883      13050500 
 884              	.LVL98:
 885 05ec 97000000 		call	_Z9putStringPKc@plt
 885      E7800000 
 886              	.LVL99:
  24:src/../h/../h/my_console.h ****     putString("    line: ");
 887              		.loc 2 24 5 is_stmt 1
GAS LISTING /tmp/ccnCQAdl.s 			page 26


  24:src/../h/../h/my_console.h ****     putString("    line: ");
 888              		.loc 2 24 14 is_stmt 0
 889 05f4 17050000 		lla	a0,.LC1
 889      13050500 
 890 05fc 97000000 		call	_Z9putStringPKc@plt
 890      E7800000 
 891              	.LVL100:
  25:src/../h/../h/my_console.h ****     putInt(line);
 892              		.loc 2 25 5 is_stmt 1
  25:src/../h/../h/my_console.h ****     putInt(line);
 893              		.loc 2 25 14 is_stmt 0
 894 0604 17050000 		lla	a0,.LC2
 894      13050500 
 895 060c 97000000 		call	_Z9putStringPKc@plt
 895      E7800000 
 896              	.LVL101:
  26:src/../h/../h/my_console.h ****     putString("   ===========================");
 897              		.loc 2 26 5 is_stmt 1
  26:src/../h/../h/my_console.h ****     putString("   ===========================");
 898              		.loc 2 26 11 is_stmt 0
 899 0614 1305600A 		li	a0,166
 900 0618 97000000 		call	_Z6putInti@plt
 900      E7800000 
 901              	.LVL102:
  27:src/../h/../h/my_console.h ****     putNewline();
 902              		.loc 2 27 5 is_stmt 1
  27:src/../h/../h/my_console.h ****     putNewline();
 903              		.loc 2 27 14 is_stmt 0
 904 0620 17050000 		lla	a0,.LC3
 904      13050500 
 905 0628 97000000 		call	_Z9putStringPKc@plt
 905      E7800000 
 906              	.LVL103:
  28:src/../h/../h/my_console.h **** 
 907              		.loc 2 28 5 is_stmt 1
  28:src/../h/../h/my_console.h **** 
 908              		.loc 2 28 15 is_stmt 0
 909 0630 97000000 		call	_Z10putNewlinev@plt
 909      E7800000 
 910              	.LVL104:
 911              		.loc 2 30 5 is_stmt 1
 912              		.loc 2 30 15 is_stmt 0
 913 0638 97000000 		call	_Z10stopKernelv@plt
 913      E7800000 
 914              	.LVL105:
 915              	.L57:
 916              	.LBE81:
 917              	.LBE82:
 918              	.LBE78:
 175:src/trap.cpp  ****     }
 919              		.loc 1 175 9 is_stmt 1
 175:src/trap.cpp  ****     }
 920              		.loc 1 175 21 is_stmt 0
 921 0640 13050A00 		mv	a0,s4
 922 0644 97000000 		call	_ZN6Thread4joinEm@plt
 922      E7800000 
 923              	.LVL106:
GAS LISTING /tmp/ccnCQAdl.s 			page 27


 924 064c 6FF0DFE9 		j	.L22
 925              	.L61:
 926              	.LBE83:
 927              	.LBE85:
 928              	.LBE88:
 929              	.LBE92:
 930              	.LBE97:
 931              	.LBE103:
 932              	.LBE116:
 933              		.loc 1 195 190
 934 0650 93860B00 		mv	a3,s7
 935 0654 6F008000 		j	.L31
 936              	.L37:
 937 0658 93860B00 		mv	a3,s7
 938              	.L31:
 939              	.LVL107:
 196:src/trap.cpp  ****     bool customCallWithReturn = (code == 0x3);
 940              		.loc 1 196 5 is_stmt 1 discriminator 20
 197:src/trap.cpp  ****     bool customCallWithoutReturn = (code == 0x4);
 941              		.loc 1 197 5 discriminator 20
 198:src/trap.cpp  ****     bool normalCallWithoutReturn = (code == 0x13) || (code == 0x14) || (code == 0x42);
 942              		.loc 1 198 5 discriminator 20
 943              		.loc 1 198 51 is_stmt 0 discriminator 20
 944 065c 9387D4FE 		addi	a5,s1,-19
 945              		.loc 1 198 69 discriminator 20
 946 0660 13071000 		li	a4,1
 947 0664 6378F700 		bleu	a5,a4,.L32
 948              		.loc 1 198 69 discriminator 2
 949 0668 93072004 		li	a5,66
 950 066c 6384F400 		beq	s1,a5,.L32
 951              		.loc 1 198 69
 952 0670 930B0000 		li	s7,0
 953              	.L32:
 954              	.LVL108:
 199:src/trap.cpp  ****     if(normalCallWithReturn || customCallWithReturn)
 955              		.loc 1 199 5 is_stmt 1 discriminator 6
 956 0674 6396060A 		bnez	a3,.L33
 957              		.loc 1 199 29 is_stmt 0 discriminator 1
 958 0678 93073000 		li	a5,3
 959 067c 6382F40A 		beq	s1,a5,.L33
 200:src/trap.cpp  ****     { // system call with a return (not necessariliy 64bit)
 201:src/trap.cpp  **** 
 202:src/trap.cpp  ****         assert(ret != (uint64)-1); // not 100% check
 203:src/trap.cpp  **** 
 204:src/trap.cpp  ****         __asm__ volatile ("mv a0, %[name]" : : [name] "r" (ret));
 205:src/trap.cpp  ****     }
 206:src/trap.cpp  ****     else if(normalCallWithoutReturn || customCallWithoutReturn) // this exists for safety reasons
 960              		.loc 1 206 10 is_stmt 1
 961 0680 639A0B0A 		bnez	s7,.L36
 962              		.loc 1 206 37 is_stmt 0 discriminator 1
 963 0684 93074000 		li	a5,4
 964 0688 6386F40A 		beq	s1,a5,.L36
 207:src/trap.cpp  ****     {
 208:src/trap.cpp  ****         ;
 209:src/trap.cpp  ****     }
 210:src/trap.cpp  ****     else
 211:src/trap.cpp  ****     {
GAS LISTING /tmp/ccnCQAdl.s 			page 28


 212:src/trap.cpp  ****         assert(false);
 965              		.loc 1 212 9 is_stmt 1
 966              	.LVL109:
 967              	.LBB117:
 968              	.LBB118:
  20:src/../h/../h/my_console.h ****         return;
 969              		.loc 2 20 5
  23:src/../h/../h/my_console.h ****     putString(file);
 970              		.loc 2 23 5
  23:src/../h/../h/my_console.h ****     putString(file);
 971              		.loc 2 23 14 is_stmt 0
 972 068c 17050000 		lla	a0,.LC0
 972      13050500 
 973 0694 97000000 		call	_Z9putStringPKc@plt
 973      E7800000 
 974              	.LVL110:
  24:src/../h/../h/my_console.h ****     putString("    line: ");
 975              		.loc 2 24 5 is_stmt 1
  24:src/../h/../h/my_console.h ****     putString("    line: ");
 976              		.loc 2 24 14 is_stmt 0
 977 069c 17050000 		lla	a0,.LC1
 977      13050500 
 978 06a4 97000000 		call	_Z9putStringPKc@plt
 978      E7800000 
 979              	.LVL111:
  25:src/../h/../h/my_console.h ****     putInt(line);
 980              		.loc 2 25 5 is_stmt 1
  25:src/../h/../h/my_console.h ****     putInt(line);
 981              		.loc 2 25 14 is_stmt 0
 982 06ac 17050000 		lla	a0,.LC2
 982      13050500 
 983 06b4 97000000 		call	_Z9putStringPKc@plt
 983      E7800000 
 984              	.LVL112:
  26:src/../h/../h/my_console.h ****     putString("   ===========================");
 985              		.loc 2 26 5 is_stmt 1
  26:src/../h/../h/my_console.h ****     putString("   ===========================");
 986              		.loc 2 26 11 is_stmt 0
 987 06bc 1305400D 		li	a0,212
 988 06c0 97000000 		call	_Z6putInti@plt
 988      E7800000 
 989              	.LVL113:
  27:src/../h/../h/my_console.h ****     putNewline();
 990              		.loc 2 27 5 is_stmt 1
  27:src/../h/../h/my_console.h ****     putNewline();
 991              		.loc 2 27 14 is_stmt 0
 992 06c8 17050000 		lla	a0,.LC3
 992      13050500 
 993 06d0 97000000 		call	_Z9putStringPKc@plt
 993      E7800000 
 994              	.LVL114:
  28:src/../h/../h/my_console.h **** 
 995              		.loc 2 28 5 is_stmt 1
  28:src/../h/../h/my_console.h **** 
 996              		.loc 2 28 15 is_stmt 0
 997 06d8 97000000 		call	_Z10putNewlinev@plt
 997      E7800000 
GAS LISTING /tmp/ccnCQAdl.s 			page 29


 998              	.LVL115:
 999              		.loc 2 30 5 is_stmt 1
 1000              		.loc 2 30 15 is_stmt 0
 1001 06e0 97000000 		call	_Z10stopKernelv@plt
 1001      E7800000 
 1002              	.LVL116:
 1003              	.L38:
 1004              	.LBE118:
 1005              	.LBE117:
 195:src/trap.cpp  ****     bool customCallWithReturn = (code == 0x3);
 1006              		.loc 1 195 190
 1007 06e8 93860B00 		mv	a3,s7
 1008 06ec 6FF01FF7 		j	.L31
 1009              	.L39:
 1010 06f0 93860B00 		mv	a3,s7
 1011 06f4 6FF09FF6 		j	.L31
 1012              	.L40:
 1013 06f8 93860B00 		mv	a3,s7
 1014 06fc 6FF01FF6 		j	.L31
 1015              	.L41:
 1016 0700 93860B00 		mv	a3,s7
 1017 0704 6FF09FF5 		j	.L31
 1018              	.L42:
 1019 0708 93860B00 		mv	a3,s7
 1020 070c 6FF01FF5 		j	.L31
 1021              	.L43:
 1022 0710 93860B00 		mv	a3,s7
 1023 0714 6FF09FF4 		j	.L31
 1024              	.L44:
 1025 0718 93860B00 		mv	a3,s7
 1026 071c 6FF01FF4 		j	.L31
 1027              	.LVL117:
 1028              	.L33:
 202:src/trap.cpp  **** 
 1029              		.loc 1 202 9 is_stmt 1
 1030 0720 833784FA 		ld	a5,-88(s0)
 1031 0724 93871700 		addi	a5,a5,1
 1032              	.LVL118:
 1033              	.LBB119:
 1034              	.LBB120:
  20:src/../h/../h/my_console.h ****         return;
 1035              		.loc 2 20 5
 1036 0728 638E0702 		beqz	a5,.L63
  21:src/../h/../h/my_console.h **** 
 1037              		.loc 2 21 9
 1038              	.LVL119:
 1039              	.LBE120:
 1040              	.LBE119:
 204:src/trap.cpp  ****     }
 1041              		.loc 1 204 9
 204:src/trap.cpp  ****     }
 1042              		.loc 1 204 65 is_stmt 0
 1043 072c 833784FA 		ld	a5,-88(s0)
 1044              	#APP
 1045              	# 204 "src/trap.cpp" 1
 1046              		mv a0, a5
 1047              	# 0 "" 2
GAS LISTING /tmp/ccnCQAdl.s 			page 30


 1048              	#NO_APP
 1049              	.L36:
 213:src/trap.cpp  ****     }
 214:src/trap.cpp  **** 
 215:src/trap.cpp  ****     __asm__ volatile ("mv x10, x10");
 1050              		.loc 1 215 5 is_stmt 1
 1051              		.loc 1 215 37 is_stmt 0
 1052              	#APP
 1053              	# 215 "src/trap.cpp" 1
 216              	}
 1054              		mv x10, x10
 1055              	# 0 "" 2
 1056              		.loc 1 216 1
 1057              	#NO_APP
 1058 0738 83308105 		ld	ra,88(sp)
 1059              		.cfi_remember_state
 1060              		.cfi_restore 1
 1061 073c 03340105 		ld	s0,80(sp)
 1062              		.cfi_restore 8
 1063              		.cfi_def_cfa 2, 96
 1064 0740 83348104 		ld	s1,72(sp)
 1065              		.cfi_restore 9
 1066              	.LVL120:
 1067 0744 03390104 		ld	s2,64(sp)
 1068              		.cfi_restore 18
 1069 0748 83398103 		ld	s3,56(sp)
 1070              		.cfi_restore 19
 1071              	.LVL121:
 1072 074c 033A0103 		ld	s4,48(sp)
 1073              		.cfi_restore 20
 1074              	.LVL122:
 1075 0750 833A8102 		ld	s5,40(sp)
 1076              		.cfi_restore 21
 1077              	.LVL123:
 1078 0754 033B0102 		ld	s6,32(sp)
 1079              		.cfi_restore 22
 1080              	.LVL124:
 1081 0758 833B8101 		ld	s7,24(sp)
 1082              		.cfi_restore 23
 1083              	.LVL125:
 1084 075c 13010106 		addi	sp,sp,96
 1085              		.cfi_def_cfa_offset 0
 1086 0760 67800000 		jr	ra
 1087              	.LVL126:
 1088              	.L63:
 1089              		.cfi_restore_state
 1090              	.LBB122:
 1091              	.LBB121:
  23:src/../h/../h/my_console.h ****     putString(file);
 1092              		.loc 2 23 5 is_stmt 1
  23:src/../h/../h/my_console.h ****     putString(file);
 1093              		.loc 2 23 14 is_stmt 0
 1094 0764 17050000 		lla	a0,.LC0
 1094      13050500 
 1095 076c 97000000 		call	_Z9putStringPKc@plt
 1095      E7800000 
 1096              	.LVL127:
GAS LISTING /tmp/ccnCQAdl.s 			page 31


  24:src/../h/../h/my_console.h ****     putString("    line: ");
 1097              		.loc 2 24 5 is_stmt 1
  24:src/../h/../h/my_console.h ****     putString("    line: ");
 1098              		.loc 2 24 14 is_stmt 0
 1099 0774 17050000 		lla	a0,.LC1
 1099      13050500 
 1100 077c 97000000 		call	_Z9putStringPKc@plt
 1100      E7800000 
 1101              	.LVL128:
  25:src/../h/../h/my_console.h ****     putInt(line);
 1102              		.loc 2 25 5 is_stmt 1
  25:src/../h/../h/my_console.h ****     putInt(line);
 1103              		.loc 2 25 14 is_stmt 0
 1104 0784 17050000 		lla	a0,.LC2
 1104      13050500 
 1105 078c 97000000 		call	_Z9putStringPKc@plt
 1105      E7800000 
 1106              	.LVL129:
  26:src/../h/../h/my_console.h ****     putString("   ===========================");
 1107              		.loc 2 26 5 is_stmt 1
  26:src/../h/../h/my_console.h ****     putString("   ===========================");
 1108              		.loc 2 26 11 is_stmt 0
 1109 0794 1305A00C 		li	a0,202
 1110 0798 97000000 		call	_Z6putInti@plt
 1110      E7800000 
 1111              	.LVL130:
  27:src/../h/../h/my_console.h ****     putNewline();
 1112              		.loc 2 27 5 is_stmt 1
  27:src/../h/../h/my_console.h ****     putNewline();
 1113              		.loc 2 27 14 is_stmt 0
 1114 07a0 17050000 		lla	a0,.LC3
 1114      13050500 
 1115 07a8 97000000 		call	_Z9putStringPKc@plt
 1115      E7800000 
 1116              	.LVL131:
  28:src/../h/../h/my_console.h **** 
 1117              		.loc 2 28 5 is_stmt 1
  28:src/../h/../h/my_console.h **** 
 1118              		.loc 2 28 15 is_stmt 0
 1119 07b0 97000000 		call	_Z10putNewlinev@plt
 1119      E7800000 
 1120              	.LVL132:
 1121              		.loc 2 30 5 is_stmt 1
 1122              		.loc 2 30 15 is_stmt 0
 1123 07b8 97000000 		call	_Z10stopKernelv@plt
 1123      E7800000 
 1124              	.LVL133:
 1125              	.LBE121:
 1126              	.LBE122:
 1127              		.cfi_endproc
 1128              	.LFE21:
 1130              		.globl	gTimer
 1131              		.weak	_ZGVZN7Console3getEvE8instance
 1132              		.section	.bss._ZGVZN7Console3getEvE8instance,"awG",@nobits,_ZGVZN7Console3getEvE8instance,comdat
 1133              		.align	3
 1136              	_ZGVZN7Console3getEvE8instance:
 1137 0000 00000000 		.zero	8
GAS LISTING /tmp/ccnCQAdl.s 			page 32


 1137      00000000 
 1138              		.weak	_ZZN7Console3getEvE8instance
 1139              		.section	.bss._ZZN7Console3getEvE8instance,"awG",@nobits,_ZZN7Console3getEvE8instance,comdat
 1140              		.align	3
 1143              	_ZZN7Console3getEvE8instance:
 1144 0000 00000000 		.zero	1024
 1144      00000000 
 1144      00000000 
 1144      00000000 
 1144      00000000 
 1145              		.bss
 1146              		.align	3
 1149              	gTimer:
 1150 0000 00000000 		.zero	8
 1150      00000000 
 1151              		.text
 1152              	.Letext0:
 1153              		.file 4 "src/../h/../lib/hw.h"
 1154              		.file 5 "src/../h/thread.h"
 1155              		.file 6 "src/../h/scheduler.h"
 1156              		.file 7 "src/../h/alloc.h"
 1157              		.file 8 "src/../h/../h/c_api.h"
GAS LISTING /tmp/ccnCQAdl.s 			page 33


DEFINED SYMBOLS
                            *ABS*:0000000000000000 trap.cpp
     /tmp/ccnCQAdl.s:9      .text:0000000000000000 _Z8testCallm
     /tmp/ccnCQAdl.s:13     .text:0000000000000000 .L0 
     /tmp/ccnCQAdl.s:15     .text:0000000000000000 .L0 
     /tmp/ccnCQAdl.s:16     .text:0000000000000004 .L0 
     /tmp/ccnCQAdl.s:19     .text:000000000000000c .L0 
     /tmp/ccnCQAdl.s:20     .text:000000000000000c .L0 
     /tmp/ccnCQAdl.s:22     .text:0000000000000010 .L0 
     /tmp/ccnCQAdl.s:24     .text:0000000000000010 .L0 
     /tmp/ccnCQAdl.s:25     .text:0000000000000010 .L0 
     /tmp/ccnCQAdl.s:28     .text:0000000000000018 .L0 
     /tmp/ccnCQAdl.s:29     .text:000000000000001c .L0 
     /tmp/ccnCQAdl.s:31     .text:0000000000000020 .L0 
     /tmp/ccnCQAdl.s:32     .text:0000000000000020 .L0 
     /tmp/ccnCQAdl.s:34     .text:0000000000000024 .L0 
     /tmp/ccnCQAdl.s:36     .text:0000000000000028 .L0 
     /tmp/ccnCQAdl.s:56     .text:0000000000000028 _Z24cConsoleInterruptRoutinev
     /tmp/ccnCQAdl.s:59     .text:0000000000000028 .L0 
     /tmp/ccnCQAdl.s:60     .text:0000000000000028 .L0 
     /tmp/ccnCQAdl.s:61     .text:000000000000002c .L0 
     /tmp/ccnCQAdl.s:64     .text:0000000000000034 .L0 
     /tmp/ccnCQAdl.s:65     .text:0000000000000034 .L0 
     /tmp/ccnCQAdl.s:67     .text:0000000000000038 .L0 
     /tmp/ccnCQAdl.s:73     .text:0000000000000038 .L0 
     /tmp/ccnCQAdl.s:74     .text:0000000000000038 .L0 
     /tmp/ccnCQAdl.s:75     .text:0000000000000038 .L0 
     /tmp/ccnCQAdl.s:76     .text:0000000000000038 .L0 
     /tmp/ccnCQAdl.s:80     .text:0000000000000048 .L0 
     /tmp/ccnCQAdl.s:81     .text:0000000000000048 .L0 
     /tmp/ccnCQAdl.s:85     .text:0000000000000058 .L0 
     /tmp/ccnCQAdl.s:86     .text:0000000000000058 .L0 
     /tmp/ccnCQAdl.s:90     .text:0000000000000068 .L0 
     /tmp/ccnCQAdl.s:91     .text:0000000000000068 .L0 
     /tmp/ccnCQAdl.s:95     .text:0000000000000074 .L0 
     /tmp/ccnCQAdl.s:96     .text:0000000000000074 .L0 
     /tmp/ccnCQAdl.s:100    .text:0000000000000084 .L0 
     /tmp/ccnCQAdl.s:101    .text:0000000000000084 .L0 
     /tmp/ccnCQAdl.s:104    .text:000000000000008c .L0 
     /tmp/ccnCQAdl.s:105    .text:000000000000008c .L0 
     /tmp/ccnCQAdl.s:109    .text:0000000000000094 .L0 
     /tmp/ccnCQAdl.s:115    .text:0000000000000094 _Z22cTimerInterruptRoutinev
     /tmp/ccnCQAdl.s:118    .text:0000000000000094 .L0 
     /tmp/ccnCQAdl.s:119    .text:0000000000000094 .L0 
     /tmp/ccnCQAdl.s:120    .text:0000000000000098 .L0 
     /tmp/ccnCQAdl.s:124    .text:00000000000000a4 .L0 
     /tmp/ccnCQAdl.s:125    .text:00000000000000a4 .L0 
     /tmp/ccnCQAdl.s:126    .text:00000000000000a4 .L0 
     /tmp/ccnCQAdl.s:128    .text:00000000000000a8 .L0 
     /tmp/ccnCQAdl.s:130    .text:00000000000000a8 .L0 
        src/trap.cpp:40     .text:00000000000000a8 .L0 
     /tmp/ccnCQAdl.s:136    .text:00000000000000ac .L0 
     /tmp/ccnCQAdl.s:137    .text:00000000000000ac .L0 
        src/trap.cpp:43     .text:00000000000000ac .L0 
     /tmp/ccnCQAdl.s:143    .text:00000000000000b0 .L0 
     /tmp/ccnCQAdl.s:144    .text:00000000000000b0 .L0 
        src/trap.cpp:47     .text:00000000000000b0 .L0 
GAS LISTING /tmp/ccnCQAdl.s 			page 34


     /tmp/ccnCQAdl.s:150    .text:00000000000000b4 .L0 
     /tmp/ccnCQAdl.s:159    .text:00000000000000cc .L0 
     /tmp/ccnCQAdl.s:165    .text:00000000000000d4 .L0 
     /tmp/ccnCQAdl.s:166    .text:00000000000000d4 .L0 
     /tmp/ccnCQAdl.s:169    .text:00000000000000dc .L0 
     /tmp/ccnCQAdl.s:175    .text:00000000000000e4 .L0 
     /tmp/ccnCQAdl.s:176    .text:00000000000000e4 .L0 
     /tmp/ccnCQAdl.s:1136   .bss._ZGVZN7Console3getEvE8instance:0000000000000000 _ZGVZN7Console3getEvE8instance
     /tmp/ccnCQAdl.s:177    .text:00000000000000e4 .L0 
     /tmp/ccnCQAdl.s:1143   .bss._ZZN7Console3getEvE8instance:0000000000000000 _ZZN7Console3getEvE8instance
     /tmp/ccnCQAdl.s:184    .text:00000000000000f0 .L0 
     /tmp/ccnCQAdl.s:193    .text:0000000000000104 .L0 
     /tmp/ccnCQAdl.s:199    .text:0000000000000110 .L0 
     /tmp/ccnCQAdl.s:200    .text:0000000000000110 .L0 
     /tmp/ccnCQAdl.s:209    .text:0000000000000124 .L0 
     /tmp/ccnCQAdl.s:210    .text:0000000000000124 .L0 
     /tmp/ccnCQAdl.s:215    .text:0000000000000134 .L0 
     /tmp/ccnCQAdl.s:216    .text:0000000000000134 .L0 
     /tmp/ccnCQAdl.s:220    .text:0000000000000144 .L0 
     /tmp/ccnCQAdl.s:221    .text:0000000000000144 .L0 
     /tmp/ccnCQAdl.s:225    .text:0000000000000154 .L0 
     /tmp/ccnCQAdl.s:226    .text:0000000000000154 .L0 
     /tmp/ccnCQAdl.s:230    .text:0000000000000160 .L0 
     /tmp/ccnCQAdl.s:231    .text:0000000000000160 .L0 
     /tmp/ccnCQAdl.s:235    .text:0000000000000170 .L0 
     /tmp/ccnCQAdl.s:236    .text:0000000000000170 .L0 
     /tmp/ccnCQAdl.s:239    .text:0000000000000178 .L0 
     /tmp/ccnCQAdl.s:240    .text:0000000000000178 .L0 
     /tmp/ccnCQAdl.s:246    .text:0000000000000180 .L0 
        src/trap.cpp:53     .text:0000000000000180 .L0 
     /tmp/ccnCQAdl.s:254    .text:0000000000000184 .L0 
        src/trap.cpp:74     .text:0000000000000184 .L0 
     /tmp/ccnCQAdl.s:261    .text:0000000000000188 .L0 
     /tmp/ccnCQAdl.s:262    .text:000000000000018c .L0 
     /tmp/ccnCQAdl.s:263    .text:000000000000018c .L0 
     /tmp/ccnCQAdl.s:265    .text:0000000000000190 .L0 
     /tmp/ccnCQAdl.s:266    .text:0000000000000190 .L0 
     /tmp/ccnCQAdl.s:268    .text:0000000000000194 .L0 
     /tmp/ccnCQAdl.s:271    .text:0000000000000198 .L0 
     /tmp/ccnCQAdl.s:275    .text:000000000000019c .L0 
     /tmp/ccnCQAdl.s:279    .text:000000000000019c .L0 
     /tmp/ccnCQAdl.s:280    .text:000000000000019c .L0 
     /tmp/ccnCQAdl.s:281    .text:000000000000019c .L0 
     /tmp/ccnCQAdl.s:282    .text:000000000000019c .L0 
     /tmp/ccnCQAdl.s:286    .text:00000000000001ac .L0 
     /tmp/ccnCQAdl.s:287    .text:00000000000001ac .L0 
     /tmp/ccnCQAdl.s:291    .text:00000000000001bc .L0 
     /tmp/ccnCQAdl.s:292    .text:00000000000001bc .L0 
     /tmp/ccnCQAdl.s:296    .text:00000000000001cc .L0 
     /tmp/ccnCQAdl.s:297    .text:00000000000001cc .L0 
     /tmp/ccnCQAdl.s:301    .text:00000000000001d8 .L0 
     /tmp/ccnCQAdl.s:302    .text:00000000000001d8 .L0 
     /tmp/ccnCQAdl.s:306    .text:00000000000001e8 .L0 
     /tmp/ccnCQAdl.s:307    .text:00000000000001e8 .L0 
     /tmp/ccnCQAdl.s:310    .text:00000000000001f0 .L0 
     /tmp/ccnCQAdl.s:311    .text:00000000000001f0 .L0 
     /tmp/ccnCQAdl.s:315    .text:00000000000001f8 .L0 
GAS LISTING /tmp/ccnCQAdl.s 			page 35


     /tmp/ccnCQAdl.s:341    .text:00000000000001f8 _Z25cInternalInterruptRoutinev
     /tmp/ccnCQAdl.s:344    .text:00000000000001f8 .L0 
     /tmp/ccnCQAdl.s:345    .text:00000000000001f8 .L0 
     /tmp/ccnCQAdl.s:346    .text:00000000000001fc .L0 
     /tmp/ccnCQAdl.s:356    .text:0000000000000220 .L0 
     /tmp/ccnCQAdl.s:357    .text:0000000000000220 .L0 
     /tmp/ccnCQAdl.s:358    .text:0000000000000220 .L0 
     /tmp/ccnCQAdl.s:359    .text:0000000000000220 .L0 
     /tmp/ccnCQAdl.s:360    .text:0000000000000220 .L0 
     /tmp/ccnCQAdl.s:361    .text:0000000000000220 .L0 
     /tmp/ccnCQAdl.s:362    .text:0000000000000220 .L0 
     /tmp/ccnCQAdl.s:363    .text:0000000000000220 .L0 
     /tmp/ccnCQAdl.s:364    .text:0000000000000220 .L0 
     /tmp/ccnCQAdl.s:366    .text:0000000000000224 .L0 
     /tmp/ccnCQAdl.s:368    .text:0000000000000224 .L0 
     /tmp/ccnCQAdl.s:369    .text:0000000000000224 .L0 
        src/trap.cpp:81     .text:0000000000000224 .L0 
     /tmp/ccnCQAdl.s:376    .text:0000000000000228 .L0 
     /tmp/ccnCQAdl.s:377    .text:0000000000000228 .L0 
        src/trap.cpp:86     .text:0000000000000228 .L0 
     /tmp/ccnCQAdl.s:382    .text:000000000000022c .L0 
     /tmp/ccnCQAdl.s:383    .text:000000000000022c .L0 
        src/trap.cpp:89     .text:000000000000022c .L0 
     /tmp/ccnCQAdl.s:389    .text:0000000000000230 .L0 
        src/trap.cpp:90     .text:0000000000000230 .L0 
     /tmp/ccnCQAdl.s:395    .text:0000000000000234 .L0 
        src/trap.cpp:91     .text:0000000000000234 .L0 
     /tmp/ccnCQAdl.s:401    .text:0000000000000238 .L0 
        src/trap.cpp:92     .text:0000000000000238 .L0 
     /tmp/ccnCQAdl.s:407    .text:000000000000023c .L0 
        src/trap.cpp:95     .text:000000000000023c .L0 
     /tmp/ccnCQAdl.s:413    .text:0000000000000240 .L0 
     /tmp/ccnCQAdl.s:423    .text:000000000000025c .L0 
     /tmp/ccnCQAdl.s:430    .text:0000000000000268 .L0 
     /tmp/ccnCQAdl.s:431    .text:0000000000000268 .L0 
        src/trap.cpp:107    .text:0000000000000268 .L0 
     /tmp/ccnCQAdl.s:437    .text:000000000000026c .L0 
     /tmp/ccnCQAdl.s:439    .text:000000000000026c .L0 
     /tmp/ccnCQAdl.s:442    .text:0000000000000270 .L0 
     /tmp/ccnCQAdl.s:445    .text:0000000000000278 .L0 
     /tmp/ccnCQAdl.s:446    .text:0000000000000278 .L0 
     /tmp/ccnCQAdl.s:450    .text:0000000000000280 .L0 
     /tmp/ccnCQAdl.s:456    .text:0000000000000288 .L0 
     /tmp/ccnCQAdl.s:464    .text:0000000000000290 .L0 
     /tmp/ccnCQAdl.s:474    .text:0000000000000298 .L0 
     /tmp/ccnCQAdl.s:486    .text:00000000000002a0 .L0 
     /tmp/ccnCQAdl.s:500    .text:00000000000002a8 .L0 
     /tmp/ccnCQAdl.s:516    .text:00000000000002b0 .L0 
     /tmp/ccnCQAdl.s:519    .text:00000000000002b8 .L0 
     /tmp/ccnCQAdl.s:522    .text:00000000000002c0 .L0 
     /tmp/ccnCQAdl.s:525    .text:00000000000002c8 .L0 
     /tmp/ccnCQAdl.s:531    .text:00000000000002d0 .L0 
     /tmp/ccnCQAdl.s:532    .text:00000000000002d0 .L0 
     /tmp/ccnCQAdl.s:533    .text:00000000000002d0 .L0 
     /tmp/ccnCQAdl.s:534    .text:00000000000002d0 .L0 
     /tmp/ccnCQAdl.s:538    .text:00000000000002e0 .L0 
     /tmp/ccnCQAdl.s:539    .text:00000000000002e0 .L0 
GAS LISTING /tmp/ccnCQAdl.s 			page 36


     /tmp/ccnCQAdl.s:543    .text:00000000000002f0 .L0 
     /tmp/ccnCQAdl.s:544    .text:00000000000002f0 .L0 
     /tmp/ccnCQAdl.s:548    .text:0000000000000300 .L0 
     /tmp/ccnCQAdl.s:549    .text:0000000000000300 .L0 
     /tmp/ccnCQAdl.s:553    .text:000000000000030c .L0 
     /tmp/ccnCQAdl.s:554    .text:000000000000030c .L0 
     /tmp/ccnCQAdl.s:558    .text:000000000000031c .L0 
     /tmp/ccnCQAdl.s:559    .text:000000000000031c .L0 
     /tmp/ccnCQAdl.s:562    .text:0000000000000324 .L0 
     /tmp/ccnCQAdl.s:563    .text:0000000000000324 .L0 
     /tmp/ccnCQAdl.s:578    .text:000000000000032c .L0 
     /tmp/ccnCQAdl.s:579    .text:000000000000032c .L0 
     /tmp/ccnCQAdl.s:584    .text:000000000000033c .L0 
     /tmp/ccnCQAdl.s:585    .text:000000000000033c .L0 
     /tmp/ccnCQAdl.s:589    .text:000000000000034c .L0 
     /tmp/ccnCQAdl.s:590    .text:000000000000034c .L0 
     /tmp/ccnCQAdl.s:594    .text:000000000000035c .L0 
     /tmp/ccnCQAdl.s:595    .text:000000000000035c .L0 
     /tmp/ccnCQAdl.s:599    .text:0000000000000368 .L0 
     /tmp/ccnCQAdl.s:600    .text:0000000000000368 .L0 
     /tmp/ccnCQAdl.s:604    .text:0000000000000378 .L0 
     /tmp/ccnCQAdl.s:605    .text:0000000000000378 .L0 
     /tmp/ccnCQAdl.s:608    .text:0000000000000380 .L0 
     /tmp/ccnCQAdl.s:609    .text:0000000000000380 .L0 
     /tmp/ccnCQAdl.s:615    .text:0000000000000388 .L0 
     /tmp/ccnCQAdl.s:616    .text:0000000000000388 .L0 
     /tmp/ccnCQAdl.s:620    .text:0000000000000398 .L0 
     /tmp/ccnCQAdl.s:623    .text:00000000000003a0 .L0 
     /tmp/ccnCQAdl.s:626    .text:00000000000003a8 .L0 
     /tmp/ccnCQAdl.s:629    .text:00000000000003b0 .L0 
     /tmp/ccnCQAdl.s:630    .text:00000000000003b0 .L0 
     /tmp/ccnCQAdl.s:636    .text:00000000000003c0 .L0 
     /tmp/ccnCQAdl.s:637    .text:00000000000003c0 .L0 
     /tmp/ccnCQAdl.s:638    .text:00000000000003c0 .L0 
     /tmp/ccnCQAdl.s:639    .text:00000000000003c0 .L0 
     /tmp/ccnCQAdl.s:643    .text:00000000000003d0 .L0 
     /tmp/ccnCQAdl.s:644    .text:00000000000003d0 .L0 
     /tmp/ccnCQAdl.s:648    .text:00000000000003e0 .L0 
     /tmp/ccnCQAdl.s:649    .text:00000000000003e0 .L0 
     /tmp/ccnCQAdl.s:653    .text:00000000000003f0 .L0 
     /tmp/ccnCQAdl.s:654    .text:00000000000003f0 .L0 
     /tmp/ccnCQAdl.s:658    .text:00000000000003fc .L0 
     /tmp/ccnCQAdl.s:659    .text:00000000000003fc .L0 
     /tmp/ccnCQAdl.s:663    .text:000000000000040c .L0 
     /tmp/ccnCQAdl.s:664    .text:000000000000040c .L0 
     /tmp/ccnCQAdl.s:667    .text:0000000000000414 .L0 
     /tmp/ccnCQAdl.s:668    .text:0000000000000414 .L0 
     /tmp/ccnCQAdl.s:674    .text:000000000000041c .L0 
     /tmp/ccnCQAdl.s:675    .text:000000000000041c .L0 
     /tmp/ccnCQAdl.s:681    .text:0000000000000430 .L0 
     /tmp/ccnCQAdl.s:682    .text:0000000000000430 .L0 
     /tmp/ccnCQAdl.s:688    .text:0000000000000444 .L0 
     /tmp/ccnCQAdl.s:689    .text:0000000000000444 .L0 
     /tmp/ccnCQAdl.s:694    .text:0000000000000454 .L0 
     /tmp/ccnCQAdl.s:695    .text:0000000000000454 .L0 
     /tmp/ccnCQAdl.s:698    .text:000000000000045c .L0 
     /tmp/ccnCQAdl.s:699    .text:000000000000045c .L0 
GAS LISTING /tmp/ccnCQAdl.s 			page 37


     /tmp/ccnCQAdl.s:703    .text:000000000000046c .L0 
     /tmp/ccnCQAdl.s:704    .text:000000000000046c .L0 
     /tmp/ccnCQAdl.s:709    .text:0000000000000474 .L0 
     /tmp/ccnCQAdl.s:710    .text:0000000000000474 .L0 
     /tmp/ccnCQAdl.s:711    .text:0000000000000474 .L0 
     /tmp/ccnCQAdl.s:712    .text:0000000000000474 .L0 
     /tmp/ccnCQAdl.s:716    .text:0000000000000484 .L0 
     /tmp/ccnCQAdl.s:717    .text:0000000000000484 .L0 
     /tmp/ccnCQAdl.s:721    .text:0000000000000494 .L0 
     /tmp/ccnCQAdl.s:722    .text:0000000000000494 .L0 
     /tmp/ccnCQAdl.s:726    .text:00000000000004a4 .L0 
     /tmp/ccnCQAdl.s:727    .text:00000000000004a4 .L0 
     /tmp/ccnCQAdl.s:731    .text:00000000000004b0 .L0 
     /tmp/ccnCQAdl.s:732    .text:00000000000004b0 .L0 
     /tmp/ccnCQAdl.s:736    .text:00000000000004c0 .L0 
     /tmp/ccnCQAdl.s:737    .text:00000000000004c0 .L0 
     /tmp/ccnCQAdl.s:740    .text:00000000000004c8 .L0 
     /tmp/ccnCQAdl.s:741    .text:00000000000004c8 .L0 
     /tmp/ccnCQAdl.s:748    .text:00000000000004d0 .L0 
     /tmp/ccnCQAdl.s:749    .text:00000000000004d0 .L0 
     /tmp/ccnCQAdl.s:755    .text:00000000000004e4 .L0 
     /tmp/ccnCQAdl.s:759    .text:00000000000004e8 .L0 
     /tmp/ccnCQAdl.s:760    .text:00000000000004e8 .L0 
     /tmp/ccnCQAdl.s:762    .text:00000000000004ec .L0 
     /tmp/ccnCQAdl.s:765    .text:00000000000004f4 .L0 
     /tmp/ccnCQAdl.s:768    .text:00000000000004fc .L0 
     /tmp/ccnCQAdl.s:771    .text:0000000000000504 .L0 
     /tmp/ccnCQAdl.s:774    .text:000000000000050c .L0 
     /tmp/ccnCQAdl.s:777    .text:0000000000000514 .L0 
     /tmp/ccnCQAdl.s:780    .text:000000000000051c .L0 
     /tmp/ccnCQAdl.s:783    .text:0000000000000524 .L0 
     /tmp/ccnCQAdl.s:786    .text:000000000000052c .L0 
     /tmp/ccnCQAdl.s:789    .text:0000000000000534 .L0 
     /tmp/ccnCQAdl.s:795    .text:000000000000053c .L0 
     /tmp/ccnCQAdl.s:796    .text:000000000000053c .L0 
     /tmp/ccnCQAdl.s:802    .text:0000000000000550 .L0 
     /tmp/ccnCQAdl.s:807    .text:0000000000000558 .L0 
     /tmp/ccnCQAdl.s:808    .text:0000000000000558 .L0 
     /tmp/ccnCQAdl.s:812    .text:0000000000000564 .L0 
     /tmp/ccnCQAdl.s:817    .text:000000000000056c .L0 
     /tmp/ccnCQAdl.s:818    .text:000000000000056c .L0 
     /tmp/ccnCQAdl.s:824    .text:0000000000000578 .L0 
     /tmp/ccnCQAdl.s:825    .text:0000000000000578 .L0 
     /tmp/ccnCQAdl.s:831    .text:000000000000058c .L0 
     /tmp/ccnCQAdl.s:836    .text:0000000000000594 .L0 
     /tmp/ccnCQAdl.s:837    .text:0000000000000594 .L0 
     /tmp/ccnCQAdl.s:840    .text:000000000000059c .L0 
     /tmp/ccnCQAdl.s:846    .text:00000000000005a4 .L0 
     /tmp/ccnCQAdl.s:847    .text:00000000000005a4 .L0 
     /tmp/ccnCQAdl.s:854    .text:00000000000005b4 .L0 
     /tmp/ccnCQAdl.s:859    .text:00000000000005b8 .L0 
     /tmp/ccnCQAdl.s:860    .text:00000000000005b8 .L0 
     /tmp/ccnCQAdl.s:861    .text:00000000000005b8 .L0 
     /tmp/ccnCQAdl.s:864    .text:00000000000005c0 .L0 
     /tmp/ccnCQAdl.s:867    .text:00000000000005c8 .L0 
     /tmp/ccnCQAdl.s:868    .text:00000000000005c8 .L0 
     /tmp/ccnCQAdl.s:873    .text:00000000000005d8 .L0 
GAS LISTING /tmp/ccnCQAdl.s 			page 38


     /tmp/ccnCQAdl.s:874    .text:00000000000005d8 .L0 
     /tmp/ccnCQAdl.s:882    .text:00000000000005e4 .L0 
     /tmp/ccnCQAdl.s:883    .text:00000000000005e4 .L0 
     /tmp/ccnCQAdl.s:888    .text:00000000000005f4 .L0 
     /tmp/ccnCQAdl.s:889    .text:00000000000005f4 .L0 
     /tmp/ccnCQAdl.s:893    .text:0000000000000604 .L0 
     /tmp/ccnCQAdl.s:894    .text:0000000000000604 .L0 
     /tmp/ccnCQAdl.s:898    .text:0000000000000614 .L0 
     /tmp/ccnCQAdl.s:899    .text:0000000000000614 .L0 
     /tmp/ccnCQAdl.s:903    .text:0000000000000620 .L0 
     /tmp/ccnCQAdl.s:904    .text:0000000000000620 .L0 
     /tmp/ccnCQAdl.s:908    .text:0000000000000630 .L0 
     /tmp/ccnCQAdl.s:909    .text:0000000000000630 .L0 
     /tmp/ccnCQAdl.s:912    .text:0000000000000638 .L0 
     /tmp/ccnCQAdl.s:913    .text:0000000000000638 .L0 
     /tmp/ccnCQAdl.s:920    .text:0000000000000640 .L0 
     /tmp/ccnCQAdl.s:921    .text:0000000000000640 .L0 
     /tmp/ccnCQAdl.s:934    .text:0000000000000650 .L0 
     /tmp/ccnCQAdl.s:941    .text:000000000000065c .L0 
     /tmp/ccnCQAdl.s:942    .text:000000000000065c .L0 
     /tmp/ccnCQAdl.s:943    .text:000000000000065c .L0 
     /tmp/ccnCQAdl.s:944    .text:000000000000065c .L0 
     /tmp/ccnCQAdl.s:946    .text:0000000000000660 .L0 
     /tmp/ccnCQAdl.s:949    .text:0000000000000668 .L0 
     /tmp/ccnCQAdl.s:952    .text:0000000000000670 .L0 
     /tmp/ccnCQAdl.s:956    .text:0000000000000674 .L0 
     /tmp/ccnCQAdl.s:958    .text:0000000000000678 .L0 
     /tmp/ccnCQAdl.s:961    .text:0000000000000680 .L0 
     /tmp/ccnCQAdl.s:963    .text:0000000000000684 .L0 
     /tmp/ccnCQAdl.s:969    .text:000000000000068c .L0 
     /tmp/ccnCQAdl.s:970    .text:000000000000068c .L0 
     /tmp/ccnCQAdl.s:971    .text:000000000000068c .L0 
     /tmp/ccnCQAdl.s:972    .text:000000000000068c .L0 
     /tmp/ccnCQAdl.s:976    .text:000000000000069c .L0 
     /tmp/ccnCQAdl.s:977    .text:000000000000069c .L0 
     /tmp/ccnCQAdl.s:981    .text:00000000000006ac .L0 
     /tmp/ccnCQAdl.s:982    .text:00000000000006ac .L0 
     /tmp/ccnCQAdl.s:986    .text:00000000000006bc .L0 
     /tmp/ccnCQAdl.s:987    .text:00000000000006bc .L0 
     /tmp/ccnCQAdl.s:991    .text:00000000000006c8 .L0 
     /tmp/ccnCQAdl.s:992    .text:00000000000006c8 .L0 
     /tmp/ccnCQAdl.s:996    .text:00000000000006d8 .L0 
     /tmp/ccnCQAdl.s:997    .text:00000000000006d8 .L0 
     /tmp/ccnCQAdl.s:1000   .text:00000000000006e0 .L0 
     /tmp/ccnCQAdl.s:1001   .text:00000000000006e0 .L0 
     /tmp/ccnCQAdl.s:1007   .text:00000000000006e8 .L0 
     /tmp/ccnCQAdl.s:1030   .text:0000000000000720 .L0 
     /tmp/ccnCQAdl.s:1036   .text:0000000000000728 .L0 
     /tmp/ccnCQAdl.s:1041   .text:000000000000072c .L0 
     /tmp/ccnCQAdl.s:1042   .text:000000000000072c .L0 
     /tmp/ccnCQAdl.s:1043   .text:000000000000072c .L0 
     /tmp/ccnCQAdl.s:1051   .text:0000000000000734 .L0 
        src/trap.cpp:215    .text:0000000000000734 .L0 
     /tmp/ccnCQAdl.s:1058   .text:0000000000000738 .L0 
     /tmp/ccnCQAdl.s:1059   .text:000000000000073c .L0 
     /tmp/ccnCQAdl.s:1060   .text:000000000000073c .L0 
     /tmp/ccnCQAdl.s:1062   .text:0000000000000740 .L0 
GAS LISTING /tmp/ccnCQAdl.s 			page 39


     /tmp/ccnCQAdl.s:1063   .text:0000000000000740 .L0 
     /tmp/ccnCQAdl.s:1065   .text:0000000000000744 .L0 
     /tmp/ccnCQAdl.s:1068   .text:0000000000000748 .L0 
     /tmp/ccnCQAdl.s:1070   .text:000000000000074c .L0 
     /tmp/ccnCQAdl.s:1073   .text:0000000000000750 .L0 
     /tmp/ccnCQAdl.s:1076   .text:0000000000000754 .L0 
     /tmp/ccnCQAdl.s:1079   .text:0000000000000758 .L0 
     /tmp/ccnCQAdl.s:1082   .text:000000000000075c .L0 
     /tmp/ccnCQAdl.s:1085   .text:0000000000000760 .L0 
     /tmp/ccnCQAdl.s:1089   .text:0000000000000764 .L0 
     /tmp/ccnCQAdl.s:1093   .text:0000000000000764 .L0 
     /tmp/ccnCQAdl.s:1094   .text:0000000000000764 .L0 
     /tmp/ccnCQAdl.s:1098   .text:0000000000000774 .L0 
     /tmp/ccnCQAdl.s:1099   .text:0000000000000774 .L0 
     /tmp/ccnCQAdl.s:1103   .text:0000000000000784 .L0 
     /tmp/ccnCQAdl.s:1104   .text:0000000000000784 .L0 
     /tmp/ccnCQAdl.s:1108   .text:0000000000000794 .L0 
     /tmp/ccnCQAdl.s:1109   .text:0000000000000794 .L0 
     /tmp/ccnCQAdl.s:1113   .text:00000000000007a0 .L0 
     /tmp/ccnCQAdl.s:1114   .text:00000000000007a0 .L0 
     /tmp/ccnCQAdl.s:1118   .text:00000000000007b0 .L0 
     /tmp/ccnCQAdl.s:1119   .text:00000000000007b0 .L0 
     /tmp/ccnCQAdl.s:1122   .text:00000000000007b8 .L0 
     /tmp/ccnCQAdl.s:1123   .text:00000000000007b8 .L0 
     /tmp/ccnCQAdl.s:1127   .text:00000000000007c0 .L0 
     /tmp/ccnCQAdl.s:1149   .bss:0000000000000000 gTimer
     /tmp/ccnCQAdl.s:1158   .text:00000000000007c0 .L0 
     /tmp/ccnCQAdl.s:41     .rodata.str1.8:0000000000000000 .LC0
     /tmp/ccnCQAdl.s:76     .text:0000000000000038 .L0 
     /tmp/ccnCQAdl.s:44     .rodata.str1.8:0000000000000028 .LC1
     /tmp/ccnCQAdl.s:81     .text:0000000000000048 .L0 
     /tmp/ccnCQAdl.s:47     .rodata.str1.8:0000000000000038 .LC2
     /tmp/ccnCQAdl.s:86     .text:0000000000000058 .L0 
     /tmp/ccnCQAdl.s:50     .rodata.str1.8:0000000000000048 .LC3
     /tmp/ccnCQAdl.s:96     .text:0000000000000074 .L0 
     /tmp/ccnCQAdl.s:153    .text:00000000000000c0 .L0 
     /tmp/ccnCQAdl.s:177    .text:00000000000000e4 .L0 
     /tmp/ccnCQAdl.s:184    .text:00000000000000f0 .L0 
     /tmp/ccnCQAdl.s:194    .text:0000000000000108 .L0 
     /tmp/ccnCQAdl.s:200    .text:0000000000000110 .L0 
     /tmp/ccnCQAdl.s:210    .text:0000000000000124 .L0 
     /tmp/ccnCQAdl.s:216    .text:0000000000000134 .L0 
     /tmp/ccnCQAdl.s:221    .text:0000000000000144 .L0 
     /tmp/ccnCQAdl.s:231    .text:0000000000000160 .L0 
     /tmp/ccnCQAdl.s:282    .text:000000000000019c .L0 
     /tmp/ccnCQAdl.s:287    .text:00000000000001ac .L0 
     /tmp/ccnCQAdl.s:292    .text:00000000000001bc .L0 
     /tmp/ccnCQAdl.s:302    .text:00000000000001d8 .L0 
     /tmp/ccnCQAdl.s:416    .text:000000000000024c .L0 
     /tmp/ccnCQAdl.s:534    .text:00000000000002d0 .L0 
     /tmp/ccnCQAdl.s:539    .text:00000000000002e0 .L0 
     /tmp/ccnCQAdl.s:544    .text:00000000000002f0 .L0 
     /tmp/ccnCQAdl.s:554    .text:000000000000030c .L0 
     /tmp/ccnCQAdl.s:579    .text:000000000000032c .L0 
     /tmp/ccnCQAdl.s:585    .text:000000000000033c .L0 
     /tmp/ccnCQAdl.s:590    .text:000000000000034c .L0 
     /tmp/ccnCQAdl.s:600    .text:0000000000000368 .L0 
GAS LISTING /tmp/ccnCQAdl.s 			page 40


     /tmp/ccnCQAdl.s:320    .rodata.str1.8:0000000000000068 .LC4
     /tmp/ccnCQAdl.s:616    .text:0000000000000388 .L0 
     /tmp/ccnCQAdl.s:332    .rodata.str1.8:00000000000000d0 .LC8
     /tmp/ccnCQAdl.s:630    .text:00000000000003b0 .L0 
     /tmp/ccnCQAdl.s:639    .text:00000000000003c0 .L0 
     /tmp/ccnCQAdl.s:644    .text:00000000000003d0 .L0 
     /tmp/ccnCQAdl.s:649    .text:00000000000003e0 .L0 
     /tmp/ccnCQAdl.s:659    .text:00000000000003fc .L0 
     /tmp/ccnCQAdl.s:323    .rodata.str1.8:0000000000000088 .LC5
     /tmp/ccnCQAdl.s:675    .text:000000000000041c .L0 
     /tmp/ccnCQAdl.s:326    .rodata.str1.8:00000000000000a0 .LC6
     /tmp/ccnCQAdl.s:682    .text:0000000000000430 .L0 
     /tmp/ccnCQAdl.s:329    .rodata.str1.8:00000000000000b8 .LC7
     /tmp/ccnCQAdl.s:689    .text:0000000000000444 .L0 
     /tmp/ccnCQAdl.s:335    .rodata.str1.8:00000000000000f8 .LC9
     /tmp/ccnCQAdl.s:699    .text:000000000000045c .L0 
     /tmp/ccnCQAdl.s:712    .text:0000000000000474 .L0 
     /tmp/ccnCQAdl.s:717    .text:0000000000000484 .L0 
     /tmp/ccnCQAdl.s:722    .text:0000000000000494 .L0 
     /tmp/ccnCQAdl.s:732    .text:00000000000004b0 .L0 
     /tmp/ccnCQAdl.s:849    .text:00000000000005ac .L0 
     /tmp/ccnCQAdl.s:883    .text:00000000000005e4 .L0 
     /tmp/ccnCQAdl.s:889    .text:00000000000005f4 .L0 
     /tmp/ccnCQAdl.s:894    .text:0000000000000604 .L0 
     /tmp/ccnCQAdl.s:904    .text:0000000000000620 .L0 
     /tmp/ccnCQAdl.s:972    .text:000000000000068c .L0 
     /tmp/ccnCQAdl.s:977    .text:000000000000069c .L0 
     /tmp/ccnCQAdl.s:982    .text:00000000000006ac .L0 
     /tmp/ccnCQAdl.s:992    .text:00000000000006c8 .L0 
     /tmp/ccnCQAdl.s:1094   .text:0000000000000764 .L0 
     /tmp/ccnCQAdl.s:1099   .text:0000000000000774 .L0 
     /tmp/ccnCQAdl.s:1104   .text:0000000000000784 .L0 
     /tmp/ccnCQAdl.s:1114   .text:00000000000007a0 .L0 
     /tmp/ccnCQAdl.s:205    .text:0000000000000124 .L12
     /tmp/ccnCQAdl.s:242    .text:0000000000000180 .L13
     /tmp/ccnCQAdl.s:274    .text:000000000000019c .L9
     /tmp/ccnCQAdl.s:195    .text:0000000000000110 .L10
     /tmp/ccnCQAdl.s:252    .text:0000000000000184 .L8
     /tmp/ccnCQAdl.s:565    .text:000000000000032c .L48
     /tmp/ccnCQAdl.s:611    .text:0000000000000388 .L49
     /tmp/ccnCQAdl.s:743    .text:00000000000004d0 .L50
     /tmp/ccnCQAdl.s:791    .text:000000000000053c .L51
     /tmp/ccnCQAdl.s:804    .text:0000000000000558 .L52
     /tmp/ccnCQAdl.s:814    .text:000000000000056c .L53
     /tmp/ccnCQAdl.s:821    .text:0000000000000578 .L54
     /tmp/ccnCQAdl.s:833    .text:0000000000000594 .L55
     /tmp/ccnCQAdl.s:842    .text:00000000000005a4 .L56
     /tmp/ccnCQAdl.s:915    .text:0000000000000640 .L57
     /tmp/ccnCQAdl.s:756    .text:00000000000004e8 .L22
     /tmp/ccnCQAdl.s:670    .text:000000000000041c .L58
     /tmp/ccnCQAdl.s:679    .text:0000000000000430 .L59
     /tmp/ccnCQAdl.s:686    .text:0000000000000444 .L60
     /tmp/ccnCQAdl.s:692    .text:0000000000000454 .L18
     /tmp/ccnCQAdl.s:936    .text:0000000000000658 .L37
     /tmp/ccnCQAdl.s:1003   .text:00000000000006e8 .L38
     /tmp/ccnCQAdl.s:1009   .text:00000000000006f0 .L39
     /tmp/ccnCQAdl.s:1012   .text:00000000000006f8 .L40
GAS LISTING /tmp/ccnCQAdl.s 			page 41


     /tmp/ccnCQAdl.s:1015   .text:0000000000000700 .L41
     /tmp/ccnCQAdl.s:1018   .text:0000000000000708 .L42
     /tmp/ccnCQAdl.s:1021   .text:0000000000000710 .L43
     /tmp/ccnCQAdl.s:1024   .text:0000000000000718 .L44
     /tmp/ccnCQAdl.s:925    .text:0000000000000650 .L61
     /tmp/ccnCQAdl.s:938    .text:000000000000065c .L31
     /tmp/ccnCQAdl.s:878    .text:00000000000005e4 .L62
     /tmp/ccnCQAdl.s:953    .text:0000000000000674 .L32
     /tmp/ccnCQAdl.s:1028   .text:0000000000000720 .L33
     /tmp/ccnCQAdl.s:1049   .text:0000000000000734 .L36
     /tmp/ccnCQAdl.s:1088   .text:0000000000000764 .L63
     /tmp/ccnCQAdl.s:3311   .debug_abbrev:0000000000000000 .Ldebug_abbrev0
     /tmp/ccnCQAdl.s:5199   .debug_str:000000000000075c .LASF137
     /tmp/ccnCQAdl.s:5033   .debug_str:00000000000002eb .LASF138
     /tmp/ccnCQAdl.s:5153   .debug_str:000000000000060a .LASF139
     /tmp/ccnCQAdl.s:5      .text:0000000000000000 .Ltext0
     /tmp/ccnCQAdl.s:1152   .text:00000000000007c0 .Letext0
     /tmp/ccnCQAdl.s:4945   .debug_line:0000000000000000 .Ldebug_line0
     /tmp/ccnCQAdl.s:5107   .debug_str:00000000000004d0 .LASF0
     /tmp/ccnCQAdl.s:5127   .debug_str:0000000000000557 .LASF1
     /tmp/ccnCQAdl.s:5089   .debug_str:000000000000044a .LASF2
     /tmp/ccnCQAdl.s:5059   .debug_str:0000000000000391 .LASF4
     /tmp/ccnCQAdl.s:5177   .debug_str:00000000000006b0 .LASF3
     /tmp/ccnCQAdl.s:4983   .debug_str:000000000000014b .LASF5
     /tmp/ccnCQAdl.s:5131   .debug_str:000000000000057d .LASF6
     /tmp/ccnCQAdl.s:5105   .debug_str:00000000000004bd .LASF7
     /tmp/ccnCQAdl.s:5211   .debug_str:0000000000000863 .LASF8
     /tmp/ccnCQAdl.s:5037   .debug_str:000000000000030b .LASF9
     /tmp/ccnCQAdl.s:5147   .debug_str:00000000000005cb .LASF10
     /tmp/ccnCQAdl.s:5201   .debug_str:0000000000000820 .LASF11
     /tmp/ccnCQAdl.s:4985   .debug_str:0000000000000152 .LASF12
     /tmp/ccnCQAdl.s:4959   .debug_str:0000000000000087 .LASF13
     /tmp/ccnCQAdl.s:4999   .debug_str:00000000000001ec .LASF14
     /tmp/ccnCQAdl.s:5169   .debug_str:000000000000067a .LASF15
     /tmp/ccnCQAdl.s:5009   .debug_str:0000000000000229 .LASF16
     /tmp/ccnCQAdl.s:5205   .debug_str:0000000000000841 .LASF46
     /tmp/ccnCQAdl.s:5043   .debug_str:000000000000032e .LASF140
     /tmp/ccnCQAdl.s:5139   .debug_str:00000000000005a7 .LASF17
     /tmp/ccnCQAdl.s:5099   .debug_str:0000000000000478 .LASF18
     /tmp/ccnCQAdl.s:5145   .debug_str:00000000000005c5 .LASF19
     /tmp/ccnCQAdl.s:5097   .debug_str:000000000000046b .LASF20
     /tmp/ccnCQAdl.s:5079   .debug_str:0000000000000403 .LASF21
     /tmp/ccnCQAdl.s:5137   .debug_str:000000000000059b .LASF22
     /tmp/ccnCQAdl.s:5123   .debug_str:0000000000000531 .LASF23
     /tmp/ccnCQAdl.s:5195   .debug_str:0000000000000745 .LASF24
     /tmp/ccnCQAdl.s:5179   .debug_str:00000000000006c2 .LASF25
     /tmp/ccnCQAdl.s:5057   .debug_str:0000000000000385 .LASF26
     /tmp/ccnCQAdl.s:5025   .debug_str:00000000000002a9 .LASF27
     /tmp/ccnCQAdl.s:4949   .debug_str:0000000000000006 .LASF28
     /tmp/ccnCQAdl.s:5197   .debug_str:0000000000000750 .LASF29
     /tmp/ccnCQAdl.s:5015   .debug_str:000000000000025a .LASF31
     /tmp/ccnCQAdl.s:5143   .debug_str:00000000000005b9 .LASF33
     /tmp/ccnCQAdl.s:5163   .debug_str:0000000000000647 .LASF35
     /tmp/ccnCQAdl.s:5069   .debug_str:00000000000003b8 .LASF45
     /tmp/ccnCQAdl.s:4955   .debug_str:0000000000000041 .LASF47
     /tmp/ccnCQAdl.s:5161   .debug_str:0000000000000642 .LASF141
     /tmp/ccnCQAdl.s:5081   .debug_str:000000000000040f .LASF30
GAS LISTING /tmp/ccnCQAdl.s 			page 42


     /tmp/ccnCQAdl.s:4981   .debug_str:0000000000000139 .LASF32
     /tmp/ccnCQAdl.s:5243   .debug_str:000000000000095e .LASF58
     /tmp/ccnCQAdl.s:5109   .debug_str:00000000000004dd .LASF60
     /tmp/ccnCQAdl.s:5181   .debug_str:00000000000006d3 .LASF34
     /tmp/ccnCQAdl.s:4967   .debug_str:00000000000000be .LASF36
     /tmp/ccnCQAdl.s:4975   .debug_str:0000000000000121 .LASF37
     /tmp/ccnCQAdl.s:5063   .debug_str:00000000000003a3 .LASF38
     /tmp/ccnCQAdl.s:5119   .debug_str:0000000000000522 .LASF39
     /tmp/ccnCQAdl.s:5241   .debug_str:0000000000000952 .LASF40
     /tmp/ccnCQAdl.s:5121   .debug_str:0000000000000527 .LASF41
     /tmp/ccnCQAdl.s:5041   .debug_str:0000000000000328 .LASF42
     /tmp/ccnCQAdl.s:5219   .debug_str:0000000000000898 .LASF43
     /tmp/ccnCQAdl.s:5095   .debug_str:0000000000000466 .LASF44
     /tmp/ccnCQAdl.s:5151   .debug_str:00000000000005f3 .LASF48
     /tmp/ccnCQAdl.s:5165   .debug_str:0000000000000663 .LASF49
     /tmp/ccnCQAdl.s:5135   .debug_str:0000000000000596 .LASF50
     /tmp/ccnCQAdl.s:5071   .debug_str:00000000000003c5 .LASF51
     /tmp/ccnCQAdl.s:4961   .debug_str:0000000000000097 .LASF79
     /tmp/ccnCQAdl.s:5029   .debug_str:00000000000002bd .LASF81
     /tmp/ccnCQAdl.s:5019   .debug_str:0000000000000279 .LASF52
     /tmp/ccnCQAdl.s:5191   .debug_str:0000000000000727 .LASF53
     /tmp/ccnCQAdl.s:5183   .debug_str:00000000000006d8 .LASF54
     /tmp/ccnCQAdl.s:5113   .debug_str:000000000000050b .LASF55
     /tmp/ccnCQAdl.s:5027   .debug_str:00000000000002b8 .LASF56
     /tmp/ccnCQAdl.s:5141   .debug_str:00000000000005af .LASF57
     /tmp/ccnCQAdl.s:5051   .debug_str:000000000000035f .LASF68
     /tmp/ccnCQAdl.s:5155   .debug_str:000000000000061e .LASF59
     /tmp/ccnCQAdl.s:5103   .debug_str:000000000000049d .LASF61
     /tmp/ccnCQAdl.s:5065   .debug_str:00000000000003a8 .LASF62
     /tmp/ccnCQAdl.s:4995   .debug_str:00000000000001b7 .LASF63
     /tmp/ccnCQAdl.s:5101   .debug_str:0000000000000482 .LASF142
     /tmp/ccnCQAdl.s:4979   .debug_str:000000000000012e .LASF64
     /tmp/ccnCQAdl.s:5189   .debug_str:000000000000070b .LASF65
     /tmp/ccnCQAdl.s:5133   .debug_str:0000000000000590 .LASF66
     /tmp/ccnCQAdl.s:5087   .debug_str:0000000000000438 .LASF73
     /tmp/ccnCQAdl.s:5093   .debug_str:000000000000045d .LASF67
     /tmp/ccnCQAdl.s:5035   .debug_str:00000000000002f8 .LASF69
     /tmp/ccnCQAdl.s:5187   .debug_str:0000000000000702 .LASF72
     /tmp/ccnCQAdl.s:5193   .debug_str:0000000000000740 .LASF70
     /tmp/ccnCQAdl.s:5229   .debug_str:00000000000008d0 .LASF71
     /tmp/ccnCQAdl.s:4953   .debug_str:0000000000000024 .LASF74
     /tmp/ccnCQAdl.s:5227   .debug_str:00000000000008c6 .LASF75
     /tmp/ccnCQAdl.s:5055   .debug_str:000000000000037b .LASF76
     /tmp/ccnCQAdl.s:5085   .debug_str:000000000000041a .LASF77
     /tmp/ccnCQAdl.s:5213   .debug_str:0000000000000873 .LASF78
     /tmp/ccnCQAdl.s:5225   .debug_str:00000000000008bd .LASF80
     /tmp/ccnCQAdl.s:4993   .debug_str:000000000000019f .LASF82
     /tmp/ccnCQAdl.s:5067   .debug_str:00000000000003b0 .LASF83
     /tmp/ccnCQAdl.s:5047   .debug_str:0000000000000339 .LASF84
     /tmp/ccnCQAdl.s:5207   .debug_str:0000000000000848 .LASF85
     /tmp/ccnCQAdl.s:4957   .debug_str:0000000000000066 .LASF86
     /tmp/ccnCQAdl.s:5233   .debug_str:00000000000008f4 .LASF87
     /tmp/ccnCQAdl.s:5235   .debug_str:0000000000000907 .LASF88
     /tmp/ccnCQAdl.s:5075   .debug_str:00000000000003ed .LASF89
     /tmp/ccnCQAdl.s:5125   .debug_str:0000000000000546 .LASF90
     /tmp/ccnCQAdl.s:5045   .debug_str:0000000000000334 .LASF91
     /tmp/ccnCQAdl.s:5053   .debug_str:0000000000000373 .LASF92
GAS LISTING /tmp/ccnCQAdl.s 			page 43


     /tmp/ccnCQAdl.s:5203   .debug_str:000000000000082f .LASF93
     /tmp/ccnCQAdl.s:5049   .debug_str:0000000000000351 .LASF94
     /tmp/ccnCQAdl.s:5011   .debug_str:000000000000023f .LASF95
     /tmp/ccnCQAdl.s:5215   .debug_str:000000000000087e .LASF96
     /tmp/ccnCQAdl.s:5039   .debug_str:0000000000000319 .LASF97
     /tmp/ccnCQAdl.s:4991   .debug_str:000000000000019a .LASF98
     /tmp/ccnCQAdl.s:5129   .debug_str:000000000000056a .LASF99
     /tmp/ccnCQAdl.s:5017   .debug_str:0000000000000274 .LASF100
     /tmp/ccnCQAdl.s:5111   .debug_str:00000000000004f8 .LASF101
     /tmp/ccnCQAdl.s:5223   .debug_str:00000000000008ae .LASF102
     /tmp/ccnCQAdl.s:4971   .debug_str:00000000000000e7 .LASF103
     /tmp/ccnCQAdl.s:5171   .debug_str:0000000000000690 .LASF104
     /tmp/ccnCQAdl.s:4977   .debug_str:0000000000000127 .LASF105
     /tmp/ccnCQAdl.s:4989   .debug_str:0000000000000180 .LASF106
     /tmp/ccnCQAdl.s:5231   .debug_str:00000000000008d5 .LASF107
     /tmp/ccnCQAdl.s:342    .text:00000000000001f8 .LFB21
     /tmp/ccnCQAdl.s:1128   .text:00000000000007c0 .LFE21
     /tmp/ccnCQAdl.s:4963   .debug_str:00000000000000a2 .LASF108
     /tmp/ccnCQAdl.s:4391   .debug_loc:0000000000000000 .LLST7
     /tmp/ccnCQAdl.s:5083   .debug_str:0000000000000414 .LASF109
     /tmp/ccnCQAdl.s:4402   .debug_loc:0000000000000036 .LLST8
     /tmp/ccnCQAdl.s:5117   .debug_str:000000000000051d .LASF110
     /tmp/ccnCQAdl.s:4425   .debug_loc:00000000000000a5 .LLST9
     /tmp/ccnCQAdl.s:5001   .debug_str:00000000000001f8 .LASF111
     /tmp/ccnCQAdl.s:4436   .debug_loc:00000000000000db .LLST10
     /tmp/ccnCQAdl.s:5003   .debug_str:0000000000000203 .LASF112
     /tmp/ccnCQAdl.s:4447   .debug_loc:0000000000000111 .LLST11
     /tmp/ccnCQAdl.s:5005   .debug_str:000000000000020e .LASF113
     /tmp/ccnCQAdl.s:4458   .debug_loc:0000000000000147 .LLST12
     /tmp/ccnCQAdl.s:5031   .debug_str:00000000000002d6 .LASF114
     /tmp/ccnCQAdl.s:4469   .debug_loc:000000000000017d .LLST13
     /tmp/ccnCQAdl.s:4965   .debug_str:00000000000000a9 .LASF115
     /tmp/ccnCQAdl.s:4480   .debug_loc:00000000000001b3 .LLST14
     /tmp/ccnCQAdl.s:5237   .debug_str:000000000000092a .LASF116
     /tmp/ccnCQAdl.s:4507   .debug_loc:0000000000000208 .LLST15
     /tmp/ccnCQAdl.s:5021   .debug_str:0000000000000284 .LASF117
     /tmp/ccnCQAdl.s:4534   .debug_loc:000000000000025d .LLST16
     /tmp/ccnCQAdl.s:844    .text:00000000000005a4 .LBB78
     /tmp/ccnCQAdl.s:918    .text:0000000000000640 .LBE78
     /tmp/ccnCQAdl.s:5023   .debug_str:000000000000029c .LASF118
     /tmp/ccnCQAdl.s:851    .text:00000000000005b4 .LBB79
     /tmp/ccnCQAdl.s:4919   .debug_ranges:0000000000000000 .Ldebug_ranges0
     /tmp/ccnCQAdl.s:4549   .debug_loc:00000000000002a6 .LLST23
     /tmp/ccnCQAdl.s:4564   .debug_loc:00000000000002e0 .LLST24
     /tmp/ccnCQAdl.s:4579   .debug_loc:0000000000000328 .LLST25
     /tmp/ccnCQAdl.s:886    .text:00000000000005f4 .LVL99
     /tmp/ccnCQAdl.s:891    .text:0000000000000604 .LVL100
     /tmp/ccnCQAdl.s:896    .text:0000000000000614 .LVL101
     /tmp/ccnCQAdl.s:901    .text:0000000000000620 .LVL102
     /tmp/ccnCQAdl.s:906    .text:0000000000000630 .LVL103
     /tmp/ccnCQAdl.s:910    .text:0000000000000638 .LVL104
     /tmp/ccnCQAdl.s:914    .text:0000000000000640 .LVL105
     /tmp/ccnCQAdl.s:848    .text:00000000000005ac .LVL90
     /tmp/ccnCQAdl.s:862    .text:00000000000005c0 .LVL93
     /tmp/ccnCQAdl.s:869    .text:00000000000005d0 .LVL94
     /tmp/ccnCQAdl.s:871    .text:00000000000005d8 .LVL95
     /tmp/ccnCQAdl.s:875    .text:00000000000005e0 .LVL96
GAS LISTING /tmp/ccnCQAdl.s 			page 44


     /tmp/ccnCQAdl.s:420    .text:000000000000025c .LBB66
     /tmp/ccnCQAdl.s:4604   .debug_loc:000000000000036c .LLST17
     /tmp/ccnCQAdl.s:4619   .debug_loc:00000000000003a6 .LLST18
     /tmp/ccnCQAdl.s:4634   .debug_loc:00000000000003ee .LLST19
     /tmp/ccnCQAdl.s:582    .text:000000000000033c .LVL53
     /tmp/ccnCQAdl.s:587    .text:000000000000034c .LVL54
     /tmp/ccnCQAdl.s:592    .text:000000000000035c .LVL55
     /tmp/ccnCQAdl.s:597    .text:0000000000000368 .LVL56
     /tmp/ccnCQAdl.s:602    .text:0000000000000378 .LVL57
     /tmp/ccnCQAdl.s:606    .text:0000000000000380 .LVL58
     /tmp/ccnCQAdl.s:610    .text:0000000000000388 .LVL59
     /tmp/ccnCQAdl.s:529    .text:00000000000002d0 .LBB76
     /tmp/ccnCQAdl.s:567    .text:000000000000032c .LBE76
     /tmp/ccnCQAdl.s:4653   .debug_loc:000000000000042c .LLST20
     /tmp/ccnCQAdl.s:4662   .debug_loc:0000000000000451 .LLST21
     /tmp/ccnCQAdl.s:4671   .debug_loc:000000000000047d .LLST22
     /tmp/ccnCQAdl.s:536    .text:00000000000002e0 .LVL45
     /tmp/ccnCQAdl.s:541    .text:00000000000002f0 .LVL46
     /tmp/ccnCQAdl.s:546    .text:0000000000000300 .LVL47
     /tmp/ccnCQAdl.s:551    .text:000000000000030c .LVL48
     /tmp/ccnCQAdl.s:556    .text:000000000000031c .LVL49
     /tmp/ccnCQAdl.s:560    .text:0000000000000324 .LVL50
     /tmp/ccnCQAdl.s:564    .text:000000000000032c .LVL51
     /tmp/ccnCQAdl.s:634    .text:00000000000003c0 .LBB111
     /tmp/ccnCQAdl.s:672    .text:000000000000041c .LBE111
     /tmp/ccnCQAdl.s:4679   .debug_loc:00000000000004a1 .LLST26
     /tmp/ccnCQAdl.s:4688   .debug_loc:00000000000004c6 .LLST27
     /tmp/ccnCQAdl.s:4697   .debug_loc:00000000000004f2 .LLST28
     /tmp/ccnCQAdl.s:641    .text:00000000000003d0 .LVL62
     /tmp/ccnCQAdl.s:646    .text:00000000000003e0 .LVL63
     /tmp/ccnCQAdl.s:651    .text:00000000000003f0 .LVL64
     /tmp/ccnCQAdl.s:656    .text:00000000000003fc .LVL65
     /tmp/ccnCQAdl.s:661    .text:000000000000040c .LVL66
     /tmp/ccnCQAdl.s:665    .text:0000000000000414 .LVL67
     /tmp/ccnCQAdl.s:669    .text:000000000000041c .LVL68
     /tmp/ccnCQAdl.s:707    .text:0000000000000474 .LBB113
     /tmp/ccnCQAdl.s:745    .text:00000000000004d0 .LBE113
     /tmp/ccnCQAdl.s:4705   .debug_loc:0000000000000516 .LLST29
     /tmp/ccnCQAdl.s:4714   .debug_loc:000000000000053b .LLST30
     /tmp/ccnCQAdl.s:4723   .debug_loc:0000000000000567 .LLST31
     /tmp/ccnCQAdl.s:714    .text:0000000000000484 .LVL75
     /tmp/ccnCQAdl.s:719    .text:0000000000000494 .LVL76
     /tmp/ccnCQAdl.s:724    .text:00000000000004a4 .LVL77
     /tmp/ccnCQAdl.s:729    .text:00000000000004b0 .LVL78
     /tmp/ccnCQAdl.s:734    .text:00000000000004c0 .LVL79
     /tmp/ccnCQAdl.s:738    .text:00000000000004c8 .LVL80
     /tmp/ccnCQAdl.s:742    .text:00000000000004d0 .LVL81
     /tmp/ccnCQAdl.s:967    .text:000000000000068c .LBB117
     /tmp/ccnCQAdl.s:1005   .text:00000000000006e8 .LBE117
     /tmp/ccnCQAdl.s:4731   .debug_loc:000000000000058b .LLST32
     /tmp/ccnCQAdl.s:4740   .debug_loc:00000000000005b0 .LLST33
     /tmp/ccnCQAdl.s:4749   .debug_loc:00000000000005dc .LLST34
     /tmp/ccnCQAdl.s:974    .text:000000000000069c .LVL110
     /tmp/ccnCQAdl.s:979    .text:00000000000006ac .LVL111
     /tmp/ccnCQAdl.s:984    .text:00000000000006bc .LVL112
     /tmp/ccnCQAdl.s:989    .text:00000000000006c8 .LVL113
     /tmp/ccnCQAdl.s:994    .text:00000000000006d8 .LVL114
GAS LISTING /tmp/ccnCQAdl.s 			page 45


     /tmp/ccnCQAdl.s:998    .text:00000000000006e0 .LVL115
     /tmp/ccnCQAdl.s:1002   .text:00000000000006e8 .LVL116
     /tmp/ccnCQAdl.s:1033   .text:0000000000000728 .LBB119
     /tmp/ccnCQAdl.s:4757   .debug_loc:0000000000000600 .LLST35
     /tmp/ccnCQAdl.s:4772   .debug_loc:000000000000063a .LLST36
     /tmp/ccnCQAdl.s:4787   .debug_loc:0000000000000682 .LLST37
     /tmp/ccnCQAdl.s:1096   .text:0000000000000774 .LVL127
     /tmp/ccnCQAdl.s:1101   .text:0000000000000784 .LVL128
     /tmp/ccnCQAdl.s:1106   .text:0000000000000794 .LVL129
     /tmp/ccnCQAdl.s:1111   .text:00000000000007a0 .LVL130
     /tmp/ccnCQAdl.s:1116   .text:00000000000007b0 .LVL131
     /tmp/ccnCQAdl.s:1120   .text:00000000000007b8 .LVL132
     /tmp/ccnCQAdl.s:1124   .text:00000000000007c0 .LVL133
     /tmp/ccnCQAdl.s:414    .text:0000000000000248 .LVL40
     /tmp/ccnCQAdl.s:618    .text:0000000000000398 .LVL60
     /tmp/ccnCQAdl.s:632    .text:00000000000003c0 .LVL61
     /tmp/ccnCQAdl.s:677    .text:000000000000042c .LVL69
     /tmp/ccnCQAdl.s:684    .text:0000000000000440 .LVL70
     /tmp/ccnCQAdl.s:691    .text:0000000000000454 .LVL71
     /tmp/ccnCQAdl.s:696    .text:000000000000045c .LVL72
     /tmp/ccnCQAdl.s:701    .text:000000000000046c .LVL73
     /tmp/ccnCQAdl.s:705    .text:0000000000000474 .LVL74
     /tmp/ccnCQAdl.s:750    .text:00000000000004d8 .LVL82
     /tmp/ccnCQAdl.s:753    .text:00000000000004e4 .LVL83
     /tmp/ccnCQAdl.s:797    .text:0000000000000544 .LVL84
     /tmp/ccnCQAdl.s:800    .text:0000000000000550 .LVL85
     /tmp/ccnCQAdl.s:810    .text:0000000000000564 .LVL86
     /tmp/ccnCQAdl.s:819    .text:0000000000000574 .LVL87
     /tmp/ccnCQAdl.s:829    .text:000000000000058c .LVL88
     /tmp/ccnCQAdl.s:838    .text:000000000000059c .LVL89
     /tmp/ccnCQAdl.s:923    .text:000000000000064c .LVL106
     /tmp/ccnCQAdl.s:4969   .debug_str:00000000000000d0 .LASF119
     /tmp/ccnCQAdl.s:4973   .debug_str:0000000000000105 .LASF120
     /tmp/ccnCQAdl.s:116    .text:0000000000000094 .LFB20
     /tmp/ccnCQAdl.s:316    .text:00000000000001f8 .LFE20
     /tmp/ccnCQAdl.s:4806   .debug_loc:00000000000006c0 .LLST1
     /tmp/ccnCQAdl.s:4817   .debug_loc:00000000000006f6 .LLST2
     /tmp/ccnCQAdl.s:156    .text:00000000000000cc .LBB27
     /tmp/ccnCQAdl.s:4828   .debug_loc:000000000000072c .LLST3
     /tmp/ccnCQAdl.s:4843   .debug_loc:0000000000000766 .LLST4
     /tmp/ccnCQAdl.s:4858   .debug_loc:00000000000007ae .LLST5
     /tmp/ccnCQAdl.s:213    .text:0000000000000134 .LVL19
     /tmp/ccnCQAdl.s:218    .text:0000000000000144 .LVL20
     /tmp/ccnCQAdl.s:223    .text:0000000000000154 .LVL21
     /tmp/ccnCQAdl.s:228    .text:0000000000000160 .LVL22
     /tmp/ccnCQAdl.s:233    .text:0000000000000170 .LVL23
     /tmp/ccnCQAdl.s:237    .text:0000000000000178 .LVL24
     /tmp/ccnCQAdl.s:241    .text:0000000000000180 .LVL25
     /tmp/ccnCQAdl.s:172    .text:00000000000000e4 .LBB30
     /tmp/ccnCQAdl.s:198    .text:0000000000000110 .LBE30
     /tmp/ccnCQAdl.s:180    .text:00000000000000f0 .LBB32
     /tmp/ccnCQAdl.s:191    .text:0000000000000104 .LBE32
     /tmp/ccnCQAdl.s:4883   .debug_loc:00000000000007f2 .LLST6
     /tmp/ccnCQAdl.s:277    .text:000000000000019c .LBB36
     /tmp/ccnCQAdl.s:314    .text:00000000000001f8 .LBE36
     /tmp/ccnCQAdl.s:284    .text:00000000000001ac .LVL28
     /tmp/ccnCQAdl.s:289    .text:00000000000001bc .LVL29
GAS LISTING /tmp/ccnCQAdl.s 			page 46


     /tmp/ccnCQAdl.s:294    .text:00000000000001cc .LVL30
     /tmp/ccnCQAdl.s:299    .text:00000000000001d8 .LVL31
     /tmp/ccnCQAdl.s:304    .text:00000000000001e8 .LVL32
     /tmp/ccnCQAdl.s:308    .text:00000000000001f0 .LVL33
     /tmp/ccnCQAdl.s:312    .text:00000000000001f8 .LVL34
     /tmp/ccnCQAdl.s:151    .text:00000000000000bc .LVL11
     /tmp/ccnCQAdl.s:202    .text:0000000000000120 .LVL16
     /tmp/ccnCQAdl.s:5149   .debug_str:00000000000005da .LASF121
     /tmp/ccnCQAdl.s:4987   .debug_str:0000000000000162 .LASF122
     /tmp/ccnCQAdl.s:57     .text:0000000000000028 .LFB19
     /tmp/ccnCQAdl.s:110    .text:0000000000000094 .LFE19
     /tmp/ccnCQAdl.s:70     .text:0000000000000038 .LBB16
     /tmp/ccnCQAdl.s:108    .text:0000000000000094 .LBE16
     /tmp/ccnCQAdl.s:78     .text:0000000000000048 .LVL3
     /tmp/ccnCQAdl.s:83     .text:0000000000000058 .LVL4
     /tmp/ccnCQAdl.s:88     .text:0000000000000068 .LVL5
     /tmp/ccnCQAdl.s:93     .text:0000000000000074 .LVL6
     /tmp/ccnCQAdl.s:98     .text:0000000000000084 .LVL7
     /tmp/ccnCQAdl.s:102    .text:000000000000008c .LVL8
     /tmp/ccnCQAdl.s:106    .text:0000000000000094 .LVL9
     /tmp/ccnCQAdl.s:5221   .debug_str:00000000000008a5 .LASF143
     /tmp/ccnCQAdl.s:5013   .debug_str:000000000000024d .LASF144
     /tmp/ccnCQAdl.s:10     .text:0000000000000000 .LFB18
     /tmp/ccnCQAdl.s:37     .text:0000000000000028 .LFE18
     /tmp/ccnCQAdl.s:4892   .debug_loc:000000000000081e .LLST0
     /tmp/ccnCQAdl.s:26     .text:0000000000000018 .LVL1
     /tmp/ccnCQAdl.s:5157   .debug_str:000000000000062d .LASF145
     /tmp/ccnCQAdl.s:5217   .debug_str:0000000000000888 .LASF146
     /tmp/ccnCQAdl.s:5115   .debug_str:0000000000000514 .LASF147
     /tmp/ccnCQAdl.s:4997   .debug_str:00000000000001cf .LASF148
     /tmp/ccnCQAdl.s:5167   .debug_str:0000000000000672 .LASF123
     /tmp/ccnCQAdl.s:5007   .debug_str:0000000000000219 .LASF124
     /tmp/ccnCQAdl.s:4947   .debug_str:0000000000000000 .LASF125
     /tmp/ccnCQAdl.s:5091   .debug_str:0000000000000458 .LASF126
     /tmp/ccnCQAdl.s:5173   .debug_str:00000000000006a0 .LASF127
     /tmp/ccnCQAdl.s:5239   .debug_str:0000000000000942 .LASF128
     /tmp/ccnCQAdl.s:5209   .debug_str:0000000000000859 .LASF130
     /tmp/ccnCQAdl.s:5061   .debug_str:0000000000000398 .LASF129
     /tmp/ccnCQAdl.s:4951   .debug_str:000000000000001d .LASF131
     /tmp/ccnCQAdl.s:5185   .debug_str:00000000000006f2 .LASF132
     /tmp/ccnCQAdl.s:5175   .debug_str:00000000000006a5 .LASF133
     /tmp/ccnCQAdl.s:5159   .debug_str:0000000000000632 .LASF134
     /tmp/ccnCQAdl.s:5073   .debug_str:00000000000003e2 .LASF135
     /tmp/ccnCQAdl.s:5077   .debug_str:00000000000003fb .LASF136
     /tmp/ccnCQAdl.s:374    .text:0000000000000228 .LVL35
     /tmp/ccnCQAdl.s:440    .text:0000000000000270 .LVL43
     /tmp/ccnCQAdl.s:1071   .text:000000000000074c .LVL121
     /tmp/ccnCQAdl.s:1087   .text:0000000000000764 .LVL126
     /tmp/ccnCQAdl.s:387    .text:0000000000000230 .LVL36
     /tmp/ccnCQAdl.s:1066   .text:0000000000000744 .LVL120
     /tmp/ccnCQAdl.s:393    .text:0000000000000234 .LVL37
     /tmp/ccnCQAdl.s:1074   .text:0000000000000750 .LVL122
     /tmp/ccnCQAdl.s:399    .text:0000000000000238 .LVL38
     /tmp/ccnCQAdl.s:1077   .text:0000000000000754 .LVL123
     /tmp/ccnCQAdl.s:405    .text:000000000000023c .LVL39
     /tmp/ccnCQAdl.s:1080   .text:0000000000000758 .LVL124
     /tmp/ccnCQAdl.s:939    .text:000000000000065c .LVL107
GAS LISTING /tmp/ccnCQAdl.s 			page 47


     /tmp/ccnCQAdl.s:1027   .text:0000000000000720 .LVL117
     /tmp/ccnCQAdl.s:954    .text:0000000000000674 .LVL108
     /tmp/ccnCQAdl.s:1083   .text:000000000000075c .LVL125
     /tmp/ccnCQAdl.s:850    .text:00000000000005b4 .LVL91
     /tmp/ccnCQAdl.s:856    .text:00000000000005b8 .LVL92
     /tmp/ccnCQAdl.s:877    .text:00000000000005e4 .LVL97
     /tmp/ccnCQAdl.s:884    .text:00000000000005ec .LVL98
     /tmp/ccnCQAdl.s:419    .text:000000000000025c .LVL41
     /tmp/ccnCQAdl.s:427    .text:0000000000000268 .LVL42
     /tmp/ccnCQAdl.s:580    .text:0000000000000334 .LVL52
     /tmp/ccnCQAdl.s:528    .text:00000000000002d0 .LVL44
     /tmp/ccnCQAdl.s:966    .text:000000000000068c .LVL109
     /tmp/ccnCQAdl.s:1032   .text:0000000000000728 .LVL118
     /tmp/ccnCQAdl.s:1038   .text:000000000000072c .LVL119
     /tmp/ccnCQAdl.s:141    .text:00000000000000b0 .LVL10
     /tmp/ccnCQAdl.s:161    .text:00000000000000d4 .LVL13
     /tmp/ccnCQAdl.s:204    .text:0000000000000124 .LVL17
     /tmp/ccnCQAdl.s:269    .text:0000000000000194 .LVL26
     /tmp/ccnCQAdl.s:273    .text:000000000000019c .LVL27
     /tmp/ccnCQAdl.s:155    .text:00000000000000cc .LVL12
     /tmp/ccnCQAdl.s:211    .text:000000000000012c .LVL18
     /tmp/ccnCQAdl.s:179    .text:00000000000000f0 .LVL14
     /tmp/ccnCQAdl.s:188    .text:0000000000000104 .LVL15
     /tmp/ccnCQAdl.s:14     .text:0000000000000000 .LVL0
     /tmp/ccnCQAdl.s:1159   .debug_info:0000000000000000 .Ldebug_info0
     /tmp/ccnCQAdl.s:164    .text:00000000000000d4 .LBE27
     /tmp/ccnCQAdl.s:206    .text:0000000000000124 .LBB35
     /tmp/ccnCQAdl.s:244    .text:0000000000000180 .LBE35
     /tmp/ccnCQAdl.s:429    .text:0000000000000268 .LBE66
     /tmp/ccnCQAdl.s:575    .text:000000000000032c .LBB110
     /tmp/ccnCQAdl.s:613    .text:0000000000000388 .LBE110
     /tmp/ccnCQAdl.s:858    .text:00000000000005b8 .LBE79
     /tmp/ccnCQAdl.s:879    .text:00000000000005e4 .LBB82
     /tmp/ccnCQAdl.s:917    .text:0000000000000640 .LBE82
     /tmp/ccnCQAdl.s:1040   .text:000000000000072c .LBE119
     /tmp/ccnCQAdl.s:1090   .text:0000000000000764 .LBB122
     /tmp/ccnCQAdl.s:1126   .text:00000000000007c0 .LBE122

UNDEFINED SYMBOLS
_Z3fibm
_Z9putStringPKc
_Z6putInti
_Z10putNewlinev
_Z10stopKernelv
_ZN6Thread11getPRunningEv
_ZN6Thread10pRunningSpE
_ZN7Console14consoleHandlerEv
_ZN8MemAlloc3getEv
_ZN8MemAlloc8allocMemEm
_ZN8MemAlloc7freeMemEPv
_ZN6Thread12switchToUserEv
_ZN6Thread12createThreadEPmPFvPvES1_
_ZN6Thread4exitEv
kernelThread
_ZN9Scheduler3putEP6Thread
_ZN9Scheduler14dispatchToNextEv
_ZN6Thread4joinEm
GAS LISTING /tmp/ccnCQAdl.s 			page 48


