GAS LISTING /tmp/cckyFdlr.s 			page 1


   1              		.file	"trap.cpp"
   2              		.option pic
   3              		.option norelax
   4              		.text
   5              	.Ltext0:
   6              		.align	2
   7              		.globl	_Z8testCallm
   9              	_Z8testCallm:
  10              	.LFB15:
  11              		.file 1 "src/trap.cpp"
   1:src/trap.cpp  **** #include "../h/trap.h"
   2:src/trap.cpp  **** #include "../h/thread.h"
   3:src/trap.cpp  **** #include "../h/scheduler.h"
   4:src/trap.cpp  **** 
   5:src/trap.cpp  **** int gTimer = 0;
   6:src/trap.cpp  **** 
   7:src/trap.cpp  **** uint64 fib(uint64 n);
   8:src/trap.cpp  **** 
   9:src/trap.cpp  **** uint64 testCall(uint64 n)
  10:src/trap.cpp  **** {
  12              		.loc 1 10 1
  13              		.cfi_startproc
  14              	.LVL0:
  15 0000 130101FF 		addi	sp,sp,-16
  16              		.cfi_def_cfa_offset 16
  17 0004 23341100 		sd	ra,8(sp)
  18 0008 23308100 		sd	s0,0(sp)
  19              		.cfi_offset 1, -8
  20              		.cfi_offset 8, -16
  21 000c 13040101 		addi	s0,sp,16
  22              		.cfi_def_cfa 8, 0
  11:src/trap.cpp  ****     return fib(n);
  23              		.loc 1 11 5
  24              		.loc 1 11 15 is_stmt 0
  25 0010 97000000 		call	_Z3fibm@plt
  25      E7800000 
  26              	.LVL1:
  12:src/trap.cpp  **** }
  27              		.loc 1 12 1
  28 0018 83308100 		ld	ra,8(sp)
  29              		.cfi_restore 1
  30 001c 03340100 		ld	s0,0(sp)
  31              		.cfi_restore 8
  32              		.cfi_def_cfa 2, 16
  33 0020 13010101 		addi	sp,sp,16
  34              		.cfi_def_cfa_offset 0
  35 0024 67800000 		jr	ra
  36              		.cfi_endproc
  37              	.LFE15:
  39              		.section	.rodata.str1.8,"aMS",@progbits,1
  40              		.align	3
  41              	.LC0:
  42 0000 3D3D3D3D 		.string	"===================== ASSERT file: "
  42      3D3D3D3D 
  42      3D3D3D3D 
  42      3D3D3D3D 
  42      3D3D3D3D 
GAS LISTING /tmp/cckyFdlr.s 			page 2


  43 0024 00000000 		.align	3
  44              	.LC1:
  45 0028 7372632F 		.string	"src/trap.cpp"
  45      74726170 
  45      2E637070 
  45      00
  46 0035 000000   		.align	3
  47              	.LC2:
  48 0038 20202020 		.string	"    line: "
  48      6C696E65 
  48      3A2000
  49 0043 00000000 		.align	3
  49      00
  50              	.LC3:
  51 0048 2020203D 		.string	"   ==========================="
  51      3D3D3D3D 
  51      3D3D3D3D 
  51      3D3D3D3D 
  51      3D3D3D3D 
  52 0067 00       		.align	3
  53              	.LC4:
  54 0068 54696D65 		.string	"Time: "
  54      3A2000
  55 006f 00       		.align	3
  56              	.LC5:
  57 0070 7300     		.string	"s"
  58 0072 00000000 		.align	3
  58      0000
  59              	.LC6:
  60 0078 3D3D3D20 		.string	"=== Error: unknown external interrupt"
  60      4572726F 
  60      723A2075 
  60      6E6B6E6F 
  60      776E2065 
  61              		.text
  62              		.align	2
  63              		.globl	_Z25cExternalInterruptRoutinev
  65              	_Z25cExternalInterruptRoutinev:
  66              	.LFB16:
  13:src/trap.cpp  **** /*
  14:src/trap.cpp  ****    const int N = 1;
  15:src/trap.cpp  ****     int a, b;
  16:src/trap.cpp  ****     a = b = N*37;
  17:src/trap.cpp  ****     while(a < N*39)
  18:src/trap.cpp  ****     {
  19:src/trap.cpp  ****         a++;
  20:src/trap.cpp  ****         b++;
  21:src/trap.cpp  ****         assert(a == b);
  22:src/trap.cpp  **** 
  23:src/trap.cpp  ****         if(a % N == 0) {
  24:src/trap.cpp  ****             int out = fib(a/N);
  25:src/trap.cpp  **** //            putString("fib(");
  26:src/trap.cpp  **** //            putInt(a/N);
  27:src/trap.cpp  **** //            putString(") = ");
  28:src/trap.cpp  **** //            putInt(out);
  29:src/trap.cpp  **** //            putNewline();
  30:src/trap.cpp  **** 
GAS LISTING /tmp/cckyFdlr.s 			page 3


  31:src/trap.cpp  ****             if(a/N == 38)
  32:src/trap.cpp  ****             {
  33:src/trap.cpp  ****                 assert(out == 39088169);
  34:src/trap.cpp  ****             }
  35:src/trap.cpp  **** 
  36:src/trap.cpp  **** //            putString("ret= ");
  37:src/trap.cpp  **** //            putU64(ret);
  38:src/trap.cpp  **** //            putNewline();
  39:src/trap.cpp  **** //            putNewline();
  40:src/trap.cpp  **** 
  41:src/trap.cpp  ****         }
  42:src/trap.cpp  ****     }
  43:src/trap.cpp  ****     return fib(a / N);
  44:src/trap.cpp  **** //    return n * 2;
  45:src/trap.cpp  ****  */
  46:src/trap.cpp  **** 
  47:src/trap.cpp  **** void cExternalInterruptRoutine()
  48:src/trap.cpp  **** {
  67              		.loc 1 48 1 is_stmt 1
  68              		.cfi_startproc
  69 0028 130101FF 		addi	sp,sp,-16
  70              		.cfi_def_cfa_offset 16
  71 002c 23341100 		sd	ra,8(sp)
  72 0030 23308100 		sd	s0,0(sp)
  73              		.cfi_offset 1, -8
  74              		.cfi_offset 8, -16
  75 0034 13040101 		addi	s0,sp,16
  76              		.cfi_def_cfa 8, 0
  49:src/trap.cpp  ****     uint64 scause;
  77              		.loc 1 49 5
  50:src/trap.cpp  ****     __asm__ volatile ("csrr %[name], scause" : [name] "=r"(scause));
  78              		.loc 1 50 5
  79              		.loc 1 50 68 is_stmt 0
  80              	#APP
  81              	# 50 "src/trap.cpp" 1
  51              	
  82              		csrr a5, scause
  83              	# 0 "" 2
  84              	.LVL2:
  52:src/trap.cpp  ****     int isExternal = (scause & (0x1UL << 63)) != 0;
  85              		.loc 1 52 5 is_stmt 1
  53:src/trap.cpp  ****     int cause = scause & (~(1UL << 63));
  86              		.loc 1 53 5
  54:src/trap.cpp  **** 
  55:src/trap.cpp  ****     assert(isExternal == 1);
  87              		.loc 1 55 5
  88              	#NO_APP
  89              	.LBB12:
  90              	.LBB13:
  91              		.file 2 "src/../h/../h/../h/my_console.h"
   1:src/../h/../h/../h/my_console.h **** #pragma once
   2:src/../h/../h/../h/my_console.h **** 
   3:src/../h/../h/../h/my_console.h **** #include "../h/risc.h"
   4:src/../h/../h/../h/my_console.h **** 
   5:src/../h/../h/../h/my_console.h **** #include "../lib/console.h"
   6:src/../h/../h/../h/my_console.h **** #include "../lib/hw.h"
   7:src/../h/../h/../h/my_console.h **** 
GAS LISTING /tmp/cckyFdlr.s 			page 4


   8:src/../h/../h/../h/my_console.h **** #define __DEBUG_MODE
   9:src/../h/../h/../h/my_console.h **** 
  10:src/../h/../h/../h/my_console.h **** 
  11:src/../h/../h/../h/my_console.h **** void putString(const char* s);
  12:src/../h/../h/../h/my_console.h **** void putInt(int n);
  13:src/../h/../h/../h/my_console.h **** void putNewline();
  14:src/../h/../h/../h/my_console.h **** void putU64(uint64 n);
  15:src/../h/../h/../h/my_console.h **** void putBinary(uint64 n);
  16:src/../h/../h/../h/my_console.h **** 
  17:src/../h/../h/../h/my_console.h **** [[noreturn]] void stopKernel();
  18:src/../h/../h/../h/my_console.h **** 
  19:src/../h/../h/../h/my_console.h **** inline void _assert(bool valid, const char* file, int line) // MUST be inline
  20:src/../h/../h/../h/my_console.h **** {
  21:src/../h/../h/../h/my_console.h ****     if(valid)
  92              		.loc 2 21 5
  93 003c 63D40708 		bgez	a5,.L10
  94 0040 9B860700 		sext.w	a3,a5
  22:src/../h/../h/../h/my_console.h ****         return;
  95              		.loc 2 22 9
  96              	.LVL3:
  97              	.LBE13:
  98              	.LBE12:
  56:src/trap.cpp  **** 
  57:src/trap.cpp  ****     __asm__ volatile ("csrc sip, 0xA"); // clears the 9th bit in register sip. (the bit signifies e
  99              		.loc 1 57 5
 100              		.loc 1 57 39 is_stmt 0
 101              	#APP
 102              	# 57 "src/trap.cpp" 1
  58              	
  59:src/trap.cpp  ****     if(&(Thread::getPRunning()->context[0]) != Thread::pRunningContext)
 103              		csrc sip, 0xA
 104              	# 0 "" 2
 105              		.loc 1 59 5 is_stmt 1
 106              	#NO_APP
 107              	.LBB15:
 108              	.LBB16:
 109              		.file 3 "src/../h/thread.h"
   1:src/../h/thread.h **** #pragma once
   2:src/../h/thread.h **** 
   3:src/../h/thread.h **** #include "../lib/hw.h"
   4:src/../h/thread.h **** #include "../h/my_console.h"
   5:src/../h/thread.h **** #include "../h/c_api.h"
   6:src/../h/thread.h **** #include "../h/cpp_api.h"
   7:src/../h/thread.h **** 
   8:src/../h/thread.h **** #define NR_MAX_THREADS 10
   9:src/../h/thread.h **** #define NR_REGISTERS 32
  10:src/../h/thread.h **** #define ACTUAL_STACK_SIZE 4096*10
  11:src/../h/thread.h **** 
  12:src/../h/thread.h **** class Thread;
  13:src/../h/thread.h **** typedef Thread* thread_t;
  14:src/../h/thread.h **** 
  15:src/../h/thread.h **** class Thread
  16:src/../h/thread.h **** {
  17:src/../h/thread.h **** public:
  18:src/../h/thread.h ****     enum State
  19:src/../h/thread.h ****     {
  20:src/../h/thread.h ****         RUNNING = 0, SUSPENDED, READY, INITIALIZING, TERMINATING, NONEXISTENT
GAS LISTING /tmp/cckyFdlr.s 			page 5


  21:src/../h/thread.h ****     };
  22:src/../h/thread.h ****     typedef void(*Body)(void*);
  23:src/../h/thread.h ****     typedef uint64 Context[50+1]; // the +1 is for the sepc // temp 50
  24:src/../h/thread.h **** 
  25:src/../h/thread.h ****     static Thread** getAllThreads()
  26:src/../h/thread.h ****     {
  27:src/../h/thread.h ****         static bool firstCall = true;
  28:src/../h/thread.h ****         static Thread* allThreads[NR_MAX_THREADS];
  29:src/../h/thread.h **** 
  30:src/../h/thread.h ****         if(firstCall)
  31:src/../h/thread.h ****         {
  32:src/../h/thread.h ****             for(int i=0; i<NR_MAX_THREADS; i++)
  33:src/../h/thread.h ****                 allThreads[i] = nullptr;
  34:src/../h/thread.h ****             firstCall = false;
  35:src/../h/thread.h ****         }
  36:src/../h/thread.h **** 
  37:src/../h/thread.h ****         return allThreads;
  38:src/../h/thread.h ****     }
  39:src/../h/thread.h **** 
  40:src/../h/thread.h ****     static uint64* pRunningContext;
  41:src/../h/thread.h ****     static bool userThreadExists;
  42:src/../h/thread.h ****     static uint64 timeSliceCounter;
  43:src/../h/thread.h **** 
  44:src/../h/thread.h ****     static Thread* getPRunning()
  45:src/../h/thread.h ****     {
  46:src/../h/thread.h ****         return pRunning;
 110              		.loc 3 46 9
 111              		.loc 3 46 16 is_stmt 0
 112 0048 97070000 		la	a5,_ZN6Thread8pRunningE
 112      83B70700 
 113              	.LVL4:
 114 0050 83B70700 		ld	a5,0(a5)
 115              	.LBE16:
 116              	.LBE15:
 117              		.loc 1 59 8
 118 0054 93870701 		addi	a5,a5,16
 119              		.loc 1 59 45
 120 0058 17070000 		la	a4,_ZN6Thread15pRunningContextE
 120      03370700 
 121 0060 03370700 		ld	a4,0(a4)
 122              		.loc 1 59 5
 123 0064 638EE70A 		beq	a5,a4,.L5
  60:src/trap.cpp  ****     {
  61:src/trap.cpp  ****         assert(false);
 124              		.loc 1 61 9 is_stmt 1
 125              	.LVL5:
 126              	.LBB17:
 127              	.LBB18:
  21:src/../h/../h/../h/my_console.h ****         return;
 128              		.loc 2 21 5
  23:src/../h/../h/../h/my_console.h **** 
  24:src/../h/../h/../h/my_console.h ****     putString("===================== ASSERT file: ");
 129              		.loc 2 24 5
 130              		.loc 2 24 14 is_stmt 0
 131 0068 17050000 		lla	a0,.LC0
 131      13050500 
 132 0070 97000000 		call	_Z9putStringPKc@plt
GAS LISTING /tmp/cckyFdlr.s 			page 6


 132      E7800000 
 133              	.LVL6:
  25:src/../h/../h/../h/my_console.h ****     putString(file);
 134              		.loc 2 25 5 is_stmt 1
 135              		.loc 2 25 14 is_stmt 0
 136 0078 17050000 		lla	a0,.LC1
 136      13050500 
 137 0080 97000000 		call	_Z9putStringPKc@plt
 137      E7800000 
 138              	.LVL7:
  26:src/../h/../h/../h/my_console.h ****     putString("    line: ");
 139              		.loc 2 26 5 is_stmt 1
 140              		.loc 2 26 14 is_stmt 0
 141 0088 17050000 		lla	a0,.LC2
 141      13050500 
 142 0090 97000000 		call	_Z9putStringPKc@plt
 142      E7800000 
 143              	.LVL8:
  27:src/../h/../h/../h/my_console.h ****     putInt(line);
 144              		.loc 2 27 5 is_stmt 1
 145              		.loc 2 27 11 is_stmt 0
 146 0098 1305D003 		li	a0,61
 147 009c 97000000 		call	_Z6putInti@plt
 147      E7800000 
 148              	.LVL9:
  28:src/../h/../h/../h/my_console.h ****     putString("   ===========================");
 149              		.loc 2 28 5 is_stmt 1
 150              		.loc 2 28 14 is_stmt 0
 151 00a4 17050000 		lla	a0,.LC3
 151      13050500 
 152 00ac 97000000 		call	_Z9putStringPKc@plt
 152      E7800000 
 153              	.LVL10:
  29:src/../h/../h/../h/my_console.h ****     putNewline();
 154              		.loc 2 29 5 is_stmt 1
 155              		.loc 2 29 15 is_stmt 0
 156 00b4 97000000 		call	_Z10putNewlinev@plt
 156      E7800000 
 157              	.LVL11:
  30:src/../h/../h/../h/my_console.h **** 
  31:src/../h/../h/../h/my_console.h ****     stopKernel();
 158              		.loc 2 31 5 is_stmt 1
 159              		.loc 2 31 15 is_stmt 0
 160 00bc 97000000 		call	_Z10stopKernelv@plt
 160      E7800000 
 161              	.LVL12:
 162              	.L10:
 163              	.LBE18:
 164              	.LBE17:
 165              	.LBB19:
 166              	.LBB14:
  24:src/../h/../h/../h/my_console.h ****     putString(file);
 167              		.loc 2 24 5 is_stmt 1
  24:src/../h/../h/../h/my_console.h ****     putString(file);
 168              		.loc 2 24 14 is_stmt 0
 169 00c4 17050000 		lla	a0,.LC0
 169      13050500 
GAS LISTING /tmp/cckyFdlr.s 			page 7


 170 00cc 97000000 		call	_Z9putStringPKc@plt
 170      E7800000 
 171              	.LVL13:
  25:src/../h/../h/../h/my_console.h ****     putString("    line: ");
 172              		.loc 2 25 5 is_stmt 1
  25:src/../h/../h/../h/my_console.h ****     putString("    line: ");
 173              		.loc 2 25 14 is_stmt 0
 174 00d4 17050000 		lla	a0,.LC1
 174      13050500 
 175 00dc 97000000 		call	_Z9putStringPKc@plt
 175      E7800000 
 176              	.LVL14:
  26:src/../h/../h/../h/my_console.h ****     putInt(line);
 177              		.loc 2 26 5 is_stmt 1
  26:src/../h/../h/../h/my_console.h ****     putInt(line);
 178              		.loc 2 26 14 is_stmt 0
 179 00e4 17050000 		lla	a0,.LC2
 179      13050500 
 180 00ec 97000000 		call	_Z9putStringPKc@plt
 180      E7800000 
 181              	.LVL15:
  27:src/../h/../h/../h/my_console.h ****     putString("   ===========================");
 182              		.loc 2 27 5 is_stmt 1
  27:src/../h/../h/../h/my_console.h ****     putString("   ===========================");
 183              		.loc 2 27 11 is_stmt 0
 184 00f4 13057003 		li	a0,55
 185 00f8 97000000 		call	_Z6putInti@plt
 185      E7800000 
 186              	.LVL16:
  28:src/../h/../h/../h/my_console.h ****     putNewline();
 187              		.loc 2 28 5 is_stmt 1
  28:src/../h/../h/../h/my_console.h ****     putNewline();
 188              		.loc 2 28 14 is_stmt 0
 189 0100 17050000 		lla	a0,.LC3
 189      13050500 
 190 0108 97000000 		call	_Z9putStringPKc@plt
 190      E7800000 
 191              	.LVL17:
  29:src/../h/../h/../h/my_console.h **** 
 192              		.loc 2 29 5 is_stmt 1
  29:src/../h/../h/../h/my_console.h **** 
 193              		.loc 2 29 15 is_stmt 0
 194 0110 97000000 		call	_Z10putNewlinev@plt
 194      E7800000 
 195              	.LVL18:
 196              		.loc 2 31 5 is_stmt 1
 197              		.loc 2 31 15 is_stmt 0
 198 0118 97000000 		call	_Z10stopKernelv@plt
 198      E7800000 
 199              	.LVL19:
 200              	.L5:
 201              	.LBE14:
 202              	.LBE19:
  62:src/trap.cpp  ****     }
  63:src/trap.cpp  **** 
  64:src/trap.cpp  ****     if (cause == 1)
 203              		.loc 1 64 5 is_stmt 1
GAS LISTING /tmp/cckyFdlr.s 			page 8


 204 0120 93071000 		li	a5,1
 205 0124 6380F608 		beq	a3,a5,.L11
  65:src/trap.cpp  ****     {
  66:src/trap.cpp  ****         Thread::timeSliceCounter++;
  67:src/trap.cpp  ****         gTimer++;
  68:src/trap.cpp  **** 
  69:src/trap.cpp  ****         if (gTimer % 10 == 0)
  70:src/trap.cpp  ****         {
  71:src/trap.cpp  ****             putString("Time: ");
  72:src/trap.cpp  ****             putInt(gTimer / 10);
  73:src/trap.cpp  ****             putString("s");
  74:src/trap.cpp  ****             putNewline();
  75:src/trap.cpp  ****         }
  76:src/trap.cpp  **** 
  77:src/trap.cpp  **** //        if (Thread::timeSliceCounter >= Thread::pRunning->getTimeSlice())
  78:src/trap.cpp  **** //        {
  79:src/trap.cpp  **** //            Thread::timeSliceCounter = 0;
  80:src/trap.cpp  **** //            Scheduler::dispatchToNext();
  81:src/trap.cpp  **** //        }
  82:src/trap.cpp  ****     }
  83:src/trap.cpp  ****     else if (cause == 9)
 206              		.loc 1 83 10
 207 0128 93079000 		li	a5,9
 208 012c 6380F610 		beq	a3,a5,.L12
  84:src/trap.cpp  ****     {
  85:src/trap.cpp  ****         console_handler();
  86:src/trap.cpp  ****     }
  87:src/trap.cpp  ****     else
  88:src/trap.cpp  ****     {
  89:src/trap.cpp  ****         putString("=== Error: unknown external interrupt");
 209              		.loc 1 89 9
 210              		.loc 1 89 18 is_stmt 0
 211 0130 17050000 		lla	a0,.LC6
 211      13050500 
 212 0138 97000000 		call	_Z9putStringPKc@plt
 212      E7800000 
 213              	.LVL20:
  90:src/trap.cpp  ****         putNewline();
 214              		.loc 1 90 9 is_stmt 1
 215              		.loc 1 90 19 is_stmt 0
 216 0140 97000000 		call	_Z10putNewlinev@plt
 216      E7800000 
 217              	.LVL21:
  91:src/trap.cpp  ****         assert(false);
 218              		.loc 1 91 9 is_stmt 1
 219              	.LBB20:
 220              	.LBB21:
  21:src/../h/../h/../h/my_console.h ****         return;
 221              		.loc 2 21 5
  24:src/../h/../h/../h/my_console.h ****     putString(file);
 222              		.loc 2 24 5
  24:src/../h/../h/../h/my_console.h ****     putString(file);
 223              		.loc 2 24 14 is_stmt 0
 224 0148 17050000 		lla	a0,.LC0
 224      13050500 
 225 0150 97000000 		call	_Z9putStringPKc@plt
 225      E7800000 
GAS LISTING /tmp/cckyFdlr.s 			page 9


 226              	.LVL22:
  25:src/../h/../h/../h/my_console.h ****     putString("    line: ");
 227              		.loc 2 25 5 is_stmt 1
  25:src/../h/../h/../h/my_console.h ****     putString("    line: ");
 228              		.loc 2 25 14 is_stmt 0
 229 0158 17050000 		lla	a0,.LC1
 229      13050500 
 230 0160 97000000 		call	_Z9putStringPKc@plt
 230      E7800000 
 231              	.LVL23:
  26:src/../h/../h/../h/my_console.h ****     putInt(line);
 232              		.loc 2 26 5 is_stmt 1
  26:src/../h/../h/../h/my_console.h ****     putInt(line);
 233              		.loc 2 26 14 is_stmt 0
 234 0168 17050000 		lla	a0,.LC2
 234      13050500 
 235 0170 97000000 		call	_Z9putStringPKc@plt
 235      E7800000 
 236              	.LVL24:
  27:src/../h/../h/../h/my_console.h ****     putString("   ===========================");
 237              		.loc 2 27 5 is_stmt 1
  27:src/../h/../h/../h/my_console.h ****     putString("   ===========================");
 238              		.loc 2 27 11 is_stmt 0
 239 0178 1305B005 		li	a0,91
 240 017c 97000000 		call	_Z6putInti@plt
 240      E7800000 
 241              	.LVL25:
  28:src/../h/../h/../h/my_console.h ****     putNewline();
 242              		.loc 2 28 5 is_stmt 1
  28:src/../h/../h/../h/my_console.h ****     putNewline();
 243              		.loc 2 28 14 is_stmt 0
 244 0184 17050000 		lla	a0,.LC3
 244      13050500 
 245 018c 97000000 		call	_Z9putStringPKc@plt
 245      E7800000 
 246              	.LVL26:
  29:src/../h/../h/../h/my_console.h **** 
 247              		.loc 2 29 5 is_stmt 1
  29:src/../h/../h/../h/my_console.h **** 
 248              		.loc 2 29 15 is_stmt 0
 249 0194 97000000 		call	_Z10putNewlinev@plt
 249      E7800000 
 250              	.LVL27:
 251              		.loc 2 31 5 is_stmt 1
 252              		.loc 2 31 15 is_stmt 0
 253 019c 97000000 		call	_Z10stopKernelv@plt
 253      E7800000 
 254              	.LVL28:
 255              	.L11:
 256              	.LBE21:
 257              	.LBE20:
  66:src/trap.cpp  ****         gTimer++;
 258              		.loc 1 66 9 is_stmt 1
  66:src/trap.cpp  ****         gTimer++;
 259              		.loc 1 66 33 is_stmt 0
 260 01a4 17070000 		la	a4,_ZN6Thread16timeSliceCounterE
 260      03370700 
GAS LISTING /tmp/cckyFdlr.s 			page 10


 261 01ac 83370700 		ld	a5,0(a4)
 262 01b0 93871700 		addi	a5,a5,1
 263 01b4 2330F700 		sd	a5,0(a4)
  67:src/trap.cpp  **** 
 264              		.loc 1 67 9 is_stmt 1
  67:src/trap.cpp  **** 
 265              		.loc 1 67 15 is_stmt 0
 266 01b8 17070000 		lla	a4,.LANCHOR0
 266      13070700 
 267 01c0 83270700 		lw	a5,0(a4)
 268 01c4 9B871700 		addiw	a5,a5,1
 269 01c8 2320F700 		sw	a5,0(a4)
  69:src/trap.cpp  ****         {
 270              		.loc 1 69 9 is_stmt 1
  69:src/trap.cpp  ****         {
 271              		.loc 1 69 20 is_stmt 0
 272 01cc 1307A000 		li	a4,10
 273 01d0 BBE7E702 		remw	a5,a5,a4
  69:src/trap.cpp  ****         {
 274              		.loc 1 69 9
 275 01d4 638A0700 		beqz	a5,.L13
 276              	.LVL29:
 277              	.L3:
  92:src/trap.cpp  ****     }
  93:src/trap.cpp  **** }
 278              		.loc 1 93 1
 279 01d8 83308100 		ld	ra,8(sp)
 280              		.cfi_remember_state
 281              		.cfi_restore 1
 282 01dc 03340100 		ld	s0,0(sp)
 283              		.cfi_restore 8
 284              		.cfi_def_cfa 2, 16
 285 01e0 13010101 		addi	sp,sp,16
 286              		.cfi_def_cfa_offset 0
 287 01e4 67800000 		jr	ra
 288              	.LVL30:
 289              	.L13:
 290              		.cfi_restore_state
  71:src/trap.cpp  ****             putInt(gTimer / 10);
 291              		.loc 1 71 13 is_stmt 1
  71:src/trap.cpp  ****             putInt(gTimer / 10);
 292              		.loc 1 71 22 is_stmt 0
 293 01e8 17050000 		lla	a0,.LC4
 293      13050500 
 294 01f0 97000000 		call	_Z9putStringPKc@plt
 294      E7800000 
 295              	.LVL31:
  72:src/trap.cpp  ****             putString("s");
 296              		.loc 1 72 13 is_stmt 1
  72:src/trap.cpp  ****             putString("s");
 297              		.loc 1 72 19 is_stmt 0
 298 01f8 17050000 		lw	a0,.LANCHOR0
 298      03250500 
 299 0200 9307A000 		li	a5,10
 300 0204 3B45F502 		divw	a0,a0,a5
 301 0208 97000000 		call	_Z6putInti@plt
 301      E7800000 
GAS LISTING /tmp/cckyFdlr.s 			page 11


 302              	.LVL32:
  73:src/trap.cpp  ****             putNewline();
 303              		.loc 1 73 13 is_stmt 1
  73:src/trap.cpp  ****             putNewline();
 304              		.loc 1 73 22 is_stmt 0
 305 0210 17050000 		lla	a0,.LC5
 305      13050500 
 306 0218 97000000 		call	_Z9putStringPKc@plt
 306      E7800000 
 307              	.LVL33:
  74:src/trap.cpp  ****         }
 308              		.loc 1 74 13 is_stmt 1
  74:src/trap.cpp  ****         }
 309              		.loc 1 74 23 is_stmt 0
 310 0220 97000000 		call	_Z10putNewlinev@plt
 310      E7800000 
 311              	.LVL34:
 312 0228 6FF01FFB 		j	.L3
 313              	.LVL35:
 314              	.L12:
  85:src/trap.cpp  ****     }
 315              		.loc 1 85 9 is_stmt 1
  85:src/trap.cpp  ****     }
 316              		.loc 1 85 24 is_stmt 0
 317 022c 97000000 		call	console_handler@plt
 317      E7800000 
 318              	.LVL36:
 319 0234 6FF05FFA 		j	.L3
 320              		.cfi_endproc
 321              	.LFE16:
 323              		.section	.rodata.str1.8
 324 009e 0000     		.align	3
 325              	.LC7:
 326 00a0 3D3D3D20 		.string	"=== EXCEPETION occured: "
 326      45584345 
 326      50455449 
 326      4F4E206F 
 326      63637572 
 327 00b9 00000000 		.align	3
 327      000000
 328              	.LC8:
 329 00c0 20496C6C 		.string	" Illegal instruction"
 329      6567616C 
 329      20696E73 
 329      74727563 
 329      74696F6E 
 330 00d5 000000   		.align	3
 331              	.LC9:
 332 00d8 556E616C 		.string	"Unallowed read adress"
 332      6C6F7765 
 332      64207265 
 332      61642061 
 332      64726573 
 333 00ee 0000     		.align	3
 334              	.LC10:
 335 00f0 556E616C 		.string	"Unallowed write adress"
 335      6C6F7765 
GAS LISTING /tmp/cckyFdlr.s 			page 12


 335      64207772 
 335      69746520 
 335      61647265 
 336 0107 00       		.align	3
 337              	.LC11:
 338 0108 554B4E4F 		.string	"UKNOWN EXCEPTION. ??????????????"
 338      574E2045 
 338      58434550 
 338      54494F4E 
 338      2E203F3F 
 339 0129 00000000 		.align	3
 339      000000
 340              	.LC12:
 341 0130 5465726D 		.string	"Terminating kernel"
 341      696E6174 
 341      696E6720 
 341      6B65726E 
 341      656C00
 342              		.text
 343              		.align	2
 344              		.globl	_Z25cInternalInterruptRoutinev
 346              	_Z25cInternalInterruptRoutinev:
 347              	.LFB17:
  94:src/trap.cpp  **** 
  95:src/trap.cpp  **** void cInternalInterruptRoutine()
  96:src/trap.cpp  **** {
 348              		.loc 1 96 1 is_stmt 1
 349              		.cfi_startproc
 350 0238 130101FE 		addi	sp,sp,-32
 351              		.cfi_def_cfa_offset 32
 352 023c 233C1100 		sd	ra,24(sp)
 353 0240 23388100 		sd	s0,16(sp)
 354 0244 23349100 		sd	s1,8(sp)
 355 0248 23302101 		sd	s2,0(sp)
 356              		.cfi_offset 1, -8
 357              		.cfi_offset 8, -16
 358              		.cfi_offset 9, -24
 359              		.cfi_offset 18, -32
 360 024c 13040102 		addi	s0,sp,32
 361              		.cfi_def_cfa 8, 0
  97:src/trap.cpp  ****     uint64 scause;
 362              		.loc 1 97 5
  98:src/trap.cpp  ****     __asm__ volatile ("csrr %[name], scause" : [name] "=r"(scause));
 363              		.loc 1 98 5
 364              		.loc 1 98 68 is_stmt 0
 365              	#APP
 366              	# 98 "src/trap.cpp" 1
  99              	
 367              		csrr a5, scause
 368              	# 0 "" 2
 369              	.LVL37:
 100:src/trap.cpp  **** //    int isExternal = (scause & (0x1UL << 63)) != 0;
 101:src/trap.cpp  ****     int cause = scause & (~(1UL << 63));
 370              		.loc 1 101 5 is_stmt 1
 371              		.loc 1 101 9 is_stmt 0
 372              	#NO_APP
 373 0254 9B840700 		sext.w	s1,a5
GAS LISTING /tmp/cckyFdlr.s 			page 13


 374              	.LVL38:
 102:src/trap.cpp  **** 
 103:src/trap.cpp  ****     __asm__ volatile ("csrc sip, 0x2"); // clears the 1st bit in register sip. (the bit signifies i
 375              		.loc 1 103 5 is_stmt 1
 376              		.loc 1 103 39 is_stmt 0
 377              	#APP
 378              	# 103 "src/trap.cpp" 1
 104              	
 105:src/trap.cpp  ****     uint64 code, parameter1;
 379              		csrc sip, 0x2
 380              	# 0 "" 2
 381              		.loc 1 105 5 is_stmt 1
 106:src/trap.cpp  ****     __asm__ volatile ("mv %[name], a0" : [name] "=r"(code));
 382              		.loc 1 106 5
 383              		.loc 1 106 60 is_stmt 0
 384              	# 106 "src/trap.cpp" 1
 107              	    __asm__ volatile ("mv %[name], a1" : [name] "=r"(parameter1));
 385              		mv a4, a0
 386              	# 0 "" 2
 387              	.LVL39:
 388              		.loc 1 107 5 is_stmt 1
 389              		.loc 1 107 66 is_stmt 0
 390              	# 107 "src/trap.cpp" 1
 108              	
 391              		mv s2, a1
 392              	# 0 "" 2
 393              	.LVL40:
 109:src/trap.cpp  **** 
 110:src/trap.cpp  **** //    if(&(Thread::pRunning->context[0]) != Thread::pRunningContext) // temp, maybe changes registe
 111:src/trap.cpp  **** //    {
 112:src/trap.cpp  **** //        __asm__ volatile ("mv x10, x10");
 113:src/trap.cpp  **** //        assert(false);
 114:src/trap.cpp  **** //    }
 115:src/trap.cpp  **** 
 116:src/trap.cpp  ****     if(cause != 8 && cause != 9)
 394              		.loc 1 116 5 is_stmt 1
 395              		.loc 1 116 19 is_stmt 0
 396              	#NO_APP
 397 0264 9B8787FF 		addiw	a5,a5,-8
 398              	.LVL41:
 399              		.loc 1 116 5
 400 0268 93061000 		li	a3,1
 401 026c 63E4F608 		bgtu	a5,a3,.L27
 117:src/trap.cpp  ****     {
 118:src/trap.cpp  ****         putString("=== EXCEPETION occured: ");
 119:src/trap.cpp  ****         if(cause == 2)
 120:src/trap.cpp  ****         {
 121:src/trap.cpp  ****             putString(" Illegal instruction");
 122:src/trap.cpp  ****         }
 123:src/trap.cpp  ****         else if (cause == 5)
 124:src/trap.cpp  ****         {
 125:src/trap.cpp  ****             putString("Unallowed read adress");
 126:src/trap.cpp  ****         }
 127:src/trap.cpp  ****         else if (cause == 7)
 128:src/trap.cpp  ****         {
 129:src/trap.cpp  ****             putString("Unallowed write adress");
 130:src/trap.cpp  ****         }
GAS LISTING /tmp/cckyFdlr.s 			page 14


 131:src/trap.cpp  ****         else
 132:src/trap.cpp  ****         {
 133:src/trap.cpp  ****             putString("UKNOWN EXCEPTION. ??????????????");
 134:src/trap.cpp  ****             assert(false);
 135:src/trap.cpp  ****         }
 136:src/trap.cpp  ****         putNewline();
 137:src/trap.cpp  ****         putString("Terminating kernel");
 138:src/trap.cpp  ****         putNewline();
 139:src/trap.cpp  ****         assert(false);
 140:src/trap.cpp  ****     }
 141:src/trap.cpp  **** 
 142:src/trap.cpp  **** 
 143:src/trap.cpp  ****     uint64 ret = -1;
 402              		.loc 1 143 5 is_stmt 1
 403              	.LVL42:
 144:src/trap.cpp  ****     if(code == 1)
 404              		.loc 1 144 5
 405 0270 93071000 		li	a5,1
 406 0274 6304F71C 		beq	a4,a5,.L28
 145:src/trap.cpp  ****     {
 146:src/trap.cpp  ****         ret = (uint64)MemAlloc::get()->allocMem(parameter1);
 147:src/trap.cpp  ****     }
 148:src/trap.cpp  ****     else if (code == 2)
 407              		.loc 1 148 10
 408 0278 93072000 		li	a5,2
 409 027c 6308F71E 		beq	a4,a5,.L29
 149:src/trap.cpp  ****     {
 150:src/trap.cpp  ****         ret = (uint64)MemAlloc::get()->freeMem((void*)parameter1);
 151:src/trap.cpp  ****     }
 152:src/trap.cpp  ****     else if (code == 0x12)
 410              		.loc 1 152 10
 411 0280 93072001 		li	a5,18
 412 0284 6300F720 		beq	a4,a5,.L30
 153:src/trap.cpp  ****     {
 154:src/trap.cpp  ****         ret = Thread::exit();
 155:src/trap.cpp  ****     }
 156:src/trap.cpp  ****     else if (code == 0x13)
 413              		.loc 1 156 10
 414 0288 93073001 		li	a5,19
 415 028c 630AF720 		beq	a4,a5,.L25
 157:src/trap.cpp  ****     {
 158:src/trap.cpp  **** //        if(Thread::userThreadExists)
 159:src/trap.cpp  **** //        {
 160:src/trap.cpp  **** //            Scheduler::dispatchToNext();
 161:src/trap.cpp  **** //        }
 162:src/trap.cpp  ****     }
 163:src/trap.cpp  **** #ifdef __DEBUG_MODE
 164:src/trap.cpp  ****     else if (code == 3) // Test call
 416              		.loc 1 164 10
 417 0290 93073000 		li	a5,3
 418 0294 630EF71E 		beq	a4,a5,.L31
 165:src/trap.cpp  ****     {
 166:src/trap.cpp  ****         ret = (uint64)testCall(parameter1);
 167:src/trap.cpp  ****     }
 168:src/trap.cpp  **** #endif
 169:src/trap.cpp  ****     else
 170:src/trap.cpp  ****     {
GAS LISTING /tmp/cckyFdlr.s 			page 15


 171:src/trap.cpp  ****         assert(false); // unknown code
 419              		.loc 1 171 9
 420              	.LVL43:
 421              	.LBB34:
 422              	.LBB35:
  21:src/../h/../h/../h/my_console.h ****         return;
 423              		.loc 2 21 5
  24:src/../h/../h/../h/my_console.h ****     putString(file);
 424              		.loc 2 24 5
  24:src/../h/../h/../h/my_console.h ****     putString(file);
 425              		.loc 2 24 14 is_stmt 0
 426 0298 17050000 		lla	a0,.LC0
 426      13050500 
 427 02a0 97000000 		call	_Z9putStringPKc@plt
 427      E7800000 
 428              	.LVL44:
  25:src/../h/../h/../h/my_console.h ****     putString("    line: ");
 429              		.loc 2 25 5 is_stmt 1
  25:src/../h/../h/../h/my_console.h ****     putString("    line: ");
 430              		.loc 2 25 14 is_stmt 0
 431 02a8 17050000 		lla	a0,.LC1
 431      13050500 
 432 02b0 97000000 		call	_Z9putStringPKc@plt
 432      E7800000 
 433              	.LVL45:
  26:src/../h/../h/../h/my_console.h ****     putInt(line);
 434              		.loc 2 26 5 is_stmt 1
  26:src/../h/../h/../h/my_console.h ****     putInt(line);
 435              		.loc 2 26 14 is_stmt 0
 436 02b8 17050000 		lla	a0,.LC2
 436      13050500 
 437 02c0 97000000 		call	_Z9putStringPKc@plt
 437      E7800000 
 438              	.LVL46:
  27:src/../h/../h/../h/my_console.h ****     putString("   ===========================");
 439              		.loc 2 27 5 is_stmt 1
  27:src/../h/../h/../h/my_console.h ****     putString("   ===========================");
 440              		.loc 2 27 11 is_stmt 0
 441 02c8 1305B00A 		li	a0,171
 442 02cc 97000000 		call	_Z6putInti@plt
 442      E7800000 
 443              	.LVL47:
  28:src/../h/../h/../h/my_console.h ****     putNewline();
 444              		.loc 2 28 5 is_stmt 1
  28:src/../h/../h/../h/my_console.h ****     putNewline();
 445              		.loc 2 28 14 is_stmt 0
 446 02d4 17050000 		lla	a0,.LC3
 446      13050500 
 447 02dc 97000000 		call	_Z9putStringPKc@plt
 447      E7800000 
 448              	.LVL48:
  29:src/../h/../h/../h/my_console.h **** 
 449              		.loc 2 29 5 is_stmt 1
  29:src/../h/../h/../h/my_console.h **** 
 450              		.loc 2 29 15 is_stmt 0
 451 02e4 97000000 		call	_Z10putNewlinev@plt
 451      E7800000 
GAS LISTING /tmp/cckyFdlr.s 			page 16


 452              	.LVL49:
 453              		.loc 2 31 5 is_stmt 1
 454              		.loc 2 31 15 is_stmt 0
 455 02ec 97000000 		call	_Z10stopKernelv@plt
 455      E7800000 
 456              	.LVL50:
 457              	.L27:
 458              	.LBE35:
 459              	.LBE34:
 118:src/trap.cpp  ****         if(cause == 2)
 460              		.loc 1 118 9 is_stmt 1
 118:src/trap.cpp  ****         if(cause == 2)
 461              		.loc 1 118 18 is_stmt 0
 462 02f4 17050000 		lla	a0,.LC7
 462      13050500 
 463 02fc 97000000 		call	_Z9putStringPKc@plt
 463      E7800000 
 464              	.LVL51:
 119:src/trap.cpp  ****         {
 465              		.loc 1 119 9 is_stmt 1
 466 0304 93072000 		li	a5,2
 467 0308 6380F408 		beq	s1,a5,.L32
 123:src/trap.cpp  ****         {
 468              		.loc 1 123 14
 469 030c 93075000 		li	a5,5
 470 0310 6386F408 		beq	s1,a5,.L33
 127:src/trap.cpp  ****         {
 471              		.loc 1 127 14
 472 0314 93077000 		li	a5,7
 473 0318 638CF408 		beq	s1,a5,.L34
 133:src/trap.cpp  ****             assert(false);
 474              		.loc 1 133 13
 133:src/trap.cpp  ****             assert(false);
 475              		.loc 1 133 22 is_stmt 0
 476 031c 17050000 		lla	a0,.LC11
 476      13050500 
 477 0324 97000000 		call	_Z9putStringPKc@plt
 477      E7800000 
 478              	.LVL52:
 134:src/trap.cpp  ****         }
 479              		.loc 1 134 13 is_stmt 1
 480              	.LBB36:
 481              	.LBB37:
  21:src/../h/../h/../h/my_console.h ****         return;
 482              		.loc 2 21 5
  24:src/../h/../h/../h/my_console.h ****     putString(file);
 483              		.loc 2 24 5
  24:src/../h/../h/../h/my_console.h ****     putString(file);
 484              		.loc 2 24 14 is_stmt 0
 485 032c 17050000 		lla	a0,.LC0
 485      13050500 
 486 0334 97000000 		call	_Z9putStringPKc@plt
 486      E7800000 
 487              	.LVL53:
  25:src/../h/../h/../h/my_console.h ****     putString("    line: ");
 488              		.loc 2 25 5 is_stmt 1
  25:src/../h/../h/../h/my_console.h ****     putString("    line: ");
GAS LISTING /tmp/cckyFdlr.s 			page 17


 489              		.loc 2 25 14 is_stmt 0
 490 033c 17050000 		lla	a0,.LC1
 490      13050500 
 491 0344 97000000 		call	_Z9putStringPKc@plt
 491      E7800000 
 492              	.LVL54:
  26:src/../h/../h/../h/my_console.h ****     putInt(line);
 493              		.loc 2 26 5 is_stmt 1
  26:src/../h/../h/../h/my_console.h ****     putInt(line);
 494              		.loc 2 26 14 is_stmt 0
 495 034c 17050000 		lla	a0,.LC2
 495      13050500 
 496 0354 97000000 		call	_Z9putStringPKc@plt
 496      E7800000 
 497              	.LVL55:
  27:src/../h/../h/../h/my_console.h ****     putString("   ===========================");
 498              		.loc 2 27 5 is_stmt 1
  27:src/../h/../h/../h/my_console.h ****     putString("   ===========================");
 499              		.loc 2 27 11 is_stmt 0
 500 035c 13056008 		li	a0,134
 501 0360 97000000 		call	_Z6putInti@plt
 501      E7800000 
 502              	.LVL56:
  28:src/../h/../h/../h/my_console.h ****     putNewline();
 503              		.loc 2 28 5 is_stmt 1
  28:src/../h/../h/../h/my_console.h ****     putNewline();
 504              		.loc 2 28 14 is_stmt 0
 505 0368 17050000 		lla	a0,.LC3
 505      13050500 
 506 0370 97000000 		call	_Z9putStringPKc@plt
 506      E7800000 
 507              	.LVL57:
  29:src/../h/../h/../h/my_console.h **** 
 508              		.loc 2 29 5 is_stmt 1
  29:src/../h/../h/../h/my_console.h **** 
 509              		.loc 2 29 15 is_stmt 0
 510 0378 97000000 		call	_Z10putNewlinev@plt
 510      E7800000 
 511              	.LVL58:
 512              		.loc 2 31 5 is_stmt 1
 513              		.loc 2 31 15 is_stmt 0
 514 0380 97000000 		call	_Z10stopKernelv@plt
 514      E7800000 
 515              	.LVL59:
 516              	.L32:
 517              	.LBE37:
 518              	.LBE36:
 121:src/trap.cpp  ****         }
 519              		.loc 1 121 13 is_stmt 1
 121:src/trap.cpp  ****         }
 520              		.loc 1 121 22 is_stmt 0
 521 0388 17050000 		lla	a0,.LC8
 521      13050500 
 522 0390 97000000 		call	_Z9putStringPKc@plt
 522      E7800000 
 523              	.LVL60:
 524 0398 6F008002 		j	.L17
GAS LISTING /tmp/cckyFdlr.s 			page 18


 525              	.L33:
 125:src/trap.cpp  ****         }
 526              		.loc 1 125 13 is_stmt 1
 125:src/trap.cpp  ****         }
 527              		.loc 1 125 22 is_stmt 0
 528 039c 17050000 		lla	a0,.LC9
 528      13050500 
 529 03a4 97000000 		call	_Z9putStringPKc@plt
 529      E7800000 
 530              	.LVL61:
 531 03ac 6F004001 		j	.L17
 532              	.L34:
 129:src/trap.cpp  ****         }
 533              		.loc 1 129 13 is_stmt 1
 129:src/trap.cpp  ****         }
 534              		.loc 1 129 22 is_stmt 0
 535 03b0 17050000 		lla	a0,.LC10
 535      13050500 
 536 03b8 97000000 		call	_Z9putStringPKc@plt
 536      E7800000 
 537              	.LVL62:
 538              	.L17:
 136:src/trap.cpp  ****         putString("Terminating kernel");
 539              		.loc 1 136 9 is_stmt 1
 136:src/trap.cpp  ****         putString("Terminating kernel");
 540              		.loc 1 136 19 is_stmt 0
 541 03c0 97000000 		call	_Z10putNewlinev@plt
 541      E7800000 
 542              	.LVL63:
 137:src/trap.cpp  ****         putNewline();
 543              		.loc 1 137 9 is_stmt 1
 137:src/trap.cpp  ****         putNewline();
 544              		.loc 1 137 18 is_stmt 0
 545 03c8 17050000 		lla	a0,.LC12
 545      13050500 
 546 03d0 97000000 		call	_Z9putStringPKc@plt
 546      E7800000 
 547              	.LVL64:
 138:src/trap.cpp  ****         assert(false);
 548              		.loc 1 138 9 is_stmt 1
 138:src/trap.cpp  ****         assert(false);
 549              		.loc 1 138 19 is_stmt 0
 550 03d8 97000000 		call	_Z10putNewlinev@plt
 550      E7800000 
 551              	.LVL65:
 139:src/trap.cpp  ****     }
 552              		.loc 1 139 9 is_stmt 1
 553              	.LBB38:
 554              	.LBB39:
  21:src/../h/../h/../h/my_console.h ****         return;
 555              		.loc 2 21 5
  24:src/../h/../h/../h/my_console.h ****     putString(file);
 556              		.loc 2 24 5
  24:src/../h/../h/../h/my_console.h ****     putString(file);
 557              		.loc 2 24 14 is_stmt 0
 558 03e0 17050000 		lla	a0,.LC0
 558      13050500 
GAS LISTING /tmp/cckyFdlr.s 			page 19


 559 03e8 97000000 		call	_Z9putStringPKc@plt
 559      E7800000 
 560              	.LVL66:
  25:src/../h/../h/../h/my_console.h ****     putString("    line: ");
 561              		.loc 2 25 5 is_stmt 1
  25:src/../h/../h/../h/my_console.h ****     putString("    line: ");
 562              		.loc 2 25 14 is_stmt 0
 563 03f0 17050000 		lla	a0,.LC1
 563      13050500 
 564 03f8 97000000 		call	_Z9putStringPKc@plt
 564      E7800000 
 565              	.LVL67:
  26:src/../h/../h/../h/my_console.h ****     putInt(line);
 566              		.loc 2 26 5 is_stmt 1
  26:src/../h/../h/../h/my_console.h ****     putInt(line);
 567              		.loc 2 26 14 is_stmt 0
 568 0400 17050000 		lla	a0,.LC2
 568      13050500 
 569 0408 97000000 		call	_Z9putStringPKc@plt
 569      E7800000 
 570              	.LVL68:
  27:src/../h/../h/../h/my_console.h ****     putString("   ===========================");
 571              		.loc 2 27 5 is_stmt 1
  27:src/../h/../h/../h/my_console.h ****     putString("   ===========================");
 572              		.loc 2 27 11 is_stmt 0
 573 0410 1305B008 		li	a0,139
 574 0414 97000000 		call	_Z6putInti@plt
 574      E7800000 
 575              	.LVL69:
  28:src/../h/../h/../h/my_console.h ****     putNewline();
 576              		.loc 2 28 5 is_stmt 1
  28:src/../h/../h/../h/my_console.h ****     putNewline();
 577              		.loc 2 28 14 is_stmt 0
 578 041c 17050000 		lla	a0,.LC3
 578      13050500 
 579 0424 97000000 		call	_Z9putStringPKc@plt
 579      E7800000 
 580              	.LVL70:
  29:src/../h/../h/../h/my_console.h **** 
 581              		.loc 2 29 5 is_stmt 1
  29:src/../h/../h/../h/my_console.h **** 
 582              		.loc 2 29 15 is_stmt 0
 583 042c 97000000 		call	_Z10putNewlinev@plt
 583      E7800000 
 584              	.LVL71:
 585              		.loc 2 31 5 is_stmt 1
 586              		.loc 2 31 15 is_stmt 0
 587 0434 97000000 		call	_Z10stopKernelv@plt
 587      E7800000 
 588              	.LVL72:
 589              	.L28:
 590              	.LBE39:
 591              	.LBE38:
 146:src/trap.cpp  ****     }
 592              		.loc 1 146 9 is_stmt 1
 146:src/trap.cpp  ****     }
 593              		.loc 1 146 48 is_stmt 0
GAS LISTING /tmp/cckyFdlr.s 			page 20


 594 043c 97000000 		call	_ZN8MemAlloc3getEv@plt
 594      E7800000 
 595              	.LVL73:
 596 0444 93050900 		mv	a1,s2
 597 0448 97000000 		call	_ZN8MemAlloc8allocMemEm@plt
 597      E7800000 
 598              	.LVL74:
 599              	.L21:
 172:src/trap.cpp  ****         assert(false); // unknown code
 173:src/trap.cpp  ****         assert(false); // unknown code
 174:src/trap.cpp  ****         assert(false); // unknown code
 175:src/trap.cpp  ****     }
 176:src/trap.cpp  **** 
 177:src/trap.cpp  ****     __asm__ volatile ("mv a0, %[name]" : : [name] "r" (ret)); // upaliti ovo dole umesto ovoga (ovo
 600              		.loc 1 177 5 is_stmt 1
 601              		.loc 1 177 61 is_stmt 0
 602              	#APP
 603              	# 177 "src/trap.cpp" 1
 178              	
 179:src/trap.cpp  **** //    bool normalCallWithReturn = (code == 0x1 || code == 0x2 || code == 0x11 || code == 0x12 || co
 180:src/trap.cpp  **** //    bool customCallWithReturn = (code == 0x3);
 181:src/trap.cpp  **** //    bool normalCallWithoutReturn = (code == 0x13 && code != 0x14 && code != 0x42);
 182:src/trap.cpp  **** //    if(normalCallWithReturn || customCallWithReturn)
 183:src/trap.cpp  **** //    { // system call with a return (not necessariliy 64bit)
 184:src/trap.cpp  **** //        __asm__ volatile ("mv a0, %[name]" : : [name] "r" (ret));
 185:src/trap.cpp  **** //    }
 186:src/trap.cpp  **** //    else if(normalCallWithoutReturn) // this exists for safety reasons
 187:src/trap.cpp  **** //    {
 188:src/trap.cpp  **** //        ;
 189:src/trap.cpp  **** //    }
 190:src/trap.cpp  **** //    else
 191:src/trap.cpp  **** //    {
 192:src/trap.cpp  **** //        assert(false);
 193:src/trap.cpp  **** //    }
 194:src/trap.cpp  **** 
 195:src/trap.cpp  **** }...
 604              		mv a0, a0
 605              	# 0 "" 2
 606              		.loc 1 195 1
 607              	#NO_APP
 608 0454 83308101 		ld	ra,24(sp)
 609              		.cfi_remember_state
 610              		.cfi_restore 1
 611 0458 03340101 		ld	s0,16(sp)
 612              		.cfi_restore 8
 613              		.cfi_def_cfa 2, 32
 614 045c 83348100 		ld	s1,8(sp)
 615              		.cfi_restore 9
 616              	.LVL75:
 617 0460 03390100 		ld	s2,0(sp)
 618              		.cfi_restore 18
 619              	.LVL76:
 620 0464 13010102 		addi	sp,sp,32
 621              		.cfi_def_cfa_offset 0
 622 0468 67800000 		jr	ra
 623              	.LVL77:
 624              	.L29:
GAS LISTING /tmp/cckyFdlr.s 			page 21


 625              		.cfi_restore_state
 150:src/trap.cpp  ****         ret = (uint64)MemAlloc::get()->freeMem((void*)parameter1);
 626              		.loc 1 150 9 is_stmt 1
 150:src/trap.cpp  ****         ret = (uint64)MemAlloc::get()->freeMem((void*)parameter1);
 627              		.loc 1 150 47 is_stmt 0
 628 046c 97000000 		call	_ZN8MemAlloc3getEv@plt
 628      E7800000 
 629              	.LVL78:
 630 0474 93050900 		mv	a1,s2
 631 0478 97000000 		call	_ZN8MemAlloc7freeMemEPv@plt
 631      E7800000 
 632              	.LVL79:
 633 0480 6FF01FFD 		j	.L21
 634              	.LVL80:
 635              	.L30:
 154:src/trap.cpp  ****         ret = Thread::exit();
 636              		.loc 1 154 9 is_stmt 1
 154:src/trap.cpp  ****         ret = Thread::exit();
 637              		.loc 1 154 27 is_stmt 0
 638 0484 97000000 		call	_ZN6Thread4exitEv@plt
 638      E7800000 
 639              	.LVL81:
 640 048c 6FF05FFC 		j	.L21
 641              	.LVL82:
 642              	.L31:
 166:src/trap.cpp  ****         ret = (uint64)testCall(parameter1);
 643              		.loc 1 166 9 is_stmt 1
 166:src/trap.cpp  ****         ret = (uint64)testCall(parameter1);
 644              		.loc 1 166 31 is_stmt 0
 645 0490 13050900 		mv	a0,s2
 646 0494 97000000 		call	_Z8testCallm
 646      E7800000 
 647              	.LVL83:
 648 049c 6FF05FFB 		j	.L21
 649              	.LVL84:
 650              	.L25:
 143:src/trap.cpp  ****     uint64 ret = -1;
 651              		.loc 1 143 12
 652 04a0 1305F0FF 		li	a0,-1
 653 04a4 6FF0DFFA 		j	.L21
 654              		.cfi_endproc
 655              	.LFE17:
 657              		.globl	gTimer
 658              		.bss
 659              		.align	2
 660              		.set	.LANCHOR0,. + 0
 663              	gTimer:
 664 0000 00000000 		.zero	4
 665              		.text
 666              	.Letext0:
 667              		.file 4 "src/../h/../h/../lib/hw.h"
 668              		.file 5 "src/../h/../h/alloc.h"
 669              		.file 6 "src/../h/../h/../h/../lib/console.h"
GAS LISTING /tmp/cckyFdlr.s 			page 22


DEFINED SYMBOLS
                            *ABS*:0000000000000000 trap.cpp
     /tmp/cckyFdlr.s:9      .text:0000000000000000 _Z8testCallm
     /tmp/cckyFdlr.s:13     .text:0000000000000000 .L0 
     /tmp/cckyFdlr.s:15     .text:0000000000000000 .L0 
     /tmp/cckyFdlr.s:16     .text:0000000000000004 .L0 
     /tmp/cckyFdlr.s:19     .text:000000000000000c .L0 
     /tmp/cckyFdlr.s:20     .text:000000000000000c .L0 
     /tmp/cckyFdlr.s:22     .text:0000000000000010 .L0 
     /tmp/cckyFdlr.s:24     .text:0000000000000010 .L0 
     /tmp/cckyFdlr.s:25     .text:0000000000000010 .L0 
     /tmp/cckyFdlr.s:28     .text:0000000000000018 .L0 
     /tmp/cckyFdlr.s:29     .text:000000000000001c .L0 
     /tmp/cckyFdlr.s:31     .text:0000000000000020 .L0 
     /tmp/cckyFdlr.s:32     .text:0000000000000020 .L0 
     /tmp/cckyFdlr.s:34     .text:0000000000000024 .L0 
     /tmp/cckyFdlr.s:36     .text:0000000000000028 .L0 
     /tmp/cckyFdlr.s:65     .text:0000000000000028 _Z25cExternalInterruptRoutinev
     /tmp/cckyFdlr.s:68     .text:0000000000000028 .L0 
     /tmp/cckyFdlr.s:69     .text:0000000000000028 .L0 
     /tmp/cckyFdlr.s:70     .text:000000000000002c .L0 
     /tmp/cckyFdlr.s:73     .text:0000000000000034 .L0 
     /tmp/cckyFdlr.s:74     .text:0000000000000034 .L0 
     /tmp/cckyFdlr.s:76     .text:0000000000000038 .L0 
     /tmp/cckyFdlr.s:78     .text:0000000000000038 .L0 
     /tmp/cckyFdlr.s:79     .text:0000000000000038 .L0 
        src/trap.cpp:50     .text:0000000000000038 .L0 
     /tmp/cckyFdlr.s:86     .text:000000000000003c .L0 
     /tmp/cckyFdlr.s:87     .text:000000000000003c .L0 
     /tmp/cckyFdlr.s:92     .text:000000000000003c .L0 
     /tmp/cckyFdlr.s:93     .text:000000000000003c .L0 
     /tmp/cckyFdlr.s:99     .text:0000000000000044 .L0 
     /tmp/cckyFdlr.s:100    .text:0000000000000044 .L0 
        src/trap.cpp:57     .text:0000000000000044 .L0 
     /tmp/cckyFdlr.s:110    .text:0000000000000048 .L0 
     /tmp/cckyFdlr.s:111    .text:0000000000000048 .L0 
     /tmp/cckyFdlr.s:112    .text:0000000000000048 .L0 
     /tmp/cckyFdlr.s:118    .text:0000000000000054 .L0 
     /tmp/cckyFdlr.s:120    .text:0000000000000058 .L0 
     /tmp/cckyFdlr.s:123    .text:0000000000000064 .L0 
     /tmp/cckyFdlr.s:128    .text:0000000000000068 .L0 
     /tmp/cckyFdlr.s:129    .text:0000000000000068 .L0 
     /tmp/cckyFdlr.s:130    .text:0000000000000068 .L0 
     /tmp/cckyFdlr.s:131    .text:0000000000000068 .L0 
     /tmp/cckyFdlr.s:135    .text:0000000000000078 .L0 
     /tmp/cckyFdlr.s:136    .text:0000000000000078 .L0 
     /tmp/cckyFdlr.s:140    .text:0000000000000088 .L0 
     /tmp/cckyFdlr.s:141    .text:0000000000000088 .L0 
     /tmp/cckyFdlr.s:145    .text:0000000000000098 .L0 
     /tmp/cckyFdlr.s:146    .text:0000000000000098 .L0 
     /tmp/cckyFdlr.s:150    .text:00000000000000a4 .L0 
     /tmp/cckyFdlr.s:151    .text:00000000000000a4 .L0 
     /tmp/cckyFdlr.s:155    .text:00000000000000b4 .L0 
     /tmp/cckyFdlr.s:156    .text:00000000000000b4 .L0 
     /tmp/cckyFdlr.s:159    .text:00000000000000bc .L0 
     /tmp/cckyFdlr.s:160    .text:00000000000000bc .L0 
     /tmp/cckyFdlr.s:168    .text:00000000000000c4 .L0 
GAS LISTING /tmp/cckyFdlr.s 			page 23


     /tmp/cckyFdlr.s:169    .text:00000000000000c4 .L0 
     /tmp/cckyFdlr.s:173    .text:00000000000000d4 .L0 
     /tmp/cckyFdlr.s:174    .text:00000000000000d4 .L0 
     /tmp/cckyFdlr.s:178    .text:00000000000000e4 .L0 
     /tmp/cckyFdlr.s:179    .text:00000000000000e4 .L0 
     /tmp/cckyFdlr.s:183    .text:00000000000000f4 .L0 
     /tmp/cckyFdlr.s:184    .text:00000000000000f4 .L0 
     /tmp/cckyFdlr.s:188    .text:0000000000000100 .L0 
     /tmp/cckyFdlr.s:189    .text:0000000000000100 .L0 
     /tmp/cckyFdlr.s:193    .text:0000000000000110 .L0 
     /tmp/cckyFdlr.s:194    .text:0000000000000110 .L0 
     /tmp/cckyFdlr.s:197    .text:0000000000000118 .L0 
     /tmp/cckyFdlr.s:198    .text:0000000000000118 .L0 
     /tmp/cckyFdlr.s:204    .text:0000000000000120 .L0 
     /tmp/cckyFdlr.s:207    .text:0000000000000128 .L0 
     /tmp/cckyFdlr.s:210    .text:0000000000000130 .L0 
     /tmp/cckyFdlr.s:211    .text:0000000000000130 .L0 
     /tmp/cckyFdlr.s:215    .text:0000000000000140 .L0 
     /tmp/cckyFdlr.s:216    .text:0000000000000140 .L0 
     /tmp/cckyFdlr.s:221    .text:0000000000000148 .L0 
     /tmp/cckyFdlr.s:222    .text:0000000000000148 .L0 
     /tmp/cckyFdlr.s:223    .text:0000000000000148 .L0 
     /tmp/cckyFdlr.s:224    .text:0000000000000148 .L0 
     /tmp/cckyFdlr.s:228    .text:0000000000000158 .L0 
     /tmp/cckyFdlr.s:229    .text:0000000000000158 .L0 
     /tmp/cckyFdlr.s:233    .text:0000000000000168 .L0 
     /tmp/cckyFdlr.s:234    .text:0000000000000168 .L0 
     /tmp/cckyFdlr.s:238    .text:0000000000000178 .L0 
     /tmp/cckyFdlr.s:239    .text:0000000000000178 .L0 
     /tmp/cckyFdlr.s:243    .text:0000000000000184 .L0 
     /tmp/cckyFdlr.s:244    .text:0000000000000184 .L0 
     /tmp/cckyFdlr.s:248    .text:0000000000000194 .L0 
     /tmp/cckyFdlr.s:249    .text:0000000000000194 .L0 
     /tmp/cckyFdlr.s:252    .text:000000000000019c .L0 
     /tmp/cckyFdlr.s:253    .text:000000000000019c .L0 
     /tmp/cckyFdlr.s:259    .text:00000000000001a4 .L0 
     /tmp/cckyFdlr.s:260    .text:00000000000001a4 .L0 
     /tmp/cckyFdlr.s:265    .text:00000000000001b8 .L0 
     /tmp/cckyFdlr.s:266    .text:00000000000001b8 .L0 
     /tmp/cckyFdlr.s:271    .text:00000000000001cc .L0 
     /tmp/cckyFdlr.s:272    .text:00000000000001cc .L0 
     /tmp/cckyFdlr.s:275    .text:00000000000001d4 .L0 
     /tmp/cckyFdlr.s:279    .text:00000000000001d8 .L0 
     /tmp/cckyFdlr.s:280    .text:00000000000001dc .L0 
     /tmp/cckyFdlr.s:281    .text:00000000000001dc .L0 
     /tmp/cckyFdlr.s:283    .text:00000000000001e0 .L0 
     /tmp/cckyFdlr.s:284    .text:00000000000001e0 .L0 
     /tmp/cckyFdlr.s:286    .text:00000000000001e4 .L0 
     /tmp/cckyFdlr.s:290    .text:00000000000001e8 .L0 
     /tmp/cckyFdlr.s:292    .text:00000000000001e8 .L0 
     /tmp/cckyFdlr.s:293    .text:00000000000001e8 .L0 
     /tmp/cckyFdlr.s:297    .text:00000000000001f8 .L0 
     /tmp/cckyFdlr.s:298    .text:00000000000001f8 .L0 
     /tmp/cckyFdlr.s:304    .text:0000000000000210 .L0 
     /tmp/cckyFdlr.s:305    .text:0000000000000210 .L0 
     /tmp/cckyFdlr.s:309    .text:0000000000000220 .L0 
     /tmp/cckyFdlr.s:310    .text:0000000000000220 .L0 
GAS LISTING /tmp/cckyFdlr.s 			page 24


     /tmp/cckyFdlr.s:316    .text:000000000000022c .L0 
     /tmp/cckyFdlr.s:317    .text:000000000000022c .L0 
     /tmp/cckyFdlr.s:320    .text:0000000000000238 .L0 
     /tmp/cckyFdlr.s:346    .text:0000000000000238 _Z25cInternalInterruptRoutinev
     /tmp/cckyFdlr.s:349    .text:0000000000000238 .L0 
     /tmp/cckyFdlr.s:350    .text:0000000000000238 .L0 
     /tmp/cckyFdlr.s:351    .text:000000000000023c .L0 
     /tmp/cckyFdlr.s:356    .text:000000000000024c .L0 
     /tmp/cckyFdlr.s:357    .text:000000000000024c .L0 
     /tmp/cckyFdlr.s:358    .text:000000000000024c .L0 
     /tmp/cckyFdlr.s:359    .text:000000000000024c .L0 
     /tmp/cckyFdlr.s:361    .text:0000000000000250 .L0 
     /tmp/cckyFdlr.s:363    .text:0000000000000250 .L0 
     /tmp/cckyFdlr.s:364    .text:0000000000000250 .L0 
        src/trap.cpp:98     .text:0000000000000250 .L0 
     /tmp/cckyFdlr.s:371    .text:0000000000000254 .L0 
     /tmp/cckyFdlr.s:373    .text:0000000000000254 .L0 
     /tmp/cckyFdlr.s:376    .text:0000000000000258 .L0 
        src/trap.cpp:103    .text:0000000000000258 .L0 
     /tmp/cckyFdlr.s:382    .text:000000000000025c .L0 
     /tmp/cckyFdlr.s:383    .text:000000000000025c .L0 
        src/trap.cpp:106    .text:000000000000025c .L0 
     /tmp/cckyFdlr.s:389    .text:0000000000000260 .L0 
        src/trap.cpp:107    .text:0000000000000260 .L0 
     /tmp/cckyFdlr.s:395    .text:0000000000000264 .L0 
     /tmp/cckyFdlr.s:397    .text:0000000000000264 .L0 
     /tmp/cckyFdlr.s:400    .text:0000000000000268 .L0 
     /tmp/cckyFdlr.s:404    .text:0000000000000270 .L0 
     /tmp/cckyFdlr.s:405    .text:0000000000000270 .L0 
     /tmp/cckyFdlr.s:408    .text:0000000000000278 .L0 
     /tmp/cckyFdlr.s:411    .text:0000000000000280 .L0 
     /tmp/cckyFdlr.s:414    .text:0000000000000288 .L0 
     /tmp/cckyFdlr.s:417    .text:0000000000000290 .L0 
     /tmp/cckyFdlr.s:423    .text:0000000000000298 .L0 
     /tmp/cckyFdlr.s:424    .text:0000000000000298 .L0 
     /tmp/cckyFdlr.s:425    .text:0000000000000298 .L0 
     /tmp/cckyFdlr.s:426    .text:0000000000000298 .L0 
     /tmp/cckyFdlr.s:430    .text:00000000000002a8 .L0 
     /tmp/cckyFdlr.s:431    .text:00000000000002a8 .L0 
     /tmp/cckyFdlr.s:435    .text:00000000000002b8 .L0 
     /tmp/cckyFdlr.s:436    .text:00000000000002b8 .L0 
     /tmp/cckyFdlr.s:440    .text:00000000000002c8 .L0 
     /tmp/cckyFdlr.s:441    .text:00000000000002c8 .L0 
     /tmp/cckyFdlr.s:445    .text:00000000000002d4 .L0 
     /tmp/cckyFdlr.s:446    .text:00000000000002d4 .L0 
     /tmp/cckyFdlr.s:450    .text:00000000000002e4 .L0 
     /tmp/cckyFdlr.s:451    .text:00000000000002e4 .L0 
     /tmp/cckyFdlr.s:454    .text:00000000000002ec .L0 
     /tmp/cckyFdlr.s:455    .text:00000000000002ec .L0 
     /tmp/cckyFdlr.s:461    .text:00000000000002f4 .L0 
     /tmp/cckyFdlr.s:462    .text:00000000000002f4 .L0 
     /tmp/cckyFdlr.s:466    .text:0000000000000304 .L0 
     /tmp/cckyFdlr.s:469    .text:000000000000030c .L0 
     /tmp/cckyFdlr.s:472    .text:0000000000000314 .L0 
     /tmp/cckyFdlr.s:475    .text:000000000000031c .L0 
     /tmp/cckyFdlr.s:476    .text:000000000000031c .L0 
     /tmp/cckyFdlr.s:482    .text:000000000000032c .L0 
GAS LISTING /tmp/cckyFdlr.s 			page 25


     /tmp/cckyFdlr.s:483    .text:000000000000032c .L0 
     /tmp/cckyFdlr.s:484    .text:000000000000032c .L0 
     /tmp/cckyFdlr.s:485    .text:000000000000032c .L0 
     /tmp/cckyFdlr.s:489    .text:000000000000033c .L0 
     /tmp/cckyFdlr.s:490    .text:000000000000033c .L0 
     /tmp/cckyFdlr.s:494    .text:000000000000034c .L0 
     /tmp/cckyFdlr.s:495    .text:000000000000034c .L0 
     /tmp/cckyFdlr.s:499    .text:000000000000035c .L0 
     /tmp/cckyFdlr.s:500    .text:000000000000035c .L0 
     /tmp/cckyFdlr.s:504    .text:0000000000000368 .L0 
     /tmp/cckyFdlr.s:505    .text:0000000000000368 .L0 
     /tmp/cckyFdlr.s:509    .text:0000000000000378 .L0 
     /tmp/cckyFdlr.s:510    .text:0000000000000378 .L0 
     /tmp/cckyFdlr.s:513    .text:0000000000000380 .L0 
     /tmp/cckyFdlr.s:514    .text:0000000000000380 .L0 
     /tmp/cckyFdlr.s:520    .text:0000000000000388 .L0 
     /tmp/cckyFdlr.s:521    .text:0000000000000388 .L0 
     /tmp/cckyFdlr.s:527    .text:000000000000039c .L0 
     /tmp/cckyFdlr.s:528    .text:000000000000039c .L0 
     /tmp/cckyFdlr.s:534    .text:00000000000003b0 .L0 
     /tmp/cckyFdlr.s:535    .text:00000000000003b0 .L0 
     /tmp/cckyFdlr.s:540    .text:00000000000003c0 .L0 
     /tmp/cckyFdlr.s:541    .text:00000000000003c0 .L0 
     /tmp/cckyFdlr.s:544    .text:00000000000003c8 .L0 
     /tmp/cckyFdlr.s:545    .text:00000000000003c8 .L0 
     /tmp/cckyFdlr.s:549    .text:00000000000003d8 .L0 
     /tmp/cckyFdlr.s:550    .text:00000000000003d8 .L0 
     /tmp/cckyFdlr.s:555    .text:00000000000003e0 .L0 
     /tmp/cckyFdlr.s:556    .text:00000000000003e0 .L0 
     /tmp/cckyFdlr.s:557    .text:00000000000003e0 .L0 
     /tmp/cckyFdlr.s:558    .text:00000000000003e0 .L0 
     /tmp/cckyFdlr.s:562    .text:00000000000003f0 .L0 
     /tmp/cckyFdlr.s:563    .text:00000000000003f0 .L0 
     /tmp/cckyFdlr.s:567    .text:0000000000000400 .L0 
     /tmp/cckyFdlr.s:568    .text:0000000000000400 .L0 
     /tmp/cckyFdlr.s:572    .text:0000000000000410 .L0 
     /tmp/cckyFdlr.s:573    .text:0000000000000410 .L0 
     /tmp/cckyFdlr.s:577    .text:000000000000041c .L0 
     /tmp/cckyFdlr.s:578    .text:000000000000041c .L0 
     /tmp/cckyFdlr.s:582    .text:000000000000042c .L0 
     /tmp/cckyFdlr.s:583    .text:000000000000042c .L0 
     /tmp/cckyFdlr.s:586    .text:0000000000000434 .L0 
     /tmp/cckyFdlr.s:587    .text:0000000000000434 .L0 
     /tmp/cckyFdlr.s:593    .text:000000000000043c .L0 
     /tmp/cckyFdlr.s:594    .text:000000000000043c .L0 
     /tmp/cckyFdlr.s:601    .text:0000000000000450 .L0 
        src/trap.cpp:177    .text:0000000000000450 .L0 
     /tmp/cckyFdlr.s:608    .text:0000000000000454 .L0 
     /tmp/cckyFdlr.s:609    .text:0000000000000458 .L0 
     /tmp/cckyFdlr.s:610    .text:0000000000000458 .L0 
     /tmp/cckyFdlr.s:612    .text:000000000000045c .L0 
     /tmp/cckyFdlr.s:613    .text:000000000000045c .L0 
     /tmp/cckyFdlr.s:615    .text:0000000000000460 .L0 
     /tmp/cckyFdlr.s:618    .text:0000000000000464 .L0 
     /tmp/cckyFdlr.s:621    .text:0000000000000468 .L0 
     /tmp/cckyFdlr.s:625    .text:000000000000046c .L0 
     /tmp/cckyFdlr.s:627    .text:000000000000046c .L0 
GAS LISTING /tmp/cckyFdlr.s 			page 26


     /tmp/cckyFdlr.s:628    .text:000000000000046c .L0 
     /tmp/cckyFdlr.s:637    .text:0000000000000484 .L0 
     /tmp/cckyFdlr.s:638    .text:0000000000000484 .L0 
     /tmp/cckyFdlr.s:644    .text:0000000000000490 .L0 
     /tmp/cckyFdlr.s:645    .text:0000000000000490 .L0 
     /tmp/cckyFdlr.s:652    .text:00000000000004a0 .L0 
     /tmp/cckyFdlr.s:654    .text:00000000000004a8 .L0 
     /tmp/cckyFdlr.s:663    .bss:0000000000000000 gTimer
     /tmp/cckyFdlr.s:660    .bss:0000000000000000 .LANCHOR0
     /tmp/cckyFdlr.s:670    .text:00000000000004a8 .L0 
     /tmp/cckyFdlr.s:112    .text:0000000000000048 .L0 
     /tmp/cckyFdlr.s:120    .text:0000000000000058 .L0 
     /tmp/cckyFdlr.s:41     .rodata.str1.8:0000000000000000 .LC0
     /tmp/cckyFdlr.s:131    .text:0000000000000068 .L0 
     /tmp/cckyFdlr.s:44     .rodata.str1.8:0000000000000028 .LC1
     /tmp/cckyFdlr.s:136    .text:0000000000000078 .L0 
     /tmp/cckyFdlr.s:47     .rodata.str1.8:0000000000000038 .LC2
     /tmp/cckyFdlr.s:141    .text:0000000000000088 .L0 
     /tmp/cckyFdlr.s:50     .rodata.str1.8:0000000000000048 .LC3
     /tmp/cckyFdlr.s:151    .text:00000000000000a4 .L0 
     /tmp/cckyFdlr.s:169    .text:00000000000000c4 .L0 
     /tmp/cckyFdlr.s:174    .text:00000000000000d4 .L0 
     /tmp/cckyFdlr.s:179    .text:00000000000000e4 .L0 
     /tmp/cckyFdlr.s:189    .text:0000000000000100 .L0 
     /tmp/cckyFdlr.s:59     .rodata.str1.8:0000000000000078 .LC6
     /tmp/cckyFdlr.s:211    .text:0000000000000130 .L0 
     /tmp/cckyFdlr.s:224    .text:0000000000000148 .L0 
     /tmp/cckyFdlr.s:229    .text:0000000000000158 .L0 
     /tmp/cckyFdlr.s:234    .text:0000000000000168 .L0 
     /tmp/cckyFdlr.s:244    .text:0000000000000184 .L0 
     /tmp/cckyFdlr.s:260    .text:00000000000001a4 .L0 
     /tmp/cckyFdlr.s:266    .text:00000000000001b8 .L0 
     /tmp/cckyFdlr.s:53     .rodata.str1.8:0000000000000068 .LC4
     /tmp/cckyFdlr.s:293    .text:00000000000001e8 .L0 
     /tmp/cckyFdlr.s:298    .text:00000000000001f8 .L0 
     /tmp/cckyFdlr.s:56     .rodata.str1.8:0000000000000070 .LC5
     /tmp/cckyFdlr.s:305    .text:0000000000000210 .L0 
     /tmp/cckyFdlr.s:426    .text:0000000000000298 .L0 
     /tmp/cckyFdlr.s:431    .text:00000000000002a8 .L0 
     /tmp/cckyFdlr.s:436    .text:00000000000002b8 .L0 
     /tmp/cckyFdlr.s:446    .text:00000000000002d4 .L0 
     /tmp/cckyFdlr.s:325    .rodata.str1.8:00000000000000a0 .LC7
     /tmp/cckyFdlr.s:462    .text:00000000000002f4 .L0 
     /tmp/cckyFdlr.s:337    .rodata.str1.8:0000000000000108 .LC11
     /tmp/cckyFdlr.s:476    .text:000000000000031c .L0 
     /tmp/cckyFdlr.s:485    .text:000000000000032c .L0 
     /tmp/cckyFdlr.s:490    .text:000000000000033c .L0 
     /tmp/cckyFdlr.s:495    .text:000000000000034c .L0 
     /tmp/cckyFdlr.s:505    .text:0000000000000368 .L0 
     /tmp/cckyFdlr.s:328    .rodata.str1.8:00000000000000c0 .LC8
     /tmp/cckyFdlr.s:521    .text:0000000000000388 .L0 
     /tmp/cckyFdlr.s:331    .rodata.str1.8:00000000000000d8 .LC9
     /tmp/cckyFdlr.s:528    .text:000000000000039c .L0 
     /tmp/cckyFdlr.s:334    .rodata.str1.8:00000000000000f0 .LC10
     /tmp/cckyFdlr.s:535    .text:00000000000003b0 .L0 
     /tmp/cckyFdlr.s:340    .rodata.str1.8:0000000000000130 .LC12
     /tmp/cckyFdlr.s:545    .text:00000000000003c8 .L0 
GAS LISTING /tmp/cckyFdlr.s 			page 27


     /tmp/cckyFdlr.s:558    .text:00000000000003e0 .L0 
     /tmp/cckyFdlr.s:563    .text:00000000000003f0 .L0 
     /tmp/cckyFdlr.s:568    .text:0000000000000400 .L0 
     /tmp/cckyFdlr.s:578    .text:000000000000041c .L0 
     /tmp/cckyFdlr.s:162    .text:00000000000000c4 .L10
     /tmp/cckyFdlr.s:200    .text:0000000000000120 .L5
     /tmp/cckyFdlr.s:255    .text:00000000000001a4 .L11
     /tmp/cckyFdlr.s:314    .text:000000000000022c .L12
     /tmp/cckyFdlr.s:289    .text:00000000000001e8 .L13
     /tmp/cckyFdlr.s:277    .text:00000000000001d8 .L3
     /tmp/cckyFdlr.s:457    .text:00000000000002f4 .L27
     /tmp/cckyFdlr.s:589    .text:000000000000043c .L28
     /tmp/cckyFdlr.s:624    .text:000000000000046c .L29
     /tmp/cckyFdlr.s:635    .text:0000000000000484 .L30
     /tmp/cckyFdlr.s:650    .text:00000000000004a0 .L25
     /tmp/cckyFdlr.s:642    .text:0000000000000490 .L31
     /tmp/cckyFdlr.s:516    .text:0000000000000388 .L32
     /tmp/cckyFdlr.s:525    .text:000000000000039c .L33
     /tmp/cckyFdlr.s:532    .text:00000000000003b0 .L34
     /tmp/cckyFdlr.s:538    .text:00000000000003c0 .L17
     /tmp/cckyFdlr.s:599    .text:0000000000000450 .L21
     /tmp/cckyFdlr.s:2106   .debug_abbrev:0000000000000000 .Ldebug_abbrev0
     /tmp/cckyFdlr.s:3597   .debug_str:00000000000004fd .LASF99
     /tmp/cckyFdlr.s:3477   .debug_str:00000000000001b1 .LASF100
     /tmp/cckyFdlr.s:3565   .debug_str:0000000000000408 .LASF101
     /tmp/cckyFdlr.s:5      .text:0000000000000000 .Ltext0
     /tmp/cckyFdlr.s:666    .text:00000000000004a8 .Letext0
     /tmp/cckyFdlr.s:3413   .debug_line:0000000000000000 .Ldebug_line0
     /tmp/cckyFdlr.s:3531   .debug_str:0000000000000309 .LASF0
     /tmp/cckyFdlr.s:3543   .debug_str:0000000000000347 .LASF1
     /tmp/cckyFdlr.s:3515   .debug_str:000000000000029d .LASF2
     /tmp/cckyFdlr.s:3493   .debug_str:000000000000021c .LASF4
     /tmp/cckyFdlr.s:3579   .debug_str:0000000000000476 .LASF3
     /tmp/cckyFdlr.s:3437   .debug_str:0000000000000096 .LASF5
     /tmp/cckyFdlr.s:3547   .debug_str:0000000000000379 .LASF6
     /tmp/cckyFdlr.s:3529   .debug_str:00000000000002f6 .LASF7
     /tmp/cckyFdlr.s:3605   .debug_str:00000000000005e8 .LASF8
     /tmp/cckyFdlr.s:3483   .debug_str:00000000000001e0 .LASF9
     /tmp/cckyFdlr.s:3559   .debug_str:00000000000003b3 .LASF10
     /tmp/cckyFdlr.s:3599   .debug_str:00000000000005c1 .LASF11
     /tmp/cckyFdlr.s:3441   .debug_str:00000000000000a8 .LASF12
     /tmp/cckyFdlr.s:3423   .debug_str:000000000000004e .LASF13
     /tmp/cckyFdlr.s:3451   .debug_str:0000000000000114 .LASF14
     /tmp/cckyFdlr.s:3575   .debug_str:0000000000000455 .LASF15
     /tmp/cckyFdlr.s:3461   .debug_str:0000000000000143 .LASF16
     /tmp/cckyFdlr.s:3517   .debug_str:00000000000002ab .LASF33
     /tmp/cckyFdlr.s:3479   .debug_str:00000000000001be .LASF102
     /tmp/cckyFdlr.s:3587   .debug_str:00000000000004c3 .LASF20
     /tmp/cckyFdlr.s:3485   .debug_str:00000000000001ee .LASF17
     /tmp/cckyFdlr.s:3591   .debug_str:00000000000004dc .LASF18
     /tmp/cckyFdlr.s:3615   .debug_str:0000000000000633 .LASF19
     /tmp/cckyFdlr.s:3419   .debug_str:0000000000000010 .LASF22
     /tmp/cckyFdlr.s:3527   .debug_str:00000000000002ec .LASF24
     /tmp/cckyFdlr.s:3491   .debug_str:0000000000000212 .LASF21
     /tmp/cckyFdlr.s:3513   .debug_str:000000000000027f .LASF23
     /tmp/cckyFdlr.s:3473   .debug_str:00000000000001a1 .LASF25
     /tmp/cckyFdlr.s:3613   .debug_str:000000000000062a .LASF26
GAS LISTING /tmp/cckyFdlr.s 			page 28


     /tmp/cckyFdlr.s:3449   .debug_str:00000000000000fc .LASF28
     /tmp/cckyFdlr.s:3551   .debug_str:0000000000000391 .LASF27
     /tmp/cckyFdlr.s:3489   .debug_str:00000000000001fa .LASF29
     /tmp/cckyFdlr.s:3603   .debug_str:00000000000005d7 .LASF30
     /tmp/cckyFdlr.s:3421   .debug_str:000000000000002d .LASF31
     /tmp/cckyFdlr.s:3619   .debug_str:0000000000000657 .LASF51
     /tmp/cckyFdlr.s:3621   .debug_str:000000000000066a .LASF53
     /tmp/cckyFdlr.s:3505   .debug_str:0000000000000253 .LASF32
     /tmp/cckyFdlr.s:3541   .debug_str:0000000000000336 .LASF34
     /tmp/cckyFdlr.s:3549   .debug_str:000000000000038c .LASF35
     /tmp/cckyFdlr.s:3415   .debug_str:0000000000000000 .LASF36
     /tmp/cckyFdlr.s:3601   .debug_str:00000000000005d0 .LASF37
     /tmp/cckyFdlr.s:3487   .debug_str:00000000000001f4 .LASF103
     /tmp/cckyFdlr.s:3553   .debug_str:0000000000000399 .LASF38
     /tmp/cckyFdlr.s:3523   .debug_str:00000000000002c7 .LASF39
     /tmp/cckyFdlr.s:3557   .debug_str:00000000000003ad .LASF40
     /tmp/cckyFdlr.s:3521   .debug_str:00000000000002ba .LASF41
     /tmp/cckyFdlr.s:3507   .debug_str:0000000000000261 .LASF42
     /tmp/cckyFdlr.s:3469   .debug_str:0000000000000190 .LASF43
     /tmp/cckyFdlr.s:3611   .debug_str:000000000000061c .LASF44
     /tmp/cckyFdlr.s:3561   .debug_str:00000000000003c2 .LASF49
     /tmp/cckyFdlr.s:3589   .debug_str:00000000000004cc .LASF45
     /tmp/cckyFdlr.s:3625   .debug_str:0000000000000699 .LASF46
     /tmp/cckyFdlr.s:3581   .debug_str:0000000000000488 .LASF47
     /tmp/cckyFdlr.s:3595   .debug_str:00000000000004f1 .LASF48
     /tmp/cckyFdlr.s:3465   .debug_str:0000000000000166 .LASF50
     /tmp/cckyFdlr.s:3555   .debug_str:00000000000003a1 .LASF69
     /tmp/cckyFdlr.s:3571   .debug_str:0000000000000431 .LASF70
     /tmp/cckyFdlr.s:3501   .debug_str:000000000000023b .LASF52
     /tmp/cckyFdlr.s:3563   .debug_str:00000000000003de .LASF54
     /tmp/cckyFdlr.s:3569   .debug_str:000000000000042c .LASF59
     /tmp/cckyFdlr.s:3509   .debug_str:000000000000026d .LASF55
     /tmp/cckyFdlr.s:3435   .debug_str:0000000000000084 .LASF56
     /tmp/cckyFdlr.s:3431   .debug_str:0000000000000077 .LASF57
     /tmp/cckyFdlr.s:3497   .debug_str:000000000000022e .LASF58
     /tmp/cckyFdlr.s:3427   .debug_str:0000000000000065 .LASF60
     /tmp/cckyFdlr.s:3499   .debug_str:0000000000000233 .LASF61
     /tmp/cckyFdlr.s:3623   .debug_str:000000000000068d .LASF62
     /tmp/cckyFdlr.s:3539   .debug_str:000000000000032c .LASF63
     /tmp/cckyFdlr.s:3453   .debug_str:0000000000000120 .LASF64
     /tmp/cckyFdlr.s:3607   .debug_str:00000000000005f8 .LASF65
     /tmp/cckyFdlr.s:3511   .debug_str:0000000000000272 .LASF66
     /tmp/cckyFdlr.s:3525   .debug_str:00000000000002d1 .LASF67
     /tmp/cckyFdlr.s:3481   .debug_str:00000000000001d1 .LASF68
     /tmp/cckyFdlr.s:3583   .debug_str:0000000000000499 .LASF71
     /tmp/cckyFdlr.s:3533   .debug_str:0000000000000316 .LASF72
     /tmp/cckyFdlr.s:3475   .debug_str:00000000000001ac .LASF73
     /tmp/cckyFdlr.s:3433   .debug_str:000000000000007d .LASF74
     /tmp/cckyFdlr.s:3445   .debug_str:00000000000000d2 .LASF75
     /tmp/cckyFdlr.s:3617   .debug_str:0000000000000638 .LASF76
     /tmp/cckyFdlr.s:347    .text:0000000000000238 .LFB17
     /tmp/cckyFdlr.s:655    .text:00000000000004a8 .LFE17
     /tmp/cckyFdlr.s:3425   .debug_str:000000000000005e .LASF77
     /tmp/cckyFdlr.s:3013   .debug_loc:0000000000000000 .LLST13
     /tmp/cckyFdlr.s:3455   .debug_str:000000000000012d .LASF78
     /tmp/cckyFdlr.s:3020   .debug_loc:0000000000000023 .LLST14
     /tmp/cckyFdlr.s:3537   .debug_str:0000000000000327 .LASF79
GAS LISTING /tmp/cckyFdlr.s 			page 29


     /tmp/cckyFdlr.s:3031   .debug_loc:0000000000000059 .LLST15
     /tmp/cckyFdlr.s:3457   .debug_str:0000000000000133 .LASF80
     /tmp/cckyFdlr.s:3062   .debug_loc:00000000000000ee .LLST16
     /tmp/cckyFdlr.s:3073   .debug_loc:0000000000000124 .LLST17
     /tmp/cckyFdlr.s:421    .text:0000000000000298 .LBB34
     /tmp/cckyFdlr.s:459    .text:00000000000002f4 .LBE34
     /tmp/cckyFdlr.s:3128   .debug_loc:00000000000001fe .LLST18
     /tmp/cckyFdlr.s:3137   .debug_loc:0000000000000223 .LLST19
     /tmp/cckyFdlr.s:3146   .debug_loc:000000000000024f .LLST20
     /tmp/cckyFdlr.s:428    .text:00000000000002a8 .LVL44
     /tmp/cckyFdlr.s:433    .text:00000000000002b8 .LVL45
     /tmp/cckyFdlr.s:438    .text:00000000000002c8 .LVL46
     /tmp/cckyFdlr.s:443    .text:00000000000002d4 .LVL47
     /tmp/cckyFdlr.s:448    .text:00000000000002e4 .LVL48
     /tmp/cckyFdlr.s:452    .text:00000000000002ec .LVL49
     /tmp/cckyFdlr.s:456    .text:00000000000002f4 .LVL50
     /tmp/cckyFdlr.s:480    .text:000000000000032c .LBB36
     /tmp/cckyFdlr.s:518    .text:0000000000000388 .LBE36
     /tmp/cckyFdlr.s:3154   .debug_loc:0000000000000273 .LLST21
     /tmp/cckyFdlr.s:3163   .debug_loc:0000000000000298 .LLST22
     /tmp/cckyFdlr.s:3172   .debug_loc:00000000000002c4 .LLST23
     /tmp/cckyFdlr.s:487    .text:000000000000033c .LVL53
     /tmp/cckyFdlr.s:492    .text:000000000000034c .LVL54
     /tmp/cckyFdlr.s:497    .text:000000000000035c .LVL55
     /tmp/cckyFdlr.s:502    .text:0000000000000368 .LVL56
     /tmp/cckyFdlr.s:507    .text:0000000000000378 .LVL57
     /tmp/cckyFdlr.s:511    .text:0000000000000380 .LVL58
     /tmp/cckyFdlr.s:515    .text:0000000000000388 .LVL59
     /tmp/cckyFdlr.s:553    .text:00000000000003e0 .LBB38
     /tmp/cckyFdlr.s:591    .text:000000000000043c .LBE38
     /tmp/cckyFdlr.s:3180   .debug_loc:00000000000002e8 .LLST24
     /tmp/cckyFdlr.s:3189   .debug_loc:000000000000030d .LLST25
     /tmp/cckyFdlr.s:3198   .debug_loc:0000000000000339 .LLST26
     /tmp/cckyFdlr.s:560    .text:00000000000003f0 .LVL66
     /tmp/cckyFdlr.s:565    .text:0000000000000400 .LVL67
     /tmp/cckyFdlr.s:570    .text:0000000000000410 .LVL68
     /tmp/cckyFdlr.s:575    .text:000000000000041c .LVL69
     /tmp/cckyFdlr.s:580    .text:000000000000042c .LVL70
     /tmp/cckyFdlr.s:584    .text:0000000000000434 .LVL71
     /tmp/cckyFdlr.s:588    .text:000000000000043c .LVL72
     /tmp/cckyFdlr.s:464    .text:0000000000000304 .LVL51
     /tmp/cckyFdlr.s:478    .text:000000000000032c .LVL52
     /tmp/cckyFdlr.s:523    .text:0000000000000398 .LVL60
     /tmp/cckyFdlr.s:530    .text:00000000000003ac .LVL61
     /tmp/cckyFdlr.s:537    .text:00000000000003c0 .LVL62
     /tmp/cckyFdlr.s:542    .text:00000000000003c8 .LVL63
     /tmp/cckyFdlr.s:547    .text:00000000000003d8 .LVL64
     /tmp/cckyFdlr.s:551    .text:00000000000003e0 .LVL65
     /tmp/cckyFdlr.s:595    .text:0000000000000444 .LVL73
     /tmp/cckyFdlr.s:598    .text:0000000000000450 .LVL74
     /tmp/cckyFdlr.s:629    .text:0000000000000474 .LVL78
     /tmp/cckyFdlr.s:632    .text:0000000000000480 .LVL79
     /tmp/cckyFdlr.s:639    .text:000000000000048c .LVL81
     /tmp/cckyFdlr.s:647    .text:000000000000049c .LVL83
     /tmp/cckyFdlr.s:3443   .debug_str:00000000000000b8 .LASF81
     /tmp/cckyFdlr.s:3545   .debug_str:000000000000035a .LASF82
     /tmp/cckyFdlr.s:66     .text:0000000000000028 .LFB16
GAS LISTING /tmp/cckyFdlr.s 			page 30


     /tmp/cckyFdlr.s:321    .text:0000000000000238 .LFE16
     /tmp/cckyFdlr.s:3206   .debug_loc:000000000000035d .LLST1
     /tmp/cckyFdlr.s:3439   .debug_str:000000000000009d .LASF83
     /tmp/cckyFdlr.s:3217   .debug_loc:0000000000000393 .LLST2
     /tmp/cckyFdlr.s:3244   .debug_loc:00000000000003d9 .LLST3
     /tmp/cckyFdlr.s:89     .text:000000000000003c .LBB12
     /tmp/cckyFdlr.s:3405   .debug_ranges:0000000000000000 .Ldebug_ranges0
     /tmp/cckyFdlr.s:3275   .debug_loc:000000000000046e .LLST4
     /tmp/cckyFdlr.s:3290   .debug_loc:00000000000004a8 .LLST5
     /tmp/cckyFdlr.s:3305   .debug_loc:00000000000004f0 .LLST6
     /tmp/cckyFdlr.s:171    .text:00000000000000d4 .LVL13
     /tmp/cckyFdlr.s:176    .text:00000000000000e4 .LVL14
     /tmp/cckyFdlr.s:181    .text:00000000000000f4 .LVL15
     /tmp/cckyFdlr.s:186    .text:0000000000000100 .LVL16
     /tmp/cckyFdlr.s:191    .text:0000000000000110 .LVL17
     /tmp/cckyFdlr.s:195    .text:0000000000000118 .LVL18
     /tmp/cckyFdlr.s:199    .text:0000000000000120 .LVL19
     /tmp/cckyFdlr.s:107    .text:0000000000000048 .LBB15
     /tmp/cckyFdlr.s:116    .text:0000000000000054 .LBE15
     /tmp/cckyFdlr.s:126    .text:0000000000000068 .LBB17
     /tmp/cckyFdlr.s:164    .text:00000000000000c4 .LBE17
     /tmp/cckyFdlr.s:3326   .debug_loc:0000000000000530 .LLST7
     /tmp/cckyFdlr.s:3335   .debug_loc:0000000000000555 .LLST8
     /tmp/cckyFdlr.s:3344   .debug_loc:0000000000000581 .LLST9
     /tmp/cckyFdlr.s:133    .text:0000000000000078 .LVL6
     /tmp/cckyFdlr.s:138    .text:0000000000000088 .LVL7
     /tmp/cckyFdlr.s:143    .text:0000000000000098 .LVL8
     /tmp/cckyFdlr.s:148    .text:00000000000000a4 .LVL9
     /tmp/cckyFdlr.s:153    .text:00000000000000b4 .LVL10
     /tmp/cckyFdlr.s:157    .text:00000000000000bc .LVL11
     /tmp/cckyFdlr.s:161    .text:00000000000000c4 .LVL12
     /tmp/cckyFdlr.s:219    .text:0000000000000148 .LBB20
     /tmp/cckyFdlr.s:257    .text:00000000000001a4 .LBE20
     /tmp/cckyFdlr.s:3352   .debug_loc:00000000000005a5 .LLST10
     /tmp/cckyFdlr.s:3361   .debug_loc:00000000000005ca .LLST11
     /tmp/cckyFdlr.s:3370   .debug_loc:00000000000005f6 .LLST12
     /tmp/cckyFdlr.s:226    .text:0000000000000158 .LVL22
     /tmp/cckyFdlr.s:231    .text:0000000000000168 .LVL23
     /tmp/cckyFdlr.s:236    .text:0000000000000178 .LVL24
     /tmp/cckyFdlr.s:241    .text:0000000000000184 .LVL25
     /tmp/cckyFdlr.s:246    .text:0000000000000194 .LVL26
     /tmp/cckyFdlr.s:250    .text:000000000000019c .LVL27
     /tmp/cckyFdlr.s:254    .text:00000000000001a4 .LVL28
     /tmp/cckyFdlr.s:213    .text:0000000000000140 .LVL20
     /tmp/cckyFdlr.s:217    .text:0000000000000148 .LVL21
     /tmp/cckyFdlr.s:295    .text:00000000000001f8 .LVL31
     /tmp/cckyFdlr.s:302    .text:0000000000000210 .LVL32
     /tmp/cckyFdlr.s:307    .text:0000000000000220 .LVL33
     /tmp/cckyFdlr.s:311    .text:0000000000000228 .LVL34
     /tmp/cckyFdlr.s:318    .text:0000000000000234 .LVL36
     /tmp/cckyFdlr.s:3609   .debug_str:0000000000000613 .LASF104
     /tmp/cckyFdlr.s:3463   .debug_str:0000000000000159 .LASF105
     /tmp/cckyFdlr.s:10     .text:0000000000000000 .LFB15
     /tmp/cckyFdlr.s:37     .text:0000000000000028 .LFE15
     /tmp/cckyFdlr.s:3378   .debug_loc:000000000000061a .LLST0
     /tmp/cckyFdlr.s:26     .text:0000000000000018 .LVL1
     /tmp/cckyFdlr.s:3573   .debug_str:000000000000044d .LASF84
GAS LISTING /tmp/cckyFdlr.s 			page 31


     /tmp/cckyFdlr.s:3593   .debug_str:00000000000004e1 .LASF85
     /tmp/cckyFdlr.s:3519   .debug_str:00000000000002b4 .LASF86
     /tmp/cckyFdlr.s:3459   .debug_str:000000000000013e .LASF87
     /tmp/cckyFdlr.s:3471   .debug_str:000000000000019c .LASF88
     /tmp/cckyFdlr.s:3447   .debug_str:00000000000000ec .LASF89
     /tmp/cckyFdlr.s:3429   .debug_str:000000000000006d .LASF91
     /tmp/cckyFdlr.s:3495   .debug_str:0000000000000223 .LASF90
     /tmp/cckyFdlr.s:3417   .debug_str:0000000000000009 .LASF92
     /tmp/cckyFdlr.s:3585   .debug_str:00000000000004b3 .LASF93
     /tmp/cckyFdlr.s:3577   .debug_str:000000000000046b .LASF94
     /tmp/cckyFdlr.s:3567   .debug_str:000000000000041c .LASF95
     /tmp/cckyFdlr.s:3503   .debug_str:0000000000000248 .LASF96
     /tmp/cckyFdlr.s:3467   .debug_str:0000000000000180 .LASF97
     /tmp/cckyFdlr.s:3535   .debug_str:000000000000031f .LASF98
     /tmp/cckyFdlr.s:369    .text:0000000000000254 .LVL37
     /tmp/cckyFdlr.s:398    .text:0000000000000268 .LVL41
     /tmp/cckyFdlr.s:374    .text:0000000000000258 .LVL38
     /tmp/cckyFdlr.s:616    .text:0000000000000460 .LVL75
     /tmp/cckyFdlr.s:623    .text:000000000000046c .LVL77
     /tmp/cckyFdlr.s:387    .text:0000000000000260 .LVL39
     /tmp/cckyFdlr.s:634    .text:0000000000000484 .LVL80
     /tmp/cckyFdlr.s:641    .text:0000000000000490 .LVL82
     /tmp/cckyFdlr.s:649    .text:00000000000004a0 .LVL84
     /tmp/cckyFdlr.s:393    .text:0000000000000264 .LVL40
     /tmp/cckyFdlr.s:619    .text:0000000000000464 .LVL76
     /tmp/cckyFdlr.s:403    .text:0000000000000270 .LVL42
     /tmp/cckyFdlr.s:420    .text:0000000000000298 .LVL43
     /tmp/cckyFdlr.s:84     .text:000000000000003c .LVL2
     /tmp/cckyFdlr.s:113    .text:0000000000000050 .LVL4
     /tmp/cckyFdlr.s:276    .text:00000000000001d8 .LVL29
     /tmp/cckyFdlr.s:288    .text:00000000000001e8 .LVL30
     /tmp/cckyFdlr.s:313    .text:000000000000022c .LVL35
     /tmp/cckyFdlr.s:96     .text:0000000000000044 .LVL3
     /tmp/cckyFdlr.s:125    .text:0000000000000068 .LVL5
     /tmp/cckyFdlr.s:14     .text:0000000000000000 .LVL0
     /tmp/cckyFdlr.s:671    .debug_info:0000000000000000 .Ldebug_info0
     /tmp/cckyFdlr.s:98     .text:0000000000000044 .LBE12
     /tmp/cckyFdlr.s:165    .text:00000000000000c4 .LBB19
     /tmp/cckyFdlr.s:202    .text:0000000000000120 .LBE19

UNDEFINED SYMBOLS
_Z3fibm
_ZN6Thread8pRunningE
_ZN6Thread15pRunningContextE
_Z9putStringPKc
_Z6putInti
_Z10putNewlinev
_Z10stopKernelv
_ZN6Thread16timeSliceCounterE
console_handler
_ZN8MemAlloc3getEv
_ZN8MemAlloc8allocMemEm
_ZN8MemAlloc7freeMemEPv
_ZN6Thread4exitEv
