GAS LISTING /tmp/ccVbHWeR.s 			page 1


   1              		.file	"trap.cpp"
   2              		.option pic
   3              		.option norelax
   4              		.text
   5              	.Ltext0:
   6              		.align	2
   7              		.globl	_Z8testCallm
   9              	_Z8testCallm:
  10              	.LFB18:
  11              		.file 1 "src/trap.cpp"
   1:src/trap.cpp  **** #include "../h/thread.h"
   2:src/trap.cpp  **** #include "../h/scheduler.h"
   3:src/trap.cpp  **** #include "../h/alloc.h"
   4:src/trap.cpp  **** #include "../h/0_console.h"
   5:src/trap.cpp  **** 
   6:src/trap.cpp  **** #include "../lib/console.h"
   7:src/trap.cpp  **** 
   8:src/trap.cpp  **** uint64 gTimer = 0;
   9:src/trap.cpp  **** 
  10:src/trap.cpp  **** uint64 fib(uint64 n);
  11:src/trap.cpp  **** 
  12:src/trap.cpp  **** uint64 testCall(uint64 n)
  13:src/trap.cpp  **** {
  12              		.loc 1 13 1
  13              		.cfi_startproc
  14              	.LVL0:
  15 0000 130101FF 		addi	sp,sp,-16
  16              		.cfi_def_cfa_offset 16
  17 0004 23341100 		sd	ra,8(sp)
  18 0008 23308100 		sd	s0,0(sp)
  19              		.cfi_offset 1, -8
  20              		.cfi_offset 8, -16
  21 000c 13040101 		addi	s0,sp,16
  22              		.cfi_def_cfa 8, 0
  14:src/trap.cpp  ****     return fib(n);
  23              		.loc 1 14 5
  24              		.loc 1 14 15 is_stmt 0
  25 0010 97000000 		call	_Z3fibm@plt
  25      E7800000 
  26              	.LVL1:
  15:src/trap.cpp  **** }
  27              		.loc 1 15 1
  28 0018 83308100 		ld	ra,8(sp)
  29              		.cfi_restore 1
  30 001c 03340100 		ld	s0,0(sp)
  31              		.cfi_restore 8
  32              		.cfi_def_cfa 2, 16
  33 0020 13010101 		addi	sp,sp,16
  34              		.cfi_def_cfa_offset 0
  35 0024 67800000 		jr	ra
  36              		.cfi_endproc
  37              	.LFE18:
  39              		.section	.rodata.str1.8,"aMS",@progbits,1
  40              		.align	3
  41              	.LC0:
  42 0000 54696D65 		.string	"Time: "
  42      3A2000
GAS LISTING /tmp/ccVbHWeR.s 			page 2


  43 0007 00       		.align	3
  44              	.LC1:
  45 0008 7300     		.string	"s"
  46              		.text
  47              		.align	2
  48              		.globl	_Z12doTimerStuffv
  50              	_Z12doTimerStuffv:
  51              	.LFB19:
  16:src/trap.cpp  **** 
  17:src/trap.cpp  **** void doTimerStuff()
  18:src/trap.cpp  **** {
  52              		.loc 1 18 1 is_stmt 1
  53              		.cfi_startproc
  54 0028 130101FF 		addi	sp,sp,-16
  55              		.cfi_def_cfa_offset 16
  56 002c 23341100 		sd	ra,8(sp)
  57 0030 23308100 		sd	s0,0(sp)
  58              		.cfi_offset 1, -8
  59              		.cfi_offset 8, -16
  60 0034 13040101 		addi	s0,sp,16
  61              		.cfi_def_cfa 8, 0
  19:src/trap.cpp  ****     IThread::timeSliceCounter++;
  62              		.loc 1 19 5
  63              		.loc 1 19 30 is_stmt 0
  64 0038 17070000 		la	a4,_ZN7IThread16timeSliceCounterE
  64      03370700 
  65 0040 83370700 		ld	a5,0(a4)
  66 0044 93871700 		addi	a5,a5,1
  67 0048 2330F700 		sd	a5,0(a4)
  20:src/trap.cpp  ****     if(IThread::timeSliceCounter == 2)
  68              		.loc 1 20 5 is_stmt 1
  69 004c 13072000 		li	a4,2
  70 0050 638AE702 		beq	a5,a4,.L7
  71              	.L4:
  21:src/trap.cpp  ****     {
  22:src/trap.cpp  ****         IThread::timeSliceCounter = 0;
  23:src/trap.cpp  ****         Scheduler::dispatchUserVersion();
  24:src/trap.cpp  ****     }
  25:src/trap.cpp  **** 
  26:src/trap.cpp  ****     gTimer++;
  72              		.loc 1 26 5
  73              		.loc 1 26 11 is_stmt 0
  74 0054 17070000 		lla	a4,.LANCHOR0
  74      13070700 
  75 005c 83370700 		ld	a5,0(a4)
  76 0060 93871700 		addi	a5,a5,1
  77 0064 2330F700 		sd	a5,0(a4)
  27:src/trap.cpp  ****     if (gTimer % 10 == 0)
  78              		.loc 1 27 5 is_stmt 1
  79              		.loc 1 27 16 is_stmt 0
  80 0068 1307A000 		li	a4,10
  81 006c B3F7E702 		remu	a5,a5,a4
  82              		.loc 1 27 5
  83 0070 63860702 		beqz	a5,.L8
  84              	.L3:
  28:src/trap.cpp  ****     {
  29:src/trap.cpp  ****         putString("Time: ");
GAS LISTING /tmp/ccVbHWeR.s 			page 3


  30:src/trap.cpp  ****         putInt(gTimer / 10);
  31:src/trap.cpp  ****         putString("s");
  32:src/trap.cpp  ****         putNewline();
  33:src/trap.cpp  ****     }
  34:src/trap.cpp  **** }
  85              		.loc 1 34 1
  86 0074 83308100 		ld	ra,8(sp)
  87              		.cfi_remember_state
  88              		.cfi_restore 1
  89 0078 03340100 		ld	s0,0(sp)
  90              		.cfi_restore 8
  91              		.cfi_def_cfa 2, 16
  92 007c 13010101 		addi	sp,sp,16
  93              		.cfi_def_cfa_offset 0
  94 0080 67800000 		jr	ra
  95              	.L7:
  96              		.cfi_restore_state
  22:src/trap.cpp  ****         Scheduler::dispatchUserVersion();
  97              		.loc 1 22 9 is_stmt 1
  22:src/trap.cpp  ****         Scheduler::dispatchUserVersion();
  98              		.loc 1 22 35 is_stmt 0
  99 0084 97070000 		la	a5,_ZN7IThread16timeSliceCounterE
  99      83B70700 
 100 008c 23B00700 		sd	zero,0(a5)
  23:src/trap.cpp  ****     }
 101              		.loc 1 23 9 is_stmt 1
  23:src/trap.cpp  ****     }
 102              		.loc 1 23 39 is_stmt 0
 103 0090 97000000 		call	_ZN9Scheduler19dispatchUserVersionEv@plt
 103      E7800000 
 104              	.LVL2:
 105 0098 6FF0DFFB 		j	.L4
 106              	.L8:
  29:src/trap.cpp  ****         putInt(gTimer / 10);
 107              		.loc 1 29 9 is_stmt 1
  29:src/trap.cpp  ****         putInt(gTimer / 10);
 108              		.loc 1 29 18 is_stmt 0
 109 009c 17050000 		lla	a0,.LC0
 109      13050500 
 110 00a4 97000000 		call	_Z9putStringPKc@plt
 110      E7800000 
 111              	.LVL3:
  30:src/trap.cpp  ****         putString("s");
 112              		.loc 1 30 9 is_stmt 1
  30:src/trap.cpp  ****         putString("s");
 113              		.loc 1 30 23 is_stmt 0
 114 00ac 17050000 		ld	a0,.LANCHOR0
 114      03350500 
 115 00b4 9307A000 		li	a5,10
 116 00b8 3355F502 		divu	a0,a0,a5
  30:src/trap.cpp  ****         putString("s");
 117              		.loc 1 30 15
 118 00bc 1B050500 		sext.w	a0,a0
 119 00c0 97000000 		call	_Z6putInti@plt
 119      E7800000 
 120              	.LVL4:
  31:src/trap.cpp  ****         putNewline();
GAS LISTING /tmp/ccVbHWeR.s 			page 4


 121              		.loc 1 31 9 is_stmt 1
  31:src/trap.cpp  ****         putNewline();
 122              		.loc 1 31 18 is_stmt 0
 123 00c8 17050000 		lla	a0,.LC1
 123      13050500 
 124 00d0 97000000 		call	_Z9putStringPKc@plt
 124      E7800000 
 125              	.LVL5:
  32:src/trap.cpp  ****     }
 126              		.loc 1 32 9 is_stmt 1
  32:src/trap.cpp  ****     }
 127              		.loc 1 32 19 is_stmt 0
 128 00d8 97000000 		call	_Z10putNewlinev@plt
 128      E7800000 
 129              	.LVL6:
 130              		.loc 1 34 1
 131 00e0 6FF05FF9 		j	.L3
 132              		.cfi_endproc
 133              	.LFE19:
 135              		.section	.rodata.str1.8
 136 000a 00000000 		.align	3
 136      0000
 137              	.LC2:
 138 0010 3D3D3D3D 		.string	"===================== ASSERT file: "
 138      3D3D3D3D 
 138      3D3D3D3D 
 138      3D3D3D3D 
 138      3D3D3D3D 
 139 0034 00000000 		.align	3
 140              	.LC3:
 141 0038 7372632F 		.string	"src/trap.cpp"
 141      74726170 
 141      2E637070 
 141      00
 142 0045 000000   		.align	3
 143              	.LC4:
 144 0048 20202020 		.string	"    line: "
 144      6C696E65 
 144      3A2000
 145 0053 00000000 		.align	3
 145      00
 146              	.LC5:
 147 0058 2020203D 		.string	"   ==========================="
 147      3D3D3D3D 
 147      3D3D3D3D 
 147      3D3D3D3D 
 147      3D3D3D3D 
 148              		.text
 149              		.align	2
 150              		.globl	_Z22cTimerInterruptRoutinev
 152              	_Z22cTimerInterruptRoutinev:
 153              	.LFB20:
  35:src/trap.cpp  **** 
  36:src/trap.cpp  **** void cTimerInterruptRoutine()
  37:src/trap.cpp  **** {
 154              		.loc 1 37 1 is_stmt 1
 155              		.cfi_startproc
GAS LISTING /tmp/ccVbHWeR.s 			page 5


 156 00e4 130101FE 		addi	sp,sp,-32
 157              		.cfi_def_cfa_offset 32
 158 00e8 233C1100 		sd	ra,24(sp)
 159 00ec 23388100 		sd	s0,16(sp)
 160 00f0 23349100 		sd	s1,8(sp)
 161              		.cfi_offset 1, -8
 162              		.cfi_offset 8, -16
 163              		.cfi_offset 9, -24
 164 00f4 13040102 		addi	s0,sp,32
 165              		.cfi_def_cfa 8, 0
  38:src/trap.cpp  ****     __asm__ volatile ("mv x10, x10");
 166              		.loc 1 38 5
 167              		.loc 1 38 37 is_stmt 0
 168              	#APP
 169              	# 38 "src/trap.cpp" 1
  39              	
  40:src/trap.cpp  ****     uint64 scause;
 170              		mv x10, x10
 171              	# 0 "" 2
 172              		.loc 1 40 5 is_stmt 1
  41:src/trap.cpp  ****     __asm__ volatile ("csrr %[name], scause" : [name] "=r"(scause));
 173              		.loc 1 41 5
 174              		.loc 1 41 68 is_stmt 0
 175              	# 41 "src/trap.cpp" 1
  42              	
 176              		csrr s1, scause
 177              	# 0 "" 2
 178              	.LVL7:
  43:src/trap.cpp  ****     int cause = scause & (~(1UL << 63));
 179              		.loc 1 43 5 is_stmt 1
  44:src/trap.cpp  **** 
  45:src/trap.cpp  ****     __asm__ volatile ("csrc sip, 0xA"); // clears the 9th bit in register sip. (the bit signifies e
 180              		.loc 1 45 5
 181              		.loc 1 45 39 is_stmt 0
 182              	# 45 "src/trap.cpp" 1
  46              	//    __asm__ volatile ("csrc sstatus, 0x02");
  47:src/trap.cpp  **** 
  48:src/trap.cpp  ****     assert(&(IThread::getPRunning()->sp) == IThread::pRunningSp);
 183              		csrc sip, 0xA
 184              	# 0 "" 2
 185              		.loc 1 48 5 is_stmt 1
 186              	#NO_APP
 187 0104 97000000 		call	_ZN7IThread11getPRunningEv@plt
 187      E7800000 
 188              	.LVL8:
 189 010c 13058504 		addi	a0,a0,72
 190 0110 97070000 		la	a5,_ZN7IThread10pRunningSpE
 190      83B70700 
 191 0118 83B70700 		ld	a5,0(a5)
 192              	.LVL9:
 193              	.LBB19:
 194              	.LBB20:
 195              		.file 2 "src/../h/../h/my_console.h"
   1:src/../h/../h/my_console.h **** #pragma once
   2:src/../h/../h/my_console.h **** 
   3:src/../h/../h/my_console.h **** #include "../h/risc.h"
   4:src/../h/../h/my_console.h **** 
GAS LISTING /tmp/ccVbHWeR.s 			page 6


   5:src/../h/../h/my_console.h **** #include "../lib/hw.h"
   6:src/../h/../h/my_console.h **** 
   7:src/../h/../h/my_console.h **** #define __DEBUG_MODE
   8:src/../h/../h/my_console.h **** 
   9:src/../h/../h/my_console.h **** 
  10:src/../h/../h/my_console.h **** void putString(const char* s);
  11:src/../h/../h/my_console.h **** void putInt(int n);
  12:src/../h/../h/my_console.h **** void putNewline();
  13:src/../h/../h/my_console.h **** void putU64(uint64 n);
  14:src/../h/../h/my_console.h **** void putBinary(uint64 n);
  15:src/../h/../h/my_console.h **** 
  16:src/../h/../h/my_console.h **** [[noreturn]] void stopKernel();
  17:src/../h/../h/my_console.h **** 
  18:src/../h/../h/my_console.h **** inline void _assert(bool valid, const char* file, int line) // MUST be inline
  19:src/../h/../h/my_console.h **** {
  20:src/../h/../h/my_console.h ****     if(valid)
 196              		.loc 2 20 5
 197 011c 6396A706 		bne	a5,a0,.L16
 198 0120 9B840400 		sext.w	s1,s1
 199              	.LVL10:
  21:src/../h/../h/my_console.h ****         return;
 200              		.loc 2 21 9
 201              	.LBE20:
 202              	.LBE19:
  49:src/trap.cpp  ****     if(cause == 1)
 203              		.loc 1 49 5
 204 0124 93071000 		li	a5,1
 205 0128 638EF40A 		beq	s1,a5,.L17
  50:src/trap.cpp  ****     {
  51:src/trap.cpp  ****         doTimerStuff();
  52:src/trap.cpp  **** //        doUnsleepThreads();
  53:src/trap.cpp  ****     }
  54:src/trap.cpp  ****     else if (cause == 9)
 206              		.loc 1 54 10
 207 012c 93079000 		li	a5,9
 208 0130 6390F40C 		bne	s1,a5,.L13
  55:src/trap.cpp  ****     {
  56:src/trap.cpp  **** //        console_handler();
  57:src/trap.cpp  ****         IConsole::get()->consoleHandler();
 209              		.loc 1 57 9
 210              	.LBB22:
 211              	.LBB23:
 212              		.file 3 "src/../h/0_console.h"
   1:src/../h/0_console.h **** #pragma once
   2:src/../h/0_console.h **** 
   3:src/../h/0_console.h **** #include "../lib/hw.h"
   4:src/../h/0_console.h **** 
   5:src/../h/0_console.h **** #define BUFFER_SIZE 1000
   6:src/../h/0_console.h **** 
   7:src/../h/0_console.h **** class IConsole // singleton class
   8:src/../h/0_console.h **** {
   9:src/../h/0_console.h **** public:
  10:src/../h/0_console.h ****     static IConsole* get()
  11:src/../h/0_console.h ****     {
  12:src/../h/0_console.h ****         static IConsole instance;
 213              		.loc 3 12 9
 214              		.loc 3 12 25 is_stmt 0
GAS LISTING /tmp/ccVbHWeR.s 			page 7


 215 0134 97070000 		lbu	a5,_ZGVZN8IConsole3getEvE8instance
 215      83C70700 
 216 013c 63920702 		bnez	a5,.L14
 217              	.LVL11:
 218              	.LBB24:
 219              	.LBB25:
 220              	.LBB26:
  13:src/../h/0_console.h ****         return &instance;
  14:src/../h/0_console.h ****     }
  15:src/../h/0_console.h **** 
  16:src/../h/0_console.h ****     uint64 putBufferHead, putBufferTail;
  17:src/../h/0_console.h ****     char putBuffer[BUFFER_SIZE];
  18:src/../h/0_console.h ****     uint64 putBufferItems;
  19:src/../h/0_console.h **** 
  20:src/../h/0_console.h ****     char getBuffer[BUFFER_SIZE];
  21:src/../h/0_console.h ****     uint64 getBufferItems;
  22:src/../h/0_console.h ****     uint64 getBufferHead, getBufferTail;
  23:src/../h/0_console.h **** 
  24:src/../h/0_console.h ****     void putc(char c);
  25:src/../h/0_console.h ****     char getc();
  26:src/../h/0_console.h ****     void consoleHandler();
  27:src/../h/0_console.h **** 
  28:src/../h/0_console.h **** private:
  29:src/../h/0_console.h ****     IConsole()
  30:src/../h/0_console.h ****         : putBufferHead(0), putBufferTail(0), putBufferItems(0)
 221              		.loc 3 30 63
 222 0140 97070000 		lla	a5,_ZZN8IConsole3getEvE8instance
 222      93870700 
 223 0148 23B00700 		sd	zero,0(a5)
 224 014c 23B40700 		sd	zero,8(a5)
 225 0150 23BC073E 		sd	zero,1016(a5)
 226              	.LVL12:
 227              	.LBE26:
 228              	.LBE25:
 229              	.LBE24:
  12:src/../h/0_console.h ****         return &instance;
 230              		.loc 3 12 25
 231 0154 93071000 		li	a5,1
 232 0158 17070000 		sb	a5,_ZGVZN8IConsole3getEvE8instance,a4
 232      2300F700 
 233              	.L14:
  13:src/../h/0_console.h ****         return &instance;
 234              		.loc 3 13 9 is_stmt 1
 235              	.LBE23:
 236              	.LBE22:
 237              		.loc 1 57 40 is_stmt 0
 238 0160 17050000 		lla	a0,_ZZN8IConsole3getEvE8instance
 238      13050500 
 239 0168 97000000 		call	_ZN8IConsole14consoleHandlerEv@plt
 239      E7800000 
 240              	.LVL13:
 241              	.L12:
  58:src/trap.cpp  ****     }
  59:src/trap.cpp  ****     else
  60:src/trap.cpp  ****     {
  61:src/trap.cpp  ****         assert(false); // unknown interupt
  62:src/trap.cpp  ****     }
GAS LISTING /tmp/ccVbHWeR.s 			page 8


  63:src/trap.cpp  **** 
  64:src/trap.cpp  ****     __asm__ volatile("mv x10, x10");
 242              		.loc 1 64 5 is_stmt 1
 243              		.loc 1 64 36 is_stmt 0
 244              	#APP
 245              	# 64 "src/trap.cpp" 1
  65              	}
 246              		mv x10, x10
 247              	# 0 "" 2
 248              		.loc 1 65 1
 249              	#NO_APP
 250 0174 83308101 		ld	ra,24(sp)
 251              		.cfi_remember_state
 252              		.cfi_restore 1
 253 0178 03340101 		ld	s0,16(sp)
 254              		.cfi_restore 8
 255              		.cfi_def_cfa 2, 32
 256 017c 83348100 		ld	s1,8(sp)
 257              		.cfi_restore 9
 258              	.LVL14:
 259 0180 13010102 		addi	sp,sp,32
 260              		.cfi_def_cfa_offset 0
 261 0184 67800000 		jr	ra
 262              	.LVL15:
 263              	.L16:
 264              		.cfi_restore_state
 265              	.LBB27:
 266              	.LBB21:
  22:src/../h/../h/my_console.h **** 
  23:src/../h/../h/my_console.h ****     putString("===================== ASSERT file: ");
 267              		.loc 2 23 5 is_stmt 1
 268              		.loc 2 23 14 is_stmt 0
 269 0188 17050000 		lla	a0,.LC2
 269      13050500 
 270              	.LVL16:
 271 0190 97000000 		call	_Z9putStringPKc@plt
 271      E7800000 
 272              	.LVL17:
  24:src/../h/../h/my_console.h ****     putString(file);
 273              		.loc 2 24 5 is_stmt 1
 274              		.loc 2 24 14 is_stmt 0
 275 0198 17050000 		lla	a0,.LC3
 275      13050500 
 276 01a0 97000000 		call	_Z9putStringPKc@plt
 276      E7800000 
 277              	.LVL18:
  25:src/../h/../h/my_console.h ****     putString("    line: ");
 278              		.loc 2 25 5 is_stmt 1
 279              		.loc 2 25 14 is_stmt 0
 280 01a8 17050000 		lla	a0,.LC4
 280      13050500 
 281 01b0 97000000 		call	_Z9putStringPKc@plt
 281      E7800000 
 282              	.LVL19:
  26:src/../h/../h/my_console.h ****     putInt(line);
 283              		.loc 2 26 5 is_stmt 1
 284              		.loc 2 26 11 is_stmt 0
GAS LISTING /tmp/ccVbHWeR.s 			page 9


 285 01b8 13050003 		li	a0,48
 286 01bc 97000000 		call	_Z6putInti@plt
 286      E7800000 
 287              	.LVL20:
  27:src/../h/../h/my_console.h ****     putString("   ===========================");
 288              		.loc 2 27 5 is_stmt 1
 289              		.loc 2 27 14 is_stmt 0
 290 01c4 17050000 		lla	a0,.LC5
 290      13050500 
 291 01cc 97000000 		call	_Z9putStringPKc@plt
 291      E7800000 
 292              	.LVL21:
  28:src/../h/../h/my_console.h ****     putNewline();
 293              		.loc 2 28 5 is_stmt 1
 294              		.loc 2 28 15 is_stmt 0
 295 01d4 97000000 		call	_Z10putNewlinev@plt
 295      E7800000 
 296              	.LVL22:
  29:src/../h/../h/my_console.h **** 
  30:src/../h/../h/my_console.h ****     stopKernel();
 297              		.loc 2 30 5 is_stmt 1
 298              		.loc 2 30 15 is_stmt 0
 299 01dc 97000000 		call	_Z10stopKernelv@plt
 299      E7800000 
 300              	.LVL23:
 301              	.L17:
 302              	.LBE21:
 303              	.LBE27:
  51:src/trap.cpp  **** //        doUnsleepThreads();
 304              		.loc 1 51 9 is_stmt 1
  51:src/trap.cpp  **** //        doUnsleepThreads();
 305              		.loc 1 51 21 is_stmt 0
 306 01e4 97000000 		call	_Z12doTimerStuffv
 306      E7800000 
 307              	.LVL24:
 308 01ec 6FF05FF8 		j	.L12
 309              	.L13:
  61:src/trap.cpp  ****     }
 310              		.loc 1 61 9 is_stmt 1
 311              	.LVL25:
 312              	.LBB28:
 313              	.LBB29:
  20:src/../h/../h/my_console.h ****         return;
 314              		.loc 2 20 5
  23:src/../h/../h/my_console.h ****     putString(file);
 315              		.loc 2 23 5
  23:src/../h/../h/my_console.h ****     putString(file);
 316              		.loc 2 23 14 is_stmt 0
 317 01f0 17050000 		lla	a0,.LC2
 317      13050500 
 318 01f8 97000000 		call	_Z9putStringPKc@plt
 318      E7800000 
 319              	.LVL26:
  24:src/../h/../h/my_console.h ****     putString("    line: ");
 320              		.loc 2 24 5 is_stmt 1
  24:src/../h/../h/my_console.h ****     putString("    line: ");
 321              		.loc 2 24 14 is_stmt 0
GAS LISTING /tmp/ccVbHWeR.s 			page 10


 322 0200 17050000 		lla	a0,.LC3
 322      13050500 
 323 0208 97000000 		call	_Z9putStringPKc@plt
 323      E7800000 
 324              	.LVL27:
  25:src/../h/../h/my_console.h ****     putInt(line);
 325              		.loc 2 25 5 is_stmt 1
  25:src/../h/../h/my_console.h ****     putInt(line);
 326              		.loc 2 25 14 is_stmt 0
 327 0210 17050000 		lla	a0,.LC4
 327      13050500 
 328 0218 97000000 		call	_Z9putStringPKc@plt
 328      E7800000 
 329              	.LVL28:
  26:src/../h/../h/my_console.h ****     putString("   ===========================");
 330              		.loc 2 26 5 is_stmt 1
  26:src/../h/../h/my_console.h ****     putString("   ===========================");
 331              		.loc 2 26 11 is_stmt 0
 332 0220 1305D003 		li	a0,61
 333 0224 97000000 		call	_Z6putInti@plt
 333      E7800000 
 334              	.LVL29:
  27:src/../h/../h/my_console.h ****     putNewline();
 335              		.loc 2 27 5 is_stmt 1
  27:src/../h/../h/my_console.h ****     putNewline();
 336              		.loc 2 27 14 is_stmt 0
 337 022c 17050000 		lla	a0,.LC5
 337      13050500 
 338 0234 97000000 		call	_Z9putStringPKc@plt
 338      E7800000 
 339              	.LVL30:
  28:src/../h/../h/my_console.h **** 
 340              		.loc 2 28 5 is_stmt 1
  28:src/../h/../h/my_console.h **** 
 341              		.loc 2 28 15 is_stmt 0
 342 023c 97000000 		call	_Z10putNewlinev@plt
 342      E7800000 
 343              	.LVL31:
 344              		.loc 2 30 5 is_stmt 1
 345              		.loc 2 30 15 is_stmt 0
 346 0244 97000000 		call	_Z10stopKernelv@plt
 346      E7800000 
 347              	.LVL32:
 348              	.LBE29:
 349              	.LBE28:
 350              		.cfi_endproc
 351              	.LFE20:
 353              		.section	.rodata.str1.8
 354 0077 00       		.align	3
 355              	.LC6:
 356 0078 3D3D3D20 		.string	"=== EXCEPETION occured: "
 356      45584345 
 356      50455449 
 356      4F4E206F 
 356      63637572 
 357 0091 00000000 		.align	3
 357      000000
GAS LISTING /tmp/ccVbHWeR.s 			page 11


 358              	.LC7:
 359 0098 20496C6C 		.string	" Illegal instruction"
 359      6567616C 
 359      20696E73 
 359      74727563 
 359      74696F6E 
 360 00ad 000000   		.align	3
 361              	.LC8:
 362 00b0 556E616C 		.string	"Unallowed read adress"
 362      6C6F7765 
 362      64207265 
 362      61642061 
 362      64726573 
 363 00c6 0000     		.align	3
 364              	.LC9:
 365 00c8 556E616C 		.string	"Unallowed write adress"
 365      6C6F7765 
 365      64207772 
 365      69746520 
 365      61647265 
 366 00df 00       		.align	3
 367              	.LC10:
 368 00e0 554B4E4F 		.string	"UKNOWN EXCEPTION. ??????????????"
 368      574E2045 
 368      58434550 
 368      54494F4E 
 368      2E203F3F 
 369 0101 00000000 		.align	3
 369      000000
 370              	.LC11:
 371 0108 5465726D 		.string	"Terminating kernel"
 371      696E6174 
 371      696E6720 
 371      6B65726E 
 371      656C00
 372              		.text
 373              		.align	2
 374              		.globl	_Z25cInternalInterruptRoutinev
 376              	_Z25cInternalInterruptRoutinev:
 377              	.LFB21:
  66:src/trap.cpp  **** 
  67:src/trap.cpp  **** 
  68:src/trap.cpp  **** void cInternalInterruptRoutine()
  69:src/trap.cpp  **** {
 378              		.loc 1 69 1 is_stmt 1
 379              		.cfi_startproc
 380 024c 130101FA 		addi	sp,sp,-96
 381              		.cfi_def_cfa_offset 96
 382 0250 233C1104 		sd	ra,88(sp)
 383 0254 23388104 		sd	s0,80(sp)
 384 0258 23349104 		sd	s1,72(sp)
 385 025c 23302105 		sd	s2,64(sp)
 386 0260 233C3103 		sd	s3,56(sp)
 387 0264 23384103 		sd	s4,48(sp)
 388 0268 23345103 		sd	s5,40(sp)
 389 026c 23306103 		sd	s6,32(sp)
 390 0270 233C7101 		sd	s7,24(sp)
GAS LISTING /tmp/ccVbHWeR.s 			page 12


 391              		.cfi_offset 1, -8
 392              		.cfi_offset 8, -16
 393              		.cfi_offset 9, -24
 394              		.cfi_offset 18, -32
 395              		.cfi_offset 19, -40
 396              		.cfi_offset 20, -48
 397              		.cfi_offset 21, -56
 398              		.cfi_offset 22, -64
 399              		.cfi_offset 23, -72
 400 0274 13040106 		addi	s0,sp,96
 401              		.cfi_def_cfa 8, 0
  70:src/trap.cpp  ****     uint64 scause;
 402              		.loc 1 70 5
  71:src/trap.cpp  ****     __asm__ volatile ("csrr %[name], scause" : [name] "=r"(scause));
 403              		.loc 1 71 5
 404              		.loc 1 71 68 is_stmt 0
 405              	#APP
 406              	# 71 "src/trap.cpp" 1
  72              	
 407              		csrr s2, scause
 408              	# 0 "" 2
 409              	.LVL33:
  73:src/trap.cpp  **** //    int isExternal = (scause & (0x1UL << 63)) != 0;
  74:src/trap.cpp  ****     int cause = scause & (~(1UL << 63));
 410              		.loc 1 74 5 is_stmt 1
  75:src/trap.cpp  **** 
  76:src/trap.cpp  ****     __asm__ volatile ("csrc sip, 0x2"); // clears the 1st bit in register sip. (the bit signifies i
 411              		.loc 1 76 5
 412              		.loc 1 76 39 is_stmt 0
 413              	# 76 "src/trap.cpp" 1
  77              	
  78:src/trap.cpp  ****     uint64 code, parameter1, parameter2, parameter3;
 414              		csrc sip, 0x2
 415              	# 0 "" 2
 416              		.loc 1 78 5 is_stmt 1
  79:src/trap.cpp  ****     __asm__ volatile ("mv %[name], a0" : [name] "=r"(code));
 417              		.loc 1 79 5
 418              		.loc 1 79 60 is_stmt 0
 419              	# 79 "src/trap.cpp" 1
  80              	    __asm__ volatile ("mv %[name], a1" : [name] "=r"(parameter1));
 420              		mv s1, a0
 421              	# 0 "" 2
 422              	.LVL34:
 423              		.loc 1 80 5 is_stmt 1
 424              		.loc 1 80 66 is_stmt 0
 425              	# 80 "src/trap.cpp" 1
  81              	    __asm__ volatile ("mv %[name], a2" : [name] "=r"(parameter2));
 426              		mv s4, a1
 427              	# 0 "" 2
 428              	.LVL35:
 429              		.loc 1 81 5 is_stmt 1
 430              		.loc 1 81 66 is_stmt 0
 431              	# 81 "src/trap.cpp" 1
  82              	    __asm__ volatile ("mv %[name], a3" : [name] "=r"(parameter3));
 432              		mv s5, a2
 433              	# 0 "" 2
 434              	.LVL36:
GAS LISTING /tmp/ccVbHWeR.s 			page 13


 435              		.loc 1 82 5 is_stmt 1
 436              		.loc 1 82 66 is_stmt 0
 437              	# 82 "src/trap.cpp" 1
  83              	
 438              		mv s6, a3
 439              	# 0 "" 2
 440              	.LVL37:
  84:src/trap.cpp  **** 
  85:src/trap.cpp  ****     __asm__ volatile ("mv x1, x1");
 441              		.loc 1 85 5 is_stmt 1
 442              		.loc 1 85 35 is_stmt 0
 443              	# 85 "src/trap.cpp" 1
  86              	
  87:src/trap.cpp  **** //    IThread::getPRunning()->sp = IThread::runningSp;
  88:src/trap.cpp  **** //    uint64* sp = IThread::getPRunning()->sp;
  89:src/trap.cpp  **** //    uint64* runningSp = IThread::runningSp;
  90:src/trap.cpp  **** //    if(sp != runningSp) // temp, maybe changes registers?
  91:src/trap.cpp  **** //    {
  92:src/trap.cpp  **** //        __asm__ volatile ("mv x10, x10");
  93:src/trap.cpp  **** //        assert(false);
  94:src/trap.cpp  **** //    }
  95:src/trap.cpp  ****     assert(&(IThread::getPRunning()->sp) == IThread::pRunningSp);
 444              		mv x1, x1
 445              	# 0 "" 2
 446              		.loc 1 95 5 is_stmt 1
 447              	#NO_APP
 448 0294 97000000 		call	_ZN7IThread11getPRunningEv@plt
 448      E7800000 
 449              	.LVL38:
 450 029c 93078504 		addi	a5,a0,72
 451 02a0 17070000 		la	a4,_ZN7IThread10pRunningSpE
 451      03370700 
 452 02a8 03350700 		ld	a0,0(a4)
 453 02ac 3305F540 		sub	a0,a0,a5
 454              	.LVL39:
 455              	.LBB48:
 456              	.LBB49:
  20:src/../h/../h/my_console.h ****         return;
 457              		.loc 2 20 5
 458 02b0 6318050C 		bnez	a0,.L51
 459 02b4 9B090900 		sext.w	s3,s2
 460 02b8 933B1500 		seqz	s7,a0
  21:src/../h/../h/my_console.h **** 
 461              		.loc 2 21 9
 462              	.LVL40:
 463              	.LBE49:
 464              	.LBE48:
  96:src/trap.cpp  **** 
  97:src/trap.cpp  ****     __asm__ volatile ("mv x1, x1");
 465              		.loc 1 97 5
 466              		.loc 1 97 35 is_stmt 0
 467              	#APP
 468              	# 97 "src/trap.cpp" 1
  98              	
  99:src/trap.cpp  ****     if(cause != 8 && cause != 9)
 469              		mv x1, x1
 470              	# 0 "" 2
GAS LISTING /tmp/ccVbHWeR.s 			page 14


 471              		.loc 1 99 5 is_stmt 1
 472              		.loc 1 99 19 is_stmt 0
 473              	#NO_APP
 474 02c0 1B0989FF 		addiw	s2,s2,-8
 475              	.LVL41:
 476              		.loc 1 99 5
 477 02c4 93071000 		li	a5,1
 478 02c8 63EA2711 		bgtu	s2,a5,.L52
 100:src/trap.cpp  ****     {
 101:src/trap.cpp  ****         putString("=== EXCEPETION occured: ");
 102:src/trap.cpp  ****         if(cause == 2)
 103:src/trap.cpp  ****         {
 104:src/trap.cpp  ****             putString(" Illegal instruction");
 105:src/trap.cpp  ****         }
 106:src/trap.cpp  ****         else if (cause == 5)
 107:src/trap.cpp  ****         {
 108:src/trap.cpp  ****             putString("Unallowed read adress");
 109:src/trap.cpp  ****         }
 110:src/trap.cpp  ****         else if (cause == 7)
 111:src/trap.cpp  ****         {
 112:src/trap.cpp  ****             putString("Unallowed write adress");
 113:src/trap.cpp  ****         }
 114:src/trap.cpp  ****         else
 115:src/trap.cpp  ****         {
 116:src/trap.cpp  ****             putString("UKNOWN EXCEPTION. ??????????????");
 117:src/trap.cpp  ****             assert(false);
 118:src/trap.cpp  ****         }
 119:src/trap.cpp  ****         putNewline();
 120:src/trap.cpp  ****         putString("Terminating kernel");
 121:src/trap.cpp  ****         putNewline();
 122:src/trap.cpp  ****         assert(false);
 123:src/trap.cpp  ****     }
 124:src/trap.cpp  **** 
 125:src/trap.cpp  **** 
 126:src/trap.cpp  ****     uint64 ret = -1;
 479              		.loc 1 126 5 is_stmt 1
 480              		.loc 1 126 12 is_stmt 0
 481 02cc 9307F0FF 		li	a5,-1
 482 02d0 2334F4FA 		sd	a5,-88(s0)
 127:src/trap.cpp  ****     if(code == 1)
 483              		.loc 1 127 5 is_stmt 1
 484 02d4 93071000 		li	a5,1
 485 02d8 6386F424 		beq	s1,a5,.L53
 128:src/trap.cpp  ****     {
 129:src/trap.cpp  ****         ret = (uint64)MemAlloc::get()->allocMem(parameter1);
 130:src/trap.cpp  ****     }
 131:src/trap.cpp  ****     else if (code == 2)
 486              		.loc 1 131 10
 487 02dc 93072000 		li	a5,2
 488 02e0 6388F42A 		beq	s1,a5,.L54
 132:src/trap.cpp  ****     {
 133:src/trap.cpp  ****         *((int*)&ret) = MemAlloc::get()->freeMem((void*)parameter1);
 134:src/trap.cpp  ****     }
 135:src/trap.cpp  **** #ifdef __DEBUG_MODE
 136:src/trap.cpp  ****     else if (code == 3) // Test call
 489              		.loc 1 136 10
 490 02e4 93073000 		li	a5,3
GAS LISTING /tmp/ccVbHWeR.s 			page 15


 491 02e8 6382F42C 		beq	s1,a5,.L55
 137:src/trap.cpp  ****     {
 138:src/trap.cpp  ****         ret = (uint64)testCall(parameter1);
 139:src/trap.cpp  ****     }
 140:src/trap.cpp  **** #endif
 141:src/trap.cpp  ****     else if (code == 4)
 492              		.loc 1 141 10
 493 02ec 93074000 		li	a5,4
 494 02f0 6388F42C 		beq	s1,a5,.L56
 142:src/trap.cpp  ****     {
 143:src/trap.cpp  ****         IThread::switchToUser();
 144:src/trap.cpp  ****     }
 145:src/trap.cpp  ****     else if (code == 17) // 17
 495              		.loc 1 145 10
 496 02f4 93071001 		li	a5,17
 497 02f8 638AF42C 		beq	s1,a5,.L57
 146:src/trap.cpp  ****     {
 147:src/trap.cpp  ****         *((int*)&ret) = IThread::createThread((uint64*)parameter1, (IThread::Body)parameter2, (void
 148:src/trap.cpp  ****     }
 149:src/trap.cpp  ****     else if (code == 18)
 498              		.loc 1 149 10
 499 02fc 93072001 		li	a5,18
 500 0300 6384F42E 		beq	s1,a5,.L58
 150:src/trap.cpp  ****     {
 151:src/trap.cpp  ****         *((int*)&ret) = IThread::exit();
 152:src/trap.cpp  ****     }
 153:src/trap.cpp  ****     else if (code == 19) // 19, thread_dispatch
 501              		.loc 1 153 10
 502 0304 93073001 		li	a5,19
 503 0308 6388F42E 		beq	s1,a5,.L59
 154:src/trap.cpp  ****     {
 155:src/trap.cpp  ****         Scheduler::dispatchUserVersion();
 156:src/trap.cpp  **** 
 157:src/trap.cpp  ****     }
 158:src/trap.cpp  ****     else if (code == 20)
 504              		.loc 1 158 10
 505 030c 93074001 		li	a5,20
 506 0310 638AF42E 		beq	s1,a5,.L60
 159:src/trap.cpp  ****     {
 160:src/trap.cpp  ****         IThread::join((uint64)parameter1);
 161:src/trap.cpp  ****     }
 162:src/trap.cpp  ****     else if (code == 65) // getc
 507              		.loc 1 162 10
 508 0314 93071004 		li	a5,65
 509 0318 6382F422 		beq	s1,a5,.L26
 163:src/trap.cpp  ****     {
 164:src/trap.cpp  **** 
 165:src/trap.cpp  ****     }
 166:src/trap.cpp  ****     else if (code == 66) // putc
 510              		.loc 1 166 10
 511 031c 93072004 		li	a5,66
 512 0320 638EF420 		beq	s1,a5,.L26
 167:src/trap.cpp  ****     {
 168:src/trap.cpp  **** 
 169:src/trap.cpp  ****     }
 170:src/trap.cpp  ****     else
 171:src/trap.cpp  ****     {
GAS LISTING /tmp/ccVbHWeR.s 			page 16


 172:src/trap.cpp  ****         assert(false); // unknown code
 513              		.loc 1 172 9
 514              	.LVL42:
 515              	.LBB51:
 516              	.LBB52:
  20:src/../h/../h/my_console.h ****         return;
 517              		.loc 2 20 5
  23:src/../h/../h/my_console.h ****     putString(file);
 518              		.loc 2 23 5
  23:src/../h/../h/my_console.h ****     putString(file);
 519              		.loc 2 23 14 is_stmt 0
 520 0324 17050000 		lla	a0,.LC2
 520      13050500 
 521 032c 97000000 		call	_Z9putStringPKc@plt
 521      E7800000 
 522              	.LVL43:
  24:src/../h/../h/my_console.h ****     putString("    line: ");
 523              		.loc 2 24 5 is_stmt 1
  24:src/../h/../h/my_console.h ****     putString("    line: ");
 524              		.loc 2 24 14 is_stmt 0
 525 0334 17050000 		lla	a0,.LC3
 525      13050500 
 526 033c 97000000 		call	_Z9putStringPKc@plt
 526      E7800000 
 527              	.LVL44:
  25:src/../h/../h/my_console.h ****     putInt(line);
 528              		.loc 2 25 5 is_stmt 1
  25:src/../h/../h/my_console.h ****     putInt(line);
 529              		.loc 2 25 14 is_stmt 0
 530 0344 17050000 		lla	a0,.LC4
 530      13050500 
 531 034c 97000000 		call	_Z9putStringPKc@plt
 531      E7800000 
 532              	.LVL45:
  26:src/../h/../h/my_console.h ****     putString("   ===========================");
 533              		.loc 2 26 5 is_stmt 1
  26:src/../h/../h/my_console.h ****     putString("   ===========================");
 534              		.loc 2 26 11 is_stmt 0
 535 0354 1305C00A 		li	a0,172
 536 0358 97000000 		call	_Z6putInti@plt
 536      E7800000 
 537              	.LVL46:
  27:src/../h/../h/my_console.h ****     putNewline();
 538              		.loc 2 27 5 is_stmt 1
  27:src/../h/../h/my_console.h ****     putNewline();
 539              		.loc 2 27 14 is_stmt 0
 540 0360 17050000 		lla	a0,.LC5
 540      13050500 
 541 0368 97000000 		call	_Z9putStringPKc@plt
 541      E7800000 
 542              	.LVL47:
  28:src/../h/../h/my_console.h **** 
 543              		.loc 2 28 5 is_stmt 1
  28:src/../h/../h/my_console.h **** 
 544              		.loc 2 28 15 is_stmt 0
 545 0370 97000000 		call	_Z10putNewlinev@plt
 545      E7800000 
GAS LISTING /tmp/ccVbHWeR.s 			page 17


 546              	.LVL48:
 547              		.loc 2 30 5 is_stmt 1
 548              		.loc 2 30 15 is_stmt 0
 549 0378 97000000 		call	_Z10stopKernelv@plt
 549      E7800000 
 550              	.LVL49:
 551              	.L51:
 552              	.LBE52:
 553              	.LBE51:
 554              	.LBB53:
 555              	.LBB50:
  23:src/../h/../h/my_console.h ****     putString(file);
 556              		.loc 2 23 5 is_stmt 1
  23:src/../h/../h/my_console.h ****     putString(file);
 557              		.loc 2 23 14 is_stmt 0
 558 0380 17050000 		lla	a0,.LC2
 558      13050500 
 559              	.LVL50:
 560 0388 97000000 		call	_Z9putStringPKc@plt
 560      E7800000 
 561              	.LVL51:
  24:src/../h/../h/my_console.h ****     putString("    line: ");
 562              		.loc 2 24 5 is_stmt 1
  24:src/../h/../h/my_console.h ****     putString("    line: ");
 563              		.loc 2 24 14 is_stmt 0
 564 0390 17050000 		lla	a0,.LC3
 564      13050500 
 565 0398 97000000 		call	_Z9putStringPKc@plt
 565      E7800000 
 566              	.LVL52:
  25:src/../h/../h/my_console.h ****     putInt(line);
 567              		.loc 2 25 5 is_stmt 1
  25:src/../h/../h/my_console.h ****     putInt(line);
 568              		.loc 2 25 14 is_stmt 0
 569 03a0 17050000 		lla	a0,.LC4
 569      13050500 
 570 03a8 97000000 		call	_Z9putStringPKc@plt
 570      E7800000 
 571              	.LVL53:
  26:src/../h/../h/my_console.h ****     putString("   ===========================");
 572              		.loc 2 26 5 is_stmt 1
  26:src/../h/../h/my_console.h ****     putString("   ===========================");
 573              		.loc 2 26 11 is_stmt 0
 574 03b0 1305F005 		li	a0,95
 575 03b4 97000000 		call	_Z6putInti@plt
 575      E7800000 
 576              	.LVL54:
  27:src/../h/../h/my_console.h ****     putNewline();
 577              		.loc 2 27 5 is_stmt 1
  27:src/../h/../h/my_console.h ****     putNewline();
 578              		.loc 2 27 14 is_stmt 0
 579 03bc 17050000 		lla	a0,.LC5
 579      13050500 
 580 03c4 97000000 		call	_Z9putStringPKc@plt
 580      E7800000 
 581              	.LVL55:
  28:src/../h/../h/my_console.h **** 
GAS LISTING /tmp/ccVbHWeR.s 			page 18


 582              		.loc 2 28 5 is_stmt 1
  28:src/../h/../h/my_console.h **** 
 583              		.loc 2 28 15 is_stmt 0
 584 03cc 97000000 		call	_Z10putNewlinev@plt
 584      E7800000 
 585              	.LVL56:
 586              		.loc 2 30 5 is_stmt 1
 587              		.loc 2 30 15 is_stmt 0
 588 03d4 97000000 		call	_Z10stopKernelv@plt
 588      E7800000 
 589              	.LVL57:
 590              	.L52:
 591              	.LBE50:
 592              	.LBE53:
 101:src/trap.cpp  ****         if(cause == 2)
 593              		.loc 1 101 9 is_stmt 1
 101:src/trap.cpp  ****         if(cause == 2)
 594              		.loc 1 101 18 is_stmt 0
 595 03dc 17050000 		lla	a0,.LC6
 595      13050500 
 596 03e4 97000000 		call	_Z9putStringPKc@plt
 596      E7800000 
 597              	.LVL58:
 102:src/trap.cpp  ****         {
 598              		.loc 1 102 9 is_stmt 1
 599 03ec 93072000 		li	a5,2
 600 03f0 6380F908 		beq	s3,a5,.L61
 106:src/trap.cpp  ****         {
 601              		.loc 1 106 14
 602 03f4 93075000 		li	a5,5
 603 03f8 6386F908 		beq	s3,a5,.L62
 110:src/trap.cpp  ****         {
 604              		.loc 1 110 14
 605 03fc 93077000 		li	a5,7
 606 0400 638CF908 		beq	s3,a5,.L63
 116:src/trap.cpp  ****             assert(false);
 607              		.loc 1 116 13
 116:src/trap.cpp  ****             assert(false);
 608              		.loc 1 116 22 is_stmt 0
 609 0404 17050000 		lla	a0,.LC10
 609      13050500 
 610 040c 97000000 		call	_Z9putStringPKc@plt
 610      E7800000 
 611              	.LVL59:
 117:src/trap.cpp  ****         }
 612              		.loc 1 117 13 is_stmt 1
 613              	.LBB54:
 614              	.LBB55:
  20:src/../h/../h/my_console.h ****         return;
 615              		.loc 2 20 5
  23:src/../h/../h/my_console.h ****     putString(file);
 616              		.loc 2 23 5
  23:src/../h/../h/my_console.h ****     putString(file);
 617              		.loc 2 23 14 is_stmt 0
 618 0414 17050000 		lla	a0,.LC2
 618      13050500 
 619 041c 97000000 		call	_Z9putStringPKc@plt
GAS LISTING /tmp/ccVbHWeR.s 			page 19


 619      E7800000 
 620              	.LVL60:
  24:src/../h/../h/my_console.h ****     putString("    line: ");
 621              		.loc 2 24 5 is_stmt 1
  24:src/../h/../h/my_console.h ****     putString("    line: ");
 622              		.loc 2 24 14 is_stmt 0
 623 0424 17050000 		lla	a0,.LC3
 623      13050500 
 624 042c 97000000 		call	_Z9putStringPKc@plt
 624      E7800000 
 625              	.LVL61:
  25:src/../h/../h/my_console.h ****     putInt(line);
 626              		.loc 2 25 5 is_stmt 1
  25:src/../h/../h/my_console.h ****     putInt(line);
 627              		.loc 2 25 14 is_stmt 0
 628 0434 17050000 		lla	a0,.LC4
 628      13050500 
 629 043c 97000000 		call	_Z9putStringPKc@plt
 629      E7800000 
 630              	.LVL62:
  26:src/../h/../h/my_console.h ****     putString("   ===========================");
 631              		.loc 2 26 5 is_stmt 1
  26:src/../h/../h/my_console.h ****     putString("   ===========================");
 632              		.loc 2 26 11 is_stmt 0
 633 0444 13055007 		li	a0,117
 634 0448 97000000 		call	_Z6putInti@plt
 634      E7800000 
 635              	.LVL63:
  27:src/../h/../h/my_console.h ****     putNewline();
 636              		.loc 2 27 5 is_stmt 1
  27:src/../h/../h/my_console.h ****     putNewline();
 637              		.loc 2 27 14 is_stmt 0
 638 0450 17050000 		lla	a0,.LC5
 638      13050500 
 639 0458 97000000 		call	_Z9putStringPKc@plt
 639      E7800000 
 640              	.LVL64:
  28:src/../h/../h/my_console.h **** 
 641              		.loc 2 28 5 is_stmt 1
  28:src/../h/../h/my_console.h **** 
 642              		.loc 2 28 15 is_stmt 0
 643 0460 97000000 		call	_Z10putNewlinev@plt
 643      E7800000 
 644              	.LVL65:
 645              		.loc 2 30 5 is_stmt 1
 646              		.loc 2 30 15 is_stmt 0
 647 0468 97000000 		call	_Z10stopKernelv@plt
 647      E7800000 
 648              	.LVL66:
 649              	.L61:
 650              	.LBE55:
 651              	.LBE54:
 104:src/trap.cpp  ****         }
 652              		.loc 1 104 13 is_stmt 1
 104:src/trap.cpp  ****         }
 653              		.loc 1 104 22 is_stmt 0
 654 0470 17050000 		lla	a0,.LC7
GAS LISTING /tmp/ccVbHWeR.s 			page 20


 654      13050500 
 655 0478 97000000 		call	_Z9putStringPKc@plt
 655      E7800000 
 656              	.LVL67:
 657 0480 6F008002 		j	.L22
 658              	.L62:
 108:src/trap.cpp  ****         }
 659              		.loc 1 108 13 is_stmt 1
 108:src/trap.cpp  ****         }
 660              		.loc 1 108 22 is_stmt 0
 661 0484 17050000 		lla	a0,.LC8
 661      13050500 
 662 048c 97000000 		call	_Z9putStringPKc@plt
 662      E7800000 
 663              	.LVL68:
 664 0494 6F004001 		j	.L22
 665              	.L63:
 112:src/trap.cpp  ****         }
 666              		.loc 1 112 13 is_stmt 1
 112:src/trap.cpp  ****         }
 667              		.loc 1 112 22 is_stmt 0
 668 0498 17050000 		lla	a0,.LC9
 668      13050500 
 669 04a0 97000000 		call	_Z9putStringPKc@plt
 669      E7800000 
 670              	.LVL69:
 671              	.L22:
 119:src/trap.cpp  ****         putString("Terminating kernel");
 672              		.loc 1 119 9 is_stmt 1
 119:src/trap.cpp  ****         putString("Terminating kernel");
 673              		.loc 1 119 19 is_stmt 0
 674 04a8 97000000 		call	_Z10putNewlinev@plt
 674      E7800000 
 675              	.LVL70:
 120:src/trap.cpp  ****         putNewline();
 676              		.loc 1 120 9 is_stmt 1
 120:src/trap.cpp  ****         putNewline();
 677              		.loc 1 120 18 is_stmt 0
 678 04b0 17050000 		lla	a0,.LC11
 678      13050500 
 679 04b8 97000000 		call	_Z9putStringPKc@plt
 679      E7800000 
 680              	.LVL71:
 121:src/trap.cpp  ****         assert(false);
 681              		.loc 1 121 9 is_stmt 1
 121:src/trap.cpp  ****         assert(false);
 682              		.loc 1 121 19 is_stmt 0
 683 04c0 97000000 		call	_Z10putNewlinev@plt
 683      E7800000 
 684              	.LVL72:
 122:src/trap.cpp  ****     }
 685              		.loc 1 122 9 is_stmt 1
 686              	.LBB56:
 687              	.LBB57:
  20:src/../h/../h/my_console.h ****         return;
 688              		.loc 2 20 5
  23:src/../h/../h/my_console.h ****     putString(file);
GAS LISTING /tmp/ccVbHWeR.s 			page 21


 689              		.loc 2 23 5
  23:src/../h/../h/my_console.h ****     putString(file);
 690              		.loc 2 23 14 is_stmt 0
 691 04c8 17050000 		lla	a0,.LC2
 691      13050500 
 692 04d0 97000000 		call	_Z9putStringPKc@plt
 692      E7800000 
 693              	.LVL73:
  24:src/../h/../h/my_console.h ****     putString("    line: ");
 694              		.loc 2 24 5 is_stmt 1
  24:src/../h/../h/my_console.h ****     putString("    line: ");
 695              		.loc 2 24 14 is_stmt 0
 696 04d8 17050000 		lla	a0,.LC3
 696      13050500 
 697 04e0 97000000 		call	_Z9putStringPKc@plt
 697      E7800000 
 698              	.LVL74:
  25:src/../h/../h/my_console.h ****     putInt(line);
 699              		.loc 2 25 5 is_stmt 1
  25:src/../h/../h/my_console.h ****     putInt(line);
 700              		.loc 2 25 14 is_stmt 0
 701 04e8 17050000 		lla	a0,.LC4
 701      13050500 
 702 04f0 97000000 		call	_Z9putStringPKc@plt
 702      E7800000 
 703              	.LVL75:
  26:src/../h/../h/my_console.h ****     putString("   ===========================");
 704              		.loc 2 26 5 is_stmt 1
  26:src/../h/../h/my_console.h ****     putString("   ===========================");
 705              		.loc 2 26 11 is_stmt 0
 706 04f8 1305A007 		li	a0,122
 707 04fc 97000000 		call	_Z6putInti@plt
 707      E7800000 
 708              	.LVL76:
  27:src/../h/../h/my_console.h ****     putNewline();
 709              		.loc 2 27 5 is_stmt 1
  27:src/../h/../h/my_console.h ****     putNewline();
 710              		.loc 2 27 14 is_stmt 0
 711 0504 17050000 		lla	a0,.LC5
 711      13050500 
 712 050c 97000000 		call	_Z9putStringPKc@plt
 712      E7800000 
 713              	.LVL77:
  28:src/../h/../h/my_console.h **** 
 714              		.loc 2 28 5 is_stmt 1
  28:src/../h/../h/my_console.h **** 
 715              		.loc 2 28 15 is_stmt 0
 716 0514 97000000 		call	_Z10putNewlinev@plt
 716      E7800000 
 717              	.LVL78:
 718              		.loc 2 30 5 is_stmt 1
 719              		.loc 2 30 15 is_stmt 0
 720 051c 97000000 		call	_Z10stopKernelv@plt
 720      E7800000 
 721              	.LVL79:
 722              	.L53:
 723              	.LBE57:
GAS LISTING /tmp/ccVbHWeR.s 			page 22


 724              	.LBE56:
 129:src/trap.cpp  ****     }
 725              		.loc 1 129 9 is_stmt 1
 129:src/trap.cpp  ****     }
 726              		.loc 1 129 48 is_stmt 0
 727 0524 97000000 		call	_ZN8MemAlloc3getEv@plt
 727      E7800000 
 728              	.LVL80:
 729 052c 93050A00 		mv	a1,s4
 730 0530 97000000 		call	_ZN8MemAlloc8allocMemEm@plt
 730      E7800000 
 731              	.LVL81:
 129:src/trap.cpp  ****     }
 732              		.loc 1 129 13
 733 0538 2334A4FA 		sd	a0,-88(s0)
 734              	.L26:
 173:src/trap.cpp  ****         assert(false); // unknown code
 174:src/trap.cpp  ****         assert(false); // unknown code
 175:src/trap.cpp  ****         assert(false); // unknown code
 176:src/trap.cpp  ****     }
 177:src/trap.cpp  **** 
 178:src/trap.cpp  **** //    __asm__ volatile ("mv a0, %[name]" : : [name] "r" (ret)); // upaliti ovo dole umesto ovoga (o
 179:src/trap.cpp  **** 
 180:src/trap.cpp  ****     bool normalCallWithReturn = (code == 0x1) || (code == 0x2) || (code == 0x11) || (code == 0x12) 
 735              		.loc 1 180 5 is_stmt 1
 736              		.loc 1 180 47 is_stmt 0
 737 053c 9387F4FF 		addi	a5,s1,-1
 738              		.loc 1 180 190
 739 0540 13071000 		li	a4,1
 740 0544 637CF70C 		bleu	a5,a4,.L40
 741              		.loc 1 180 64 discriminator 2
 742 0548 93071001 		li	a5,17
 743 054c 6380F416 		beq	s1,a5,.L41
 744              		.loc 1 180 82 discriminator 4
 745 0550 93072001 		li	a5,18
 746 0554 6380F416 		beq	s1,a5,.L42
 747              		.loc 1 180 100 discriminator 6
 748 0558 93071002 		li	a5,33
 749 055c 6380F416 		beq	s1,a5,.L43
 750              		.loc 1 180 118 discriminator 8
 751 0560 93072002 		li	a5,34
 752 0564 6380F416 		beq	s1,a5,.L44
 753              		.loc 1 180 136 discriminator 10
 754 0568 93073002 		li	a5,35
 755 056c 6380F416 		beq	s1,a5,.L45
 756              		.loc 1 180 154 discriminator 12
 757 0570 93074002 		li	a5,36
 758 0574 6380F416 		beq	s1,a5,.L46
 759              		.loc 1 180 172 discriminator 14
 760 0578 93071003 		li	a5,49
 761 057c 6380F416 		beq	s1,a5,.L47
 762              		.loc 1 180 190 discriminator 16
 763 0580 93071004 		li	a5,65
 764 0584 6388F408 		beq	s1,a5,.L64
 765              		.loc 1 180 190
 766 0588 93060000 		li	a3,0
 767 058c 6F004009 		j	.L34
GAS LISTING /tmp/ccVbHWeR.s 			page 23


 768              	.L54:
 133:src/trap.cpp  ****     }
 769              		.loc 1 133 9 is_stmt 1
 133:src/trap.cpp  ****     }
 770              		.loc 1 133 49 is_stmt 0
 771 0590 97000000 		call	_ZN8MemAlloc3getEv@plt
 771      E7800000 
 772              	.LVL82:
 773 0598 93050A00 		mv	a1,s4
 774 059c 97000000 		call	_ZN8MemAlloc7freeMemEPv@plt
 774      E7800000 
 775              	.LVL83:
 133:src/trap.cpp  ****     }
 776              		.loc 1 133 23
 777 05a4 2324A4FA 		sw	a0,-88(s0)
 778 05a8 6FF05FF9 		j	.L26
 779              	.L55:
 138:src/trap.cpp  ****     }
 780              		.loc 1 138 9 is_stmt 1
 138:src/trap.cpp  ****     }
 781              		.loc 1 138 31 is_stmt 0
 782 05ac 13050A00 		mv	a0,s4
 783 05b0 97000000 		call	_Z8testCallm
 783      E7800000 
 784              	.LVL84:
 138:src/trap.cpp  ****     }
 785              		.loc 1 138 13
 786 05b8 2334A4FA 		sd	a0,-88(s0)
 787 05bc 6FF01FF8 		j	.L26
 788              	.L56:
 143:src/trap.cpp  ****     }
 789              		.loc 1 143 9 is_stmt 1
 143:src/trap.cpp  ****     }
 790              		.loc 1 143 30 is_stmt 0
 791 05c0 97000000 		call	_ZN7IThread12switchToUserEv@plt
 791      E7800000 
 792              	.LVL85:
 793 05c8 6FF05FF7 		j	.L26
 794              	.L57:
 147:src/trap.cpp  ****     }
 795              		.loc 1 147 9 is_stmt 1
 147:src/trap.cpp  ****     }
 796              		.loc 1 147 46 is_stmt 0
 797 05cc 13060B00 		mv	a2,s6
 798 05d0 93850A00 		mv	a1,s5
 799 05d4 13050A00 		mv	a0,s4
 800 05d8 97000000 		call	_ZN7IThread12createThreadEPmPFvPvES1_@plt
 800      E7800000 
 801              	.LVL86:
 147:src/trap.cpp  ****     }
 802              		.loc 1 147 23
 803 05e0 2324A4FA 		sw	a0,-88(s0)
 804 05e4 6FF09FF5 		j	.L26
 805              	.L58:
 151:src/trap.cpp  ****     }
 806              		.loc 1 151 9 is_stmt 1
 151:src/trap.cpp  ****     }
GAS LISTING /tmp/ccVbHWeR.s 			page 24


 807              		.loc 1 151 38 is_stmt 0
 808 05e8 97000000 		call	_ZN7IThread4exitEv@plt
 808      E7800000 
 809              	.LVL87:
 151:src/trap.cpp  ****     }
 810              		.loc 1 151 23
 811 05f0 2324A4FA 		sw	a0,-88(s0)
 812 05f4 6FF09FF4 		j	.L26
 813              	.L59:
 155:src/trap.cpp  **** 
 814              		.loc 1 155 9 is_stmt 1
 155:src/trap.cpp  **** 
 815              		.loc 1 155 39 is_stmt 0
 816 05f8 97000000 		call	_ZN9Scheduler19dispatchUserVersionEv@plt
 816      E7800000 
 817              	.LVL88:
 818 0600 6FF0DFF3 		j	.L26
 819              	.L60:
 160:src/trap.cpp  ****     }
 820              		.loc 1 160 9 is_stmt 1
 160:src/trap.cpp  ****     }
 821              		.loc 1 160 22 is_stmt 0
 822 0604 13050A00 		mv	a0,s4
 823 0608 97000000 		call	_ZN7IThread4joinEm@plt
 823      E7800000 
 824              	.LVL89:
 825 0610 6FF0DFF2 		j	.L26
 826              	.L64:
 827              		.loc 1 180 190
 828 0614 93860B00 		mv	a3,s7
 829 0618 6F008000 		j	.L34
 830              	.L40:
 831 061c 93860B00 		mv	a3,s7
 832              	.L34:
 833              	.LVL90:
 181:src/trap.cpp  ****     bool customCallWithReturn = (code == 0x3);
 834              		.loc 1 181 5 is_stmt 1 discriminator 20
 182:src/trap.cpp  ****     bool customCallWithoutReturn = (code == 0x4);
 835              		.loc 1 182 5 discriminator 20
 183:src/trap.cpp  ****     bool normalCallWithoutReturn = (code == 0x13) || (code == 0x14) || (code == 0x42);
 836              		.loc 1 183 5 discriminator 20
 837              		.loc 1 183 51 is_stmt 0 discriminator 20
 838 0620 9387D4FE 		addi	a5,s1,-19
 839              		.loc 1 183 69 discriminator 20
 840 0624 13071000 		li	a4,1
 841 0628 6378F700 		bleu	a5,a4,.L35
 842              		.loc 1 183 69 discriminator 2
 843 062c 93072004 		li	a5,66
 844 0630 6384F400 		beq	s1,a5,.L35
 845              		.loc 1 183 69
 846 0634 930B0000 		li	s7,0
 847              	.L35:
 848              	.LVL91:
 184:src/trap.cpp  ****     if(normalCallWithReturn || customCallWithReturn)
 849              		.loc 1 184 5 is_stmt 1 discriminator 6
 850 0638 6396060A 		bnez	a3,.L36
 851              		.loc 1 184 29 is_stmt 0 discriminator 1
GAS LISTING /tmp/ccVbHWeR.s 			page 25


 852 063c 93073000 		li	a5,3
 853 0640 6382F40A 		beq	s1,a5,.L36
 185:src/trap.cpp  ****     { // system call with a return (not necessariliy 64bit)
 186:src/trap.cpp  **** 
 187:src/trap.cpp  ****         assert(ret != (uint64)-1); // not 100% check
 188:src/trap.cpp  **** 
 189:src/trap.cpp  ****         __asm__ volatile ("mv a0, %[name]" : : [name] "r" (ret));
 190:src/trap.cpp  ****     }
 191:src/trap.cpp  ****     else if(normalCallWithoutReturn || customCallWithoutReturn) // this exists for safety reasons
 854              		.loc 1 191 10 is_stmt 1
 855 0644 639A0B0A 		bnez	s7,.L39
 856              		.loc 1 191 37 is_stmt 0 discriminator 1
 857 0648 93074000 		li	a5,4
 858 064c 6386F40A 		beq	s1,a5,.L39
 192:src/trap.cpp  ****     {
 193:src/trap.cpp  ****         ;
 194:src/trap.cpp  ****     }
 195:src/trap.cpp  ****     else
 196:src/trap.cpp  ****     {
 197:src/trap.cpp  ****         assert(false);
 859              		.loc 1 197 9 is_stmt 1
 860              	.LVL92:
 861              	.LBB58:
 862              	.LBB59:
  20:src/../h/../h/my_console.h ****         return;
 863              		.loc 2 20 5
  23:src/../h/../h/my_console.h ****     putString(file);
 864              		.loc 2 23 5
  23:src/../h/../h/my_console.h ****     putString(file);
 865              		.loc 2 23 14 is_stmt 0
 866 0650 17050000 		lla	a0,.LC2
 866      13050500 
 867 0658 97000000 		call	_Z9putStringPKc@plt
 867      E7800000 
 868              	.LVL93:
  24:src/../h/../h/my_console.h ****     putString("    line: ");
 869              		.loc 2 24 5 is_stmt 1
  24:src/../h/../h/my_console.h ****     putString("    line: ");
 870              		.loc 2 24 14 is_stmt 0
 871 0660 17050000 		lla	a0,.LC3
 871      13050500 
 872 0668 97000000 		call	_Z9putStringPKc@plt
 872      E7800000 
 873              	.LVL94:
  25:src/../h/../h/my_console.h ****     putInt(line);
 874              		.loc 2 25 5 is_stmt 1
  25:src/../h/../h/my_console.h ****     putInt(line);
 875              		.loc 2 25 14 is_stmt 0
 876 0670 17050000 		lla	a0,.LC4
 876      13050500 
 877 0678 97000000 		call	_Z9putStringPKc@plt
 877      E7800000 
 878              	.LVL95:
  26:src/../h/../h/my_console.h ****     putString("   ===========================");
 879              		.loc 2 26 5 is_stmt 1
  26:src/../h/../h/my_console.h ****     putString("   ===========================");
 880              		.loc 2 26 11 is_stmt 0
GAS LISTING /tmp/ccVbHWeR.s 			page 26


 881 0680 1305500C 		li	a0,197
 882 0684 97000000 		call	_Z6putInti@plt
 882      E7800000 
 883              	.LVL96:
  27:src/../h/../h/my_console.h ****     putNewline();
 884              		.loc 2 27 5 is_stmt 1
  27:src/../h/../h/my_console.h ****     putNewline();
 885              		.loc 2 27 14 is_stmt 0
 886 068c 17050000 		lla	a0,.LC5
 886      13050500 
 887 0694 97000000 		call	_Z9putStringPKc@plt
 887      E7800000 
 888              	.LVL97:
  28:src/../h/../h/my_console.h **** 
 889              		.loc 2 28 5 is_stmt 1
  28:src/../h/../h/my_console.h **** 
 890              		.loc 2 28 15 is_stmt 0
 891 069c 97000000 		call	_Z10putNewlinev@plt
 891      E7800000 
 892              	.LVL98:
 893              		.loc 2 30 5 is_stmt 1
 894              		.loc 2 30 15 is_stmt 0
 895 06a4 97000000 		call	_Z10stopKernelv@plt
 895      E7800000 
 896              	.LVL99:
 897              	.L41:
 898              	.LBE59:
 899              	.LBE58:
 180:src/trap.cpp  ****     bool customCallWithReturn = (code == 0x3);
 900              		.loc 1 180 190
 901 06ac 93860B00 		mv	a3,s7
 902 06b0 6FF01FF7 		j	.L34
 903              	.L42:
 904 06b4 93860B00 		mv	a3,s7
 905 06b8 6FF09FF6 		j	.L34
 906              	.L43:
 907 06bc 93860B00 		mv	a3,s7
 908 06c0 6FF01FF6 		j	.L34
 909              	.L44:
 910 06c4 93860B00 		mv	a3,s7
 911 06c8 6FF09FF5 		j	.L34
 912              	.L45:
 913 06cc 93860B00 		mv	a3,s7
 914 06d0 6FF01FF5 		j	.L34
 915              	.L46:
 916 06d4 93860B00 		mv	a3,s7
 917 06d8 6FF09FF4 		j	.L34
 918              	.L47:
 919 06dc 93860B00 		mv	a3,s7
 920 06e0 6FF01FF4 		j	.L34
 921              	.LVL100:
 922              	.L36:
 187:src/trap.cpp  **** 
 923              		.loc 1 187 9 is_stmt 1
 924 06e4 833784FA 		ld	a5,-88(s0)
 925 06e8 93871700 		addi	a5,a5,1
 926              	.LVL101:
GAS LISTING /tmp/ccVbHWeR.s 			page 27


 927              	.LBB60:
 928              	.LBB61:
  20:src/../h/../h/my_console.h ****         return;
 929              		.loc 2 20 5
 930 06ec 638E0702 		beqz	a5,.L65
  21:src/../h/../h/my_console.h **** 
 931              		.loc 2 21 9
 932              	.LVL102:
 933              	.LBE61:
 934              	.LBE60:
 189:src/trap.cpp  ****     }
 935              		.loc 1 189 9
 189:src/trap.cpp  ****     }
 936              		.loc 1 189 65 is_stmt 0
 937 06f0 833784FA 		ld	a5,-88(s0)
 938              	#APP
 939              	# 189 "src/trap.cpp" 1
 940              		mv a0, a5
 941              	# 0 "" 2
 942              	#NO_APP
 943              	.L39:
 198:src/trap.cpp  ****     }
 199:src/trap.cpp  **** 
 200:src/trap.cpp  ****     __asm__ volatile ("mv x10, x10");
 944              		.loc 1 200 5 is_stmt 1
 945              		.loc 1 200 37 is_stmt 0
 946              	#APP
 947              	# 200 "src/trap.cpp" 1
 201              	}
 948              		mv x10, x10
 949              	# 0 "" 2
 950              		.loc 1 201 1
 951              	#NO_APP
 952 06fc 83308105 		ld	ra,88(sp)
 953              		.cfi_remember_state
 954              		.cfi_restore 1
 955 0700 03340105 		ld	s0,80(sp)
 956              		.cfi_restore 8
 957              		.cfi_def_cfa 2, 96
 958 0704 83348104 		ld	s1,72(sp)
 959              		.cfi_restore 9
 960              	.LVL103:
 961 0708 03390104 		ld	s2,64(sp)
 962              		.cfi_restore 18
 963 070c 83398103 		ld	s3,56(sp)
 964              		.cfi_restore 19
 965              	.LVL104:
 966 0710 033A0103 		ld	s4,48(sp)
 967              		.cfi_restore 20
 968              	.LVL105:
 969 0714 833A8102 		ld	s5,40(sp)
 970              		.cfi_restore 21
 971              	.LVL106:
 972 0718 033B0102 		ld	s6,32(sp)
 973              		.cfi_restore 22
 974              	.LVL107:
 975 071c 833B8101 		ld	s7,24(sp)
GAS LISTING /tmp/ccVbHWeR.s 			page 28


 976              		.cfi_restore 23
 977              	.LVL108:
 978 0720 13010106 		addi	sp,sp,96
 979              		.cfi_def_cfa_offset 0
 980 0724 67800000 		jr	ra
 981              	.LVL109:
 982              	.L65:
 983              		.cfi_restore_state
 984              	.LBB63:
 985              	.LBB62:
  23:src/../h/../h/my_console.h ****     putString(file);
 986              		.loc 2 23 5 is_stmt 1
  23:src/../h/../h/my_console.h ****     putString(file);
 987              		.loc 2 23 14 is_stmt 0
 988 0728 17050000 		lla	a0,.LC2
 988      13050500 
 989 0730 97000000 		call	_Z9putStringPKc@plt
 989      E7800000 
 990              	.LVL110:
  24:src/../h/../h/my_console.h ****     putString("    line: ");
 991              		.loc 2 24 5 is_stmt 1
  24:src/../h/../h/my_console.h ****     putString("    line: ");
 992              		.loc 2 24 14 is_stmt 0
 993 0738 17050000 		lla	a0,.LC3
 993      13050500 
 994 0740 97000000 		call	_Z9putStringPKc@plt
 994      E7800000 
 995              	.LVL111:
  25:src/../h/../h/my_console.h ****     putInt(line);
 996              		.loc 2 25 5 is_stmt 1
  25:src/../h/../h/my_console.h ****     putInt(line);
 997              		.loc 2 25 14 is_stmt 0
 998 0748 17050000 		lla	a0,.LC4
 998      13050500 
 999 0750 97000000 		call	_Z9putStringPKc@plt
 999      E7800000 
 1000              	.LVL112:
  26:src/../h/../h/my_console.h ****     putString("   ===========================");
 1001              		.loc 2 26 5 is_stmt 1
  26:src/../h/../h/my_console.h ****     putString("   ===========================");
 1002              		.loc 2 26 11 is_stmt 0
 1003 0758 1305B00B 		li	a0,187
 1004 075c 97000000 		call	_Z6putInti@plt
 1004      E7800000 
 1005              	.LVL113:
  27:src/../h/../h/my_console.h ****     putNewline();
 1006              		.loc 2 27 5 is_stmt 1
  27:src/../h/../h/my_console.h ****     putNewline();
 1007              		.loc 2 27 14 is_stmt 0
 1008 0764 17050000 		lla	a0,.LC5
 1008      13050500 
 1009 076c 97000000 		call	_Z9putStringPKc@plt
 1009      E7800000 
 1010              	.LVL114:
  28:src/../h/../h/my_console.h **** 
 1011              		.loc 2 28 5 is_stmt 1
  28:src/../h/../h/my_console.h **** 
GAS LISTING /tmp/ccVbHWeR.s 			page 29


 1012              		.loc 2 28 15 is_stmt 0
 1013 0774 97000000 		call	_Z10putNewlinev@plt
 1013      E7800000 
 1014              	.LVL115:
 1015              		.loc 2 30 5 is_stmt 1
 1016              		.loc 2 30 15 is_stmt 0
 1017 077c 97000000 		call	_Z10stopKernelv@plt
 1017      E7800000 
 1018              	.LVL116:
 1019              	.LBE62:
 1020              	.LBE63:
 1021              		.cfi_endproc
 1022              	.LFE21:
 1024              		.align	2
 1025              		.globl	_Z24cConsoleInterruptRoutinev
 1027              	_Z24cConsoleInterruptRoutinev:
 1028              	.LFB22:
 202:src/trap.cpp  **** 
 203:src/trap.cpp  **** 
 204:src/trap.cpp  **** 
 205:src/trap.cpp  **** //    IThread::timeSliceCounter++;
 206:src/trap.cpp  **** 
 207:src/trap.cpp  **** //        if (IThread::timeSliceCounter >= IThread::pRunning->getTimeSlice())
 208:src/trap.cpp  **** //        {
 209:src/trap.cpp  **** //            IThread::timeSliceCounter = 0;
 210:src/trap.cpp  **** //            Scheduler::dispatchToNext();
 211:src/trap.cpp  **** //        }
 212:src/trap.cpp  **** 
 213:src/trap.cpp  **** void  cConsoleInterruptRoutine()
 214:src/trap.cpp  **** {
 1029              		.loc 1 214 1 is_stmt 1
 1030              		.cfi_startproc
 1031 0784 130101FF 		addi	sp,sp,-16
 1032              		.cfi_def_cfa_offset 16
 1033 0788 23341100 		sd	ra,8(sp)
 1034 078c 23308100 		sd	s0,0(sp)
 1035              		.cfi_offset 1, -8
 1036              		.cfi_offset 8, -16
 1037 0790 13040101 		addi	s0,sp,16
 1038              		.cfi_def_cfa 8, 0
 215:src/trap.cpp  ****     assert(false);
 1039              		.loc 1 215 5
 1040              	.LVL117:
 1041              	.LBB70:
 1042              	.LBB71:
  20:src/../h/../h/my_console.h ****         return;
 1043              		.loc 2 20 5
  23:src/../h/../h/my_console.h ****     putString(file);
 1044              		.loc 2 23 5
  23:src/../h/../h/my_console.h ****     putString(file);
 1045              		.loc 2 23 14 is_stmt 0
 1046 0794 17050000 		lla	a0,.LC2
 1046      13050500 
 1047 079c 97000000 		call	_Z9putStringPKc@plt
 1047      E7800000 
 1048              	.LVL118:
  24:src/../h/../h/my_console.h ****     putString("    line: ");
GAS LISTING /tmp/ccVbHWeR.s 			page 30


 1049              		.loc 2 24 5 is_stmt 1
  24:src/../h/../h/my_console.h ****     putString("    line: ");
 1050              		.loc 2 24 14 is_stmt 0
 1051 07a4 17050000 		lla	a0,.LC3
 1051      13050500 
 1052 07ac 97000000 		call	_Z9putStringPKc@plt
 1052      E7800000 
 1053              	.LVL119:
  25:src/../h/../h/my_console.h ****     putInt(line);
 1054              		.loc 2 25 5 is_stmt 1
  25:src/../h/../h/my_console.h ****     putInt(line);
 1055              		.loc 2 25 14 is_stmt 0
 1056 07b4 17050000 		lla	a0,.LC4
 1056      13050500 
 1057 07bc 97000000 		call	_Z9putStringPKc@plt
 1057      E7800000 
 1058              	.LVL120:
  26:src/../h/../h/my_console.h ****     putString("   ===========================");
 1059              		.loc 2 26 5 is_stmt 1
  26:src/../h/../h/my_console.h ****     putString("   ===========================");
 1060              		.loc 2 26 11 is_stmt 0
 1061 07c4 1305700D 		li	a0,215
 1062 07c8 97000000 		call	_Z6putInti@plt
 1062      E7800000 
 1063              	.LVL121:
  27:src/../h/../h/my_console.h ****     putNewline();
 1064              		.loc 2 27 5 is_stmt 1
  27:src/../h/../h/my_console.h ****     putNewline();
 1065              		.loc 2 27 14 is_stmt 0
 1066 07d0 17050000 		lla	a0,.LC5
 1066      13050500 
 1067 07d8 97000000 		call	_Z9putStringPKc@plt
 1067      E7800000 
 1068              	.LVL122:
  28:src/../h/../h/my_console.h **** 
 1069              		.loc 2 28 5 is_stmt 1
  28:src/../h/../h/my_console.h **** 
 1070              		.loc 2 28 15 is_stmt 0
 1071 07e0 97000000 		call	_Z10putNewlinev@plt
 1071      E7800000 
 1072              	.LVL123:
 1073              		.loc 2 30 5 is_stmt 1
 1074              		.loc 2 30 15 is_stmt 0
 1075 07e8 97000000 		call	_Z10stopKernelv@plt
 1075      E7800000 
 1076              	.LVL124:
 1077              	.LBE71:
 1078              	.LBE70:
 1079              		.cfi_endproc
 1080              	.LFE22:
 1082              		.globl	gTimer
 1083              		.weak	_ZGVZN8IConsole3getEvE8instance
 1084              		.section	.bss._ZGVZN8IConsole3getEvE8instance,"awG",@nobits,_ZGVZN8IConsole3getEvE8instance,comdat
 1085              		.align	3
 1088              	_ZGVZN8IConsole3getEvE8instance:
 1089 0000 00000000 		.zero	8
 1089      00000000 
GAS LISTING /tmp/ccVbHWeR.s 			page 31


 1090              		.weak	_ZZN8IConsole3getEvE8instance
 1091              		.section	.bss._ZZN8IConsole3getEvE8instance,"awG",@nobits,_ZZN8IConsole3getEvE8instance,comdat
 1092              		.align	3
 1095              	_ZZN8IConsole3getEvE8instance:
 1096 0000 00000000 		.zero	2048
 1096      00000000 
 1096      00000000 
 1096      00000000 
 1096      00000000 
 1097              		.bss
 1098              		.align	3
 1099              		.set	.LANCHOR0,. + 0
 1102              	gTimer:
 1103 0000 00000000 		.zero	8
 1103      00000000 
 1104              		.text
 1105              	.Letext0:
 1106              		.file 4 "src/../h/../lib/hw.h"
 1107              		.file 5 "src/../h/thread.h"
 1108              		.file 6 "src/../h/scheduler.h"
 1109              		.file 7 "src/../h/alloc.h"
 1110              		.file 8 "src/../h/../h/syscall_c.hpp"
GAS LISTING /tmp/ccVbHWeR.s 			page 32


DEFINED SYMBOLS
                            *ABS*:0000000000000000 trap.cpp
     /tmp/ccVbHWeR.s:9      .text:0000000000000000 _Z8testCallm
     /tmp/ccVbHWeR.s:13     .text:0000000000000000 .L0 
     /tmp/ccVbHWeR.s:15     .text:0000000000000000 .L0 
     /tmp/ccVbHWeR.s:16     .text:0000000000000004 .L0 
     /tmp/ccVbHWeR.s:19     .text:000000000000000c .L0 
     /tmp/ccVbHWeR.s:20     .text:000000000000000c .L0 
     /tmp/ccVbHWeR.s:22     .text:0000000000000010 .L0 
     /tmp/ccVbHWeR.s:24     .text:0000000000000010 .L0 
     /tmp/ccVbHWeR.s:25     .text:0000000000000010 .L0 
     /tmp/ccVbHWeR.s:28     .text:0000000000000018 .L0 
     /tmp/ccVbHWeR.s:29     .text:000000000000001c .L0 
     /tmp/ccVbHWeR.s:31     .text:0000000000000020 .L0 
     /tmp/ccVbHWeR.s:32     .text:0000000000000020 .L0 
     /tmp/ccVbHWeR.s:34     .text:0000000000000024 .L0 
     /tmp/ccVbHWeR.s:36     .text:0000000000000028 .L0 
     /tmp/ccVbHWeR.s:50     .text:0000000000000028 _Z12doTimerStuffv
     /tmp/ccVbHWeR.s:53     .text:0000000000000028 .L0 
     /tmp/ccVbHWeR.s:54     .text:0000000000000028 .L0 
     /tmp/ccVbHWeR.s:55     .text:000000000000002c .L0 
     /tmp/ccVbHWeR.s:58     .text:0000000000000034 .L0 
     /tmp/ccVbHWeR.s:59     .text:0000000000000034 .L0 
     /tmp/ccVbHWeR.s:61     .text:0000000000000038 .L0 
     /tmp/ccVbHWeR.s:63     .text:0000000000000038 .L0 
     /tmp/ccVbHWeR.s:64     .text:0000000000000038 .L0 
     /tmp/ccVbHWeR.s:69     .text:000000000000004c .L0 
     /tmp/ccVbHWeR.s:73     .text:0000000000000054 .L0 
     /tmp/ccVbHWeR.s:74     .text:0000000000000054 .L0 
     /tmp/ccVbHWeR.s:79     .text:0000000000000068 .L0 
     /tmp/ccVbHWeR.s:80     .text:0000000000000068 .L0 
     /tmp/ccVbHWeR.s:83     .text:0000000000000070 .L0 
     /tmp/ccVbHWeR.s:86     .text:0000000000000074 .L0 
     /tmp/ccVbHWeR.s:87     .text:0000000000000078 .L0 
     /tmp/ccVbHWeR.s:88     .text:0000000000000078 .L0 
     /tmp/ccVbHWeR.s:90     .text:000000000000007c .L0 
     /tmp/ccVbHWeR.s:91     .text:000000000000007c .L0 
     /tmp/ccVbHWeR.s:93     .text:0000000000000080 .L0 
     /tmp/ccVbHWeR.s:96     .text:0000000000000084 .L0 
     /tmp/ccVbHWeR.s:98     .text:0000000000000084 .L0 
     /tmp/ccVbHWeR.s:99     .text:0000000000000084 .L0 
     /tmp/ccVbHWeR.s:102    .text:0000000000000090 .L0 
     /tmp/ccVbHWeR.s:103    .text:0000000000000090 .L0 
     /tmp/ccVbHWeR.s:108    .text:000000000000009c .L0 
     /tmp/ccVbHWeR.s:109    .text:000000000000009c .L0 
     /tmp/ccVbHWeR.s:113    .text:00000000000000ac .L0 
     /tmp/ccVbHWeR.s:114    .text:00000000000000ac .L0 
     /tmp/ccVbHWeR.s:118    .text:00000000000000bc .L0 
     /tmp/ccVbHWeR.s:122    .text:00000000000000c8 .L0 
     /tmp/ccVbHWeR.s:123    .text:00000000000000c8 .L0 
     /tmp/ccVbHWeR.s:127    .text:00000000000000d8 .L0 
     /tmp/ccVbHWeR.s:128    .text:00000000000000d8 .L0 
     /tmp/ccVbHWeR.s:131    .text:00000000000000e0 .L0 
     /tmp/ccVbHWeR.s:132    .text:00000000000000e4 .L0 
     /tmp/ccVbHWeR.s:152    .text:00000000000000e4 _Z22cTimerInterruptRoutinev
     /tmp/ccVbHWeR.s:155    .text:00000000000000e4 .L0 
     /tmp/ccVbHWeR.s:156    .text:00000000000000e4 .L0 
GAS LISTING /tmp/ccVbHWeR.s 			page 33


     /tmp/ccVbHWeR.s:157    .text:00000000000000e8 .L0 
     /tmp/ccVbHWeR.s:161    .text:00000000000000f4 .L0 
     /tmp/ccVbHWeR.s:162    .text:00000000000000f4 .L0 
     /tmp/ccVbHWeR.s:163    .text:00000000000000f4 .L0 
     /tmp/ccVbHWeR.s:165    .text:00000000000000f8 .L0 
     /tmp/ccVbHWeR.s:167    .text:00000000000000f8 .L0 
        src/trap.cpp:38     .text:00000000000000f8 .L0 
     /tmp/ccVbHWeR.s:173    .text:00000000000000fc .L0 
     /tmp/ccVbHWeR.s:174    .text:00000000000000fc .L0 
        src/trap.cpp:41     .text:00000000000000fc .L0 
     /tmp/ccVbHWeR.s:180    .text:0000000000000100 .L0 
     /tmp/ccVbHWeR.s:181    .text:0000000000000100 .L0 
        src/trap.cpp:45     .text:0000000000000100 .L0 
     /tmp/ccVbHWeR.s:187    .text:0000000000000104 .L0 
     /tmp/ccVbHWeR.s:197    .text:000000000000011c .L0 
     /tmp/ccVbHWeR.s:203    .text:0000000000000124 .L0 
     /tmp/ccVbHWeR.s:204    .text:0000000000000124 .L0 
     /tmp/ccVbHWeR.s:207    .text:000000000000012c .L0 
     /tmp/ccVbHWeR.s:213    .text:0000000000000134 .L0 
     /tmp/ccVbHWeR.s:214    .text:0000000000000134 .L0 
     /tmp/ccVbHWeR.s:1088   .bss._ZGVZN8IConsole3getEvE8instance:0000000000000000 _ZGVZN8IConsole3getEvE8instance
     /tmp/ccVbHWeR.s:215    .text:0000000000000134 .L0 
     /tmp/ccVbHWeR.s:1095   .bss._ZZN8IConsole3getEvE8instance:0000000000000000 _ZZN8IConsole3getEvE8instance
     /tmp/ccVbHWeR.s:222    .text:0000000000000140 .L0 
     /tmp/ccVbHWeR.s:231    .text:0000000000000154 .L0 
     /tmp/ccVbHWeR.s:237    .text:0000000000000160 .L0 
     /tmp/ccVbHWeR.s:238    .text:0000000000000160 .L0 
     /tmp/ccVbHWeR.s:243    .text:0000000000000170 .L0 
        src/trap.cpp:64     .text:0000000000000170 .L0 
     /tmp/ccVbHWeR.s:250    .text:0000000000000174 .L0 
     /tmp/ccVbHWeR.s:251    .text:0000000000000178 .L0 
     /tmp/ccVbHWeR.s:252    .text:0000000000000178 .L0 
     /tmp/ccVbHWeR.s:254    .text:000000000000017c .L0 
     /tmp/ccVbHWeR.s:255    .text:000000000000017c .L0 
     /tmp/ccVbHWeR.s:257    .text:0000000000000180 .L0 
     /tmp/ccVbHWeR.s:260    .text:0000000000000184 .L0 
     /tmp/ccVbHWeR.s:264    .text:0000000000000188 .L0 
     /tmp/ccVbHWeR.s:268    .text:0000000000000188 .L0 
     /tmp/ccVbHWeR.s:269    .text:0000000000000188 .L0 
     /tmp/ccVbHWeR.s:274    .text:0000000000000198 .L0 
     /tmp/ccVbHWeR.s:275    .text:0000000000000198 .L0 
     /tmp/ccVbHWeR.s:279    .text:00000000000001a8 .L0 
     /tmp/ccVbHWeR.s:280    .text:00000000000001a8 .L0 
     /tmp/ccVbHWeR.s:284    .text:00000000000001b8 .L0 
     /tmp/ccVbHWeR.s:285    .text:00000000000001b8 .L0 
     /tmp/ccVbHWeR.s:289    .text:00000000000001c4 .L0 
     /tmp/ccVbHWeR.s:290    .text:00000000000001c4 .L0 
     /tmp/ccVbHWeR.s:294    .text:00000000000001d4 .L0 
     /tmp/ccVbHWeR.s:295    .text:00000000000001d4 .L0 
     /tmp/ccVbHWeR.s:298    .text:00000000000001dc .L0 
     /tmp/ccVbHWeR.s:299    .text:00000000000001dc .L0 
     /tmp/ccVbHWeR.s:305    .text:00000000000001e4 .L0 
     /tmp/ccVbHWeR.s:306    .text:00000000000001e4 .L0 
     /tmp/ccVbHWeR.s:314    .text:00000000000001f0 .L0 
     /tmp/ccVbHWeR.s:315    .text:00000000000001f0 .L0 
     /tmp/ccVbHWeR.s:316    .text:00000000000001f0 .L0 
     /tmp/ccVbHWeR.s:317    .text:00000000000001f0 .L0 
GAS LISTING /tmp/ccVbHWeR.s 			page 34


     /tmp/ccVbHWeR.s:321    .text:0000000000000200 .L0 
     /tmp/ccVbHWeR.s:322    .text:0000000000000200 .L0 
     /tmp/ccVbHWeR.s:326    .text:0000000000000210 .L0 
     /tmp/ccVbHWeR.s:327    .text:0000000000000210 .L0 
     /tmp/ccVbHWeR.s:331    .text:0000000000000220 .L0 
     /tmp/ccVbHWeR.s:332    .text:0000000000000220 .L0 
     /tmp/ccVbHWeR.s:336    .text:000000000000022c .L0 
     /tmp/ccVbHWeR.s:337    .text:000000000000022c .L0 
     /tmp/ccVbHWeR.s:341    .text:000000000000023c .L0 
     /tmp/ccVbHWeR.s:342    .text:000000000000023c .L0 
     /tmp/ccVbHWeR.s:345    .text:0000000000000244 .L0 
     /tmp/ccVbHWeR.s:346    .text:0000000000000244 .L0 
     /tmp/ccVbHWeR.s:350    .text:000000000000024c .L0 
     /tmp/ccVbHWeR.s:376    .text:000000000000024c _Z25cInternalInterruptRoutinev
     /tmp/ccVbHWeR.s:379    .text:000000000000024c .L0 
     /tmp/ccVbHWeR.s:380    .text:000000000000024c .L0 
     /tmp/ccVbHWeR.s:381    .text:0000000000000250 .L0 
     /tmp/ccVbHWeR.s:391    .text:0000000000000274 .L0 
     /tmp/ccVbHWeR.s:392    .text:0000000000000274 .L0 
     /tmp/ccVbHWeR.s:393    .text:0000000000000274 .L0 
     /tmp/ccVbHWeR.s:394    .text:0000000000000274 .L0 
     /tmp/ccVbHWeR.s:395    .text:0000000000000274 .L0 
     /tmp/ccVbHWeR.s:396    .text:0000000000000274 .L0 
     /tmp/ccVbHWeR.s:397    .text:0000000000000274 .L0 
     /tmp/ccVbHWeR.s:398    .text:0000000000000274 .L0 
     /tmp/ccVbHWeR.s:399    .text:0000000000000274 .L0 
     /tmp/ccVbHWeR.s:401    .text:0000000000000278 .L0 
     /tmp/ccVbHWeR.s:403    .text:0000000000000278 .L0 
     /tmp/ccVbHWeR.s:404    .text:0000000000000278 .L0 
        src/trap.cpp:71     .text:0000000000000278 .L0 
     /tmp/ccVbHWeR.s:411    .text:000000000000027c .L0 
     /tmp/ccVbHWeR.s:412    .text:000000000000027c .L0 
        src/trap.cpp:76     .text:000000000000027c .L0 
     /tmp/ccVbHWeR.s:417    .text:0000000000000280 .L0 
     /tmp/ccVbHWeR.s:418    .text:0000000000000280 .L0 
        src/trap.cpp:79     .text:0000000000000280 .L0 
     /tmp/ccVbHWeR.s:424    .text:0000000000000284 .L0 
        src/trap.cpp:80     .text:0000000000000284 .L0 
     /tmp/ccVbHWeR.s:430    .text:0000000000000288 .L0 
        src/trap.cpp:81     .text:0000000000000288 .L0 
     /tmp/ccVbHWeR.s:436    .text:000000000000028c .L0 
        src/trap.cpp:82     .text:000000000000028c .L0 
     /tmp/ccVbHWeR.s:442    .text:0000000000000290 .L0 
        src/trap.cpp:85     .text:0000000000000290 .L0 
     /tmp/ccVbHWeR.s:448    .text:0000000000000294 .L0 
     /tmp/ccVbHWeR.s:458    .text:00000000000002b0 .L0 
     /tmp/ccVbHWeR.s:465    .text:00000000000002bc .L0 
     /tmp/ccVbHWeR.s:466    .text:00000000000002bc .L0 
        src/trap.cpp:97     .text:00000000000002bc .L0 
     /tmp/ccVbHWeR.s:472    .text:00000000000002c0 .L0 
     /tmp/ccVbHWeR.s:474    .text:00000000000002c0 .L0 
     /tmp/ccVbHWeR.s:477    .text:00000000000002c4 .L0 
     /tmp/ccVbHWeR.s:480    .text:00000000000002cc .L0 
     /tmp/ccVbHWeR.s:481    .text:00000000000002cc .L0 
     /tmp/ccVbHWeR.s:484    .text:00000000000002d4 .L0 
     /tmp/ccVbHWeR.s:487    .text:00000000000002dc .L0 
     /tmp/ccVbHWeR.s:490    .text:00000000000002e4 .L0 
GAS LISTING /tmp/ccVbHWeR.s 			page 35


     /tmp/ccVbHWeR.s:493    .text:00000000000002ec .L0 
     /tmp/ccVbHWeR.s:496    .text:00000000000002f4 .L0 
     /tmp/ccVbHWeR.s:499    .text:00000000000002fc .L0 
     /tmp/ccVbHWeR.s:502    .text:0000000000000304 .L0 
     /tmp/ccVbHWeR.s:505    .text:000000000000030c .L0 
     /tmp/ccVbHWeR.s:508    .text:0000000000000314 .L0 
     /tmp/ccVbHWeR.s:511    .text:000000000000031c .L0 
     /tmp/ccVbHWeR.s:517    .text:0000000000000324 .L0 
     /tmp/ccVbHWeR.s:518    .text:0000000000000324 .L0 
     /tmp/ccVbHWeR.s:519    .text:0000000000000324 .L0 
     /tmp/ccVbHWeR.s:520    .text:0000000000000324 .L0 
     /tmp/ccVbHWeR.s:524    .text:0000000000000334 .L0 
     /tmp/ccVbHWeR.s:525    .text:0000000000000334 .L0 
     /tmp/ccVbHWeR.s:529    .text:0000000000000344 .L0 
     /tmp/ccVbHWeR.s:530    .text:0000000000000344 .L0 
     /tmp/ccVbHWeR.s:534    .text:0000000000000354 .L0 
     /tmp/ccVbHWeR.s:535    .text:0000000000000354 .L0 
     /tmp/ccVbHWeR.s:539    .text:0000000000000360 .L0 
     /tmp/ccVbHWeR.s:540    .text:0000000000000360 .L0 
     /tmp/ccVbHWeR.s:544    .text:0000000000000370 .L0 
     /tmp/ccVbHWeR.s:545    .text:0000000000000370 .L0 
     /tmp/ccVbHWeR.s:548    .text:0000000000000378 .L0 
     /tmp/ccVbHWeR.s:549    .text:0000000000000378 .L0 
     /tmp/ccVbHWeR.s:557    .text:0000000000000380 .L0 
     /tmp/ccVbHWeR.s:558    .text:0000000000000380 .L0 
     /tmp/ccVbHWeR.s:563    .text:0000000000000390 .L0 
     /tmp/ccVbHWeR.s:564    .text:0000000000000390 .L0 
     /tmp/ccVbHWeR.s:568    .text:00000000000003a0 .L0 
     /tmp/ccVbHWeR.s:569    .text:00000000000003a0 .L0 
     /tmp/ccVbHWeR.s:573    .text:00000000000003b0 .L0 
     /tmp/ccVbHWeR.s:574    .text:00000000000003b0 .L0 
     /tmp/ccVbHWeR.s:578    .text:00000000000003bc .L0 
     /tmp/ccVbHWeR.s:579    .text:00000000000003bc .L0 
     /tmp/ccVbHWeR.s:583    .text:00000000000003cc .L0 
     /tmp/ccVbHWeR.s:584    .text:00000000000003cc .L0 
     /tmp/ccVbHWeR.s:587    .text:00000000000003d4 .L0 
     /tmp/ccVbHWeR.s:588    .text:00000000000003d4 .L0 
     /tmp/ccVbHWeR.s:594    .text:00000000000003dc .L0 
     /tmp/ccVbHWeR.s:595    .text:00000000000003dc .L0 
     /tmp/ccVbHWeR.s:599    .text:00000000000003ec .L0 
     /tmp/ccVbHWeR.s:602    .text:00000000000003f4 .L0 
     /tmp/ccVbHWeR.s:605    .text:00000000000003fc .L0 
     /tmp/ccVbHWeR.s:608    .text:0000000000000404 .L0 
     /tmp/ccVbHWeR.s:609    .text:0000000000000404 .L0 
     /tmp/ccVbHWeR.s:615    .text:0000000000000414 .L0 
     /tmp/ccVbHWeR.s:616    .text:0000000000000414 .L0 
     /tmp/ccVbHWeR.s:617    .text:0000000000000414 .L0 
     /tmp/ccVbHWeR.s:618    .text:0000000000000414 .L0 
     /tmp/ccVbHWeR.s:622    .text:0000000000000424 .L0 
     /tmp/ccVbHWeR.s:623    .text:0000000000000424 .L0 
     /tmp/ccVbHWeR.s:627    .text:0000000000000434 .L0 
     /tmp/ccVbHWeR.s:628    .text:0000000000000434 .L0 
     /tmp/ccVbHWeR.s:632    .text:0000000000000444 .L0 
     /tmp/ccVbHWeR.s:633    .text:0000000000000444 .L0 
     /tmp/ccVbHWeR.s:637    .text:0000000000000450 .L0 
     /tmp/ccVbHWeR.s:638    .text:0000000000000450 .L0 
     /tmp/ccVbHWeR.s:642    .text:0000000000000460 .L0 
GAS LISTING /tmp/ccVbHWeR.s 			page 36


     /tmp/ccVbHWeR.s:643    .text:0000000000000460 .L0 
     /tmp/ccVbHWeR.s:646    .text:0000000000000468 .L0 
     /tmp/ccVbHWeR.s:647    .text:0000000000000468 .L0 
     /tmp/ccVbHWeR.s:653    .text:0000000000000470 .L0 
     /tmp/ccVbHWeR.s:654    .text:0000000000000470 .L0 
     /tmp/ccVbHWeR.s:660    .text:0000000000000484 .L0 
     /tmp/ccVbHWeR.s:661    .text:0000000000000484 .L0 
     /tmp/ccVbHWeR.s:667    .text:0000000000000498 .L0 
     /tmp/ccVbHWeR.s:668    .text:0000000000000498 .L0 
     /tmp/ccVbHWeR.s:673    .text:00000000000004a8 .L0 
     /tmp/ccVbHWeR.s:674    .text:00000000000004a8 .L0 
     /tmp/ccVbHWeR.s:677    .text:00000000000004b0 .L0 
     /tmp/ccVbHWeR.s:678    .text:00000000000004b0 .L0 
     /tmp/ccVbHWeR.s:682    .text:00000000000004c0 .L0 
     /tmp/ccVbHWeR.s:683    .text:00000000000004c0 .L0 
     /tmp/ccVbHWeR.s:688    .text:00000000000004c8 .L0 
     /tmp/ccVbHWeR.s:689    .text:00000000000004c8 .L0 
     /tmp/ccVbHWeR.s:690    .text:00000000000004c8 .L0 
     /tmp/ccVbHWeR.s:691    .text:00000000000004c8 .L0 
     /tmp/ccVbHWeR.s:695    .text:00000000000004d8 .L0 
     /tmp/ccVbHWeR.s:696    .text:00000000000004d8 .L0 
     /tmp/ccVbHWeR.s:700    .text:00000000000004e8 .L0 
     /tmp/ccVbHWeR.s:701    .text:00000000000004e8 .L0 
     /tmp/ccVbHWeR.s:705    .text:00000000000004f8 .L0 
     /tmp/ccVbHWeR.s:706    .text:00000000000004f8 .L0 
     /tmp/ccVbHWeR.s:710    .text:0000000000000504 .L0 
     /tmp/ccVbHWeR.s:711    .text:0000000000000504 .L0 
     /tmp/ccVbHWeR.s:715    .text:0000000000000514 .L0 
     /tmp/ccVbHWeR.s:716    .text:0000000000000514 .L0 
     /tmp/ccVbHWeR.s:719    .text:000000000000051c .L0 
     /tmp/ccVbHWeR.s:720    .text:000000000000051c .L0 
     /tmp/ccVbHWeR.s:726    .text:0000000000000524 .L0 
     /tmp/ccVbHWeR.s:727    .text:0000000000000524 .L0 
     /tmp/ccVbHWeR.s:733    .text:0000000000000538 .L0 
     /tmp/ccVbHWeR.s:736    .text:000000000000053c .L0 
     /tmp/ccVbHWeR.s:737    .text:000000000000053c .L0 
     /tmp/ccVbHWeR.s:739    .text:0000000000000540 .L0 
     /tmp/ccVbHWeR.s:742    .text:0000000000000548 .L0 
     /tmp/ccVbHWeR.s:745    .text:0000000000000550 .L0 
     /tmp/ccVbHWeR.s:748    .text:0000000000000558 .L0 
     /tmp/ccVbHWeR.s:751    .text:0000000000000560 .L0 
     /tmp/ccVbHWeR.s:754    .text:0000000000000568 .L0 
     /tmp/ccVbHWeR.s:757    .text:0000000000000570 .L0 
     /tmp/ccVbHWeR.s:760    .text:0000000000000578 .L0 
     /tmp/ccVbHWeR.s:763    .text:0000000000000580 .L0 
     /tmp/ccVbHWeR.s:766    .text:0000000000000588 .L0 
     /tmp/ccVbHWeR.s:770    .text:0000000000000590 .L0 
     /tmp/ccVbHWeR.s:771    .text:0000000000000590 .L0 
     /tmp/ccVbHWeR.s:777    .text:00000000000005a4 .L0 
     /tmp/ccVbHWeR.s:781    .text:00000000000005ac .L0 
     /tmp/ccVbHWeR.s:782    .text:00000000000005ac .L0 
     /tmp/ccVbHWeR.s:786    .text:00000000000005b8 .L0 
     /tmp/ccVbHWeR.s:790    .text:00000000000005c0 .L0 
     /tmp/ccVbHWeR.s:791    .text:00000000000005c0 .L0 
     /tmp/ccVbHWeR.s:796    .text:00000000000005cc .L0 
     /tmp/ccVbHWeR.s:797    .text:00000000000005cc .L0 
     /tmp/ccVbHWeR.s:803    .text:00000000000005e0 .L0 
GAS LISTING /tmp/ccVbHWeR.s 			page 37


     /tmp/ccVbHWeR.s:807    .text:00000000000005e8 .L0 
     /tmp/ccVbHWeR.s:808    .text:00000000000005e8 .L0 
     /tmp/ccVbHWeR.s:811    .text:00000000000005f0 .L0 
     /tmp/ccVbHWeR.s:815    .text:00000000000005f8 .L0 
     /tmp/ccVbHWeR.s:816    .text:00000000000005f8 .L0 
     /tmp/ccVbHWeR.s:821    .text:0000000000000604 .L0 
     /tmp/ccVbHWeR.s:822    .text:0000000000000604 .L0 
     /tmp/ccVbHWeR.s:828    .text:0000000000000614 .L0 
     /tmp/ccVbHWeR.s:835    .text:0000000000000620 .L0 
     /tmp/ccVbHWeR.s:836    .text:0000000000000620 .L0 
     /tmp/ccVbHWeR.s:837    .text:0000000000000620 .L0 
     /tmp/ccVbHWeR.s:838    .text:0000000000000620 .L0 
     /tmp/ccVbHWeR.s:840    .text:0000000000000624 .L0 
     /tmp/ccVbHWeR.s:843    .text:000000000000062c .L0 
     /tmp/ccVbHWeR.s:846    .text:0000000000000634 .L0 
     /tmp/ccVbHWeR.s:850    .text:0000000000000638 .L0 
     /tmp/ccVbHWeR.s:852    .text:000000000000063c .L0 
     /tmp/ccVbHWeR.s:855    .text:0000000000000644 .L0 
     /tmp/ccVbHWeR.s:857    .text:0000000000000648 .L0 
     /tmp/ccVbHWeR.s:863    .text:0000000000000650 .L0 
     /tmp/ccVbHWeR.s:864    .text:0000000000000650 .L0 
     /tmp/ccVbHWeR.s:865    .text:0000000000000650 .L0 
     /tmp/ccVbHWeR.s:866    .text:0000000000000650 .L0 
     /tmp/ccVbHWeR.s:870    .text:0000000000000660 .L0 
     /tmp/ccVbHWeR.s:871    .text:0000000000000660 .L0 
     /tmp/ccVbHWeR.s:875    .text:0000000000000670 .L0 
     /tmp/ccVbHWeR.s:876    .text:0000000000000670 .L0 
     /tmp/ccVbHWeR.s:880    .text:0000000000000680 .L0 
     /tmp/ccVbHWeR.s:881    .text:0000000000000680 .L0 
     /tmp/ccVbHWeR.s:885    .text:000000000000068c .L0 
     /tmp/ccVbHWeR.s:886    .text:000000000000068c .L0 
     /tmp/ccVbHWeR.s:890    .text:000000000000069c .L0 
     /tmp/ccVbHWeR.s:891    .text:000000000000069c .L0 
     /tmp/ccVbHWeR.s:894    .text:00000000000006a4 .L0 
     /tmp/ccVbHWeR.s:895    .text:00000000000006a4 .L0 
     /tmp/ccVbHWeR.s:901    .text:00000000000006ac .L0 
     /tmp/ccVbHWeR.s:924    .text:00000000000006e4 .L0 
     /tmp/ccVbHWeR.s:930    .text:00000000000006ec .L0 
     /tmp/ccVbHWeR.s:935    .text:00000000000006f0 .L0 
     /tmp/ccVbHWeR.s:936    .text:00000000000006f0 .L0 
     /tmp/ccVbHWeR.s:937    .text:00000000000006f0 .L0 
     /tmp/ccVbHWeR.s:945    .text:00000000000006f8 .L0 
        src/trap.cpp:200    .text:00000000000006f8 .L0 
     /tmp/ccVbHWeR.s:952    .text:00000000000006fc .L0 
     /tmp/ccVbHWeR.s:953    .text:0000000000000700 .L0 
     /tmp/ccVbHWeR.s:954    .text:0000000000000700 .L0 
     /tmp/ccVbHWeR.s:956    .text:0000000000000704 .L0 
     /tmp/ccVbHWeR.s:957    .text:0000000000000704 .L0 
     /tmp/ccVbHWeR.s:959    .text:0000000000000708 .L0 
     /tmp/ccVbHWeR.s:962    .text:000000000000070c .L0 
     /tmp/ccVbHWeR.s:964    .text:0000000000000710 .L0 
     /tmp/ccVbHWeR.s:967    .text:0000000000000714 .L0 
     /tmp/ccVbHWeR.s:970    .text:0000000000000718 .L0 
     /tmp/ccVbHWeR.s:973    .text:000000000000071c .L0 
     /tmp/ccVbHWeR.s:976    .text:0000000000000720 .L0 
     /tmp/ccVbHWeR.s:979    .text:0000000000000724 .L0 
     /tmp/ccVbHWeR.s:983    .text:0000000000000728 .L0 
GAS LISTING /tmp/ccVbHWeR.s 			page 38


     /tmp/ccVbHWeR.s:987    .text:0000000000000728 .L0 
     /tmp/ccVbHWeR.s:988    .text:0000000000000728 .L0 
     /tmp/ccVbHWeR.s:992    .text:0000000000000738 .L0 
     /tmp/ccVbHWeR.s:993    .text:0000000000000738 .L0 
     /tmp/ccVbHWeR.s:997    .text:0000000000000748 .L0 
     /tmp/ccVbHWeR.s:998    .text:0000000000000748 .L0 
     /tmp/ccVbHWeR.s:1002   .text:0000000000000758 .L0 
     /tmp/ccVbHWeR.s:1003   .text:0000000000000758 .L0 
     /tmp/ccVbHWeR.s:1007   .text:0000000000000764 .L0 
     /tmp/ccVbHWeR.s:1008   .text:0000000000000764 .L0 
     /tmp/ccVbHWeR.s:1012   .text:0000000000000774 .L0 
     /tmp/ccVbHWeR.s:1013   .text:0000000000000774 .L0 
     /tmp/ccVbHWeR.s:1016   .text:000000000000077c .L0 
     /tmp/ccVbHWeR.s:1017   .text:000000000000077c .L0 
     /tmp/ccVbHWeR.s:1021   .text:0000000000000784 .L0 
     /tmp/ccVbHWeR.s:1027   .text:0000000000000784 _Z24cConsoleInterruptRoutinev
     /tmp/ccVbHWeR.s:1030   .text:0000000000000784 .L0 
     /tmp/ccVbHWeR.s:1031   .text:0000000000000784 .L0 
     /tmp/ccVbHWeR.s:1032   .text:0000000000000788 .L0 
     /tmp/ccVbHWeR.s:1035   .text:0000000000000790 .L0 
     /tmp/ccVbHWeR.s:1036   .text:0000000000000790 .L0 
     /tmp/ccVbHWeR.s:1038   .text:0000000000000794 .L0 
     /tmp/ccVbHWeR.s:1043   .text:0000000000000794 .L0 
     /tmp/ccVbHWeR.s:1044   .text:0000000000000794 .L0 
     /tmp/ccVbHWeR.s:1045   .text:0000000000000794 .L0 
     /tmp/ccVbHWeR.s:1046   .text:0000000000000794 .L0 
     /tmp/ccVbHWeR.s:1050   .text:00000000000007a4 .L0 
     /tmp/ccVbHWeR.s:1051   .text:00000000000007a4 .L0 
     /tmp/ccVbHWeR.s:1055   .text:00000000000007b4 .L0 
     /tmp/ccVbHWeR.s:1056   .text:00000000000007b4 .L0 
     /tmp/ccVbHWeR.s:1060   .text:00000000000007c4 .L0 
     /tmp/ccVbHWeR.s:1061   .text:00000000000007c4 .L0 
     /tmp/ccVbHWeR.s:1065   .text:00000000000007d0 .L0 
     /tmp/ccVbHWeR.s:1066   .text:00000000000007d0 .L0 
     /tmp/ccVbHWeR.s:1070   .text:00000000000007e0 .L0 
     /tmp/ccVbHWeR.s:1071   .text:00000000000007e0 .L0 
     /tmp/ccVbHWeR.s:1074   .text:00000000000007e8 .L0 
     /tmp/ccVbHWeR.s:1075   .text:00000000000007e8 .L0 
     /tmp/ccVbHWeR.s:1079   .text:00000000000007f0 .L0 
     /tmp/ccVbHWeR.s:1102   .bss:0000000000000000 gTimer
     /tmp/ccVbHWeR.s:1099   .bss:0000000000000000 .LANCHOR0
     /tmp/ccVbHWeR.s:1111   .text:00000000000007f0 .L0 
     /tmp/ccVbHWeR.s:64     .text:0000000000000038 .L0 
     /tmp/ccVbHWeR.s:74     .text:0000000000000054 .L0 
     /tmp/ccVbHWeR.s:99     .text:0000000000000084 .L0 
     /tmp/ccVbHWeR.s:41     .rodata.str1.8:0000000000000000 .LC0
     /tmp/ccVbHWeR.s:109    .text:000000000000009c .L0 
     /tmp/ccVbHWeR.s:114    .text:00000000000000ac .L0 
     /tmp/ccVbHWeR.s:44     .rodata.str1.8:0000000000000008 .LC1
     /tmp/ccVbHWeR.s:123    .text:00000000000000c8 .L0 
     /tmp/ccVbHWeR.s:190    .text:0000000000000110 .L0 
     /tmp/ccVbHWeR.s:215    .text:0000000000000134 .L0 
     /tmp/ccVbHWeR.s:222    .text:0000000000000140 .L0 
     /tmp/ccVbHWeR.s:232    .text:0000000000000158 .L0 
     /tmp/ccVbHWeR.s:238    .text:0000000000000160 .L0 
     /tmp/ccVbHWeR.s:137    .rodata.str1.8:0000000000000010 .LC2
     /tmp/ccVbHWeR.s:269    .text:0000000000000188 .L0 
GAS LISTING /tmp/ccVbHWeR.s 			page 39


     /tmp/ccVbHWeR.s:140    .rodata.str1.8:0000000000000038 .LC3
     /tmp/ccVbHWeR.s:275    .text:0000000000000198 .L0 
     /tmp/ccVbHWeR.s:143    .rodata.str1.8:0000000000000048 .LC4
     /tmp/ccVbHWeR.s:280    .text:00000000000001a8 .L0 
     /tmp/ccVbHWeR.s:146    .rodata.str1.8:0000000000000058 .LC5
     /tmp/ccVbHWeR.s:290    .text:00000000000001c4 .L0 
     /tmp/ccVbHWeR.s:317    .text:00000000000001f0 .L0 
     /tmp/ccVbHWeR.s:322    .text:0000000000000200 .L0 
     /tmp/ccVbHWeR.s:327    .text:0000000000000210 .L0 
     /tmp/ccVbHWeR.s:337    .text:000000000000022c .L0 
     /tmp/ccVbHWeR.s:451    .text:00000000000002a0 .L0 
     /tmp/ccVbHWeR.s:520    .text:0000000000000324 .L0 
     /tmp/ccVbHWeR.s:525    .text:0000000000000334 .L0 
     /tmp/ccVbHWeR.s:530    .text:0000000000000344 .L0 
     /tmp/ccVbHWeR.s:540    .text:0000000000000360 .L0 
     /tmp/ccVbHWeR.s:558    .text:0000000000000380 .L0 
     /tmp/ccVbHWeR.s:564    .text:0000000000000390 .L0 
     /tmp/ccVbHWeR.s:569    .text:00000000000003a0 .L0 
     /tmp/ccVbHWeR.s:579    .text:00000000000003bc .L0 
     /tmp/ccVbHWeR.s:355    .rodata.str1.8:0000000000000078 .LC6
     /tmp/ccVbHWeR.s:595    .text:00000000000003dc .L0 
     /tmp/ccVbHWeR.s:367    .rodata.str1.8:00000000000000e0 .LC10
     /tmp/ccVbHWeR.s:609    .text:0000000000000404 .L0 
     /tmp/ccVbHWeR.s:618    .text:0000000000000414 .L0 
     /tmp/ccVbHWeR.s:623    .text:0000000000000424 .L0 
     /tmp/ccVbHWeR.s:628    .text:0000000000000434 .L0 
     /tmp/ccVbHWeR.s:638    .text:0000000000000450 .L0 
     /tmp/ccVbHWeR.s:358    .rodata.str1.8:0000000000000098 .LC7
     /tmp/ccVbHWeR.s:654    .text:0000000000000470 .L0 
     /tmp/ccVbHWeR.s:361    .rodata.str1.8:00000000000000b0 .LC8
     /tmp/ccVbHWeR.s:661    .text:0000000000000484 .L0 
     /tmp/ccVbHWeR.s:364    .rodata.str1.8:00000000000000c8 .LC9
     /tmp/ccVbHWeR.s:668    .text:0000000000000498 .L0 
     /tmp/ccVbHWeR.s:370    .rodata.str1.8:0000000000000108 .LC11
     /tmp/ccVbHWeR.s:678    .text:00000000000004b0 .L0 
     /tmp/ccVbHWeR.s:691    .text:00000000000004c8 .L0 
     /tmp/ccVbHWeR.s:696    .text:00000000000004d8 .L0 
     /tmp/ccVbHWeR.s:701    .text:00000000000004e8 .L0 
     /tmp/ccVbHWeR.s:711    .text:0000000000000504 .L0 
     /tmp/ccVbHWeR.s:866    .text:0000000000000650 .L0 
     /tmp/ccVbHWeR.s:871    .text:0000000000000660 .L0 
     /tmp/ccVbHWeR.s:876    .text:0000000000000670 .L0 
     /tmp/ccVbHWeR.s:886    .text:000000000000068c .L0 
     /tmp/ccVbHWeR.s:988    .text:0000000000000728 .L0 
     /tmp/ccVbHWeR.s:993    .text:0000000000000738 .L0 
     /tmp/ccVbHWeR.s:998    .text:0000000000000748 .L0 
     /tmp/ccVbHWeR.s:1008   .text:0000000000000764 .L0 
     /tmp/ccVbHWeR.s:1046   .text:0000000000000794 .L0 
     /tmp/ccVbHWeR.s:1051   .text:00000000000007a4 .L0 
     /tmp/ccVbHWeR.s:1056   .text:00000000000007b4 .L0 
     /tmp/ccVbHWeR.s:1066   .text:00000000000007d0 .L0 
     /tmp/ccVbHWeR.s:95     .text:0000000000000084 .L7
     /tmp/ccVbHWeR.s:106    .text:000000000000009c .L8
     /tmp/ccVbHWeR.s:71     .text:0000000000000054 .L4
     /tmp/ccVbHWeR.s:84     .text:0000000000000074 .L3
     /tmp/ccVbHWeR.s:263    .text:0000000000000188 .L16
     /tmp/ccVbHWeR.s:301    .text:00000000000001e4 .L17
GAS LISTING /tmp/ccVbHWeR.s 			page 40


     /tmp/ccVbHWeR.s:309    .text:00000000000001f0 .L13
     /tmp/ccVbHWeR.s:233    .text:0000000000000160 .L14
     /tmp/ccVbHWeR.s:241    .text:0000000000000170 .L12
     /tmp/ccVbHWeR.s:551    .text:0000000000000380 .L51
     /tmp/ccVbHWeR.s:590    .text:00000000000003dc .L52
     /tmp/ccVbHWeR.s:722    .text:0000000000000524 .L53
     /tmp/ccVbHWeR.s:768    .text:0000000000000590 .L54
     /tmp/ccVbHWeR.s:779    .text:00000000000005ac .L55
     /tmp/ccVbHWeR.s:788    .text:00000000000005c0 .L56
     /tmp/ccVbHWeR.s:794    .text:00000000000005cc .L57
     /tmp/ccVbHWeR.s:805    .text:00000000000005e8 .L58
     /tmp/ccVbHWeR.s:813    .text:00000000000005f8 .L59
     /tmp/ccVbHWeR.s:819    .text:0000000000000604 .L60
     /tmp/ccVbHWeR.s:734    .text:000000000000053c .L26
     /tmp/ccVbHWeR.s:649    .text:0000000000000470 .L61
     /tmp/ccVbHWeR.s:658    .text:0000000000000484 .L62
     /tmp/ccVbHWeR.s:665    .text:0000000000000498 .L63
     /tmp/ccVbHWeR.s:671    .text:00000000000004a8 .L22
     /tmp/ccVbHWeR.s:830    .text:000000000000061c .L40
     /tmp/ccVbHWeR.s:897    .text:00000000000006ac .L41
     /tmp/ccVbHWeR.s:903    .text:00000000000006b4 .L42
     /tmp/ccVbHWeR.s:906    .text:00000000000006bc .L43
     /tmp/ccVbHWeR.s:909    .text:00000000000006c4 .L44
     /tmp/ccVbHWeR.s:912    .text:00000000000006cc .L45
     /tmp/ccVbHWeR.s:915    .text:00000000000006d4 .L46
     /tmp/ccVbHWeR.s:918    .text:00000000000006dc .L47
     /tmp/ccVbHWeR.s:826    .text:0000000000000614 .L64
     /tmp/ccVbHWeR.s:832    .text:0000000000000620 .L34
     /tmp/ccVbHWeR.s:847    .text:0000000000000638 .L35
     /tmp/ccVbHWeR.s:922    .text:00000000000006e4 .L36
     /tmp/ccVbHWeR.s:943    .text:00000000000006f8 .L39
     /tmp/ccVbHWeR.s:982    .text:0000000000000728 .L65
     /tmp/ccVbHWeR.s:3256   .debug_abbrev:0000000000000000 .Ldebug_abbrev0
     /tmp/ccVbHWeR.s:5082   .debug_str:00000000000007bb .LASF145
     /tmp/ccVbHWeR.s:4912   .debug_str:0000000000000307 .LASF146
     /tmp/ccVbHWeR.s:5040   .debug_str:0000000000000684 .LASF147
     /tmp/ccVbHWeR.s:5      .text:0000000000000000 .Ltext0
     /tmp/ccVbHWeR.s:1105   .text:00000000000007f0 .Letext0
     /tmp/ccVbHWeR.s:4818   .debug_line:0000000000000000 .Ldebug_line0
     /tmp/ccVbHWeR.s:4990   .debug_str:00000000000004f3 .LASF0
     /tmp/ccVbHWeR.s:5012   .debug_str:00000000000005ad .LASF1
     /tmp/ccVbHWeR.s:4972   .debug_str:0000000000000474 .LASF2
     /tmp/ccVbHWeR.s:4938   .debug_str:00000000000003af .LASF4
     /tmp/ccVbHWeR.s:5062   .debug_str:0000000000000732 .LASF3
     /tmp/ccVbHWeR.s:4852   .debug_str:00000000000000f0 .LASF5
     /tmp/ccVbHWeR.s:5016   .debug_str:00000000000005d4 .LASF6
     /tmp/ccVbHWeR.s:4988   .debug_str:00000000000004e0 .LASF7
     /tmp/ccVbHWeR.s:5094   .debug_str:00000000000008d3 .LASF8
     /tmp/ccVbHWeR.s:4918   .debug_str:0000000000000331 .LASF9
     /tmp/ccVbHWeR.s:5034   .debug_str:0000000000000653 .LASF10
     /tmp/ccVbHWeR.s:5086   .debug_str:000000000000088d .LASF11
     /tmp/ccVbHWeR.s:4856   .debug_str:0000000000000102 .LASF12
     /tmp/ccVbHWeR.s:4830   .debug_str:0000000000000062 .LASF13
     /tmp/ccVbHWeR.s:4870   .debug_str:000000000000019a .LASF14
     /tmp/ccVbHWeR.s:5052   .debug_str:00000000000006d4 .LASF15
     /tmp/ccVbHWeR.s:4882   .debug_str:00000000000001f2 .LASF16
     /tmp/ccVbHWeR.s:4872   .debug_str:00000000000001a6 .LASF47
GAS LISTING /tmp/ccVbHWeR.s 			page 41


     /tmp/ccVbHWeR.s:4924   .debug_str:0000000000000354 .LASF148
     /tmp/ccVbHWeR.s:5024   .debug_str:000000000000061f .LASF17
     /tmp/ccVbHWeR.s:4984   .debug_str:00000000000004b6 .LASF18
     /tmp/ccVbHWeR.s:5032   .debug_str:000000000000064d .LASF19
     /tmp/ccVbHWeR.s:4982   .debug_str:00000000000004a9 .LASF20
     /tmp/ccVbHWeR.s:4958   .debug_str:000000000000040c .LASF21
     /tmp/ccVbHWeR.s:5022   .debug_str:0000000000000613 .LASF22
     /tmp/ccVbHWeR.s:5124   .debug_str:00000000000009d3 .LASF23
     /tmp/ccVbHWeR.s:5064   .debug_str:0000000000000744 .LASF24
     /tmp/ccVbHWeR.s:5008   .debug_str:0000000000000587 .LASF25
     /tmp/ccVbHWeR.s:5078   .debug_str:00000000000007a4 .LASF26
     /tmp/ccVbHWeR.s:4936   .debug_str:00000000000003a3 .LASF27
     /tmp/ccVbHWeR.s:4902   .debug_str:00000000000002a5 .LASF28
     /tmp/ccVbHWeR.s:4822   .debug_str:0000000000000006 .LASF29
     /tmp/ccVbHWeR.s:5080   .debug_str:00000000000007af .LASF30
     /tmp/ccVbHWeR.s:5000   .debug_str:0000000000000541 .LASF32
     /tmp/ccVbHWeR.s:5030   .debug_str:0000000000000641 .LASF34
     /tmp/ccVbHWeR.s:4908   .debug_str:00000000000002d5 .LASF36
     /tmp/ccVbHWeR.s:4948   .debug_str:00000000000003d6 .LASF46
     /tmp/ccVbHWeR.s:5020   .debug_str:00000000000005ed .LASF48
     /tmp/ccVbHWeR.s:5048   .debug_str:00000000000006bc .LASF149
     /tmp/ccVbHWeR.s:4960   .debug_str:0000000000000418 .LASF31
     /tmp/ccVbHWeR.s:4844   .debug_str:00000000000000c5 .LASF33
     /tmp/ccVbHWeR.s:5132   .debug_str:00000000000009ff .LASF59
     /tmp/ccVbHWeR.s:5006   .debug_str:000000000000056b .LASF61
     /tmp/ccVbHWeR.s:5066   .debug_str:0000000000000755 .LASF35
     /tmp/ccVbHWeR.s:4838   .debug_str:0000000000000092 .LASF37
     /tmp/ccVbHWeR.s:4846   .debug_str:00000000000000d8 .LASF38
     /tmp/ccVbHWeR.s:4942   .debug_str:00000000000003c1 .LASF39
     /tmp/ccVbHWeR.s:5002   .debug_str:000000000000055c .LASF40
     /tmp/ccVbHWeR.s:5128   .debug_str:00000000000009ee .LASF41
     /tmp/ccVbHWeR.s:5004   .debug_str:0000000000000561 .LASF42
     /tmp/ccVbHWeR.s:4922   .debug_str:000000000000034e .LASF43
     /tmp/ccVbHWeR.s:5100   .debug_str:00000000000008f8 .LASF44
     /tmp/ccVbHWeR.s:4978   .debug_str:0000000000000490 .LASF45
     /tmp/ccVbHWeR.s:4996   .debug_str:0000000000000520 .LASF49
     /tmp/ccVbHWeR.s:5026   .debug_str:0000000000000627 .LASF50
     /tmp/ccVbHWeR.s:5130   .debug_str:00000000000009fa .LASF51
     /tmp/ccVbHWeR.s:5104   .debug_str:000000000000090e .LASF52
     /tmp/ccVbHWeR.s:4832   .debug_str:0000000000000072 .LASF82
     /tmp/ccVbHWeR.s:5054   .debug_str:00000000000006ea .LASF84
     /tmp/ccVbHWeR.s:4896   .debug_str:000000000000027d .LASF53
     /tmp/ccVbHWeR.s:4890   .debug_str:0000000000000259 .LASF54
     /tmp/ccVbHWeR.s:4858   .debug_str:0000000000000112 .LASF55
     /tmp/ccVbHWeR.s:5038   .debug_str:000000000000067b .LASF56
     /tmp/ccVbHWeR.s:4904   .debug_str:00000000000002b4 .LASF57
     /tmp/ccVbHWeR.s:5028   .debug_str:0000000000000637 .LASF58
     /tmp/ccVbHWeR.s:4932   .debug_str:0000000000000385 .LASF71
     /tmp/ccVbHWeR.s:5042   .debug_str:0000000000000698 .LASF60
     /tmp/ccVbHWeR.s:4986   .debug_str:00000000000004c0 .LASF62
     /tmp/ccVbHWeR.s:4980   .debug_str:0000000000000495 .LASF63
     /tmp/ccVbHWeR.s:4884   .debug_str:0000000000000208 .LASF64
     /tmp/ccVbHWeR.s:4944   .debug_str:00000000000003c6 .LASF65
     /tmp/ccVbHWeR.s:4868   .debug_str:0000000000000182 .LASF66
     /tmp/ccVbHWeR.s:4906   .debug_str:00000000000002b9 .LASF150
     /tmp/ccVbHWeR.s:4850   .debug_str:00000000000000e5 .LASF67
     /tmp/ccVbHWeR.s:5074   .debug_str:0000000000000783 .LASF68
GAS LISTING /tmp/ccVbHWeR.s 			page 42


     /tmp/ccVbHWeR.s:5018   .debug_str:00000000000005e7 .LASF69
     /tmp/ccVbHWeR.s:4966   .debug_str:0000000000000441 .LASF76
     /tmp/ccVbHWeR.s:4976   .debug_str:0000000000000487 .LASF70
     /tmp/ccVbHWeR.s:4916   .debug_str:000000000000031e .LASF72
     /tmp/ccVbHWeR.s:5072   .debug_str:000000000000077a .LASF75
     /tmp/ccVbHWeR.s:5076   .debug_str:000000000000079f .LASF73
     /tmp/ccVbHWeR.s:5110   .debug_str:000000000000093f .LASF74
     /tmp/ccVbHWeR.s:4826   .debug_str:0000000000000024 .LASF77
     /tmp/ccVbHWeR.s:5108   .debug_str:0000000000000935 .LASF78
     /tmp/ccVbHWeR.s:4934   .debug_str:0000000000000399 .LASF79
     /tmp/ccVbHWeR.s:4964   .debug_str:0000000000000423 .LASF80
     /tmp/ccVbHWeR.s:5096   .debug_str:00000000000008e3 .LASF81
     /tmp/ccVbHWeR.s:5106   .debug_str:000000000000092c .LASF83
     /tmp/ccVbHWeR.s:4866   .debug_str:000000000000016a .LASF85
     /tmp/ccVbHWeR.s:4946   .debug_str:00000000000003ce .LASF86
     /tmp/ccVbHWeR.s:4928   .debug_str:000000000000035f .LASF87
     /tmp/ccVbHWeR.s:5090   .debug_str:00000000000008b8 .LASF88
     /tmp/ccVbHWeR.s:4828   .debug_str:0000000000000041 .LASF89
     /tmp/ccVbHWeR.s:5114   .debug_str:0000000000000958 .LASF90
     /tmp/ccVbHWeR.s:5116   .debug_str:000000000000096b .LASF91
     /tmp/ccVbHWeR.s:4954   .debug_str:00000000000003f6 .LASF92
     /tmp/ccVbHWeR.s:5010   .debug_str:000000000000059c .LASF93
     /tmp/ccVbHWeR.s:4926   .debug_str:000000000000035a .LASF94
     /tmp/ccVbHWeR.s:4992   .debug_str:0000000000000500 .LASF95
     /tmp/ccVbHWeR.s:5050   .debug_str:00000000000006c1 .LASF96
     /tmp/ccVbHWeR.s:4930   .debug_str:0000000000000377 .LASF97
     /tmp/ccVbHWeR.s:5070   .debug_str:000000000000076c .LASF98
     /tmp/ccVbHWeR.s:5098   .debug_str:00000000000008ee .LASF99
     /tmp/ccVbHWeR.s:4920   .debug_str:000000000000033f .LASF100
     /tmp/ccVbHWeR.s:4914   .debug_str:0000000000000314 .LASF101
     /tmp/ccVbHWeR.s:4880   .debug_str:00000000000001e3 .LASF102
     /tmp/ccVbHWeR.s:4836   .debug_str:0000000000000084 .LASF103
     /tmp/ccVbHWeR.s:5084   .debug_str:000000000000087f .LASF104
     /tmp/ccVbHWeR.s:4864   .debug_str:0000000000000165 .LASF105
     /tmp/ccVbHWeR.s:5112   .debug_str:0000000000000944 .LASF106
     /tmp/ccVbHWeR.s:4894   .debug_str:0000000000000278 .LASF107
     /tmp/ccVbHWeR.s:5014   .debug_str:00000000000005c0 .LASF108
     /tmp/ccVbHWeR.s:5120   .debug_str:00000000000009ac .LASF109
     /tmp/ccVbHWeR.s:4874   .debug_str:00000000000001ae .LASF110
     /tmp/ccVbHWeR.s:5060   .debug_str:0000000000000721 .LASF111
     /tmp/ccVbHWeR.s:4848   .debug_str:00000000000000de .LASF112
     /tmp/ccVbHWeR.s:5036   .debug_str:0000000000000662 .LASF113
     /tmp/ccVbHWeR.s:4860   .debug_str:000000000000012d .LASF114
     /tmp/ccVbHWeR.s:1028   .text:0000000000000784 .LFB22
     /tmp/ccVbHWeR.s:1080   .text:00000000000007f0 .LFE22
     /tmp/ccVbHWeR.s:4834   .debug_str:000000000000007d .LASF115
     /tmp/ccVbHWeR.s:4962   .debug_str:000000000000041d .LASF116
     /tmp/ccVbHWeR.s:1041   .text:0000000000000794 .LBB70
     /tmp/ccVbHWeR.s:1078   .text:00000000000007f0 .LBE70
     /tmp/ccVbHWeR.s:1048   .text:00000000000007a4 .LVL118
     /tmp/ccVbHWeR.s:1053   .text:00000000000007b4 .LVL119
     /tmp/ccVbHWeR.s:1058   .text:00000000000007c4 .LVL120
     /tmp/ccVbHWeR.s:1063   .text:00000000000007d0 .LVL121
     /tmp/ccVbHWeR.s:1068   .text:00000000000007e0 .LVL122
     /tmp/ccVbHWeR.s:1072   .text:00000000000007e8 .LVL123
     /tmp/ccVbHWeR.s:1076   .text:00000000000007f0 .LVL124
     /tmp/ccVbHWeR.s:4862   .debug_str:000000000000014b .LASF117
GAS LISTING /tmp/ccVbHWeR.s 			page 43


     /tmp/ccVbHWeR.s:4888   .debug_str:000000000000023a .LASF118
     /tmp/ccVbHWeR.s:377    .text:000000000000024c .LFB21
     /tmp/ccVbHWeR.s:1022   .text:0000000000000784 .LFE21
     /tmp/ccVbHWeR.s:4325   .debug_loc:0000000000000000 .LLST7
     /tmp/ccVbHWeR.s:4336   .debug_loc:0000000000000036 .LLST8
     /tmp/ccVbHWeR.s:4892   .debug_str:0000000000000273 .LASF119
     /tmp/ccVbHWeR.s:4359   .debug_loc:00000000000000a5 .LLST9
     /tmp/ccVbHWeR.s:4854   .debug_str:00000000000000f7 .LASF120
     /tmp/ccVbHWeR.s:4370   .debug_loc:00000000000000db .LLST10
     /tmp/ccVbHWeR.s:4876   .debug_str:00000000000001cd .LASF121
     /tmp/ccVbHWeR.s:4381   .debug_loc:0000000000000111 .LLST11
     /tmp/ccVbHWeR.s:4878   .debug_str:00000000000001d8 .LASF122
     /tmp/ccVbHWeR.s:4392   .debug_loc:0000000000000147 .LLST12
     /tmp/ccVbHWeR.s:4910   .debug_str:00000000000002f2 .LASF123
     /tmp/ccVbHWeR.s:4403   .debug_loc:000000000000017d .LLST13
     /tmp/ccVbHWeR.s:4842   .debug_str:00000000000000b0 .LASF124
     /tmp/ccVbHWeR.s:4414   .debug_loc:00000000000001b3 .LLST14
     /tmp/ccVbHWeR.s:5122   .debug_str:00000000000009bb .LASF125
     /tmp/ccVbHWeR.s:4441   .debug_loc:0000000000000208 .LLST15
     /tmp/ccVbHWeR.s:4898   .debug_str:0000000000000288 .LASF126
     /tmp/ccVbHWeR.s:4468   .debug_loc:000000000000025d .LLST16
     /tmp/ccVbHWeR.s:455    .text:00000000000002b0 .LBB48
     /tmp/ccVbHWeR.s:4798   .debug_ranges:0000000000000000 .Ldebug_ranges0
     /tmp/ccVbHWeR.s:4483   .debug_loc:00000000000002a6 .LLST17
     /tmp/ccVbHWeR.s:4498   .debug_loc:00000000000002e0 .LLST18
     /tmp/ccVbHWeR.s:4513   .debug_loc:0000000000000328 .LLST19
     /tmp/ccVbHWeR.s:561    .text:0000000000000390 .LVL51
     /tmp/ccVbHWeR.s:566    .text:00000000000003a0 .LVL52
     /tmp/ccVbHWeR.s:571    .text:00000000000003b0 .LVL53
     /tmp/ccVbHWeR.s:576    .text:00000000000003bc .LVL54
     /tmp/ccVbHWeR.s:581    .text:00000000000003cc .LVL55
     /tmp/ccVbHWeR.s:585    .text:00000000000003d4 .LVL56
     /tmp/ccVbHWeR.s:589    .text:00000000000003dc .LVL57
     /tmp/ccVbHWeR.s:515    .text:0000000000000324 .LBB51
     /tmp/ccVbHWeR.s:553    .text:0000000000000380 .LBE51
     /tmp/ccVbHWeR.s:4532   .debug_loc:0000000000000366 .LLST20
     /tmp/ccVbHWeR.s:4541   .debug_loc:000000000000038b .LLST21
     /tmp/ccVbHWeR.s:4550   .debug_loc:00000000000003b7 .LLST22
     /tmp/ccVbHWeR.s:522    .text:0000000000000334 .LVL43
     /tmp/ccVbHWeR.s:527    .text:0000000000000344 .LVL44
     /tmp/ccVbHWeR.s:532    .text:0000000000000354 .LVL45
     /tmp/ccVbHWeR.s:537    .text:0000000000000360 .LVL46
     /tmp/ccVbHWeR.s:542    .text:0000000000000370 .LVL47
     /tmp/ccVbHWeR.s:546    .text:0000000000000378 .LVL48
     /tmp/ccVbHWeR.s:550    .text:0000000000000380 .LVL49
     /tmp/ccVbHWeR.s:613    .text:0000000000000414 .LBB54
     /tmp/ccVbHWeR.s:651    .text:0000000000000470 .LBE54
     /tmp/ccVbHWeR.s:4558   .debug_loc:00000000000003db .LLST23
     /tmp/ccVbHWeR.s:4567   .debug_loc:0000000000000400 .LLST24
     /tmp/ccVbHWeR.s:4576   .debug_loc:000000000000042c .LLST25
     /tmp/ccVbHWeR.s:620    .text:0000000000000424 .LVL60
     /tmp/ccVbHWeR.s:625    .text:0000000000000434 .LVL61
     /tmp/ccVbHWeR.s:630    .text:0000000000000444 .LVL62
     /tmp/ccVbHWeR.s:635    .text:0000000000000450 .LVL63
     /tmp/ccVbHWeR.s:640    .text:0000000000000460 .LVL64
     /tmp/ccVbHWeR.s:644    .text:0000000000000468 .LVL65
     /tmp/ccVbHWeR.s:648    .text:0000000000000470 .LVL66
GAS LISTING /tmp/ccVbHWeR.s 			page 44


     /tmp/ccVbHWeR.s:686    .text:00000000000004c8 .LBB56
     /tmp/ccVbHWeR.s:724    .text:0000000000000524 .LBE56
     /tmp/ccVbHWeR.s:4584   .debug_loc:0000000000000450 .LLST26
     /tmp/ccVbHWeR.s:4593   .debug_loc:0000000000000475 .LLST27
     /tmp/ccVbHWeR.s:4602   .debug_loc:00000000000004a1 .LLST28
     /tmp/ccVbHWeR.s:693    .text:00000000000004d8 .LVL73
     /tmp/ccVbHWeR.s:698    .text:00000000000004e8 .LVL74
     /tmp/ccVbHWeR.s:703    .text:00000000000004f8 .LVL75
     /tmp/ccVbHWeR.s:708    .text:0000000000000504 .LVL76
     /tmp/ccVbHWeR.s:713    .text:0000000000000514 .LVL77
     /tmp/ccVbHWeR.s:717    .text:000000000000051c .LVL78
     /tmp/ccVbHWeR.s:721    .text:0000000000000524 .LVL79
     /tmp/ccVbHWeR.s:861    .text:0000000000000650 .LBB58
     /tmp/ccVbHWeR.s:899    .text:00000000000006ac .LBE58
     /tmp/ccVbHWeR.s:4610   .debug_loc:00000000000004c5 .LLST29
     /tmp/ccVbHWeR.s:4619   .debug_loc:00000000000004ea .LLST30
     /tmp/ccVbHWeR.s:4628   .debug_loc:0000000000000516 .LLST31
     /tmp/ccVbHWeR.s:868    .text:0000000000000660 .LVL93
     /tmp/ccVbHWeR.s:873    .text:0000000000000670 .LVL94
     /tmp/ccVbHWeR.s:878    .text:0000000000000680 .LVL95
     /tmp/ccVbHWeR.s:883    .text:000000000000068c .LVL96
     /tmp/ccVbHWeR.s:888    .text:000000000000069c .LVL97
     /tmp/ccVbHWeR.s:892    .text:00000000000006a4 .LVL98
     /tmp/ccVbHWeR.s:896    .text:00000000000006ac .LVL99
     /tmp/ccVbHWeR.s:927    .text:00000000000006ec .LBB60
     /tmp/ccVbHWeR.s:4636   .debug_loc:000000000000053a .LLST32
     /tmp/ccVbHWeR.s:4651   .debug_loc:0000000000000574 .LLST33
     /tmp/ccVbHWeR.s:4666   .debug_loc:00000000000005bc .LLST34
     /tmp/ccVbHWeR.s:990    .text:0000000000000738 .LVL110
     /tmp/ccVbHWeR.s:995    .text:0000000000000748 .LVL111
     /tmp/ccVbHWeR.s:1000   .text:0000000000000758 .LVL112
     /tmp/ccVbHWeR.s:1005   .text:0000000000000764 .LVL113
     /tmp/ccVbHWeR.s:1010   .text:0000000000000774 .LVL114
     /tmp/ccVbHWeR.s:1014   .text:000000000000077c .LVL115
     /tmp/ccVbHWeR.s:1018   .text:0000000000000784 .LVL116
     /tmp/ccVbHWeR.s:449    .text:000000000000029c .LVL38
     /tmp/ccVbHWeR.s:597    .text:00000000000003ec .LVL58
     /tmp/ccVbHWeR.s:611    .text:0000000000000414 .LVL59
     /tmp/ccVbHWeR.s:656    .text:0000000000000480 .LVL67
     /tmp/ccVbHWeR.s:663    .text:0000000000000494 .LVL68
     /tmp/ccVbHWeR.s:670    .text:00000000000004a8 .LVL69
     /tmp/ccVbHWeR.s:675    .text:00000000000004b0 .LVL70
     /tmp/ccVbHWeR.s:680    .text:00000000000004c0 .LVL71
     /tmp/ccVbHWeR.s:684    .text:00000000000004c8 .LVL72
     /tmp/ccVbHWeR.s:728    .text:000000000000052c .LVL80
     /tmp/ccVbHWeR.s:731    .text:0000000000000538 .LVL81
     /tmp/ccVbHWeR.s:772    .text:0000000000000598 .LVL82
     /tmp/ccVbHWeR.s:775    .text:00000000000005a4 .LVL83
     /tmp/ccVbHWeR.s:784    .text:00000000000005b8 .LVL84
     /tmp/ccVbHWeR.s:792    .text:00000000000005c8 .LVL85
     /tmp/ccVbHWeR.s:801    .text:00000000000005e0 .LVL86
     /tmp/ccVbHWeR.s:809    .text:00000000000005f0 .LVL87
     /tmp/ccVbHWeR.s:817    .text:0000000000000600 .LVL88
     /tmp/ccVbHWeR.s:824    .text:0000000000000610 .LVL89
     /tmp/ccVbHWeR.s:4994   .debug_str:0000000000000509 .LASF127
     /tmp/ccVbHWeR.s:5088   .debug_str:000000000000089c .LASF128
     /tmp/ccVbHWeR.s:153    .text:00000000000000e4 .LFB20
GAS LISTING /tmp/ccVbHWeR.s 			page 45


     /tmp/ccVbHWeR.s:351    .text:000000000000024c .LFE20
     /tmp/ccVbHWeR.s:4685   .debug_loc:00000000000005fa .LLST1
     /tmp/ccVbHWeR.s:4696   .debug_loc:0000000000000630 .LLST2
     /tmp/ccVbHWeR.s:193    .text:000000000000011c .LBB19
     /tmp/ccVbHWeR.s:4707   .debug_loc:0000000000000666 .LLST3
     /tmp/ccVbHWeR.s:4722   .debug_loc:00000000000006a0 .LLST4
     /tmp/ccVbHWeR.s:4737   .debug_loc:00000000000006e8 .LLST5
     /tmp/ccVbHWeR.s:272    .text:0000000000000198 .LVL17
     /tmp/ccVbHWeR.s:277    .text:00000000000001a8 .LVL18
     /tmp/ccVbHWeR.s:282    .text:00000000000001b8 .LVL19
     /tmp/ccVbHWeR.s:287    .text:00000000000001c4 .LVL20
     /tmp/ccVbHWeR.s:292    .text:00000000000001d4 .LVL21
     /tmp/ccVbHWeR.s:296    .text:00000000000001dc .LVL22
     /tmp/ccVbHWeR.s:300    .text:00000000000001e4 .LVL23
     /tmp/ccVbHWeR.s:210    .text:0000000000000134 .LBB22
     /tmp/ccVbHWeR.s:236    .text:0000000000000160 .LBE22
     /tmp/ccVbHWeR.s:218    .text:0000000000000140 .LBB24
     /tmp/ccVbHWeR.s:229    .text:0000000000000154 .LBE24
     /tmp/ccVbHWeR.s:4762   .debug_loc:000000000000072c .LLST6
     /tmp/ccVbHWeR.s:312    .text:00000000000001f0 .LBB28
     /tmp/ccVbHWeR.s:349    .text:000000000000024c .LBE28
     /tmp/ccVbHWeR.s:319    .text:0000000000000200 .LVL26
     /tmp/ccVbHWeR.s:324    .text:0000000000000210 .LVL27
     /tmp/ccVbHWeR.s:329    .text:0000000000000220 .LVL28
     /tmp/ccVbHWeR.s:334    .text:000000000000022c .LVL29
     /tmp/ccVbHWeR.s:339    .text:000000000000023c .LVL30
     /tmp/ccVbHWeR.s:343    .text:0000000000000244 .LVL31
     /tmp/ccVbHWeR.s:347    .text:000000000000024c .LVL32
     /tmp/ccVbHWeR.s:188    .text:000000000000010c .LVL8
     /tmp/ccVbHWeR.s:240    .text:0000000000000170 .LVL13
     /tmp/ccVbHWeR.s:307    .text:00000000000001ec .LVL24
     /tmp/ccVbHWeR.s:5056   .debug_str:0000000000000704 .LASF129
     /tmp/ccVbHWeR.s:5068   .debug_str:000000000000075a .LASF130
     /tmp/ccVbHWeR.s:51     .text:0000000000000028 .LFB19
     /tmp/ccVbHWeR.s:133    .text:00000000000000e4 .LFE19
     /tmp/ccVbHWeR.s:104    .text:0000000000000098 .LVL2
     /tmp/ccVbHWeR.s:111    .text:00000000000000ac .LVL3
     /tmp/ccVbHWeR.s:120    .text:00000000000000c8 .LVL4
     /tmp/ccVbHWeR.s:125    .text:00000000000000d8 .LVL5
     /tmp/ccVbHWeR.s:129    .text:00000000000000e0 .LVL6
     /tmp/ccVbHWeR.s:5102   .debug_str:0000000000000905 .LASF151
     /tmp/ccVbHWeR.s:4886   .debug_str:000000000000022d .LASF152
     /tmp/ccVbHWeR.s:10     .text:0000000000000000 .LFB18
     /tmp/ccVbHWeR.s:37     .text:0000000000000028 .LFE18
     /tmp/ccVbHWeR.s:4771   .debug_loc:0000000000000758 .LLST0
     /tmp/ccVbHWeR.s:26     .text:0000000000000018 .LVL1
     /tmp/ccVbHWeR.s:5044   .debug_str:00000000000006a7 .LASF153
     /tmp/ccVbHWeR.s:4968   .debug_str:0000000000000453 .LASF154
     /tmp/ccVbHWeR.s:4998   .debug_str:0000000000000538 .LASF155
     /tmp/ccVbHWeR.s:5118   .debug_str:000000000000098e .LASF156
     /tmp/ccVbHWeR.s:4950   .debug_str:00000000000003e3 .LASF131
     /tmp/ccVbHWeR.s:5058   .debug_str:0000000000000711 .LASF132
     /tmp/ccVbHWeR.s:4820   .debug_str:0000000000000000 .LASF133
     /tmp/ccVbHWeR.s:4974   .debug_str:0000000000000482 .LASF134
     /tmp/ccVbHWeR.s:4900   .debug_str:00000000000002a0 .LASF135
     /tmp/ccVbHWeR.s:5126   .debug_str:00000000000009de .LASF136
     /tmp/ccVbHWeR.s:5092   .debug_str:00000000000008c9 .LASF138
GAS LISTING /tmp/ccVbHWeR.s 			page 46


     /tmp/ccVbHWeR.s:4940   .debug_str:00000000000003b6 .LASF137
     /tmp/ccVbHWeR.s:4824   .debug_str:000000000000001d .LASF139
     /tmp/ccVbHWeR.s:4970   .debug_str:0000000000000464 .LASF140
     /tmp/ccVbHWeR.s:4840   .debug_str:00000000000000a5 .LASF141
     /tmp/ccVbHWeR.s:5046   .debug_str:00000000000006ac .LASF142
     /tmp/ccVbHWeR.s:4952   .debug_str:00000000000003eb .LASF143
     /tmp/ccVbHWeR.s:4956   .debug_str:0000000000000404 .LASF144
     /tmp/ccVbHWeR.s:409    .text:000000000000027c .LVL33
     /tmp/ccVbHWeR.s:475    .text:00000000000002c4 .LVL41
     /tmp/ccVbHWeR.s:965    .text:0000000000000710 .LVL104
     /tmp/ccVbHWeR.s:981    .text:0000000000000728 .LVL109
     /tmp/ccVbHWeR.s:422    .text:0000000000000284 .LVL34
     /tmp/ccVbHWeR.s:960    .text:0000000000000708 .LVL103
     /tmp/ccVbHWeR.s:428    .text:0000000000000288 .LVL35
     /tmp/ccVbHWeR.s:968    .text:0000000000000714 .LVL105
     /tmp/ccVbHWeR.s:434    .text:000000000000028c .LVL36
     /tmp/ccVbHWeR.s:971    .text:0000000000000718 .LVL106
     /tmp/ccVbHWeR.s:440    .text:0000000000000290 .LVL37
     /tmp/ccVbHWeR.s:974    .text:000000000000071c .LVL107
     /tmp/ccVbHWeR.s:833    .text:0000000000000620 .LVL90
     /tmp/ccVbHWeR.s:921    .text:00000000000006e4 .LVL100
     /tmp/ccVbHWeR.s:848    .text:0000000000000638 .LVL91
     /tmp/ccVbHWeR.s:977    .text:0000000000000720 .LVL108
     /tmp/ccVbHWeR.s:454    .text:00000000000002b0 .LVL39
     /tmp/ccVbHWeR.s:462    .text:00000000000002bc .LVL40
     /tmp/ccVbHWeR.s:559    .text:0000000000000388 .LVL50
     /tmp/ccVbHWeR.s:514    .text:0000000000000324 .LVL42
     /tmp/ccVbHWeR.s:860    .text:0000000000000650 .LVL92
     /tmp/ccVbHWeR.s:926    .text:00000000000006ec .LVL101
     /tmp/ccVbHWeR.s:932    .text:00000000000006f0 .LVL102
     /tmp/ccVbHWeR.s:178    .text:0000000000000100 .LVL7
     /tmp/ccVbHWeR.s:199    .text:0000000000000124 .LVL10
     /tmp/ccVbHWeR.s:262    .text:0000000000000188 .LVL15
     /tmp/ccVbHWeR.s:258    .text:0000000000000180 .LVL14
     /tmp/ccVbHWeR.s:192    .text:000000000000011c .LVL9
     /tmp/ccVbHWeR.s:270    .text:0000000000000190 .LVL16
     /tmp/ccVbHWeR.s:217    .text:0000000000000140 .LVL11
     /tmp/ccVbHWeR.s:226    .text:0000000000000154 .LVL12
     /tmp/ccVbHWeR.s:14     .text:0000000000000000 .LVL0
     /tmp/ccVbHWeR.s:1112   .debug_info:0000000000000000 .Ldebug_info0
     /tmp/ccVbHWeR.s:202    .text:0000000000000124 .LBE19
     /tmp/ccVbHWeR.s:265    .text:0000000000000188 .LBB27
     /tmp/ccVbHWeR.s:303    .text:00000000000001e4 .LBE27
     /tmp/ccVbHWeR.s:464    .text:00000000000002bc .LBE48
     /tmp/ccVbHWeR.s:554    .text:0000000000000380 .LBB53
     /tmp/ccVbHWeR.s:592    .text:00000000000003dc .LBE53
     /tmp/ccVbHWeR.s:934    .text:00000000000006f0 .LBE60
     /tmp/ccVbHWeR.s:984    .text:0000000000000728 .LBB63
     /tmp/ccVbHWeR.s:1020   .text:0000000000000784 .LBE63

UNDEFINED SYMBOLS
_Z3fibm
_ZN7IThread16timeSliceCounterE
_ZN9Scheduler19dispatchUserVersionEv
_Z9putStringPKc
_Z6putInti
_Z10putNewlinev
GAS LISTING /tmp/ccVbHWeR.s 			page 47


_ZN7IThread11getPRunningEv
_ZN7IThread10pRunningSpE
_ZN8IConsole14consoleHandlerEv
_Z10stopKernelv
_ZN8MemAlloc3getEv
_ZN8MemAlloc8allocMemEm
_ZN8MemAlloc7freeMemEPv
_ZN7IThread12switchToUserEv
_ZN7IThread12createThreadEPmPFvPvES1_
_ZN7IThread4exitEv
_ZN7IThread4joinEm
