GAS LISTING /tmp/cc6qps3I.s 			page 1


   1              		.file	"trap.cpp"
   2              		.option pic
   3              		.option norelax
   4              		.text
   5              	.Ltext0:
   6              		.align	2
   7              		.globl	_Z8testCallm
   9              	_Z8testCallm:
  10              	.LFB18:
  11              		.file 1 "src/trap.cpp"
   1:src/trap.cpp  **** #include "../h/thread.h"
   2:src/trap.cpp  **** #include "../h/scheduler.h"
   3:src/trap.cpp  **** #include "../h/alloc.h"
   4:src/trap.cpp  **** #include "../h/0_console.h"
   5:src/trap.cpp  **** 
   6:src/trap.cpp  **** uint64 gTimer = 0;
   7:src/trap.cpp  **** 
   8:src/trap.cpp  **** uint64 fib(uint64 n);
   9:src/trap.cpp  **** 
  10:src/trap.cpp  **** uint64 testCall(uint64 n)
  11:src/trap.cpp  **** {
  12              		.loc 1 11 1
  13              		.cfi_startproc
  14              	.LVL0:
  15 0000 130101FF 		addi	sp,sp,-16
  16              		.cfi_def_cfa_offset 16
  17 0004 23341100 		sd	ra,8(sp)
  18 0008 23308100 		sd	s0,0(sp)
  19              		.cfi_offset 1, -8
  20              		.cfi_offset 8, -16
  21 000c 13040101 		addi	s0,sp,16
  22              		.cfi_def_cfa 8, 0
  12:src/trap.cpp  ****     return fib(n);
  23              		.loc 1 12 5
  24              		.loc 1 12 15 is_stmt 0
  25 0010 97000000 		call	_Z3fibm@plt
  25      E7800000 
  26              	.LVL1:
  13:src/trap.cpp  **** }
  27              		.loc 1 13 1
  28 0018 83308100 		ld	ra,8(sp)
  29              		.cfi_restore 1
  30 001c 03340100 		ld	s0,0(sp)
  31              		.cfi_restore 8
  32              		.cfi_def_cfa 2, 16
  33 0020 13010101 		addi	sp,sp,16
  34              		.cfi_def_cfa_offset 0
  35 0024 67800000 		jr	ra
  36              		.cfi_endproc
  37              	.LFE18:
  39              		.section	.rodata.str1.8,"aMS",@progbits,1
  40              		.align	3
  41              	.LC0:
  42 0000 3D3D3D3D 		.string	"===================== ASSERT file: "
  42      3D3D3D3D 
  42      3D3D3D3D 
  42      3D3D3D3D 
GAS LISTING /tmp/cc6qps3I.s 			page 2


  42      3D3D3D3D 
  43 0024 00000000 		.align	3
  44              	.LC1:
  45 0028 7372632F 		.string	"src/trap.cpp"
  45      74726170 
  45      2E637070 
  45      00
  46 0035 000000   		.align	3
  47              	.LC2:
  48 0038 20202020 		.string	"    line: "
  48      6C696E65 
  48      3A2000
  49 0043 00000000 		.align	3
  49      00
  50              	.LC3:
  51 0048 2020203D 		.string	"   ==========================="
  51      3D3D3D3D 
  51      3D3D3D3D 
  51      3D3D3D3D 
  51      3D3D3D3D 
  52              		.text
  53              		.align	2
  54              		.globl	_Z24cConsoleInterruptRoutinev
  56              	_Z24cConsoleInterruptRoutinev:
  57              	.LFB19:
  14:src/trap.cpp  **** 
  15:src/trap.cpp  **** void  cConsoleInterruptRoutine()
  16:src/trap.cpp  **** {
  58              		.loc 1 16 1 is_stmt 1
  59              		.cfi_startproc
  60 0028 130101FE 		addi	sp,sp,-32
  61              		.cfi_def_cfa_offset 32
  62 002c 233C1100 		sd	ra,24(sp)
  63 0030 23388100 		sd	s0,16(sp)
  64 0034 23349100 		sd	s1,8(sp)
  65              		.cfi_offset 1, -8
  66              		.cfi_offset 8, -16
  67              		.cfi_offset 9, -24
  68 0038 13040102 		addi	s0,sp,32
  69              		.cfi_def_cfa 8, 0
  17:src/trap.cpp  ****     uint64 scause;
  70              		.loc 1 17 5
  18:src/trap.cpp  ****     __asm__ volatile ("csrr %[name], scause" : [name] "=r"(scause));
  71              		.loc 1 18 5
  72              		.loc 1 18 68 is_stmt 0
  73              	#APP
  74              	# 18 "src/trap.cpp" 1
  19              	
  75              		csrr a5, scause
  76              	# 0 "" 2
  77              	.LVL2:
  20:src/trap.cpp  **** //    int isExternal = (scause & (0x1UL << 63)) != 0;
  21:src/trap.cpp  ****     int cause = scause & (~(1UL << 63));
  78              		.loc 1 21 5 is_stmt 1
  79              		.loc 1 21 9 is_stmt 0
  80              	#NO_APP
  81 0040 9B840700 		sext.w	s1,a5
GAS LISTING /tmp/cc6qps3I.s 			page 3


  82              	.LVL3:
  22:src/trap.cpp  **** 
  23:src/trap.cpp  **** 
  24:src/trap.cpp  ****     assert(&(Thread::getPRunning()->sp) == Thread::pRunningSp);
  83              		.loc 1 24 5 is_stmt 1
  84 0044 97000000 		call	_ZN6Thread11getPRunningEv@plt
  84      E7800000 
  85              	.LVL4:
  86 004c 13058504 		addi	a0,a0,72
  87 0050 97070000 		la	a5,_ZN6Thread10pRunningSpE
  87      83B70700 
  88 0058 83B70700 		ld	a5,0(a5)
  89              	.LVL5:
  90              	.LBB6:
  91              	.LBB7:
  92              		.file 2 "src/../h/../h/my_console.h"
   1:src/../h/../h/my_console.h **** #pragma once
   2:src/../h/../h/my_console.h **** 
   3:src/../h/../h/my_console.h **** #include "../h/risc.h"
   4:src/../h/../h/my_console.h **** 
   5:src/../h/../h/my_console.h **** #include "../lib/console.h"
   6:src/../h/../h/my_console.h **** #include "../lib/hw.h"
   7:src/../h/../h/my_console.h **** 
   8:src/../h/../h/my_console.h **** #define __DEBUG_MODE
   9:src/../h/../h/my_console.h **** 
  10:src/../h/../h/my_console.h **** 
  11:src/../h/../h/my_console.h **** void putString(const char* s);
  12:src/../h/../h/my_console.h **** void putInt(int n);
  13:src/../h/../h/my_console.h **** void putNewline();
  14:src/../h/../h/my_console.h **** void putU64(uint64 n);
  15:src/../h/../h/my_console.h **** void putBinary(uint64 n);
  16:src/../h/../h/my_console.h **** 
  17:src/../h/../h/my_console.h **** [[noreturn]] void stopKernel();
  18:src/../h/../h/my_console.h **** 
  19:src/../h/../h/my_console.h **** inline void _assert(bool valid, const char* file, int line) // MUST be inline
  20:src/../h/../h/my_console.h **** {
  21:src/../h/../h/my_console.h ****     if(valid)
  93              		.loc 2 21 5
  94 005c 6398A702 		bne	a5,a0,.L7
  22:src/../h/../h/my_console.h ****         return;
  95              		.loc 2 22 9
  96              	.LVL6:
  97              	.LBE7:
  98              	.LBE6:
  25:src/trap.cpp  **** 
  26:src/trap.cpp  ****     assert(cause == 9);
  99              		.loc 1 26 5
 100 0060 938774FF 		addi	a5,s1,-9
 101              	.LVL7:
 102              	.LBB9:
 103              	.LBB10:
  21:src/../h/../h/my_console.h ****         return;
 104              		.loc 2 21 5
 105 0064 63920708 		bnez	a5,.L8
 106              		.loc 2 22 9
 107              	.LVL8:
 108              	.LBE10:
GAS LISTING /tmp/cc6qps3I.s 			page 4


 109              	.LBE9:
  27:src/trap.cpp  **** 
  28:src/trap.cpp  ****     __asm__ volatile ("csrc sip, 0xA"); // clears the 9th bit in register sip. (the bit signifies e
 110              		.loc 1 28 5
 111              		.loc 1 28 39 is_stmt 0
 112              	#APP
 113              	# 28 "src/trap.cpp" 1
  29              	
  30:src/trap.cpp  ****     console_handler();
 114              		csrc sip, 0xA
 115              	# 0 "" 2
 116              		.loc 1 30 5 is_stmt 1
 117              		.loc 1 30 20 is_stmt 0
 118              	#NO_APP
 119 006c 97000000 		call	console_handler@plt
 119      E7800000 
 120              	.LVL9:
  31:src/trap.cpp  ****     __asm__ volatile ("mv x10, x10");
 121              		.loc 1 31 5 is_stmt 1
 122              		.loc 1 31 37 is_stmt 0
 123              	#APP
 124              	# 31 "src/trap.cpp" 1
  32              	
  33:src/trap.cpp  **** //    Console::get()->consoleHandler();
  34:src/trap.cpp  **** 
  35:src/trap.cpp  **** }
 125              		mv x10, x10
 126              	# 0 "" 2
 127              		.loc 1 35 1
 128              	#NO_APP
 129 0078 83308101 		ld	ra,24(sp)
 130              		.cfi_remember_state
 131              		.cfi_restore 1
 132 007c 03340101 		ld	s0,16(sp)
 133              		.cfi_restore 8
 134              		.cfi_def_cfa 2, 32
 135 0080 83348100 		ld	s1,8(sp)
 136              		.cfi_restore 9
 137              	.LVL10:
 138 0084 13010102 		addi	sp,sp,32
 139              		.cfi_def_cfa_offset 0
 140 0088 67800000 		jr	ra
 141              	.LVL11:
 142              	.L7:
 143              		.cfi_restore_state
 144              	.LBB12:
 145              	.LBB8:
  23:src/../h/../h/my_console.h **** 
  24:src/../h/../h/my_console.h ****     putString("===================== ASSERT file: ");
 146              		.loc 2 24 5 is_stmt 1
 147              		.loc 2 24 14 is_stmt 0
 148 008c 17050000 		lla	a0,.LC0
 148      13050500 
 149              	.LVL12:
 150 0094 97000000 		call	_Z9putStringPKc@plt
 150      E7800000 
 151              	.LVL13:
GAS LISTING /tmp/cc6qps3I.s 			page 5


  25:src/../h/../h/my_console.h ****     putString(file);
 152              		.loc 2 25 5 is_stmt 1
 153              		.loc 2 25 14 is_stmt 0
 154 009c 17050000 		lla	a0,.LC1
 154      13050500 
 155 00a4 97000000 		call	_Z9putStringPKc@plt
 155      E7800000 
 156              	.LVL14:
  26:src/../h/../h/my_console.h ****     putString("    line: ");
 157              		.loc 2 26 5 is_stmt 1
 158              		.loc 2 26 14 is_stmt 0
 159 00ac 17050000 		lla	a0,.LC2
 159      13050500 
 160 00b4 97000000 		call	_Z9putStringPKc@plt
 160      E7800000 
 161              	.LVL15:
  27:src/../h/../h/my_console.h ****     putInt(line);
 162              		.loc 2 27 5 is_stmt 1
 163              		.loc 2 27 11 is_stmt 0
 164 00bc 13058001 		li	a0,24
 165 00c0 97000000 		call	_Z6putInti@plt
 165      E7800000 
 166              	.LVL16:
  28:src/../h/../h/my_console.h ****     putString("   ===========================");
 167              		.loc 2 28 5 is_stmt 1
 168              		.loc 2 28 14 is_stmt 0
 169 00c8 17050000 		lla	a0,.LC3
 169      13050500 
 170 00d0 97000000 		call	_Z9putStringPKc@plt
 170      E7800000 
 171              	.LVL17:
  29:src/../h/../h/my_console.h ****     putNewline();
 172              		.loc 2 29 5 is_stmt 1
 173              		.loc 2 29 15 is_stmt 0
 174 00d8 97000000 		call	_Z10putNewlinev@plt
 174      E7800000 
 175              	.LVL18:
  30:src/../h/../h/my_console.h **** 
  31:src/../h/../h/my_console.h ****     stopKernel();
 176              		.loc 2 31 5 is_stmt 1
 177              		.loc 2 31 15 is_stmt 0
 178 00e0 97000000 		call	_Z10stopKernelv@plt
 178      E7800000 
 179              	.LVL19:
 180              	.L8:
 181              	.LBE8:
 182              	.LBE12:
 183              	.LBB13:
 184              	.LBB11:
  24:src/../h/../h/my_console.h ****     putString(file);
 185              		.loc 2 24 5 is_stmt 1
  24:src/../h/../h/my_console.h ****     putString(file);
 186              		.loc 2 24 14 is_stmt 0
 187 00e8 17050000 		lla	a0,.LC0
 187      13050500 
 188 00f0 97000000 		call	_Z9putStringPKc@plt
 188      E7800000 
GAS LISTING /tmp/cc6qps3I.s 			page 6


 189              	.LVL20:
  25:src/../h/../h/my_console.h ****     putString("    line: ");
 190              		.loc 2 25 5 is_stmt 1
  25:src/../h/../h/my_console.h ****     putString("    line: ");
 191              		.loc 2 25 14 is_stmt 0
 192 00f8 17050000 		lla	a0,.LC1
 192      13050500 
 193 0100 97000000 		call	_Z9putStringPKc@plt
 193      E7800000 
 194              	.LVL21:
  26:src/../h/../h/my_console.h ****     putInt(line);
 195              		.loc 2 26 5 is_stmt 1
  26:src/../h/../h/my_console.h ****     putInt(line);
 196              		.loc 2 26 14 is_stmt 0
 197 0108 17050000 		lla	a0,.LC2
 197      13050500 
 198 0110 97000000 		call	_Z9putStringPKc@plt
 198      E7800000 
 199              	.LVL22:
  27:src/../h/../h/my_console.h ****     putString("   ===========================");
 200              		.loc 2 27 5 is_stmt 1
  27:src/../h/../h/my_console.h ****     putString("   ===========================");
 201              		.loc 2 27 11 is_stmt 0
 202 0118 1305A001 		li	a0,26
 203 011c 97000000 		call	_Z6putInti@plt
 203      E7800000 
 204              	.LVL23:
  28:src/../h/../h/my_console.h ****     putNewline();
 205              		.loc 2 28 5 is_stmt 1
  28:src/../h/../h/my_console.h ****     putNewline();
 206              		.loc 2 28 14 is_stmt 0
 207 0124 17050000 		lla	a0,.LC3
 207      13050500 
 208 012c 97000000 		call	_Z9putStringPKc@plt
 208      E7800000 
 209              	.LVL24:
  29:src/../h/../h/my_console.h **** 
 210              		.loc 2 29 5 is_stmt 1
  29:src/../h/../h/my_console.h **** 
 211              		.loc 2 29 15 is_stmt 0
 212 0134 97000000 		call	_Z10putNewlinev@plt
 212      E7800000 
 213              	.LVL25:
 214              		.loc 2 31 5 is_stmt 1
 215              		.loc 2 31 15 is_stmt 0
 216 013c 97000000 		call	_Z10stopKernelv@plt
 216      E7800000 
 217              	.LVL26:
 218              	.LBE11:
 219              	.LBE13:
 220              		.cfi_endproc
 221              	.LFE19:
 223              		.align	2
 224              		.globl	_Z22cTimerInterruptRoutinev
 226              	_Z22cTimerInterruptRoutinev:
 227              	.LFB20:
  36:src/trap.cpp  **** 
GAS LISTING /tmp/cc6qps3I.s 			page 7


  37:src/trap.cpp  **** void cTimerInterruptRoutine()
  38:src/trap.cpp  **** {
 228              		.loc 1 38 1 is_stmt 1
 229              		.cfi_startproc
 230 0144 130101FE 		addi	sp,sp,-32
 231              		.cfi_def_cfa_offset 32
 232 0148 233C1100 		sd	ra,24(sp)
 233 014c 23388100 		sd	s0,16(sp)
 234 0150 23349100 		sd	s1,8(sp)
 235              		.cfi_offset 1, -8
 236              		.cfi_offset 8, -16
 237              		.cfi_offset 9, -24
 238 0154 13040102 		addi	s0,sp,32
 239              		.cfi_def_cfa 8, 0
  39:src/trap.cpp  ****     uint64 scause;
 240              		.loc 1 39 5
  40:src/trap.cpp  ****     __asm__ volatile ("csrr %[name], scause" : [name] "=r"(scause));
 241              		.loc 1 40 5
 242              		.loc 1 40 68 is_stmt 0
 243              	#APP
 244              	# 40 "src/trap.cpp" 1
  41              	
 245              		csrr s1, scause
 246              	# 0 "" 2
 247              	.LVL27:
  42:src/trap.cpp  ****     int cause = scause & (~(1UL << 63));
 248              		.loc 1 42 5 is_stmt 1
  43:src/trap.cpp  **** 
  44:src/trap.cpp  ****     __asm__ volatile ("csrc sip, 0xA"); // clears the 9th bit in register sip. (the bit signifies e
 249              		.loc 1 44 5
 250              		.loc 1 44 39 is_stmt 0
 251              	# 44 "src/trap.cpp" 1
  45              	//    __asm__ volatile ("csrc sstatus, 0x02");
  46:src/trap.cpp  **** 
  47:src/trap.cpp  ****     assert(&(Thread::getPRunning()->sp) == Thread::pRunningSp);
 252              		csrc sip, 0xA
 253              	# 0 "" 2
 254              		.loc 1 47 5 is_stmt 1
 255              	#NO_APP
 256 0160 97000000 		call	_ZN6Thread11getPRunningEv@plt
 256      E7800000 
 257              	.LVL28:
 258 0168 13058504 		addi	a0,a0,72
 259 016c 97070000 		la	a5,_ZN6Thread10pRunningSpE
 259      83B70700 
 260 0174 83B70700 		ld	a5,0(a5)
 261              	.LVL29:
 262              	.LBB18:
 263              	.LBB19:
  21:src/../h/../h/my_console.h ****         return;
 264              		.loc 2 21 5
 265 0178 639AA706 		bne	a5,a0,.L15
 266 017c 9B840400 		sext.w	s1,s1
 267              	.LVL30:
  22:src/../h/../h/my_console.h **** 
 268              		.loc 2 22 9
 269              	.LBE19:
GAS LISTING /tmp/cc6qps3I.s 			page 8


 270              	.LBE18:
  48:src/trap.cpp  ****     if(cause == 1)
 271              		.loc 1 48 5
 272 0180 93071000 		li	a5,1
 273 0184 6382F40C 		beq	s1,a5,.L16
  49:src/trap.cpp  ****     { // timer
  50:src/trap.cpp  ****         __asm__ volatile("mv x10, x10");
  51:src/trap.cpp  ****     }
  52:src/trap.cpp  ****     else if (cause == 9)
 274              		.loc 1 52 10
 275 0188 93079000 		li	a5,9
 276 018c 638CF40C 		beq	s1,a5,.L17
  53:src/trap.cpp  ****     { // console
  54:src/trap.cpp  ****         console_handler();
  55:src/trap.cpp  **** //        plic_claim();
  56:src/trap.cpp  **** //        Console::get()->consoleHandler();
  57:src/trap.cpp  **** //        console_handler();
  58:src/trap.cpp  **** //        __asm__ volatile("mv x10, x10");
  59:src/trap.cpp  **** //        plic_complete(10);
  60:src/trap.cpp  ****     }
  61:src/trap.cpp  ****     else
  62:src/trap.cpp  ****     {
  63:src/trap.cpp  ****         assert(false); // unknown interupt
 277              		.loc 1 63 9
 278              	.LVL31:
 279              	.LBB21:
 280              	.LBB22:
  21:src/../h/../h/my_console.h ****         return;
 281              		.loc 2 21 5
  24:src/../h/../h/my_console.h ****     putString(file);
 282              		.loc 2 24 5
  24:src/../h/../h/my_console.h ****     putString(file);
 283              		.loc 2 24 14 is_stmt 0
 284 0190 17050000 		lla	a0,.LC0
 284      13050500 
 285 0198 97000000 		call	_Z9putStringPKc@plt
 285      E7800000 
 286              	.LVL32:
  25:src/../h/../h/my_console.h ****     putString("    line: ");
 287              		.loc 2 25 5 is_stmt 1
  25:src/../h/../h/my_console.h ****     putString("    line: ");
 288              		.loc 2 25 14 is_stmt 0
 289 01a0 17050000 		lla	a0,.LC1
 289      13050500 
 290 01a8 97000000 		call	_Z9putStringPKc@plt
 290      E7800000 
 291              	.LVL33:
  26:src/../h/../h/my_console.h ****     putInt(line);
 292              		.loc 2 26 5 is_stmt 1
  26:src/../h/../h/my_console.h ****     putInt(line);
 293              		.loc 2 26 14 is_stmt 0
 294 01b0 17050000 		lla	a0,.LC2
 294      13050500 
 295 01b8 97000000 		call	_Z9putStringPKc@plt
 295      E7800000 
 296              	.LVL34:
  27:src/../h/../h/my_console.h ****     putString("   ===========================");
GAS LISTING /tmp/cc6qps3I.s 			page 9


 297              		.loc 2 27 5 is_stmt 1
  27:src/../h/../h/my_console.h ****     putString("   ===========================");
 298              		.loc 2 27 11 is_stmt 0
 299 01c0 1305F003 		li	a0,63
 300 01c4 97000000 		call	_Z6putInti@plt
 300      E7800000 
 301              	.LVL35:
  28:src/../h/../h/my_console.h ****     putNewline();
 302              		.loc 2 28 5 is_stmt 1
  28:src/../h/../h/my_console.h ****     putNewline();
 303              		.loc 2 28 14 is_stmt 0
 304 01cc 17050000 		lla	a0,.LC3
 304      13050500 
 305 01d4 97000000 		call	_Z9putStringPKc@plt
 305      E7800000 
 306              	.LVL36:
  29:src/../h/../h/my_console.h **** 
 307              		.loc 2 29 5 is_stmt 1
  29:src/../h/../h/my_console.h **** 
 308              		.loc 2 29 15 is_stmt 0
 309 01dc 97000000 		call	_Z10putNewlinev@plt
 309      E7800000 
 310              	.LVL37:
 311              		.loc 2 31 5 is_stmt 1
 312              		.loc 2 31 15 is_stmt 0
 313 01e4 97000000 		call	_Z10stopKernelv@plt
 313      E7800000 
 314              	.LVL38:
 315              	.L15:
 316              	.LBE22:
 317              	.LBE21:
 318              	.LBB23:
 319              	.LBB20:
  24:src/../h/../h/my_console.h ****     putString(file);
 320              		.loc 2 24 5 is_stmt 1
  24:src/../h/../h/my_console.h ****     putString(file);
 321              		.loc 2 24 14 is_stmt 0
 322 01ec 17050000 		lla	a0,.LC0
 322      13050500 
 323              	.LVL39:
 324 01f4 97000000 		call	_Z9putStringPKc@plt
 324      E7800000 
 325              	.LVL40:
  25:src/../h/../h/my_console.h ****     putString("    line: ");
 326              		.loc 2 25 5 is_stmt 1
  25:src/../h/../h/my_console.h ****     putString("    line: ");
 327              		.loc 2 25 14 is_stmt 0
 328 01fc 17050000 		lla	a0,.LC1
 328      13050500 
 329 0204 97000000 		call	_Z9putStringPKc@plt
 329      E7800000 
 330              	.LVL41:
  26:src/../h/../h/my_console.h ****     putInt(line);
 331              		.loc 2 26 5 is_stmt 1
  26:src/../h/../h/my_console.h ****     putInt(line);
 332              		.loc 2 26 14 is_stmt 0
 333 020c 17050000 		lla	a0,.LC2
GAS LISTING /tmp/cc6qps3I.s 			page 10


 333      13050500 
 334 0214 97000000 		call	_Z9putStringPKc@plt
 334      E7800000 
 335              	.LVL42:
  27:src/../h/../h/my_console.h ****     putString("   ===========================");
 336              		.loc 2 27 5 is_stmt 1
  27:src/../h/../h/my_console.h ****     putString("   ===========================");
 337              		.loc 2 27 11 is_stmt 0
 338 021c 1305F002 		li	a0,47
 339 0220 97000000 		call	_Z6putInti@plt
 339      E7800000 
 340              	.LVL43:
  28:src/../h/../h/my_console.h ****     putNewline();
 341              		.loc 2 28 5 is_stmt 1
  28:src/../h/../h/my_console.h ****     putNewline();
 342              		.loc 2 28 14 is_stmt 0
 343 0228 17050000 		lla	a0,.LC3
 343      13050500 
 344 0230 97000000 		call	_Z9putStringPKc@plt
 344      E7800000 
 345              	.LVL44:
  29:src/../h/../h/my_console.h **** 
 346              		.loc 2 29 5 is_stmt 1
  29:src/../h/../h/my_console.h **** 
 347              		.loc 2 29 15 is_stmt 0
 348 0238 97000000 		call	_Z10putNewlinev@plt
 348      E7800000 
 349              	.LVL45:
 350              		.loc 2 31 5 is_stmt 1
 351              		.loc 2 31 15 is_stmt 0
 352 0240 97000000 		call	_Z10stopKernelv@plt
 352      E7800000 
 353              	.LVL46:
 354              	.L16:
 355              	.LBE20:
 356              	.LBE23:
  50:src/trap.cpp  ****     }
 357              		.loc 1 50 9 is_stmt 1
  50:src/trap.cpp  ****     }
 358              		.loc 1 50 40 is_stmt 0
 359              	#APP
 360              	# 50 "src/trap.cpp" 1
 361              		mv x10, x10
 362              	# 0 "" 2
 363              	#NO_APP
 364              	.L12:
  64:src/trap.cpp  ****     }
  65:src/trap.cpp  **** 
  66:src/trap.cpp  ****     __asm__ volatile("mv x10, x10");
 365              		.loc 1 66 5 is_stmt 1
 366              		.loc 1 66 36 is_stmt 0
 367              	#APP
 368              	# 66 "src/trap.cpp" 1
  67              	}
 369              		mv x10, x10
 370              	# 0 "" 2
 371              		.loc 1 67 1
GAS LISTING /tmp/cc6qps3I.s 			page 11


 372              	#NO_APP
 373 0250 83308101 		ld	ra,24(sp)
 374              		.cfi_remember_state
 375              		.cfi_restore 1
 376 0254 03340101 		ld	s0,16(sp)
 377              		.cfi_restore 8
 378              		.cfi_def_cfa 2, 32
 379 0258 83348100 		ld	s1,8(sp)
 380              		.cfi_restore 9
 381              	.LVL47:
 382 025c 13010102 		addi	sp,sp,32
 383              		.cfi_def_cfa_offset 0
 384 0260 67800000 		jr	ra
 385              	.LVL48:
 386              	.L17:
 387              		.cfi_restore_state
  54:src/trap.cpp  **** //        plic_claim();
 388              		.loc 1 54 9 is_stmt 1
  54:src/trap.cpp  **** //        plic_claim();
 389              		.loc 1 54 24 is_stmt 0
 390 0264 97000000 		call	console_handler@plt
 390      E7800000 
 391              	.LVL49:
 392 026c 6FF01FFE 		j	.L12
 393              		.cfi_endproc
 394              	.LFE20:
 396              		.section	.rodata.str1.8
 397 0067 00       		.align	3
 398              	.LC4:
 399 0068 3D3D3D20 		.string	"=== EXCEPETION occured: "
 399      45584345 
 399      50455449 
 399      4F4E206F 
 399      63637572 
 400 0081 00000000 		.align	3
 400      000000
 401              	.LC5:
 402 0088 20496C6C 		.string	" Illegal instruction"
 402      6567616C 
 402      20696E73 
 402      74727563 
 402      74696F6E 
 403 009d 000000   		.align	3
 404              	.LC6:
 405 00a0 556E616C 		.string	"Unallowed read adress"
 405      6C6F7765 
 405      64207265 
 405      61642061 
 405      64726573 
 406 00b6 0000     		.align	3
 407              	.LC7:
 408 00b8 556E616C 		.string	"Unallowed write adress"
 408      6C6F7765 
 408      64207772 
 408      69746520 
 408      61647265 
 409 00cf 00       		.align	3
GAS LISTING /tmp/cc6qps3I.s 			page 12


 410              	.LC8:
 411 00d0 554B4E4F 		.string	"UKNOWN EXCEPTION. ??????????????"
 411      574E2045 
 411      58434550 
 411      54494F4E 
 411      2E203F3F 
 412 00f1 00000000 		.align	3
 412      000000
 413              	.LC9:
 414 00f8 5465726D 		.string	"Terminating kernel"
 414      696E6174 
 414      696E6720 
 414      6B65726E 
 414      656C00
 415              		.text
 416              		.align	2
 417              		.globl	_Z25cInternalInterruptRoutinev
 419              	_Z25cInternalInterruptRoutinev:
 420              	.LFB21:
  68:src/trap.cpp  **** 
  69:src/trap.cpp  **** 
  70:src/trap.cpp  **** void cInternalInterruptRoutine()
  71:src/trap.cpp  **** {
 421              		.loc 1 71 1 is_stmt 1
 422              		.cfi_startproc
 423 0270 130101FA 		addi	sp,sp,-96
 424              		.cfi_def_cfa_offset 96
 425 0274 233C1104 		sd	ra,88(sp)
 426 0278 23388104 		sd	s0,80(sp)
 427 027c 23349104 		sd	s1,72(sp)
 428 0280 23302105 		sd	s2,64(sp)
 429 0284 233C3103 		sd	s3,56(sp)
 430 0288 23384103 		sd	s4,48(sp)
 431 028c 23345103 		sd	s5,40(sp)
 432 0290 23306103 		sd	s6,32(sp)
 433 0294 233C7101 		sd	s7,24(sp)
 434              		.cfi_offset 1, -8
 435              		.cfi_offset 8, -16
 436              		.cfi_offset 9, -24
 437              		.cfi_offset 18, -32
 438              		.cfi_offset 19, -40
 439              		.cfi_offset 20, -48
 440              		.cfi_offset 21, -56
 441              		.cfi_offset 22, -64
 442              		.cfi_offset 23, -72
 443 0298 13040106 		addi	s0,sp,96
 444              		.cfi_def_cfa 8, 0
  72:src/trap.cpp  ****     uint64 scause;
 445              		.loc 1 72 5
  73:src/trap.cpp  ****     __asm__ volatile ("csrr %[name], scause" : [name] "=r"(scause));
 446              		.loc 1 73 5
 447              		.loc 1 73 68 is_stmt 0
 448              	#APP
 449              	# 73 "src/trap.cpp" 1
  74              	
 450              		csrr s2, scause
 451              	# 0 "" 2
GAS LISTING /tmp/cc6qps3I.s 			page 13


 452              	.LVL50:
  75:src/trap.cpp  **** //    int isExternal = (scause & (0x1UL << 63)) != 0;
  76:src/trap.cpp  ****     int cause = scause & (~(1UL << 63));
 453              		.loc 1 76 5 is_stmt 1
  77:src/trap.cpp  **** 
  78:src/trap.cpp  ****     __asm__ volatile ("csrc sip, 0x2"); // clears the 1st bit in register sip. (the bit signifies i
 454              		.loc 1 78 5
 455              		.loc 1 78 39 is_stmt 0
 456              	# 78 "src/trap.cpp" 1
  79              	
  80:src/trap.cpp  ****     uint64 code, parameter1, parameter2, parameter3;
 457              		csrc sip, 0x2
 458              	# 0 "" 2
 459              		.loc 1 80 5 is_stmt 1
  81:src/trap.cpp  ****     __asm__ volatile ("mv %[name], a0" : [name] "=r"(code));
 460              		.loc 1 81 5
 461              		.loc 1 81 60 is_stmt 0
 462              	# 81 "src/trap.cpp" 1
  82              	    __asm__ volatile ("mv %[name], a1" : [name] "=r"(parameter1));
 463              		mv s1, a0
 464              	# 0 "" 2
 465              	.LVL51:
 466              		.loc 1 82 5 is_stmt 1
 467              		.loc 1 82 66 is_stmt 0
 468              	# 82 "src/trap.cpp" 1
  83              	    __asm__ volatile ("mv %[name], a2" : [name] "=r"(parameter2));
 469              		mv s4, a1
 470              	# 0 "" 2
 471              	.LVL52:
 472              		.loc 1 83 5 is_stmt 1
 473              		.loc 1 83 66 is_stmt 0
 474              	# 83 "src/trap.cpp" 1
  84              	    __asm__ volatile ("mv %[name], a3" : [name] "=r"(parameter3));
 475              		mv s5, a2
 476              	# 0 "" 2
 477              	.LVL53:
 478              		.loc 1 84 5 is_stmt 1
 479              		.loc 1 84 66 is_stmt 0
 480              	# 84 "src/trap.cpp" 1
  85              	
 481              		mv s6, a3
 482              	# 0 "" 2
 483              	.LVL54:
  86:src/trap.cpp  **** 
  87:src/trap.cpp  ****     __asm__ volatile ("mv x1, x1");
 484              		.loc 1 87 5 is_stmt 1
 485              		.loc 1 87 35 is_stmt 0
 486              	# 87 "src/trap.cpp" 1
  88              	
  89:src/trap.cpp  **** //    Thread::getPRunning()->sp = Thread::runningSp;
  90:src/trap.cpp  **** //    uint64* sp = Thread::getPRunning()->sp;
  91:src/trap.cpp  **** //    uint64* runningSp = Thread::runningSp;
  92:src/trap.cpp  **** //    if(sp != runningSp) // temp, maybe changes registers?
  93:src/trap.cpp  **** //    {
  94:src/trap.cpp  **** //        __asm__ volatile ("mv x10, x10");
  95:src/trap.cpp  **** //        assert(false);
  96:src/trap.cpp  **** //    }
GAS LISTING /tmp/cc6qps3I.s 			page 14


  97:src/trap.cpp  ****     assert(&(Thread::getPRunning()->sp) == Thread::pRunningSp);
 487              		mv x1, x1
 488              	# 0 "" 2
 489              		.loc 1 97 5 is_stmt 1
 490              	#NO_APP
 491 02b8 97000000 		call	_ZN6Thread11getPRunningEv@plt
 491      E7800000 
 492              	.LVL55:
 493 02c0 93078504 		addi	a5,a0,72
 494 02c4 17070000 		la	a4,_ZN6Thread10pRunningSpE
 494      03370700 
 495 02cc 03350700 		ld	a0,0(a4)
 496 02d0 3305F540 		sub	a0,a0,a5
 497              	.LVL56:
 498              	.LBB52:
 499              	.LBB53:
  21:src/../h/../h/my_console.h ****         return;
 500              		.loc 2 21 5
 501 02d4 6318050C 		bnez	a0,.L52
 502 02d8 9B090900 		sext.w	s3,s2
 503 02dc 933B1500 		seqz	s7,a0
  22:src/../h/../h/my_console.h **** 
 504              		.loc 2 22 9
 505              	.LVL57:
 506              	.LBE53:
 507              	.LBE52:
  98:src/trap.cpp  **** 
  99:src/trap.cpp  ****     __asm__ volatile ("mv x1, x1");
 508              		.loc 1 99 5
 509              		.loc 1 99 35 is_stmt 0
 510              	#APP
 511              	# 99 "src/trap.cpp" 1
 100              	
 101:src/trap.cpp  ****     if(cause != 8 && cause != 9)
 512              		mv x1, x1
 513              	# 0 "" 2
 514              		.loc 1 101 5 is_stmt 1
 515              		.loc 1 101 19 is_stmt 0
 516              	#NO_APP
 517 02e4 1B0989FF 		addiw	s2,s2,-8
 518              	.LVL58:
 519              		.loc 1 101 5
 520 02e8 93071000 		li	a5,1
 521 02ec 63EA2711 		bgtu	s2,a5,.L53
 102:src/trap.cpp  ****     {
 103:src/trap.cpp  ****         putString("=== EXCEPETION occured: ");
 104:src/trap.cpp  ****         if(cause == 2)
 105:src/trap.cpp  ****         {
 106:src/trap.cpp  ****             putString(" Illegal instruction");
 107:src/trap.cpp  ****         }
 108:src/trap.cpp  ****         else if (cause == 5)
 109:src/trap.cpp  ****         {
 110:src/trap.cpp  ****             putString("Unallowed read adress");
 111:src/trap.cpp  ****         }
 112:src/trap.cpp  ****         else if (cause == 7)
 113:src/trap.cpp  ****         {
 114:src/trap.cpp  ****             putString("Unallowed write adress");
GAS LISTING /tmp/cc6qps3I.s 			page 15


 115:src/trap.cpp  ****         }
 116:src/trap.cpp  ****         else
 117:src/trap.cpp  ****         {
 118:src/trap.cpp  ****             putString("UKNOWN EXCEPTION. ??????????????");
 119:src/trap.cpp  ****             assert(false);
 120:src/trap.cpp  ****         }
 121:src/trap.cpp  ****         putNewline();
 122:src/trap.cpp  ****         putString("Terminating kernel");
 123:src/trap.cpp  ****         putNewline();
 124:src/trap.cpp  ****         assert(false);
 125:src/trap.cpp  ****     }
 126:src/trap.cpp  **** 
 127:src/trap.cpp  **** 
 128:src/trap.cpp  ****     uint64 ret = -1;
 522              		.loc 1 128 5 is_stmt 1
 523              		.loc 1 128 12 is_stmt 0
 524 02f0 9307F0FF 		li	a5,-1
 525 02f4 2334F4FA 		sd	a5,-88(s0)
 129:src/trap.cpp  ****     if(code == 1)
 526              		.loc 1 129 5 is_stmt 1
 527              	.LBB55:
 528 02f8 93071000 		li	a5,1
 529 02fc 6386F424 		beq	s1,a5,.L54
 530              	.LBE55:
 130:src/trap.cpp  ****     {
 131:src/trap.cpp  ****         ret = (uint64)MemAlloc::get()->allocMem(parameter1);
 132:src/trap.cpp  ****     }
 133:src/trap.cpp  ****     else if (code == 2)
 531              		.loc 1 133 10
 532              	.LBB90:
 533              	.LBB56:
 534 0300 93072000 		li	a5,2
 535 0304 6388F42A 		beq	s1,a5,.L55
 536              	.LBE56:
 537              	.LBE90:
 134:src/trap.cpp  ****     {
 135:src/trap.cpp  ****         *((int*)&ret) = MemAlloc::get()->freeMem((void*)parameter1);
 136:src/trap.cpp  ****     }
 137:src/trap.cpp  **** #ifdef __DEBUG_MODE
 138:src/trap.cpp  ****     else if (code == 3) // Test call
 538              		.loc 1 138 10
 539              	.LBB91:
 540              	.LBB84:
 541              	.LBB57:
 542 0308 93073000 		li	a5,3
 543 030c 6382F42C 		beq	s1,a5,.L56
 544              	.LBE57:
 545              	.LBE84:
 546              	.LBE91:
 139:src/trap.cpp  ****     {
 140:src/trap.cpp  ****         ret = (uint64)testCall(parameter1);
 141:src/trap.cpp  ****     }
 142:src/trap.cpp  **** #endif
 143:src/trap.cpp  ****     else if (code == 4)
 547              		.loc 1 143 10
 548              	.LBB92:
 549              	.LBB85:
GAS LISTING /tmp/cc6qps3I.s 			page 16


 550              	.LBB79:
 551              	.LBB58:
 552 0310 93074000 		li	a5,4
 553 0314 6388F42C 		beq	s1,a5,.L57
 554              	.LBE58:
 555              	.LBE79:
 556              	.LBE85:
 557              	.LBE92:
 144:src/trap.cpp  ****     {
 145:src/trap.cpp  ****         Thread::switchToUser();
 146:src/trap.cpp  ****     }
 147:src/trap.cpp  ****     else if (code == 17) // 17
 558              		.loc 1 147 10
 559              	.LBB93:
 560              	.LBB86:
 561              	.LBB80:
 562              	.LBB75:
 563              	.LBB59:
 564 0318 93071001 		li	a5,17
 565 031c 638AF42C 		beq	s1,a5,.L58
 566              	.LBE59:
 567              	.LBE75:
 568              	.LBE80:
 569              	.LBE86:
 570              	.LBE93:
 148:src/trap.cpp  ****     {
 149:src/trap.cpp  ****         *((int*)&ret) = Thread::createThread((uint64*)parameter1, (Thread::Body)parameter2, (void*)
 150:src/trap.cpp  ****     }
 151:src/trap.cpp  ****     else if (code == 18)
 571              		.loc 1 151 10
 572              	.LBB94:
 573              	.LBB87:
 574              	.LBB81:
 575              	.LBB76:
 576              	.LBB72:
 577              	.LBB60:
 578 0320 93072001 		li	a5,18
 579 0324 6384F42E 		beq	s1,a5,.L59
 580              	.LBE60:
 581              	.LBE72:
 582              	.LBE76:
 583              	.LBE81:
 584              	.LBE87:
 585              	.LBE94:
 152:src/trap.cpp  ****     {
 153:src/trap.cpp  ****         *((int*)&ret) = Thread::exit();
 154:src/trap.cpp  ****     }
 155:src/trap.cpp  ****     else if (code == 19) // 19, thread_dispatch
 586              		.loc 1 155 10
 587              	.LBB95:
 588              	.LBB88:
 589              	.LBB82:
 590              	.LBB77:
 591              	.LBB73:
 592              	.LBB70:
 593              	.LBB61:
 594 0328 93073001 		li	a5,19
GAS LISTING /tmp/cc6qps3I.s 			page 17


 595 032c 6388F42E 		beq	s1,a5,.L60
 156:src/trap.cpp  ****     {
 157:src/trap.cpp  ****         extern Thread kernelThread;
 158:src/trap.cpp  ****         assert(Thread::getPRunning() != &kernelThread); // you're only supposed to open user thread
 159:src/trap.cpp  **** 
 160:src/trap.cpp  ****         Thread::getPRunning()->state = Thread::READY;
 161:src/trap.cpp  ****         Scheduler::put(Thread::getPRunning());
 162:src/trap.cpp  **** 
 163:src/trap.cpp  ****         Scheduler::dispatchToNext();
 164:src/trap.cpp  ****     }
 165:src/trap.cpp  ****     else if (code == 20)
 596              		.loc 1 165 10
 597 0330 93074001 		li	a5,20
 598 0334 6382F438 		beq	s1,a5,.L61
 166:src/trap.cpp  ****     {
 167:src/trap.cpp  ****         Thread::join((uint64)parameter1);
 168:src/trap.cpp  ****     }
 169:src/trap.cpp  ****     else if (code == 65) // getc
 599              		.loc 1 169 10
 600 0338 93071004 		li	a5,65
 601 033c 6382F422 		beq	s1,a5,.L26
 170:src/trap.cpp  ****     {
 171:src/trap.cpp  **** 
 172:src/trap.cpp  ****     }
 173:src/trap.cpp  ****     else if (code == 66) // putc
 602              		.loc 1 173 10
 603 0340 93072004 		li	a5,66
 604 0344 638EF420 		beq	s1,a5,.L26
 174:src/trap.cpp  ****     {
 175:src/trap.cpp  **** 
 176:src/trap.cpp  ****     }
 177:src/trap.cpp  ****     else
 178:src/trap.cpp  ****     {
 179:src/trap.cpp  ****         assert(false); // unknown code
 605              		.loc 1 179 9
 606              	.LVL59:
 607              	.LBB62:
 608              	.LBB63:
  21:src/../h/../h/my_console.h ****         return;
 609              		.loc 2 21 5
  24:src/../h/../h/my_console.h ****     putString(file);
 610              		.loc 2 24 5
  24:src/../h/../h/my_console.h ****     putString(file);
 611              		.loc 2 24 14 is_stmt 0
 612 0348 17050000 		lla	a0,.LC0
 612      13050500 
 613 0350 97000000 		call	_Z9putStringPKc@plt
 613      E7800000 
 614              	.LVL60:
  25:src/../h/../h/my_console.h ****     putString("    line: ");
 615              		.loc 2 25 5 is_stmt 1
  25:src/../h/../h/my_console.h ****     putString("    line: ");
 616              		.loc 2 25 14 is_stmt 0
 617 0358 17050000 		lla	a0,.LC1
 617      13050500 
 618 0360 97000000 		call	_Z9putStringPKc@plt
 618      E7800000 
GAS LISTING /tmp/cc6qps3I.s 			page 18


 619              	.LVL61:
  26:src/../h/../h/my_console.h ****     putInt(line);
 620              		.loc 2 26 5 is_stmt 1
  26:src/../h/../h/my_console.h ****     putInt(line);
 621              		.loc 2 26 14 is_stmt 0
 622 0368 17050000 		lla	a0,.LC2
 622      13050500 
 623 0370 97000000 		call	_Z9putStringPKc@plt
 623      E7800000 
 624              	.LVL62:
  27:src/../h/../h/my_console.h ****     putString("   ===========================");
 625              		.loc 2 27 5 is_stmt 1
  27:src/../h/../h/my_console.h ****     putString("   ===========================");
 626              		.loc 2 27 11 is_stmt 0
 627 0378 1305300B 		li	a0,179
 628 037c 97000000 		call	_Z6putInti@plt
 628      E7800000 
 629              	.LVL63:
  28:src/../h/../h/my_console.h ****     putNewline();
 630              		.loc 2 28 5 is_stmt 1
  28:src/../h/../h/my_console.h ****     putNewline();
 631              		.loc 2 28 14 is_stmt 0
 632 0384 17050000 		lla	a0,.LC3
 632      13050500 
 633 038c 97000000 		call	_Z9putStringPKc@plt
 633      E7800000 
 634              	.LVL64:
  29:src/../h/../h/my_console.h **** 
 635              		.loc 2 29 5 is_stmt 1
  29:src/../h/../h/my_console.h **** 
 636              		.loc 2 29 15 is_stmt 0
 637 0394 97000000 		call	_Z10putNewlinev@plt
 637      E7800000 
 638              	.LVL65:
 639              		.loc 2 31 5 is_stmt 1
 640              		.loc 2 31 15 is_stmt 0
 641 039c 97000000 		call	_Z10stopKernelv@plt
 641      E7800000 
 642              	.LVL66:
 643              	.L52:
 644              	.LBE63:
 645              	.LBE62:
 646              	.LBE61:
 647              	.LBE70:
 648              	.LBE73:
 649              	.LBE77:
 650              	.LBE82:
 651              	.LBE88:
 652              	.LBE95:
 653              	.LBB96:
 654              	.LBB54:
  24:src/../h/../h/my_console.h ****     putString(file);
 655              		.loc 2 24 5 is_stmt 1
  24:src/../h/../h/my_console.h ****     putString(file);
 656              		.loc 2 24 14 is_stmt 0
 657 03a4 17050000 		lla	a0,.LC0
 657      13050500 
GAS LISTING /tmp/cc6qps3I.s 			page 19


 658              	.LVL67:
 659 03ac 97000000 		call	_Z9putStringPKc@plt
 659      E7800000 
 660              	.LVL68:
  25:src/../h/../h/my_console.h ****     putString("    line: ");
 661              		.loc 2 25 5 is_stmt 1
  25:src/../h/../h/my_console.h ****     putString("    line: ");
 662              		.loc 2 25 14 is_stmt 0
 663 03b4 17050000 		lla	a0,.LC1
 663      13050500 
 664 03bc 97000000 		call	_Z9putStringPKc@plt
 664      E7800000 
 665              	.LVL69:
  26:src/../h/../h/my_console.h ****     putInt(line);
 666              		.loc 2 26 5 is_stmt 1
  26:src/../h/../h/my_console.h ****     putInt(line);
 667              		.loc 2 26 14 is_stmt 0
 668 03c4 17050000 		lla	a0,.LC2
 668      13050500 
 669 03cc 97000000 		call	_Z9putStringPKc@plt
 669      E7800000 
 670              	.LVL70:
  27:src/../h/../h/my_console.h ****     putString("   ===========================");
 671              		.loc 2 27 5 is_stmt 1
  27:src/../h/../h/my_console.h ****     putString("   ===========================");
 672              		.loc 2 27 11 is_stmt 0
 673 03d4 13051006 		li	a0,97
 674 03d8 97000000 		call	_Z6putInti@plt
 674      E7800000 
 675              	.LVL71:
  28:src/../h/../h/my_console.h ****     putNewline();
 676              		.loc 2 28 5 is_stmt 1
  28:src/../h/../h/my_console.h ****     putNewline();
 677              		.loc 2 28 14 is_stmt 0
 678 03e0 17050000 		lla	a0,.LC3
 678      13050500 
 679 03e8 97000000 		call	_Z9putStringPKc@plt
 679      E7800000 
 680              	.LVL72:
  29:src/../h/../h/my_console.h **** 
 681              		.loc 2 29 5 is_stmt 1
  29:src/../h/../h/my_console.h **** 
 682              		.loc 2 29 15 is_stmt 0
 683 03f0 97000000 		call	_Z10putNewlinev@plt
 683      E7800000 
 684              	.LVL73:
 685              		.loc 2 31 5 is_stmt 1
 686              		.loc 2 31 15 is_stmt 0
 687 03f8 97000000 		call	_Z10stopKernelv@plt
 687      E7800000 
 688              	.LVL74:
 689              	.L53:
 690              	.LBE54:
 691              	.LBE96:
 103:src/trap.cpp  ****         if(cause == 2)
 692              		.loc 1 103 9 is_stmt 1
 103:src/trap.cpp  ****         if(cause == 2)
GAS LISTING /tmp/cc6qps3I.s 			page 20


 693              		.loc 1 103 18 is_stmt 0
 694 0400 17050000 		lla	a0,.LC4
 694      13050500 
 695 0408 97000000 		call	_Z9putStringPKc@plt
 695      E7800000 
 696              	.LVL75:
 104:src/trap.cpp  ****         {
 697              		.loc 1 104 9 is_stmt 1
 698 0410 93072000 		li	a5,2
 699 0414 6380F908 		beq	s3,a5,.L62
 108:src/trap.cpp  ****         {
 700              		.loc 1 108 14
 701 0418 93075000 		li	a5,5
 702 041c 6386F908 		beq	s3,a5,.L63
 112:src/trap.cpp  ****         {
 703              		.loc 1 112 14
 704 0420 93077000 		li	a5,7
 705 0424 638CF908 		beq	s3,a5,.L64
 118:src/trap.cpp  ****             assert(false);
 706              		.loc 1 118 13
 118:src/trap.cpp  ****             assert(false);
 707              		.loc 1 118 22 is_stmt 0
 708 0428 17050000 		lla	a0,.LC8
 708      13050500 
 709 0430 97000000 		call	_Z9putStringPKc@plt
 709      E7800000 
 710              	.LVL76:
 119:src/trap.cpp  ****         }
 711              		.loc 1 119 13 is_stmt 1
 712              	.LBB97:
 713              	.LBB98:
  21:src/../h/../h/my_console.h ****         return;
 714              		.loc 2 21 5
  24:src/../h/../h/my_console.h ****     putString(file);
 715              		.loc 2 24 5
  24:src/../h/../h/my_console.h ****     putString(file);
 716              		.loc 2 24 14 is_stmt 0
 717 0438 17050000 		lla	a0,.LC0
 717      13050500 
 718 0440 97000000 		call	_Z9putStringPKc@plt
 718      E7800000 
 719              	.LVL77:
  25:src/../h/../h/my_console.h ****     putString("    line: ");
 720              		.loc 2 25 5 is_stmt 1
  25:src/../h/../h/my_console.h ****     putString("    line: ");
 721              		.loc 2 25 14 is_stmt 0
 722 0448 17050000 		lla	a0,.LC1
 722      13050500 
 723 0450 97000000 		call	_Z9putStringPKc@plt
 723      E7800000 
 724              	.LVL78:
  26:src/../h/../h/my_console.h ****     putInt(line);
 725              		.loc 2 26 5 is_stmt 1
  26:src/../h/../h/my_console.h ****     putInt(line);
 726              		.loc 2 26 14 is_stmt 0
 727 0458 17050000 		lla	a0,.LC2
 727      13050500 
GAS LISTING /tmp/cc6qps3I.s 			page 21


 728 0460 97000000 		call	_Z9putStringPKc@plt
 728      E7800000 
 729              	.LVL79:
  27:src/../h/../h/my_console.h ****     putString("   ===========================");
 730              		.loc 2 27 5 is_stmt 1
  27:src/../h/../h/my_console.h ****     putString("   ===========================");
 731              		.loc 2 27 11 is_stmt 0
 732 0468 13057007 		li	a0,119
 733 046c 97000000 		call	_Z6putInti@plt
 733      E7800000 
 734              	.LVL80:
  28:src/../h/../h/my_console.h ****     putNewline();
 735              		.loc 2 28 5 is_stmt 1
  28:src/../h/../h/my_console.h ****     putNewline();
 736              		.loc 2 28 14 is_stmt 0
 737 0474 17050000 		lla	a0,.LC3
 737      13050500 
 738 047c 97000000 		call	_Z9putStringPKc@plt
 738      E7800000 
 739              	.LVL81:
  29:src/../h/../h/my_console.h **** 
 740              		.loc 2 29 5 is_stmt 1
  29:src/../h/../h/my_console.h **** 
 741              		.loc 2 29 15 is_stmt 0
 742 0484 97000000 		call	_Z10putNewlinev@plt
 742      E7800000 
 743              	.LVL82:
 744              		.loc 2 31 5 is_stmt 1
 745              		.loc 2 31 15 is_stmt 0
 746 048c 97000000 		call	_Z10stopKernelv@plt
 746      E7800000 
 747              	.LVL83:
 748              	.L62:
 749              	.LBE98:
 750              	.LBE97:
 106:src/trap.cpp  ****         }
 751              		.loc 1 106 13 is_stmt 1
 106:src/trap.cpp  ****         }
 752              		.loc 1 106 22 is_stmt 0
 753 0494 17050000 		lla	a0,.LC5
 753      13050500 
 754 049c 97000000 		call	_Z9putStringPKc@plt
 754      E7800000 
 755              	.LVL84:
 756 04a4 6F008002 		j	.L22
 757              	.L63:
 110:src/trap.cpp  ****         }
 758              		.loc 1 110 13 is_stmt 1
 110:src/trap.cpp  ****         }
 759              		.loc 1 110 22 is_stmt 0
 760 04a8 17050000 		lla	a0,.LC6
 760      13050500 
 761 04b0 97000000 		call	_Z9putStringPKc@plt
 761      E7800000 
 762              	.LVL85:
 763 04b8 6F004001 		j	.L22
 764              	.L64:
GAS LISTING /tmp/cc6qps3I.s 			page 22


 114:src/trap.cpp  ****         }
 765              		.loc 1 114 13 is_stmt 1
 114:src/trap.cpp  ****         }
 766              		.loc 1 114 22 is_stmt 0
 767 04bc 17050000 		lla	a0,.LC7
 767      13050500 
 768 04c4 97000000 		call	_Z9putStringPKc@plt
 768      E7800000 
 769              	.LVL86:
 770              	.L22:
 121:src/trap.cpp  ****         putString("Terminating kernel");
 771              		.loc 1 121 9 is_stmt 1
 121:src/trap.cpp  ****         putString("Terminating kernel");
 772              		.loc 1 121 19 is_stmt 0
 773 04cc 97000000 		call	_Z10putNewlinev@plt
 773      E7800000 
 774              	.LVL87:
 122:src/trap.cpp  ****         putNewline();
 775              		.loc 1 122 9 is_stmt 1
 122:src/trap.cpp  ****         putNewline();
 776              		.loc 1 122 18 is_stmt 0
 777 04d4 17050000 		lla	a0,.LC9
 777      13050500 
 778 04dc 97000000 		call	_Z9putStringPKc@plt
 778      E7800000 
 779              	.LVL88:
 123:src/trap.cpp  ****         assert(false);
 780              		.loc 1 123 9 is_stmt 1
 123:src/trap.cpp  ****         assert(false);
 781              		.loc 1 123 19 is_stmt 0
 782 04e4 97000000 		call	_Z10putNewlinev@plt
 782      E7800000 
 783              	.LVL89:
 124:src/trap.cpp  ****     }
 784              		.loc 1 124 9 is_stmt 1
 785              	.LBB99:
 786              	.LBB100:
  21:src/../h/../h/my_console.h ****         return;
 787              		.loc 2 21 5
  24:src/../h/../h/my_console.h ****     putString(file);
 788              		.loc 2 24 5
  24:src/../h/../h/my_console.h ****     putString(file);
 789              		.loc 2 24 14 is_stmt 0
 790 04ec 17050000 		lla	a0,.LC0
 790      13050500 
 791 04f4 97000000 		call	_Z9putStringPKc@plt
 791      E7800000 
 792              	.LVL90:
  25:src/../h/../h/my_console.h ****     putString("    line: ");
 793              		.loc 2 25 5 is_stmt 1
  25:src/../h/../h/my_console.h ****     putString("    line: ");
 794              		.loc 2 25 14 is_stmt 0
 795 04fc 17050000 		lla	a0,.LC1
 795      13050500 
 796 0504 97000000 		call	_Z9putStringPKc@plt
 796      E7800000 
 797              	.LVL91:
GAS LISTING /tmp/cc6qps3I.s 			page 23


  26:src/../h/../h/my_console.h ****     putInt(line);
 798              		.loc 2 26 5 is_stmt 1
  26:src/../h/../h/my_console.h ****     putInt(line);
 799              		.loc 2 26 14 is_stmt 0
 800 050c 17050000 		lla	a0,.LC2
 800      13050500 
 801 0514 97000000 		call	_Z9putStringPKc@plt
 801      E7800000 
 802              	.LVL92:
  27:src/../h/../h/my_console.h ****     putString("   ===========================");
 803              		.loc 2 27 5 is_stmt 1
  27:src/../h/../h/my_console.h ****     putString("   ===========================");
 804              		.loc 2 27 11 is_stmt 0
 805 051c 1305C007 		li	a0,124
 806 0520 97000000 		call	_Z6putInti@plt
 806      E7800000 
 807              	.LVL93:
  28:src/../h/../h/my_console.h ****     putNewline();
 808              		.loc 2 28 5 is_stmt 1
  28:src/../h/../h/my_console.h ****     putNewline();
 809              		.loc 2 28 14 is_stmt 0
 810 0528 17050000 		lla	a0,.LC3
 810      13050500 
 811 0530 97000000 		call	_Z9putStringPKc@plt
 811      E7800000 
 812              	.LVL94:
  29:src/../h/../h/my_console.h **** 
 813              		.loc 2 29 5 is_stmt 1
  29:src/../h/../h/my_console.h **** 
 814              		.loc 2 29 15 is_stmt 0
 815 0538 97000000 		call	_Z10putNewlinev@plt
 815      E7800000 
 816              	.LVL95:
 817              		.loc 2 31 5 is_stmt 1
 818              		.loc 2 31 15 is_stmt 0
 819 0540 97000000 		call	_Z10stopKernelv@plt
 819      E7800000 
 820              	.LVL96:
 821              	.L54:
 822              	.LBE100:
 823              	.LBE99:
 824              	.LBB101:
 131:src/trap.cpp  ****     }
 825              		.loc 1 131 9 is_stmt 1
 131:src/trap.cpp  ****     }
 826              		.loc 1 131 48 is_stmt 0
 827 0548 97000000 		call	_ZN8MemAlloc3getEv@plt
 827      E7800000 
 828              	.LVL97:
 829 0550 93050A00 		mv	a1,s4
 830 0554 97000000 		call	_ZN8MemAlloc8allocMemEm@plt
 830      E7800000 
 831              	.LVL98:
 131:src/trap.cpp  ****     }
 832              		.loc 1 131 13
 833 055c 2334A4FA 		sd	a0,-88(s0)
 834              	.L26:
GAS LISTING /tmp/cc6qps3I.s 			page 24


 835              	.LBE101:
 180:src/trap.cpp  ****         assert(false); // unknown code
 181:src/trap.cpp  ****         assert(false); // unknown code
 182:src/trap.cpp  ****         assert(false); // unknown code
 183:src/trap.cpp  ****     }
 184:src/trap.cpp  **** 
 185:src/trap.cpp  **** //    __asm__ volatile ("mv a0, %[name]" : : [name] "r" (ret)); // upaliti ovo dole umesto ovoga (o
 186:src/trap.cpp  **** 
 187:src/trap.cpp  ****     bool normalCallWithReturn = (code == 0x1) || (code == 0x2) || (code == 0x11) || (code == 0x12) 
 836              		.loc 1 187 5 is_stmt 1
 837              		.loc 1 187 47 is_stmt 0
 838 0560 9387F4FF 		addi	a5,s1,-1
 839              		.loc 1 187 190
 840 0564 13071000 		li	a4,1
 841 0568 6374F716 		bleu	a5,a4,.L41
 842              		.loc 1 187 64 discriminator 2
 843 056c 93071001 		li	a5,17
 844 0570 6388F41E 		beq	s1,a5,.L42
 845              		.loc 1 187 82 discriminator 4
 846 0574 93072001 		li	a5,18
 847 0578 6388F41E 		beq	s1,a5,.L43
 848              		.loc 1 187 100 discriminator 6
 849 057c 93071002 		li	a5,33
 850 0580 6388F41E 		beq	s1,a5,.L44
 851              		.loc 1 187 118 discriminator 8
 852 0584 93072002 		li	a5,34
 853 0588 6388F41E 		beq	s1,a5,.L45
 854              		.loc 1 187 136 discriminator 10
 855 058c 93073002 		li	a5,35
 856 0590 6388F41E 		beq	s1,a5,.L46
 857              		.loc 1 187 154 discriminator 12
 858 0594 93074002 		li	a5,36
 859 0598 6388F41E 		beq	s1,a5,.L47
 860              		.loc 1 187 172 discriminator 14
 861 059c 93071003 		li	a5,49
 862 05a0 6388F41E 		beq	s1,a5,.L48
 863              		.loc 1 187 190 discriminator 16
 864 05a4 93071004 		li	a5,65
 865 05a8 6380F412 		beq	s1,a5,.L65
 866              		.loc 1 187 190
 867 05ac 93060000 		li	a3,0
 868 05b0 6F004012 		j	.L35
 869              	.L55:
 870              	.LBB102:
 871              	.LBB89:
 135:src/trap.cpp  ****     }
 872              		.loc 1 135 9 is_stmt 1
 135:src/trap.cpp  ****     }
 873              		.loc 1 135 49 is_stmt 0
 874 05b4 97000000 		call	_ZN8MemAlloc3getEv@plt
 874      E7800000 
 875              	.LVL99:
 876 05bc 93050A00 		mv	a1,s4
 877 05c0 97000000 		call	_ZN8MemAlloc7freeMemEPv@plt
 877      E7800000 
 878              	.LVL100:
 135:src/trap.cpp  ****     }
GAS LISTING /tmp/cc6qps3I.s 			page 25


 879              		.loc 1 135 23
 880 05c8 2324A4FA 		sw	a0,-88(s0)
 881 05cc 6FF05FF9 		j	.L26
 882              	.L56:
 883              	.LBB83:
 140:src/trap.cpp  ****     }
 884              		.loc 1 140 9 is_stmt 1
 140:src/trap.cpp  ****     }
 885              		.loc 1 140 31 is_stmt 0
 886 05d0 13050A00 		mv	a0,s4
 887 05d4 97000000 		call	_Z8testCallm
 887      E7800000 
 888              	.LVL101:
 140:src/trap.cpp  ****     }
 889              		.loc 1 140 13
 890 05dc 2334A4FA 		sd	a0,-88(s0)
 891 05e0 6FF01FF8 		j	.L26
 892              	.L57:
 893              	.LBB78:
 145:src/trap.cpp  ****     }
 894              		.loc 1 145 9 is_stmt 1
 145:src/trap.cpp  ****     }
 895              		.loc 1 145 29 is_stmt 0
 896 05e4 97000000 		call	_ZN6Thread12switchToUserEv@plt
 896      E7800000 
 897              	.LVL102:
 898 05ec 6FF05FF7 		j	.L26
 899              	.L58:
 900              	.LBB74:
 149:src/trap.cpp  ****     }
 901              		.loc 1 149 9 is_stmt 1
 149:src/trap.cpp  ****     }
 902              		.loc 1 149 45 is_stmt 0
 903 05f0 13060B00 		mv	a2,s6
 904 05f4 93850A00 		mv	a1,s5
 905 05f8 13050A00 		mv	a0,s4
 906 05fc 97000000 		call	_ZN6Thread12createThreadEPmPFvPvES1_@plt
 906      E7800000 
 907              	.LVL103:
 149:src/trap.cpp  ****     }
 908              		.loc 1 149 23
 909 0604 2324A4FA 		sw	a0,-88(s0)
 910 0608 6FF09FF5 		j	.L26
 911              	.L59:
 912              	.LBB71:
 153:src/trap.cpp  ****     }
 913              		.loc 1 153 9 is_stmt 1
 153:src/trap.cpp  ****     }
 914              		.loc 1 153 37 is_stmt 0
 915 060c 97000000 		call	_ZN6Thread4exitEv@plt
 915      E7800000 
 916              	.LVL104:
 153:src/trap.cpp  ****     }
 917              		.loc 1 153 23
 918 0614 2324A4FA 		sw	a0,-88(s0)
 919 0618 6FF09FF4 		j	.L26
 920              	.L60:
GAS LISTING /tmp/cc6qps3I.s 			page 26


 921              	.LBB69:
 922              	.LBB64:
 157:src/trap.cpp  ****         assert(Thread::getPRunning() != &kernelThread); // you're only supposed to open user thread
 923              		.loc 1 157 9 is_stmt 1
 158:src/trap.cpp  **** 
 924              		.loc 1 158 9
 925 061c 97000000 		call	_ZN6Thread11getPRunningEv@plt
 925      E7800000 
 926              	.LVL105:
 927 0624 97070000 		la	a5,kernelThread
 927      83B70700 
 928              	.LVL106:
 929              	.LBB65:
 930              	.LBB66:
  21:src/../h/../h/my_console.h ****         return;
 931              		.loc 2 21 5
 932 062c 6388A702 		beq	a5,a0,.L66
  22:src/../h/../h/my_console.h **** 
 933              		.loc 2 22 9
 934              	.LVL107:
 935              	.LBE66:
 936              	.LBE65:
 160:src/trap.cpp  ****         Scheduler::put(Thread::getPRunning());
 937              		.loc 1 160 9
 160:src/trap.cpp  ****         Scheduler::put(Thread::getPRunning());
 938              		.loc 1 160 28 is_stmt 0
 939 0630 97000000 		call	_ZN6Thread11getPRunningEv@plt
 939      E7800000 
 940              	.LVL108:
 160:src/trap.cpp  ****         Scheduler::put(Thread::getPRunning());
 941              		.loc 1 160 38
 942 0638 93072000 		li	a5,2
 943 063c 2320F500 		sw	a5,0(a0)
 161:src/trap.cpp  **** 
 944              		.loc 1 161 9 is_stmt 1
 161:src/trap.cpp  **** 
 945              		.loc 1 161 23 is_stmt 0
 946 0640 97000000 		call	_ZN6Thread11getPRunningEv@plt
 946      E7800000 
 947              	.LVL109:
 948 0648 97000000 		call	_ZN9Scheduler3putEP6Thread@plt
 948      E7800000 
 949              	.LVL110:
 163:src/trap.cpp  ****     }
 950              		.loc 1 163 9 is_stmt 1
 163:src/trap.cpp  ****     }
 951              		.loc 1 163 34 is_stmt 0
 952 0650 97000000 		call	_ZN9Scheduler14dispatchToNextEv@plt
 952      E7800000 
 953              	.LVL111:
 954 0658 6FF09FF0 		j	.L26
 955              	.LVL112:
 956              	.L66:
 957              	.LBB68:
 958              	.LBB67:
  24:src/../h/../h/my_console.h ****     putString(file);
 959              		.loc 2 24 5 is_stmt 1
GAS LISTING /tmp/cc6qps3I.s 			page 27


  24:src/../h/../h/my_console.h ****     putString(file);
 960              		.loc 2 24 14 is_stmt 0
 961 065c 17050000 		lla	a0,.LC0
 961      13050500 
 962              	.LVL113:
 963 0664 97000000 		call	_Z9putStringPKc@plt
 963      E7800000 
 964              	.LVL114:
  25:src/../h/../h/my_console.h ****     putString("    line: ");
 965              		.loc 2 25 5 is_stmt 1
  25:src/../h/../h/my_console.h ****     putString("    line: ");
 966              		.loc 2 25 14 is_stmt 0
 967 066c 17050000 		lla	a0,.LC1
 967      13050500 
 968 0674 97000000 		call	_Z9putStringPKc@plt
 968      E7800000 
 969              	.LVL115:
  26:src/../h/../h/my_console.h ****     putInt(line);
 970              		.loc 2 26 5 is_stmt 1
  26:src/../h/../h/my_console.h ****     putInt(line);
 971              		.loc 2 26 14 is_stmt 0
 972 067c 17050000 		lla	a0,.LC2
 972      13050500 
 973 0684 97000000 		call	_Z9putStringPKc@plt
 973      E7800000 
 974              	.LVL116:
  27:src/../h/../h/my_console.h ****     putString("   ===========================");
 975              		.loc 2 27 5 is_stmt 1
  27:src/../h/../h/my_console.h ****     putString("   ===========================");
 976              		.loc 2 27 11 is_stmt 0
 977 068c 1305E009 		li	a0,158
 978 0690 97000000 		call	_Z6putInti@plt
 978      E7800000 
 979              	.LVL117:
  28:src/../h/../h/my_console.h ****     putNewline();
 980              		.loc 2 28 5 is_stmt 1
  28:src/../h/../h/my_console.h ****     putNewline();
 981              		.loc 2 28 14 is_stmt 0
 982 0698 17050000 		lla	a0,.LC3
 982      13050500 
 983 06a0 97000000 		call	_Z9putStringPKc@plt
 983      E7800000 
 984              	.LVL118:
  29:src/../h/../h/my_console.h **** 
 985              		.loc 2 29 5 is_stmt 1
  29:src/../h/../h/my_console.h **** 
 986              		.loc 2 29 15 is_stmt 0
 987 06a8 97000000 		call	_Z10putNewlinev@plt
 987      E7800000 
 988              	.LVL119:
 989              		.loc 2 31 5 is_stmt 1
 990              		.loc 2 31 15 is_stmt 0
 991 06b0 97000000 		call	_Z10stopKernelv@plt
 991      E7800000 
 992              	.LVL120:
 993              	.L61:
 994              	.LBE67:
GAS LISTING /tmp/cc6qps3I.s 			page 28


 995              	.LBE68:
 996              	.LBE64:
 167:src/trap.cpp  ****     }
 997              		.loc 1 167 9 is_stmt 1
 167:src/trap.cpp  ****     }
 998              		.loc 1 167 21 is_stmt 0
 999 06b8 13050A00 		mv	a0,s4
 1000 06bc 97000000 		call	_ZN6Thread4joinEm@plt
 1000      E7800000 
 1001              	.LVL121:
 1002 06c4 6FF0DFE9 		j	.L26
 1003              	.L65:
 1004              	.LBE69:
 1005              	.LBE71:
 1006              	.LBE74:
 1007              	.LBE78:
 1008              	.LBE83:
 1009              	.LBE89:
 1010              	.LBE102:
 1011              		.loc 1 187 190
 1012 06c8 93860B00 		mv	a3,s7
 1013 06cc 6F008000 		j	.L35
 1014              	.L41:
 1015 06d0 93860B00 		mv	a3,s7
 1016              	.L35:
 1017              	.LVL122:
 188:src/trap.cpp  ****     bool customCallWithReturn = (code == 0x3);
 1018              		.loc 1 188 5 is_stmt 1 discriminator 20
 189:src/trap.cpp  ****     bool customCallWithoutReturn = (code == 0x4);
 1019              		.loc 1 189 5 discriminator 20
 190:src/trap.cpp  ****     bool normalCallWithoutReturn = (code == 0x13) || (code == 0x14) || (code == 0x42);
 1020              		.loc 1 190 5 discriminator 20
 1021              		.loc 1 190 51 is_stmt 0 discriminator 20
 1022 06d4 9387D4FE 		addi	a5,s1,-19
 1023              		.loc 1 190 69 discriminator 20
 1024 06d8 13071000 		li	a4,1
 1025 06dc 6378F700 		bleu	a5,a4,.L36
 1026              		.loc 1 190 69 discriminator 2
 1027 06e0 93072004 		li	a5,66
 1028 06e4 6384F400 		beq	s1,a5,.L36
 1029              		.loc 1 190 69
 1030 06e8 930B0000 		li	s7,0
 1031              	.L36:
 1032              	.LVL123:
 191:src/trap.cpp  ****     if(normalCallWithReturn || customCallWithReturn)
 1033              		.loc 1 191 5 is_stmt 1 discriminator 6
 1034 06ec 6396060A 		bnez	a3,.L37
 1035              		.loc 1 191 29 is_stmt 0 discriminator 1
 1036 06f0 93073000 		li	a5,3
 1037 06f4 6382F40A 		beq	s1,a5,.L37
 192:src/trap.cpp  ****     { // system call with a return (not necessariliy 64bit)
 193:src/trap.cpp  **** 
 194:src/trap.cpp  ****         assert(ret != (uint64)-1); // not 100% check
 195:src/trap.cpp  **** 
 196:src/trap.cpp  ****         __asm__ volatile ("mv a0, %[name]" : : [name] "r" (ret));
 197:src/trap.cpp  ****     }
 198:src/trap.cpp  ****     else if(normalCallWithoutReturn || customCallWithoutReturn) // this exists for safety reasons
GAS LISTING /tmp/cc6qps3I.s 			page 29


 1038              		.loc 1 198 10 is_stmt 1
 1039 06f8 639A0B0A 		bnez	s7,.L40
 1040              		.loc 1 198 37 is_stmt 0 discriminator 1
 1041 06fc 93074000 		li	a5,4
 1042 0700 6386F40A 		beq	s1,a5,.L40
 199:src/trap.cpp  ****     {
 200:src/trap.cpp  ****         ;
 201:src/trap.cpp  ****     }
 202:src/trap.cpp  ****     else
 203:src/trap.cpp  ****     {
 204:src/trap.cpp  ****         assert(false);
 1043              		.loc 1 204 9 is_stmt 1
 1044              	.LVL124:
 1045              	.LBB103:
 1046              	.LBB104:
  21:src/../h/../h/my_console.h ****         return;
 1047              		.loc 2 21 5
  24:src/../h/../h/my_console.h ****     putString(file);
 1048              		.loc 2 24 5
  24:src/../h/../h/my_console.h ****     putString(file);
 1049              		.loc 2 24 14 is_stmt 0
 1050 0704 17050000 		lla	a0,.LC0
 1050      13050500 
 1051 070c 97000000 		call	_Z9putStringPKc@plt
 1051      E7800000 
 1052              	.LVL125:
  25:src/../h/../h/my_console.h ****     putString("    line: ");
 1053              		.loc 2 25 5 is_stmt 1
  25:src/../h/../h/my_console.h ****     putString("    line: ");
 1054              		.loc 2 25 14 is_stmt 0
 1055 0714 17050000 		lla	a0,.LC1
 1055      13050500 
 1056 071c 97000000 		call	_Z9putStringPKc@plt
 1056      E7800000 
 1057              	.LVL126:
  26:src/../h/../h/my_console.h ****     putInt(line);
 1058              		.loc 2 26 5 is_stmt 1
  26:src/../h/../h/my_console.h ****     putInt(line);
 1059              		.loc 2 26 14 is_stmt 0
 1060 0724 17050000 		lla	a0,.LC2
 1060      13050500 
 1061 072c 97000000 		call	_Z9putStringPKc@plt
 1061      E7800000 
 1062              	.LVL127:
  27:src/../h/../h/my_console.h ****     putString("   ===========================");
 1063              		.loc 2 27 5 is_stmt 1
  27:src/../h/../h/my_console.h ****     putString("   ===========================");
 1064              		.loc 2 27 11 is_stmt 0
 1065 0734 1305C00C 		li	a0,204
 1066 0738 97000000 		call	_Z6putInti@plt
 1066      E7800000 
 1067              	.LVL128:
  28:src/../h/../h/my_console.h ****     putNewline();
 1068              		.loc 2 28 5 is_stmt 1
  28:src/../h/../h/my_console.h ****     putNewline();
 1069              		.loc 2 28 14 is_stmt 0
 1070 0740 17050000 		lla	a0,.LC3
GAS LISTING /tmp/cc6qps3I.s 			page 30


 1070      13050500 
 1071 0748 97000000 		call	_Z9putStringPKc@plt
 1071      E7800000 
 1072              	.LVL129:
  29:src/../h/../h/my_console.h **** 
 1073              		.loc 2 29 5 is_stmt 1
  29:src/../h/../h/my_console.h **** 
 1074              		.loc 2 29 15 is_stmt 0
 1075 0750 97000000 		call	_Z10putNewlinev@plt
 1075      E7800000 
 1076              	.LVL130:
 1077              		.loc 2 31 5 is_stmt 1
 1078              		.loc 2 31 15 is_stmt 0
 1079 0758 97000000 		call	_Z10stopKernelv@plt
 1079      E7800000 
 1080              	.LVL131:
 1081              	.L42:
 1082              	.LBE104:
 1083              	.LBE103:
 187:src/trap.cpp  ****     bool customCallWithReturn = (code == 0x3);
 1084              		.loc 1 187 190
 1085 0760 93860B00 		mv	a3,s7
 1086 0764 6FF01FF7 		j	.L35
 1087              	.L43:
 1088 0768 93860B00 		mv	a3,s7
 1089 076c 6FF09FF6 		j	.L35
 1090              	.L44:
 1091 0770 93860B00 		mv	a3,s7
 1092 0774 6FF01FF6 		j	.L35
 1093              	.L45:
 1094 0778 93860B00 		mv	a3,s7
 1095 077c 6FF09FF5 		j	.L35
 1096              	.L46:
 1097 0780 93860B00 		mv	a3,s7
 1098 0784 6FF01FF5 		j	.L35
 1099              	.L47:
 1100 0788 93860B00 		mv	a3,s7
 1101 078c 6FF09FF4 		j	.L35
 1102              	.L48:
 1103 0790 93860B00 		mv	a3,s7
 1104 0794 6FF01FF4 		j	.L35
 1105              	.LVL132:
 1106              	.L37:
 194:src/trap.cpp  **** 
 1107              		.loc 1 194 9 is_stmt 1
 1108 0798 833784FA 		ld	a5,-88(s0)
 1109 079c 93871700 		addi	a5,a5,1
 1110              	.LVL133:
 1111              	.LBB105:
 1112              	.LBB106:
  21:src/../h/../h/my_console.h ****         return;
 1113              		.loc 2 21 5
 1114 07a0 638E0702 		beqz	a5,.L67
  22:src/../h/../h/my_console.h **** 
 1115              		.loc 2 22 9
 1116              	.LVL134:
 1117              	.LBE106:
GAS LISTING /tmp/cc6qps3I.s 			page 31


 1118              	.LBE105:
 196:src/trap.cpp  ****     }
 1119              		.loc 1 196 9
 196:src/trap.cpp  ****     }
 1120              		.loc 1 196 65 is_stmt 0
 1121 07a4 833784FA 		ld	a5,-88(s0)
 1122              	#APP
 1123              	# 196 "src/trap.cpp" 1
 1124              		mv a0, a5
 1125              	# 0 "" 2
 1126              	#NO_APP
 1127              	.L40:
 205:src/trap.cpp  ****     }
 206:src/trap.cpp  **** 
 207:src/trap.cpp  ****     __asm__ volatile ("mv x10, x10");
 1128              		.loc 1 207 5 is_stmt 1
 1129              		.loc 1 207 37 is_stmt 0
 1130              	#APP
 1131              	# 207 "src/trap.cpp" 1
 208              	}
 1132              		mv x10, x10
 1133              	# 0 "" 2
 1134              		.loc 1 208 1
 1135              	#NO_APP
 1136 07b0 83308105 		ld	ra,88(sp)
 1137              		.cfi_remember_state
 1138              		.cfi_restore 1
 1139 07b4 03340105 		ld	s0,80(sp)
 1140              		.cfi_restore 8
 1141              		.cfi_def_cfa 2, 96
 1142 07b8 83348104 		ld	s1,72(sp)
 1143              		.cfi_restore 9
 1144              	.LVL135:
 1145 07bc 03390104 		ld	s2,64(sp)
 1146              		.cfi_restore 18
 1147 07c0 83398103 		ld	s3,56(sp)
 1148              		.cfi_restore 19
 1149              	.LVL136:
 1150 07c4 033A0103 		ld	s4,48(sp)
 1151              		.cfi_restore 20
 1152              	.LVL137:
 1153 07c8 833A8102 		ld	s5,40(sp)
 1154              		.cfi_restore 21
 1155              	.LVL138:
 1156 07cc 033B0102 		ld	s6,32(sp)
 1157              		.cfi_restore 22
 1158              	.LVL139:
 1159 07d0 833B8101 		ld	s7,24(sp)
 1160              		.cfi_restore 23
 1161              	.LVL140:
 1162 07d4 13010106 		addi	sp,sp,96
 1163              		.cfi_def_cfa_offset 0
 1164 07d8 67800000 		jr	ra
 1165              	.LVL141:
 1166              	.L67:
 1167              		.cfi_restore_state
 1168              	.LBB108:
GAS LISTING /tmp/cc6qps3I.s 			page 32


 1169              	.LBB107:
  24:src/../h/../h/my_console.h ****     putString(file);
 1170              		.loc 2 24 5 is_stmt 1
  24:src/../h/../h/my_console.h ****     putString(file);
 1171              		.loc 2 24 14 is_stmt 0
 1172 07dc 17050000 		lla	a0,.LC0
 1172      13050500 
 1173 07e4 97000000 		call	_Z9putStringPKc@plt
 1173      E7800000 
 1174              	.LVL142:
  25:src/../h/../h/my_console.h ****     putString("    line: ");
 1175              		.loc 2 25 5 is_stmt 1
  25:src/../h/../h/my_console.h ****     putString("    line: ");
 1176              		.loc 2 25 14 is_stmt 0
 1177 07ec 17050000 		lla	a0,.LC1
 1177      13050500 
 1178 07f4 97000000 		call	_Z9putStringPKc@plt
 1178      E7800000 
 1179              	.LVL143:
  26:src/../h/../h/my_console.h ****     putInt(line);
 1180              		.loc 2 26 5 is_stmt 1
  26:src/../h/../h/my_console.h ****     putInt(line);
 1181              		.loc 2 26 14 is_stmt 0
 1182 07fc 17050000 		lla	a0,.LC2
 1182      13050500 
 1183 0804 97000000 		call	_Z9putStringPKc@plt
 1183      E7800000 
 1184              	.LVL144:
  27:src/../h/../h/my_console.h ****     putString("   ===========================");
 1185              		.loc 2 27 5 is_stmt 1
  27:src/../h/../h/my_console.h ****     putString("   ===========================");
 1186              		.loc 2 27 11 is_stmt 0
 1187 080c 1305200C 		li	a0,194
 1188 0810 97000000 		call	_Z6putInti@plt
 1188      E7800000 
 1189              	.LVL145:
  28:src/../h/../h/my_console.h ****     putNewline();
 1190              		.loc 2 28 5 is_stmt 1
  28:src/../h/../h/my_console.h ****     putNewline();
 1191              		.loc 2 28 14 is_stmt 0
 1192 0818 17050000 		lla	a0,.LC3
 1192      13050500 
 1193 0820 97000000 		call	_Z9putStringPKc@plt
 1193      E7800000 
 1194              	.LVL146:
  29:src/../h/../h/my_console.h **** 
 1195              		.loc 2 29 5 is_stmt 1
  29:src/../h/../h/my_console.h **** 
 1196              		.loc 2 29 15 is_stmt 0
 1197 0828 97000000 		call	_Z10putNewlinev@plt
 1197      E7800000 
 1198              	.LVL147:
 1199              		.loc 2 31 5 is_stmt 1
 1200              		.loc 2 31 15 is_stmt 0
 1201 0830 97000000 		call	_Z10stopKernelv@plt
 1201      E7800000 
 1202              	.LVL148:
GAS LISTING /tmp/cc6qps3I.s 			page 33


 1203              	.LBE107:
 1204              	.LBE108:
 1205              		.cfi_endproc
 1206              	.LFE21:
 1208              		.globl	gTimer
 1209              		.bss
 1210              		.align	3
 1213              	gTimer:
 1214 0000 00000000 		.zero	8
 1214      00000000 
 1215              		.text
 1216              	.Letext0:
 1217              		.file 3 "src/../h/../lib/hw.h"
 1218              		.file 4 "src/../h/thread.h"
 1219              		.file 5 "src/../h/scheduler.h"
 1220              		.file 6 "src/../h/alloc.h"
 1221              		.file 7 "src/../h/../h/c_api.h"
 1222              		.file 8 "src/../h/../h/../lib/console.h"
GAS LISTING /tmp/cc6qps3I.s 			page 34


DEFINED SYMBOLS
                            *ABS*:0000000000000000 trap.cpp
     /tmp/cc6qps3I.s:9      .text:0000000000000000 _Z8testCallm
     /tmp/cc6qps3I.s:13     .text:0000000000000000 .L0 
     /tmp/cc6qps3I.s:15     .text:0000000000000000 .L0 
     /tmp/cc6qps3I.s:16     .text:0000000000000004 .L0 
     /tmp/cc6qps3I.s:19     .text:000000000000000c .L0 
     /tmp/cc6qps3I.s:20     .text:000000000000000c .L0 
     /tmp/cc6qps3I.s:22     .text:0000000000000010 .L0 
     /tmp/cc6qps3I.s:24     .text:0000000000000010 .L0 
     /tmp/cc6qps3I.s:25     .text:0000000000000010 .L0 
     /tmp/cc6qps3I.s:28     .text:0000000000000018 .L0 
     /tmp/cc6qps3I.s:29     .text:000000000000001c .L0 
     /tmp/cc6qps3I.s:31     .text:0000000000000020 .L0 
     /tmp/cc6qps3I.s:32     .text:0000000000000020 .L0 
     /tmp/cc6qps3I.s:34     .text:0000000000000024 .L0 
     /tmp/cc6qps3I.s:36     .text:0000000000000028 .L0 
     /tmp/cc6qps3I.s:56     .text:0000000000000028 _Z24cConsoleInterruptRoutinev
     /tmp/cc6qps3I.s:59     .text:0000000000000028 .L0 
     /tmp/cc6qps3I.s:60     .text:0000000000000028 .L0 
     /tmp/cc6qps3I.s:61     .text:000000000000002c .L0 
     /tmp/cc6qps3I.s:65     .text:0000000000000038 .L0 
     /tmp/cc6qps3I.s:66     .text:0000000000000038 .L0 
     /tmp/cc6qps3I.s:67     .text:0000000000000038 .L0 
     /tmp/cc6qps3I.s:69     .text:000000000000003c .L0 
     /tmp/cc6qps3I.s:71     .text:000000000000003c .L0 
     /tmp/cc6qps3I.s:72     .text:000000000000003c .L0 
        src/trap.cpp:18     .text:000000000000003c .L0 
     /tmp/cc6qps3I.s:79     .text:0000000000000040 .L0 
     /tmp/cc6qps3I.s:81     .text:0000000000000040 .L0 
     /tmp/cc6qps3I.s:84     .text:0000000000000044 .L0 
     /tmp/cc6qps3I.s:94     .text:000000000000005c .L0 
     /tmp/cc6qps3I.s:99     .text:0000000000000060 .L0 
     /tmp/cc6qps3I.s:100    .text:0000000000000060 .L0 
     /tmp/cc6qps3I.s:105    .text:0000000000000064 .L0 
     /tmp/cc6qps3I.s:110    .text:0000000000000068 .L0 
     /tmp/cc6qps3I.s:111    .text:0000000000000068 .L0 
        src/trap.cpp:28     .text:0000000000000068 .L0 
     /tmp/cc6qps3I.s:117    .text:000000000000006c .L0 
     /tmp/cc6qps3I.s:119    .text:000000000000006c .L0 
     /tmp/cc6qps3I.s:122    .text:0000000000000074 .L0 
        src/trap.cpp:31     .text:0000000000000074 .L0 
     /tmp/cc6qps3I.s:129    .text:0000000000000078 .L0 
     /tmp/cc6qps3I.s:130    .text:000000000000007c .L0 
     /tmp/cc6qps3I.s:131    .text:000000000000007c .L0 
     /tmp/cc6qps3I.s:133    .text:0000000000000080 .L0 
     /tmp/cc6qps3I.s:134    .text:0000000000000080 .L0 
     /tmp/cc6qps3I.s:136    .text:0000000000000084 .L0 
     /tmp/cc6qps3I.s:139    .text:0000000000000088 .L0 
     /tmp/cc6qps3I.s:143    .text:000000000000008c .L0 
     /tmp/cc6qps3I.s:147    .text:000000000000008c .L0 
     /tmp/cc6qps3I.s:148    .text:000000000000008c .L0 
     /tmp/cc6qps3I.s:153    .text:000000000000009c .L0 
     /tmp/cc6qps3I.s:154    .text:000000000000009c .L0 
     /tmp/cc6qps3I.s:158    .text:00000000000000ac .L0 
     /tmp/cc6qps3I.s:159    .text:00000000000000ac .L0 
     /tmp/cc6qps3I.s:163    .text:00000000000000bc .L0 
GAS LISTING /tmp/cc6qps3I.s 			page 35


     /tmp/cc6qps3I.s:164    .text:00000000000000bc .L0 
     /tmp/cc6qps3I.s:168    .text:00000000000000c8 .L0 
     /tmp/cc6qps3I.s:169    .text:00000000000000c8 .L0 
     /tmp/cc6qps3I.s:173    .text:00000000000000d8 .L0 
     /tmp/cc6qps3I.s:174    .text:00000000000000d8 .L0 
     /tmp/cc6qps3I.s:177    .text:00000000000000e0 .L0 
     /tmp/cc6qps3I.s:178    .text:00000000000000e0 .L0 
     /tmp/cc6qps3I.s:186    .text:00000000000000e8 .L0 
     /tmp/cc6qps3I.s:187    .text:00000000000000e8 .L0 
     /tmp/cc6qps3I.s:191    .text:00000000000000f8 .L0 
     /tmp/cc6qps3I.s:192    .text:00000000000000f8 .L0 
     /tmp/cc6qps3I.s:196    .text:0000000000000108 .L0 
     /tmp/cc6qps3I.s:197    .text:0000000000000108 .L0 
     /tmp/cc6qps3I.s:201    .text:0000000000000118 .L0 
     /tmp/cc6qps3I.s:202    .text:0000000000000118 .L0 
     /tmp/cc6qps3I.s:206    .text:0000000000000124 .L0 
     /tmp/cc6qps3I.s:207    .text:0000000000000124 .L0 
     /tmp/cc6qps3I.s:211    .text:0000000000000134 .L0 
     /tmp/cc6qps3I.s:212    .text:0000000000000134 .L0 
     /tmp/cc6qps3I.s:215    .text:000000000000013c .L0 
     /tmp/cc6qps3I.s:216    .text:000000000000013c .L0 
     /tmp/cc6qps3I.s:220    .text:0000000000000144 .L0 
     /tmp/cc6qps3I.s:226    .text:0000000000000144 _Z22cTimerInterruptRoutinev
     /tmp/cc6qps3I.s:229    .text:0000000000000144 .L0 
     /tmp/cc6qps3I.s:230    .text:0000000000000144 .L0 
     /tmp/cc6qps3I.s:231    .text:0000000000000148 .L0 
     /tmp/cc6qps3I.s:235    .text:0000000000000154 .L0 
     /tmp/cc6qps3I.s:236    .text:0000000000000154 .L0 
     /tmp/cc6qps3I.s:237    .text:0000000000000154 .L0 
     /tmp/cc6qps3I.s:239    .text:0000000000000158 .L0 
     /tmp/cc6qps3I.s:241    .text:0000000000000158 .L0 
     /tmp/cc6qps3I.s:242    .text:0000000000000158 .L0 
        src/trap.cpp:40     .text:0000000000000158 .L0 
     /tmp/cc6qps3I.s:249    .text:000000000000015c .L0 
     /tmp/cc6qps3I.s:250    .text:000000000000015c .L0 
        src/trap.cpp:44     .text:000000000000015c .L0 
     /tmp/cc6qps3I.s:256    .text:0000000000000160 .L0 
     /tmp/cc6qps3I.s:265    .text:0000000000000178 .L0 
     /tmp/cc6qps3I.s:271    .text:0000000000000180 .L0 
     /tmp/cc6qps3I.s:272    .text:0000000000000180 .L0 
     /tmp/cc6qps3I.s:275    .text:0000000000000188 .L0 
     /tmp/cc6qps3I.s:281    .text:0000000000000190 .L0 
     /tmp/cc6qps3I.s:282    .text:0000000000000190 .L0 
     /tmp/cc6qps3I.s:283    .text:0000000000000190 .L0 
     /tmp/cc6qps3I.s:284    .text:0000000000000190 .L0 
     /tmp/cc6qps3I.s:288    .text:00000000000001a0 .L0 
     /tmp/cc6qps3I.s:289    .text:00000000000001a0 .L0 
     /tmp/cc6qps3I.s:293    .text:00000000000001b0 .L0 
     /tmp/cc6qps3I.s:294    .text:00000000000001b0 .L0 
     /tmp/cc6qps3I.s:298    .text:00000000000001c0 .L0 
     /tmp/cc6qps3I.s:299    .text:00000000000001c0 .L0 
     /tmp/cc6qps3I.s:303    .text:00000000000001cc .L0 
     /tmp/cc6qps3I.s:304    .text:00000000000001cc .L0 
     /tmp/cc6qps3I.s:308    .text:00000000000001dc .L0 
     /tmp/cc6qps3I.s:309    .text:00000000000001dc .L0 
     /tmp/cc6qps3I.s:312    .text:00000000000001e4 .L0 
     /tmp/cc6qps3I.s:313    .text:00000000000001e4 .L0 
GAS LISTING /tmp/cc6qps3I.s 			page 36


     /tmp/cc6qps3I.s:321    .text:00000000000001ec .L0 
     /tmp/cc6qps3I.s:322    .text:00000000000001ec .L0 
     /tmp/cc6qps3I.s:327    .text:00000000000001fc .L0 
     /tmp/cc6qps3I.s:328    .text:00000000000001fc .L0 
     /tmp/cc6qps3I.s:332    .text:000000000000020c .L0 
     /tmp/cc6qps3I.s:333    .text:000000000000020c .L0 
     /tmp/cc6qps3I.s:337    .text:000000000000021c .L0 
     /tmp/cc6qps3I.s:338    .text:000000000000021c .L0 
     /tmp/cc6qps3I.s:342    .text:0000000000000228 .L0 
     /tmp/cc6qps3I.s:343    .text:0000000000000228 .L0 
     /tmp/cc6qps3I.s:347    .text:0000000000000238 .L0 
     /tmp/cc6qps3I.s:348    .text:0000000000000238 .L0 
     /tmp/cc6qps3I.s:351    .text:0000000000000240 .L0 
     /tmp/cc6qps3I.s:352    .text:0000000000000240 .L0 
     /tmp/cc6qps3I.s:358    .text:0000000000000248 .L0 
        src/trap.cpp:50     .text:0000000000000248 .L0 
     /tmp/cc6qps3I.s:366    .text:000000000000024c .L0 
        src/trap.cpp:66     .text:000000000000024c .L0 
     /tmp/cc6qps3I.s:373    .text:0000000000000250 .L0 
     /tmp/cc6qps3I.s:374    .text:0000000000000254 .L0 
     /tmp/cc6qps3I.s:375    .text:0000000000000254 .L0 
     /tmp/cc6qps3I.s:377    .text:0000000000000258 .L0 
     /tmp/cc6qps3I.s:378    .text:0000000000000258 .L0 
     /tmp/cc6qps3I.s:380    .text:000000000000025c .L0 
     /tmp/cc6qps3I.s:383    .text:0000000000000260 .L0 
     /tmp/cc6qps3I.s:387    .text:0000000000000264 .L0 
     /tmp/cc6qps3I.s:389    .text:0000000000000264 .L0 
     /tmp/cc6qps3I.s:390    .text:0000000000000264 .L0 
     /tmp/cc6qps3I.s:393    .text:0000000000000270 .L0 
     /tmp/cc6qps3I.s:419    .text:0000000000000270 _Z25cInternalInterruptRoutinev
     /tmp/cc6qps3I.s:422    .text:0000000000000270 .L0 
     /tmp/cc6qps3I.s:423    .text:0000000000000270 .L0 
     /tmp/cc6qps3I.s:424    .text:0000000000000274 .L0 
     /tmp/cc6qps3I.s:434    .text:0000000000000298 .L0 
     /tmp/cc6qps3I.s:435    .text:0000000000000298 .L0 
     /tmp/cc6qps3I.s:436    .text:0000000000000298 .L0 
     /tmp/cc6qps3I.s:437    .text:0000000000000298 .L0 
     /tmp/cc6qps3I.s:438    .text:0000000000000298 .L0 
     /tmp/cc6qps3I.s:439    .text:0000000000000298 .L0 
     /tmp/cc6qps3I.s:440    .text:0000000000000298 .L0 
     /tmp/cc6qps3I.s:441    .text:0000000000000298 .L0 
     /tmp/cc6qps3I.s:442    .text:0000000000000298 .L0 
     /tmp/cc6qps3I.s:444    .text:000000000000029c .L0 
     /tmp/cc6qps3I.s:446    .text:000000000000029c .L0 
     /tmp/cc6qps3I.s:447    .text:000000000000029c .L0 
        src/trap.cpp:73     .text:000000000000029c .L0 
     /tmp/cc6qps3I.s:454    .text:00000000000002a0 .L0 
     /tmp/cc6qps3I.s:455    .text:00000000000002a0 .L0 
        src/trap.cpp:78     .text:00000000000002a0 .L0 
     /tmp/cc6qps3I.s:460    .text:00000000000002a4 .L0 
     /tmp/cc6qps3I.s:461    .text:00000000000002a4 .L0 
        src/trap.cpp:81     .text:00000000000002a4 .L0 
     /tmp/cc6qps3I.s:467    .text:00000000000002a8 .L0 
        src/trap.cpp:82     .text:00000000000002a8 .L0 
     /tmp/cc6qps3I.s:473    .text:00000000000002ac .L0 
        src/trap.cpp:83     .text:00000000000002ac .L0 
     /tmp/cc6qps3I.s:479    .text:00000000000002b0 .L0 
GAS LISTING /tmp/cc6qps3I.s 			page 37


        src/trap.cpp:84     .text:00000000000002b0 .L0 
     /tmp/cc6qps3I.s:485    .text:00000000000002b4 .L0 
        src/trap.cpp:87     .text:00000000000002b4 .L0 
     /tmp/cc6qps3I.s:491    .text:00000000000002b8 .L0 
     /tmp/cc6qps3I.s:501    .text:00000000000002d4 .L0 
     /tmp/cc6qps3I.s:508    .text:00000000000002e0 .L0 
     /tmp/cc6qps3I.s:509    .text:00000000000002e0 .L0 
        src/trap.cpp:99     .text:00000000000002e0 .L0 
     /tmp/cc6qps3I.s:515    .text:00000000000002e4 .L0 
     /tmp/cc6qps3I.s:517    .text:00000000000002e4 .L0 
     /tmp/cc6qps3I.s:520    .text:00000000000002e8 .L0 
     /tmp/cc6qps3I.s:523    .text:00000000000002f0 .L0 
     /tmp/cc6qps3I.s:524    .text:00000000000002f0 .L0 
     /tmp/cc6qps3I.s:528    .text:00000000000002f8 .L0 
     /tmp/cc6qps3I.s:534    .text:0000000000000300 .L0 
     /tmp/cc6qps3I.s:542    .text:0000000000000308 .L0 
     /tmp/cc6qps3I.s:552    .text:0000000000000310 .L0 
     /tmp/cc6qps3I.s:564    .text:0000000000000318 .L0 
     /tmp/cc6qps3I.s:578    .text:0000000000000320 .L0 
     /tmp/cc6qps3I.s:594    .text:0000000000000328 .L0 
     /tmp/cc6qps3I.s:597    .text:0000000000000330 .L0 
     /tmp/cc6qps3I.s:600    .text:0000000000000338 .L0 
     /tmp/cc6qps3I.s:603    .text:0000000000000340 .L0 
     /tmp/cc6qps3I.s:609    .text:0000000000000348 .L0 
     /tmp/cc6qps3I.s:610    .text:0000000000000348 .L0 
     /tmp/cc6qps3I.s:611    .text:0000000000000348 .L0 
     /tmp/cc6qps3I.s:612    .text:0000000000000348 .L0 
     /tmp/cc6qps3I.s:616    .text:0000000000000358 .L0 
     /tmp/cc6qps3I.s:617    .text:0000000000000358 .L0 
     /tmp/cc6qps3I.s:621    .text:0000000000000368 .L0 
     /tmp/cc6qps3I.s:622    .text:0000000000000368 .L0 
     /tmp/cc6qps3I.s:626    .text:0000000000000378 .L0 
     /tmp/cc6qps3I.s:627    .text:0000000000000378 .L0 
     /tmp/cc6qps3I.s:631    .text:0000000000000384 .L0 
     /tmp/cc6qps3I.s:632    .text:0000000000000384 .L0 
     /tmp/cc6qps3I.s:636    .text:0000000000000394 .L0 
     /tmp/cc6qps3I.s:637    .text:0000000000000394 .L0 
     /tmp/cc6qps3I.s:640    .text:000000000000039c .L0 
     /tmp/cc6qps3I.s:641    .text:000000000000039c .L0 
     /tmp/cc6qps3I.s:656    .text:00000000000003a4 .L0 
     /tmp/cc6qps3I.s:657    .text:00000000000003a4 .L0 
     /tmp/cc6qps3I.s:662    .text:00000000000003b4 .L0 
     /tmp/cc6qps3I.s:663    .text:00000000000003b4 .L0 
     /tmp/cc6qps3I.s:667    .text:00000000000003c4 .L0 
     /tmp/cc6qps3I.s:668    .text:00000000000003c4 .L0 
     /tmp/cc6qps3I.s:672    .text:00000000000003d4 .L0 
     /tmp/cc6qps3I.s:673    .text:00000000000003d4 .L0 
     /tmp/cc6qps3I.s:677    .text:00000000000003e0 .L0 
     /tmp/cc6qps3I.s:678    .text:00000000000003e0 .L0 
     /tmp/cc6qps3I.s:682    .text:00000000000003f0 .L0 
     /tmp/cc6qps3I.s:683    .text:00000000000003f0 .L0 
     /tmp/cc6qps3I.s:686    .text:00000000000003f8 .L0 
     /tmp/cc6qps3I.s:687    .text:00000000000003f8 .L0 
     /tmp/cc6qps3I.s:693    .text:0000000000000400 .L0 
     /tmp/cc6qps3I.s:694    .text:0000000000000400 .L0 
     /tmp/cc6qps3I.s:698    .text:0000000000000410 .L0 
     /tmp/cc6qps3I.s:701    .text:0000000000000418 .L0 
GAS LISTING /tmp/cc6qps3I.s 			page 38


     /tmp/cc6qps3I.s:704    .text:0000000000000420 .L0 
     /tmp/cc6qps3I.s:707    .text:0000000000000428 .L0 
     /tmp/cc6qps3I.s:708    .text:0000000000000428 .L0 
     /tmp/cc6qps3I.s:714    .text:0000000000000438 .L0 
     /tmp/cc6qps3I.s:715    .text:0000000000000438 .L0 
     /tmp/cc6qps3I.s:716    .text:0000000000000438 .L0 
     /tmp/cc6qps3I.s:717    .text:0000000000000438 .L0 
     /tmp/cc6qps3I.s:721    .text:0000000000000448 .L0 
     /tmp/cc6qps3I.s:722    .text:0000000000000448 .L0 
     /tmp/cc6qps3I.s:726    .text:0000000000000458 .L0 
     /tmp/cc6qps3I.s:727    .text:0000000000000458 .L0 
     /tmp/cc6qps3I.s:731    .text:0000000000000468 .L0 
     /tmp/cc6qps3I.s:732    .text:0000000000000468 .L0 
     /tmp/cc6qps3I.s:736    .text:0000000000000474 .L0 
     /tmp/cc6qps3I.s:737    .text:0000000000000474 .L0 
     /tmp/cc6qps3I.s:741    .text:0000000000000484 .L0 
     /tmp/cc6qps3I.s:742    .text:0000000000000484 .L0 
     /tmp/cc6qps3I.s:745    .text:000000000000048c .L0 
     /tmp/cc6qps3I.s:746    .text:000000000000048c .L0 
     /tmp/cc6qps3I.s:752    .text:0000000000000494 .L0 
     /tmp/cc6qps3I.s:753    .text:0000000000000494 .L0 
     /tmp/cc6qps3I.s:759    .text:00000000000004a8 .L0 
     /tmp/cc6qps3I.s:760    .text:00000000000004a8 .L0 
     /tmp/cc6qps3I.s:766    .text:00000000000004bc .L0 
     /tmp/cc6qps3I.s:767    .text:00000000000004bc .L0 
     /tmp/cc6qps3I.s:772    .text:00000000000004cc .L0 
     /tmp/cc6qps3I.s:773    .text:00000000000004cc .L0 
     /tmp/cc6qps3I.s:776    .text:00000000000004d4 .L0 
     /tmp/cc6qps3I.s:777    .text:00000000000004d4 .L0 
     /tmp/cc6qps3I.s:781    .text:00000000000004e4 .L0 
     /tmp/cc6qps3I.s:782    .text:00000000000004e4 .L0 
     /tmp/cc6qps3I.s:787    .text:00000000000004ec .L0 
     /tmp/cc6qps3I.s:788    .text:00000000000004ec .L0 
     /tmp/cc6qps3I.s:789    .text:00000000000004ec .L0 
     /tmp/cc6qps3I.s:790    .text:00000000000004ec .L0 
     /tmp/cc6qps3I.s:794    .text:00000000000004fc .L0 
     /tmp/cc6qps3I.s:795    .text:00000000000004fc .L0 
     /tmp/cc6qps3I.s:799    .text:000000000000050c .L0 
     /tmp/cc6qps3I.s:800    .text:000000000000050c .L0 
     /tmp/cc6qps3I.s:804    .text:000000000000051c .L0 
     /tmp/cc6qps3I.s:805    .text:000000000000051c .L0 
     /tmp/cc6qps3I.s:809    .text:0000000000000528 .L0 
     /tmp/cc6qps3I.s:810    .text:0000000000000528 .L0 
     /tmp/cc6qps3I.s:814    .text:0000000000000538 .L0 
     /tmp/cc6qps3I.s:815    .text:0000000000000538 .L0 
     /tmp/cc6qps3I.s:818    .text:0000000000000540 .L0 
     /tmp/cc6qps3I.s:819    .text:0000000000000540 .L0 
     /tmp/cc6qps3I.s:826    .text:0000000000000548 .L0 
     /tmp/cc6qps3I.s:827    .text:0000000000000548 .L0 
     /tmp/cc6qps3I.s:833    .text:000000000000055c .L0 
     /tmp/cc6qps3I.s:837    .text:0000000000000560 .L0 
     /tmp/cc6qps3I.s:838    .text:0000000000000560 .L0 
     /tmp/cc6qps3I.s:840    .text:0000000000000564 .L0 
     /tmp/cc6qps3I.s:843    .text:000000000000056c .L0 
     /tmp/cc6qps3I.s:846    .text:0000000000000574 .L0 
     /tmp/cc6qps3I.s:849    .text:000000000000057c .L0 
     /tmp/cc6qps3I.s:852    .text:0000000000000584 .L0 
GAS LISTING /tmp/cc6qps3I.s 			page 39


     /tmp/cc6qps3I.s:855    .text:000000000000058c .L0 
     /tmp/cc6qps3I.s:858    .text:0000000000000594 .L0 
     /tmp/cc6qps3I.s:861    .text:000000000000059c .L0 
     /tmp/cc6qps3I.s:864    .text:00000000000005a4 .L0 
     /tmp/cc6qps3I.s:867    .text:00000000000005ac .L0 
     /tmp/cc6qps3I.s:873    .text:00000000000005b4 .L0 
     /tmp/cc6qps3I.s:874    .text:00000000000005b4 .L0 
     /tmp/cc6qps3I.s:880    .text:00000000000005c8 .L0 
     /tmp/cc6qps3I.s:885    .text:00000000000005d0 .L0 
     /tmp/cc6qps3I.s:886    .text:00000000000005d0 .L0 
     /tmp/cc6qps3I.s:890    .text:00000000000005dc .L0 
     /tmp/cc6qps3I.s:895    .text:00000000000005e4 .L0 
     /tmp/cc6qps3I.s:896    .text:00000000000005e4 .L0 
     /tmp/cc6qps3I.s:902    .text:00000000000005f0 .L0 
     /tmp/cc6qps3I.s:903    .text:00000000000005f0 .L0 
     /tmp/cc6qps3I.s:909    .text:0000000000000604 .L0 
     /tmp/cc6qps3I.s:914    .text:000000000000060c .L0 
     /tmp/cc6qps3I.s:915    .text:000000000000060c .L0 
     /tmp/cc6qps3I.s:918    .text:0000000000000614 .L0 
     /tmp/cc6qps3I.s:924    .text:000000000000061c .L0 
     /tmp/cc6qps3I.s:925    .text:000000000000061c .L0 
     /tmp/cc6qps3I.s:932    .text:000000000000062c .L0 
     /tmp/cc6qps3I.s:937    .text:0000000000000630 .L0 
     /tmp/cc6qps3I.s:938    .text:0000000000000630 .L0 
     /tmp/cc6qps3I.s:939    .text:0000000000000630 .L0 
     /tmp/cc6qps3I.s:942    .text:0000000000000638 .L0 
     /tmp/cc6qps3I.s:945    .text:0000000000000640 .L0 
     /tmp/cc6qps3I.s:946    .text:0000000000000640 .L0 
     /tmp/cc6qps3I.s:951    .text:0000000000000650 .L0 
     /tmp/cc6qps3I.s:952    .text:0000000000000650 .L0 
     /tmp/cc6qps3I.s:960    .text:000000000000065c .L0 
     /tmp/cc6qps3I.s:961    .text:000000000000065c .L0 
     /tmp/cc6qps3I.s:966    .text:000000000000066c .L0 
     /tmp/cc6qps3I.s:967    .text:000000000000066c .L0 
     /tmp/cc6qps3I.s:971    .text:000000000000067c .L0 
     /tmp/cc6qps3I.s:972    .text:000000000000067c .L0 
     /tmp/cc6qps3I.s:976    .text:000000000000068c .L0 
     /tmp/cc6qps3I.s:977    .text:000000000000068c .L0 
     /tmp/cc6qps3I.s:981    .text:0000000000000698 .L0 
     /tmp/cc6qps3I.s:982    .text:0000000000000698 .L0 
     /tmp/cc6qps3I.s:986    .text:00000000000006a8 .L0 
     /tmp/cc6qps3I.s:987    .text:00000000000006a8 .L0 
     /tmp/cc6qps3I.s:990    .text:00000000000006b0 .L0 
     /tmp/cc6qps3I.s:991    .text:00000000000006b0 .L0 
     /tmp/cc6qps3I.s:998    .text:00000000000006b8 .L0 
     /tmp/cc6qps3I.s:999    .text:00000000000006b8 .L0 
     /tmp/cc6qps3I.s:1012   .text:00000000000006c8 .L0 
     /tmp/cc6qps3I.s:1019   .text:00000000000006d4 .L0 
     /tmp/cc6qps3I.s:1020   .text:00000000000006d4 .L0 
     /tmp/cc6qps3I.s:1021   .text:00000000000006d4 .L0 
     /tmp/cc6qps3I.s:1022   .text:00000000000006d4 .L0 
     /tmp/cc6qps3I.s:1024   .text:00000000000006d8 .L0 
     /tmp/cc6qps3I.s:1027   .text:00000000000006e0 .L0 
     /tmp/cc6qps3I.s:1030   .text:00000000000006e8 .L0 
     /tmp/cc6qps3I.s:1034   .text:00000000000006ec .L0 
     /tmp/cc6qps3I.s:1036   .text:00000000000006f0 .L0 
     /tmp/cc6qps3I.s:1039   .text:00000000000006f8 .L0 
GAS LISTING /tmp/cc6qps3I.s 			page 40


     /tmp/cc6qps3I.s:1041   .text:00000000000006fc .L0 
     /tmp/cc6qps3I.s:1047   .text:0000000000000704 .L0 
     /tmp/cc6qps3I.s:1048   .text:0000000000000704 .L0 
     /tmp/cc6qps3I.s:1049   .text:0000000000000704 .L0 
     /tmp/cc6qps3I.s:1050   .text:0000000000000704 .L0 
     /tmp/cc6qps3I.s:1054   .text:0000000000000714 .L0 
     /tmp/cc6qps3I.s:1055   .text:0000000000000714 .L0 
     /tmp/cc6qps3I.s:1059   .text:0000000000000724 .L0 
     /tmp/cc6qps3I.s:1060   .text:0000000000000724 .L0 
     /tmp/cc6qps3I.s:1064   .text:0000000000000734 .L0 
     /tmp/cc6qps3I.s:1065   .text:0000000000000734 .L0 
     /tmp/cc6qps3I.s:1069   .text:0000000000000740 .L0 
     /tmp/cc6qps3I.s:1070   .text:0000000000000740 .L0 
     /tmp/cc6qps3I.s:1074   .text:0000000000000750 .L0 
     /tmp/cc6qps3I.s:1075   .text:0000000000000750 .L0 
     /tmp/cc6qps3I.s:1078   .text:0000000000000758 .L0 
     /tmp/cc6qps3I.s:1079   .text:0000000000000758 .L0 
     /tmp/cc6qps3I.s:1085   .text:0000000000000760 .L0 
     /tmp/cc6qps3I.s:1108   .text:0000000000000798 .L0 
     /tmp/cc6qps3I.s:1114   .text:00000000000007a0 .L0 
     /tmp/cc6qps3I.s:1119   .text:00000000000007a4 .L0 
     /tmp/cc6qps3I.s:1120   .text:00000000000007a4 .L0 
     /tmp/cc6qps3I.s:1121   .text:00000000000007a4 .L0 
     /tmp/cc6qps3I.s:1129   .text:00000000000007ac .L0 
        src/trap.cpp:207    .text:00000000000007ac .L0 
     /tmp/cc6qps3I.s:1136   .text:00000000000007b0 .L0 
     /tmp/cc6qps3I.s:1137   .text:00000000000007b4 .L0 
     /tmp/cc6qps3I.s:1138   .text:00000000000007b4 .L0 
     /tmp/cc6qps3I.s:1140   .text:00000000000007b8 .L0 
     /tmp/cc6qps3I.s:1141   .text:00000000000007b8 .L0 
     /tmp/cc6qps3I.s:1143   .text:00000000000007bc .L0 
     /tmp/cc6qps3I.s:1146   .text:00000000000007c0 .L0 
     /tmp/cc6qps3I.s:1148   .text:00000000000007c4 .L0 
     /tmp/cc6qps3I.s:1151   .text:00000000000007c8 .L0 
     /tmp/cc6qps3I.s:1154   .text:00000000000007cc .L0 
     /tmp/cc6qps3I.s:1157   .text:00000000000007d0 .L0 
     /tmp/cc6qps3I.s:1160   .text:00000000000007d4 .L0 
     /tmp/cc6qps3I.s:1163   .text:00000000000007d8 .L0 
     /tmp/cc6qps3I.s:1167   .text:00000000000007dc .L0 
     /tmp/cc6qps3I.s:1171   .text:00000000000007dc .L0 
     /tmp/cc6qps3I.s:1172   .text:00000000000007dc .L0 
     /tmp/cc6qps3I.s:1176   .text:00000000000007ec .L0 
     /tmp/cc6qps3I.s:1177   .text:00000000000007ec .L0 
     /tmp/cc6qps3I.s:1181   .text:00000000000007fc .L0 
     /tmp/cc6qps3I.s:1182   .text:00000000000007fc .L0 
     /tmp/cc6qps3I.s:1186   .text:000000000000080c .L0 
     /tmp/cc6qps3I.s:1187   .text:000000000000080c .L0 
     /tmp/cc6qps3I.s:1191   .text:0000000000000818 .L0 
     /tmp/cc6qps3I.s:1192   .text:0000000000000818 .L0 
     /tmp/cc6qps3I.s:1196   .text:0000000000000828 .L0 
     /tmp/cc6qps3I.s:1197   .text:0000000000000828 .L0 
     /tmp/cc6qps3I.s:1200   .text:0000000000000830 .L0 
     /tmp/cc6qps3I.s:1201   .text:0000000000000830 .L0 
     /tmp/cc6qps3I.s:1205   .text:0000000000000838 .L0 
     /tmp/cc6qps3I.s:1213   .bss:0000000000000000 gTimer
     /tmp/cc6qps3I.s:1223   .text:0000000000000838 .L0 
     /tmp/cc6qps3I.s:87     .text:0000000000000050 .L0 
GAS LISTING /tmp/cc6qps3I.s 			page 41


     /tmp/cc6qps3I.s:41     .rodata.str1.8:0000000000000000 .LC0
     /tmp/cc6qps3I.s:148    .text:000000000000008c .L0 
     /tmp/cc6qps3I.s:44     .rodata.str1.8:0000000000000028 .LC1
     /tmp/cc6qps3I.s:154    .text:000000000000009c .L0 
     /tmp/cc6qps3I.s:47     .rodata.str1.8:0000000000000038 .LC2
     /tmp/cc6qps3I.s:159    .text:00000000000000ac .L0 
     /tmp/cc6qps3I.s:50     .rodata.str1.8:0000000000000048 .LC3
     /tmp/cc6qps3I.s:169    .text:00000000000000c8 .L0 
     /tmp/cc6qps3I.s:187    .text:00000000000000e8 .L0 
     /tmp/cc6qps3I.s:192    .text:00000000000000f8 .L0 
     /tmp/cc6qps3I.s:197    .text:0000000000000108 .L0 
     /tmp/cc6qps3I.s:207    .text:0000000000000124 .L0 
     /tmp/cc6qps3I.s:259    .text:000000000000016c .L0 
     /tmp/cc6qps3I.s:284    .text:0000000000000190 .L0 
     /tmp/cc6qps3I.s:289    .text:00000000000001a0 .L0 
     /tmp/cc6qps3I.s:294    .text:00000000000001b0 .L0 
     /tmp/cc6qps3I.s:304    .text:00000000000001cc .L0 
     /tmp/cc6qps3I.s:322    .text:00000000000001ec .L0 
     /tmp/cc6qps3I.s:328    .text:00000000000001fc .L0 
     /tmp/cc6qps3I.s:333    .text:000000000000020c .L0 
     /tmp/cc6qps3I.s:343    .text:0000000000000228 .L0 
     /tmp/cc6qps3I.s:494    .text:00000000000002c4 .L0 
     /tmp/cc6qps3I.s:612    .text:0000000000000348 .L0 
     /tmp/cc6qps3I.s:617    .text:0000000000000358 .L0 
     /tmp/cc6qps3I.s:622    .text:0000000000000368 .L0 
     /tmp/cc6qps3I.s:632    .text:0000000000000384 .L0 
     /tmp/cc6qps3I.s:657    .text:00000000000003a4 .L0 
     /tmp/cc6qps3I.s:663    .text:00000000000003b4 .L0 
     /tmp/cc6qps3I.s:668    .text:00000000000003c4 .L0 
     /tmp/cc6qps3I.s:678    .text:00000000000003e0 .L0 
     /tmp/cc6qps3I.s:398    .rodata.str1.8:0000000000000068 .LC4
     /tmp/cc6qps3I.s:694    .text:0000000000000400 .L0 
     /tmp/cc6qps3I.s:410    .rodata.str1.8:00000000000000d0 .LC8
     /tmp/cc6qps3I.s:708    .text:0000000000000428 .L0 
     /tmp/cc6qps3I.s:717    .text:0000000000000438 .L0 
     /tmp/cc6qps3I.s:722    .text:0000000000000448 .L0 
     /tmp/cc6qps3I.s:727    .text:0000000000000458 .L0 
     /tmp/cc6qps3I.s:737    .text:0000000000000474 .L0 
     /tmp/cc6qps3I.s:401    .rodata.str1.8:0000000000000088 .LC5
     /tmp/cc6qps3I.s:753    .text:0000000000000494 .L0 
     /tmp/cc6qps3I.s:404    .rodata.str1.8:00000000000000a0 .LC6
     /tmp/cc6qps3I.s:760    .text:00000000000004a8 .L0 
     /tmp/cc6qps3I.s:407    .rodata.str1.8:00000000000000b8 .LC7
     /tmp/cc6qps3I.s:767    .text:00000000000004bc .L0 
     /tmp/cc6qps3I.s:413    .rodata.str1.8:00000000000000f8 .LC9
     /tmp/cc6qps3I.s:777    .text:00000000000004d4 .L0 
     /tmp/cc6qps3I.s:790    .text:00000000000004ec .L0 
     /tmp/cc6qps3I.s:795    .text:00000000000004fc .L0 
     /tmp/cc6qps3I.s:800    .text:000000000000050c .L0 
     /tmp/cc6qps3I.s:810    .text:0000000000000528 .L0 
     /tmp/cc6qps3I.s:927    .text:0000000000000624 .L0 
     /tmp/cc6qps3I.s:961    .text:000000000000065c .L0 
     /tmp/cc6qps3I.s:967    .text:000000000000066c .L0 
     /tmp/cc6qps3I.s:972    .text:000000000000067c .L0 
     /tmp/cc6qps3I.s:982    .text:0000000000000698 .L0 
     /tmp/cc6qps3I.s:1050   .text:0000000000000704 .L0 
     /tmp/cc6qps3I.s:1055   .text:0000000000000714 .L0 
GAS LISTING /tmp/cc6qps3I.s 			page 42


     /tmp/cc6qps3I.s:1060   .text:0000000000000724 .L0 
     /tmp/cc6qps3I.s:1070   .text:0000000000000740 .L0 
     /tmp/cc6qps3I.s:1172   .text:00000000000007dc .L0 
     /tmp/cc6qps3I.s:1177   .text:00000000000007ec .L0 
     /tmp/cc6qps3I.s:1182   .text:00000000000007fc .L0 
     /tmp/cc6qps3I.s:1192   .text:0000000000000818 .L0 
     /tmp/cc6qps3I.s:142    .text:000000000000008c .L7
     /tmp/cc6qps3I.s:180    .text:00000000000000e8 .L8
     /tmp/cc6qps3I.s:315    .text:00000000000001ec .L15
     /tmp/cc6qps3I.s:354    .text:0000000000000248 .L16
     /tmp/cc6qps3I.s:386    .text:0000000000000264 .L17
     /tmp/cc6qps3I.s:364    .text:000000000000024c .L12
     /tmp/cc6qps3I.s:643    .text:00000000000003a4 .L52
     /tmp/cc6qps3I.s:689    .text:0000000000000400 .L53
     /tmp/cc6qps3I.s:821    .text:0000000000000548 .L54
     /tmp/cc6qps3I.s:869    .text:00000000000005b4 .L55
     /tmp/cc6qps3I.s:882    .text:00000000000005d0 .L56
     /tmp/cc6qps3I.s:892    .text:00000000000005e4 .L57
     /tmp/cc6qps3I.s:899    .text:00000000000005f0 .L58
     /tmp/cc6qps3I.s:911    .text:000000000000060c .L59
     /tmp/cc6qps3I.s:920    .text:000000000000061c .L60
     /tmp/cc6qps3I.s:993    .text:00000000000006b8 .L61
     /tmp/cc6qps3I.s:834    .text:0000000000000560 .L26
     /tmp/cc6qps3I.s:748    .text:0000000000000494 .L62
     /tmp/cc6qps3I.s:757    .text:00000000000004a8 .L63
     /tmp/cc6qps3I.s:764    .text:00000000000004bc .L64
     /tmp/cc6qps3I.s:770    .text:00000000000004cc .L22
     /tmp/cc6qps3I.s:1014   .text:00000000000006d0 .L41
     /tmp/cc6qps3I.s:1081   .text:0000000000000760 .L42
     /tmp/cc6qps3I.s:1087   .text:0000000000000768 .L43
     /tmp/cc6qps3I.s:1090   .text:0000000000000770 .L44
     /tmp/cc6qps3I.s:1093   .text:0000000000000778 .L45
     /tmp/cc6qps3I.s:1096   .text:0000000000000780 .L46
     /tmp/cc6qps3I.s:1099   .text:0000000000000788 .L47
     /tmp/cc6qps3I.s:1102   .text:0000000000000790 .L48
     /tmp/cc6qps3I.s:1003   .text:00000000000006c8 .L65
     /tmp/cc6qps3I.s:1016   .text:00000000000006d4 .L35
     /tmp/cc6qps3I.s:956    .text:000000000000065c .L66
     /tmp/cc6qps3I.s:1031   .text:00000000000006ec .L36
     /tmp/cc6qps3I.s:1106   .text:0000000000000798 .L37
     /tmp/cc6qps3I.s:1127   .text:00000000000007ac .L40
     /tmp/cc6qps3I.s:1166   .text:00000000000007dc .L67
     /tmp/cc6qps3I.s:3295   .debug_abbrev:0000000000000000 .Ldebug_abbrev0
     /tmp/cc6qps3I.s:5145   .debug_str:00000000000006c0 .LASF125
     /tmp/cc6qps3I.s:4993   .debug_str:00000000000002a1 .LASF126
     /tmp/cc6qps3I.s:5103   .debug_str:0000000000000583 .LASF127
     /tmp/cc6qps3I.s:5      .text:0000000000000000 .Ltext0
     /tmp/cc6qps3I.s:1216   .text:0000000000000838 .Letext0
     /tmp/cc6qps3I.s:4913   .debug_line:0000000000000000 .Ldebug_line0
     /tmp/cc6qps3I.s:5059   .debug_str:0000000000000459 .LASF0
     /tmp/cc6qps3I.s:5079   .debug_str:00000000000004e3 .LASF1
     /tmp/cc6qps3I.s:5041   .debug_str:00000000000003d3 .LASF2
     /tmp/cc6qps3I.s:5013   .debug_str:0000000000000322 .LASF4
     /tmp/cc6qps3I.s:5123   .debug_str:0000000000000614 .LASF3
     /tmp/cc6qps3I.s:4947   .debug_str:0000000000000116 .LASF5
     /tmp/cc6qps3I.s:5081   .debug_str:00000000000004f6 .LASF6
     /tmp/cc6qps3I.s:5057   .debug_str:0000000000000446 .LASF7
GAS LISTING /tmp/cc6qps3I.s 			page 43


     /tmp/cc6qps3I.s:5153   .debug_str:00000000000007ab .LASF8
     /tmp/cc6qps3I.s:4997   .debug_str:00000000000002c1 .LASF9
     /tmp/cc6qps3I.s:5097   .debug_str:0000000000000544 .LASF10
     /tmp/cc6qps3I.s:5147   .debug_str:0000000000000784 .LASF11
     /tmp/cc6qps3I.s:4949   .debug_str:000000000000011d .LASF12
     /tmp/cc6qps3I.s:4927   .debug_str:0000000000000087 .LASF13
     /tmp/cc6qps3I.s:4961   .debug_str:00000000000001a5 .LASF14
     /tmp/cc6qps3I.s:5117   .debug_str:00000000000005ee .LASF15
     /tmp/cc6qps3I.s:4971   .debug_str:00000000000001e2 .LASF16
     /tmp/cc6qps3I.s:5149   .debug_str:0000000000000793 .LASF46
     /tmp/cc6qps3I.s:5001   .debug_str:00000000000002d5 .LASF128
     /tmp/cc6qps3I.s:5089   .debug_str:0000000000000520 .LASF17
     /tmp/cc6qps3I.s:5051   .debug_str:0000000000000401 .LASF18
     /tmp/cc6qps3I.s:5095   .debug_str:000000000000053e .LASF19
     /tmp/cc6qps3I.s:5049   .debug_str:00000000000003f4 .LASF20
     /tmp/cc6qps3I.s:5031   .debug_str:000000000000038c .LASF21
     /tmp/cc6qps3I.s:5087   .debug_str:0000000000000514 .LASF22
     /tmp/cc6qps3I.s:5075   .debug_str:00000000000004bd .LASF23
     /tmp/cc6qps3I.s:5141   .debug_str:00000000000006a9 .LASF24
     /tmp/cc6qps3I.s:5125   .debug_str:0000000000000626 .LASF25
     /tmp/cc6qps3I.s:5011   .debug_str:0000000000000316 .LASF26
     /tmp/cc6qps3I.s:4985   .debug_str:000000000000025f .LASF27
     /tmp/cc6qps3I.s:4917   .debug_str:0000000000000006 .LASF28
     /tmp/cc6qps3I.s:5143   .debug_str:00000000000006b4 .LASF29
     /tmp/cc6qps3I.s:4975   .debug_str:0000000000000205 .LASF31
     /tmp/cc6qps3I.s:5093   .debug_str:0000000000000532 .LASF33
     /tmp/cc6qps3I.s:5111   .debug_str:00000000000005bb .LASF35
     /tmp/cc6qps3I.s:5023   .debug_str:0000000000000349 .LASF45
     /tmp/cc6qps3I.s:4923   .debug_str:0000000000000041 .LASF47
     /tmp/cc6qps3I.s:5109   .debug_str:00000000000005b6 .LASF129
     /tmp/cc6qps3I.s:5033   .debug_str:0000000000000398 .LASF30
     /tmp/cc6qps3I.s:4945   .debug_str:0000000000000104 .LASF32
     /tmp/cc6qps3I.s:5179   .debug_str:0000000000000877 .LASF58
     /tmp/cc6qps3I.s:5061   .debug_str:0000000000000466 .LASF60
     /tmp/cc6qps3I.s:5127   .debug_str:0000000000000637 .LASF34
     /tmp/cc6qps3I.s:4935   .debug_str:00000000000000be .LASF36
     /tmp/cc6qps3I.s:4939   .debug_str:00000000000000ec .LASF37
     /tmp/cc6qps3I.s:5017   .debug_str:0000000000000334 .LASF38
     /tmp/cc6qps3I.s:5071   .debug_str:00000000000004ae .LASF39
     /tmp/cc6qps3I.s:5177   .debug_str:000000000000086b .LASF40
     /tmp/cc6qps3I.s:5073   .debug_str:00000000000004b3 .LASF41
     /tmp/cc6qps3I.s:4999   .debug_str:00000000000002cf .LASF42
     /tmp/cc6qps3I.s:5159   .debug_str:00000000000007d0 .LASF43
     /tmp/cc6qps3I.s:5047   .debug_str:00000000000003ef .LASF44
     /tmp/cc6qps3I.s:5101   .debug_str:000000000000056c .LASF48
     /tmp/cc6qps3I.s:5113   .debug_str:00000000000005d7 .LASF49
     /tmp/cc6qps3I.s:5085   .debug_str:000000000000050f .LASF50
     /tmp/cc6qps3I.s:5025   .debug_str:0000000000000356 .LASF51
     /tmp/cc6qps3I.s:4929   .debug_str:0000000000000097 .LASF79
     /tmp/cc6qps3I.s:4989   .debug_str:0000000000000273 .LASF81
     /tmp/cc6qps3I.s:4979   .debug_str:000000000000022f .LASF52
     /tmp/cc6qps3I.s:5137   .debug_str:000000000000068b .LASF53
     /tmp/cc6qps3I.s:5129   .debug_str:000000000000063c .LASF54
     /tmp/cc6qps3I.s:5065   .debug_str:0000000000000498 .LASF55
     /tmp/cc6qps3I.s:4987   .debug_str:000000000000026e .LASF56
     /tmp/cc6qps3I.s:5091   .debug_str:0000000000000528 .LASF57
     /tmp/cc6qps3I.s:5007   .debug_str:00000000000002f8 .LASF68
GAS LISTING /tmp/cc6qps3I.s 			page 44


     /tmp/cc6qps3I.s:5105   .debug_str:0000000000000597 .LASF59
     /tmp/cc6qps3I.s:5055   .debug_str:0000000000000426 .LASF61
     /tmp/cc6qps3I.s:5019   .debug_str:0000000000000339 .LASF62
     /tmp/cc6qps3I.s:4959   .debug_str:000000000000018d .LASF63
     /tmp/cc6qps3I.s:5053   .debug_str:000000000000040b .LASF130
     /tmp/cc6qps3I.s:4943   .debug_str:00000000000000f9 .LASF64
     /tmp/cc6qps3I.s:5135   .debug_str:000000000000066f .LASF65
     /tmp/cc6qps3I.s:5083   .debug_str:0000000000000509 .LASF66
     /tmp/cc6qps3I.s:5039   .debug_str:00000000000003c1 .LASF73
     /tmp/cc6qps3I.s:5045   .debug_str:00000000000003e6 .LASF67
     /tmp/cc6qps3I.s:4995   .debug_str:00000000000002ae .LASF69
     /tmp/cc6qps3I.s:5133   .debug_str:0000000000000666 .LASF72
     /tmp/cc6qps3I.s:5139   .debug_str:00000000000006a4 .LASF70
     /tmp/cc6qps3I.s:5167   .debug_str:00000000000007f9 .LASF71
     /tmp/cc6qps3I.s:4921   .debug_str:0000000000000024 .LASF74
     /tmp/cc6qps3I.s:5165   .debug_str:00000000000007ef .LASF75
     /tmp/cc6qps3I.s:5009   .debug_str:000000000000030c .LASF76
     /tmp/cc6qps3I.s:5037   .debug_str:00000000000003a3 .LASF77
     /tmp/cc6qps3I.s:5155   .debug_str:00000000000007bb .LASF78
     /tmp/cc6qps3I.s:5163   .debug_str:00000000000007e6 .LASF80
     /tmp/cc6qps3I.s:4957   .debug_str:0000000000000175 .LASF82
     /tmp/cc6qps3I.s:5021   .debug_str:0000000000000341 .LASF83
     /tmp/cc6qps3I.s:5005   .debug_str:00000000000002e0 .LASF84
     /tmp/cc6qps3I.s:5151   .debug_str:000000000000079a .LASF85
     /tmp/cc6qps3I.s:4925   .debug_str:0000000000000066 .LASF86
     /tmp/cc6qps3I.s:5171   .debug_str:000000000000081d .LASF87
     /tmp/cc6qps3I.s:5173   .debug_str:0000000000000830 .LASF88
     /tmp/cc6qps3I.s:5029   .debug_str:000000000000037e .LASF89
     /tmp/cc6qps3I.s:5077   .debug_str:00000000000004d2 .LASF90
     /tmp/cc6qps3I.s:5003   .debug_str:00000000000002db .LASF91
     /tmp/cc6qps3I.s:4941   .debug_str:00000000000000f2 .LASF92
     /tmp/cc6qps3I.s:4953   .debug_str:000000000000014b .LASF93
     /tmp/cc6qps3I.s:5169   .debug_str:00000000000007fe .LASF94
     /tmp/cc6qps3I.s:420    .text:0000000000000270 .LFB21
     /tmp/cc6qps3I.s:1206   .text:0000000000000838 .LFE21
     /tmp/cc6qps3I.s:4931   .debug_str:00000000000000a2 .LASF95
     /tmp/cc6qps3I.s:4204   .debug_loc:0000000000000000 .LLST17
     /tmp/cc6qps3I.s:5035   .debug_str:000000000000039d .LASF96
     /tmp/cc6qps3I.s:4215   .debug_loc:0000000000000036 .LLST18
     /tmp/cc6qps3I.s:5069   .debug_str:00000000000004a9 .LASF97
     /tmp/cc6qps3I.s:4238   .debug_loc:00000000000000a5 .LLST19
     /tmp/cc6qps3I.s:4963   .debug_str:00000000000001b1 .LASF98
     /tmp/cc6qps3I.s:4249   .debug_loc:00000000000000db .LLST20
     /tmp/cc6qps3I.s:4965   .debug_str:00000000000001bc .LASF99
     /tmp/cc6qps3I.s:4260   .debug_loc:0000000000000111 .LLST21
     /tmp/cc6qps3I.s:4967   .debug_str:00000000000001c7 .LASF100
     /tmp/cc6qps3I.s:4271   .debug_loc:0000000000000147 .LLST22
     /tmp/cc6qps3I.s:4991   .debug_str:000000000000028c .LASF101
     /tmp/cc6qps3I.s:4282   .debug_loc:000000000000017d .LLST23
     /tmp/cc6qps3I.s:4933   .debug_str:00000000000000a9 .LASF102
     /tmp/cc6qps3I.s:4293   .debug_loc:00000000000001b3 .LLST24
     /tmp/cc6qps3I.s:5175   .debug_str:0000000000000853 .LASF103
     /tmp/cc6qps3I.s:4320   .debug_loc:0000000000000208 .LLST25
     /tmp/cc6qps3I.s:4981   .debug_str:000000000000023a .LASF104
     /tmp/cc6qps3I.s:4347   .debug_loc:000000000000025d .LLST26
     /tmp/cc6qps3I.s:922    .text:000000000000061c .LBB64
     /tmp/cc6qps3I.s:996    .text:00000000000006b8 .LBE64
GAS LISTING /tmp/cc6qps3I.s 			page 45


     /tmp/cc6qps3I.s:4983   .debug_str:0000000000000252 .LASF105
     /tmp/cc6qps3I.s:929    .text:000000000000062c .LBB65
     /tmp/cc6qps3I.s:4875   .debug_ranges:0000000000000000 .Ldebug_ranges0
     /tmp/cc6qps3I.s:4362   .debug_loc:00000000000002a6 .LLST33
     /tmp/cc6qps3I.s:4377   .debug_loc:00000000000002e0 .LLST34
     /tmp/cc6qps3I.s:4392   .debug_loc:0000000000000328 .LLST35
     /tmp/cc6qps3I.s:964    .text:000000000000066c .LVL114
     /tmp/cc6qps3I.s:969    .text:000000000000067c .LVL115
     /tmp/cc6qps3I.s:974    .text:000000000000068c .LVL116
     /tmp/cc6qps3I.s:979    .text:0000000000000698 .LVL117
     /tmp/cc6qps3I.s:984    .text:00000000000006a8 .LVL118
     /tmp/cc6qps3I.s:988    .text:00000000000006b0 .LVL119
     /tmp/cc6qps3I.s:992    .text:00000000000006b8 .LVL120
     /tmp/cc6qps3I.s:926    .text:0000000000000624 .LVL105
     /tmp/cc6qps3I.s:940    .text:0000000000000638 .LVL108
     /tmp/cc6qps3I.s:947    .text:0000000000000648 .LVL109
     /tmp/cc6qps3I.s:949    .text:0000000000000650 .LVL110
     /tmp/cc6qps3I.s:953    .text:0000000000000658 .LVL111
     /tmp/cc6qps3I.s:498    .text:00000000000002d4 .LBB52
     /tmp/cc6qps3I.s:4417   .debug_loc:000000000000036c .LLST27
     /tmp/cc6qps3I.s:4432   .debug_loc:00000000000003a6 .LLST28
     /tmp/cc6qps3I.s:4447   .debug_loc:00000000000003ee .LLST29
     /tmp/cc6qps3I.s:660    .text:00000000000003b4 .LVL68
     /tmp/cc6qps3I.s:665    .text:00000000000003c4 .LVL69
     /tmp/cc6qps3I.s:670    .text:00000000000003d4 .LVL70
     /tmp/cc6qps3I.s:675    .text:00000000000003e0 .LVL71
     /tmp/cc6qps3I.s:680    .text:00000000000003f0 .LVL72
     /tmp/cc6qps3I.s:684    .text:00000000000003f8 .LVL73
     /tmp/cc6qps3I.s:688    .text:0000000000000400 .LVL74
     /tmp/cc6qps3I.s:607    .text:0000000000000348 .LBB62
     /tmp/cc6qps3I.s:645    .text:00000000000003a4 .LBE62
     /tmp/cc6qps3I.s:4466   .debug_loc:000000000000042c .LLST30
     /tmp/cc6qps3I.s:4475   .debug_loc:0000000000000451 .LLST31
     /tmp/cc6qps3I.s:4484   .debug_loc:000000000000047d .LLST32
     /tmp/cc6qps3I.s:614    .text:0000000000000358 .LVL60
     /tmp/cc6qps3I.s:619    .text:0000000000000368 .LVL61
     /tmp/cc6qps3I.s:624    .text:0000000000000378 .LVL62
     /tmp/cc6qps3I.s:629    .text:0000000000000384 .LVL63
     /tmp/cc6qps3I.s:634    .text:0000000000000394 .LVL64
     /tmp/cc6qps3I.s:638    .text:000000000000039c .LVL65
     /tmp/cc6qps3I.s:642    .text:00000000000003a4 .LVL66
     /tmp/cc6qps3I.s:712    .text:0000000000000438 .LBB97
     /tmp/cc6qps3I.s:750    .text:0000000000000494 .LBE97
     /tmp/cc6qps3I.s:4492   .debug_loc:00000000000004a1 .LLST36
     /tmp/cc6qps3I.s:4501   .debug_loc:00000000000004c6 .LLST37
     /tmp/cc6qps3I.s:4510   .debug_loc:00000000000004f2 .LLST38
     /tmp/cc6qps3I.s:719    .text:0000000000000448 .LVL77
     /tmp/cc6qps3I.s:724    .text:0000000000000458 .LVL78
     /tmp/cc6qps3I.s:729    .text:0000000000000468 .LVL79
     /tmp/cc6qps3I.s:734    .text:0000000000000474 .LVL80
     /tmp/cc6qps3I.s:739    .text:0000000000000484 .LVL81
     /tmp/cc6qps3I.s:743    .text:000000000000048c .LVL82
     /tmp/cc6qps3I.s:747    .text:0000000000000494 .LVL83
     /tmp/cc6qps3I.s:785    .text:00000000000004ec .LBB99
     /tmp/cc6qps3I.s:823    .text:0000000000000548 .LBE99
     /tmp/cc6qps3I.s:4518   .debug_loc:0000000000000516 .LLST39
     /tmp/cc6qps3I.s:4527   .debug_loc:000000000000053b .LLST40
GAS LISTING /tmp/cc6qps3I.s 			page 46


     /tmp/cc6qps3I.s:4536   .debug_loc:0000000000000567 .LLST41
     /tmp/cc6qps3I.s:792    .text:00000000000004fc .LVL90
     /tmp/cc6qps3I.s:797    .text:000000000000050c .LVL91
     /tmp/cc6qps3I.s:802    .text:000000000000051c .LVL92
     /tmp/cc6qps3I.s:807    .text:0000000000000528 .LVL93
     /tmp/cc6qps3I.s:812    .text:0000000000000538 .LVL94
     /tmp/cc6qps3I.s:816    .text:0000000000000540 .LVL95
     /tmp/cc6qps3I.s:820    .text:0000000000000548 .LVL96
     /tmp/cc6qps3I.s:1045   .text:0000000000000704 .LBB103
     /tmp/cc6qps3I.s:1083   .text:0000000000000760 .LBE103
     /tmp/cc6qps3I.s:4544   .debug_loc:000000000000058b .LLST42
     /tmp/cc6qps3I.s:4553   .debug_loc:00000000000005b0 .LLST43
     /tmp/cc6qps3I.s:4562   .debug_loc:00000000000005dc .LLST44
     /tmp/cc6qps3I.s:1052   .text:0000000000000714 .LVL125
     /tmp/cc6qps3I.s:1057   .text:0000000000000724 .LVL126
     /tmp/cc6qps3I.s:1062   .text:0000000000000734 .LVL127
     /tmp/cc6qps3I.s:1067   .text:0000000000000740 .LVL128
     /tmp/cc6qps3I.s:1072   .text:0000000000000750 .LVL129
     /tmp/cc6qps3I.s:1076   .text:0000000000000758 .LVL130
     /tmp/cc6qps3I.s:1080   .text:0000000000000760 .LVL131
     /tmp/cc6qps3I.s:1111   .text:00000000000007a0 .LBB105
     /tmp/cc6qps3I.s:4570   .debug_loc:0000000000000600 .LLST45
     /tmp/cc6qps3I.s:4585   .debug_loc:000000000000063a .LLST46
     /tmp/cc6qps3I.s:4600   .debug_loc:0000000000000682 .LLST47
     /tmp/cc6qps3I.s:1174   .text:00000000000007ec .LVL142
     /tmp/cc6qps3I.s:1179   .text:00000000000007fc .LVL143
     /tmp/cc6qps3I.s:1184   .text:000000000000080c .LVL144
     /tmp/cc6qps3I.s:1189   .text:0000000000000818 .LVL145
     /tmp/cc6qps3I.s:1194   .text:0000000000000828 .LVL146
     /tmp/cc6qps3I.s:1198   .text:0000000000000830 .LVL147
     /tmp/cc6qps3I.s:1202   .text:0000000000000838 .LVL148
     /tmp/cc6qps3I.s:492    .text:00000000000002c0 .LVL55
     /tmp/cc6qps3I.s:696    .text:0000000000000410 .LVL75
     /tmp/cc6qps3I.s:710    .text:0000000000000438 .LVL76
     /tmp/cc6qps3I.s:755    .text:00000000000004a4 .LVL84
     /tmp/cc6qps3I.s:762    .text:00000000000004b8 .LVL85
     /tmp/cc6qps3I.s:769    .text:00000000000004cc .LVL86
     /tmp/cc6qps3I.s:774    .text:00000000000004d4 .LVL87
     /tmp/cc6qps3I.s:779    .text:00000000000004e4 .LVL88
     /tmp/cc6qps3I.s:783    .text:00000000000004ec .LVL89
     /tmp/cc6qps3I.s:828    .text:0000000000000550 .LVL97
     /tmp/cc6qps3I.s:831    .text:000000000000055c .LVL98
     /tmp/cc6qps3I.s:875    .text:00000000000005bc .LVL99
     /tmp/cc6qps3I.s:878    .text:00000000000005c8 .LVL100
     /tmp/cc6qps3I.s:888    .text:00000000000005dc .LVL101
     /tmp/cc6qps3I.s:897    .text:00000000000005ec .LVL102
     /tmp/cc6qps3I.s:907    .text:0000000000000604 .LVL103
     /tmp/cc6qps3I.s:916    .text:0000000000000614 .LVL104
     /tmp/cc6qps3I.s:1001   .text:00000000000006c4 .LVL121
     /tmp/cc6qps3I.s:5063   .debug_str:0000000000000481 .LASF106
     /tmp/cc6qps3I.s:4937   .debug_str:00000000000000d0 .LASF107
     /tmp/cc6qps3I.s:227    .text:0000000000000144 .LFB20
     /tmp/cc6qps3I.s:394    .text:0000000000000270 .LFE20
     /tmp/cc6qps3I.s:4619   .debug_loc:00000000000006c0 .LLST9
     /tmp/cc6qps3I.s:4630   .debug_loc:00000000000006f6 .LLST10
     /tmp/cc6qps3I.s:262    .text:0000000000000178 .LBB18
     /tmp/cc6qps3I.s:4641   .debug_loc:000000000000072c .LLST11
GAS LISTING /tmp/cc6qps3I.s 			page 47


     /tmp/cc6qps3I.s:4656   .debug_loc:0000000000000766 .LLST12
     /tmp/cc6qps3I.s:4671   .debug_loc:00000000000007ae .LLST13
     /tmp/cc6qps3I.s:325    .text:00000000000001fc .LVL40
     /tmp/cc6qps3I.s:330    .text:000000000000020c .LVL41
     /tmp/cc6qps3I.s:335    .text:000000000000021c .LVL42
     /tmp/cc6qps3I.s:340    .text:0000000000000228 .LVL43
     /tmp/cc6qps3I.s:345    .text:0000000000000238 .LVL44
     /tmp/cc6qps3I.s:349    .text:0000000000000240 .LVL45
     /tmp/cc6qps3I.s:353    .text:0000000000000248 .LVL46
     /tmp/cc6qps3I.s:279    .text:0000000000000190 .LBB21
     /tmp/cc6qps3I.s:317    .text:00000000000001ec .LBE21
     /tmp/cc6qps3I.s:4696   .debug_loc:00000000000007f2 .LLST14
     /tmp/cc6qps3I.s:4705   .debug_loc:0000000000000817 .LLST15
     /tmp/cc6qps3I.s:4714   .debug_loc:0000000000000843 .LLST16
     /tmp/cc6qps3I.s:286    .text:00000000000001a0 .LVL32
     /tmp/cc6qps3I.s:291    .text:00000000000001b0 .LVL33
     /tmp/cc6qps3I.s:296    .text:00000000000001c0 .LVL34
     /tmp/cc6qps3I.s:301    .text:00000000000001cc .LVL35
     /tmp/cc6qps3I.s:306    .text:00000000000001dc .LVL36
     /tmp/cc6qps3I.s:310    .text:00000000000001e4 .LVL37
     /tmp/cc6qps3I.s:314    .text:00000000000001ec .LVL38
     /tmp/cc6qps3I.s:257    .text:0000000000000168 .LVL28
     /tmp/cc6qps3I.s:391    .text:000000000000026c .LVL49
     /tmp/cc6qps3I.s:5099   .debug_str:0000000000000553 .LASF108
     /tmp/cc6qps3I.s:4951   .debug_str:000000000000012d .LASF109
     /tmp/cc6qps3I.s:57     .text:0000000000000028 .LFB19
     /tmp/cc6qps3I.s:221    .text:0000000000000144 .LFE19
     /tmp/cc6qps3I.s:4722   .debug_loc:0000000000000867 .LLST1
     /tmp/cc6qps3I.s:4729   .debug_loc:000000000000088a .LLST2
     /tmp/cc6qps3I.s:90     .text:000000000000005c .LBB6
     /tmp/cc6qps3I.s:4740   .debug_loc:00000000000008c0 .LLST3
     /tmp/cc6qps3I.s:4753   .debug_loc:00000000000008f8 .LLST4
     /tmp/cc6qps3I.s:4768   .debug_loc:0000000000000940 .LLST5
     /tmp/cc6qps3I.s:151    .text:000000000000009c .LVL13
     /tmp/cc6qps3I.s:156    .text:00000000000000ac .LVL14
     /tmp/cc6qps3I.s:161    .text:00000000000000bc .LVL15
     /tmp/cc6qps3I.s:166    .text:00000000000000c8 .LVL16
     /tmp/cc6qps3I.s:171    .text:00000000000000d8 .LVL17
     /tmp/cc6qps3I.s:175    .text:00000000000000e0 .LVL18
     /tmp/cc6qps3I.s:179    .text:00000000000000e8 .LVL19
     /tmp/cc6qps3I.s:102    .text:0000000000000064 .LBB9
     /tmp/cc6qps3I.s:4793   .debug_loc:0000000000000984 .LLST6
     /tmp/cc6qps3I.s:4806   .debug_loc:00000000000009bc .LLST7
     /tmp/cc6qps3I.s:4821   .debug_loc:0000000000000a04 .LLST8
     /tmp/cc6qps3I.s:189    .text:00000000000000f8 .LVL20
     /tmp/cc6qps3I.s:194    .text:0000000000000108 .LVL21
     /tmp/cc6qps3I.s:199    .text:0000000000000118 .LVL22
     /tmp/cc6qps3I.s:204    .text:0000000000000124 .LVL23
     /tmp/cc6qps3I.s:209    .text:0000000000000134 .LVL24
     /tmp/cc6qps3I.s:213    .text:000000000000013c .LVL25
     /tmp/cc6qps3I.s:217    .text:0000000000000144 .LVL26
     /tmp/cc6qps3I.s:85     .text:000000000000004c .LVL4
     /tmp/cc6qps3I.s:120    .text:0000000000000074 .LVL9
     /tmp/cc6qps3I.s:5161   .debug_str:00000000000007dd .LASF131
     /tmp/cc6qps3I.s:4973   .debug_str:00000000000001f8 .LASF132
     /tmp/cc6qps3I.s:10     .text:0000000000000000 .LFB18
     /tmp/cc6qps3I.s:37     .text:0000000000000028 .LFE18
GAS LISTING /tmp/cc6qps3I.s 			page 48


     /tmp/cc6qps3I.s:4848   .debug_loc:0000000000000a59 .LLST0
     /tmp/cc6qps3I.s:26     .text:0000000000000018 .LVL1
     /tmp/cc6qps3I.s:5115   .debug_str:00000000000005e6 .LASF110
     /tmp/cc6qps3I.s:4969   .debug_str:00000000000001d2 .LASF111
     /tmp/cc6qps3I.s:4915   .debug_str:0000000000000000 .LASF112
     /tmp/cc6qps3I.s:5043   .debug_str:00000000000003e1 .LASF113
     /tmp/cc6qps3I.s:5119   .debug_str:0000000000000604 .LASF114
     /tmp/cc6qps3I.s:4955   .debug_str:0000000000000165 .LASF115
     /tmp/cc6qps3I.s:5157   .debug_str:00000000000007c6 .LASF117
     /tmp/cc6qps3I.s:5015   .debug_str:0000000000000329 .LASF116
     /tmp/cc6qps3I.s:4919   .debug_str:000000000000001d .LASF118
     /tmp/cc6qps3I.s:5131   .debug_str:0000000000000656 .LASF119
     /tmp/cc6qps3I.s:5121   .debug_str:0000000000000609 .LASF120
     /tmp/cc6qps3I.s:5107   .debug_str:00000000000005a6 .LASF121
     /tmp/cc6qps3I.s:5027   .debug_str:0000000000000373 .LASF122
     /tmp/cc6qps3I.s:4977   .debug_str:000000000000021f .LASF123
     /tmp/cc6qps3I.s:5067   .debug_str:00000000000004a1 .LASF124
     /tmp/cc6qps3I.s:452    .text:00000000000002a0 .LVL50
     /tmp/cc6qps3I.s:518    .text:00000000000002e8 .LVL58
     /tmp/cc6qps3I.s:1149   .text:00000000000007c4 .LVL136
     /tmp/cc6qps3I.s:1165   .text:00000000000007dc .LVL141
     /tmp/cc6qps3I.s:465    .text:00000000000002a8 .LVL51
     /tmp/cc6qps3I.s:1144   .text:00000000000007bc .LVL135
     /tmp/cc6qps3I.s:471    .text:00000000000002ac .LVL52
     /tmp/cc6qps3I.s:1152   .text:00000000000007c8 .LVL137
     /tmp/cc6qps3I.s:477    .text:00000000000002b0 .LVL53
     /tmp/cc6qps3I.s:1155   .text:00000000000007cc .LVL138
     /tmp/cc6qps3I.s:483    .text:00000000000002b4 .LVL54
     /tmp/cc6qps3I.s:1158   .text:00000000000007d0 .LVL139
     /tmp/cc6qps3I.s:1017   .text:00000000000006d4 .LVL122
     /tmp/cc6qps3I.s:1105   .text:0000000000000798 .LVL132
     /tmp/cc6qps3I.s:1032   .text:00000000000006ec .LVL123
     /tmp/cc6qps3I.s:1161   .text:00000000000007d4 .LVL140
     /tmp/cc6qps3I.s:928    .text:000000000000062c .LVL106
     /tmp/cc6qps3I.s:934    .text:0000000000000630 .LVL107
     /tmp/cc6qps3I.s:955    .text:000000000000065c .LVL112
     /tmp/cc6qps3I.s:962    .text:0000000000000664 .LVL113
     /tmp/cc6qps3I.s:497    .text:00000000000002d4 .LVL56
     /tmp/cc6qps3I.s:505    .text:00000000000002e0 .LVL57
     /tmp/cc6qps3I.s:658    .text:00000000000003ac .LVL67
     /tmp/cc6qps3I.s:606    .text:0000000000000348 .LVL59
     /tmp/cc6qps3I.s:1044   .text:0000000000000704 .LVL124
     /tmp/cc6qps3I.s:1110   .text:00000000000007a0 .LVL133
     /tmp/cc6qps3I.s:1116   .text:00000000000007a4 .LVL134
     /tmp/cc6qps3I.s:247    .text:000000000000015c .LVL27
     /tmp/cc6qps3I.s:267    .text:0000000000000180 .LVL30
     /tmp/cc6qps3I.s:381    .text:000000000000025c .LVL47
     /tmp/cc6qps3I.s:385    .text:0000000000000264 .LVL48
     /tmp/cc6qps3I.s:261    .text:0000000000000178 .LVL29
     /tmp/cc6qps3I.s:323    .text:00000000000001f4 .LVL39
     /tmp/cc6qps3I.s:278    .text:0000000000000190 .LVL31
     /tmp/cc6qps3I.s:77     .text:0000000000000040 .LVL2
     /tmp/cc6qps3I.s:82     .text:0000000000000044 .LVL3
     /tmp/cc6qps3I.s:137    .text:0000000000000084 .LVL10
     /tmp/cc6qps3I.s:141    .text:000000000000008c .LVL11
     /tmp/cc6qps3I.s:89     .text:000000000000005c .LVL5
     /tmp/cc6qps3I.s:96     .text:0000000000000060 .LVL6
GAS LISTING /tmp/cc6qps3I.s 			page 49


     /tmp/cc6qps3I.s:149    .text:0000000000000094 .LVL12
     /tmp/cc6qps3I.s:101    .text:0000000000000064 .LVL7
     /tmp/cc6qps3I.s:107    .text:0000000000000068 .LVL8
     /tmp/cc6qps3I.s:14     .text:0000000000000000 .LVL0
     /tmp/cc6qps3I.s:1224   .debug_info:0000000000000000 .Ldebug_info0
     /tmp/cc6qps3I.s:98     .text:0000000000000060 .LBE6
     /tmp/cc6qps3I.s:144    .text:000000000000008c .LBB12
     /tmp/cc6qps3I.s:182    .text:00000000000000e8 .LBE12
     /tmp/cc6qps3I.s:109    .text:0000000000000068 .LBE9
     /tmp/cc6qps3I.s:183    .text:00000000000000e8 .LBB13
     /tmp/cc6qps3I.s:219    .text:0000000000000144 .LBE13
     /tmp/cc6qps3I.s:270    .text:0000000000000180 .LBE18
     /tmp/cc6qps3I.s:318    .text:00000000000001ec .LBB23
     /tmp/cc6qps3I.s:356    .text:0000000000000248 .LBE23
     /tmp/cc6qps3I.s:507    .text:00000000000002e0 .LBE52
     /tmp/cc6qps3I.s:653    .text:00000000000003a4 .LBB96
     /tmp/cc6qps3I.s:691    .text:0000000000000400 .LBE96
     /tmp/cc6qps3I.s:936    .text:0000000000000630 .LBE65
     /tmp/cc6qps3I.s:957    .text:000000000000065c .LBB68
     /tmp/cc6qps3I.s:995    .text:00000000000006b8 .LBE68
     /tmp/cc6qps3I.s:1118   .text:00000000000007a4 .LBE105
     /tmp/cc6qps3I.s:1168   .text:00000000000007dc .LBB108
     /tmp/cc6qps3I.s:1204   .text:0000000000000838 .LBE108

UNDEFINED SYMBOLS
_Z3fibm
_ZN6Thread11getPRunningEv
_ZN6Thread10pRunningSpE
console_handler
_Z9putStringPKc
_Z6putInti
_Z10putNewlinev
_Z10stopKernelv
_ZN8MemAlloc3getEv
_ZN8MemAlloc8allocMemEm
_ZN8MemAlloc7freeMemEPv
_ZN6Thread12switchToUserEv
_ZN6Thread12createThreadEPmPFvPvES1_
_ZN6Thread4exitEv
kernelThread
_ZN9Scheduler3putEP6Thread
_ZN9Scheduler14dispatchToNextEv
_ZN6Thread4joinEm
