GAS LISTING /tmp/ccHv7c9N.s 			page 1


   1              		.file	"trap.cpp"
   2              		.option pic
   3              		.option norelax
   4              		.text
   5              	.Ltext0:
   6              		.align	2
   7              		.globl	_Z8testCallm
   9              	_Z8testCallm:
  10              	.LFB18:
  11              		.file 1 "src/trap.cpp"
   1:src/trap.cpp  **** #include "../h/thread.h"
   2:src/trap.cpp  **** #include "../h/scheduler.h"
   3:src/trap.cpp  **** #include "../h/alloc.h"
   4:src/trap.cpp  **** #include "../h/0_console.h"
   5:src/trap.cpp  **** 
   6:src/trap.cpp  **** uint64 gTimer = 0;
   7:src/trap.cpp  **** 
   8:src/trap.cpp  **** uint64 fib(uint64 n);
   9:src/trap.cpp  **** 
  10:src/trap.cpp  **** uint64 testCall(uint64 n)
  11:src/trap.cpp  **** {
  12              		.loc 1 11 1
  13              		.cfi_startproc
  14              	.LVL0:
  15 0000 130101FF 		addi	sp,sp,-16
  16              		.cfi_def_cfa_offset 16
  17 0004 23341100 		sd	ra,8(sp)
  18 0008 23308100 		sd	s0,0(sp)
  19              		.cfi_offset 1, -8
  20              		.cfi_offset 8, -16
  21 000c 13040101 		addi	s0,sp,16
  22              		.cfi_def_cfa 8, 0
  12:src/trap.cpp  ****     return fib(n);
  23              		.loc 1 12 5
  24              		.loc 1 12 15 is_stmt 0
  25 0010 97000000 		call	_Z3fibm@plt
  25      E7800000 
  26              	.LVL1:
  13:src/trap.cpp  **** }
  27              		.loc 1 13 1
  28 0018 83308100 		ld	ra,8(sp)
  29              		.cfi_restore 1
  30 001c 03340100 		ld	s0,0(sp)
  31              		.cfi_restore 8
  32              		.cfi_def_cfa 2, 16
  33 0020 13010101 		addi	sp,sp,16
  34              		.cfi_def_cfa_offset 0
  35 0024 67800000 		jr	ra
  36              		.cfi_endproc
  37              	.LFE18:
  39              		.section	.rodata.str1.8,"aMS",@progbits,1
  40              		.align	3
  41              	.LC0:
  42 0000 3D3D3D3D 		.string	"===================== ASSERT file: "
  42      3D3D3D3D 
  42      3D3D3D3D 
  42      3D3D3D3D 
GAS LISTING /tmp/ccHv7c9N.s 			page 2


  42      3D3D3D3D 
  43 0024 00000000 		.align	3
  44              	.LC1:
  45 0028 7372632F 		.string	"src/trap.cpp"
  45      74726170 
  45      2E637070 
  45      00
  46 0035 000000   		.align	3
  47              	.LC2:
  48 0038 20202020 		.string	"    line: "
  48      6C696E65 
  48      3A2000
  49 0043 00000000 		.align	3
  49      00
  50              	.LC3:
  51 0048 2020203D 		.string	"   ==========================="
  51      3D3D3D3D 
  51      3D3D3D3D 
  51      3D3D3D3D 
  51      3D3D3D3D 
  52              		.text
  53              		.align	2
  54              		.globl	_Z24cConsoleInterruptRoutinev
  56              	_Z24cConsoleInterruptRoutinev:
  57              	.LFB19:
  14:src/trap.cpp  **** 
  15:src/trap.cpp  **** void  cConsoleInterruptRoutine()
  16:src/trap.cpp  **** {
  58              		.loc 1 16 1 is_stmt 1
  59              		.cfi_startproc
  60 0028 130101FF 		addi	sp,sp,-16
  61              		.cfi_def_cfa_offset 16
  62 002c 23341100 		sd	ra,8(sp)
  63 0030 23308100 		sd	s0,0(sp)
  64              		.cfi_offset 1, -8
  65              		.cfi_offset 8, -16
  66 0034 13040101 		addi	s0,sp,16
  67              		.cfi_def_cfa 8, 0
  17:src/trap.cpp  ****     assert(false);
  68              		.loc 1 17 5
  69              	.LVL2:
  70              	.LBB26:
  71              	.LBB27:
  72              		.file 2 "src/../h/../h/my_console.h"
   1:src/../h/../h/my_console.h **** #pragma once
   2:src/../h/../h/my_console.h **** 
   3:src/../h/../h/my_console.h **** #include "../h/risc.h"
   4:src/../h/../h/my_console.h **** 
   5:src/../h/../h/my_console.h **** #include "../lib/hw.h"
   6:src/../h/../h/my_console.h **** 
   7:src/../h/../h/my_console.h **** #define __DEBUG_MODE
   8:src/../h/../h/my_console.h **** 
   9:src/../h/../h/my_console.h **** 
  10:src/../h/../h/my_console.h **** void putString(const char* s);
  11:src/../h/../h/my_console.h **** void putInt(int n);
  12:src/../h/../h/my_console.h **** void putNewline();
  13:src/../h/../h/my_console.h **** void putU64(uint64 n);
GAS LISTING /tmp/ccHv7c9N.s 			page 3


  14:src/../h/../h/my_console.h **** void putBinary(uint64 n);
  15:src/../h/../h/my_console.h **** 
  16:src/../h/../h/my_console.h **** [[noreturn]] void stopKernel();
  17:src/../h/../h/my_console.h **** 
  18:src/../h/../h/my_console.h **** inline void _assert(bool valid, const char* file, int line) // MUST be inline
  19:src/../h/../h/my_console.h **** {
  20:src/../h/../h/my_console.h ****     if(valid)
  73              		.loc 2 20 5
  21:src/../h/../h/my_console.h ****         return;
  22:src/../h/../h/my_console.h **** 
  23:src/../h/../h/my_console.h ****     putString("===================== ASSERT file: ");
  74              		.loc 2 23 5
  75              		.loc 2 23 14 is_stmt 0
  76 0038 17050000 		lla	a0,.LC0
  76      13050500 
  77 0040 97000000 		call	_Z9putStringPKc@plt
  77      E7800000 
  78              	.LVL3:
  24:src/../h/../h/my_console.h ****     putString(file);
  79              		.loc 2 24 5 is_stmt 1
  80              		.loc 2 24 14 is_stmt 0
  81 0048 17050000 		lla	a0,.LC1
  81      13050500 
  82 0050 97000000 		call	_Z9putStringPKc@plt
  82      E7800000 
  83              	.LVL4:
  25:src/../h/../h/my_console.h ****     putString("    line: ");
  84              		.loc 2 25 5 is_stmt 1
  85              		.loc 2 25 14 is_stmt 0
  86 0058 17050000 		lla	a0,.LC2
  86      13050500 
  87 0060 97000000 		call	_Z9putStringPKc@plt
  87      E7800000 
  88              	.LVL5:
  26:src/../h/../h/my_console.h ****     putInt(line);
  89              		.loc 2 26 5 is_stmt 1
  90              		.loc 2 26 11 is_stmt 0
  91 0068 13051001 		li	a0,17
  92 006c 97000000 		call	_Z6putInti@plt
  92      E7800000 
  93              	.LVL6:
  27:src/../h/../h/my_console.h ****     putString("   ===========================");
  94              		.loc 2 27 5 is_stmt 1
  95              		.loc 2 27 14 is_stmt 0
  96 0074 17050000 		lla	a0,.LC3
  96      13050500 
  97 007c 97000000 		call	_Z9putStringPKc@plt
  97      E7800000 
  98              	.LVL7:
  28:src/../h/../h/my_console.h ****     putNewline();
  99              		.loc 2 28 5 is_stmt 1
 100              		.loc 2 28 15 is_stmt 0
 101 0084 97000000 		call	_Z10putNewlinev@plt
 101      E7800000 
 102              	.LVL8:
  29:src/../h/../h/my_console.h **** 
  30:src/../h/../h/my_console.h ****     stopKernel();
GAS LISTING /tmp/ccHv7c9N.s 			page 4


 103              		.loc 2 30 5 is_stmt 1
 104              		.loc 2 30 15 is_stmt 0
 105 008c 97000000 		call	_Z10stopKernelv@plt
 105      E7800000 
 106              	.LVL9:
 107              	.LBE27:
 108              	.LBE26:
 109              		.cfi_endproc
 110              	.LFE19:
 112              		.section	.rodata.str1.8
 113 0067 00       		.align	3
 114              	.LC4:
 115 0068 54696D65 		.string	"Time: "
 115      3A2000
 116 006f 00       		.align	3
 117              	.LC5:
 118 0070 7300     		.string	"s"
 119              		.text
 120              		.align	2
 121              		.globl	_Z22cTimerInterruptRoutinev
 123              	_Z22cTimerInterruptRoutinev:
 124              	.LFB20:
  18:src/trap.cpp  ****     uint64 scause;
  19:src/trap.cpp  ****     __asm__ volatile ("csrr %[name], scause" : [name] "=r"(scause));
  20:src/trap.cpp  **** 
  21:src/trap.cpp  **** //    int isExternal = (scause & (0x1UL << 63)) != 0;
  22:src/trap.cpp  ****     int cause = scause & (~(1UL << 63));
  23:src/trap.cpp  **** 
  24:src/trap.cpp  ****     assert(&(Thread::getPRunning()->sp) == Thread::pRunningSp);
  25:src/trap.cpp  **** 
  26:src/trap.cpp  ****     assert(cause == 9);
  27:src/trap.cpp  **** 
  28:src/trap.cpp  ****     __asm__ volatile ("csrc sip, 0xA"); // clears the 9th bit in register sip. (the bit signifies e
  29:src/trap.cpp  **** 
  30:src/trap.cpp  **** 
  31:src/trap.cpp  ****     Console::get()->consoleHandler();
  32:src/trap.cpp  **** 
  33:src/trap.cpp  **** }
  34:src/trap.cpp  **** 
  35:src/trap.cpp  **** void cTimerInterruptRoutine()
  36:src/trap.cpp  **** {
 125              		.loc 1 36 1 is_stmt 1
 126              		.cfi_startproc
 127 0094 130101FE 		addi	sp,sp,-32
 128              		.cfi_def_cfa_offset 32
 129 0098 233C1100 		sd	ra,24(sp)
 130 009c 23388100 		sd	s0,16(sp)
 131 00a0 23349100 		sd	s1,8(sp)
 132              		.cfi_offset 1, -8
 133              		.cfi_offset 8, -16
 134              		.cfi_offset 9, -24
 135 00a4 13040102 		addi	s0,sp,32
 136              		.cfi_def_cfa 8, 0
  37:src/trap.cpp  ****     __asm__ volatile ("mv x10, x10");
 137              		.loc 1 37 5
 138              		.loc 1 37 37 is_stmt 0
 139              	#APP
GAS LISTING /tmp/ccHv7c9N.s 			page 5


 140              	# 37 "src/trap.cpp" 1
  38              	
  39:src/trap.cpp  ****     uint64 scause;
 141              		mv x10, x10
 142              	# 0 "" 2
 143              		.loc 1 39 5 is_stmt 1
  40:src/trap.cpp  ****     __asm__ volatile ("csrr %[name], scause" : [name] "=r"(scause));
 144              		.loc 1 40 5
 145              		.loc 1 40 68 is_stmt 0
 146              	# 40 "src/trap.cpp" 1
  41              	
 147              		csrr s1, scause
 148              	# 0 "" 2
 149              	.LVL10:
  42:src/trap.cpp  ****     int cause = scause & (~(1UL << 63));
 150              		.loc 1 42 5 is_stmt 1
  43:src/trap.cpp  **** 
  44:src/trap.cpp  ****     __asm__ volatile ("csrc sip, 0xA"); // clears the 9th bit in register sip. (the bit signifies e
 151              		.loc 1 44 5
 152              		.loc 1 44 39 is_stmt 0
 153              	# 44 "src/trap.cpp" 1
  45              	//    __asm__ volatile ("csrc sstatus, 0x02");
  46:src/trap.cpp  **** 
  47:src/trap.cpp  ****     assert(&(Thread::getPRunning()->sp) == Thread::pRunningSp);
 154              		csrc sip, 0xA
 155              	# 0 "" 2
 156              		.loc 1 47 5 is_stmt 1
 157              	#NO_APP
 158 00b4 97000000 		call	_ZN6Thread11getPRunningEv@plt
 158      E7800000 
 159              	.LVL11:
 160 00bc 13058504 		addi	a0,a0,72
 161 00c0 97070000 		la	a5,_ZN6Thread10pRunningSpE
 161      83B70700 
 162 00c8 83B70700 		ld	a5,0(a5)
 163              	.LVL12:
 164              	.LBB37:
 165              	.LBB38:
  20:src/../h/../h/my_console.h ****         return;
 166              		.loc 2 20 5
 167 00cc 6394A706 		bne	a5,a0,.L12
 168 00d0 9B840400 		sext.w	s1,s1
 169              	.LVL13:
  21:src/../h/../h/my_console.h **** 
 170              		.loc 2 21 9
 171              	.LBE38:
 172              	.LBE37:
  48:src/trap.cpp  ****     if(cause == 1)
 173              		.loc 1 48 5
 174 00d4 93071000 		li	a5,1
 175 00d8 638CF40A 		beq	s1,a5,.L13
  49:src/trap.cpp  ****     { // timer
  50:src/trap.cpp  **** //        Thread::timeSliceCounter++;
  51:src/trap.cpp  ****         gTimer++;
  52:src/trap.cpp  **** 
  53:src/trap.cpp  ****         if (gTimer % 10 == 0)
  54:src/trap.cpp  ****         {
GAS LISTING /tmp/ccHv7c9N.s 			page 6


  55:src/trap.cpp  ****             putString("Time: ");
  56:src/trap.cpp  ****             putInt(gTimer / 10);
  57:src/trap.cpp  ****             putString("s");
  58:src/trap.cpp  ****             putNewline();
  59:src/trap.cpp  ****         }
  60:src/trap.cpp  **** 
  61:src/trap.cpp  ****     //        if (Thread::timeSliceCounter >= Thread::pRunning->getTimeSlice())
  62:src/trap.cpp  ****     //        {
  63:src/trap.cpp  ****     //            Thread::timeSliceCounter = 0;
  64:src/trap.cpp  ****     //            Scheduler::dispatchToNext();
  65:src/trap.cpp  ****     //        }
  66:src/trap.cpp  ****     }
  67:src/trap.cpp  ****     else if (cause == 9)
 176              		.loc 1 67 10
 177 00dc 93079000 		li	a5,9
 178 00e0 639CF410 		bne	s1,a5,.L9
  68:src/trap.cpp  ****     { // console
  69:src/trap.cpp  ****         Console::get()->consoleHandler();
 179              		.loc 1 69 9
 180              	.LBB40:
 181              	.LBB41:
 182              		.file 3 "src/../h/0_console.h"
   1:src/../h/0_console.h **** #pragma once
   2:src/../h/0_console.h **** 
   3:src/../h/0_console.h **** #include "../lib/hw.h"
   4:src/../h/0_console.h **** 
   5:src/../h/0_console.h **** #define PUT_BUFFER_SIZE 1000
   6:src/../h/0_console.h **** 
   7:src/../h/0_console.h **** class Console // singleton class
   8:src/../h/0_console.h **** {
   9:src/../h/0_console.h **** public:
  10:src/../h/0_console.h ****     static Console* get()
  11:src/../h/0_console.h ****     {
  12:src/../h/0_console.h ****         static Console instance;
 183              		.loc 3 12 9
 184              		.loc 3 12 24 is_stmt 0
 185 00e4 97070000 		lbu	a5,_ZGVZN7Console3getEvE8instance
 185      83C70700 
 186 00ec 63920702 		bnez	a5,.L10
 187              	.LVL14:
 188              	.LBB42:
 189              	.LBB43:
 190              	.LBB44:
  13:src/../h/0_console.h ****         return &instance;
  14:src/../h/0_console.h ****     }
  15:src/../h/0_console.h **** 
  16:src/../h/0_console.h ****     uint64 putBufferHead, putBufferTail;
  17:src/../h/0_console.h ****     char putBuffer[PUT_BUFFER_SIZE];
  18:src/../h/0_console.h ****     uint64 putBufferItems;
  19:src/../h/0_console.h **** 
  20:src/../h/0_console.h ****     void putc(char c);
  21:src/../h/0_console.h ****     char getc();
  22:src/../h/0_console.h ****     void consoleHandler();
  23:src/../h/0_console.h **** 
  24:src/../h/0_console.h **** private:
  25:src/../h/0_console.h ****     Console()
  26:src/../h/0_console.h ****         : putBufferHead(0), putBufferTail(0), putBufferItems(0)
GAS LISTING /tmp/ccHv7c9N.s 			page 7


 191              		.loc 3 26 63
 192 00f0 97070000 		lla	a5,_ZZN7Console3getEvE8instance
 192      93870700 
 193 00f8 23B00700 		sd	zero,0(a5)
 194 00fc 23B40700 		sd	zero,8(a5)
 195 0100 23BC073E 		sd	zero,1016(a5)
 196              	.LVL15:
 197              	.LBE44:
 198              	.LBE43:
 199              	.LBE42:
  12:src/../h/0_console.h ****         return &instance;
 200              		.loc 3 12 24
 201 0104 93071000 		li	a5,1
 202 0108 17070000 		sb	a5,_ZGVZN7Console3getEvE8instance,a4
 202      2300F700 
 203              	.L10:
  13:src/../h/0_console.h ****         return &instance;
 204              		.loc 3 13 9 is_stmt 1
 205              	.LBE41:
 206              	.LBE40:
 207              		.loc 1 69 39 is_stmt 0
 208 0110 17050000 		lla	a0,_ZZN7Console3getEvE8instance
 208      13050500 
 209 0118 97000000 		call	_ZN7Console14consoleHandlerEv@plt
 209      E7800000 
 210              	.LVL16:
 211              	.L5:
  70:src/trap.cpp  ****     }
  71:src/trap.cpp  ****     else
  72:src/trap.cpp  ****     {
  73:src/trap.cpp  ****         assert(false); // unknown interupt
  74:src/trap.cpp  ****     }
  75:src/trap.cpp  **** }
 212              		.loc 1 75 1
 213 0120 83308101 		ld	ra,24(sp)
 214              		.cfi_remember_state
 215              		.cfi_restore 1
 216 0124 03340101 		ld	s0,16(sp)
 217              		.cfi_restore 8
 218              		.cfi_def_cfa 2, 32
 219 0128 83348100 		ld	s1,8(sp)
 220              		.cfi_restore 9
 221              	.LVL17:
 222 012c 13010102 		addi	sp,sp,32
 223              		.cfi_def_cfa_offset 0
 224 0130 67800000 		jr	ra
 225              	.LVL18:
 226              	.L12:
 227              		.cfi_restore_state
 228              	.LBB45:
 229              	.LBB39:
  23:src/../h/../h/my_console.h ****     putString(file);
 230              		.loc 2 23 5 is_stmt 1
  23:src/../h/../h/my_console.h ****     putString(file);
 231              		.loc 2 23 14 is_stmt 0
 232 0134 17050000 		lla	a0,.LC0
 232      13050500 
GAS LISTING /tmp/ccHv7c9N.s 			page 8


 233              	.LVL19:
 234 013c 97000000 		call	_Z9putStringPKc@plt
 234      E7800000 
 235              	.LVL20:
  24:src/../h/../h/my_console.h ****     putString("    line: ");
 236              		.loc 2 24 5 is_stmt 1
  24:src/../h/../h/my_console.h ****     putString("    line: ");
 237              		.loc 2 24 14 is_stmt 0
 238 0144 17050000 		lla	a0,.LC1
 238      13050500 
 239 014c 97000000 		call	_Z9putStringPKc@plt
 239      E7800000 
 240              	.LVL21:
  25:src/../h/../h/my_console.h ****     putInt(line);
 241              		.loc 2 25 5 is_stmt 1
  25:src/../h/../h/my_console.h ****     putInt(line);
 242              		.loc 2 25 14 is_stmt 0
 243 0154 17050000 		lla	a0,.LC2
 243      13050500 
 244 015c 97000000 		call	_Z9putStringPKc@plt
 244      E7800000 
 245              	.LVL22:
  26:src/../h/../h/my_console.h ****     putString("   ===========================");
 246              		.loc 2 26 5 is_stmt 1
  26:src/../h/../h/my_console.h ****     putString("   ===========================");
 247              		.loc 2 26 11 is_stmt 0
 248 0164 1305F002 		li	a0,47
 249 0168 97000000 		call	_Z6putInti@plt
 249      E7800000 
 250              	.LVL23:
  27:src/../h/../h/my_console.h ****     putNewline();
 251              		.loc 2 27 5 is_stmt 1
  27:src/../h/../h/my_console.h ****     putNewline();
 252              		.loc 2 27 14 is_stmt 0
 253 0170 17050000 		lla	a0,.LC3
 253      13050500 
 254 0178 97000000 		call	_Z9putStringPKc@plt
 254      E7800000 
 255              	.LVL24:
  28:src/../h/../h/my_console.h **** 
 256              		.loc 2 28 5 is_stmt 1
  28:src/../h/../h/my_console.h **** 
 257              		.loc 2 28 15 is_stmt 0
 258 0180 97000000 		call	_Z10putNewlinev@plt
 258      E7800000 
 259              	.LVL25:
 260              		.loc 2 30 5 is_stmt 1
 261              		.loc 2 30 15 is_stmt 0
 262 0188 97000000 		call	_Z10stopKernelv@plt
 262      E7800000 
 263              	.LVL26:
 264              	.L13:
 265              	.LBE39:
 266              	.LBE45:
  51:src/trap.cpp  **** 
 267              		.loc 1 51 9 is_stmt 1
  51:src/trap.cpp  **** 
GAS LISTING /tmp/ccHv7c9N.s 			page 9


 268              		.loc 1 51 15 is_stmt 0
 269 0190 17070000 		lla	a4,.LANCHOR0
 269      13070700 
 270 0198 83370700 		ld	a5,0(a4)
 271 019c 93871700 		addi	a5,a5,1
 272 01a0 2330F700 		sd	a5,0(a4)
  53:src/trap.cpp  ****         {
 273              		.loc 1 53 9 is_stmt 1
  53:src/trap.cpp  ****         {
 274              		.loc 1 53 20 is_stmt 0
 275 01a4 1307A000 		li	a4,10
 276 01a8 B3F7E702 		remu	a5,a5,a4
  53:src/trap.cpp  ****         {
 277              		.loc 1 53 9
 278 01ac E39A07F6 		bnez	a5,.L5
  55:src/trap.cpp  ****             putInt(gTimer / 10);
 279              		.loc 1 55 13 is_stmt 1
  55:src/trap.cpp  ****             putInt(gTimer / 10);
 280              		.loc 1 55 22 is_stmt 0
 281 01b0 17050000 		lla	a0,.LC4
 281      13050500 
 282 01b8 97000000 		call	_Z9putStringPKc@plt
 282      E7800000 
 283              	.LVL27:
  56:src/trap.cpp  ****             putString("s");
 284              		.loc 1 56 13 is_stmt 1
  56:src/trap.cpp  ****             putString("s");
 285              		.loc 1 56 27 is_stmt 0
 286 01c0 17050000 		ld	a0,.LANCHOR0
 286      03350500 
 287 01c8 9307A000 		li	a5,10
 288 01cc 3355F502 		divu	a0,a0,a5
  56:src/trap.cpp  ****             putString("s");
 289              		.loc 1 56 19
 290 01d0 1B050500 		sext.w	a0,a0
 291 01d4 97000000 		call	_Z6putInti@plt
 291      E7800000 
 292              	.LVL28:
  57:src/trap.cpp  ****             putNewline();
 293              		.loc 1 57 13 is_stmt 1
  57:src/trap.cpp  ****             putNewline();
 294              		.loc 1 57 22 is_stmt 0
 295 01dc 17050000 		lla	a0,.LC5
 295      13050500 
 296 01e4 97000000 		call	_Z9putStringPKc@plt
 296      E7800000 
 297              	.LVL29:
  58:src/trap.cpp  ****         }
 298              		.loc 1 58 13 is_stmt 1
  58:src/trap.cpp  ****         }
 299              		.loc 1 58 23 is_stmt 0
 300 01ec 97000000 		call	_Z10putNewlinev@plt
 300      E7800000 
 301              	.LVL30:
 302 01f4 6FF0DFF2 		j	.L5
 303              	.L9:
  73:src/trap.cpp  ****     }
GAS LISTING /tmp/ccHv7c9N.s 			page 10


 304              		.loc 1 73 9 is_stmt 1
 305              	.LVL31:
 306              	.LBB46:
 307              	.LBB47:
  20:src/../h/../h/my_console.h ****         return;
 308              		.loc 2 20 5
  23:src/../h/../h/my_console.h ****     putString(file);
 309              		.loc 2 23 5
  23:src/../h/../h/my_console.h ****     putString(file);
 310              		.loc 2 23 14 is_stmt 0
 311 01f8 17050000 		lla	a0,.LC0
 311      13050500 
 312 0200 97000000 		call	_Z9putStringPKc@plt
 312      E7800000 
 313              	.LVL32:
  24:src/../h/../h/my_console.h ****     putString("    line: ");
 314              		.loc 2 24 5 is_stmt 1
  24:src/../h/../h/my_console.h ****     putString("    line: ");
 315              		.loc 2 24 14 is_stmt 0
 316 0208 17050000 		lla	a0,.LC1
 316      13050500 
 317 0210 97000000 		call	_Z9putStringPKc@plt
 317      E7800000 
 318              	.LVL33:
  25:src/../h/../h/my_console.h ****     putInt(line);
 319              		.loc 2 25 5 is_stmt 1
  25:src/../h/../h/my_console.h ****     putInt(line);
 320              		.loc 2 25 14 is_stmt 0
 321 0218 17050000 		lla	a0,.LC2
 321      13050500 
 322 0220 97000000 		call	_Z9putStringPKc@plt
 322      E7800000 
 323              	.LVL34:
  26:src/../h/../h/my_console.h ****     putString("   ===========================");
 324              		.loc 2 26 5 is_stmt 1
  26:src/../h/../h/my_console.h ****     putString("   ===========================");
 325              		.loc 2 26 11 is_stmt 0
 326 0228 13059004 		li	a0,73
 327 022c 97000000 		call	_Z6putInti@plt
 327      E7800000 
 328              	.LVL35:
  27:src/../h/../h/my_console.h ****     putNewline();
 329              		.loc 2 27 5 is_stmt 1
  27:src/../h/../h/my_console.h ****     putNewline();
 330              		.loc 2 27 14 is_stmt 0
 331 0234 17050000 		lla	a0,.LC3
 331      13050500 
 332 023c 97000000 		call	_Z9putStringPKc@plt
 332      E7800000 
 333              	.LVL36:
  28:src/../h/../h/my_console.h **** 
 334              		.loc 2 28 5 is_stmt 1
  28:src/../h/../h/my_console.h **** 
 335              		.loc 2 28 15 is_stmt 0
 336 0244 97000000 		call	_Z10putNewlinev@plt
 336      E7800000 
 337              	.LVL37:
GAS LISTING /tmp/ccHv7c9N.s 			page 11


 338              		.loc 2 30 5 is_stmt 1
 339              		.loc 2 30 15 is_stmt 0
 340 024c 97000000 		call	_Z10stopKernelv@plt
 340      E7800000 
 341              	.LVL38:
 342              	.LBE47:
 343              	.LBE46:
 344              		.cfi_endproc
 345              	.LFE20:
 347              		.section	.rodata.str1.8
 348 0072 00000000 		.align	3
 348      0000
 349              	.LC6:
 350 0078 3D3D3D20 		.string	"=== EXCEPETION occured: "
 350      45584345 
 350      50455449 
 350      4F4E206F 
 350      63637572 
 351 0091 00000000 		.align	3
 351      000000
 352              	.LC7:
 353 0098 20496C6C 		.string	" Illegal instruction"
 353      6567616C 
 353      20696E73 
 353      74727563 
 353      74696F6E 
 354 00ad 000000   		.align	3
 355              	.LC8:
 356 00b0 556E616C 		.string	"Unallowed read adress"
 356      6C6F7765 
 356      64207265 
 356      61642061 
 356      64726573 
 357 00c6 0000     		.align	3
 358              	.LC9:
 359 00c8 556E616C 		.string	"Unallowed write adress"
 359      6C6F7765 
 359      64207772 
 359      69746520 
 359      61647265 
 360 00df 00       		.align	3
 361              	.LC10:
 362 00e0 554B4E4F 		.string	"UKNOWN EXCEPTION. ??????????????"
 362      574E2045 
 362      58434550 
 362      54494F4E 
 362      2E203F3F 
 363 0101 00000000 		.align	3
 363      000000
 364              	.LC11:
 365 0108 5465726D 		.string	"Terminating kernel"
 365      696E6174 
 365      696E6720 
 365      6B65726E 
 365      656C00
 366              		.text
 367              		.align	2
GAS LISTING /tmp/ccHv7c9N.s 			page 12


 368              		.globl	_Z25cInternalInterruptRoutinev
 370              	_Z25cInternalInterruptRoutinev:
 371              	.LFB21:
  76:src/trap.cpp  **** 
  77:src/trap.cpp  **** 
  78:src/trap.cpp  **** void cInternalInterruptRoutine()
  79:src/trap.cpp  **** {
 372              		.loc 1 79 1 is_stmt 1
 373              		.cfi_startproc
 374 0254 130101FA 		addi	sp,sp,-96
 375              		.cfi_def_cfa_offset 96
 376 0258 233C1104 		sd	ra,88(sp)
 377 025c 23388104 		sd	s0,80(sp)
 378 0260 23349104 		sd	s1,72(sp)
 379 0264 23302105 		sd	s2,64(sp)
 380 0268 233C3103 		sd	s3,56(sp)
 381 026c 23384103 		sd	s4,48(sp)
 382 0270 23345103 		sd	s5,40(sp)
 383 0274 23306103 		sd	s6,32(sp)
 384 0278 233C7101 		sd	s7,24(sp)
 385              		.cfi_offset 1, -8
 386              		.cfi_offset 8, -16
 387              		.cfi_offset 9, -24
 388              		.cfi_offset 18, -32
 389              		.cfi_offset 19, -40
 390              		.cfi_offset 20, -48
 391              		.cfi_offset 21, -56
 392              		.cfi_offset 22, -64
 393              		.cfi_offset 23, -72
 394 027c 13040106 		addi	s0,sp,96
 395              		.cfi_def_cfa 8, 0
  80:src/trap.cpp  ****     uint64 scause;
 396              		.loc 1 80 5
  81:src/trap.cpp  ****     __asm__ volatile ("csrr %[name], scause" : [name] "=r"(scause));
 397              		.loc 1 81 5
 398              		.loc 1 81 68 is_stmt 0
 399              	#APP
 400              	# 81 "src/trap.cpp" 1
  82              	
 401              		csrr s2, scause
 402              	# 0 "" 2
 403              	.LVL39:
  83:src/trap.cpp  **** //    int isExternal = (scause & (0x1UL << 63)) != 0;
  84:src/trap.cpp  ****     int cause = scause & (~(1UL << 63));
 404              		.loc 1 84 5 is_stmt 1
  85:src/trap.cpp  **** 
  86:src/trap.cpp  ****     __asm__ volatile ("csrc sip, 0x2"); // clears the 1st bit in register sip. (the bit signifies i
 405              		.loc 1 86 5
 406              		.loc 1 86 39 is_stmt 0
 407              	# 86 "src/trap.cpp" 1
  87              	
  88:src/trap.cpp  ****     uint64 code, parameter1, parameter2, parameter3;
 408              		csrc sip, 0x2
 409              	# 0 "" 2
 410              		.loc 1 88 5 is_stmt 1
  89:src/trap.cpp  ****     __asm__ volatile ("mv %[name], a0" : [name] "=r"(code));
 411              		.loc 1 89 5
GAS LISTING /tmp/ccHv7c9N.s 			page 13


 412              		.loc 1 89 60 is_stmt 0
 413              	# 89 "src/trap.cpp" 1
  90              	    __asm__ volatile ("mv %[name], a1" : [name] "=r"(parameter1));
 414              		mv s1, a0
 415              	# 0 "" 2
 416              	.LVL40:
 417              		.loc 1 90 5 is_stmt 1
 418              		.loc 1 90 66 is_stmt 0
 419              	# 90 "src/trap.cpp" 1
  91              	    __asm__ volatile ("mv %[name], a2" : [name] "=r"(parameter2));
 420              		mv s4, a1
 421              	# 0 "" 2
 422              	.LVL41:
 423              		.loc 1 91 5 is_stmt 1
 424              		.loc 1 91 66 is_stmt 0
 425              	# 91 "src/trap.cpp" 1
  92              	    __asm__ volatile ("mv %[name], a3" : [name] "=r"(parameter3));
 426              		mv s5, a2
 427              	# 0 "" 2
 428              	.LVL42:
 429              		.loc 1 92 5 is_stmt 1
 430              		.loc 1 92 66 is_stmt 0
 431              	# 92 "src/trap.cpp" 1
  93              	
 432              		mv s6, a3
 433              	# 0 "" 2
 434              	.LVL43:
  94:src/trap.cpp  ****     assert(&(Thread::getPRunning()->sp) == Thread::pRunningSp);
 435              		.loc 1 94 5 is_stmt 1
 436              	#NO_APP
 437 0298 97000000 		call	_ZN6Thread11getPRunningEv@plt
 437      E7800000 
 438              	.LVL44:
 439 02a0 93078504 		addi	a5,a0,72
 440 02a4 17070000 		la	a4,_ZN6Thread10pRunningSpE
 440      03370700 
 441 02ac 03350700 		ld	a0,0(a4)
 442 02b0 3305F540 		sub	a0,a0,a5
 443              	.LVL45:
 444              	.LBB76:
 445              	.LBB77:
  20:src/../h/../h/my_console.h ****         return;
 446              		.loc 2 20 5
 447 02b4 6318050C 		bnez	a0,.L48
 448 02b8 9B090900 		sext.w	s3,s2
 449 02bc 933B1500 		seqz	s7,a0
  21:src/../h/../h/my_console.h **** 
 450              		.loc 2 21 9
 451              	.LVL46:
 452              	.LBE77:
 453              	.LBE76:
  95:src/trap.cpp  **** 
  96:src/trap.cpp  ****     __asm__ volatile ("mv x1, x1");
 454              		.loc 1 96 5
 455              		.loc 1 96 35 is_stmt 0
 456              	#APP
 457              	# 96 "src/trap.cpp" 1
GAS LISTING /tmp/ccHv7c9N.s 			page 14


  97              	
  98:src/trap.cpp  ****     if(cause != 8 && cause != 9)
 458              		mv x1, x1
 459              	# 0 "" 2
 460              		.loc 1 98 5 is_stmt 1
 461              		.loc 1 98 19 is_stmt 0
 462              	#NO_APP
 463 02c4 1B0989FF 		addiw	s2,s2,-8
 464              	.LVL47:
 465              		.loc 1 98 5
 466 02c8 93071000 		li	a5,1
 467 02cc 63EA2711 		bgtu	s2,a5,.L49
  99:src/trap.cpp  ****     {
 100:src/trap.cpp  ****         putString("=== EXCEPETION occured: ");
 101:src/trap.cpp  ****         if(cause == 2)
 102:src/trap.cpp  ****         {
 103:src/trap.cpp  ****             putString(" Illegal instruction");
 104:src/trap.cpp  ****         }
 105:src/trap.cpp  ****         else if (cause == 5)
 106:src/trap.cpp  ****         {
 107:src/trap.cpp  ****             putString("Unallowed read adress");
 108:src/trap.cpp  ****         }
 109:src/trap.cpp  ****         else if (cause == 7)
 110:src/trap.cpp  ****         {
 111:src/trap.cpp  ****             putString("Unallowed write adress");
 112:src/trap.cpp  ****         }
 113:src/trap.cpp  ****         else
 114:src/trap.cpp  ****         {
 115:src/trap.cpp  ****             putString("UKNOWN EXCEPTION. ??????????????");
 116:src/trap.cpp  ****             assert(false);
 117:src/trap.cpp  ****         }
 118:src/trap.cpp  ****         putNewline();
 119:src/trap.cpp  ****         putString("Terminating kernel");
 120:src/trap.cpp  ****         putNewline();
 121:src/trap.cpp  ****         assert(false);
 122:src/trap.cpp  ****     }
 123:src/trap.cpp  **** 
 124:src/trap.cpp  **** 
 125:src/trap.cpp  ****     uint64 ret = -1;
 468              		.loc 1 125 5 is_stmt 1
 469              		.loc 1 125 12 is_stmt 0
 470 02d0 9307F0FF 		li	a5,-1
 471 02d4 2334F4FA 		sd	a5,-88(s0)
 126:src/trap.cpp  ****     if(code == 1)
 472              		.loc 1 126 5 is_stmt 1
 473              	.LBB79:
 474 02d8 93071000 		li	a5,1
 475 02dc 6386F424 		beq	s1,a5,.L50
 476              	.LBE79:
 127:src/trap.cpp  ****     {
 128:src/trap.cpp  ****         ret = (uint64)MemAlloc::get()->allocMem(parameter1);
 129:src/trap.cpp  ****     }
 130:src/trap.cpp  ****     else if (code == 2)
 477              		.loc 1 130 10
 478              	.LBB114:
 479              	.LBB80:
 480 02e0 93072000 		li	a5,2
GAS LISTING /tmp/ccHv7c9N.s 			page 15


 481 02e4 6388F42A 		beq	s1,a5,.L51
 482              	.LBE80:
 483              	.LBE114:
 131:src/trap.cpp  ****     {
 132:src/trap.cpp  ****         *((int*)&ret) = MemAlloc::get()->freeMem((void*)parameter1);
 133:src/trap.cpp  ****     }
 134:src/trap.cpp  **** #ifdef __DEBUG_MODE
 135:src/trap.cpp  ****     else if (code == 3) // Test call
 484              		.loc 1 135 10
 485              	.LBB115:
 486              	.LBB108:
 487              	.LBB81:
 488 02e8 93073000 		li	a5,3
 489 02ec 6382F42C 		beq	s1,a5,.L52
 490              	.LBE81:
 491              	.LBE108:
 492              	.LBE115:
 136:src/trap.cpp  ****     {
 137:src/trap.cpp  ****         ret = (uint64)testCall(parameter1);
 138:src/trap.cpp  ****     }
 139:src/trap.cpp  **** #endif
 140:src/trap.cpp  ****     else if (code == 4)
 493              		.loc 1 140 10
 494              	.LBB116:
 495              	.LBB109:
 496              	.LBB103:
 497              	.LBB82:
 498 02f0 93074000 		li	a5,4
 499 02f4 6388F42C 		beq	s1,a5,.L53
 500              	.LBE82:
 501              	.LBE103:
 502              	.LBE109:
 503              	.LBE116:
 141:src/trap.cpp  ****     {
 142:src/trap.cpp  ****         Thread::switchToUser();
 143:src/trap.cpp  ****     }
 144:src/trap.cpp  ****     else if (code == 17) // 17
 504              		.loc 1 144 10
 505              	.LBB117:
 506              	.LBB110:
 507              	.LBB104:
 508              	.LBB99:
 509              	.LBB83:
 510 02f8 93071001 		li	a5,17
 511 02fc 638AF42C 		beq	s1,a5,.L54
 512              	.LBE83:
 513              	.LBE99:
 514              	.LBE104:
 515              	.LBE110:
 516              	.LBE117:
 145:src/trap.cpp  ****     {
 146:src/trap.cpp  ****         *((int*)&ret) = Thread::createThread((uint64*)parameter1, (Thread::Body)parameter2, (void*)
 147:src/trap.cpp  ****     }
 148:src/trap.cpp  ****     else if (code == 18)
 517              		.loc 1 148 10
 518              	.LBB118:
 519              	.LBB111:
GAS LISTING /tmp/ccHv7c9N.s 			page 16


 520              	.LBB105:
 521              	.LBB100:
 522              	.LBB96:
 523              	.LBB84:
 524 0300 93072001 		li	a5,18
 525 0304 6384F42E 		beq	s1,a5,.L55
 526              	.LBE84:
 527              	.LBE96:
 528              	.LBE100:
 529              	.LBE105:
 530              	.LBE111:
 531              	.LBE118:
 149:src/trap.cpp  ****     {
 150:src/trap.cpp  ****         *((int*)&ret) = Thread::exit();
 151:src/trap.cpp  ****     }
 152:src/trap.cpp  ****     else if (code == 19) // 19, thread_dispatch
 532              		.loc 1 152 10
 533              	.LBB119:
 534              	.LBB112:
 535              	.LBB106:
 536              	.LBB101:
 537              	.LBB97:
 538              	.LBB94:
 539              	.LBB85:
 540 0308 93073001 		li	a5,19
 541 030c 6388F42E 		beq	s1,a5,.L56
 153:src/trap.cpp  ****     {
 154:src/trap.cpp  ****         extern Thread kernelThread;
 155:src/trap.cpp  ****         assert(Thread::getPRunning() != &kernelThread); // you're only supposed to open user thread
 156:src/trap.cpp  **** 
 157:src/trap.cpp  ****         Thread::getPRunning()->state = Thread::READY;
 158:src/trap.cpp  ****         Scheduler::put(Thread::getPRunning());
 159:src/trap.cpp  **** 
 160:src/trap.cpp  ****         Scheduler::dispatchToNext();
 161:src/trap.cpp  ****     }
 162:src/trap.cpp  ****     else if (code == 20)
 542              		.loc 1 162 10
 543 0310 93074001 		li	a5,20
 544 0314 6382F438 		beq	s1,a5,.L57
 163:src/trap.cpp  ****     {
 164:src/trap.cpp  ****         Thread::join((uint64)parameter1);
 165:src/trap.cpp  ****     }
 166:src/trap.cpp  ****     else if (code == 65) // getc
 545              		.loc 1 166 10
 546 0318 93071004 		li	a5,65
 547 031c 6382F422 		beq	s1,a5,.L22
 167:src/trap.cpp  ****     {
 168:src/trap.cpp  **** 
 169:src/trap.cpp  ****     }
 170:src/trap.cpp  ****     else if (code == 66) // putc
 548              		.loc 1 170 10
 549 0320 93072004 		li	a5,66
 550 0324 638EF420 		beq	s1,a5,.L22
 171:src/trap.cpp  ****     {
 172:src/trap.cpp  **** 
 173:src/trap.cpp  ****     }
 174:src/trap.cpp  ****     else
GAS LISTING /tmp/ccHv7c9N.s 			page 17


 175:src/trap.cpp  ****     {
 176:src/trap.cpp  ****         assert(false); // unknown code
 551              		.loc 1 176 9
 552              	.LVL48:
 553              	.LBB86:
 554              	.LBB87:
  20:src/../h/../h/my_console.h ****         return;
 555              		.loc 2 20 5
  23:src/../h/../h/my_console.h ****     putString(file);
 556              		.loc 2 23 5
  23:src/../h/../h/my_console.h ****     putString(file);
 557              		.loc 2 23 14 is_stmt 0
 558 0328 17050000 		lla	a0,.LC0
 558      13050500 
 559 0330 97000000 		call	_Z9putStringPKc@plt
 559      E7800000 
 560              	.LVL49:
  24:src/../h/../h/my_console.h ****     putString("    line: ");
 561              		.loc 2 24 5 is_stmt 1
  24:src/../h/../h/my_console.h ****     putString("    line: ");
 562              		.loc 2 24 14 is_stmt 0
 563 0338 17050000 		lla	a0,.LC1
 563      13050500 
 564 0340 97000000 		call	_Z9putStringPKc@plt
 564      E7800000 
 565              	.LVL50:
  25:src/../h/../h/my_console.h ****     putInt(line);
 566              		.loc 2 25 5 is_stmt 1
  25:src/../h/../h/my_console.h ****     putInt(line);
 567              		.loc 2 25 14 is_stmt 0
 568 0348 17050000 		lla	a0,.LC2
 568      13050500 
 569 0350 97000000 		call	_Z9putStringPKc@plt
 569      E7800000 
 570              	.LVL51:
  26:src/../h/../h/my_console.h ****     putString("   ===========================");
 571              		.loc 2 26 5 is_stmt 1
  26:src/../h/../h/my_console.h ****     putString("   ===========================");
 572              		.loc 2 26 11 is_stmt 0
 573 0358 1305000B 		li	a0,176
 574 035c 97000000 		call	_Z6putInti@plt
 574      E7800000 
 575              	.LVL52:
  27:src/../h/../h/my_console.h ****     putNewline();
 576              		.loc 2 27 5 is_stmt 1
  27:src/../h/../h/my_console.h ****     putNewline();
 577              		.loc 2 27 14 is_stmt 0
 578 0364 17050000 		lla	a0,.LC3
 578      13050500 
 579 036c 97000000 		call	_Z9putStringPKc@plt
 579      E7800000 
 580              	.LVL53:
  28:src/../h/../h/my_console.h **** 
 581              		.loc 2 28 5 is_stmt 1
  28:src/../h/../h/my_console.h **** 
 582              		.loc 2 28 15 is_stmt 0
 583 0374 97000000 		call	_Z10putNewlinev@plt
GAS LISTING /tmp/ccHv7c9N.s 			page 18


 583      E7800000 
 584              	.LVL54:
 585              		.loc 2 30 5 is_stmt 1
 586              		.loc 2 30 15 is_stmt 0
 587 037c 97000000 		call	_Z10stopKernelv@plt
 587      E7800000 
 588              	.LVL55:
 589              	.L48:
 590              	.LBE87:
 591              	.LBE86:
 592              	.LBE85:
 593              	.LBE94:
 594              	.LBE97:
 595              	.LBE101:
 596              	.LBE106:
 597              	.LBE112:
 598              	.LBE119:
 599              	.LBB120:
 600              	.LBB78:
  23:src/../h/../h/my_console.h ****     putString(file);
 601              		.loc 2 23 5 is_stmt 1
  23:src/../h/../h/my_console.h ****     putString(file);
 602              		.loc 2 23 14 is_stmt 0
 603 0384 17050000 		lla	a0,.LC0
 603      13050500 
 604              	.LVL56:
 605 038c 97000000 		call	_Z9putStringPKc@plt
 605      E7800000 
 606              	.LVL57:
  24:src/../h/../h/my_console.h ****     putString("    line: ");
 607              		.loc 2 24 5 is_stmt 1
  24:src/../h/../h/my_console.h ****     putString("    line: ");
 608              		.loc 2 24 14 is_stmt 0
 609 0394 17050000 		lla	a0,.LC1
 609      13050500 
 610 039c 97000000 		call	_Z9putStringPKc@plt
 610      E7800000 
 611              	.LVL58:
  25:src/../h/../h/my_console.h ****     putInt(line);
 612              		.loc 2 25 5 is_stmt 1
  25:src/../h/../h/my_console.h ****     putInt(line);
 613              		.loc 2 25 14 is_stmt 0
 614 03a4 17050000 		lla	a0,.LC2
 614      13050500 
 615 03ac 97000000 		call	_Z9putStringPKc@plt
 615      E7800000 
 616              	.LVL59:
  26:src/../h/../h/my_console.h ****     putString("   ===========================");
 617              		.loc 2 26 5 is_stmt 1
  26:src/../h/../h/my_console.h ****     putString("   ===========================");
 618              		.loc 2 26 11 is_stmt 0
 619 03b4 1305E005 		li	a0,94
 620 03b8 97000000 		call	_Z6putInti@plt
 620      E7800000 
 621              	.LVL60:
  27:src/../h/../h/my_console.h ****     putNewline();
 622              		.loc 2 27 5 is_stmt 1
GAS LISTING /tmp/ccHv7c9N.s 			page 19


  27:src/../h/../h/my_console.h ****     putNewline();
 623              		.loc 2 27 14 is_stmt 0
 624 03c0 17050000 		lla	a0,.LC3
 624      13050500 
 625 03c8 97000000 		call	_Z9putStringPKc@plt
 625      E7800000 
 626              	.LVL61:
  28:src/../h/../h/my_console.h **** 
 627              		.loc 2 28 5 is_stmt 1
  28:src/../h/../h/my_console.h **** 
 628              		.loc 2 28 15 is_stmt 0
 629 03d0 97000000 		call	_Z10putNewlinev@plt
 629      E7800000 
 630              	.LVL62:
 631              		.loc 2 30 5 is_stmt 1
 632              		.loc 2 30 15 is_stmt 0
 633 03d8 97000000 		call	_Z10stopKernelv@plt
 633      E7800000 
 634              	.LVL63:
 635              	.L49:
 636              	.LBE78:
 637              	.LBE120:
 100:src/trap.cpp  ****         if(cause == 2)
 638              		.loc 1 100 9 is_stmt 1
 100:src/trap.cpp  ****         if(cause == 2)
 639              		.loc 1 100 18 is_stmt 0
 640 03e0 17050000 		lla	a0,.LC6
 640      13050500 
 641 03e8 97000000 		call	_Z9putStringPKc@plt
 641      E7800000 
 642              	.LVL64:
 101:src/trap.cpp  ****         {
 643              		.loc 1 101 9 is_stmt 1
 644 03f0 93072000 		li	a5,2
 645 03f4 6380F908 		beq	s3,a5,.L58
 105:src/trap.cpp  ****         {
 646              		.loc 1 105 14
 647 03f8 93075000 		li	a5,5
 648 03fc 6386F908 		beq	s3,a5,.L59
 109:src/trap.cpp  ****         {
 649              		.loc 1 109 14
 650 0400 93077000 		li	a5,7
 651 0404 638CF908 		beq	s3,a5,.L60
 115:src/trap.cpp  ****             assert(false);
 652              		.loc 1 115 13
 115:src/trap.cpp  ****             assert(false);
 653              		.loc 1 115 22 is_stmt 0
 654 0408 17050000 		lla	a0,.LC10
 654      13050500 
 655 0410 97000000 		call	_Z9putStringPKc@plt
 655      E7800000 
 656              	.LVL65:
 116:src/trap.cpp  ****         }
 657              		.loc 1 116 13 is_stmt 1
 658              	.LBB121:
 659              	.LBB122:
  20:src/../h/../h/my_console.h ****         return;
GAS LISTING /tmp/ccHv7c9N.s 			page 20


 660              		.loc 2 20 5
  23:src/../h/../h/my_console.h ****     putString(file);
 661              		.loc 2 23 5
  23:src/../h/../h/my_console.h ****     putString(file);
 662              		.loc 2 23 14 is_stmt 0
 663 0418 17050000 		lla	a0,.LC0
 663      13050500 
 664 0420 97000000 		call	_Z9putStringPKc@plt
 664      E7800000 
 665              	.LVL66:
  24:src/../h/../h/my_console.h ****     putString("    line: ");
 666              		.loc 2 24 5 is_stmt 1
  24:src/../h/../h/my_console.h ****     putString("    line: ");
 667              		.loc 2 24 14 is_stmt 0
 668 0428 17050000 		lla	a0,.LC1
 668      13050500 
 669 0430 97000000 		call	_Z9putStringPKc@plt
 669      E7800000 
 670              	.LVL67:
  25:src/../h/../h/my_console.h ****     putInt(line);
 671              		.loc 2 25 5 is_stmt 1
  25:src/../h/../h/my_console.h ****     putInt(line);
 672              		.loc 2 25 14 is_stmt 0
 673 0438 17050000 		lla	a0,.LC2
 673      13050500 
 674 0440 97000000 		call	_Z9putStringPKc@plt
 674      E7800000 
 675              	.LVL68:
  26:src/../h/../h/my_console.h ****     putString("   ===========================");
 676              		.loc 2 26 5 is_stmt 1
  26:src/../h/../h/my_console.h ****     putString("   ===========================");
 677              		.loc 2 26 11 is_stmt 0
 678 0448 13054007 		li	a0,116
 679 044c 97000000 		call	_Z6putInti@plt
 679      E7800000 
 680              	.LVL69:
  27:src/../h/../h/my_console.h ****     putNewline();
 681              		.loc 2 27 5 is_stmt 1
  27:src/../h/../h/my_console.h ****     putNewline();
 682              		.loc 2 27 14 is_stmt 0
 683 0454 17050000 		lla	a0,.LC3
 683      13050500 
 684 045c 97000000 		call	_Z9putStringPKc@plt
 684      E7800000 
 685              	.LVL70:
  28:src/../h/../h/my_console.h **** 
 686              		.loc 2 28 5 is_stmt 1
  28:src/../h/../h/my_console.h **** 
 687              		.loc 2 28 15 is_stmt 0
 688 0464 97000000 		call	_Z10putNewlinev@plt
 688      E7800000 
 689              	.LVL71:
 690              		.loc 2 30 5 is_stmt 1
 691              		.loc 2 30 15 is_stmt 0
 692 046c 97000000 		call	_Z10stopKernelv@plt
 692      E7800000 
 693              	.LVL72:
GAS LISTING /tmp/ccHv7c9N.s 			page 21


 694              	.L58:
 695              	.LBE122:
 696              	.LBE121:
 103:src/trap.cpp  ****         }
 697              		.loc 1 103 13 is_stmt 1
 103:src/trap.cpp  ****         }
 698              		.loc 1 103 22 is_stmt 0
 699 0474 17050000 		lla	a0,.LC7
 699      13050500 
 700 047c 97000000 		call	_Z9putStringPKc@plt
 700      E7800000 
 701              	.LVL73:
 702 0484 6F008002 		j	.L18
 703              	.L59:
 107:src/trap.cpp  ****         }
 704              		.loc 1 107 13 is_stmt 1
 107:src/trap.cpp  ****         }
 705              		.loc 1 107 22 is_stmt 0
 706 0488 17050000 		lla	a0,.LC8
 706      13050500 
 707 0490 97000000 		call	_Z9putStringPKc@plt
 707      E7800000 
 708              	.LVL74:
 709 0498 6F004001 		j	.L18
 710              	.L60:
 111:src/trap.cpp  ****         }
 711              		.loc 1 111 13 is_stmt 1
 111:src/trap.cpp  ****         }
 712              		.loc 1 111 22 is_stmt 0
 713 049c 17050000 		lla	a0,.LC9
 713      13050500 
 714 04a4 97000000 		call	_Z9putStringPKc@plt
 714      E7800000 
 715              	.LVL75:
 716              	.L18:
 118:src/trap.cpp  ****         putString("Terminating kernel");
 717              		.loc 1 118 9 is_stmt 1
 118:src/trap.cpp  ****         putString("Terminating kernel");
 718              		.loc 1 118 19 is_stmt 0
 719 04ac 97000000 		call	_Z10putNewlinev@plt
 719      E7800000 
 720              	.LVL76:
 119:src/trap.cpp  ****         putNewline();
 721              		.loc 1 119 9 is_stmt 1
 119:src/trap.cpp  ****         putNewline();
 722              		.loc 1 119 18 is_stmt 0
 723 04b4 17050000 		lla	a0,.LC11
 723      13050500 
 724 04bc 97000000 		call	_Z9putStringPKc@plt
 724      E7800000 
 725              	.LVL77:
 120:src/trap.cpp  ****         assert(false);
 726              		.loc 1 120 9 is_stmt 1
 120:src/trap.cpp  ****         assert(false);
 727              		.loc 1 120 19 is_stmt 0
 728 04c4 97000000 		call	_Z10putNewlinev@plt
 728      E7800000 
GAS LISTING /tmp/ccHv7c9N.s 			page 22


 729              	.LVL78:
 121:src/trap.cpp  ****     }
 730              		.loc 1 121 9 is_stmt 1
 731              	.LBB123:
 732              	.LBB124:
  20:src/../h/../h/my_console.h ****         return;
 733              		.loc 2 20 5
  23:src/../h/../h/my_console.h ****     putString(file);
 734              		.loc 2 23 5
  23:src/../h/../h/my_console.h ****     putString(file);
 735              		.loc 2 23 14 is_stmt 0
 736 04cc 17050000 		lla	a0,.LC0
 736      13050500 
 737 04d4 97000000 		call	_Z9putStringPKc@plt
 737      E7800000 
 738              	.LVL79:
  24:src/../h/../h/my_console.h ****     putString("    line: ");
 739              		.loc 2 24 5 is_stmt 1
  24:src/../h/../h/my_console.h ****     putString("    line: ");
 740              		.loc 2 24 14 is_stmt 0
 741 04dc 17050000 		lla	a0,.LC1
 741      13050500 
 742 04e4 97000000 		call	_Z9putStringPKc@plt
 742      E7800000 
 743              	.LVL80:
  25:src/../h/../h/my_console.h ****     putInt(line);
 744              		.loc 2 25 5 is_stmt 1
  25:src/../h/../h/my_console.h ****     putInt(line);
 745              		.loc 2 25 14 is_stmt 0
 746 04ec 17050000 		lla	a0,.LC2
 746      13050500 
 747 04f4 97000000 		call	_Z9putStringPKc@plt
 747      E7800000 
 748              	.LVL81:
  26:src/../h/../h/my_console.h ****     putString("   ===========================");
 749              		.loc 2 26 5 is_stmt 1
  26:src/../h/../h/my_console.h ****     putString("   ===========================");
 750              		.loc 2 26 11 is_stmt 0
 751 04fc 13059007 		li	a0,121
 752 0500 97000000 		call	_Z6putInti@plt
 752      E7800000 
 753              	.LVL82:
  27:src/../h/../h/my_console.h ****     putNewline();
 754              		.loc 2 27 5 is_stmt 1
  27:src/../h/../h/my_console.h ****     putNewline();
 755              		.loc 2 27 14 is_stmt 0
 756 0508 17050000 		lla	a0,.LC3
 756      13050500 
 757 0510 97000000 		call	_Z9putStringPKc@plt
 757      E7800000 
 758              	.LVL83:
  28:src/../h/../h/my_console.h **** 
 759              		.loc 2 28 5 is_stmt 1
  28:src/../h/../h/my_console.h **** 
 760              		.loc 2 28 15 is_stmt 0
 761 0518 97000000 		call	_Z10putNewlinev@plt
 761      E7800000 
GAS LISTING /tmp/ccHv7c9N.s 			page 23


 762              	.LVL84:
 763              		.loc 2 30 5 is_stmt 1
 764              		.loc 2 30 15 is_stmt 0
 765 0520 97000000 		call	_Z10stopKernelv@plt
 765      E7800000 
 766              	.LVL85:
 767              	.L50:
 768              	.LBE124:
 769              	.LBE123:
 770              	.LBB125:
 128:src/trap.cpp  ****     }
 771              		.loc 1 128 9 is_stmt 1
 128:src/trap.cpp  ****     }
 772              		.loc 1 128 48 is_stmt 0
 773 0528 97000000 		call	_ZN8MemAlloc3getEv@plt
 773      E7800000 
 774              	.LVL86:
 775 0530 93050A00 		mv	a1,s4
 776 0534 97000000 		call	_ZN8MemAlloc8allocMemEm@plt
 776      E7800000 
 777              	.LVL87:
 128:src/trap.cpp  ****     }
 778              		.loc 1 128 13
 779 053c 2334A4FA 		sd	a0,-88(s0)
 780              	.L22:
 781              	.LBE125:
 177:src/trap.cpp  ****         assert(false); // unknown code
 178:src/trap.cpp  ****         assert(false); // unknown code
 179:src/trap.cpp  ****         assert(false); // unknown code
 180:src/trap.cpp  ****     }
 181:src/trap.cpp  **** 
 182:src/trap.cpp  **** //    __asm__ volatile ("mv a0, %[name]" : : [name] "r" (ret)); // upaliti ovo dole umesto ovoga (o
 183:src/trap.cpp  **** 
 184:src/trap.cpp  ****     bool normalCallWithReturn = (code == 0x1) || (code == 0x2) || (code == 0x11) || (code == 0x12) 
 782              		.loc 1 184 5 is_stmt 1
 783              		.loc 1 184 47 is_stmt 0
 784 0540 9387F4FF 		addi	a5,s1,-1
 785              		.loc 1 184 190
 786 0544 13071000 		li	a4,1
 787 0548 6374F716 		bleu	a5,a4,.L37
 788              		.loc 1 184 64 discriminator 2
 789 054c 93071001 		li	a5,17
 790 0550 6388F41E 		beq	s1,a5,.L38
 791              		.loc 1 184 82 discriminator 4
 792 0554 93072001 		li	a5,18
 793 0558 6388F41E 		beq	s1,a5,.L39
 794              		.loc 1 184 100 discriminator 6
 795 055c 93071002 		li	a5,33
 796 0560 6388F41E 		beq	s1,a5,.L40
 797              		.loc 1 184 118 discriminator 8
 798 0564 93072002 		li	a5,34
 799 0568 6388F41E 		beq	s1,a5,.L41
 800              		.loc 1 184 136 discriminator 10
 801 056c 93073002 		li	a5,35
 802 0570 6388F41E 		beq	s1,a5,.L42
 803              		.loc 1 184 154 discriminator 12
 804 0574 93074002 		li	a5,36
GAS LISTING /tmp/ccHv7c9N.s 			page 24


 805 0578 6388F41E 		beq	s1,a5,.L43
 806              		.loc 1 184 172 discriminator 14
 807 057c 93071003 		li	a5,49
 808 0580 6388F41E 		beq	s1,a5,.L44
 809              		.loc 1 184 190 discriminator 16
 810 0584 93071004 		li	a5,65
 811 0588 6380F412 		beq	s1,a5,.L61
 812              		.loc 1 184 190
 813 058c 93060000 		li	a3,0
 814 0590 6F004012 		j	.L31
 815              	.L51:
 816              	.LBB126:
 817              	.LBB113:
 132:src/trap.cpp  ****     }
 818              		.loc 1 132 9 is_stmt 1
 132:src/trap.cpp  ****     }
 819              		.loc 1 132 49 is_stmt 0
 820 0594 97000000 		call	_ZN8MemAlloc3getEv@plt
 820      E7800000 
 821              	.LVL88:
 822 059c 93050A00 		mv	a1,s4
 823 05a0 97000000 		call	_ZN8MemAlloc7freeMemEPv@plt
 823      E7800000 
 824              	.LVL89:
 132:src/trap.cpp  ****     }
 825              		.loc 1 132 23
 826 05a8 2324A4FA 		sw	a0,-88(s0)
 827 05ac 6FF05FF9 		j	.L22
 828              	.L52:
 829              	.LBB107:
 137:src/trap.cpp  ****     }
 830              		.loc 1 137 9 is_stmt 1
 137:src/trap.cpp  ****     }
 831              		.loc 1 137 31 is_stmt 0
 832 05b0 13050A00 		mv	a0,s4
 833 05b4 97000000 		call	_Z8testCallm
 833      E7800000 
 834              	.LVL90:
 137:src/trap.cpp  ****     }
 835              		.loc 1 137 13
 836 05bc 2334A4FA 		sd	a0,-88(s0)
 837 05c0 6FF01FF8 		j	.L22
 838              	.L53:
 839              	.LBB102:
 142:src/trap.cpp  ****     }
 840              		.loc 1 142 9 is_stmt 1
 142:src/trap.cpp  ****     }
 841              		.loc 1 142 29 is_stmt 0
 842 05c4 97000000 		call	_ZN6Thread12switchToUserEv@plt
 842      E7800000 
 843              	.LVL91:
 844 05cc 6FF05FF7 		j	.L22
 845              	.L54:
 846              	.LBB98:
 146:src/trap.cpp  ****     }
 847              		.loc 1 146 9 is_stmt 1
 146:src/trap.cpp  ****     }
GAS LISTING /tmp/ccHv7c9N.s 			page 25


 848              		.loc 1 146 45 is_stmt 0
 849 05d0 13060B00 		mv	a2,s6
 850 05d4 93850A00 		mv	a1,s5
 851 05d8 13050A00 		mv	a0,s4
 852 05dc 97000000 		call	_ZN6Thread12createThreadEPmPFvPvES1_@plt
 852      E7800000 
 853              	.LVL92:
 146:src/trap.cpp  ****     }
 854              		.loc 1 146 23
 855 05e4 2324A4FA 		sw	a0,-88(s0)
 856 05e8 6FF09FF5 		j	.L22
 857              	.L55:
 858              	.LBB95:
 150:src/trap.cpp  ****     }
 859              		.loc 1 150 9 is_stmt 1
 150:src/trap.cpp  ****     }
 860              		.loc 1 150 37 is_stmt 0
 861 05ec 97000000 		call	_ZN6Thread4exitEv@plt
 861      E7800000 
 862              	.LVL93:
 150:src/trap.cpp  ****     }
 863              		.loc 1 150 23
 864 05f4 2324A4FA 		sw	a0,-88(s0)
 865 05f8 6FF09FF4 		j	.L22
 866              	.L56:
 867              	.LBB93:
 868              	.LBB88:
 154:src/trap.cpp  ****         assert(Thread::getPRunning() != &kernelThread); // you're only supposed to open user thread
 869              		.loc 1 154 9 is_stmt 1
 155:src/trap.cpp  **** 
 870              		.loc 1 155 9
 871 05fc 97000000 		call	_ZN6Thread11getPRunningEv@plt
 871      E7800000 
 872              	.LVL94:
 873 0604 97070000 		la	a5,kernelThread
 873      83B70700 
 874              	.LVL95:
 875              	.LBB89:
 876              	.LBB90:
  20:src/../h/../h/my_console.h ****         return;
 877              		.loc 2 20 5
 878 060c 6388A702 		beq	a5,a0,.L62
  21:src/../h/../h/my_console.h **** 
 879              		.loc 2 21 9
 880              	.LVL96:
 881              	.LBE90:
 882              	.LBE89:
 157:src/trap.cpp  ****         Scheduler::put(Thread::getPRunning());
 883              		.loc 1 157 9
 157:src/trap.cpp  ****         Scheduler::put(Thread::getPRunning());
 884              		.loc 1 157 28 is_stmt 0
 885 0610 97000000 		call	_ZN6Thread11getPRunningEv@plt
 885      E7800000 
 886              	.LVL97:
 157:src/trap.cpp  ****         Scheduler::put(Thread::getPRunning());
 887              		.loc 1 157 38
 888 0618 93072000 		li	a5,2
GAS LISTING /tmp/ccHv7c9N.s 			page 26


 889 061c 2320F500 		sw	a5,0(a0)
 158:src/trap.cpp  **** 
 890              		.loc 1 158 9 is_stmt 1
 158:src/trap.cpp  **** 
 891              		.loc 1 158 23 is_stmt 0
 892 0620 97000000 		call	_ZN6Thread11getPRunningEv@plt
 892      E7800000 
 893              	.LVL98:
 894 0628 97000000 		call	_ZN9Scheduler3putEP6Thread@plt
 894      E7800000 
 895              	.LVL99:
 160:src/trap.cpp  ****     }
 896              		.loc 1 160 9 is_stmt 1
 160:src/trap.cpp  ****     }
 897              		.loc 1 160 34 is_stmt 0
 898 0630 97000000 		call	_ZN9Scheduler14dispatchToNextEv@plt
 898      E7800000 
 899              	.LVL100:
 900 0638 6FF09FF0 		j	.L22
 901              	.LVL101:
 902              	.L62:
 903              	.LBB92:
 904              	.LBB91:
  23:src/../h/../h/my_console.h ****     putString(file);
 905              		.loc 2 23 5 is_stmt 1
  23:src/../h/../h/my_console.h ****     putString(file);
 906              		.loc 2 23 14 is_stmt 0
 907 063c 17050000 		lla	a0,.LC0
 907      13050500 
 908              	.LVL102:
 909 0644 97000000 		call	_Z9putStringPKc@plt
 909      E7800000 
 910              	.LVL103:
  24:src/../h/../h/my_console.h ****     putString("    line: ");
 911              		.loc 2 24 5 is_stmt 1
  24:src/../h/../h/my_console.h ****     putString("    line: ");
 912              		.loc 2 24 14 is_stmt 0
 913 064c 17050000 		lla	a0,.LC1
 913      13050500 
 914 0654 97000000 		call	_Z9putStringPKc@plt
 914      E7800000 
 915              	.LVL104:
  25:src/../h/../h/my_console.h ****     putInt(line);
 916              		.loc 2 25 5 is_stmt 1
  25:src/../h/../h/my_console.h ****     putInt(line);
 917              		.loc 2 25 14 is_stmt 0
 918 065c 17050000 		lla	a0,.LC2
 918      13050500 
 919 0664 97000000 		call	_Z9putStringPKc@plt
 919      E7800000 
 920              	.LVL105:
  26:src/../h/../h/my_console.h ****     putString("   ===========================");
 921              		.loc 2 26 5 is_stmt 1
  26:src/../h/../h/my_console.h ****     putString("   ===========================");
 922              		.loc 2 26 11 is_stmt 0
 923 066c 1305B009 		li	a0,155
 924 0670 97000000 		call	_Z6putInti@plt
GAS LISTING /tmp/ccHv7c9N.s 			page 27


 924      E7800000 
 925              	.LVL106:
  27:src/../h/../h/my_console.h ****     putNewline();
 926              		.loc 2 27 5 is_stmt 1
  27:src/../h/../h/my_console.h ****     putNewline();
 927              		.loc 2 27 14 is_stmt 0
 928 0678 17050000 		lla	a0,.LC3
 928      13050500 
 929 0680 97000000 		call	_Z9putStringPKc@plt
 929      E7800000 
 930              	.LVL107:
  28:src/../h/../h/my_console.h **** 
 931              		.loc 2 28 5 is_stmt 1
  28:src/../h/../h/my_console.h **** 
 932              		.loc 2 28 15 is_stmt 0
 933 0688 97000000 		call	_Z10putNewlinev@plt
 933      E7800000 
 934              	.LVL108:
 935              		.loc 2 30 5 is_stmt 1
 936              		.loc 2 30 15 is_stmt 0
 937 0690 97000000 		call	_Z10stopKernelv@plt
 937      E7800000 
 938              	.LVL109:
 939              	.L57:
 940              	.LBE91:
 941              	.LBE92:
 942              	.LBE88:
 164:src/trap.cpp  ****     }
 943              		.loc 1 164 9 is_stmt 1
 164:src/trap.cpp  ****     }
 944              		.loc 1 164 21 is_stmt 0
 945 0698 13050A00 		mv	a0,s4
 946 069c 97000000 		call	_ZN6Thread4joinEm@plt
 946      E7800000 
 947              	.LVL110:
 948 06a4 6FF0DFE9 		j	.L22
 949              	.L61:
 950              	.LBE93:
 951              	.LBE95:
 952              	.LBE98:
 953              	.LBE102:
 954              	.LBE107:
 955              	.LBE113:
 956              	.LBE126:
 957              		.loc 1 184 190
 958 06a8 93860B00 		mv	a3,s7
 959 06ac 6F008000 		j	.L31
 960              	.L37:
 961 06b0 93860B00 		mv	a3,s7
 962              	.L31:
 963              	.LVL111:
 185:src/trap.cpp  ****     bool customCallWithReturn = (code == 0x3);
 964              		.loc 1 185 5 is_stmt 1 discriminator 20
 186:src/trap.cpp  ****     bool customCallWithoutReturn = (code == 0x4);
 965              		.loc 1 186 5 discriminator 20
 187:src/trap.cpp  ****     bool normalCallWithoutReturn = (code == 0x13) || (code == 0x14) || (code == 0x42);
 966              		.loc 1 187 5 discriminator 20
GAS LISTING /tmp/ccHv7c9N.s 			page 28


 967              		.loc 1 187 51 is_stmt 0 discriminator 20
 968 06b4 9387D4FE 		addi	a5,s1,-19
 969              		.loc 1 187 69 discriminator 20
 970 06b8 13071000 		li	a4,1
 971 06bc 6378F700 		bleu	a5,a4,.L32
 972              		.loc 1 187 69 discriminator 2
 973 06c0 93072004 		li	a5,66
 974 06c4 6384F400 		beq	s1,a5,.L32
 975              		.loc 1 187 69
 976 06c8 930B0000 		li	s7,0
 977              	.L32:
 978              	.LVL112:
 188:src/trap.cpp  ****     if(normalCallWithReturn || customCallWithReturn)
 979              		.loc 1 188 5 is_stmt 1 discriminator 6
 980 06cc 6396060A 		bnez	a3,.L33
 981              		.loc 1 188 29 is_stmt 0 discriminator 1
 982 06d0 93073000 		li	a5,3
 983 06d4 6382F40A 		beq	s1,a5,.L33
 189:src/trap.cpp  ****     { // system call with a return (not necessariliy 64bit)
 190:src/trap.cpp  **** 
 191:src/trap.cpp  ****         assert(ret != (uint64)-1); // not 100% check
 192:src/trap.cpp  **** 
 193:src/trap.cpp  ****         __asm__ volatile ("mv a0, %[name]" : : [name] "r" (ret));
 194:src/trap.cpp  ****     }
 195:src/trap.cpp  ****     else if(normalCallWithoutReturn || customCallWithoutReturn) // this exists for safety reasons
 984              		.loc 1 195 10 is_stmt 1
 985 06d8 639A0B0A 		bnez	s7,.L36
 986              		.loc 1 195 37 is_stmt 0 discriminator 1
 987 06dc 93074000 		li	a5,4
 988 06e0 6386F40A 		beq	s1,a5,.L36
 196:src/trap.cpp  ****     {
 197:src/trap.cpp  ****         ;
 198:src/trap.cpp  ****     }
 199:src/trap.cpp  ****     else
 200:src/trap.cpp  ****     {
 201:src/trap.cpp  ****         assert(false);
 989              		.loc 1 201 9 is_stmt 1
 990              	.LVL113:
 991              	.LBB127:
 992              	.LBB128:
  20:src/../h/../h/my_console.h ****         return;
 993              		.loc 2 20 5
  23:src/../h/../h/my_console.h ****     putString(file);
 994              		.loc 2 23 5
  23:src/../h/../h/my_console.h ****     putString(file);
 995              		.loc 2 23 14 is_stmt 0
 996 06e4 17050000 		lla	a0,.LC0
 996      13050500 
 997 06ec 97000000 		call	_Z9putStringPKc@plt
 997      E7800000 
 998              	.LVL114:
  24:src/../h/../h/my_console.h ****     putString("    line: ");
 999              		.loc 2 24 5 is_stmt 1
  24:src/../h/../h/my_console.h ****     putString("    line: ");
 1000              		.loc 2 24 14 is_stmt 0
 1001 06f4 17050000 		lla	a0,.LC1
 1001      13050500 
GAS LISTING /tmp/ccHv7c9N.s 			page 29


 1002 06fc 97000000 		call	_Z9putStringPKc@plt
 1002      E7800000 
 1003              	.LVL115:
  25:src/../h/../h/my_console.h ****     putInt(line);
 1004              		.loc 2 25 5 is_stmt 1
  25:src/../h/../h/my_console.h ****     putInt(line);
 1005              		.loc 2 25 14 is_stmt 0
 1006 0704 17050000 		lla	a0,.LC2
 1006      13050500 
 1007 070c 97000000 		call	_Z9putStringPKc@plt
 1007      E7800000 
 1008              	.LVL116:
  26:src/../h/../h/my_console.h ****     putString("   ===========================");
 1009              		.loc 2 26 5 is_stmt 1
  26:src/../h/../h/my_console.h ****     putString("   ===========================");
 1010              		.loc 2 26 11 is_stmt 0
 1011 0714 1305900C 		li	a0,201
 1012 0718 97000000 		call	_Z6putInti@plt
 1012      E7800000 
 1013              	.LVL117:
  27:src/../h/../h/my_console.h ****     putNewline();
 1014              		.loc 2 27 5 is_stmt 1
  27:src/../h/../h/my_console.h ****     putNewline();
 1015              		.loc 2 27 14 is_stmt 0
 1016 0720 17050000 		lla	a0,.LC3
 1016      13050500 
 1017 0728 97000000 		call	_Z9putStringPKc@plt
 1017      E7800000 
 1018              	.LVL118:
  28:src/../h/../h/my_console.h **** 
 1019              		.loc 2 28 5 is_stmt 1
  28:src/../h/../h/my_console.h **** 
 1020              		.loc 2 28 15 is_stmt 0
 1021 0730 97000000 		call	_Z10putNewlinev@plt
 1021      E7800000 
 1022              	.LVL119:
 1023              		.loc 2 30 5 is_stmt 1
 1024              		.loc 2 30 15 is_stmt 0
 1025 0738 97000000 		call	_Z10stopKernelv@plt
 1025      E7800000 
 1026              	.LVL120:
 1027              	.L38:
 1028              	.LBE128:
 1029              	.LBE127:
 184:src/trap.cpp  ****     bool customCallWithReturn = (code == 0x3);
 1030              		.loc 1 184 190
 1031 0740 93860B00 		mv	a3,s7
 1032 0744 6FF01FF7 		j	.L31
 1033              	.L39:
 1034 0748 93860B00 		mv	a3,s7
 1035 074c 6FF09FF6 		j	.L31
 1036              	.L40:
 1037 0750 93860B00 		mv	a3,s7
 1038 0754 6FF01FF6 		j	.L31
 1039              	.L41:
 1040 0758 93860B00 		mv	a3,s7
 1041 075c 6FF09FF5 		j	.L31
GAS LISTING /tmp/ccHv7c9N.s 			page 30


 1042              	.L42:
 1043 0760 93860B00 		mv	a3,s7
 1044 0764 6FF01FF5 		j	.L31
 1045              	.L43:
 1046 0768 93860B00 		mv	a3,s7
 1047 076c 6FF09FF4 		j	.L31
 1048              	.L44:
 1049 0770 93860B00 		mv	a3,s7
 1050 0774 6FF01FF4 		j	.L31
 1051              	.LVL121:
 1052              	.L33:
 191:src/trap.cpp  **** 
 1053              		.loc 1 191 9 is_stmt 1
 1054 0778 833784FA 		ld	a5,-88(s0)
 1055 077c 93871700 		addi	a5,a5,1
 1056              	.LVL122:
 1057              	.LBB129:
 1058              	.LBB130:
  20:src/../h/../h/my_console.h ****         return;
 1059              		.loc 2 20 5
 1060 0780 638E0702 		beqz	a5,.L63
  21:src/../h/../h/my_console.h **** 
 1061              		.loc 2 21 9
 1062              	.LVL123:
 1063              	.LBE130:
 1064              	.LBE129:
 193:src/trap.cpp  ****     }
 1065              		.loc 1 193 9
 193:src/trap.cpp  ****     }
 1066              		.loc 1 193 65 is_stmt 0
 1067 0784 833784FA 		ld	a5,-88(s0)
 1068              	#APP
 1069              	# 193 "src/trap.cpp" 1
 1070              		mv a0, a5
 1071              	# 0 "" 2
 1072              	#NO_APP
 1073              	.L36:
 202:src/trap.cpp  ****     }
 203:src/trap.cpp  **** 
 204:src/trap.cpp  ****     __asm__ volatile ("mv x10, x10");
 1074              		.loc 1 204 5 is_stmt 1
 1075              		.loc 1 204 37 is_stmt 0
 1076              	#APP
 1077              	# 204 "src/trap.cpp" 1
 205              	}
 1078              		mv x10, x10
 1079              	# 0 "" 2
 1080              		.loc 1 205 1
 1081              	#NO_APP
 1082 0790 83308105 		ld	ra,88(sp)
 1083              		.cfi_remember_state
 1084              		.cfi_restore 1
 1085 0794 03340105 		ld	s0,80(sp)
 1086              		.cfi_restore 8
 1087              		.cfi_def_cfa 2, 96
 1088 0798 83348104 		ld	s1,72(sp)
 1089              		.cfi_restore 9
GAS LISTING /tmp/ccHv7c9N.s 			page 31


 1090              	.LVL124:
 1091 079c 03390104 		ld	s2,64(sp)
 1092              		.cfi_restore 18
 1093 07a0 83398103 		ld	s3,56(sp)
 1094              		.cfi_restore 19
 1095              	.LVL125:
 1096 07a4 033A0103 		ld	s4,48(sp)
 1097              		.cfi_restore 20
 1098              	.LVL126:
 1099 07a8 833A8102 		ld	s5,40(sp)
 1100              		.cfi_restore 21
 1101              	.LVL127:
 1102 07ac 033B0102 		ld	s6,32(sp)
 1103              		.cfi_restore 22
 1104              	.LVL128:
 1105 07b0 833B8101 		ld	s7,24(sp)
 1106              		.cfi_restore 23
 1107              	.LVL129:
 1108 07b4 13010106 		addi	sp,sp,96
 1109              		.cfi_def_cfa_offset 0
 1110 07b8 67800000 		jr	ra
 1111              	.LVL130:
 1112              	.L63:
 1113              		.cfi_restore_state
 1114              	.LBB132:
 1115              	.LBB131:
  23:src/../h/../h/my_console.h ****     putString(file);
 1116              		.loc 2 23 5 is_stmt 1
  23:src/../h/../h/my_console.h ****     putString(file);
 1117              		.loc 2 23 14 is_stmt 0
 1118 07bc 17050000 		lla	a0,.LC0
 1118      13050500 
 1119 07c4 97000000 		call	_Z9putStringPKc@plt
 1119      E7800000 
 1120              	.LVL131:
  24:src/../h/../h/my_console.h ****     putString("    line: ");
 1121              		.loc 2 24 5 is_stmt 1
  24:src/../h/../h/my_console.h ****     putString("    line: ");
 1122              		.loc 2 24 14 is_stmt 0
 1123 07cc 17050000 		lla	a0,.LC1
 1123      13050500 
 1124 07d4 97000000 		call	_Z9putStringPKc@plt
 1124      E7800000 
 1125              	.LVL132:
  25:src/../h/../h/my_console.h ****     putInt(line);
 1126              		.loc 2 25 5 is_stmt 1
  25:src/../h/../h/my_console.h ****     putInt(line);
 1127              		.loc 2 25 14 is_stmt 0
 1128 07dc 17050000 		lla	a0,.LC2
 1128      13050500 
 1129 07e4 97000000 		call	_Z9putStringPKc@plt
 1129      E7800000 
 1130              	.LVL133:
  26:src/../h/../h/my_console.h ****     putString("   ===========================");
 1131              		.loc 2 26 5 is_stmt 1
  26:src/../h/../h/my_console.h ****     putString("   ===========================");
 1132              		.loc 2 26 11 is_stmt 0
GAS LISTING /tmp/ccHv7c9N.s 			page 32


 1133 07ec 1305F00B 		li	a0,191
 1134 07f0 97000000 		call	_Z6putInti@plt
 1134      E7800000 
 1135              	.LVL134:
  27:src/../h/../h/my_console.h ****     putNewline();
 1136              		.loc 2 27 5 is_stmt 1
  27:src/../h/../h/my_console.h ****     putNewline();
 1137              		.loc 2 27 14 is_stmt 0
 1138 07f8 17050000 		lla	a0,.LC3
 1138      13050500 
 1139 0800 97000000 		call	_Z9putStringPKc@plt
 1139      E7800000 
 1140              	.LVL135:
  28:src/../h/../h/my_console.h **** 
 1141              		.loc 2 28 5 is_stmt 1
  28:src/../h/../h/my_console.h **** 
 1142              		.loc 2 28 15 is_stmt 0
 1143 0808 97000000 		call	_Z10putNewlinev@plt
 1143      E7800000 
 1144              	.LVL136:
 1145              		.loc 2 30 5 is_stmt 1
 1146              		.loc 2 30 15 is_stmt 0
 1147 0810 97000000 		call	_Z10stopKernelv@plt
 1147      E7800000 
 1148              	.LVL137:
 1149              	.LBE131:
 1150              	.LBE132:
 1151              		.cfi_endproc
 1152              	.LFE21:
 1154              		.globl	gTimer
 1155              		.weak	_ZGVZN7Console3getEvE8instance
 1156              		.section	.bss._ZGVZN7Console3getEvE8instance,"awG",@nobits,_ZGVZN7Console3getEvE8instance,comdat
 1157              		.align	3
 1160              	_ZGVZN7Console3getEvE8instance:
 1161 0000 00000000 		.zero	8
 1161      00000000 
 1162              		.weak	_ZZN7Console3getEvE8instance
 1163              		.section	.bss._ZZN7Console3getEvE8instance,"awG",@nobits,_ZZN7Console3getEvE8instance,comdat
 1164              		.align	3
 1167              	_ZZN7Console3getEvE8instance:
 1168 0000 00000000 		.zero	1024
 1168      00000000 
 1168      00000000 
 1168      00000000 
 1168      00000000 
 1169              		.bss
 1170              		.align	3
 1171              		.set	.LANCHOR0,. + 0
 1174              	gTimer:
 1175 0000 00000000 		.zero	8
 1175      00000000 
 1176              		.text
 1177              	.Letext0:
 1178              		.file 4 "src/../h/../lib/hw.h"
 1179              		.file 5 "src/../h/thread.h"
 1180              		.file 6 "src/../h/scheduler.h"
 1181              		.file 7 "src/../h/alloc.h"
GAS LISTING /tmp/ccHv7c9N.s 			page 33


 1182              		.file 8 "src/../h/../h/c_api.h"
GAS LISTING /tmp/ccHv7c9N.s 			page 34


DEFINED SYMBOLS
                            *ABS*:0000000000000000 trap.cpp
     /tmp/ccHv7c9N.s:9      .text:0000000000000000 _Z8testCallm
     /tmp/ccHv7c9N.s:13     .text:0000000000000000 .L0 
     /tmp/ccHv7c9N.s:15     .text:0000000000000000 .L0 
     /tmp/ccHv7c9N.s:16     .text:0000000000000004 .L0 
     /tmp/ccHv7c9N.s:19     .text:000000000000000c .L0 
     /tmp/ccHv7c9N.s:20     .text:000000000000000c .L0 
     /tmp/ccHv7c9N.s:22     .text:0000000000000010 .L0 
     /tmp/ccHv7c9N.s:24     .text:0000000000000010 .L0 
     /tmp/ccHv7c9N.s:25     .text:0000000000000010 .L0 
     /tmp/ccHv7c9N.s:28     .text:0000000000000018 .L0 
     /tmp/ccHv7c9N.s:29     .text:000000000000001c .L0 
     /tmp/ccHv7c9N.s:31     .text:0000000000000020 .L0 
     /tmp/ccHv7c9N.s:32     .text:0000000000000020 .L0 
     /tmp/ccHv7c9N.s:34     .text:0000000000000024 .L0 
     /tmp/ccHv7c9N.s:36     .text:0000000000000028 .L0 
     /tmp/ccHv7c9N.s:56     .text:0000000000000028 _Z24cConsoleInterruptRoutinev
     /tmp/ccHv7c9N.s:59     .text:0000000000000028 .L0 
     /tmp/ccHv7c9N.s:60     .text:0000000000000028 .L0 
     /tmp/ccHv7c9N.s:61     .text:000000000000002c .L0 
     /tmp/ccHv7c9N.s:64     .text:0000000000000034 .L0 
     /tmp/ccHv7c9N.s:65     .text:0000000000000034 .L0 
     /tmp/ccHv7c9N.s:67     .text:0000000000000038 .L0 
     /tmp/ccHv7c9N.s:73     .text:0000000000000038 .L0 
     /tmp/ccHv7c9N.s:74     .text:0000000000000038 .L0 
     /tmp/ccHv7c9N.s:75     .text:0000000000000038 .L0 
     /tmp/ccHv7c9N.s:76     .text:0000000000000038 .L0 
     /tmp/ccHv7c9N.s:80     .text:0000000000000048 .L0 
     /tmp/ccHv7c9N.s:81     .text:0000000000000048 .L0 
     /tmp/ccHv7c9N.s:85     .text:0000000000000058 .L0 
     /tmp/ccHv7c9N.s:86     .text:0000000000000058 .L0 
     /tmp/ccHv7c9N.s:90     .text:0000000000000068 .L0 
     /tmp/ccHv7c9N.s:91     .text:0000000000000068 .L0 
     /tmp/ccHv7c9N.s:95     .text:0000000000000074 .L0 
     /tmp/ccHv7c9N.s:96     .text:0000000000000074 .L0 
     /tmp/ccHv7c9N.s:100    .text:0000000000000084 .L0 
     /tmp/ccHv7c9N.s:101    .text:0000000000000084 .L0 
     /tmp/ccHv7c9N.s:104    .text:000000000000008c .L0 
     /tmp/ccHv7c9N.s:105    .text:000000000000008c .L0 
     /tmp/ccHv7c9N.s:109    .text:0000000000000094 .L0 
     /tmp/ccHv7c9N.s:123    .text:0000000000000094 _Z22cTimerInterruptRoutinev
     /tmp/ccHv7c9N.s:126    .text:0000000000000094 .L0 
     /tmp/ccHv7c9N.s:127    .text:0000000000000094 .L0 
     /tmp/ccHv7c9N.s:128    .text:0000000000000098 .L0 
     /tmp/ccHv7c9N.s:132    .text:00000000000000a4 .L0 
     /tmp/ccHv7c9N.s:133    .text:00000000000000a4 .L0 
     /tmp/ccHv7c9N.s:134    .text:00000000000000a4 .L0 
     /tmp/ccHv7c9N.s:136    .text:00000000000000a8 .L0 
     /tmp/ccHv7c9N.s:138    .text:00000000000000a8 .L0 
        src/trap.cpp:37     .text:00000000000000a8 .L0 
     /tmp/ccHv7c9N.s:144    .text:00000000000000ac .L0 
     /tmp/ccHv7c9N.s:145    .text:00000000000000ac .L0 
        src/trap.cpp:40     .text:00000000000000ac .L0 
     /tmp/ccHv7c9N.s:151    .text:00000000000000b0 .L0 
     /tmp/ccHv7c9N.s:152    .text:00000000000000b0 .L0 
        src/trap.cpp:44     .text:00000000000000b0 .L0 
GAS LISTING /tmp/ccHv7c9N.s 			page 35


     /tmp/ccHv7c9N.s:158    .text:00000000000000b4 .L0 
     /tmp/ccHv7c9N.s:167    .text:00000000000000cc .L0 
     /tmp/ccHv7c9N.s:173    .text:00000000000000d4 .L0 
     /tmp/ccHv7c9N.s:174    .text:00000000000000d4 .L0 
     /tmp/ccHv7c9N.s:177    .text:00000000000000dc .L0 
     /tmp/ccHv7c9N.s:183    .text:00000000000000e4 .L0 
     /tmp/ccHv7c9N.s:184    .text:00000000000000e4 .L0 
     /tmp/ccHv7c9N.s:1160   .bss._ZGVZN7Console3getEvE8instance:0000000000000000 _ZGVZN7Console3getEvE8instance
     /tmp/ccHv7c9N.s:185    .text:00000000000000e4 .L0 
     /tmp/ccHv7c9N.s:1167   .bss._ZZN7Console3getEvE8instance:0000000000000000 _ZZN7Console3getEvE8instance
     /tmp/ccHv7c9N.s:192    .text:00000000000000f0 .L0 
     /tmp/ccHv7c9N.s:201    .text:0000000000000104 .L0 
     /tmp/ccHv7c9N.s:207    .text:0000000000000110 .L0 
     /tmp/ccHv7c9N.s:208    .text:0000000000000110 .L0 
     /tmp/ccHv7c9N.s:213    .text:0000000000000120 .L0 
     /tmp/ccHv7c9N.s:214    .text:0000000000000124 .L0 
     /tmp/ccHv7c9N.s:215    .text:0000000000000124 .L0 
     /tmp/ccHv7c9N.s:217    .text:0000000000000128 .L0 
     /tmp/ccHv7c9N.s:218    .text:0000000000000128 .L0 
     /tmp/ccHv7c9N.s:220    .text:000000000000012c .L0 
     /tmp/ccHv7c9N.s:223    .text:0000000000000130 .L0 
     /tmp/ccHv7c9N.s:227    .text:0000000000000134 .L0 
     /tmp/ccHv7c9N.s:231    .text:0000000000000134 .L0 
     /tmp/ccHv7c9N.s:232    .text:0000000000000134 .L0 
     /tmp/ccHv7c9N.s:237    .text:0000000000000144 .L0 
     /tmp/ccHv7c9N.s:238    .text:0000000000000144 .L0 
     /tmp/ccHv7c9N.s:242    .text:0000000000000154 .L0 
     /tmp/ccHv7c9N.s:243    .text:0000000000000154 .L0 
     /tmp/ccHv7c9N.s:247    .text:0000000000000164 .L0 
     /tmp/ccHv7c9N.s:248    .text:0000000000000164 .L0 
     /tmp/ccHv7c9N.s:252    .text:0000000000000170 .L0 
     /tmp/ccHv7c9N.s:253    .text:0000000000000170 .L0 
     /tmp/ccHv7c9N.s:257    .text:0000000000000180 .L0 
     /tmp/ccHv7c9N.s:258    .text:0000000000000180 .L0 
     /tmp/ccHv7c9N.s:261    .text:0000000000000188 .L0 
     /tmp/ccHv7c9N.s:262    .text:0000000000000188 .L0 
     /tmp/ccHv7c9N.s:268    .text:0000000000000190 .L0 
     /tmp/ccHv7c9N.s:269    .text:0000000000000190 .L0 
     /tmp/ccHv7c9N.s:274    .text:00000000000001a4 .L0 
     /tmp/ccHv7c9N.s:275    .text:00000000000001a4 .L0 
     /tmp/ccHv7c9N.s:278    .text:00000000000001ac .L0 
     /tmp/ccHv7c9N.s:280    .text:00000000000001b0 .L0 
     /tmp/ccHv7c9N.s:281    .text:00000000000001b0 .L0 
     /tmp/ccHv7c9N.s:285    .text:00000000000001c0 .L0 
     /tmp/ccHv7c9N.s:286    .text:00000000000001c0 .L0 
     /tmp/ccHv7c9N.s:290    .text:00000000000001d0 .L0 
     /tmp/ccHv7c9N.s:294    .text:00000000000001dc .L0 
     /tmp/ccHv7c9N.s:295    .text:00000000000001dc .L0 
     /tmp/ccHv7c9N.s:299    .text:00000000000001ec .L0 
     /tmp/ccHv7c9N.s:300    .text:00000000000001ec .L0 
     /tmp/ccHv7c9N.s:308    .text:00000000000001f8 .L0 
     /tmp/ccHv7c9N.s:309    .text:00000000000001f8 .L0 
     /tmp/ccHv7c9N.s:310    .text:00000000000001f8 .L0 
     /tmp/ccHv7c9N.s:311    .text:00000000000001f8 .L0 
     /tmp/ccHv7c9N.s:315    .text:0000000000000208 .L0 
     /tmp/ccHv7c9N.s:316    .text:0000000000000208 .L0 
     /tmp/ccHv7c9N.s:320    .text:0000000000000218 .L0 
GAS LISTING /tmp/ccHv7c9N.s 			page 36


     /tmp/ccHv7c9N.s:321    .text:0000000000000218 .L0 
     /tmp/ccHv7c9N.s:325    .text:0000000000000228 .L0 
     /tmp/ccHv7c9N.s:326    .text:0000000000000228 .L0 
     /tmp/ccHv7c9N.s:330    .text:0000000000000234 .L0 
     /tmp/ccHv7c9N.s:331    .text:0000000000000234 .L0 
     /tmp/ccHv7c9N.s:335    .text:0000000000000244 .L0 
     /tmp/ccHv7c9N.s:336    .text:0000000000000244 .L0 
     /tmp/ccHv7c9N.s:339    .text:000000000000024c .L0 
     /tmp/ccHv7c9N.s:340    .text:000000000000024c .L0 
     /tmp/ccHv7c9N.s:344    .text:0000000000000254 .L0 
     /tmp/ccHv7c9N.s:370    .text:0000000000000254 _Z25cInternalInterruptRoutinev
     /tmp/ccHv7c9N.s:373    .text:0000000000000254 .L0 
     /tmp/ccHv7c9N.s:374    .text:0000000000000254 .L0 
     /tmp/ccHv7c9N.s:375    .text:0000000000000258 .L0 
     /tmp/ccHv7c9N.s:385    .text:000000000000027c .L0 
     /tmp/ccHv7c9N.s:386    .text:000000000000027c .L0 
     /tmp/ccHv7c9N.s:387    .text:000000000000027c .L0 
     /tmp/ccHv7c9N.s:388    .text:000000000000027c .L0 
     /tmp/ccHv7c9N.s:389    .text:000000000000027c .L0 
     /tmp/ccHv7c9N.s:390    .text:000000000000027c .L0 
     /tmp/ccHv7c9N.s:391    .text:000000000000027c .L0 
     /tmp/ccHv7c9N.s:392    .text:000000000000027c .L0 
     /tmp/ccHv7c9N.s:393    .text:000000000000027c .L0 
     /tmp/ccHv7c9N.s:395    .text:0000000000000280 .L0 
     /tmp/ccHv7c9N.s:397    .text:0000000000000280 .L0 
     /tmp/ccHv7c9N.s:398    .text:0000000000000280 .L0 
        src/trap.cpp:81     .text:0000000000000280 .L0 
     /tmp/ccHv7c9N.s:405    .text:0000000000000284 .L0 
     /tmp/ccHv7c9N.s:406    .text:0000000000000284 .L0 
        src/trap.cpp:86     .text:0000000000000284 .L0 
     /tmp/ccHv7c9N.s:411    .text:0000000000000288 .L0 
     /tmp/ccHv7c9N.s:412    .text:0000000000000288 .L0 
        src/trap.cpp:89     .text:0000000000000288 .L0 
     /tmp/ccHv7c9N.s:418    .text:000000000000028c .L0 
        src/trap.cpp:90     .text:000000000000028c .L0 
     /tmp/ccHv7c9N.s:424    .text:0000000000000290 .L0 
        src/trap.cpp:91     .text:0000000000000290 .L0 
     /tmp/ccHv7c9N.s:430    .text:0000000000000294 .L0 
        src/trap.cpp:92     .text:0000000000000294 .L0 
     /tmp/ccHv7c9N.s:437    .text:0000000000000298 .L0 
     /tmp/ccHv7c9N.s:447    .text:00000000000002b4 .L0 
     /tmp/ccHv7c9N.s:454    .text:00000000000002c0 .L0 
     /tmp/ccHv7c9N.s:455    .text:00000000000002c0 .L0 
        src/trap.cpp:96     .text:00000000000002c0 .L0 
     /tmp/ccHv7c9N.s:461    .text:00000000000002c4 .L0 
     /tmp/ccHv7c9N.s:463    .text:00000000000002c4 .L0 
     /tmp/ccHv7c9N.s:466    .text:00000000000002c8 .L0 
     /tmp/ccHv7c9N.s:469    .text:00000000000002d0 .L0 
     /tmp/ccHv7c9N.s:470    .text:00000000000002d0 .L0 
     /tmp/ccHv7c9N.s:474    .text:00000000000002d8 .L0 
     /tmp/ccHv7c9N.s:480    .text:00000000000002e0 .L0 
     /tmp/ccHv7c9N.s:488    .text:00000000000002e8 .L0 
     /tmp/ccHv7c9N.s:498    .text:00000000000002f0 .L0 
     /tmp/ccHv7c9N.s:510    .text:00000000000002f8 .L0 
     /tmp/ccHv7c9N.s:524    .text:0000000000000300 .L0 
     /tmp/ccHv7c9N.s:540    .text:0000000000000308 .L0 
     /tmp/ccHv7c9N.s:543    .text:0000000000000310 .L0 
GAS LISTING /tmp/ccHv7c9N.s 			page 37


     /tmp/ccHv7c9N.s:546    .text:0000000000000318 .L0 
     /tmp/ccHv7c9N.s:549    .text:0000000000000320 .L0 
     /tmp/ccHv7c9N.s:555    .text:0000000000000328 .L0 
     /tmp/ccHv7c9N.s:556    .text:0000000000000328 .L0 
     /tmp/ccHv7c9N.s:557    .text:0000000000000328 .L0 
     /tmp/ccHv7c9N.s:558    .text:0000000000000328 .L0 
     /tmp/ccHv7c9N.s:562    .text:0000000000000338 .L0 
     /tmp/ccHv7c9N.s:563    .text:0000000000000338 .L0 
     /tmp/ccHv7c9N.s:567    .text:0000000000000348 .L0 
     /tmp/ccHv7c9N.s:568    .text:0000000000000348 .L0 
     /tmp/ccHv7c9N.s:572    .text:0000000000000358 .L0 
     /tmp/ccHv7c9N.s:573    .text:0000000000000358 .L0 
     /tmp/ccHv7c9N.s:577    .text:0000000000000364 .L0 
     /tmp/ccHv7c9N.s:578    .text:0000000000000364 .L0 
     /tmp/ccHv7c9N.s:582    .text:0000000000000374 .L0 
     /tmp/ccHv7c9N.s:583    .text:0000000000000374 .L0 
     /tmp/ccHv7c9N.s:586    .text:000000000000037c .L0 
     /tmp/ccHv7c9N.s:587    .text:000000000000037c .L0 
     /tmp/ccHv7c9N.s:602    .text:0000000000000384 .L0 
     /tmp/ccHv7c9N.s:603    .text:0000000000000384 .L0 
     /tmp/ccHv7c9N.s:608    .text:0000000000000394 .L0 
     /tmp/ccHv7c9N.s:609    .text:0000000000000394 .L0 
     /tmp/ccHv7c9N.s:613    .text:00000000000003a4 .L0 
     /tmp/ccHv7c9N.s:614    .text:00000000000003a4 .L0 
     /tmp/ccHv7c9N.s:618    .text:00000000000003b4 .L0 
     /tmp/ccHv7c9N.s:619    .text:00000000000003b4 .L0 
     /tmp/ccHv7c9N.s:623    .text:00000000000003c0 .L0 
     /tmp/ccHv7c9N.s:624    .text:00000000000003c0 .L0 
     /tmp/ccHv7c9N.s:628    .text:00000000000003d0 .L0 
     /tmp/ccHv7c9N.s:629    .text:00000000000003d0 .L0 
     /tmp/ccHv7c9N.s:632    .text:00000000000003d8 .L0 
     /tmp/ccHv7c9N.s:633    .text:00000000000003d8 .L0 
     /tmp/ccHv7c9N.s:639    .text:00000000000003e0 .L0 
     /tmp/ccHv7c9N.s:640    .text:00000000000003e0 .L0 
     /tmp/ccHv7c9N.s:644    .text:00000000000003f0 .L0 
     /tmp/ccHv7c9N.s:647    .text:00000000000003f8 .L0 
     /tmp/ccHv7c9N.s:650    .text:0000000000000400 .L0 
     /tmp/ccHv7c9N.s:653    .text:0000000000000408 .L0 
     /tmp/ccHv7c9N.s:654    .text:0000000000000408 .L0 
     /tmp/ccHv7c9N.s:660    .text:0000000000000418 .L0 
     /tmp/ccHv7c9N.s:661    .text:0000000000000418 .L0 
     /tmp/ccHv7c9N.s:662    .text:0000000000000418 .L0 
     /tmp/ccHv7c9N.s:663    .text:0000000000000418 .L0 
     /tmp/ccHv7c9N.s:667    .text:0000000000000428 .L0 
     /tmp/ccHv7c9N.s:668    .text:0000000000000428 .L0 
     /tmp/ccHv7c9N.s:672    .text:0000000000000438 .L0 
     /tmp/ccHv7c9N.s:673    .text:0000000000000438 .L0 
     /tmp/ccHv7c9N.s:677    .text:0000000000000448 .L0 
     /tmp/ccHv7c9N.s:678    .text:0000000000000448 .L0 
     /tmp/ccHv7c9N.s:682    .text:0000000000000454 .L0 
     /tmp/ccHv7c9N.s:683    .text:0000000000000454 .L0 
     /tmp/ccHv7c9N.s:687    .text:0000000000000464 .L0 
     /tmp/ccHv7c9N.s:688    .text:0000000000000464 .L0 
     /tmp/ccHv7c9N.s:691    .text:000000000000046c .L0 
     /tmp/ccHv7c9N.s:692    .text:000000000000046c .L0 
     /tmp/ccHv7c9N.s:698    .text:0000000000000474 .L0 
     /tmp/ccHv7c9N.s:699    .text:0000000000000474 .L0 
GAS LISTING /tmp/ccHv7c9N.s 			page 38


     /tmp/ccHv7c9N.s:705    .text:0000000000000488 .L0 
     /tmp/ccHv7c9N.s:706    .text:0000000000000488 .L0 
     /tmp/ccHv7c9N.s:712    .text:000000000000049c .L0 
     /tmp/ccHv7c9N.s:713    .text:000000000000049c .L0 
     /tmp/ccHv7c9N.s:718    .text:00000000000004ac .L0 
     /tmp/ccHv7c9N.s:719    .text:00000000000004ac .L0 
     /tmp/ccHv7c9N.s:722    .text:00000000000004b4 .L0 
     /tmp/ccHv7c9N.s:723    .text:00000000000004b4 .L0 
     /tmp/ccHv7c9N.s:727    .text:00000000000004c4 .L0 
     /tmp/ccHv7c9N.s:728    .text:00000000000004c4 .L0 
     /tmp/ccHv7c9N.s:733    .text:00000000000004cc .L0 
     /tmp/ccHv7c9N.s:734    .text:00000000000004cc .L0 
     /tmp/ccHv7c9N.s:735    .text:00000000000004cc .L0 
     /tmp/ccHv7c9N.s:736    .text:00000000000004cc .L0 
     /tmp/ccHv7c9N.s:740    .text:00000000000004dc .L0 
     /tmp/ccHv7c9N.s:741    .text:00000000000004dc .L0 
     /tmp/ccHv7c9N.s:745    .text:00000000000004ec .L0 
     /tmp/ccHv7c9N.s:746    .text:00000000000004ec .L0 
     /tmp/ccHv7c9N.s:750    .text:00000000000004fc .L0 
     /tmp/ccHv7c9N.s:751    .text:00000000000004fc .L0 
     /tmp/ccHv7c9N.s:755    .text:0000000000000508 .L0 
     /tmp/ccHv7c9N.s:756    .text:0000000000000508 .L0 
     /tmp/ccHv7c9N.s:760    .text:0000000000000518 .L0 
     /tmp/ccHv7c9N.s:761    .text:0000000000000518 .L0 
     /tmp/ccHv7c9N.s:764    .text:0000000000000520 .L0 
     /tmp/ccHv7c9N.s:765    .text:0000000000000520 .L0 
     /tmp/ccHv7c9N.s:772    .text:0000000000000528 .L0 
     /tmp/ccHv7c9N.s:773    .text:0000000000000528 .L0 
     /tmp/ccHv7c9N.s:779    .text:000000000000053c .L0 
     /tmp/ccHv7c9N.s:783    .text:0000000000000540 .L0 
     /tmp/ccHv7c9N.s:784    .text:0000000000000540 .L0 
     /tmp/ccHv7c9N.s:786    .text:0000000000000544 .L0 
     /tmp/ccHv7c9N.s:789    .text:000000000000054c .L0 
     /tmp/ccHv7c9N.s:792    .text:0000000000000554 .L0 
     /tmp/ccHv7c9N.s:795    .text:000000000000055c .L0 
     /tmp/ccHv7c9N.s:798    .text:0000000000000564 .L0 
     /tmp/ccHv7c9N.s:801    .text:000000000000056c .L0 
     /tmp/ccHv7c9N.s:804    .text:0000000000000574 .L0 
     /tmp/ccHv7c9N.s:807    .text:000000000000057c .L0 
     /tmp/ccHv7c9N.s:810    .text:0000000000000584 .L0 
     /tmp/ccHv7c9N.s:813    .text:000000000000058c .L0 
     /tmp/ccHv7c9N.s:819    .text:0000000000000594 .L0 
     /tmp/ccHv7c9N.s:820    .text:0000000000000594 .L0 
     /tmp/ccHv7c9N.s:826    .text:00000000000005a8 .L0 
     /tmp/ccHv7c9N.s:831    .text:00000000000005b0 .L0 
     /tmp/ccHv7c9N.s:832    .text:00000000000005b0 .L0 
     /tmp/ccHv7c9N.s:836    .text:00000000000005bc .L0 
     /tmp/ccHv7c9N.s:841    .text:00000000000005c4 .L0 
     /tmp/ccHv7c9N.s:842    .text:00000000000005c4 .L0 
     /tmp/ccHv7c9N.s:848    .text:00000000000005d0 .L0 
     /tmp/ccHv7c9N.s:849    .text:00000000000005d0 .L0 
     /tmp/ccHv7c9N.s:855    .text:00000000000005e4 .L0 
     /tmp/ccHv7c9N.s:860    .text:00000000000005ec .L0 
     /tmp/ccHv7c9N.s:861    .text:00000000000005ec .L0 
     /tmp/ccHv7c9N.s:864    .text:00000000000005f4 .L0 
     /tmp/ccHv7c9N.s:870    .text:00000000000005fc .L0 
     /tmp/ccHv7c9N.s:871    .text:00000000000005fc .L0 
GAS LISTING /tmp/ccHv7c9N.s 			page 39


     /tmp/ccHv7c9N.s:878    .text:000000000000060c .L0 
     /tmp/ccHv7c9N.s:883    .text:0000000000000610 .L0 
     /tmp/ccHv7c9N.s:884    .text:0000000000000610 .L0 
     /tmp/ccHv7c9N.s:885    .text:0000000000000610 .L0 
     /tmp/ccHv7c9N.s:888    .text:0000000000000618 .L0 
     /tmp/ccHv7c9N.s:891    .text:0000000000000620 .L0 
     /tmp/ccHv7c9N.s:892    .text:0000000000000620 .L0 
     /tmp/ccHv7c9N.s:897    .text:0000000000000630 .L0 
     /tmp/ccHv7c9N.s:898    .text:0000000000000630 .L0 
     /tmp/ccHv7c9N.s:906    .text:000000000000063c .L0 
     /tmp/ccHv7c9N.s:907    .text:000000000000063c .L0 
     /tmp/ccHv7c9N.s:912    .text:000000000000064c .L0 
     /tmp/ccHv7c9N.s:913    .text:000000000000064c .L0 
     /tmp/ccHv7c9N.s:917    .text:000000000000065c .L0 
     /tmp/ccHv7c9N.s:918    .text:000000000000065c .L0 
     /tmp/ccHv7c9N.s:922    .text:000000000000066c .L0 
     /tmp/ccHv7c9N.s:923    .text:000000000000066c .L0 
     /tmp/ccHv7c9N.s:927    .text:0000000000000678 .L0 
     /tmp/ccHv7c9N.s:928    .text:0000000000000678 .L0 
     /tmp/ccHv7c9N.s:932    .text:0000000000000688 .L0 
     /tmp/ccHv7c9N.s:933    .text:0000000000000688 .L0 
     /tmp/ccHv7c9N.s:936    .text:0000000000000690 .L0 
     /tmp/ccHv7c9N.s:937    .text:0000000000000690 .L0 
     /tmp/ccHv7c9N.s:944    .text:0000000000000698 .L0 
     /tmp/ccHv7c9N.s:945    .text:0000000000000698 .L0 
     /tmp/ccHv7c9N.s:958    .text:00000000000006a8 .L0 
     /tmp/ccHv7c9N.s:965    .text:00000000000006b4 .L0 
     /tmp/ccHv7c9N.s:966    .text:00000000000006b4 .L0 
     /tmp/ccHv7c9N.s:967    .text:00000000000006b4 .L0 
     /tmp/ccHv7c9N.s:968    .text:00000000000006b4 .L0 
     /tmp/ccHv7c9N.s:970    .text:00000000000006b8 .L0 
     /tmp/ccHv7c9N.s:973    .text:00000000000006c0 .L0 
     /tmp/ccHv7c9N.s:976    .text:00000000000006c8 .L0 
     /tmp/ccHv7c9N.s:980    .text:00000000000006cc .L0 
     /tmp/ccHv7c9N.s:982    .text:00000000000006d0 .L0 
     /tmp/ccHv7c9N.s:985    .text:00000000000006d8 .L0 
     /tmp/ccHv7c9N.s:987    .text:00000000000006dc .L0 
     /tmp/ccHv7c9N.s:993    .text:00000000000006e4 .L0 
     /tmp/ccHv7c9N.s:994    .text:00000000000006e4 .L0 
     /tmp/ccHv7c9N.s:995    .text:00000000000006e4 .L0 
     /tmp/ccHv7c9N.s:996    .text:00000000000006e4 .L0 
     /tmp/ccHv7c9N.s:1000   .text:00000000000006f4 .L0 
     /tmp/ccHv7c9N.s:1001   .text:00000000000006f4 .L0 
     /tmp/ccHv7c9N.s:1005   .text:0000000000000704 .L0 
     /tmp/ccHv7c9N.s:1006   .text:0000000000000704 .L0 
     /tmp/ccHv7c9N.s:1010   .text:0000000000000714 .L0 
     /tmp/ccHv7c9N.s:1011   .text:0000000000000714 .L0 
     /tmp/ccHv7c9N.s:1015   .text:0000000000000720 .L0 
     /tmp/ccHv7c9N.s:1016   .text:0000000000000720 .L0 
     /tmp/ccHv7c9N.s:1020   .text:0000000000000730 .L0 
     /tmp/ccHv7c9N.s:1021   .text:0000000000000730 .L0 
     /tmp/ccHv7c9N.s:1024   .text:0000000000000738 .L0 
     /tmp/ccHv7c9N.s:1025   .text:0000000000000738 .L0 
     /tmp/ccHv7c9N.s:1031   .text:0000000000000740 .L0 
     /tmp/ccHv7c9N.s:1054   .text:0000000000000778 .L0 
     /tmp/ccHv7c9N.s:1060   .text:0000000000000780 .L0 
     /tmp/ccHv7c9N.s:1065   .text:0000000000000784 .L0 
GAS LISTING /tmp/ccHv7c9N.s 			page 40


     /tmp/ccHv7c9N.s:1066   .text:0000000000000784 .L0 
     /tmp/ccHv7c9N.s:1067   .text:0000000000000784 .L0 
     /tmp/ccHv7c9N.s:1075   .text:000000000000078c .L0 
        src/trap.cpp:204    .text:000000000000078c .L0 
     /tmp/ccHv7c9N.s:1082   .text:0000000000000790 .L0 
     /tmp/ccHv7c9N.s:1083   .text:0000000000000794 .L0 
     /tmp/ccHv7c9N.s:1084   .text:0000000000000794 .L0 
     /tmp/ccHv7c9N.s:1086   .text:0000000000000798 .L0 
     /tmp/ccHv7c9N.s:1087   .text:0000000000000798 .L0 
     /tmp/ccHv7c9N.s:1089   .text:000000000000079c .L0 
     /tmp/ccHv7c9N.s:1092   .text:00000000000007a0 .L0 
     /tmp/ccHv7c9N.s:1094   .text:00000000000007a4 .L0 
     /tmp/ccHv7c9N.s:1097   .text:00000000000007a8 .L0 
     /tmp/ccHv7c9N.s:1100   .text:00000000000007ac .L0 
     /tmp/ccHv7c9N.s:1103   .text:00000000000007b0 .L0 
     /tmp/ccHv7c9N.s:1106   .text:00000000000007b4 .L0 
     /tmp/ccHv7c9N.s:1109   .text:00000000000007b8 .L0 
     /tmp/ccHv7c9N.s:1113   .text:00000000000007bc .L0 
     /tmp/ccHv7c9N.s:1117   .text:00000000000007bc .L0 
     /tmp/ccHv7c9N.s:1118   .text:00000000000007bc .L0 
     /tmp/ccHv7c9N.s:1122   .text:00000000000007cc .L0 
     /tmp/ccHv7c9N.s:1123   .text:00000000000007cc .L0 
     /tmp/ccHv7c9N.s:1127   .text:00000000000007dc .L0 
     /tmp/ccHv7c9N.s:1128   .text:00000000000007dc .L0 
     /tmp/ccHv7c9N.s:1132   .text:00000000000007ec .L0 
     /tmp/ccHv7c9N.s:1133   .text:00000000000007ec .L0 
     /tmp/ccHv7c9N.s:1137   .text:00000000000007f8 .L0 
     /tmp/ccHv7c9N.s:1138   .text:00000000000007f8 .L0 
     /tmp/ccHv7c9N.s:1142   .text:0000000000000808 .L0 
     /tmp/ccHv7c9N.s:1143   .text:0000000000000808 .L0 
     /tmp/ccHv7c9N.s:1146   .text:0000000000000810 .L0 
     /tmp/ccHv7c9N.s:1147   .text:0000000000000810 .L0 
     /tmp/ccHv7c9N.s:1151   .text:0000000000000818 .L0 
     /tmp/ccHv7c9N.s:1174   .bss:0000000000000000 gTimer
     /tmp/ccHv7c9N.s:1171   .bss:0000000000000000 .LANCHOR0
     /tmp/ccHv7c9N.s:1183   .text:0000000000000818 .L0 
     /tmp/ccHv7c9N.s:41     .rodata.str1.8:0000000000000000 .LC0
     /tmp/ccHv7c9N.s:76     .text:0000000000000038 .L0 
     /tmp/ccHv7c9N.s:44     .rodata.str1.8:0000000000000028 .LC1
     /tmp/ccHv7c9N.s:81     .text:0000000000000048 .L0 
     /tmp/ccHv7c9N.s:47     .rodata.str1.8:0000000000000038 .LC2
     /tmp/ccHv7c9N.s:86     .text:0000000000000058 .L0 
     /tmp/ccHv7c9N.s:50     .rodata.str1.8:0000000000000048 .LC3
     /tmp/ccHv7c9N.s:96     .text:0000000000000074 .L0 
     /tmp/ccHv7c9N.s:161    .text:00000000000000c0 .L0 
     /tmp/ccHv7c9N.s:185    .text:00000000000000e4 .L0 
     /tmp/ccHv7c9N.s:192    .text:00000000000000f0 .L0 
     /tmp/ccHv7c9N.s:202    .text:0000000000000108 .L0 
     /tmp/ccHv7c9N.s:208    .text:0000000000000110 .L0 
     /tmp/ccHv7c9N.s:232    .text:0000000000000134 .L0 
     /tmp/ccHv7c9N.s:238    .text:0000000000000144 .L0 
     /tmp/ccHv7c9N.s:243    .text:0000000000000154 .L0 
     /tmp/ccHv7c9N.s:253    .text:0000000000000170 .L0 
     /tmp/ccHv7c9N.s:269    .text:0000000000000190 .L0 
     /tmp/ccHv7c9N.s:114    .rodata.str1.8:0000000000000068 .LC4
     /tmp/ccHv7c9N.s:281    .text:00000000000001b0 .L0 
     /tmp/ccHv7c9N.s:286    .text:00000000000001c0 .L0 
GAS LISTING /tmp/ccHv7c9N.s 			page 41


     /tmp/ccHv7c9N.s:117    .rodata.str1.8:0000000000000070 .LC5
     /tmp/ccHv7c9N.s:295    .text:00000000000001dc .L0 
     /tmp/ccHv7c9N.s:311    .text:00000000000001f8 .L0 
     /tmp/ccHv7c9N.s:316    .text:0000000000000208 .L0 
     /tmp/ccHv7c9N.s:321    .text:0000000000000218 .L0 
     /tmp/ccHv7c9N.s:331    .text:0000000000000234 .L0 
     /tmp/ccHv7c9N.s:440    .text:00000000000002a4 .L0 
     /tmp/ccHv7c9N.s:558    .text:0000000000000328 .L0 
     /tmp/ccHv7c9N.s:563    .text:0000000000000338 .L0 
     /tmp/ccHv7c9N.s:568    .text:0000000000000348 .L0 
     /tmp/ccHv7c9N.s:578    .text:0000000000000364 .L0 
     /tmp/ccHv7c9N.s:603    .text:0000000000000384 .L0 
     /tmp/ccHv7c9N.s:609    .text:0000000000000394 .L0 
     /tmp/ccHv7c9N.s:614    .text:00000000000003a4 .L0 
     /tmp/ccHv7c9N.s:624    .text:00000000000003c0 .L0 
     /tmp/ccHv7c9N.s:349    .rodata.str1.8:0000000000000078 .LC6
     /tmp/ccHv7c9N.s:640    .text:00000000000003e0 .L0 
     /tmp/ccHv7c9N.s:361    .rodata.str1.8:00000000000000e0 .LC10
     /tmp/ccHv7c9N.s:654    .text:0000000000000408 .L0 
     /tmp/ccHv7c9N.s:663    .text:0000000000000418 .L0 
     /tmp/ccHv7c9N.s:668    .text:0000000000000428 .L0 
     /tmp/ccHv7c9N.s:673    .text:0000000000000438 .L0 
     /tmp/ccHv7c9N.s:683    .text:0000000000000454 .L0 
     /tmp/ccHv7c9N.s:352    .rodata.str1.8:0000000000000098 .LC7
     /tmp/ccHv7c9N.s:699    .text:0000000000000474 .L0 
     /tmp/ccHv7c9N.s:355    .rodata.str1.8:00000000000000b0 .LC8
     /tmp/ccHv7c9N.s:706    .text:0000000000000488 .L0 
     /tmp/ccHv7c9N.s:358    .rodata.str1.8:00000000000000c8 .LC9
     /tmp/ccHv7c9N.s:713    .text:000000000000049c .L0 
     /tmp/ccHv7c9N.s:364    .rodata.str1.8:0000000000000108 .LC11
     /tmp/ccHv7c9N.s:723    .text:00000000000004b4 .L0 
     /tmp/ccHv7c9N.s:736    .text:00000000000004cc .L0 
     /tmp/ccHv7c9N.s:741    .text:00000000000004dc .L0 
     /tmp/ccHv7c9N.s:746    .text:00000000000004ec .L0 
     /tmp/ccHv7c9N.s:756    .text:0000000000000508 .L0 
     /tmp/ccHv7c9N.s:873    .text:0000000000000604 .L0 
     /tmp/ccHv7c9N.s:907    .text:000000000000063c .L0 
     /tmp/ccHv7c9N.s:913    .text:000000000000064c .L0 
     /tmp/ccHv7c9N.s:918    .text:000000000000065c .L0 
     /tmp/ccHv7c9N.s:928    .text:0000000000000678 .L0 
     /tmp/ccHv7c9N.s:996    .text:00000000000006e4 .L0 
     /tmp/ccHv7c9N.s:1001   .text:00000000000006f4 .L0 
     /tmp/ccHv7c9N.s:1006   .text:0000000000000704 .L0 
     /tmp/ccHv7c9N.s:1016   .text:0000000000000720 .L0 
     /tmp/ccHv7c9N.s:1118   .text:00000000000007bc .L0 
     /tmp/ccHv7c9N.s:1123   .text:00000000000007cc .L0 
     /tmp/ccHv7c9N.s:1128   .text:00000000000007dc .L0 
     /tmp/ccHv7c9N.s:1138   .text:00000000000007f8 .L0 
     /tmp/ccHv7c9N.s:226    .text:0000000000000134 .L12
     /tmp/ccHv7c9N.s:264    .text:0000000000000190 .L13
     /tmp/ccHv7c9N.s:303    .text:00000000000001f8 .L9
     /tmp/ccHv7c9N.s:203    .text:0000000000000110 .L10
     /tmp/ccHv7c9N.s:211    .text:0000000000000120 .L5
     /tmp/ccHv7c9N.s:589    .text:0000000000000384 .L48
     /tmp/ccHv7c9N.s:635    .text:00000000000003e0 .L49
     /tmp/ccHv7c9N.s:767    .text:0000000000000528 .L50
     /tmp/ccHv7c9N.s:815    .text:0000000000000594 .L51
GAS LISTING /tmp/ccHv7c9N.s 			page 42


     /tmp/ccHv7c9N.s:828    .text:00000000000005b0 .L52
     /tmp/ccHv7c9N.s:838    .text:00000000000005c4 .L53
     /tmp/ccHv7c9N.s:845    .text:00000000000005d0 .L54
     /tmp/ccHv7c9N.s:857    .text:00000000000005ec .L55
     /tmp/ccHv7c9N.s:866    .text:00000000000005fc .L56
     /tmp/ccHv7c9N.s:939    .text:0000000000000698 .L57
     /tmp/ccHv7c9N.s:780    .text:0000000000000540 .L22
     /tmp/ccHv7c9N.s:694    .text:0000000000000474 .L58
     /tmp/ccHv7c9N.s:703    .text:0000000000000488 .L59
     /tmp/ccHv7c9N.s:710    .text:000000000000049c .L60
     /tmp/ccHv7c9N.s:716    .text:00000000000004ac .L18
     /tmp/ccHv7c9N.s:960    .text:00000000000006b0 .L37
     /tmp/ccHv7c9N.s:1027   .text:0000000000000740 .L38
     /tmp/ccHv7c9N.s:1033   .text:0000000000000748 .L39
     /tmp/ccHv7c9N.s:1036   .text:0000000000000750 .L40
     /tmp/ccHv7c9N.s:1039   .text:0000000000000758 .L41
     /tmp/ccHv7c9N.s:1042   .text:0000000000000760 .L42
     /tmp/ccHv7c9N.s:1045   .text:0000000000000768 .L43
     /tmp/ccHv7c9N.s:1048   .text:0000000000000770 .L44
     /tmp/ccHv7c9N.s:949    .text:00000000000006a8 .L61
     /tmp/ccHv7c9N.s:962    .text:00000000000006b4 .L31
     /tmp/ccHv7c9N.s:902    .text:000000000000063c .L62
     /tmp/ccHv7c9N.s:977    .text:00000000000006cc .L32
     /tmp/ccHv7c9N.s:1052   .text:0000000000000778 .L33
     /tmp/ccHv7c9N.s:1073   .text:000000000000078c .L36
     /tmp/ccHv7c9N.s:1112   .text:00000000000007bc .L63
     /tmp/ccHv7c9N.s:3365   .debug_abbrev:0000000000000000 .Ldebug_abbrev0
     /tmp/ccHv7c9N.s:5253   .debug_str:000000000000075c .LASF137
     /tmp/ccHv7c9N.s:5087   .debug_str:00000000000002eb .LASF138
     /tmp/ccHv7c9N.s:5207   .debug_str:000000000000060a .LASF139
     /tmp/ccHv7c9N.s:5      .text:0000000000000000 .Ltext0
     /tmp/ccHv7c9N.s:1177   .text:0000000000000818 .Letext0
     /tmp/ccHv7c9N.s:4999   .debug_line:0000000000000000 .Ldebug_line0
     /tmp/ccHv7c9N.s:5161   .debug_str:00000000000004d0 .LASF0
     /tmp/ccHv7c9N.s:5181   .debug_str:0000000000000557 .LASF1
     /tmp/ccHv7c9N.s:5143   .debug_str:000000000000044a .LASF2
     /tmp/ccHv7c9N.s:5113   .debug_str:0000000000000391 .LASF4
     /tmp/ccHv7c9N.s:5231   .debug_str:00000000000006b0 .LASF3
     /tmp/ccHv7c9N.s:5037   .debug_str:000000000000014b .LASF5
     /tmp/ccHv7c9N.s:5185   .debug_str:000000000000057d .LASF6
     /tmp/ccHv7c9N.s:5159   .debug_str:00000000000004bd .LASF7
     /tmp/ccHv7c9N.s:5265   .debug_str:0000000000000863 .LASF8
     /tmp/ccHv7c9N.s:5091   .debug_str:000000000000030b .LASF9
     /tmp/ccHv7c9N.s:5201   .debug_str:00000000000005cb .LASF10
     /tmp/ccHv7c9N.s:5255   .debug_str:0000000000000820 .LASF11
     /tmp/ccHv7c9N.s:5039   .debug_str:0000000000000152 .LASF12
     /tmp/ccHv7c9N.s:5013   .debug_str:0000000000000087 .LASF13
     /tmp/ccHv7c9N.s:5053   .debug_str:00000000000001ec .LASF14
     /tmp/ccHv7c9N.s:5223   .debug_str:000000000000067a .LASF15
     /tmp/ccHv7c9N.s:5063   .debug_str:0000000000000229 .LASF16
     /tmp/ccHv7c9N.s:5259   .debug_str:0000000000000841 .LASF46
     /tmp/ccHv7c9N.s:5097   .debug_str:000000000000032e .LASF140
     /tmp/ccHv7c9N.s:5193   .debug_str:00000000000005a7 .LASF17
     /tmp/ccHv7c9N.s:5153   .debug_str:0000000000000478 .LASF18
     /tmp/ccHv7c9N.s:5199   .debug_str:00000000000005c5 .LASF19
     /tmp/ccHv7c9N.s:5151   .debug_str:000000000000046b .LASF20
     /tmp/ccHv7c9N.s:5133   .debug_str:0000000000000403 .LASF21
GAS LISTING /tmp/ccHv7c9N.s 			page 43


     /tmp/ccHv7c9N.s:5191   .debug_str:000000000000059b .LASF22
     /tmp/ccHv7c9N.s:5177   .debug_str:0000000000000531 .LASF23
     /tmp/ccHv7c9N.s:5249   .debug_str:0000000000000745 .LASF24
     /tmp/ccHv7c9N.s:5233   .debug_str:00000000000006c2 .LASF25
     /tmp/ccHv7c9N.s:5111   .debug_str:0000000000000385 .LASF26
     /tmp/ccHv7c9N.s:5079   .debug_str:00000000000002a9 .LASF27
     /tmp/ccHv7c9N.s:5003   .debug_str:0000000000000006 .LASF28
     /tmp/ccHv7c9N.s:5251   .debug_str:0000000000000750 .LASF29
     /tmp/ccHv7c9N.s:5069   .debug_str:000000000000025a .LASF31
     /tmp/ccHv7c9N.s:5197   .debug_str:00000000000005b9 .LASF33
     /tmp/ccHv7c9N.s:5217   .debug_str:0000000000000647 .LASF35
     /tmp/ccHv7c9N.s:5123   .debug_str:00000000000003b8 .LASF45
     /tmp/ccHv7c9N.s:5009   .debug_str:0000000000000041 .LASF47
     /tmp/ccHv7c9N.s:5215   .debug_str:0000000000000642 .LASF141
     /tmp/ccHv7c9N.s:5135   .debug_str:000000000000040f .LASF30
     /tmp/ccHv7c9N.s:5035   .debug_str:0000000000000139 .LASF32
     /tmp/ccHv7c9N.s:5297   .debug_str:000000000000095e .LASF58
     /tmp/ccHv7c9N.s:5163   .debug_str:00000000000004dd .LASF60
     /tmp/ccHv7c9N.s:5235   .debug_str:00000000000006d3 .LASF34
     /tmp/ccHv7c9N.s:5021   .debug_str:00000000000000be .LASF36
     /tmp/ccHv7c9N.s:5029   .debug_str:0000000000000121 .LASF37
     /tmp/ccHv7c9N.s:5117   .debug_str:00000000000003a3 .LASF38
     /tmp/ccHv7c9N.s:5173   .debug_str:0000000000000522 .LASF39
     /tmp/ccHv7c9N.s:5295   .debug_str:0000000000000952 .LASF40
     /tmp/ccHv7c9N.s:5175   .debug_str:0000000000000527 .LASF41
     /tmp/ccHv7c9N.s:5095   .debug_str:0000000000000328 .LASF42
     /tmp/ccHv7c9N.s:5273   .debug_str:0000000000000898 .LASF43
     /tmp/ccHv7c9N.s:5149   .debug_str:0000000000000466 .LASF44
     /tmp/ccHv7c9N.s:5205   .debug_str:00000000000005f3 .LASF48
     /tmp/ccHv7c9N.s:5219   .debug_str:0000000000000663 .LASF49
     /tmp/ccHv7c9N.s:5189   .debug_str:0000000000000596 .LASF50
     /tmp/ccHv7c9N.s:5125   .debug_str:00000000000003c5 .LASF51
     /tmp/ccHv7c9N.s:5015   .debug_str:0000000000000097 .LASF79
     /tmp/ccHv7c9N.s:5083   .debug_str:00000000000002bd .LASF81
     /tmp/ccHv7c9N.s:5073   .debug_str:0000000000000279 .LASF52
     /tmp/ccHv7c9N.s:5245   .debug_str:0000000000000727 .LASF53
     /tmp/ccHv7c9N.s:5237   .debug_str:00000000000006d8 .LASF54
     /tmp/ccHv7c9N.s:5167   .debug_str:000000000000050b .LASF55
     /tmp/ccHv7c9N.s:5081   .debug_str:00000000000002b8 .LASF56
     /tmp/ccHv7c9N.s:5195   .debug_str:00000000000005af .LASF57
     /tmp/ccHv7c9N.s:5105   .debug_str:000000000000035f .LASF68
     /tmp/ccHv7c9N.s:5209   .debug_str:000000000000061e .LASF59
     /tmp/ccHv7c9N.s:5157   .debug_str:000000000000049d .LASF61
     /tmp/ccHv7c9N.s:5119   .debug_str:00000000000003a8 .LASF62
     /tmp/ccHv7c9N.s:5049   .debug_str:00000000000001b7 .LASF63
     /tmp/ccHv7c9N.s:5155   .debug_str:0000000000000482 .LASF142
     /tmp/ccHv7c9N.s:5033   .debug_str:000000000000012e .LASF64
     /tmp/ccHv7c9N.s:5243   .debug_str:000000000000070b .LASF65
     /tmp/ccHv7c9N.s:5187   .debug_str:0000000000000590 .LASF66
     /tmp/ccHv7c9N.s:5141   .debug_str:0000000000000438 .LASF73
     /tmp/ccHv7c9N.s:5147   .debug_str:000000000000045d .LASF67
     /tmp/ccHv7c9N.s:5089   .debug_str:00000000000002f8 .LASF69
     /tmp/ccHv7c9N.s:5241   .debug_str:0000000000000702 .LASF72
     /tmp/ccHv7c9N.s:5247   .debug_str:0000000000000740 .LASF70
     /tmp/ccHv7c9N.s:5283   .debug_str:00000000000008d0 .LASF71
     /tmp/ccHv7c9N.s:5007   .debug_str:0000000000000024 .LASF74
     /tmp/ccHv7c9N.s:5281   .debug_str:00000000000008c6 .LASF75
GAS LISTING /tmp/ccHv7c9N.s 			page 44


     /tmp/ccHv7c9N.s:5109   .debug_str:000000000000037b .LASF76
     /tmp/ccHv7c9N.s:5139   .debug_str:000000000000041a .LASF77
     /tmp/ccHv7c9N.s:5267   .debug_str:0000000000000873 .LASF78
     /tmp/ccHv7c9N.s:5279   .debug_str:00000000000008bd .LASF80
     /tmp/ccHv7c9N.s:5047   .debug_str:000000000000019f .LASF82
     /tmp/ccHv7c9N.s:5121   .debug_str:00000000000003b0 .LASF83
     /tmp/ccHv7c9N.s:5101   .debug_str:0000000000000339 .LASF84
     /tmp/ccHv7c9N.s:5261   .debug_str:0000000000000848 .LASF85
     /tmp/ccHv7c9N.s:5011   .debug_str:0000000000000066 .LASF86
     /tmp/ccHv7c9N.s:5287   .debug_str:00000000000008f4 .LASF87
     /tmp/ccHv7c9N.s:5289   .debug_str:0000000000000907 .LASF88
     /tmp/ccHv7c9N.s:5129   .debug_str:00000000000003ed .LASF89
     /tmp/ccHv7c9N.s:5179   .debug_str:0000000000000546 .LASF90
     /tmp/ccHv7c9N.s:5099   .debug_str:0000000000000334 .LASF91
     /tmp/ccHv7c9N.s:5107   .debug_str:0000000000000373 .LASF92
     /tmp/ccHv7c9N.s:5257   .debug_str:000000000000082f .LASF93
     /tmp/ccHv7c9N.s:5103   .debug_str:0000000000000351 .LASF94
     /tmp/ccHv7c9N.s:5065   .debug_str:000000000000023f .LASF95
     /tmp/ccHv7c9N.s:5269   .debug_str:000000000000087e .LASF96
     /tmp/ccHv7c9N.s:5093   .debug_str:0000000000000319 .LASF97
     /tmp/ccHv7c9N.s:5045   .debug_str:000000000000019a .LASF98
     /tmp/ccHv7c9N.s:5183   .debug_str:000000000000056a .LASF99
     /tmp/ccHv7c9N.s:5071   .debug_str:0000000000000274 .LASF100
     /tmp/ccHv7c9N.s:5165   .debug_str:00000000000004f8 .LASF101
     /tmp/ccHv7c9N.s:5277   .debug_str:00000000000008ae .LASF102
     /tmp/ccHv7c9N.s:5025   .debug_str:00000000000000e7 .LASF103
     /tmp/ccHv7c9N.s:5225   .debug_str:0000000000000690 .LASF104
     /tmp/ccHv7c9N.s:5031   .debug_str:0000000000000127 .LASF105
     /tmp/ccHv7c9N.s:5043   .debug_str:0000000000000180 .LASF106
     /tmp/ccHv7c9N.s:5285   .debug_str:00000000000008d5 .LASF107
     /tmp/ccHv7c9N.s:371    .text:0000000000000254 .LFB21
     /tmp/ccHv7c9N.s:1152   .text:0000000000000818 .LFE21
     /tmp/ccHv7c9N.s:5017   .debug_str:00000000000000a2 .LASF108
     /tmp/ccHv7c9N.s:4445   .debug_loc:0000000000000000 .LLST7
     /tmp/ccHv7c9N.s:5137   .debug_str:0000000000000414 .LASF109
     /tmp/ccHv7c9N.s:4456   .debug_loc:0000000000000036 .LLST8
     /tmp/ccHv7c9N.s:5171   .debug_str:000000000000051d .LASF110
     /tmp/ccHv7c9N.s:4479   .debug_loc:00000000000000a5 .LLST9
     /tmp/ccHv7c9N.s:5055   .debug_str:00000000000001f8 .LASF111
     /tmp/ccHv7c9N.s:4490   .debug_loc:00000000000000db .LLST10
     /tmp/ccHv7c9N.s:5057   .debug_str:0000000000000203 .LASF112
     /tmp/ccHv7c9N.s:4501   .debug_loc:0000000000000111 .LLST11
     /tmp/ccHv7c9N.s:5059   .debug_str:000000000000020e .LASF113
     /tmp/ccHv7c9N.s:4512   .debug_loc:0000000000000147 .LLST12
     /tmp/ccHv7c9N.s:5085   .debug_str:00000000000002d6 .LASF114
     /tmp/ccHv7c9N.s:4523   .debug_loc:000000000000017d .LLST13
     /tmp/ccHv7c9N.s:5019   .debug_str:00000000000000a9 .LASF115
     /tmp/ccHv7c9N.s:4534   .debug_loc:00000000000001b3 .LLST14
     /tmp/ccHv7c9N.s:5291   .debug_str:000000000000092a .LASF116
     /tmp/ccHv7c9N.s:4561   .debug_loc:0000000000000208 .LLST15
     /tmp/ccHv7c9N.s:5075   .debug_str:0000000000000284 .LASF117
     /tmp/ccHv7c9N.s:4588   .debug_loc:000000000000025d .LLST16
     /tmp/ccHv7c9N.s:868    .text:00000000000005fc .LBB88
     /tmp/ccHv7c9N.s:942    .text:0000000000000698 .LBE88
     /tmp/ccHv7c9N.s:5077   .debug_str:000000000000029c .LASF118
     /tmp/ccHv7c9N.s:875    .text:000000000000060c .LBB89
     /tmp/ccHv7c9N.s:4973   .debug_ranges:0000000000000000 .Ldebug_ranges0
GAS LISTING /tmp/ccHv7c9N.s 			page 45


     /tmp/ccHv7c9N.s:4603   .debug_loc:00000000000002a6 .LLST23
     /tmp/ccHv7c9N.s:4618   .debug_loc:00000000000002e0 .LLST24
     /tmp/ccHv7c9N.s:4633   .debug_loc:0000000000000328 .LLST25
     /tmp/ccHv7c9N.s:910    .text:000000000000064c .LVL103
     /tmp/ccHv7c9N.s:915    .text:000000000000065c .LVL104
     /tmp/ccHv7c9N.s:920    .text:000000000000066c .LVL105
     /tmp/ccHv7c9N.s:925    .text:0000000000000678 .LVL106
     /tmp/ccHv7c9N.s:930    .text:0000000000000688 .LVL107
     /tmp/ccHv7c9N.s:934    .text:0000000000000690 .LVL108
     /tmp/ccHv7c9N.s:938    .text:0000000000000698 .LVL109
     /tmp/ccHv7c9N.s:872    .text:0000000000000604 .LVL94
     /tmp/ccHv7c9N.s:886    .text:0000000000000618 .LVL97
     /tmp/ccHv7c9N.s:893    .text:0000000000000628 .LVL98
     /tmp/ccHv7c9N.s:895    .text:0000000000000630 .LVL99
     /tmp/ccHv7c9N.s:899    .text:0000000000000638 .LVL100
     /tmp/ccHv7c9N.s:444    .text:00000000000002b4 .LBB76
     /tmp/ccHv7c9N.s:4658   .debug_loc:000000000000036c .LLST17
     /tmp/ccHv7c9N.s:4673   .debug_loc:00000000000003a6 .LLST18
     /tmp/ccHv7c9N.s:4688   .debug_loc:00000000000003ee .LLST19
     /tmp/ccHv7c9N.s:606    .text:0000000000000394 .LVL57
     /tmp/ccHv7c9N.s:611    .text:00000000000003a4 .LVL58
     /tmp/ccHv7c9N.s:616    .text:00000000000003b4 .LVL59
     /tmp/ccHv7c9N.s:621    .text:00000000000003c0 .LVL60
     /tmp/ccHv7c9N.s:626    .text:00000000000003d0 .LVL61
     /tmp/ccHv7c9N.s:630    .text:00000000000003d8 .LVL62
     /tmp/ccHv7c9N.s:634    .text:00000000000003e0 .LVL63
     /tmp/ccHv7c9N.s:553    .text:0000000000000328 .LBB86
     /tmp/ccHv7c9N.s:591    .text:0000000000000384 .LBE86
     /tmp/ccHv7c9N.s:4707   .debug_loc:000000000000042c .LLST20
     /tmp/ccHv7c9N.s:4716   .debug_loc:0000000000000451 .LLST21
     /tmp/ccHv7c9N.s:4725   .debug_loc:000000000000047d .LLST22
     /tmp/ccHv7c9N.s:560    .text:0000000000000338 .LVL49
     /tmp/ccHv7c9N.s:565    .text:0000000000000348 .LVL50
     /tmp/ccHv7c9N.s:570    .text:0000000000000358 .LVL51
     /tmp/ccHv7c9N.s:575    .text:0000000000000364 .LVL52
     /tmp/ccHv7c9N.s:580    .text:0000000000000374 .LVL53
     /tmp/ccHv7c9N.s:584    .text:000000000000037c .LVL54
     /tmp/ccHv7c9N.s:588    .text:0000000000000384 .LVL55
     /tmp/ccHv7c9N.s:658    .text:0000000000000418 .LBB121
     /tmp/ccHv7c9N.s:696    .text:0000000000000474 .LBE121
     /tmp/ccHv7c9N.s:4733   .debug_loc:00000000000004a1 .LLST26
     /tmp/ccHv7c9N.s:4742   .debug_loc:00000000000004c6 .LLST27
     /tmp/ccHv7c9N.s:4751   .debug_loc:00000000000004f2 .LLST28
     /tmp/ccHv7c9N.s:665    .text:0000000000000428 .LVL66
     /tmp/ccHv7c9N.s:670    .text:0000000000000438 .LVL67
     /tmp/ccHv7c9N.s:675    .text:0000000000000448 .LVL68
     /tmp/ccHv7c9N.s:680    .text:0000000000000454 .LVL69
     /tmp/ccHv7c9N.s:685    .text:0000000000000464 .LVL70
     /tmp/ccHv7c9N.s:689    .text:000000000000046c .LVL71
     /tmp/ccHv7c9N.s:693    .text:0000000000000474 .LVL72
     /tmp/ccHv7c9N.s:731    .text:00000000000004cc .LBB123
     /tmp/ccHv7c9N.s:769    .text:0000000000000528 .LBE123
     /tmp/ccHv7c9N.s:4759   .debug_loc:0000000000000516 .LLST29
     /tmp/ccHv7c9N.s:4768   .debug_loc:000000000000053b .LLST30
     /tmp/ccHv7c9N.s:4777   .debug_loc:0000000000000567 .LLST31
     /tmp/ccHv7c9N.s:738    .text:00000000000004dc .LVL79
     /tmp/ccHv7c9N.s:743    .text:00000000000004ec .LVL80
GAS LISTING /tmp/ccHv7c9N.s 			page 46


     /tmp/ccHv7c9N.s:748    .text:00000000000004fc .LVL81
     /tmp/ccHv7c9N.s:753    .text:0000000000000508 .LVL82
     /tmp/ccHv7c9N.s:758    .text:0000000000000518 .LVL83
     /tmp/ccHv7c9N.s:762    .text:0000000000000520 .LVL84
     /tmp/ccHv7c9N.s:766    .text:0000000000000528 .LVL85
     /tmp/ccHv7c9N.s:991    .text:00000000000006e4 .LBB127
     /tmp/ccHv7c9N.s:1029   .text:0000000000000740 .LBE127
     /tmp/ccHv7c9N.s:4785   .debug_loc:000000000000058b .LLST32
     /tmp/ccHv7c9N.s:4794   .debug_loc:00000000000005b0 .LLST33
     /tmp/ccHv7c9N.s:4803   .debug_loc:00000000000005dc .LLST34
     /tmp/ccHv7c9N.s:998    .text:00000000000006f4 .LVL114
     /tmp/ccHv7c9N.s:1003   .text:0000000000000704 .LVL115
     /tmp/ccHv7c9N.s:1008   .text:0000000000000714 .LVL116
     /tmp/ccHv7c9N.s:1013   .text:0000000000000720 .LVL117
     /tmp/ccHv7c9N.s:1018   .text:0000000000000730 .LVL118
     /tmp/ccHv7c9N.s:1022   .text:0000000000000738 .LVL119
     /tmp/ccHv7c9N.s:1026   .text:0000000000000740 .LVL120
     /tmp/ccHv7c9N.s:1057   .text:0000000000000780 .LBB129
     /tmp/ccHv7c9N.s:4811   .debug_loc:0000000000000600 .LLST35
     /tmp/ccHv7c9N.s:4826   .debug_loc:000000000000063a .LLST36
     /tmp/ccHv7c9N.s:4841   .debug_loc:0000000000000682 .LLST37
     /tmp/ccHv7c9N.s:1120   .text:00000000000007cc .LVL131
     /tmp/ccHv7c9N.s:1125   .text:00000000000007dc .LVL132
     /tmp/ccHv7c9N.s:1130   .text:00000000000007ec .LVL133
     /tmp/ccHv7c9N.s:1135   .text:00000000000007f8 .LVL134
     /tmp/ccHv7c9N.s:1140   .text:0000000000000808 .LVL135
     /tmp/ccHv7c9N.s:1144   .text:0000000000000810 .LVL136
     /tmp/ccHv7c9N.s:1148   .text:0000000000000818 .LVL137
     /tmp/ccHv7c9N.s:438    .text:00000000000002a0 .LVL44
     /tmp/ccHv7c9N.s:642    .text:00000000000003f0 .LVL64
     /tmp/ccHv7c9N.s:656    .text:0000000000000418 .LVL65
     /tmp/ccHv7c9N.s:701    .text:0000000000000484 .LVL73
     /tmp/ccHv7c9N.s:708    .text:0000000000000498 .LVL74
     /tmp/ccHv7c9N.s:715    .text:00000000000004ac .LVL75
     /tmp/ccHv7c9N.s:720    .text:00000000000004b4 .LVL76
     /tmp/ccHv7c9N.s:725    .text:00000000000004c4 .LVL77
     /tmp/ccHv7c9N.s:729    .text:00000000000004cc .LVL78
     /tmp/ccHv7c9N.s:774    .text:0000000000000530 .LVL86
     /tmp/ccHv7c9N.s:777    .text:000000000000053c .LVL87
     /tmp/ccHv7c9N.s:821    .text:000000000000059c .LVL88
     /tmp/ccHv7c9N.s:824    .text:00000000000005a8 .LVL89
     /tmp/ccHv7c9N.s:834    .text:00000000000005bc .LVL90
     /tmp/ccHv7c9N.s:843    .text:00000000000005cc .LVL91
     /tmp/ccHv7c9N.s:853    .text:00000000000005e4 .LVL92
     /tmp/ccHv7c9N.s:862    .text:00000000000005f4 .LVL93
     /tmp/ccHv7c9N.s:947    .text:00000000000006a4 .LVL110
     /tmp/ccHv7c9N.s:5023   .debug_str:00000000000000d0 .LASF119
     /tmp/ccHv7c9N.s:5027   .debug_str:0000000000000105 .LASF120
     /tmp/ccHv7c9N.s:124    .text:0000000000000094 .LFB20
     /tmp/ccHv7c9N.s:345    .text:0000000000000254 .LFE20
     /tmp/ccHv7c9N.s:4860   .debug_loc:00000000000006c0 .LLST1
     /tmp/ccHv7c9N.s:4871   .debug_loc:00000000000006f6 .LLST2
     /tmp/ccHv7c9N.s:164    .text:00000000000000cc .LBB37
     /tmp/ccHv7c9N.s:4882   .debug_loc:000000000000072c .LLST3
     /tmp/ccHv7c9N.s:4897   .debug_loc:0000000000000766 .LLST4
     /tmp/ccHv7c9N.s:4912   .debug_loc:00000000000007ae .LLST5
     /tmp/ccHv7c9N.s:235    .text:0000000000000144 .LVL20
GAS LISTING /tmp/ccHv7c9N.s 			page 47


     /tmp/ccHv7c9N.s:240    .text:0000000000000154 .LVL21
     /tmp/ccHv7c9N.s:245    .text:0000000000000164 .LVL22
     /tmp/ccHv7c9N.s:250    .text:0000000000000170 .LVL23
     /tmp/ccHv7c9N.s:255    .text:0000000000000180 .LVL24
     /tmp/ccHv7c9N.s:259    .text:0000000000000188 .LVL25
     /tmp/ccHv7c9N.s:263    .text:0000000000000190 .LVL26
     /tmp/ccHv7c9N.s:180    .text:00000000000000e4 .LBB40
     /tmp/ccHv7c9N.s:206    .text:0000000000000110 .LBE40
     /tmp/ccHv7c9N.s:188    .text:00000000000000f0 .LBB42
     /tmp/ccHv7c9N.s:199    .text:0000000000000104 .LBE42
     /tmp/ccHv7c9N.s:4937   .debug_loc:00000000000007f2 .LLST6
     /tmp/ccHv7c9N.s:306    .text:00000000000001f8 .LBB46
     /tmp/ccHv7c9N.s:343    .text:0000000000000254 .LBE46
     /tmp/ccHv7c9N.s:313    .text:0000000000000208 .LVL32
     /tmp/ccHv7c9N.s:318    .text:0000000000000218 .LVL33
     /tmp/ccHv7c9N.s:323    .text:0000000000000228 .LVL34
     /tmp/ccHv7c9N.s:328    .text:0000000000000234 .LVL35
     /tmp/ccHv7c9N.s:333    .text:0000000000000244 .LVL36
     /tmp/ccHv7c9N.s:337    .text:000000000000024c .LVL37
     /tmp/ccHv7c9N.s:341    .text:0000000000000254 .LVL38
     /tmp/ccHv7c9N.s:159    .text:00000000000000bc .LVL11
     /tmp/ccHv7c9N.s:210    .text:0000000000000120 .LVL16
     /tmp/ccHv7c9N.s:283    .text:00000000000001c0 .LVL27
     /tmp/ccHv7c9N.s:292    .text:00000000000001dc .LVL28
     /tmp/ccHv7c9N.s:297    .text:00000000000001ec .LVL29
     /tmp/ccHv7c9N.s:301    .text:00000000000001f4 .LVL30
     /tmp/ccHv7c9N.s:5203   .debug_str:00000000000005da .LASF121
     /tmp/ccHv7c9N.s:5041   .debug_str:0000000000000162 .LASF122
     /tmp/ccHv7c9N.s:57     .text:0000000000000028 .LFB19
     /tmp/ccHv7c9N.s:110    .text:0000000000000094 .LFE19
     /tmp/ccHv7c9N.s:70     .text:0000000000000038 .LBB26
     /tmp/ccHv7c9N.s:108    .text:0000000000000094 .LBE26
     /tmp/ccHv7c9N.s:78     .text:0000000000000048 .LVL3
     /tmp/ccHv7c9N.s:83     .text:0000000000000058 .LVL4
     /tmp/ccHv7c9N.s:88     .text:0000000000000068 .LVL5
     /tmp/ccHv7c9N.s:93     .text:0000000000000074 .LVL6
     /tmp/ccHv7c9N.s:98     .text:0000000000000084 .LVL7
     /tmp/ccHv7c9N.s:102    .text:000000000000008c .LVL8
     /tmp/ccHv7c9N.s:106    .text:0000000000000094 .LVL9
     /tmp/ccHv7c9N.s:5275   .debug_str:00000000000008a5 .LASF143
     /tmp/ccHv7c9N.s:5067   .debug_str:000000000000024d .LASF144
     /tmp/ccHv7c9N.s:10     .text:0000000000000000 .LFB18
     /tmp/ccHv7c9N.s:37     .text:0000000000000028 .LFE18
     /tmp/ccHv7c9N.s:4946   .debug_loc:000000000000081e .LLST0
     /tmp/ccHv7c9N.s:26     .text:0000000000000018 .LVL1
     /tmp/ccHv7c9N.s:5211   .debug_str:000000000000062d .LASF145
     /tmp/ccHv7c9N.s:5271   .debug_str:0000000000000888 .LASF146
     /tmp/ccHv7c9N.s:5169   .debug_str:0000000000000514 .LASF147
     /tmp/ccHv7c9N.s:5051   .debug_str:00000000000001cf .LASF148
     /tmp/ccHv7c9N.s:5221   .debug_str:0000000000000672 .LASF123
     /tmp/ccHv7c9N.s:5061   .debug_str:0000000000000219 .LASF124
     /tmp/ccHv7c9N.s:5001   .debug_str:0000000000000000 .LASF125
     /tmp/ccHv7c9N.s:5145   .debug_str:0000000000000458 .LASF126
     /tmp/ccHv7c9N.s:5227   .debug_str:00000000000006a0 .LASF127
     /tmp/ccHv7c9N.s:5293   .debug_str:0000000000000942 .LASF128
     /tmp/ccHv7c9N.s:5263   .debug_str:0000000000000859 .LASF130
     /tmp/ccHv7c9N.s:5115   .debug_str:0000000000000398 .LASF129
GAS LISTING /tmp/ccHv7c9N.s 			page 48


     /tmp/ccHv7c9N.s:5005   .debug_str:000000000000001d .LASF131
     /tmp/ccHv7c9N.s:5239   .debug_str:00000000000006f2 .LASF132
     /tmp/ccHv7c9N.s:5229   .debug_str:00000000000006a5 .LASF133
     /tmp/ccHv7c9N.s:5213   .debug_str:0000000000000632 .LASF134
     /tmp/ccHv7c9N.s:5127   .debug_str:00000000000003e2 .LASF135
     /tmp/ccHv7c9N.s:5131   .debug_str:00000000000003fb .LASF136
     /tmp/ccHv7c9N.s:403    .text:0000000000000284 .LVL39
     /tmp/ccHv7c9N.s:464    .text:00000000000002c8 .LVL47
     /tmp/ccHv7c9N.s:1095   .text:00000000000007a4 .LVL125
     /tmp/ccHv7c9N.s:1111   .text:00000000000007bc .LVL130
     /tmp/ccHv7c9N.s:416    .text:000000000000028c .LVL40
     /tmp/ccHv7c9N.s:1090   .text:000000000000079c .LVL124
     /tmp/ccHv7c9N.s:422    .text:0000000000000290 .LVL41
     /tmp/ccHv7c9N.s:1098   .text:00000000000007a8 .LVL126
     /tmp/ccHv7c9N.s:428    .text:0000000000000294 .LVL42
     /tmp/ccHv7c9N.s:1101   .text:00000000000007ac .LVL127
     /tmp/ccHv7c9N.s:434    .text:0000000000000298 .LVL43
     /tmp/ccHv7c9N.s:1104   .text:00000000000007b0 .LVL128
     /tmp/ccHv7c9N.s:963    .text:00000000000006b4 .LVL111
     /tmp/ccHv7c9N.s:1051   .text:0000000000000778 .LVL121
     /tmp/ccHv7c9N.s:978    .text:00000000000006cc .LVL112
     /tmp/ccHv7c9N.s:1107   .text:00000000000007b4 .LVL129
     /tmp/ccHv7c9N.s:874    .text:000000000000060c .LVL95
     /tmp/ccHv7c9N.s:880    .text:0000000000000610 .LVL96
     /tmp/ccHv7c9N.s:901    .text:000000000000063c .LVL101
     /tmp/ccHv7c9N.s:908    .text:0000000000000644 .LVL102
     /tmp/ccHv7c9N.s:443    .text:00000000000002b4 .LVL45
     /tmp/ccHv7c9N.s:451    .text:00000000000002c0 .LVL46
     /tmp/ccHv7c9N.s:604    .text:000000000000038c .LVL56
     /tmp/ccHv7c9N.s:552    .text:0000000000000328 .LVL48
     /tmp/ccHv7c9N.s:990    .text:00000000000006e4 .LVL113
     /tmp/ccHv7c9N.s:1056   .text:0000000000000780 .LVL122
     /tmp/ccHv7c9N.s:1062   .text:0000000000000784 .LVL123
     /tmp/ccHv7c9N.s:149    .text:00000000000000b0 .LVL10
     /tmp/ccHv7c9N.s:169    .text:00000000000000d4 .LVL13
     /tmp/ccHv7c9N.s:225    .text:0000000000000134 .LVL18
     /tmp/ccHv7c9N.s:221    .text:000000000000012c .LVL17
     /tmp/ccHv7c9N.s:163    .text:00000000000000cc .LVL12
     /tmp/ccHv7c9N.s:233    .text:000000000000013c .LVL19
     /tmp/ccHv7c9N.s:187    .text:00000000000000f0 .LVL14
     /tmp/ccHv7c9N.s:196    .text:0000000000000104 .LVL15
     /tmp/ccHv7c9N.s:14     .text:0000000000000000 .LVL0
     /tmp/ccHv7c9N.s:1184   .debug_info:0000000000000000 .Ldebug_info0
     /tmp/ccHv7c9N.s:172    .text:00000000000000d4 .LBE37
     /tmp/ccHv7c9N.s:228    .text:0000000000000134 .LBB45
     /tmp/ccHv7c9N.s:266    .text:0000000000000190 .LBE45
     /tmp/ccHv7c9N.s:453    .text:00000000000002c0 .LBE76
     /tmp/ccHv7c9N.s:599    .text:0000000000000384 .LBB120
     /tmp/ccHv7c9N.s:637    .text:00000000000003e0 .LBE120
     /tmp/ccHv7c9N.s:882    .text:0000000000000610 .LBE89
     /tmp/ccHv7c9N.s:903    .text:000000000000063c .LBB92
     /tmp/ccHv7c9N.s:941    .text:0000000000000698 .LBE92
     /tmp/ccHv7c9N.s:1064   .text:0000000000000784 .LBE129
     /tmp/ccHv7c9N.s:1114   .text:00000000000007bc .LBB132
     /tmp/ccHv7c9N.s:1150   .text:0000000000000818 .LBE132

UNDEFINED SYMBOLS
GAS LISTING /tmp/ccHv7c9N.s 			page 49


_Z3fibm
_Z9putStringPKc
_Z6putInti
_Z10putNewlinev
_Z10stopKernelv
_ZN6Thread11getPRunningEv
_ZN6Thread10pRunningSpE
_ZN7Console14consoleHandlerEv
_ZN8MemAlloc3getEv
_ZN8MemAlloc8allocMemEm
_ZN8MemAlloc7freeMemEPv
_ZN6Thread12switchToUserEv
_ZN6Thread12createThreadEPmPFvPvES1_
_ZN6Thread4exitEv
kernelThread
_ZN9Scheduler3putEP6Thread
_ZN9Scheduler14dispatchToNextEv
_ZN6Thread4joinEm
