GAS LISTING /tmp/cc5FJUlz.s 			page 1


   1              		.file	"trap.cpp"
   2              		.option pic
   3              		.option norelax
   4              		.text
   5              	.Ltext0:
   6              		.align	2
   7              		.globl	_Z8testCallm
   9              	_Z8testCallm:
  10              	.LFB14:
  11              		.file 1 "src/trap.cpp"
   1:src/trap.cpp  **** #include "../h/thread.h"
   2:src/trap.cpp  **** #include "../h/scheduler.h"
   3:src/trap.cpp  **** #include "../h/alloc.h"
   4:src/trap.cpp  **** 
   5:src/trap.cpp  **** int gTimer = 0;
   6:src/trap.cpp  **** 
   7:src/trap.cpp  **** uint64 fib(uint64 n);
   8:src/trap.cpp  **** 
   9:src/trap.cpp  **** uint64 testCall(uint64 n)
  10:src/trap.cpp  **** {
  12              		.loc 1 10 1
  13              		.cfi_startproc
  14              	.LVL0:
  15 0000 130101FF 		addi	sp,sp,-16
  16              		.cfi_def_cfa_offset 16
  17 0004 23341100 		sd	ra,8(sp)
  18 0008 23308100 		sd	s0,0(sp)
  19              		.cfi_offset 1, -8
  20              		.cfi_offset 8, -16
  21 000c 13040101 		addi	s0,sp,16
  22              		.cfi_def_cfa 8, 0
  11:src/trap.cpp  ****     return fib(n);
  23              		.loc 1 11 5
  24              		.loc 1 11 15 is_stmt 0
  25 0010 97000000 		call	_Z3fibm@plt
  25      E7800000 
  26              	.LVL1:
  12:src/trap.cpp  **** }
  27              		.loc 1 12 1
  28 0018 83308100 		ld	ra,8(sp)
  29              		.cfi_restore 1
  30 001c 03340100 		ld	s0,0(sp)
  31              		.cfi_restore 8
  32              		.cfi_def_cfa 2, 16
  33 0020 13010101 		addi	sp,sp,16
  34              		.cfi_def_cfa_offset 0
  35 0024 67800000 		jr	ra
  36              		.cfi_endproc
  37              	.LFE14:
  39              		.section	.rodata.str1.8,"aMS",@progbits,1
  40              		.align	3
  41              	.LC0:
  42 0000 3D3D3D3D 		.string	"===================== ASSERT file: "
  42      3D3D3D3D 
  42      3D3D3D3D 
  42      3D3D3D3D 
  42      3D3D3D3D 
GAS LISTING /tmp/cc5FJUlz.s 			page 2


  43 0024 00000000 		.align	3
  44              	.LC1:
  45 0028 7372632F 		.string	"src/trap.cpp"
  45      74726170 
  45      2E637070 
  45      00
  46 0035 000000   		.align	3
  47              	.LC2:
  48 0038 20202020 		.string	"    line: "
  48      6C696E65 
  48      3A2000
  49 0043 00000000 		.align	3
  49      00
  50              	.LC3:
  51 0048 2020203D 		.string	"   ==========================="
  51      3D3D3D3D 
  51      3D3D3D3D 
  51      3D3D3D3D 
  51      3D3D3D3D 
  52 0067 00       		.align	3
  53              	.LC4:
  54 0068 3D3D3D20 		.string	"=== EXCEPETION occured: "
  54      45584345 
  54      50455449 
  54      4F4E206F 
  54      63637572 
  55 0081 00000000 		.align	3
  55      000000
  56              	.LC5:
  57 0088 20496C6C 		.string	" Illegal instruction"
  57      6567616C 
  57      20696E73 
  57      74727563 
  57      74696F6E 
  58 009d 000000   		.align	3
  59              	.LC6:
  60 00a0 556E616C 		.string	"Unallowed read adress"
  60      6C6F7765 
  60      64207265 
  60      61642061 
  60      64726573 
  61 00b6 0000     		.align	3
  62              	.LC7:
  63 00b8 556E616C 		.string	"Unallowed write adress"
  63      6C6F7765 
  63      64207772 
  63      69746520 
  63      61647265 
  64 00cf 00       		.align	3
  65              	.LC8:
  66 00d0 554B4E4F 		.string	"UKNOWN EXCEPTION. ??????????????"
  66      574E2045 
  66      58434550 
  66      54494F4E 
  66      2E203F3F 
  67 00f1 00000000 		.align	3
  67      000000
GAS LISTING /tmp/cc5FJUlz.s 			page 3


  68              	.LC9:
  69 00f8 5465726D 		.string	"Terminating kernel"
  69      696E6174 
  69      696E6720 
  69      6B65726E 
  69      656C00
  70              		.text
  71              		.align	2
  72              		.globl	_Z25cInternalInterruptRoutinev
  74              	_Z25cInternalInterruptRoutinev:
  75              	.LFB15:
  13:src/trap.cpp  **** 
  14:src/trap.cpp  **** void cInternalInterruptRoutine()
  15:src/trap.cpp  **** {
  76              		.loc 1 15 1 is_stmt 1
  77              		.cfi_startproc
  78 0028 130101FB 		addi	sp,sp,-80
  79              		.cfi_def_cfa_offset 80
  80 002c 23341104 		sd	ra,72(sp)
  81 0030 23308104 		sd	s0,64(sp)
  82 0034 233C9102 		sd	s1,56(sp)
  83 0038 23382103 		sd	s2,48(sp)
  84 003c 23343103 		sd	s3,40(sp)
  85 0040 23304103 		sd	s4,32(sp)
  86 0044 233C5101 		sd	s5,24(sp)
  87 0048 23386101 		sd	s6,16(sp)
  88              		.cfi_offset 1, -8
  89              		.cfi_offset 8, -16
  90              		.cfi_offset 9, -24
  91              		.cfi_offset 18, -32
  92              		.cfi_offset 19, -40
  93              		.cfi_offset 20, -48
  94              		.cfi_offset 21, -56
  95              		.cfi_offset 22, -64
  96 004c 13040105 		addi	s0,sp,80
  97              		.cfi_def_cfa 8, 0
  16:src/trap.cpp  ****     uint64 scause;
  98              		.loc 1 16 5
  17:src/trap.cpp  ****     __asm__ volatile ("csrr %[name], scause" : [name] "=r"(scause));
  99              		.loc 1 17 5
 100              		.loc 1 17 68 is_stmt 0
 101              	#APP
 102              	# 17 "src/trap.cpp" 1
  18              	
 103              		csrr s1, scause
 104              	# 0 "" 2
 105              	.LVL2:
  19:src/trap.cpp  **** //    int isExternal = (scause & (0x1UL << 63)) != 0;
  20:src/trap.cpp  ****     int cause = scause & (~(1UL << 63));
 106              		.loc 1 20 5 is_stmt 1
  21:src/trap.cpp  **** 
  22:src/trap.cpp  ****     __asm__ volatile ("csrc sip, 0x2"); // clears the 1st bit in register sip. (the bit signifies i
 107              		.loc 1 22 5
 108              		.loc 1 22 39 is_stmt 0
 109              	# 22 "src/trap.cpp" 1
  23              	
  24:src/trap.cpp  ****     uint64 code, parameter1, parameter2, parameter3;
GAS LISTING /tmp/cc5FJUlz.s 			page 4


 110              		csrc sip, 0x2
 111              	# 0 "" 2
 112              		.loc 1 24 5 is_stmt 1
  25:src/trap.cpp  ****     __asm__ volatile ("mv %[name], a0" : [name] "=r"(code));
 113              		.loc 1 25 5
 114              		.loc 1 25 60 is_stmt 0
 115              	# 25 "src/trap.cpp" 1
  26              	    __asm__ volatile ("mv %[name], a1" : [name] "=r"(parameter1));
 116              		mv s2, a0
 117              	# 0 "" 2
 118              	.LVL3:
 119              		.loc 1 26 5 is_stmt 1
 120              		.loc 1 26 66 is_stmt 0
 121              	# 26 "src/trap.cpp" 1
  27              	    __asm__ volatile ("mv %[name], a2" : [name] "=r"(parameter2));
 122              		mv s4, a1
 123              	# 0 "" 2
 124              	.LVL4:
 125              		.loc 1 27 5 is_stmt 1
 126              		.loc 1 27 66 is_stmt 0
 127              	# 27 "src/trap.cpp" 1
  28              	    __asm__ volatile ("mv %[name], a3" : [name] "=r"(parameter3));
 128              		mv s5, a2
 129              	# 0 "" 2
 130              	.LVL5:
 131              		.loc 1 28 5 is_stmt 1
 132              		.loc 1 28 66 is_stmt 0
 133              	# 28 "src/trap.cpp" 1
  29              	
 134              		mv s6, a3
 135              	# 0 "" 2
 136              	.LVL6:
  30:src/trap.cpp  **** 
  31:src/trap.cpp  ****     __asm__ volatile ("mv x1, x1");
 137              		.loc 1 31 5 is_stmt 1
 138              		.loc 1 31 35 is_stmt 0
 139              	# 31 "src/trap.cpp" 1
  32              	    if(&(Thread::getPRunning()->context[0]) != Thread::pRunningContext) // temp, maybe changes regi
 140              		mv x1, x1
 141              	# 0 "" 2
 142              		.loc 1 32 5 is_stmt 1
 143              		.loc 1 32 29 is_stmt 0
 144              	#NO_APP
 145 006c 97000000 		call	_ZN6Thread11getPRunningEv@plt
 145      E7800000 
 146              	.LVL7:
 147              		.loc 1 32 8
 148 0074 13050501 		addi	a0,a0,16
 149              		.loc 1 32 45
 150 0078 97070000 		la	a5,_ZN6Thread15pRunningContextE
 150      83B70700 
 151 0080 83B70700 		ld	a5,0(a5)
 152              		.loc 1 32 5
 153 0084 6302F506 		beq	a0,a5,.L4
  33:src/trap.cpp  ****     {
  34:src/trap.cpp  ****         __asm__ volatile ("mv x10, x10");
 154              		.loc 1 34 9 is_stmt 1
GAS LISTING /tmp/cc5FJUlz.s 			page 5


 155              		.loc 1 34 41 is_stmt 0
 156              	#APP
 157              	# 34 "src/trap.cpp" 1
  35              	        assert(false);
 158              		mv x10, x10
 159              	# 0 "" 2
 160              		.loc 1 35 9 is_stmt 1
 161              	.LVL8:
 162              	#NO_APP
 163              	.LBB28:
 164              	.LBB29:
 165              		.file 2 "src/../h/../h/my_console.h"
   1:src/../h/../h/my_console.h **** #pragma once
   2:src/../h/../h/my_console.h **** 
   3:src/../h/../h/my_console.h **** #include "../h/risc.h"
   4:src/../h/../h/my_console.h **** 
   5:src/../h/../h/my_console.h **** #include "../lib/console.h"
   6:src/../h/../h/my_console.h **** #include "../lib/hw.h"
   7:src/../h/../h/my_console.h **** 
   8:src/../h/../h/my_console.h **** #define __DEBUG_MODE
   9:src/../h/../h/my_console.h **** 
  10:src/../h/../h/my_console.h **** 
  11:src/../h/../h/my_console.h **** void putString(const char* s);
  12:src/../h/../h/my_console.h **** void putInt(int n);
  13:src/../h/../h/my_console.h **** void putNewline();
  14:src/../h/../h/my_console.h **** void putU64(uint64 n);
  15:src/../h/../h/my_console.h **** void putBinary(uint64 n);
  16:src/../h/../h/my_console.h **** 
  17:src/../h/../h/my_console.h **** [[noreturn]] void stopKernel();
  18:src/../h/../h/my_console.h **** 
  19:src/../h/../h/my_console.h **** inline void _assert(bool valid, const char* file, int line) // MUST be inline
  20:src/../h/../h/my_console.h **** {
  21:src/../h/../h/my_console.h ****     if(valid)
 166              		.loc 2 21 5
  22:src/../h/../h/my_console.h ****         return;
  23:src/../h/../h/my_console.h **** 
  24:src/../h/../h/my_console.h ****     putString("===================== ASSERT file: ");
 167              		.loc 2 24 5
 168              		.loc 2 24 14 is_stmt 0
 169 008c 17050000 		lla	a0,.LC0
 169      13050500 
 170 0094 97000000 		call	_Z9putStringPKc@plt
 170      E7800000 
 171              	.LVL9:
  25:src/../h/../h/my_console.h ****     putString(file);
 172              		.loc 2 25 5 is_stmt 1
 173              		.loc 2 25 14 is_stmt 0
 174 009c 17050000 		lla	a0,.LC1
 174      13050500 
 175 00a4 97000000 		call	_Z9putStringPKc@plt
 175      E7800000 
 176              	.LVL10:
  26:src/../h/../h/my_console.h ****     putString("    line: ");
 177              		.loc 2 26 5 is_stmt 1
 178              		.loc 2 26 14 is_stmt 0
 179 00ac 17050000 		lla	a0,.LC2
 179      13050500 
GAS LISTING /tmp/cc5FJUlz.s 			page 6


 180 00b4 97000000 		call	_Z9putStringPKc@plt
 180      E7800000 
 181              	.LVL11:
  27:src/../h/../h/my_console.h ****     putInt(line);
 182              		.loc 2 27 5 is_stmt 1
 183              		.loc 2 27 11 is_stmt 0
 184 00bc 13053002 		li	a0,35
 185 00c0 97000000 		call	_Z6putInti@plt
 185      E7800000 
 186              	.LVL12:
  28:src/../h/../h/my_console.h ****     putString("   ===========================");
 187              		.loc 2 28 5 is_stmt 1
 188              		.loc 2 28 14 is_stmt 0
 189 00c8 17050000 		lla	a0,.LC3
 189      13050500 
 190 00d0 97000000 		call	_Z9putStringPKc@plt
 190      E7800000 
 191              	.LVL13:
  29:src/../h/../h/my_console.h ****     putNewline();
 192              		.loc 2 29 5 is_stmt 1
 193              		.loc 2 29 15 is_stmt 0
 194 00d8 97000000 		call	_Z10putNewlinev@plt
 194      E7800000 
 195              	.LVL14:
  30:src/../h/../h/my_console.h **** 
  31:src/../h/../h/my_console.h ****     stopKernel();
 196              		.loc 2 31 5 is_stmt 1
 197              		.loc 2 31 15 is_stmt 0
 198 00e0 97000000 		call	_Z10stopKernelv@plt
 198      E7800000 
 199              	.LVL15:
 200              	.L4:
 201 00e8 9B890400 		sext.w	s3,s1
 202              	.LBE29:
 203              	.LBE28:
  36:src/trap.cpp  ****     }
  37:src/trap.cpp  ****     __asm__ volatile ("mv x1, x1");
 204              		.loc 1 37 5 is_stmt 1
 205              		.loc 1 37 35 is_stmt 0
 206              	#APP
 207              	# 37 "src/trap.cpp" 1
  38              	
  39:src/trap.cpp  ****     if(cause != 8 && cause != 9)
 208              		mv x1, x1
 209              	# 0 "" 2
 210              		.loc 1 39 5 is_stmt 1
 211              		.loc 1 39 19 is_stmt 0
 212              	#NO_APP
 213 00f0 9B8484FF 		addiw	s1,s1,-8
 214              	.LVL16:
 215              		.loc 1 39 5
 216 00f4 93071000 		li	a5,1
 217 00f8 63EC9708 		bgtu	s1,a5,.L25
  40:src/trap.cpp  ****     {
  41:src/trap.cpp  ****         putString("=== EXCEPETION occured: ");
  42:src/trap.cpp  ****         if(cause == 2)
  43:src/trap.cpp  ****         {
GAS LISTING /tmp/cc5FJUlz.s 			page 7


  44:src/trap.cpp  ****             putString(" Illegal instruction");
  45:src/trap.cpp  ****         }
  46:src/trap.cpp  ****         else if (cause == 5)
  47:src/trap.cpp  ****         {
  48:src/trap.cpp  ****             putString("Unallowed read adress");
  49:src/trap.cpp  ****         }
  50:src/trap.cpp  ****         else if (cause == 7)
  51:src/trap.cpp  ****         {
  52:src/trap.cpp  ****             putString("Unallowed write adress");
  53:src/trap.cpp  ****         }
  54:src/trap.cpp  ****         else
  55:src/trap.cpp  ****         {
  56:src/trap.cpp  ****             putString("UKNOWN EXCEPTION. ??????????????");
  57:src/trap.cpp  ****             assert(false);
  58:src/trap.cpp  ****         }
  59:src/trap.cpp  ****         putNewline();
  60:src/trap.cpp  ****         putString("Terminating kernel");
  61:src/trap.cpp  ****         putNewline();
  62:src/trap.cpp  ****         assert(false);
  63:src/trap.cpp  ****     }
  64:src/trap.cpp  **** 
  65:src/trap.cpp  **** 
  66:src/trap.cpp  ****     uint64 ret = -1;
 218              		.loc 1 66 5 is_stmt 1
 219              		.loc 1 66 12 is_stmt 0
 220 00fc 9307F0FF 		li	a5,-1
 221 0100 233CF4FA 		sd	a5,-72(s0)
  67:src/trap.cpp  ****     if(code == 1)
 222              		.loc 1 67 5 is_stmt 1
 223              	.LBB30:
 224 0104 93071000 		li	a5,1
 225 0108 6308F91C 		beq	s2,a5,.L26
 226              	.LBE30:
  68:src/trap.cpp  ****     {
  69:src/trap.cpp  ****         ret = (uint64)MemAlloc::get()->allocMem(parameter1);
  70:src/trap.cpp  ****     }
  71:src/trap.cpp  ****     else if (code == 2)
 227              		.loc 1 71 10
 228              	.LBB52:
 229              	.LBB31:
 230 010c 93072000 		li	a5,2
 231 0110 630CF928 		beq	s2,a5,.L27
 232              	.LBE31:
 233              	.LBE52:
  72:src/trap.cpp  ****     {
  73:src/trap.cpp  ****         *((int*)&ret) = MemAlloc::get()->freeMem((void*)parameter1);
  74:src/trap.cpp  ****     }
  75:src/trap.cpp  ****     else if (code == 0x11)
 234              		.loc 1 75 10
 235              	.LBB53:
 236              	.LBB48:
 237              	.LBB32:
 238 0114 93071001 		li	a5,17
 239 0118 6306F92A 		beq	s2,a5,.L28
 240              	.LBE32:
 241              	.LBE48:
 242              	.LBE53:
GAS LISTING /tmp/cc5FJUlz.s 			page 8


  76:src/trap.cpp  ****     {
  77:src/trap.cpp  ****         *((int*)&ret) = Thread::createThread((uint64*)parameter1, (Thread::Body)parameter2, (void*)
  78:src/trap.cpp  ****     }
  79:src/trap.cpp  ****     else if (code == 0x12)
 243              		.loc 1 79 10
 244              	.LBB54:
 245              	.LBB49:
 246              	.LBB45:
 247              	.LBB33:
 248 011c 93072001 		li	a5,18
 249 0120 6300F92C 		beq	s2,a5,.L29
 250              	.LBE33:
 251              	.LBE45:
 252              	.LBE49:
 253              	.LBE54:
  80:src/trap.cpp  ****     {
  81:src/trap.cpp  ****        *((int*)&ret) = Thread::exit();
  82:src/trap.cpp  ****     }
  83:src/trap.cpp  ****     else if (code == 0x13)
 254              		.loc 1 83 10
 255              	.LBB55:
 256              	.LBB50:
 257              	.LBB46:
 258              	.LBB43:
 259              	.LBB34:
 260 0124 93073001 		li	a5,19
 261 0128 6304F92C 		beq	s2,a5,.L30
  84:src/trap.cpp  ****     {
  85:src/trap.cpp  ****         extern Thread kernelThread;
  86:src/trap.cpp  ****         if(Thread::getPRunning() != &kernelThread)
  87:src/trap.cpp  ****         {
  88:src/trap.cpp  ****             Thread::getPRunning()->state = Thread::READY;
  89:src/trap.cpp  ****             Scheduler::put(Thread::getPRunning());
  90:src/trap.cpp  ****         }
  91:src/trap.cpp  ****         else
  92:src/trap.cpp  ****         { // just an assert
  93:src/trap.cpp  ****             assert(Thread::switchedToUserThread == false);
  94:src/trap.cpp  ****             Thread::switchedToUserThread = true;
  95:src/trap.cpp  ****         }
  96:src/trap.cpp  ****         Scheduler::dispatchToNext();
  97:src/trap.cpp  ****     }
  98:src/trap.cpp  **** #ifdef __DEBUG_MODE
  99:src/trap.cpp  ****     else if (code == 3) // Test call
 262              		.loc 1 99 10
 263 012c 93073000 		li	a5,3
 264 0130 6304F938 		beq	s2,a5,.L31
 100:src/trap.cpp  ****     {
 101:src/trap.cpp  ****         ret = (uint64)testCall(parameter1);
 102:src/trap.cpp  ****     }
 103:src/trap.cpp  **** #endif
 104:src/trap.cpp  ****     else
 105:src/trap.cpp  ****     {
 106:src/trap.cpp  ****         assert(false); // unknown code
 265              		.loc 1 106 9
 266              	.LVL17:
 267              	.LBB35:
 268              	.LBB36:
GAS LISTING /tmp/cc5FJUlz.s 			page 9


  21:src/../h/../h/my_console.h ****         return;
 269              		.loc 2 21 5
  24:src/../h/../h/my_console.h ****     putString(file);
 270              		.loc 2 24 5
  24:src/../h/../h/my_console.h ****     putString(file);
 271              		.loc 2 24 14 is_stmt 0
 272 0134 17050000 		lla	a0,.LC0
 272      13050500 
 273 013c 97000000 		call	_Z9putStringPKc@plt
 273      E7800000 
 274              	.LVL18:
  25:src/../h/../h/my_console.h ****     putString("    line: ");
 275              		.loc 2 25 5 is_stmt 1
  25:src/../h/../h/my_console.h ****     putString("    line: ");
 276              		.loc 2 25 14 is_stmt 0
 277 0144 17050000 		lla	a0,.LC1
 277      13050500 
 278 014c 97000000 		call	_Z9putStringPKc@plt
 278      E7800000 
 279              	.LVL19:
  26:src/../h/../h/my_console.h ****     putInt(line);
 280              		.loc 2 26 5 is_stmt 1
  26:src/../h/../h/my_console.h ****     putInt(line);
 281              		.loc 2 26 14 is_stmt 0
 282 0154 17050000 		lla	a0,.LC2
 282      13050500 
 283 015c 97000000 		call	_Z9putStringPKc@plt
 283      E7800000 
 284              	.LVL20:
  27:src/../h/../h/my_console.h ****     putString("   ===========================");
 285              		.loc 2 27 5 is_stmt 1
  27:src/../h/../h/my_console.h ****     putString("   ===========================");
 286              		.loc 2 27 11 is_stmt 0
 287 0164 1305A006 		li	a0,106
 288 0168 97000000 		call	_Z6putInti@plt
 288      E7800000 
 289              	.LVL21:
  28:src/../h/../h/my_console.h ****     putNewline();
 290              		.loc 2 28 5 is_stmt 1
  28:src/../h/../h/my_console.h ****     putNewline();
 291              		.loc 2 28 14 is_stmt 0
 292 0170 17050000 		lla	a0,.LC3
 292      13050500 
 293 0178 97000000 		call	_Z9putStringPKc@plt
 293      E7800000 
 294              	.LVL22:
  29:src/../h/../h/my_console.h **** 
 295              		.loc 2 29 5 is_stmt 1
  29:src/../h/../h/my_console.h **** 
 296              		.loc 2 29 15 is_stmt 0
 297 0180 97000000 		call	_Z10putNewlinev@plt
 297      E7800000 
 298              	.LVL23:
 299              		.loc 2 31 5 is_stmt 1
 300              		.loc 2 31 15 is_stmt 0
 301 0188 97000000 		call	_Z10stopKernelv@plt
 301      E7800000 
GAS LISTING /tmp/cc5FJUlz.s 			page 10


 302              	.LVL24:
 303              	.L25:
 304              	.LBE36:
 305              	.LBE35:
 306              	.LBE34:
 307              	.LBE43:
 308              	.LBE46:
 309              	.LBE50:
 310              	.LBE55:
  41:src/trap.cpp  ****         if(cause == 2)
 311              		.loc 1 41 9 is_stmt 1
  41:src/trap.cpp  ****         if(cause == 2)
 312              		.loc 1 41 18 is_stmt 0
 313 0190 17050000 		lla	a0,.LC4
 313      13050500 
 314 0198 97000000 		call	_Z9putStringPKc@plt
 314      E7800000 
 315              	.LVL25:
  42:src/trap.cpp  ****         {
 316              		.loc 1 42 9 is_stmt 1
 317 01a0 93072000 		li	a5,2
 318 01a4 6380F908 		beq	s3,a5,.L32
  46:src/trap.cpp  ****         {
 319              		.loc 1 46 14
 320 01a8 93075000 		li	a5,5
 321 01ac 6386F908 		beq	s3,a5,.L33
  50:src/trap.cpp  ****         {
 322              		.loc 1 50 14
 323 01b0 93077000 		li	a5,7
 324 01b4 638CF908 		beq	s3,a5,.L34
  56:src/trap.cpp  ****             assert(false);
 325              		.loc 1 56 13
  56:src/trap.cpp  ****             assert(false);
 326              		.loc 1 56 22 is_stmt 0
 327 01b8 17050000 		lla	a0,.LC8
 327      13050500 
 328 01c0 97000000 		call	_Z9putStringPKc@plt
 328      E7800000 
 329              	.LVL26:
  57:src/trap.cpp  ****         }
 330              		.loc 1 57 13 is_stmt 1
 331              	.LBB56:
 332              	.LBB57:
  21:src/../h/../h/my_console.h ****         return;
 333              		.loc 2 21 5
  24:src/../h/../h/my_console.h ****     putString(file);
 334              		.loc 2 24 5
  24:src/../h/../h/my_console.h ****     putString(file);
 335              		.loc 2 24 14 is_stmt 0
 336 01c8 17050000 		lla	a0,.LC0
 336      13050500 
 337 01d0 97000000 		call	_Z9putStringPKc@plt
 337      E7800000 
 338              	.LVL27:
  25:src/../h/../h/my_console.h ****     putString("    line: ");
 339              		.loc 2 25 5 is_stmt 1
  25:src/../h/../h/my_console.h ****     putString("    line: ");
GAS LISTING /tmp/cc5FJUlz.s 			page 11


 340              		.loc 2 25 14 is_stmt 0
 341 01d8 17050000 		lla	a0,.LC1
 341      13050500 
 342 01e0 97000000 		call	_Z9putStringPKc@plt
 342      E7800000 
 343              	.LVL28:
  26:src/../h/../h/my_console.h ****     putInt(line);
 344              		.loc 2 26 5 is_stmt 1
  26:src/../h/../h/my_console.h ****     putInt(line);
 345              		.loc 2 26 14 is_stmt 0
 346 01e8 17050000 		lla	a0,.LC2
 346      13050500 
 347 01f0 97000000 		call	_Z9putStringPKc@plt
 347      E7800000 
 348              	.LVL29:
  27:src/../h/../h/my_console.h ****     putString("   ===========================");
 349              		.loc 2 27 5 is_stmt 1
  27:src/../h/../h/my_console.h ****     putString("   ===========================");
 350              		.loc 2 27 11 is_stmt 0
 351 01f8 13059003 		li	a0,57
 352 01fc 97000000 		call	_Z6putInti@plt
 352      E7800000 
 353              	.LVL30:
  28:src/../h/../h/my_console.h ****     putNewline();
 354              		.loc 2 28 5 is_stmt 1
  28:src/../h/../h/my_console.h ****     putNewline();
 355              		.loc 2 28 14 is_stmt 0
 356 0204 17050000 		lla	a0,.LC3
 356      13050500 
 357 020c 97000000 		call	_Z9putStringPKc@plt
 357      E7800000 
 358              	.LVL31:
  29:src/../h/../h/my_console.h **** 
 359              		.loc 2 29 5 is_stmt 1
  29:src/../h/../h/my_console.h **** 
 360              		.loc 2 29 15 is_stmt 0
 361 0214 97000000 		call	_Z10putNewlinev@plt
 361      E7800000 
 362              	.LVL32:
 363              		.loc 2 31 5 is_stmt 1
 364              		.loc 2 31 15 is_stmt 0
 365 021c 97000000 		call	_Z10stopKernelv@plt
 365      E7800000 
 366              	.LVL33:
 367              	.L32:
 368              	.LBE57:
 369              	.LBE56:
  44:src/trap.cpp  ****         }
 370              		.loc 1 44 13 is_stmt 1
  44:src/trap.cpp  ****         }
 371              		.loc 1 44 22 is_stmt 0
 372 0224 17050000 		lla	a0,.LC5
 372      13050500 
 373 022c 97000000 		call	_Z9putStringPKc@plt
 373      E7800000 
 374              	.LVL34:
 375 0234 6F008002 		j	.L7
GAS LISTING /tmp/cc5FJUlz.s 			page 12


 376              	.L33:
  48:src/trap.cpp  ****         }
 377              		.loc 1 48 13 is_stmt 1
  48:src/trap.cpp  ****         }
 378              		.loc 1 48 22 is_stmt 0
 379 0238 17050000 		lla	a0,.LC6
 379      13050500 
 380 0240 97000000 		call	_Z9putStringPKc@plt
 380      E7800000 
 381              	.LVL35:
 382 0248 6F004001 		j	.L7
 383              	.L34:
  52:src/trap.cpp  ****         }
 384              		.loc 1 52 13 is_stmt 1
  52:src/trap.cpp  ****         }
 385              		.loc 1 52 22 is_stmt 0
 386 024c 17050000 		lla	a0,.LC7
 386      13050500 
 387 0254 97000000 		call	_Z9putStringPKc@plt
 387      E7800000 
 388              	.LVL36:
 389              	.L7:
  59:src/trap.cpp  ****         putString("Terminating kernel");
 390              		.loc 1 59 9 is_stmt 1
  59:src/trap.cpp  ****         putString("Terminating kernel");
 391              		.loc 1 59 19 is_stmt 0
 392 025c 97000000 		call	_Z10putNewlinev@plt
 392      E7800000 
 393              	.LVL37:
  60:src/trap.cpp  ****         putNewline();
 394              		.loc 1 60 9 is_stmt 1
  60:src/trap.cpp  ****         putNewline();
 395              		.loc 1 60 18 is_stmt 0
 396 0264 17050000 		lla	a0,.LC9
 396      13050500 
 397 026c 97000000 		call	_Z9putStringPKc@plt
 397      E7800000 
 398              	.LVL38:
  61:src/trap.cpp  ****         assert(false);
 399              		.loc 1 61 9 is_stmt 1
  61:src/trap.cpp  ****         assert(false);
 400              		.loc 1 61 19 is_stmt 0
 401 0274 97000000 		call	_Z10putNewlinev@plt
 401      E7800000 
 402              	.LVL39:
  62:src/trap.cpp  ****     }
 403              		.loc 1 62 9 is_stmt 1
 404              	.LBB58:
 405              	.LBB59:
  21:src/../h/../h/my_console.h ****         return;
 406              		.loc 2 21 5
  24:src/../h/../h/my_console.h ****     putString(file);
 407              		.loc 2 24 5
  24:src/../h/../h/my_console.h ****     putString(file);
 408              		.loc 2 24 14 is_stmt 0
 409 027c 17050000 		lla	a0,.LC0
 409      13050500 
GAS LISTING /tmp/cc5FJUlz.s 			page 13


 410 0284 97000000 		call	_Z9putStringPKc@plt
 410      E7800000 
 411              	.LVL40:
  25:src/../h/../h/my_console.h ****     putString("    line: ");
 412              		.loc 2 25 5 is_stmt 1
  25:src/../h/../h/my_console.h ****     putString("    line: ");
 413              		.loc 2 25 14 is_stmt 0
 414 028c 17050000 		lla	a0,.LC1
 414      13050500 
 415 0294 97000000 		call	_Z9putStringPKc@plt
 415      E7800000 
 416              	.LVL41:
  26:src/../h/../h/my_console.h ****     putInt(line);
 417              		.loc 2 26 5 is_stmt 1
  26:src/../h/../h/my_console.h ****     putInt(line);
 418              		.loc 2 26 14 is_stmt 0
 419 029c 17050000 		lla	a0,.LC2
 419      13050500 
 420 02a4 97000000 		call	_Z9putStringPKc@plt
 420      E7800000 
 421              	.LVL42:
  27:src/../h/../h/my_console.h ****     putString("   ===========================");
 422              		.loc 2 27 5 is_stmt 1
  27:src/../h/../h/my_console.h ****     putString("   ===========================");
 423              		.loc 2 27 11 is_stmt 0
 424 02ac 1305E003 		li	a0,62
 425 02b0 97000000 		call	_Z6putInti@plt
 425      E7800000 
 426              	.LVL43:
  28:src/../h/../h/my_console.h ****     putNewline();
 427              		.loc 2 28 5 is_stmt 1
  28:src/../h/../h/my_console.h ****     putNewline();
 428              		.loc 2 28 14 is_stmt 0
 429 02b8 17050000 		lla	a0,.LC3
 429      13050500 
 430 02c0 97000000 		call	_Z9putStringPKc@plt
 430      E7800000 
 431              	.LVL44:
  29:src/../h/../h/my_console.h **** 
 432              		.loc 2 29 5 is_stmt 1
  29:src/../h/../h/my_console.h **** 
 433              		.loc 2 29 15 is_stmt 0
 434 02c8 97000000 		call	_Z10putNewlinev@plt
 434      E7800000 
 435              	.LVL45:
 436              		.loc 2 31 5 is_stmt 1
 437              		.loc 2 31 15 is_stmt 0
 438 02d0 97000000 		call	_Z10stopKernelv@plt
 438      E7800000 
 439              	.LVL46:
 440              	.L26:
 441              	.LBE59:
 442              	.LBE58:
 443              	.LBB60:
  69:src/trap.cpp  ****     }
 444              		.loc 1 69 9 is_stmt 1
  69:src/trap.cpp  ****     }
GAS LISTING /tmp/cc5FJUlz.s 			page 14


 445              		.loc 1 69 48 is_stmt 0
 446 02d8 97000000 		call	_ZN8MemAlloc3getEv@plt
 446      E7800000 
 447              	.LVL47:
 448 02e0 93050A00 		mv	a1,s4
 449 02e4 97000000 		call	_ZN8MemAlloc8allocMemEm@plt
 449      E7800000 
 450              	.LVL48:
  69:src/trap.cpp  ****     }
 451              		.loc 1 69 13
 452 02ec 233CA4FA 		sd	a0,-72(s0)
 453              	.L11:
 454              	.LBE60:
 107:src/trap.cpp  ****         assert(false); // unknown code
 108:src/trap.cpp  ****         assert(false); // unknown code
 109:src/trap.cpp  ****         assert(false); // unknown code
 110:src/trap.cpp  ****     }
 111:src/trap.cpp  **** 
 112:src/trap.cpp  **** //    __asm__ volatile ("mv a0, %[name]" : : [name] "r" (ret)); // upaliti ovo dole umesto ovoga (o
 113:src/trap.cpp  **** 
 114:src/trap.cpp  ****     bool normalCallWithReturn = (code == 0x1 || code == 0x2 || code == 0x11 || code == 0x12 || code
 455              		.loc 1 114 5 is_stmt 1
 456              		.loc 1 114 46 is_stmt 0
 457 02f0 9307F9FF 		addi	a5,s2,-1
 458              		.loc 1 114 173
 459 02f4 13071000 		li	a4,1
 460 02f8 637AF71C 		bleu	a5,a4,.L20
 461              		.loc 1 114 61 discriminator 2
 462 02fc 93071001 		li	a5,17
 463 0300 6306F91C 		beq	s2,a5,.L20
 464              		.loc 1 114 77 discriminator 4
 465 0304 93072001 		li	a5,18
 466 0308 6302F91C 		beq	s2,a5,.L20
 467              		.loc 1 114 93 discriminator 6
 468 030c 93071002 		li	a5,33
 469 0310 630EF91A 		beq	s2,a5,.L20
 470              		.loc 1 114 109 discriminator 8
 471 0314 93072002 		li	a5,34
 472 0318 630AF91A 		beq	s2,a5,.L20
 473              		.loc 1 114 125 discriminator 10
 474 031c 93073002 		li	a5,35
 475 0320 6306F91A 		beq	s2,a5,.L20
 476              		.loc 1 114 141 discriminator 12
 477 0324 93074002 		li	a5,36
 478 0328 6302F91A 		beq	s2,a5,.L20
 479              		.loc 1 114 157 discriminator 14
 480 032c 93071003 		li	a5,49
 481 0330 630EF918 		beq	s2,a5,.L20
 482              		.loc 1 114 173 discriminator 16
 483 0334 93071004 		li	a5,65
 484 0338 630AF918 		beq	s2,a5,.L20
 485              	.LVL49:
 115:src/trap.cpp  ****     bool customCallWithReturn = (code == 0x3);
 486              		.loc 1 115 5 is_stmt 1
 116:src/trap.cpp  ****     bool normalCallWithoutReturn = (code == 0x13 && code != 0x14 && code != 0x42);
 487              		.loc 1 116 5
 117:src/trap.cpp  ****     if(normalCallWithReturn || customCallWithReturn)
GAS LISTING /tmp/cc5FJUlz.s 			page 15


 488              		.loc 1 117 5
 489              		.loc 1 117 29 is_stmt 0
 490 033c 93073000 		li	a5,3
 491 0340 6306F918 		beq	s2,a5,.L20
 118:src/trap.cpp  ****     { // system call with a return (not necessariliy 64bit)
 119:src/trap.cpp  **** 
 120:src/trap.cpp  ****         assert(ret != (uint64)-1); // not 100% check
 121:src/trap.cpp  **** 
 122:src/trap.cpp  ****         __asm__ volatile ("mv a0, %[name]" : : [name] "r" (ret));
 123:src/trap.cpp  ****     }
 124:src/trap.cpp  ****     else if(normalCallWithoutReturn) // this exists for safety reasons
 492              		.loc 1 124 10 is_stmt 1
 493 0344 93073001 		li	a5,19
 494 0348 630CF918 		beq	s2,a5,.L3
 125:src/trap.cpp  ****     {
 126:src/trap.cpp  ****         ;
 127:src/trap.cpp  ****     }
 128:src/trap.cpp  ****     else
 129:src/trap.cpp  ****     {
 130:src/trap.cpp  ****         assert(false);
 495              		.loc 1 130 9
 496              	.LVL50:
 497              	.LBB61:
 498              	.LBB62:
  21:src/../h/../h/my_console.h ****         return;
 499              		.loc 2 21 5
  24:src/../h/../h/my_console.h ****     putString(file);
 500              		.loc 2 24 5
  24:src/../h/../h/my_console.h ****     putString(file);
 501              		.loc 2 24 14 is_stmt 0
 502 034c 17050000 		lla	a0,.LC0
 502      13050500 
 503 0354 97000000 		call	_Z9putStringPKc@plt
 503      E7800000 
 504              	.LVL51:
  25:src/../h/../h/my_console.h ****     putString("    line: ");
 505              		.loc 2 25 5 is_stmt 1
  25:src/../h/../h/my_console.h ****     putString("    line: ");
 506              		.loc 2 25 14 is_stmt 0
 507 035c 17050000 		lla	a0,.LC1
 507      13050500 
 508 0364 97000000 		call	_Z9putStringPKc@plt
 508      E7800000 
 509              	.LVL52:
  26:src/../h/../h/my_console.h ****     putInt(line);
 510              		.loc 2 26 5 is_stmt 1
  26:src/../h/../h/my_console.h ****     putInt(line);
 511              		.loc 2 26 14 is_stmt 0
 512 036c 17050000 		lla	a0,.LC2
 512      13050500 
 513 0374 97000000 		call	_Z9putStringPKc@plt
 513      E7800000 
 514              	.LVL53:
  27:src/../h/../h/my_console.h ****     putString("   ===========================");
 515              		.loc 2 27 5 is_stmt 1
  27:src/../h/../h/my_console.h ****     putString("   ===========================");
 516              		.loc 2 27 11 is_stmt 0
GAS LISTING /tmp/cc5FJUlz.s 			page 16


 517 037c 13052008 		li	a0,130
 518 0380 97000000 		call	_Z6putInti@plt
 518      E7800000 
 519              	.LVL54:
  28:src/../h/../h/my_console.h ****     putNewline();
 520              		.loc 2 28 5 is_stmt 1
  28:src/../h/../h/my_console.h ****     putNewline();
 521              		.loc 2 28 14 is_stmt 0
 522 0388 17050000 		lla	a0,.LC3
 522      13050500 
 523 0390 97000000 		call	_Z9putStringPKc@plt
 523      E7800000 
 524              	.LVL55:
  29:src/../h/../h/my_console.h **** 
 525              		.loc 2 29 5 is_stmt 1
  29:src/../h/../h/my_console.h **** 
 526              		.loc 2 29 15 is_stmt 0
 527 0398 97000000 		call	_Z10putNewlinev@plt
 527      E7800000 
 528              	.LVL56:
 529              		.loc 2 31 5 is_stmt 1
 530              		.loc 2 31 15 is_stmt 0
 531 03a0 97000000 		call	_Z10stopKernelv@plt
 531      E7800000 
 532              	.LVL57:
 533              	.L27:
 534              	.LBE62:
 535              	.LBE61:
 536              	.LBB63:
 537              	.LBB51:
  73:src/trap.cpp  ****     }
 538              		.loc 1 73 9 is_stmt 1
  73:src/trap.cpp  ****     }
 539              		.loc 1 73 49 is_stmt 0
 540 03a8 97000000 		call	_ZN8MemAlloc3getEv@plt
 540      E7800000 
 541              	.LVL58:
 542 03b0 93050A00 		mv	a1,s4
 543 03b4 97000000 		call	_ZN8MemAlloc7freeMemEPv@plt
 543      E7800000 
 544              	.LVL59:
  73:src/trap.cpp  ****     }
 545              		.loc 1 73 23
 546 03bc 232CA4FA 		sw	a0,-72(s0)
 547 03c0 6FF01FF3 		j	.L11
 548              	.L28:
 549              	.LBB47:
  77:src/trap.cpp  ****     }
 550              		.loc 1 77 9 is_stmt 1
  77:src/trap.cpp  ****     }
 551              		.loc 1 77 45 is_stmt 0
 552 03c4 13060B00 		mv	a2,s6
 553 03c8 93850A00 		mv	a1,s5
 554 03cc 13050A00 		mv	a0,s4
 555 03d0 97000000 		call	_ZN6Thread12createThreadEPmPFvPvES1_@plt
 555      E7800000 
 556              	.LVL60:
GAS LISTING /tmp/cc5FJUlz.s 			page 17


  77:src/trap.cpp  ****     }
 557              		.loc 1 77 23
 558 03d8 232CA4FA 		sw	a0,-72(s0)
 559 03dc 6FF05FF1 		j	.L11
 560              	.L29:
 561              	.LBB44:
  81:src/trap.cpp  ****     }
 562              		.loc 1 81 8 is_stmt 1
  81:src/trap.cpp  ****     }
 563              		.loc 1 81 36 is_stmt 0
 564 03e0 97000000 		call	_ZN6Thread4exitEv@plt
 564      E7800000 
 565              	.LVL61:
  81:src/trap.cpp  ****     }
 566              		.loc 1 81 22
 567 03e8 232CA4FA 		sw	a0,-72(s0)
 568 03ec 6FF05FF0 		j	.L11
 569              	.L30:
 570              	.LBB42:
 571              	.LBB37:
  85:src/trap.cpp  ****         if(Thread::getPRunning() != &kernelThread)
 572              		.loc 1 85 9 is_stmt 1
  86:src/trap.cpp  ****         {
 573              		.loc 1 86 9
  86:src/trap.cpp  ****         {
 574              		.loc 1 86 31 is_stmt 0
 575 03f0 97000000 		call	_ZN6Thread11getPRunningEv@plt
 575      E7800000 
 576              	.LVL62:
  86:src/trap.cpp  ****         {
 577              		.loc 1 86 9
 578 03f8 97070000 		la	a5,kernelThread
 578      83B70700 
 579 0400 6388A702 		beq	a5,a0,.L16
  88:src/trap.cpp  ****             Scheduler::put(Thread::getPRunning());
 580              		.loc 1 88 13 is_stmt 1
  88:src/trap.cpp  ****             Scheduler::put(Thread::getPRunning());
 581              		.loc 1 88 32 is_stmt 0
 582 0404 97000000 		call	_ZN6Thread11getPRunningEv@plt
 582      E7800000 
 583              	.LVL63:
  88:src/trap.cpp  ****             Scheduler::put(Thread::getPRunning());
 584              		.loc 1 88 42
 585 040c 93072000 		li	a5,2
 586 0410 2320F500 		sw	a5,0(a0)
  89:src/trap.cpp  ****         }
 587              		.loc 1 89 13 is_stmt 1
  89:src/trap.cpp  ****         }
 588              		.loc 1 89 27 is_stmt 0
 589 0414 97000000 		call	_ZN6Thread11getPRunningEv@plt
 589      E7800000 
 590              	.LVL64:
 591 041c 97000000 		call	_ZN9Scheduler3putEP6Thread@plt
 591      E7800000 
 592              	.LVL65:
 593              	.L17:
  96:src/trap.cpp  ****     }
GAS LISTING /tmp/cc5FJUlz.s 			page 18


 594              		.loc 1 96 9 is_stmt 1
  96:src/trap.cpp  ****     }
 595              		.loc 1 96 34 is_stmt 0
 596 0424 97000000 		call	_ZN9Scheduler14dispatchToNextEv@plt
 596      E7800000 
 597              	.LVL66:
 598 042c 6FF05FEC 		j	.L11
 599              	.L16:
  93:src/trap.cpp  ****             Thread::switchedToUserThread = true;
 600              		.loc 1 93 13 is_stmt 1
 601 0430 97070000 		la	a5,_ZN6Thread20switchedToUserThreadE
 601      83B70700 
 602 0438 83C70700 		lbu	a5,0(a5)
 603 043c 93C71700 		xori	a5,a5,1
 604 0440 93F7F70F 		andi	a5,a5,0xff
 605              	.LVL67:
 606              	.LBB38:
 607              	.LBB39:
  21:src/../h/../h/my_console.h ****         return;
 608              		.loc 2 21 5
 609 0444 638C0700 		beqz	a5,.L35
  22:src/../h/../h/my_console.h **** 
 610              		.loc 2 22 9
 611              	.LVL68:
 612              	.LBE39:
 613              	.LBE38:
  94:src/trap.cpp  ****         }
 614              		.loc 1 94 13
  94:src/trap.cpp  ****         }
 615              		.loc 1 94 42 is_stmt 0
 616 0448 97070000 		la	a5,_ZN6Thread20switchedToUserThreadE
 616      83B70700 
 617 0450 13071000 		li	a4,1
 618 0454 2380E700 		sb	a4,0(a5)
 619 0458 6FF0DFFC 		j	.L17
 620              	.LVL69:
 621              	.L35:
 622              	.LBB41:
 623              	.LBB40:
  24:src/../h/../h/my_console.h ****     putString(file);
 624              		.loc 2 24 5 is_stmt 1
  24:src/../h/../h/my_console.h ****     putString(file);
 625              		.loc 2 24 14 is_stmt 0
 626 045c 17050000 		lla	a0,.LC0
 626      13050500 
 627 0464 97000000 		call	_Z9putStringPKc@plt
 627      E7800000 
 628              	.LVL70:
  25:src/../h/../h/my_console.h ****     putString("    line: ");
 629              		.loc 2 25 5 is_stmt 1
  25:src/../h/../h/my_console.h ****     putString("    line: ");
 630              		.loc 2 25 14 is_stmt 0
 631 046c 17050000 		lla	a0,.LC1
 631      13050500 
 632 0474 97000000 		call	_Z9putStringPKc@plt
 632      E7800000 
 633              	.LVL71:
GAS LISTING /tmp/cc5FJUlz.s 			page 19


  26:src/../h/../h/my_console.h ****     putInt(line);
 634              		.loc 2 26 5 is_stmt 1
  26:src/../h/../h/my_console.h ****     putInt(line);
 635              		.loc 2 26 14 is_stmt 0
 636 047c 17050000 		lla	a0,.LC2
 636      13050500 
 637 0484 97000000 		call	_Z9putStringPKc@plt
 637      E7800000 
 638              	.LVL72:
  27:src/../h/../h/my_console.h ****     putString("   ===========================");
 639              		.loc 2 27 5 is_stmt 1
  27:src/../h/../h/my_console.h ****     putString("   ===========================");
 640              		.loc 2 27 11 is_stmt 0
 641 048c 1305D005 		li	a0,93
 642 0490 97000000 		call	_Z6putInti@plt
 642      E7800000 
 643              	.LVL73:
  28:src/../h/../h/my_console.h ****     putNewline();
 644              		.loc 2 28 5 is_stmt 1
  28:src/../h/../h/my_console.h ****     putNewline();
 645              		.loc 2 28 14 is_stmt 0
 646 0498 17050000 		lla	a0,.LC3
 646      13050500 
 647 04a0 97000000 		call	_Z9putStringPKc@plt
 647      E7800000 
 648              	.LVL74:
  29:src/../h/../h/my_console.h **** 
 649              		.loc 2 29 5 is_stmt 1
  29:src/../h/../h/my_console.h **** 
 650              		.loc 2 29 15 is_stmt 0
 651 04a8 97000000 		call	_Z10putNewlinev@plt
 651      E7800000 
 652              	.LVL75:
 653              		.loc 2 31 5 is_stmt 1
 654              		.loc 2 31 15 is_stmt 0
 655 04b0 97000000 		call	_Z10stopKernelv@plt
 655      E7800000 
 656              	.LVL76:
 657              	.L31:
 658              	.LBE40:
 659              	.LBE41:
 660              	.LBE37:
 101:src/trap.cpp  ****     }
 661              		.loc 1 101 9 is_stmt 1
 101:src/trap.cpp  ****     }
 662              		.loc 1 101 31 is_stmt 0
 663 04b8 13050A00 		mv	a0,s4
 664 04bc 97000000 		call	_Z8testCallm
 664      E7800000 
 665              	.LVL77:
 101:src/trap.cpp  ****     }
 666              		.loc 1 101 13
 667 04c4 233CA4FA 		sd	a0,-72(s0)
 668 04c8 6FF09FE2 		j	.L11
 669              	.L20:
 670              	.LBE42:
 671              	.LBE44:
GAS LISTING /tmp/cc5FJUlz.s 			page 20


 672              	.LBE47:
 673              	.LBE51:
 674              	.LBE63:
 120:src/trap.cpp  **** 
 675              		.loc 1 120 9 is_stmt 1
 676 04cc 833784FB 		ld	a5,-72(s0)
 677 04d0 93871700 		addi	a5,a5,1
 678              	.LVL78:
 679              	.LBB64:
 680              	.LBB65:
  21:src/../h/../h/my_console.h ****         return;
 681              		.loc 2 21 5
 682 04d4 638A0702 		beqz	a5,.L36
  22:src/../h/../h/my_console.h **** 
 683              		.loc 2 22 9
 684              	.LVL79:
 685              	.LBE65:
 686              	.LBE64:
 122:src/trap.cpp  ****     }
 687              		.loc 1 122 9
 122:src/trap.cpp  ****     }
 688              		.loc 1 122 65 is_stmt 0
 689 04d8 833784FB 		ld	a5,-72(s0)
 690              	#APP
 691              	# 122 "src/trap.cpp" 1
 692              		mv a0, a5
 693              	# 0 "" 2
 694              	#NO_APP
 695              	.L3:
 131:src/trap.cpp  ****     }
 132:src/trap.cpp  **** 
 133:src/trap.cpp  **** }
 696              		.loc 1 133 1
 697 04e0 83308104 		ld	ra,72(sp)
 698              		.cfi_remember_state
 699              		.cfi_restore 1
 700 04e4 03340104 		ld	s0,64(sp)
 701              		.cfi_restore 8
 702              		.cfi_def_cfa 2, 80
 703 04e8 83348103 		ld	s1,56(sp)
 704              		.cfi_restore 9
 705 04ec 03390103 		ld	s2,48(sp)
 706              		.cfi_restore 18
 707              	.LVL80:
 708 04f0 83398102 		ld	s3,40(sp)
 709              		.cfi_restore 19
 710              	.LVL81:
 711 04f4 033A0102 		ld	s4,32(sp)
 712              		.cfi_restore 20
 713              	.LVL82:
 714 04f8 833A8101 		ld	s5,24(sp)
 715              		.cfi_restore 21
 716              	.LVL83:
 717 04fc 033B0101 		ld	s6,16(sp)
 718              		.cfi_restore 22
 719              	.LVL84:
 720 0500 13010105 		addi	sp,sp,80
GAS LISTING /tmp/cc5FJUlz.s 			page 21


 721              		.cfi_def_cfa_offset 0
 722 0504 67800000 		jr	ra
 723              	.LVL85:
 724              	.L36:
 725              		.cfi_restore_state
 726              	.LBB67:
 727              	.LBB66:
  24:src/../h/../h/my_console.h ****     putString(file);
 728              		.loc 2 24 5 is_stmt 1
  24:src/../h/../h/my_console.h ****     putString(file);
 729              		.loc 2 24 14 is_stmt 0
 730 0508 17050000 		lla	a0,.LC0
 730      13050500 
 731 0510 97000000 		call	_Z9putStringPKc@plt
 731      E7800000 
 732              	.LVL86:
  25:src/../h/../h/my_console.h ****     putString("    line: ");
 733              		.loc 2 25 5 is_stmt 1
  25:src/../h/../h/my_console.h ****     putString("    line: ");
 734              		.loc 2 25 14 is_stmt 0
 735 0518 17050000 		lla	a0,.LC1
 735      13050500 
 736 0520 97000000 		call	_Z9putStringPKc@plt
 736      E7800000 
 737              	.LVL87:
  26:src/../h/../h/my_console.h ****     putInt(line);
 738              		.loc 2 26 5 is_stmt 1
  26:src/../h/../h/my_console.h ****     putInt(line);
 739              		.loc 2 26 14 is_stmt 0
 740 0528 17050000 		lla	a0,.LC2
 740      13050500 
 741 0530 97000000 		call	_Z9putStringPKc@plt
 741      E7800000 
 742              	.LVL88:
  27:src/../h/../h/my_console.h ****     putString("   ===========================");
 743              		.loc 2 27 5 is_stmt 1
  27:src/../h/../h/my_console.h ****     putString("   ===========================");
 744              		.loc 2 27 11 is_stmt 0
 745 0538 13058007 		li	a0,120
 746 053c 97000000 		call	_Z6putInti@plt
 746      E7800000 
 747              	.LVL89:
  28:src/../h/../h/my_console.h ****     putNewline();
 748              		.loc 2 28 5 is_stmt 1
  28:src/../h/../h/my_console.h ****     putNewline();
 749              		.loc 2 28 14 is_stmt 0
 750 0544 17050000 		lla	a0,.LC3
 750      13050500 
 751 054c 97000000 		call	_Z9putStringPKc@plt
 751      E7800000 
 752              	.LVL90:
  29:src/../h/../h/my_console.h **** 
 753              		.loc 2 29 5 is_stmt 1
  29:src/../h/../h/my_console.h **** 
 754              		.loc 2 29 15 is_stmt 0
 755 0554 97000000 		call	_Z10putNewlinev@plt
 755      E7800000 
GAS LISTING /tmp/cc5FJUlz.s 			page 22


 756              	.LVL91:
 757              		.loc 2 31 5 is_stmt 1
 758              		.loc 2 31 15 is_stmt 0
 759 055c 97000000 		call	_Z10stopKernelv@plt
 759      E7800000 
 760              	.LVL92:
 761              	.LBE66:
 762              	.LBE67:
 763              		.cfi_endproc
 764              	.LFE15:
 766              		.section	.rodata.str1.8
 767 010b 00000000 		.align	3
 767      00
 768              	.LC10:
 769 0110 54696D65 		.string	"Time: "
 769      3A2000
 770 0117 00       		.align	3
 771              	.LC11:
 772 0118 7300     		.string	"s"
 773 011a 00000000 		.align	3
 773      0000
 774              	.LC12:
 775 0120 3D3D3D20 		.string	"=== Error: unknown external interrupt"
 775      4572726F 
 775      723A2075 
 775      6E6B6E6F 
 775      776E2065 
 776              		.text
 777              		.align	2
 778              		.globl	_Z25cExternalInterruptRoutinev
 780              	_Z25cExternalInterruptRoutinev:
 781              	.LFB16:
 134:src/trap.cpp  **** 
 135:src/trap.cpp  **** void cExternalInterruptRoutine()
 136:src/trap.cpp  **** {
 782              		.loc 1 136 1 is_stmt 1
 783              		.cfi_startproc
 784 0564 130101FE 		addi	sp,sp,-32
 785              		.cfi_def_cfa_offset 32
 786 0568 233C1100 		sd	ra,24(sp)
 787 056c 23388100 		sd	s0,16(sp)
 788 0570 23349100 		sd	s1,8(sp)
 789              		.cfi_offset 1, -8
 790              		.cfi_offset 8, -16
 791              		.cfi_offset 9, -24
 792 0574 13040102 		addi	s0,sp,32
 793              		.cfi_def_cfa 8, 0
 137:src/trap.cpp  ****     uint64 scause;
 794              		.loc 1 137 5
 138:src/trap.cpp  ****     __asm__ volatile ("csrr %[name], scause" : [name] "=r"(scause));
 795              		.loc 1 138 5
 796              		.loc 1 138 68 is_stmt 0
 797              	#APP
 798              	# 138 "src/trap.cpp" 1
 139              	
 799              		csrr a5, scause
 800              	# 0 "" 2
GAS LISTING /tmp/cc5FJUlz.s 			page 23


 801              	.LVL93:
 140:src/trap.cpp  **** //    int isExternal = (scause & (0x1UL << 63)) != 0;
 141:src/trap.cpp  ****     int cause = scause & (~(1UL << 63));
 802              		.loc 1 141 5 is_stmt 1
 803              		.loc 1 141 9 is_stmt 0
 804              	#NO_APP
 805 057c 9B840700 		sext.w	s1,a5
 806              	.LVL94:
 142:src/trap.cpp  **** 
 143:src/trap.cpp  ****     __asm__ volatile ("csrc sip, 0xA"); // clears the 9th bit in register sip. (the bit signifies e
 807              		.loc 1 143 5 is_stmt 1
 808              		.loc 1 143 39 is_stmt 0
 809              	#APP
 810              	# 143 "src/trap.cpp" 1
 144              	
 145:src/trap.cpp  ****     if(&(Thread::getPRunning()->context[0]) != Thread::pRunningContext) // temp, maybe changes regi
 811              		csrc sip, 0xA
 812              	# 0 "" 2
 813              		.loc 1 145 5 is_stmt 1
 814              		.loc 1 145 29 is_stmt 0
 815              	#NO_APP
 816 0584 97000000 		call	_ZN6Thread11getPRunningEv@plt
 816      E7800000 
 817              	.LVL95:
 818              		.loc 1 145 8
 819 058c 13050501 		addi	a0,a0,16
 820              		.loc 1 145 45
 821 0590 97070000 		la	a5,_ZN6Thread15pRunningContextE
 821      83B70700 
 822 0598 83B70700 		ld	a5,0(a5)
 823              		.loc 1 145 5
 824 059c 6302F506 		beq	a0,a5,.L38
 146:src/trap.cpp  ****     {
 147:src/trap.cpp  ****         __asm__ volatile ("mv x10, x10");
 825              		.loc 1 147 9 is_stmt 1
 826              		.loc 1 147 41 is_stmt 0
 827              	#APP
 828              	# 147 "src/trap.cpp" 1
 148              	        assert(false);
 829              		mv x10, x10
 830              	# 0 "" 2
 831              		.loc 1 148 9 is_stmt 1
 832              	.LVL96:
 833              	#NO_APP
 834              	.LBB74:
 835              	.LBB75:
  21:src/../h/../h/my_console.h ****         return;
 836              		.loc 2 21 5
  24:src/../h/../h/my_console.h ****     putString(file);
 837              		.loc 2 24 5
  24:src/../h/../h/my_console.h ****     putString(file);
 838              		.loc 2 24 14 is_stmt 0
 839 05a4 17050000 		lla	a0,.LC0
 839      13050500 
 840 05ac 97000000 		call	_Z9putStringPKc@plt
 840      E7800000 
 841              	.LVL97:
GAS LISTING /tmp/cc5FJUlz.s 			page 24


  25:src/../h/../h/my_console.h ****     putString("    line: ");
 842              		.loc 2 25 5 is_stmt 1
  25:src/../h/../h/my_console.h ****     putString("    line: ");
 843              		.loc 2 25 14 is_stmt 0
 844 05b4 17050000 		lla	a0,.LC1
 844      13050500 
 845 05bc 97000000 		call	_Z9putStringPKc@plt
 845      E7800000 
 846              	.LVL98:
  26:src/../h/../h/my_console.h ****     putInt(line);
 847              		.loc 2 26 5 is_stmt 1
  26:src/../h/../h/my_console.h ****     putInt(line);
 848              		.loc 2 26 14 is_stmt 0
 849 05c4 17050000 		lla	a0,.LC2
 849      13050500 
 850 05cc 97000000 		call	_Z9putStringPKc@plt
 850      E7800000 
 851              	.LVL99:
  27:src/../h/../h/my_console.h ****     putString("   ===========================");
 852              		.loc 2 27 5 is_stmt 1
  27:src/../h/../h/my_console.h ****     putString("   ===========================");
 853              		.loc 2 27 11 is_stmt 0
 854 05d4 13054009 		li	a0,148
 855 05d8 97000000 		call	_Z6putInti@plt
 855      E7800000 
 856              	.LVL100:
  28:src/../h/../h/my_console.h ****     putNewline();
 857              		.loc 2 28 5 is_stmt 1
  28:src/../h/../h/my_console.h ****     putNewline();
 858              		.loc 2 28 14 is_stmt 0
 859 05e0 17050000 		lla	a0,.LC3
 859      13050500 
 860 05e8 97000000 		call	_Z9putStringPKc@plt
 860      E7800000 
 861              	.LVL101:
  29:src/../h/../h/my_console.h **** 
 862              		.loc 2 29 5 is_stmt 1
  29:src/../h/../h/my_console.h **** 
 863              		.loc 2 29 15 is_stmt 0
 864 05f0 97000000 		call	_Z10putNewlinev@plt
 864      E7800000 
 865              	.LVL102:
 866              		.loc 2 31 5 is_stmt 1
 867              		.loc 2 31 15 is_stmt 0
 868 05f8 97000000 		call	_Z10stopKernelv@plt
 868      E7800000 
 869              	.LVL103:
 870              	.L38:
 871              	.LBE75:
 872              	.LBE74:
 149:src/trap.cpp  ****     }
 150:src/trap.cpp  **** 
 151:src/trap.cpp  ****     if(&(Thread::getPRunning()->context[0]) != Thread::pRunningContext)
 873              		.loc 1 151 5 is_stmt 1
 874              		.loc 1 151 29 is_stmt 0
 875 0600 97000000 		call	_ZN6Thread11getPRunningEv@plt
 875      E7800000 
GAS LISTING /tmp/cc5FJUlz.s 			page 25


 876              	.LVL104:
 877              		.loc 1 151 8
 878 0608 13050501 		addi	a0,a0,16
 879              		.loc 1 151 45
 880 060c 97070000 		la	a5,_ZN6Thread15pRunningContextE
 880      83B70700 
 881 0614 83B70700 		ld	a5,0(a5)
 882              		.loc 1 151 5
 883 0618 6300F506 		beq	a0,a5,.L39
 152:src/trap.cpp  ****     {
 153:src/trap.cpp  ****         assert(false);
 884              		.loc 1 153 9 is_stmt 1
 885              	.LVL105:
 886              	.LBB76:
 887              	.LBB77:
  21:src/../h/../h/my_console.h ****         return;
 888              		.loc 2 21 5
  24:src/../h/../h/my_console.h ****     putString(file);
 889              		.loc 2 24 5
  24:src/../h/../h/my_console.h ****     putString(file);
 890              		.loc 2 24 14 is_stmt 0
 891 061c 17050000 		lla	a0,.LC0
 891      13050500 
 892 0624 97000000 		call	_Z9putStringPKc@plt
 892      E7800000 
 893              	.LVL106:
  25:src/../h/../h/my_console.h ****     putString("    line: ");
 894              		.loc 2 25 5 is_stmt 1
  25:src/../h/../h/my_console.h ****     putString("    line: ");
 895              		.loc 2 25 14 is_stmt 0
 896 062c 17050000 		lla	a0,.LC1
 896      13050500 
 897 0634 97000000 		call	_Z9putStringPKc@plt
 897      E7800000 
 898              	.LVL107:
  26:src/../h/../h/my_console.h ****     putInt(line);
 899              		.loc 2 26 5 is_stmt 1
  26:src/../h/../h/my_console.h ****     putInt(line);
 900              		.loc 2 26 14 is_stmt 0
 901 063c 17050000 		lla	a0,.LC2
 901      13050500 
 902 0644 97000000 		call	_Z9putStringPKc@plt
 902      E7800000 
 903              	.LVL108:
  27:src/../h/../h/my_console.h ****     putString("   ===========================");
 904              		.loc 2 27 5 is_stmt 1
  27:src/../h/../h/my_console.h ****     putString("   ===========================");
 905              		.loc 2 27 11 is_stmt 0
 906 064c 13059009 		li	a0,153
 907 0650 97000000 		call	_Z6putInti@plt
 907      E7800000 
 908              	.LVL109:
  28:src/../h/../h/my_console.h ****     putNewline();
 909              		.loc 2 28 5 is_stmt 1
  28:src/../h/../h/my_console.h ****     putNewline();
 910              		.loc 2 28 14 is_stmt 0
 911 0658 17050000 		lla	a0,.LC3
GAS LISTING /tmp/cc5FJUlz.s 			page 26


 911      13050500 
 912 0660 97000000 		call	_Z9putStringPKc@plt
 912      E7800000 
 913              	.LVL110:
  29:src/../h/../h/my_console.h **** 
 914              		.loc 2 29 5 is_stmt 1
  29:src/../h/../h/my_console.h **** 
 915              		.loc 2 29 15 is_stmt 0
 916 0668 97000000 		call	_Z10putNewlinev@plt
 916      E7800000 
 917              	.LVL111:
 918              		.loc 2 31 5 is_stmt 1
 919              		.loc 2 31 15 is_stmt 0
 920 0670 97000000 		call	_Z10stopKernelv@plt
 920      E7800000 
 921              	.LVL112:
 922              	.L39:
 923              	.LBE77:
 924              	.LBE76:
 154:src/trap.cpp  ****     }
 155:src/trap.cpp  **** 
 156:src/trap.cpp  ****     if (cause == 1)
 925              		.loc 1 156 5 is_stmt 1
 926 0678 93071000 		li	a5,1
 927 067c 6380F408 		beq	s1,a5,.L44
 157:src/trap.cpp  ****     {
 158:src/trap.cpp  ****         Thread::timeSliceCounter++;
 159:src/trap.cpp  ****         gTimer++;
 160:src/trap.cpp  **** 
 161:src/trap.cpp  ****         if (gTimer % 10 == 0)
 162:src/trap.cpp  ****         {
 163:src/trap.cpp  ****             putString("Time: ");
 164:src/trap.cpp  ****             putInt(gTimer / 10);
 165:src/trap.cpp  ****             putString("s");
 166:src/trap.cpp  ****             putNewline();
 167:src/trap.cpp  ****         }
 168:src/trap.cpp  **** 
 169:src/trap.cpp  **** //        if (Thread::timeSliceCounter >= Thread::pRunning->getTimeSlice())
 170:src/trap.cpp  **** //        {
 171:src/trap.cpp  **** //            Thread::timeSliceCounter = 0;
 172:src/trap.cpp  **** //            Scheduler::dispatchToNext();
 173:src/trap.cpp  **** //        }
 174:src/trap.cpp  ****     }
 175:src/trap.cpp  ****     else if (cause == 9)
 928              		.loc 1 175 10
 929 0680 93079000 		li	a5,9
 930 0684 6382F410 		beq	s1,a5,.L45
 176:src/trap.cpp  ****     {
 177:src/trap.cpp  ****         console_handler();
 178:src/trap.cpp  ****     }
 179:src/trap.cpp  ****     else
 180:src/trap.cpp  ****     {
 181:src/trap.cpp  ****         putString("=== Error: unknown external interrupt");
 931              		.loc 1 181 9
 932              		.loc 1 181 18 is_stmt 0
 933 0688 17050000 		lla	a0,.LC12
 933      13050500 
GAS LISTING /tmp/cc5FJUlz.s 			page 27


 934 0690 97000000 		call	_Z9putStringPKc@plt
 934      E7800000 
 935              	.LVL113:
 182:src/trap.cpp  ****         putNewline();
 936              		.loc 1 182 9 is_stmt 1
 937              		.loc 1 182 19 is_stmt 0
 938 0698 97000000 		call	_Z10putNewlinev@plt
 938      E7800000 
 939              	.LVL114:
 183:src/trap.cpp  ****         assert(false);
 940              		.loc 1 183 9 is_stmt 1
 941              	.LBB78:
 942              	.LBB79:
  21:src/../h/../h/my_console.h ****         return;
 943              		.loc 2 21 5
  24:src/../h/../h/my_console.h ****     putString(file);
 944              		.loc 2 24 5
  24:src/../h/../h/my_console.h ****     putString(file);
 945              		.loc 2 24 14 is_stmt 0
 946 06a0 17050000 		lla	a0,.LC0
 946      13050500 
 947 06a8 97000000 		call	_Z9putStringPKc@plt
 947      E7800000 
 948              	.LVL115:
  25:src/../h/../h/my_console.h ****     putString("    line: ");
 949              		.loc 2 25 5 is_stmt 1
  25:src/../h/../h/my_console.h ****     putString("    line: ");
 950              		.loc 2 25 14 is_stmt 0
 951 06b0 17050000 		lla	a0,.LC1
 951      13050500 
 952 06b8 97000000 		call	_Z9putStringPKc@plt
 952      E7800000 
 953              	.LVL116:
  26:src/../h/../h/my_console.h ****     putInt(line);
 954              		.loc 2 26 5 is_stmt 1
  26:src/../h/../h/my_console.h ****     putInt(line);
 955              		.loc 2 26 14 is_stmt 0
 956 06c0 17050000 		lla	a0,.LC2
 956      13050500 
 957 06c8 97000000 		call	_Z9putStringPKc@plt
 957      E7800000 
 958              	.LVL117:
  27:src/../h/../h/my_console.h ****     putString("   ===========================");
 959              		.loc 2 27 5 is_stmt 1
  27:src/../h/../h/my_console.h ****     putString("   ===========================");
 960              		.loc 2 27 11 is_stmt 0
 961 06d0 1305700B 		li	a0,183
 962 06d4 97000000 		call	_Z6putInti@plt
 962      E7800000 
 963              	.LVL118:
  28:src/../h/../h/my_console.h ****     putNewline();
 964              		.loc 2 28 5 is_stmt 1
  28:src/../h/../h/my_console.h ****     putNewline();
 965              		.loc 2 28 14 is_stmt 0
 966 06dc 17050000 		lla	a0,.LC3
 966      13050500 
 967 06e4 97000000 		call	_Z9putStringPKc@plt
GAS LISTING /tmp/cc5FJUlz.s 			page 28


 967      E7800000 
 968              	.LVL119:
  29:src/../h/../h/my_console.h **** 
 969              		.loc 2 29 5 is_stmt 1
  29:src/../h/../h/my_console.h **** 
 970              		.loc 2 29 15 is_stmt 0
 971 06ec 97000000 		call	_Z10putNewlinev@plt
 971      E7800000 
 972              	.LVL120:
 973              		.loc 2 31 5 is_stmt 1
 974              		.loc 2 31 15 is_stmt 0
 975 06f4 97000000 		call	_Z10stopKernelv@plt
 975      E7800000 
 976              	.LVL121:
 977              	.L44:
 978              	.LBE79:
 979              	.LBE78:
 158:src/trap.cpp  ****         gTimer++;
 980              		.loc 1 158 9 is_stmt 1
 158:src/trap.cpp  ****         gTimer++;
 981              		.loc 1 158 33 is_stmt 0
 982 06fc 17070000 		la	a4,_ZN6Thread16timeSliceCounterE
 982      03370700 
 983 0704 83370700 		ld	a5,0(a4)
 984 0708 93871700 		addi	a5,a5,1
 985 070c 2330F700 		sd	a5,0(a4)
 159:src/trap.cpp  **** 
 986              		.loc 1 159 9 is_stmt 1
 159:src/trap.cpp  **** 
 987              		.loc 1 159 15 is_stmt 0
 988 0710 17070000 		lla	a4,.LANCHOR0
 988      13070700 
 989 0718 83270700 		lw	a5,0(a4)
 990 071c 9B871700 		addiw	a5,a5,1
 991 0720 2320F700 		sw	a5,0(a4)
 161:src/trap.cpp  ****         {
 992              		.loc 1 161 9 is_stmt 1
 161:src/trap.cpp  ****         {
 993              		.loc 1 161 20 is_stmt 0
 994 0724 1307A000 		li	a4,10
 995 0728 BBE7E702 		remw	a5,a5,a4
 161:src/trap.cpp  ****         {
 996              		.loc 1 161 9
 997 072c 638C0700 		beqz	a5,.L46
 998              	.L37:
 184:src/trap.cpp  ****     }
 185:src/trap.cpp  **** }
 999              		.loc 1 185 1
 1000 0730 83308101 		ld	ra,24(sp)
 1001              		.cfi_remember_state
 1002              		.cfi_restore 1
 1003 0734 03340101 		ld	s0,16(sp)
 1004              		.cfi_restore 8
 1005              		.cfi_def_cfa 2, 32
 1006 0738 83348100 		ld	s1,8(sp)
 1007              		.cfi_restore 9
 1008              	.LVL122:
GAS LISTING /tmp/cc5FJUlz.s 			page 29


 1009 073c 13010102 		addi	sp,sp,32
 1010              		.cfi_def_cfa_offset 0
 1011 0740 67800000 		jr	ra
 1012              	.LVL123:
 1013              	.L46:
 1014              		.cfi_restore_state
 163:src/trap.cpp  ****             putInt(gTimer / 10);
 1015              		.loc 1 163 13 is_stmt 1
 163:src/trap.cpp  ****             putInt(gTimer / 10);
 1016              		.loc 1 163 22 is_stmt 0
 1017 0744 17050000 		lla	a0,.LC10
 1017      13050500 
 1018 074c 97000000 		call	_Z9putStringPKc@plt
 1018      E7800000 
 1019              	.LVL124:
 164:src/trap.cpp  ****             putString("s");
 1020              		.loc 1 164 13 is_stmt 1
 164:src/trap.cpp  ****             putString("s");
 1021              		.loc 1 164 19 is_stmt 0
 1022 0754 17050000 		lw	a0,.LANCHOR0
 1022      03250500 
 1023 075c 9307A000 		li	a5,10
 1024 0760 3B45F502 		divw	a0,a0,a5
 1025 0764 97000000 		call	_Z6putInti@plt
 1025      E7800000 
 1026              	.LVL125:
 165:src/trap.cpp  ****             putNewline();
 1027              		.loc 1 165 13 is_stmt 1
 165:src/trap.cpp  ****             putNewline();
 1028              		.loc 1 165 22 is_stmt 0
 1029 076c 17050000 		lla	a0,.LC11
 1029      13050500 
 1030 0774 97000000 		call	_Z9putStringPKc@plt
 1030      E7800000 
 1031              	.LVL126:
 166:src/trap.cpp  ****         }
 1032              		.loc 1 166 13 is_stmt 1
 166:src/trap.cpp  ****         }
 1033              		.loc 1 166 23 is_stmt 0
 1034 077c 97000000 		call	_Z10putNewlinev@plt
 1034      E7800000 
 1035              	.LVL127:
 1036 0784 6FF0DFFA 		j	.L37
 1037              	.L45:
 177:src/trap.cpp  ****     }
 1038              		.loc 1 177 9 is_stmt 1
 177:src/trap.cpp  ****     }
 1039              		.loc 1 177 24 is_stmt 0
 1040 0788 97000000 		call	console_handler@plt
 1040      E7800000 
 1041              	.LVL128:
 1042 0790 6FF01FFA 		j	.L37
 1043              		.cfi_endproc
 1044              	.LFE16:
 1046              		.globl	gTimer
 1047              		.bss
 1048              		.align	2
GAS LISTING /tmp/cc5FJUlz.s 			page 30


 1049              		.set	.LANCHOR0,. + 0
 1052              	gTimer:
 1053 0000 00000000 		.zero	4
 1054              		.text
 1055              	.Letext0:
 1056              		.file 3 "src/../h/../lib/hw.h"
 1057              		.file 4 "src/../h/thread.h"
 1058              		.file 5 "src/../h/scheduler.h"
 1059              		.file 6 "src/../h/alloc.h"
 1060              		.file 7 "src/../h/../h/../lib/console.h"
GAS LISTING /tmp/cc5FJUlz.s 			page 31


DEFINED SYMBOLS
                            *ABS*:0000000000000000 trap.cpp
     /tmp/cc5FJUlz.s:9      .text:0000000000000000 _Z8testCallm
     /tmp/cc5FJUlz.s:13     .text:0000000000000000 .L0 
     /tmp/cc5FJUlz.s:15     .text:0000000000000000 .L0 
     /tmp/cc5FJUlz.s:16     .text:0000000000000004 .L0 
     /tmp/cc5FJUlz.s:19     .text:000000000000000c .L0 
     /tmp/cc5FJUlz.s:20     .text:000000000000000c .L0 
     /tmp/cc5FJUlz.s:22     .text:0000000000000010 .L0 
     /tmp/cc5FJUlz.s:24     .text:0000000000000010 .L0 
     /tmp/cc5FJUlz.s:25     .text:0000000000000010 .L0 
     /tmp/cc5FJUlz.s:28     .text:0000000000000018 .L0 
     /tmp/cc5FJUlz.s:29     .text:000000000000001c .L0 
     /tmp/cc5FJUlz.s:31     .text:0000000000000020 .L0 
     /tmp/cc5FJUlz.s:32     .text:0000000000000020 .L0 
     /tmp/cc5FJUlz.s:34     .text:0000000000000024 .L0 
     /tmp/cc5FJUlz.s:36     .text:0000000000000028 .L0 
     /tmp/cc5FJUlz.s:74     .text:0000000000000028 _Z25cInternalInterruptRoutinev
     /tmp/cc5FJUlz.s:77     .text:0000000000000028 .L0 
     /tmp/cc5FJUlz.s:78     .text:0000000000000028 .L0 
     /tmp/cc5FJUlz.s:79     .text:000000000000002c .L0 
     /tmp/cc5FJUlz.s:88     .text:000000000000004c .L0 
     /tmp/cc5FJUlz.s:89     .text:000000000000004c .L0 
     /tmp/cc5FJUlz.s:90     .text:000000000000004c .L0 
     /tmp/cc5FJUlz.s:91     .text:000000000000004c .L0 
     /tmp/cc5FJUlz.s:92     .text:000000000000004c .L0 
     /tmp/cc5FJUlz.s:93     .text:000000000000004c .L0 
     /tmp/cc5FJUlz.s:94     .text:000000000000004c .L0 
     /tmp/cc5FJUlz.s:95     .text:000000000000004c .L0 
     /tmp/cc5FJUlz.s:97     .text:0000000000000050 .L0 
     /tmp/cc5FJUlz.s:99     .text:0000000000000050 .L0 
     /tmp/cc5FJUlz.s:100    .text:0000000000000050 .L0 
        src/trap.cpp:17     .text:0000000000000050 .L0 
     /tmp/cc5FJUlz.s:107    .text:0000000000000054 .L0 
     /tmp/cc5FJUlz.s:108    .text:0000000000000054 .L0 
        src/trap.cpp:22     .text:0000000000000054 .L0 
     /tmp/cc5FJUlz.s:113    .text:0000000000000058 .L0 
     /tmp/cc5FJUlz.s:114    .text:0000000000000058 .L0 
        src/trap.cpp:25     .text:0000000000000058 .L0 
     /tmp/cc5FJUlz.s:120    .text:000000000000005c .L0 
        src/trap.cpp:26     .text:000000000000005c .L0 
     /tmp/cc5FJUlz.s:126    .text:0000000000000060 .L0 
        src/trap.cpp:27     .text:0000000000000060 .L0 
     /tmp/cc5FJUlz.s:132    .text:0000000000000064 .L0 
        src/trap.cpp:28     .text:0000000000000064 .L0 
     /tmp/cc5FJUlz.s:138    .text:0000000000000068 .L0 
        src/trap.cpp:31     .text:0000000000000068 .L0 
     /tmp/cc5FJUlz.s:143    .text:000000000000006c .L0 
     /tmp/cc5FJUlz.s:145    .text:000000000000006c .L0 
     /tmp/cc5FJUlz.s:148    .text:0000000000000074 .L0 
     /tmp/cc5FJUlz.s:150    .text:0000000000000078 .L0 
     /tmp/cc5FJUlz.s:153    .text:0000000000000084 .L0 
     /tmp/cc5FJUlz.s:155    .text:0000000000000088 .L0 
        src/trap.cpp:34     .text:0000000000000088 .L0 
     /tmp/cc5FJUlz.s:166    .text:000000000000008c .L0 
     /tmp/cc5FJUlz.s:167    .text:000000000000008c .L0 
     /tmp/cc5FJUlz.s:168    .text:000000000000008c .L0 
GAS LISTING /tmp/cc5FJUlz.s 			page 32


     /tmp/cc5FJUlz.s:169    .text:000000000000008c .L0 
     /tmp/cc5FJUlz.s:173    .text:000000000000009c .L0 
     /tmp/cc5FJUlz.s:174    .text:000000000000009c .L0 
     /tmp/cc5FJUlz.s:178    .text:00000000000000ac .L0 
     /tmp/cc5FJUlz.s:179    .text:00000000000000ac .L0 
     /tmp/cc5FJUlz.s:183    .text:00000000000000bc .L0 
     /tmp/cc5FJUlz.s:184    .text:00000000000000bc .L0 
     /tmp/cc5FJUlz.s:188    .text:00000000000000c8 .L0 
     /tmp/cc5FJUlz.s:189    .text:00000000000000c8 .L0 
     /tmp/cc5FJUlz.s:193    .text:00000000000000d8 .L0 
     /tmp/cc5FJUlz.s:194    .text:00000000000000d8 .L0 
     /tmp/cc5FJUlz.s:197    .text:00000000000000e0 .L0 
     /tmp/cc5FJUlz.s:198    .text:00000000000000e0 .L0 
     /tmp/cc5FJUlz.s:205    .text:00000000000000ec .L0 
        src/trap.cpp:37     .text:00000000000000ec .L0 
     /tmp/cc5FJUlz.s:211    .text:00000000000000f0 .L0 
     /tmp/cc5FJUlz.s:213    .text:00000000000000f0 .L0 
     /tmp/cc5FJUlz.s:216    .text:00000000000000f4 .L0 
     /tmp/cc5FJUlz.s:219    .text:00000000000000fc .L0 
     /tmp/cc5FJUlz.s:220    .text:00000000000000fc .L0 
     /tmp/cc5FJUlz.s:224    .text:0000000000000104 .L0 
     /tmp/cc5FJUlz.s:230    .text:000000000000010c .L0 
     /tmp/cc5FJUlz.s:238    .text:0000000000000114 .L0 
     /tmp/cc5FJUlz.s:248    .text:000000000000011c .L0 
     /tmp/cc5FJUlz.s:260    .text:0000000000000124 .L0 
     /tmp/cc5FJUlz.s:263    .text:000000000000012c .L0 
     /tmp/cc5FJUlz.s:269    .text:0000000000000134 .L0 
     /tmp/cc5FJUlz.s:270    .text:0000000000000134 .L0 
     /tmp/cc5FJUlz.s:271    .text:0000000000000134 .L0 
     /tmp/cc5FJUlz.s:272    .text:0000000000000134 .L0 
     /tmp/cc5FJUlz.s:276    .text:0000000000000144 .L0 
     /tmp/cc5FJUlz.s:277    .text:0000000000000144 .L0 
     /tmp/cc5FJUlz.s:281    .text:0000000000000154 .L0 
     /tmp/cc5FJUlz.s:282    .text:0000000000000154 .L0 
     /tmp/cc5FJUlz.s:286    .text:0000000000000164 .L0 
     /tmp/cc5FJUlz.s:287    .text:0000000000000164 .L0 
     /tmp/cc5FJUlz.s:291    .text:0000000000000170 .L0 
     /tmp/cc5FJUlz.s:292    .text:0000000000000170 .L0 
     /tmp/cc5FJUlz.s:296    .text:0000000000000180 .L0 
     /tmp/cc5FJUlz.s:297    .text:0000000000000180 .L0 
     /tmp/cc5FJUlz.s:300    .text:0000000000000188 .L0 
     /tmp/cc5FJUlz.s:301    .text:0000000000000188 .L0 
     /tmp/cc5FJUlz.s:312    .text:0000000000000190 .L0 
     /tmp/cc5FJUlz.s:313    .text:0000000000000190 .L0 
     /tmp/cc5FJUlz.s:317    .text:00000000000001a0 .L0 
     /tmp/cc5FJUlz.s:320    .text:00000000000001a8 .L0 
     /tmp/cc5FJUlz.s:323    .text:00000000000001b0 .L0 
     /tmp/cc5FJUlz.s:326    .text:00000000000001b8 .L0 
     /tmp/cc5FJUlz.s:327    .text:00000000000001b8 .L0 
     /tmp/cc5FJUlz.s:333    .text:00000000000001c8 .L0 
     /tmp/cc5FJUlz.s:334    .text:00000000000001c8 .L0 
     /tmp/cc5FJUlz.s:335    .text:00000000000001c8 .L0 
     /tmp/cc5FJUlz.s:336    .text:00000000000001c8 .L0 
     /tmp/cc5FJUlz.s:340    .text:00000000000001d8 .L0 
     /tmp/cc5FJUlz.s:341    .text:00000000000001d8 .L0 
     /tmp/cc5FJUlz.s:345    .text:00000000000001e8 .L0 
     /tmp/cc5FJUlz.s:346    .text:00000000000001e8 .L0 
GAS LISTING /tmp/cc5FJUlz.s 			page 33


     /tmp/cc5FJUlz.s:350    .text:00000000000001f8 .L0 
     /tmp/cc5FJUlz.s:351    .text:00000000000001f8 .L0 
     /tmp/cc5FJUlz.s:355    .text:0000000000000204 .L0 
     /tmp/cc5FJUlz.s:356    .text:0000000000000204 .L0 
     /tmp/cc5FJUlz.s:360    .text:0000000000000214 .L0 
     /tmp/cc5FJUlz.s:361    .text:0000000000000214 .L0 
     /tmp/cc5FJUlz.s:364    .text:000000000000021c .L0 
     /tmp/cc5FJUlz.s:365    .text:000000000000021c .L0 
     /tmp/cc5FJUlz.s:371    .text:0000000000000224 .L0 
     /tmp/cc5FJUlz.s:372    .text:0000000000000224 .L0 
     /tmp/cc5FJUlz.s:378    .text:0000000000000238 .L0 
     /tmp/cc5FJUlz.s:379    .text:0000000000000238 .L0 
     /tmp/cc5FJUlz.s:385    .text:000000000000024c .L0 
     /tmp/cc5FJUlz.s:386    .text:000000000000024c .L0 
     /tmp/cc5FJUlz.s:391    .text:000000000000025c .L0 
     /tmp/cc5FJUlz.s:392    .text:000000000000025c .L0 
     /tmp/cc5FJUlz.s:395    .text:0000000000000264 .L0 
     /tmp/cc5FJUlz.s:396    .text:0000000000000264 .L0 
     /tmp/cc5FJUlz.s:400    .text:0000000000000274 .L0 
     /tmp/cc5FJUlz.s:401    .text:0000000000000274 .L0 
     /tmp/cc5FJUlz.s:406    .text:000000000000027c .L0 
     /tmp/cc5FJUlz.s:407    .text:000000000000027c .L0 
     /tmp/cc5FJUlz.s:408    .text:000000000000027c .L0 
     /tmp/cc5FJUlz.s:409    .text:000000000000027c .L0 
     /tmp/cc5FJUlz.s:413    .text:000000000000028c .L0 
     /tmp/cc5FJUlz.s:414    .text:000000000000028c .L0 
     /tmp/cc5FJUlz.s:418    .text:000000000000029c .L0 
     /tmp/cc5FJUlz.s:419    .text:000000000000029c .L0 
     /tmp/cc5FJUlz.s:423    .text:00000000000002ac .L0 
     /tmp/cc5FJUlz.s:424    .text:00000000000002ac .L0 
     /tmp/cc5FJUlz.s:428    .text:00000000000002b8 .L0 
     /tmp/cc5FJUlz.s:429    .text:00000000000002b8 .L0 
     /tmp/cc5FJUlz.s:433    .text:00000000000002c8 .L0 
     /tmp/cc5FJUlz.s:434    .text:00000000000002c8 .L0 
     /tmp/cc5FJUlz.s:437    .text:00000000000002d0 .L0 
     /tmp/cc5FJUlz.s:438    .text:00000000000002d0 .L0 
     /tmp/cc5FJUlz.s:445    .text:00000000000002d8 .L0 
     /tmp/cc5FJUlz.s:446    .text:00000000000002d8 .L0 
     /tmp/cc5FJUlz.s:452    .text:00000000000002ec .L0 
     /tmp/cc5FJUlz.s:456    .text:00000000000002f0 .L0 
     /tmp/cc5FJUlz.s:457    .text:00000000000002f0 .L0 
     /tmp/cc5FJUlz.s:459    .text:00000000000002f4 .L0 
     /tmp/cc5FJUlz.s:462    .text:00000000000002fc .L0 
     /tmp/cc5FJUlz.s:465    .text:0000000000000304 .L0 
     /tmp/cc5FJUlz.s:468    .text:000000000000030c .L0 
     /tmp/cc5FJUlz.s:471    .text:0000000000000314 .L0 
     /tmp/cc5FJUlz.s:474    .text:000000000000031c .L0 
     /tmp/cc5FJUlz.s:477    .text:0000000000000324 .L0 
     /tmp/cc5FJUlz.s:480    .text:000000000000032c .L0 
     /tmp/cc5FJUlz.s:483    .text:0000000000000334 .L0 
     /tmp/cc5FJUlz.s:487    .text:000000000000033c .L0 
     /tmp/cc5FJUlz.s:488    .text:000000000000033c .L0 
     /tmp/cc5FJUlz.s:489    .text:000000000000033c .L0 
     /tmp/cc5FJUlz.s:490    .text:000000000000033c .L0 
     /tmp/cc5FJUlz.s:493    .text:0000000000000344 .L0 
     /tmp/cc5FJUlz.s:499    .text:000000000000034c .L0 
     /tmp/cc5FJUlz.s:500    .text:000000000000034c .L0 
GAS LISTING /tmp/cc5FJUlz.s 			page 34


     /tmp/cc5FJUlz.s:501    .text:000000000000034c .L0 
     /tmp/cc5FJUlz.s:502    .text:000000000000034c .L0 
     /tmp/cc5FJUlz.s:506    .text:000000000000035c .L0 
     /tmp/cc5FJUlz.s:507    .text:000000000000035c .L0 
     /tmp/cc5FJUlz.s:511    .text:000000000000036c .L0 
     /tmp/cc5FJUlz.s:512    .text:000000000000036c .L0 
     /tmp/cc5FJUlz.s:516    .text:000000000000037c .L0 
     /tmp/cc5FJUlz.s:517    .text:000000000000037c .L0 
     /tmp/cc5FJUlz.s:521    .text:0000000000000388 .L0 
     /tmp/cc5FJUlz.s:522    .text:0000000000000388 .L0 
     /tmp/cc5FJUlz.s:526    .text:0000000000000398 .L0 
     /tmp/cc5FJUlz.s:527    .text:0000000000000398 .L0 
     /tmp/cc5FJUlz.s:530    .text:00000000000003a0 .L0 
     /tmp/cc5FJUlz.s:531    .text:00000000000003a0 .L0 
     /tmp/cc5FJUlz.s:539    .text:00000000000003a8 .L0 
     /tmp/cc5FJUlz.s:540    .text:00000000000003a8 .L0 
     /tmp/cc5FJUlz.s:546    .text:00000000000003bc .L0 
     /tmp/cc5FJUlz.s:551    .text:00000000000003c4 .L0 
     /tmp/cc5FJUlz.s:552    .text:00000000000003c4 .L0 
     /tmp/cc5FJUlz.s:558    .text:00000000000003d8 .L0 
     /tmp/cc5FJUlz.s:563    .text:00000000000003e0 .L0 
     /tmp/cc5FJUlz.s:564    .text:00000000000003e0 .L0 
     /tmp/cc5FJUlz.s:567    .text:00000000000003e8 .L0 
     /tmp/cc5FJUlz.s:573    .text:00000000000003f0 .L0 
     /tmp/cc5FJUlz.s:574    .text:00000000000003f0 .L0 
     /tmp/cc5FJUlz.s:575    .text:00000000000003f0 .L0 
     /tmp/cc5FJUlz.s:578    .text:00000000000003f8 .L0 
     /tmp/cc5FJUlz.s:581    .text:0000000000000404 .L0 
     /tmp/cc5FJUlz.s:582    .text:0000000000000404 .L0 
     /tmp/cc5FJUlz.s:585    .text:000000000000040c .L0 
     /tmp/cc5FJUlz.s:588    .text:0000000000000414 .L0 
     /tmp/cc5FJUlz.s:589    .text:0000000000000414 .L0 
     /tmp/cc5FJUlz.s:595    .text:0000000000000424 .L0 
     /tmp/cc5FJUlz.s:596    .text:0000000000000424 .L0 
     /tmp/cc5FJUlz.s:601    .text:0000000000000430 .L0 
     /tmp/cc5FJUlz.s:609    .text:0000000000000444 .L0 
     /tmp/cc5FJUlz.s:614    .text:0000000000000448 .L0 
     /tmp/cc5FJUlz.s:615    .text:0000000000000448 .L0 
     /tmp/cc5FJUlz.s:616    .text:0000000000000448 .L0 
     /tmp/cc5FJUlz.s:625    .text:000000000000045c .L0 
     /tmp/cc5FJUlz.s:626    .text:000000000000045c .L0 
     /tmp/cc5FJUlz.s:630    .text:000000000000046c .L0 
     /tmp/cc5FJUlz.s:631    .text:000000000000046c .L0 
     /tmp/cc5FJUlz.s:635    .text:000000000000047c .L0 
     /tmp/cc5FJUlz.s:636    .text:000000000000047c .L0 
     /tmp/cc5FJUlz.s:640    .text:000000000000048c .L0 
     /tmp/cc5FJUlz.s:641    .text:000000000000048c .L0 
     /tmp/cc5FJUlz.s:645    .text:0000000000000498 .L0 
     /tmp/cc5FJUlz.s:646    .text:0000000000000498 .L0 
     /tmp/cc5FJUlz.s:650    .text:00000000000004a8 .L0 
     /tmp/cc5FJUlz.s:651    .text:00000000000004a8 .L0 
     /tmp/cc5FJUlz.s:654    .text:00000000000004b0 .L0 
     /tmp/cc5FJUlz.s:655    .text:00000000000004b0 .L0 
     /tmp/cc5FJUlz.s:662    .text:00000000000004b8 .L0 
     /tmp/cc5FJUlz.s:663    .text:00000000000004b8 .L0 
     /tmp/cc5FJUlz.s:667    .text:00000000000004c4 .L0 
     /tmp/cc5FJUlz.s:676    .text:00000000000004cc .L0 
GAS LISTING /tmp/cc5FJUlz.s 			page 35


     /tmp/cc5FJUlz.s:682    .text:00000000000004d4 .L0 
     /tmp/cc5FJUlz.s:687    .text:00000000000004d8 .L0 
     /tmp/cc5FJUlz.s:688    .text:00000000000004d8 .L0 
     /tmp/cc5FJUlz.s:689    .text:00000000000004d8 .L0 
     /tmp/cc5FJUlz.s:697    .text:00000000000004e0 .L0 
     /tmp/cc5FJUlz.s:698    .text:00000000000004e4 .L0 
     /tmp/cc5FJUlz.s:699    .text:00000000000004e4 .L0 
     /tmp/cc5FJUlz.s:701    .text:00000000000004e8 .L0 
     /tmp/cc5FJUlz.s:702    .text:00000000000004e8 .L0 
     /tmp/cc5FJUlz.s:704    .text:00000000000004ec .L0 
     /tmp/cc5FJUlz.s:706    .text:00000000000004f0 .L0 
     /tmp/cc5FJUlz.s:709    .text:00000000000004f4 .L0 
     /tmp/cc5FJUlz.s:712    .text:00000000000004f8 .L0 
     /tmp/cc5FJUlz.s:715    .text:00000000000004fc .L0 
     /tmp/cc5FJUlz.s:718    .text:0000000000000500 .L0 
     /tmp/cc5FJUlz.s:721    .text:0000000000000504 .L0 
     /tmp/cc5FJUlz.s:725    .text:0000000000000508 .L0 
     /tmp/cc5FJUlz.s:729    .text:0000000000000508 .L0 
     /tmp/cc5FJUlz.s:730    .text:0000000000000508 .L0 
     /tmp/cc5FJUlz.s:734    .text:0000000000000518 .L0 
     /tmp/cc5FJUlz.s:735    .text:0000000000000518 .L0 
     /tmp/cc5FJUlz.s:739    .text:0000000000000528 .L0 
     /tmp/cc5FJUlz.s:740    .text:0000000000000528 .L0 
     /tmp/cc5FJUlz.s:744    .text:0000000000000538 .L0 
     /tmp/cc5FJUlz.s:745    .text:0000000000000538 .L0 
     /tmp/cc5FJUlz.s:749    .text:0000000000000544 .L0 
     /tmp/cc5FJUlz.s:750    .text:0000000000000544 .L0 
     /tmp/cc5FJUlz.s:754    .text:0000000000000554 .L0 
     /tmp/cc5FJUlz.s:755    .text:0000000000000554 .L0 
     /tmp/cc5FJUlz.s:758    .text:000000000000055c .L0 
     /tmp/cc5FJUlz.s:759    .text:000000000000055c .L0 
     /tmp/cc5FJUlz.s:763    .text:0000000000000564 .L0 
     /tmp/cc5FJUlz.s:780    .text:0000000000000564 _Z25cExternalInterruptRoutinev
     /tmp/cc5FJUlz.s:783    .text:0000000000000564 .L0 
     /tmp/cc5FJUlz.s:784    .text:0000000000000564 .L0 
     /tmp/cc5FJUlz.s:785    .text:0000000000000568 .L0 
     /tmp/cc5FJUlz.s:789    .text:0000000000000574 .L0 
     /tmp/cc5FJUlz.s:790    .text:0000000000000574 .L0 
     /tmp/cc5FJUlz.s:791    .text:0000000000000574 .L0 
     /tmp/cc5FJUlz.s:793    .text:0000000000000578 .L0 
     /tmp/cc5FJUlz.s:795    .text:0000000000000578 .L0 
     /tmp/cc5FJUlz.s:796    .text:0000000000000578 .L0 
        src/trap.cpp:138    .text:0000000000000578 .L0 
     /tmp/cc5FJUlz.s:803    .text:000000000000057c .L0 
     /tmp/cc5FJUlz.s:805    .text:000000000000057c .L0 
     /tmp/cc5FJUlz.s:808    .text:0000000000000580 .L0 
        src/trap.cpp:143    .text:0000000000000580 .L0 
     /tmp/cc5FJUlz.s:814    .text:0000000000000584 .L0 
     /tmp/cc5FJUlz.s:816    .text:0000000000000584 .L0 
     /tmp/cc5FJUlz.s:819    .text:000000000000058c .L0 
     /tmp/cc5FJUlz.s:821    .text:0000000000000590 .L0 
     /tmp/cc5FJUlz.s:824    .text:000000000000059c .L0 
     /tmp/cc5FJUlz.s:826    .text:00000000000005a0 .L0 
        src/trap.cpp:147    .text:00000000000005a0 .L0 
     /tmp/cc5FJUlz.s:836    .text:00000000000005a4 .L0 
     /tmp/cc5FJUlz.s:837    .text:00000000000005a4 .L0 
     /tmp/cc5FJUlz.s:838    .text:00000000000005a4 .L0 
GAS LISTING /tmp/cc5FJUlz.s 			page 36


     /tmp/cc5FJUlz.s:839    .text:00000000000005a4 .L0 
     /tmp/cc5FJUlz.s:843    .text:00000000000005b4 .L0 
     /tmp/cc5FJUlz.s:844    .text:00000000000005b4 .L0 
     /tmp/cc5FJUlz.s:848    .text:00000000000005c4 .L0 
     /tmp/cc5FJUlz.s:849    .text:00000000000005c4 .L0 
     /tmp/cc5FJUlz.s:853    .text:00000000000005d4 .L0 
     /tmp/cc5FJUlz.s:854    .text:00000000000005d4 .L0 
     /tmp/cc5FJUlz.s:858    .text:00000000000005e0 .L0 
     /tmp/cc5FJUlz.s:859    .text:00000000000005e0 .L0 
     /tmp/cc5FJUlz.s:863    .text:00000000000005f0 .L0 
     /tmp/cc5FJUlz.s:864    .text:00000000000005f0 .L0 
     /tmp/cc5FJUlz.s:867    .text:00000000000005f8 .L0 
     /tmp/cc5FJUlz.s:868    .text:00000000000005f8 .L0 
     /tmp/cc5FJUlz.s:874    .text:0000000000000600 .L0 
     /tmp/cc5FJUlz.s:875    .text:0000000000000600 .L0 
     /tmp/cc5FJUlz.s:878    .text:0000000000000608 .L0 
     /tmp/cc5FJUlz.s:880    .text:000000000000060c .L0 
     /tmp/cc5FJUlz.s:883    .text:0000000000000618 .L0 
     /tmp/cc5FJUlz.s:888    .text:000000000000061c .L0 
     /tmp/cc5FJUlz.s:889    .text:000000000000061c .L0 
     /tmp/cc5FJUlz.s:890    .text:000000000000061c .L0 
     /tmp/cc5FJUlz.s:891    .text:000000000000061c .L0 
     /tmp/cc5FJUlz.s:895    .text:000000000000062c .L0 
     /tmp/cc5FJUlz.s:896    .text:000000000000062c .L0 
     /tmp/cc5FJUlz.s:900    .text:000000000000063c .L0 
     /tmp/cc5FJUlz.s:901    .text:000000000000063c .L0 
     /tmp/cc5FJUlz.s:905    .text:000000000000064c .L0 
     /tmp/cc5FJUlz.s:906    .text:000000000000064c .L0 
     /tmp/cc5FJUlz.s:910    .text:0000000000000658 .L0 
     /tmp/cc5FJUlz.s:911    .text:0000000000000658 .L0 
     /tmp/cc5FJUlz.s:915    .text:0000000000000668 .L0 
     /tmp/cc5FJUlz.s:916    .text:0000000000000668 .L0 
     /tmp/cc5FJUlz.s:919    .text:0000000000000670 .L0 
     /tmp/cc5FJUlz.s:920    .text:0000000000000670 .L0 
     /tmp/cc5FJUlz.s:926    .text:0000000000000678 .L0 
     /tmp/cc5FJUlz.s:929    .text:0000000000000680 .L0 
     /tmp/cc5FJUlz.s:932    .text:0000000000000688 .L0 
     /tmp/cc5FJUlz.s:933    .text:0000000000000688 .L0 
     /tmp/cc5FJUlz.s:937    .text:0000000000000698 .L0 
     /tmp/cc5FJUlz.s:938    .text:0000000000000698 .L0 
     /tmp/cc5FJUlz.s:943    .text:00000000000006a0 .L0 
     /tmp/cc5FJUlz.s:944    .text:00000000000006a0 .L0 
     /tmp/cc5FJUlz.s:945    .text:00000000000006a0 .L0 
     /tmp/cc5FJUlz.s:946    .text:00000000000006a0 .L0 
     /tmp/cc5FJUlz.s:950    .text:00000000000006b0 .L0 
     /tmp/cc5FJUlz.s:951    .text:00000000000006b0 .L0 
     /tmp/cc5FJUlz.s:955    .text:00000000000006c0 .L0 
     /tmp/cc5FJUlz.s:956    .text:00000000000006c0 .L0 
     /tmp/cc5FJUlz.s:960    .text:00000000000006d0 .L0 
     /tmp/cc5FJUlz.s:961    .text:00000000000006d0 .L0 
     /tmp/cc5FJUlz.s:965    .text:00000000000006dc .L0 
     /tmp/cc5FJUlz.s:966    .text:00000000000006dc .L0 
     /tmp/cc5FJUlz.s:970    .text:00000000000006ec .L0 
     /tmp/cc5FJUlz.s:971    .text:00000000000006ec .L0 
     /tmp/cc5FJUlz.s:974    .text:00000000000006f4 .L0 
     /tmp/cc5FJUlz.s:975    .text:00000000000006f4 .L0 
     /tmp/cc5FJUlz.s:981    .text:00000000000006fc .L0 
GAS LISTING /tmp/cc5FJUlz.s 			page 37


     /tmp/cc5FJUlz.s:982    .text:00000000000006fc .L0 
     /tmp/cc5FJUlz.s:987    .text:0000000000000710 .L0 
     /tmp/cc5FJUlz.s:988    .text:0000000000000710 .L0 
     /tmp/cc5FJUlz.s:993    .text:0000000000000724 .L0 
     /tmp/cc5FJUlz.s:994    .text:0000000000000724 .L0 
     /tmp/cc5FJUlz.s:997    .text:000000000000072c .L0 
     /tmp/cc5FJUlz.s:1000   .text:0000000000000730 .L0 
     /tmp/cc5FJUlz.s:1001   .text:0000000000000734 .L0 
     /tmp/cc5FJUlz.s:1002   .text:0000000000000734 .L0 
     /tmp/cc5FJUlz.s:1004   .text:0000000000000738 .L0 
     /tmp/cc5FJUlz.s:1005   .text:0000000000000738 .L0 
     /tmp/cc5FJUlz.s:1007   .text:000000000000073c .L0 
     /tmp/cc5FJUlz.s:1010   .text:0000000000000740 .L0 
     /tmp/cc5FJUlz.s:1014   .text:0000000000000744 .L0 
     /tmp/cc5FJUlz.s:1016   .text:0000000000000744 .L0 
     /tmp/cc5FJUlz.s:1017   .text:0000000000000744 .L0 
     /tmp/cc5FJUlz.s:1021   .text:0000000000000754 .L0 
     /tmp/cc5FJUlz.s:1022   .text:0000000000000754 .L0 
     /tmp/cc5FJUlz.s:1028   .text:000000000000076c .L0 
     /tmp/cc5FJUlz.s:1029   .text:000000000000076c .L0 
     /tmp/cc5FJUlz.s:1033   .text:000000000000077c .L0 
     /tmp/cc5FJUlz.s:1034   .text:000000000000077c .L0 
     /tmp/cc5FJUlz.s:1039   .text:0000000000000788 .L0 
     /tmp/cc5FJUlz.s:1040   .text:0000000000000788 .L0 
     /tmp/cc5FJUlz.s:1043   .text:0000000000000794 .L0 
     /tmp/cc5FJUlz.s:1052   .bss:0000000000000000 gTimer
     /tmp/cc5FJUlz.s:1049   .bss:0000000000000000 .LANCHOR0
     /tmp/cc5FJUlz.s:1061   .text:0000000000000794 .L0 
     /tmp/cc5FJUlz.s:150    .text:0000000000000078 .L0 
     /tmp/cc5FJUlz.s:41     .rodata.str1.8:0000000000000000 .LC0
     /tmp/cc5FJUlz.s:169    .text:000000000000008c .L0 
     /tmp/cc5FJUlz.s:44     .rodata.str1.8:0000000000000028 .LC1
     /tmp/cc5FJUlz.s:174    .text:000000000000009c .L0 
     /tmp/cc5FJUlz.s:47     .rodata.str1.8:0000000000000038 .LC2
     /tmp/cc5FJUlz.s:179    .text:00000000000000ac .L0 
     /tmp/cc5FJUlz.s:50     .rodata.str1.8:0000000000000048 .LC3
     /tmp/cc5FJUlz.s:189    .text:00000000000000c8 .L0 
     /tmp/cc5FJUlz.s:272    .text:0000000000000134 .L0 
     /tmp/cc5FJUlz.s:277    .text:0000000000000144 .L0 
     /tmp/cc5FJUlz.s:282    .text:0000000000000154 .L0 
     /tmp/cc5FJUlz.s:292    .text:0000000000000170 .L0 
     /tmp/cc5FJUlz.s:53     .rodata.str1.8:0000000000000068 .LC4
     /tmp/cc5FJUlz.s:313    .text:0000000000000190 .L0 
     /tmp/cc5FJUlz.s:65     .rodata.str1.8:00000000000000d0 .LC8
     /tmp/cc5FJUlz.s:327    .text:00000000000001b8 .L0 
     /tmp/cc5FJUlz.s:336    .text:00000000000001c8 .L0 
     /tmp/cc5FJUlz.s:341    .text:00000000000001d8 .L0 
     /tmp/cc5FJUlz.s:346    .text:00000000000001e8 .L0 
     /tmp/cc5FJUlz.s:356    .text:0000000000000204 .L0 
     /tmp/cc5FJUlz.s:56     .rodata.str1.8:0000000000000088 .LC5
     /tmp/cc5FJUlz.s:372    .text:0000000000000224 .L0 
     /tmp/cc5FJUlz.s:59     .rodata.str1.8:00000000000000a0 .LC6
     /tmp/cc5FJUlz.s:379    .text:0000000000000238 .L0 
     /tmp/cc5FJUlz.s:62     .rodata.str1.8:00000000000000b8 .LC7
     /tmp/cc5FJUlz.s:386    .text:000000000000024c .L0 
     /tmp/cc5FJUlz.s:68     .rodata.str1.8:00000000000000f8 .LC9
     /tmp/cc5FJUlz.s:396    .text:0000000000000264 .L0 
GAS LISTING /tmp/cc5FJUlz.s 			page 38


     /tmp/cc5FJUlz.s:409    .text:000000000000027c .L0 
     /tmp/cc5FJUlz.s:414    .text:000000000000028c .L0 
     /tmp/cc5FJUlz.s:419    .text:000000000000029c .L0 
     /tmp/cc5FJUlz.s:429    .text:00000000000002b8 .L0 
     /tmp/cc5FJUlz.s:502    .text:000000000000034c .L0 
     /tmp/cc5FJUlz.s:507    .text:000000000000035c .L0 
     /tmp/cc5FJUlz.s:512    .text:000000000000036c .L0 
     /tmp/cc5FJUlz.s:522    .text:0000000000000388 .L0 
     /tmp/cc5FJUlz.s:578    .text:00000000000003f8 .L0 
     /tmp/cc5FJUlz.s:601    .text:0000000000000430 .L0 
     /tmp/cc5FJUlz.s:616    .text:0000000000000448 .L0 
     /tmp/cc5FJUlz.s:626    .text:000000000000045c .L0 
     /tmp/cc5FJUlz.s:631    .text:000000000000046c .L0 
     /tmp/cc5FJUlz.s:636    .text:000000000000047c .L0 
     /tmp/cc5FJUlz.s:646    .text:0000000000000498 .L0 
     /tmp/cc5FJUlz.s:730    .text:0000000000000508 .L0 
     /tmp/cc5FJUlz.s:735    .text:0000000000000518 .L0 
     /tmp/cc5FJUlz.s:740    .text:0000000000000528 .L0 
     /tmp/cc5FJUlz.s:750    .text:0000000000000544 .L0 
     /tmp/cc5FJUlz.s:821    .text:0000000000000590 .L0 
     /tmp/cc5FJUlz.s:839    .text:00000000000005a4 .L0 
     /tmp/cc5FJUlz.s:844    .text:00000000000005b4 .L0 
     /tmp/cc5FJUlz.s:849    .text:00000000000005c4 .L0 
     /tmp/cc5FJUlz.s:859    .text:00000000000005e0 .L0 
     /tmp/cc5FJUlz.s:880    .text:000000000000060c .L0 
     /tmp/cc5FJUlz.s:891    .text:000000000000061c .L0 
     /tmp/cc5FJUlz.s:896    .text:000000000000062c .L0 
     /tmp/cc5FJUlz.s:901    .text:000000000000063c .L0 
     /tmp/cc5FJUlz.s:911    .text:0000000000000658 .L0 
     /tmp/cc5FJUlz.s:774    .rodata.str1.8:0000000000000120 .LC12
     /tmp/cc5FJUlz.s:933    .text:0000000000000688 .L0 
     /tmp/cc5FJUlz.s:946    .text:00000000000006a0 .L0 
     /tmp/cc5FJUlz.s:951    .text:00000000000006b0 .L0 
     /tmp/cc5FJUlz.s:956    .text:00000000000006c0 .L0 
     /tmp/cc5FJUlz.s:966    .text:00000000000006dc .L0 
     /tmp/cc5FJUlz.s:982    .text:00000000000006fc .L0 
     /tmp/cc5FJUlz.s:988    .text:0000000000000710 .L0 
     /tmp/cc5FJUlz.s:768    .rodata.str1.8:0000000000000110 .LC10
     /tmp/cc5FJUlz.s:1017   .text:0000000000000744 .L0 
     /tmp/cc5FJUlz.s:1022   .text:0000000000000754 .L0 
     /tmp/cc5FJUlz.s:771    .rodata.str1.8:0000000000000118 .LC11
     /tmp/cc5FJUlz.s:1029   .text:000000000000076c .L0 
     /tmp/cc5FJUlz.s:200    .text:00000000000000e8 .L4
     /tmp/cc5FJUlz.s:303    .text:0000000000000190 .L25
     /tmp/cc5FJUlz.s:440    .text:00000000000002d8 .L26
     /tmp/cc5FJUlz.s:533    .text:00000000000003a8 .L27
     /tmp/cc5FJUlz.s:548    .text:00000000000003c4 .L28
     /tmp/cc5FJUlz.s:560    .text:00000000000003e0 .L29
     /tmp/cc5FJUlz.s:569    .text:00000000000003f0 .L30
     /tmp/cc5FJUlz.s:657    .text:00000000000004b8 .L31
     /tmp/cc5FJUlz.s:367    .text:0000000000000224 .L32
     /tmp/cc5FJUlz.s:376    .text:0000000000000238 .L33
     /tmp/cc5FJUlz.s:383    .text:000000000000024c .L34
     /tmp/cc5FJUlz.s:389    .text:000000000000025c .L7
     /tmp/cc5FJUlz.s:669    .text:00000000000004cc .L20
     /tmp/cc5FJUlz.s:695    .text:00000000000004e0 .L3
     /tmp/cc5FJUlz.s:453    .text:00000000000002f0 .L11
GAS LISTING /tmp/cc5FJUlz.s 			page 39


     /tmp/cc5FJUlz.s:599    .text:0000000000000430 .L16
     /tmp/cc5FJUlz.s:621    .text:000000000000045c .L35
     /tmp/cc5FJUlz.s:593    .text:0000000000000424 .L17
     /tmp/cc5FJUlz.s:724    .text:0000000000000508 .L36
     /tmp/cc5FJUlz.s:870    .text:0000000000000600 .L38
     /tmp/cc5FJUlz.s:922    .text:0000000000000678 .L39
     /tmp/cc5FJUlz.s:977    .text:00000000000006fc .L44
     /tmp/cc5FJUlz.s:1037   .text:0000000000000788 .L45
     /tmp/cc5FJUlz.s:1013   .text:0000000000000744 .L46
     /tmp/cc5FJUlz.s:998    .text:0000000000000730 .L37
     /tmp/cc5FJUlz.s:2989   .debug_abbrev:0000000000000000 .Ldebug_abbrev0
     /tmp/cc5FJUlz.s:4588   .debug_str:0000000000000637 .LASF115
     /tmp/cc5FJUlz.s:4442   .debug_str:0000000000000234 .LASF116
     /tmp/cc5FJUlz.s:4550   .debug_str:0000000000000512 .LASF117
     /tmp/cc5FJUlz.s:5      .text:0000000000000000 .Ltext0
     /tmp/cc5FJUlz.s:1055   .text:0000000000000794 .Letext0
     /tmp/cc5FJUlz.s:4370   .debug_line:0000000000000000 .Ldebug_line0
     /tmp/cc5FJUlz.s:4510   .debug_str:0000000000000401 .LASF0
     /tmp/cc5FJUlz.s:4526   .debug_str:000000000000046c .LASF1
     /tmp/cc5FJUlz.s:4492   .debug_str:0000000000000375 .LASF2
     /tmp/cc5FJUlz.s:4464   .debug_str:00000000000002c4 .LASF4
     /tmp/cc5FJUlz.s:4568   .debug_str:0000000000000594 .LASF3
     /tmp/cc5FJUlz.s:4402   .debug_str:00000000000000e3 .LASF5
     /tmp/cc5FJUlz.s:4530   .debug_str:000000000000049e .LASF6
     /tmp/cc5FJUlz.s:4508   .debug_str:00000000000003ee .LASF7
     /tmp/cc5FJUlz.s:4596   .debug_str:0000000000000722 .LASF8
     /tmp/cc5FJUlz.s:4448   .debug_str:0000000000000263 .LASF9
     /tmp/cc5FJUlz.s:4546   .debug_str:00000000000004ec .LASF10
     /tmp/cc5FJUlz.s:4590   .debug_str:00000000000006fb .LASF11
     /tmp/cc5FJUlz.s:4404   .debug_str:00000000000000ea .LASF12
     /tmp/cc5FJUlz.s:4382   .debug_str:0000000000000070 .LASF13
     /tmp/cc5FJUlz.s:4416   .debug_str:000000000000016e .LASF14
     /tmp/cc5FJUlz.s:4564   .debug_str:0000000000000573 .LASF15
     /tmp/cc5FJUlz.s:4424   .debug_str:0000000000000198 .LASF16
     /tmp/cc5FJUlz.s:4592   .debug_str:000000000000070a .LASF41
     /tmp/cc5FJUlz.s:4452   .debug_str:0000000000000277 .LASF118
     /tmp/cc5FJUlz.s:4538   .debug_str:00000000000004c8 .LASF17
     /tmp/cc5FJUlz.s:4502   .debug_str:00000000000003a9 .LASF18
     /tmp/cc5FJUlz.s:4544   .debug_str:00000000000004e6 .LASF19
     /tmp/cc5FJUlz.s:4500   .debug_str:000000000000039c .LASF20
     /tmp/cc5FJUlz.s:4482   .debug_str:000000000000032e .LASF21
     /tmp/cc5FJUlz.s:4536   .debug_str:00000000000004bc .LASF22
     /tmp/cc5FJUlz.s:4522   .debug_str:0000000000000446 .LASF23
     /tmp/cc5FJUlz.s:4580   .debug_str:0000000000000606 .LASF24
     /tmp/cc5FJUlz.s:4570   .debug_str:00000000000005a6 .LASF25
     /tmp/cc5FJUlz.s:4462   .debug_str:00000000000002b8 .LASF26
     /tmp/cc5FJUlz.s:4434   .debug_str:00000000000001f2 .LASF27
     /tmp/cc5FJUlz.s:4586   .debug_str:000000000000062b .LASF28
     /tmp/cc5FJUlz.s:4428   .debug_str:00000000000001bb .LASF30
     /tmp/cc5FJUlz.s:4542   .debug_str:00000000000004da .LASF47
     /tmp/cc5FJUlz.s:4558   .debug_str:000000000000054a .LASF48
     /tmp/cc5FJUlz.s:4474   .debug_str:00000000000002eb .LASF40
     /tmp/cc5FJUlz.s:4378   .debug_str:000000000000002a .LASF42
     /tmp/cc5FJUlz.s:4556   .debug_str:0000000000000545 .LASF34
     /tmp/cc5FJUlz.s:4484   .debug_str:000000000000033a .LASF29
     /tmp/cc5FJUlz.s:4400   .debug_str:00000000000000d1 .LASF31
     /tmp/cc5FJUlz.s:4394   .debug_str:00000000000000b9 .LASF32
GAS LISTING /tmp/cc5FJUlz.s 			page 40


     /tmp/cc5FJUlz.s:4468   .debug_str:00000000000002d6 .LASF33
     /tmp/cc5FJUlz.s:4388   .debug_str:0000000000000092 .LASF35
     /tmp/cc5FJUlz.s:4470   .debug_str:00000000000002db .LASF36
     /tmp/cc5FJUlz.s:4614   .debug_str:00000000000007b3 .LASF37
     /tmp/cc5FJUlz.s:4520   .debug_str:000000000000043c .LASF38
     /tmp/cc5FJUlz.s:4450   .debug_str:0000000000000271 .LASF39
     /tmp/cc5FJUlz.s:4548   .debug_str:00000000000004fb .LASF43
     /tmp/cc5FJUlz.s:4446   .debug_str:0000000000000254 .LASF44
     /tmp/cc5FJUlz.s:4534   .debug_str:00000000000004b7 .LASF45
     /tmp/cc5FJUlz.s:4476   .debug_str:00000000000002f8 .LASF46
     /tmp/cc5FJUlz.s:4384   .debug_str:0000000000000080 .LASF72
     /tmp/cc5FJUlz.s:4438   .debug_str:0000000000000206 .LASF74
     /tmp/cc5FJUlz.s:4572   .debug_str:00000000000005b7 .LASF49
     /tmp/cc5FJUlz.s:4512   .debug_str:000000000000040e .LASF50
     /tmp/cc5FJUlz.s:4436   .debug_str:0000000000000201 .LASF51
     /tmp/cc5FJUlz.s:4540   .debug_str:00000000000004d0 .LASF52
     /tmp/cc5FJUlz.s:4458   .debug_str:000000000000029a .LASF61
     /tmp/cc5FJUlz.s:4552   .debug_str:0000000000000526 .LASF55
     /tmp/cc5FJUlz.s:4506   .debug_str:00000000000003ce .LASF57
     /tmp/cc5FJUlz.s:4420   .debug_str:0000000000000185 .LASF53
     /tmp/cc5FJUlz.s:4414   .debug_str:0000000000000156 .LASF54
     /tmp/cc5FJUlz.s:4504   .debug_str:00000000000003b3 .LASF119
     /tmp/cc5FJUlz.s:4398   .debug_str:00000000000000c6 .LASF56
     /tmp/cc5FJUlz.s:4578   .debug_str:00000000000005ea .LASF58
     /tmp/cc5FJUlz.s:4532   .debug_str:00000000000004b1 .LASF59
     /tmp/cc5FJUlz.s:4490   .debug_str:0000000000000363 .LASF66
     /tmp/cc5FJUlz.s:4498   .debug_str:0000000000000393 .LASF60
     /tmp/cc5FJUlz.s:4444   .debug_str:0000000000000241 .LASF62
     /tmp/cc5FJUlz.s:4576   .debug_str:00000000000005e1 .LASF65
     /tmp/cc5FJUlz.s:4582   .debug_str:0000000000000616 .LASF63
     /tmp/cc5FJUlz.s:4606   .debug_str:0000000000000759 .LASF64
     /tmp/cc5FJUlz.s:4376   .debug_str:000000000000000d .LASF67
     /tmp/cc5FJUlz.s:4604   .debug_str:000000000000074f .LASF68
     /tmp/cc5FJUlz.s:4460   .debug_str:00000000000002ae .LASF69
     /tmp/cc5FJUlz.s:4488   .debug_str:0000000000000345 .LASF70
     /tmp/cc5FJUlz.s:4598   .debug_str:0000000000000732 .LASF71
     /tmp/cc5FJUlz.s:4602   .debug_str:0000000000000746 .LASF73
     /tmp/cc5FJUlz.s:4412   .debug_str:000000000000013e .LASF75
     /tmp/cc5FJUlz.s:4472   .debug_str:00000000000002e3 .LASF76
     /tmp/cc5FJUlz.s:4456   .debug_str:0000000000000282 .LASF77
     /tmp/cc5FJUlz.s:4594   .debug_str:0000000000000711 .LASF78
     /tmp/cc5FJUlz.s:4380   .debug_str:000000000000004f .LASF79
     /tmp/cc5FJUlz.s:4610   .debug_str:000000000000077d .LASF80
     /tmp/cc5FJUlz.s:4612   .debug_str:0000000000000790 .LASF81
     /tmp/cc5FJUlz.s:4480   .debug_str:0000000000000320 .LASF82
     /tmp/cc5FJUlz.s:4524   .debug_str:000000000000045b .LASF83
     /tmp/cc5FJUlz.s:4454   .debug_str:000000000000027d .LASF84
     /tmp/cc5FJUlz.s:4396   .debug_str:00000000000000bf .LASF85
     /tmp/cc5FJUlz.s:4406   .debug_str:00000000000000fa .LASF86
     /tmp/cc5FJUlz.s:4528   .debug_str:000000000000047f .LASF87
     /tmp/cc5FJUlz.s:781    .text:0000000000000564 .LFB16
     /tmp/cc5FJUlz.s:1044   .text:0000000000000794 .LFE16
     /tmp/cc5FJUlz.s:4386   .debug_str:000000000000008b .LASF88
     /tmp/cc5FJUlz.s:3917   .debug_loc:0000000000000000 .LLST31
     /tmp/cc5FJUlz.s:4486   .debug_str:000000000000033f .LASF89
     /tmp/cc5FJUlz.s:3924   .debug_loc:0000000000000023 .LLST32
     /tmp/cc5FJUlz.s:834    .text:00000000000005a4 .LBB74
GAS LISTING /tmp/cc5FJUlz.s 			page 41


     /tmp/cc5FJUlz.s:872    .text:0000000000000600 .LBE74
     /tmp/cc5FJUlz.s:3935   .debug_loc:0000000000000059 .LLST33
     /tmp/cc5FJUlz.s:3944   .debug_loc:000000000000007e .LLST34
     /tmp/cc5FJUlz.s:3953   .debug_loc:00000000000000aa .LLST35
     /tmp/cc5FJUlz.s:841    .text:00000000000005b4 .LVL97
     /tmp/cc5FJUlz.s:846    .text:00000000000005c4 .LVL98
     /tmp/cc5FJUlz.s:851    .text:00000000000005d4 .LVL99
     /tmp/cc5FJUlz.s:856    .text:00000000000005e0 .LVL100
     /tmp/cc5FJUlz.s:861    .text:00000000000005f0 .LVL101
     /tmp/cc5FJUlz.s:865    .text:00000000000005f8 .LVL102
     /tmp/cc5FJUlz.s:869    .text:0000000000000600 .LVL103
     /tmp/cc5FJUlz.s:886    .text:000000000000061c .LBB76
     /tmp/cc5FJUlz.s:924    .text:0000000000000678 .LBE76
     /tmp/cc5FJUlz.s:3961   .debug_loc:00000000000000ce .LLST36
     /tmp/cc5FJUlz.s:3970   .debug_loc:00000000000000f3 .LLST37
     /tmp/cc5FJUlz.s:3979   .debug_loc:000000000000011f .LLST38
     /tmp/cc5FJUlz.s:893    .text:000000000000062c .LVL106
     /tmp/cc5FJUlz.s:898    .text:000000000000063c .LVL107
     /tmp/cc5FJUlz.s:903    .text:000000000000064c .LVL108
     /tmp/cc5FJUlz.s:908    .text:0000000000000658 .LVL109
     /tmp/cc5FJUlz.s:913    .text:0000000000000668 .LVL110
     /tmp/cc5FJUlz.s:917    .text:0000000000000670 .LVL111
     /tmp/cc5FJUlz.s:921    .text:0000000000000678 .LVL112
     /tmp/cc5FJUlz.s:941    .text:00000000000006a0 .LBB78
     /tmp/cc5FJUlz.s:979    .text:00000000000006fc .LBE78
     /tmp/cc5FJUlz.s:3987   .debug_loc:0000000000000143 .LLST39
     /tmp/cc5FJUlz.s:3996   .debug_loc:0000000000000168 .LLST40
     /tmp/cc5FJUlz.s:4005   .debug_loc:0000000000000194 .LLST41
     /tmp/cc5FJUlz.s:948    .text:00000000000006b0 .LVL115
     /tmp/cc5FJUlz.s:953    .text:00000000000006c0 .LVL116
     /tmp/cc5FJUlz.s:958    .text:00000000000006d0 .LVL117
     /tmp/cc5FJUlz.s:963    .text:00000000000006dc .LVL118
     /tmp/cc5FJUlz.s:968    .text:00000000000006ec .LVL119
     /tmp/cc5FJUlz.s:972    .text:00000000000006f4 .LVL120
     /tmp/cc5FJUlz.s:976    .text:00000000000006fc .LVL121
     /tmp/cc5FJUlz.s:817    .text:000000000000058c .LVL95
     /tmp/cc5FJUlz.s:876    .text:0000000000000608 .LVL104
     /tmp/cc5FJUlz.s:935    .text:0000000000000698 .LVL113
     /tmp/cc5FJUlz.s:939    .text:00000000000006a0 .LVL114
     /tmp/cc5FJUlz.s:1019   .text:0000000000000754 .LVL124
     /tmp/cc5FJUlz.s:1026   .text:000000000000076c .LVL125
     /tmp/cc5FJUlz.s:1031   .text:000000000000077c .LVL126
     /tmp/cc5FJUlz.s:1035   .text:0000000000000784 .LVL127
     /tmp/cc5FJUlz.s:1041   .text:0000000000000790 .LVL128
     /tmp/cc5FJUlz.s:4408   .debug_str:0000000000000114 .LASF90
     /tmp/cc5FJUlz.s:4608   .debug_str:000000000000075e .LASF91
     /tmp/cc5FJUlz.s:75     .text:0000000000000028 .LFB15
     /tmp/cc5FJUlz.s:764    .text:0000000000000564 .LFE15
     /tmp/cc5FJUlz.s:4013   .debug_loc:00000000000001b8 .LLST1
     /tmp/cc5FJUlz.s:4020   .debug_loc:00000000000001db .LLST2
     /tmp/cc5FJUlz.s:4516   .debug_str:000000000000041f .LASF92
     /tmp/cc5FJUlz.s:4035   .debug_loc:0000000000000224 .LLST3
     /tmp/cc5FJUlz.s:4418   .debug_str:000000000000017a .LASF93
     /tmp/cc5FJUlz.s:4046   .debug_loc:000000000000025a .LLST4
     /tmp/cc5FJUlz.s:4496   .debug_str:0000000000000388 .LASF94
     /tmp/cc5FJUlz.s:4057   .debug_loc:0000000000000290 .LLST5
     /tmp/cc5FJUlz.s:4422   .debug_str:000000000000018d .LASF95
GAS LISTING /tmp/cc5FJUlz.s 			page 42


     /tmp/cc5FJUlz.s:4068   .debug_loc:00000000000002c6 .LLST6
     /tmp/cc5FJUlz.s:4440   .debug_str:000000000000021f .LASF96
     /tmp/cc5FJUlz.s:4079   .debug_loc:00000000000002fc .LLST7
     /tmp/cc5FJUlz.s:4390   .debug_str:000000000000009a .LASF97
     /tmp/cc5FJUlz.s:4087   .debug_loc:0000000000000320 .LLST8
     /tmp/cc5FJUlz.s:4518   .debug_str:0000000000000424 .LASF98
     /tmp/cc5FJUlz.s:4098   .debug_loc:0000000000000347 .LLST9
     /tmp/cc5FJUlz.s:571    .text:00000000000003f0 .LBB37
     /tmp/cc5FJUlz.s:660    .text:00000000000004b8 .LBE37
     /tmp/cc5FJUlz.s:4432   .debug_str:00000000000001e5 .LASF99
     /tmp/cc5FJUlz.s:606    .text:0000000000000444 .LBB38
     /tmp/cc5FJUlz.s:4356   .debug_ranges:0000000000000000 .Ldebug_ranges0
     /tmp/cc5FJUlz.s:4109   .debug_loc:000000000000036e .LLST16
     /tmp/cc5FJUlz.s:4124   .debug_loc:00000000000003a8 .LLST17
     /tmp/cc5FJUlz.s:4139   .debug_loc:00000000000003f0 .LLST18
     /tmp/cc5FJUlz.s:628    .text:000000000000046c .LVL70
     /tmp/cc5FJUlz.s:633    .text:000000000000047c .LVL71
     /tmp/cc5FJUlz.s:638    .text:000000000000048c .LVL72
     /tmp/cc5FJUlz.s:643    .text:0000000000000498 .LVL73
     /tmp/cc5FJUlz.s:648    .text:00000000000004a8 .LVL74
     /tmp/cc5FJUlz.s:652    .text:00000000000004b0 .LVL75
     /tmp/cc5FJUlz.s:656    .text:00000000000004b8 .LVL76
     /tmp/cc5FJUlz.s:576    .text:00000000000003f8 .LVL62
     /tmp/cc5FJUlz.s:583    .text:000000000000040c .LVL63
     /tmp/cc5FJUlz.s:590    .text:000000000000041c .LVL64
     /tmp/cc5FJUlz.s:592    .text:0000000000000424 .LVL65
     /tmp/cc5FJUlz.s:597    .text:000000000000042c .LVL66
     /tmp/cc5FJUlz.s:163    .text:000000000000008c .LBB28
     /tmp/cc5FJUlz.s:203    .text:00000000000000ec .LBE28
     /tmp/cc5FJUlz.s:4150   .debug_loc:0000000000000426 .LLST10
     /tmp/cc5FJUlz.s:4159   .debug_loc:000000000000044b .LLST11
     /tmp/cc5FJUlz.s:4168   .debug_loc:0000000000000477 .LLST12
     /tmp/cc5FJUlz.s:171    .text:000000000000009c .LVL9
     /tmp/cc5FJUlz.s:176    .text:00000000000000ac .LVL10
     /tmp/cc5FJUlz.s:181    .text:00000000000000bc .LVL11
     /tmp/cc5FJUlz.s:186    .text:00000000000000c8 .LVL12
     /tmp/cc5FJUlz.s:191    .text:00000000000000d8 .LVL13
     /tmp/cc5FJUlz.s:195    .text:00000000000000e0 .LVL14
     /tmp/cc5FJUlz.s:199    .text:00000000000000e8 .LVL15
     /tmp/cc5FJUlz.s:267    .text:0000000000000134 .LBB35
     /tmp/cc5FJUlz.s:305    .text:0000000000000190 .LBE35
     /tmp/cc5FJUlz.s:4176   .debug_loc:000000000000049b .LLST13
     /tmp/cc5FJUlz.s:4185   .debug_loc:00000000000004c0 .LLST14
     /tmp/cc5FJUlz.s:4194   .debug_loc:00000000000004ec .LLST15
     /tmp/cc5FJUlz.s:274    .text:0000000000000144 .LVL18
     /tmp/cc5FJUlz.s:279    .text:0000000000000154 .LVL19
     /tmp/cc5FJUlz.s:284    .text:0000000000000164 .LVL20
     /tmp/cc5FJUlz.s:289    .text:0000000000000170 .LVL21
     /tmp/cc5FJUlz.s:294    .text:0000000000000180 .LVL22
     /tmp/cc5FJUlz.s:298    .text:0000000000000188 .LVL23
     /tmp/cc5FJUlz.s:302    .text:0000000000000190 .LVL24
     /tmp/cc5FJUlz.s:331    .text:00000000000001c8 .LBB56
     /tmp/cc5FJUlz.s:369    .text:0000000000000224 .LBE56
     /tmp/cc5FJUlz.s:4202   .debug_loc:0000000000000510 .LLST19
     /tmp/cc5FJUlz.s:4211   .debug_loc:0000000000000535 .LLST20
     /tmp/cc5FJUlz.s:4220   .debug_loc:0000000000000561 .LLST21
     /tmp/cc5FJUlz.s:338    .text:00000000000001d8 .LVL27
GAS LISTING /tmp/cc5FJUlz.s 			page 43


     /tmp/cc5FJUlz.s:343    .text:00000000000001e8 .LVL28
     /tmp/cc5FJUlz.s:348    .text:00000000000001f8 .LVL29
     /tmp/cc5FJUlz.s:353    .text:0000000000000204 .LVL30
     /tmp/cc5FJUlz.s:358    .text:0000000000000214 .LVL31
     /tmp/cc5FJUlz.s:362    .text:000000000000021c .LVL32
     /tmp/cc5FJUlz.s:366    .text:0000000000000224 .LVL33
     /tmp/cc5FJUlz.s:404    .text:000000000000027c .LBB58
     /tmp/cc5FJUlz.s:442    .text:00000000000002d8 .LBE58
     /tmp/cc5FJUlz.s:4228   .debug_loc:0000000000000585 .LLST22
     /tmp/cc5FJUlz.s:4237   .debug_loc:00000000000005aa .LLST23
     /tmp/cc5FJUlz.s:4246   .debug_loc:00000000000005d6 .LLST24
     /tmp/cc5FJUlz.s:411    .text:000000000000028c .LVL40
     /tmp/cc5FJUlz.s:416    .text:000000000000029c .LVL41
     /tmp/cc5FJUlz.s:421    .text:00000000000002ac .LVL42
     /tmp/cc5FJUlz.s:426    .text:00000000000002b8 .LVL43
     /tmp/cc5FJUlz.s:431    .text:00000000000002c8 .LVL44
     /tmp/cc5FJUlz.s:435    .text:00000000000002d0 .LVL45
     /tmp/cc5FJUlz.s:439    .text:00000000000002d8 .LVL46
     /tmp/cc5FJUlz.s:497    .text:000000000000034c .LBB61
     /tmp/cc5FJUlz.s:535    .text:00000000000003a8 .LBE61
     /tmp/cc5FJUlz.s:4254   .debug_loc:00000000000005fa .LLST25
     /tmp/cc5FJUlz.s:4263   .debug_loc:000000000000061f .LLST26
     /tmp/cc5FJUlz.s:4272   .debug_loc:000000000000064b .LLST27
     /tmp/cc5FJUlz.s:504    .text:000000000000035c .LVL51
     /tmp/cc5FJUlz.s:509    .text:000000000000036c .LVL52
     /tmp/cc5FJUlz.s:514    .text:000000000000037c .LVL53
     /tmp/cc5FJUlz.s:519    .text:0000000000000388 .LVL54
     /tmp/cc5FJUlz.s:524    .text:0000000000000398 .LVL55
     /tmp/cc5FJUlz.s:528    .text:00000000000003a0 .LVL56
     /tmp/cc5FJUlz.s:532    .text:00000000000003a8 .LVL57
     /tmp/cc5FJUlz.s:679    .text:00000000000004d4 .LBB64
     /tmp/cc5FJUlz.s:4280   .debug_loc:000000000000066f .LLST28
     /tmp/cc5FJUlz.s:4295   .debug_loc:00000000000006a9 .LLST29
     /tmp/cc5FJUlz.s:4310   .debug_loc:00000000000006f1 .LLST30
     /tmp/cc5FJUlz.s:732    .text:0000000000000518 .LVL86
     /tmp/cc5FJUlz.s:737    .text:0000000000000528 .LVL87
     /tmp/cc5FJUlz.s:742    .text:0000000000000538 .LVL88
     /tmp/cc5FJUlz.s:747    .text:0000000000000544 .LVL89
     /tmp/cc5FJUlz.s:752    .text:0000000000000554 .LVL90
     /tmp/cc5FJUlz.s:756    .text:000000000000055c .LVL91
     /tmp/cc5FJUlz.s:760    .text:0000000000000564 .LVL92
     /tmp/cc5FJUlz.s:146    .text:0000000000000074 .LVL7
     /tmp/cc5FJUlz.s:315    .text:00000000000001a0 .LVL25
     /tmp/cc5FJUlz.s:329    .text:00000000000001c8 .LVL26
     /tmp/cc5FJUlz.s:374    .text:0000000000000234 .LVL34
     /tmp/cc5FJUlz.s:381    .text:0000000000000248 .LVL35
     /tmp/cc5FJUlz.s:388    .text:000000000000025c .LVL36
     /tmp/cc5FJUlz.s:393    .text:0000000000000264 .LVL37
     /tmp/cc5FJUlz.s:398    .text:0000000000000274 .LVL38
     /tmp/cc5FJUlz.s:402    .text:000000000000027c .LVL39
     /tmp/cc5FJUlz.s:447    .text:00000000000002e0 .LVL47
     /tmp/cc5FJUlz.s:450    .text:00000000000002ec .LVL48
     /tmp/cc5FJUlz.s:541    .text:00000000000003b0 .LVL58
     /tmp/cc5FJUlz.s:544    .text:00000000000003bc .LVL59
     /tmp/cc5FJUlz.s:556    .text:00000000000003d8 .LVL60
     /tmp/cc5FJUlz.s:565    .text:00000000000003e8 .LVL61
     /tmp/cc5FJUlz.s:665    .text:00000000000004c4 .LVL77
GAS LISTING /tmp/cc5FJUlz.s 			page 44


     /tmp/cc5FJUlz.s:4600   .debug_str:000000000000073d .LASF120
     /tmp/cc5FJUlz.s:4426   .debug_str:00000000000001ae .LASF121
     /tmp/cc5FJUlz.s:10     .text:0000000000000000 .LFB14
     /tmp/cc5FJUlz.s:37     .text:0000000000000028 .LFE14
     /tmp/cc5FJUlz.s:4329   .debug_loc:000000000000072f .LLST0
     /tmp/cc5FJUlz.s:26     .text:0000000000000018 .LVL1
     /tmp/cc5FJUlz.s:4562   .debug_str:000000000000056b .LASF100
     /tmp/cc5FJUlz.s:4584   .debug_str:000000000000061b .LASF101
     /tmp/cc5FJUlz.s:4372   .debug_str:0000000000000000 .LASF102
     /tmp/cc5FJUlz.s:4494   .debug_str:0000000000000383 .LASF103
     /tmp/cc5FJUlz.s:4560   .debug_str:0000000000000566 .LASF104
     /tmp/cc5FJUlz.s:4410   .debug_str:000000000000012e .LASF105
     /tmp/cc5FJUlz.s:4392   .debug_str:00000000000000af .LASF107
     /tmp/cc5FJUlz.s:4466   .debug_str:00000000000002cb .LASF106
     /tmp/cc5FJUlz.s:4374   .debug_str:0000000000000006 .LASF108
     /tmp/cc5FJUlz.s:4574   .debug_str:00000000000005d1 .LASF109
     /tmp/cc5FJUlz.s:4566   .debug_str:0000000000000589 .LASF110
     /tmp/cc5FJUlz.s:4554   .debug_str:0000000000000535 .LASF111
     /tmp/cc5FJUlz.s:4478   .debug_str:0000000000000315 .LASF112
     /tmp/cc5FJUlz.s:4430   .debug_str:00000000000001d5 .LASF113
     /tmp/cc5FJUlz.s:4514   .debug_str:0000000000000417 .LASF114
     /tmp/cc5FJUlz.s:801    .text:000000000000057c .LVL93
     /tmp/cc5FJUlz.s:806    .text:0000000000000580 .LVL94
     /tmp/cc5FJUlz.s:1008   .text:000000000000073c .LVL122
     /tmp/cc5FJUlz.s:1012   .text:0000000000000744 .LVL123
     /tmp/cc5FJUlz.s:832    .text:00000000000005a4 .LVL96
     /tmp/cc5FJUlz.s:885    .text:000000000000061c .LVL105
     /tmp/cc5FJUlz.s:105    .text:0000000000000054 .LVL2
     /tmp/cc5FJUlz.s:214    .text:00000000000000f4 .LVL16
     /tmp/cc5FJUlz.s:710    .text:00000000000004f4 .LVL81
     /tmp/cc5FJUlz.s:723    .text:0000000000000508 .LVL85
     /tmp/cc5FJUlz.s:118    .text:000000000000005c .LVL3
     /tmp/cc5FJUlz.s:707    .text:00000000000004f0 .LVL80
     /tmp/cc5FJUlz.s:124    .text:0000000000000060 .LVL4
     /tmp/cc5FJUlz.s:713    .text:00000000000004f8 .LVL82
     /tmp/cc5FJUlz.s:130    .text:0000000000000064 .LVL5
     /tmp/cc5FJUlz.s:716    .text:00000000000004fc .LVL83
     /tmp/cc5FJUlz.s:136    .text:0000000000000068 .LVL6
     /tmp/cc5FJUlz.s:719    .text:0000000000000500 .LVL84
     /tmp/cc5FJUlz.s:485    .text:000000000000033c .LVL49
     /tmp/cc5FJUlz.s:605    .text:0000000000000444 .LVL67
     /tmp/cc5FJUlz.s:611    .text:0000000000000448 .LVL68
     /tmp/cc5FJUlz.s:620    .text:000000000000045c .LVL69
     /tmp/cc5FJUlz.s:161    .text:000000000000008c .LVL8
     /tmp/cc5FJUlz.s:266    .text:0000000000000134 .LVL17
     /tmp/cc5FJUlz.s:496    .text:000000000000034c .LVL50
     /tmp/cc5FJUlz.s:678    .text:00000000000004d4 .LVL78
     /tmp/cc5FJUlz.s:684    .text:00000000000004d8 .LVL79
     /tmp/cc5FJUlz.s:14     .text:0000000000000000 .LVL0
     /tmp/cc5FJUlz.s:1062   .debug_info:0000000000000000 .Ldebug_info0
     /tmp/cc5FJUlz.s:613    .text:0000000000000448 .LBE38
     /tmp/cc5FJUlz.s:622    .text:000000000000045c .LBB41
     /tmp/cc5FJUlz.s:659    .text:00000000000004b8 .LBE41
     /tmp/cc5FJUlz.s:686    .text:00000000000004d8 .LBE64
     /tmp/cc5FJUlz.s:726    .text:0000000000000508 .LBB67
     /tmp/cc5FJUlz.s:762    .text:0000000000000564 .LBE67

GAS LISTING /tmp/cc5FJUlz.s 			page 45


UNDEFINED SYMBOLS
_Z3fibm
_ZN6Thread11getPRunningEv
_ZN6Thread15pRunningContextE
_Z9putStringPKc
_Z6putInti
_Z10putNewlinev
_Z10stopKernelv
_ZN8MemAlloc3getEv
_ZN8MemAlloc8allocMemEm
_ZN8MemAlloc7freeMemEPv
_ZN6Thread12createThreadEPmPFvPvES1_
_ZN6Thread4exitEv
kernelThread
_ZN9Scheduler3putEP6Thread
_ZN9Scheduler14dispatchToNextEv
_ZN6Thread20switchedToUserThreadE
_ZN6Thread16timeSliceCounterE
console_handler
